ARM GAS  /var/folders/vq/qt4vp3kd5rxf7v2b6_fdtdt80000gn/T//cc6xBrdC.s 			page 1


   1              		.cpu cortex-m4
   2              		.eabi_attribute 27, 1
   3              		.eabi_attribute 20, 1
   4              		.eabi_attribute 21, 1
   5              		.eabi_attribute 23, 3
   6              		.eabi_attribute 24, 1
   7              		.eabi_attribute 25, 1
   8              		.eabi_attribute 26, 1
   9              		.eabi_attribute 30, 6
  10              		.eabi_attribute 34, 1
  11              		.eabi_attribute 18, 4
  12              		.file	"stm32f4xx_hal_pcd.c"
  13              		.text
  14              	.Ltext0:
  15              		.cfi_sections	.debug_frame
  16              		.section	.text.HAL_PCD_Init,"ax",%progbits
  17              		.align	1
  18              		.global	HAL_PCD_Init
  19              		.arch armv7e-m
  20              		.syntax unified
  21              		.thumb
  22              		.thumb_func
  23              		.fpu fpv4-sp-d16
  25              	HAL_PCD_Init:
  26              	.LFB130:
  27              		.file 1 "Drivers/STM32F4xx_HAL_Driver/Src/stm32f4xx_hal_pcd.c"
   1:Drivers/STM32F4xx_HAL_Driver/Src/stm32f4xx_hal_pcd.c **** /**
   2:Drivers/STM32F4xx_HAL_Driver/Src/stm32f4xx_hal_pcd.c ****   ******************************************************************************
   3:Drivers/STM32F4xx_HAL_Driver/Src/stm32f4xx_hal_pcd.c ****   * @file    stm32f4xx_hal_pcd.c
   4:Drivers/STM32F4xx_HAL_Driver/Src/stm32f4xx_hal_pcd.c ****   * @author  MCD Application Team
   5:Drivers/STM32F4xx_HAL_Driver/Src/stm32f4xx_hal_pcd.c ****   * @brief   PCD HAL module driver.
   6:Drivers/STM32F4xx_HAL_Driver/Src/stm32f4xx_hal_pcd.c ****   *          This file provides firmware functions to manage the following
   7:Drivers/STM32F4xx_HAL_Driver/Src/stm32f4xx_hal_pcd.c ****   *          functionalities of the USB Peripheral Controller:
   8:Drivers/STM32F4xx_HAL_Driver/Src/stm32f4xx_hal_pcd.c ****   *           + Initialization and de-initialization functions
   9:Drivers/STM32F4xx_HAL_Driver/Src/stm32f4xx_hal_pcd.c ****   *           + IO operation functions
  10:Drivers/STM32F4xx_HAL_Driver/Src/stm32f4xx_hal_pcd.c ****   *           + Peripheral Control functions
  11:Drivers/STM32F4xx_HAL_Driver/Src/stm32f4xx_hal_pcd.c ****   *           + Peripheral State functions
  12:Drivers/STM32F4xx_HAL_Driver/Src/stm32f4xx_hal_pcd.c ****   *
  13:Drivers/STM32F4xx_HAL_Driver/Src/stm32f4xx_hal_pcd.c ****   @verbatim
  14:Drivers/STM32F4xx_HAL_Driver/Src/stm32f4xx_hal_pcd.c ****   ==============================================================================
  15:Drivers/STM32F4xx_HAL_Driver/Src/stm32f4xx_hal_pcd.c ****                     ##### How to use this driver #####
  16:Drivers/STM32F4xx_HAL_Driver/Src/stm32f4xx_hal_pcd.c ****   ==============================================================================
  17:Drivers/STM32F4xx_HAL_Driver/Src/stm32f4xx_hal_pcd.c ****     [..]
  18:Drivers/STM32F4xx_HAL_Driver/Src/stm32f4xx_hal_pcd.c ****       The PCD HAL driver can be used as follows:
  19:Drivers/STM32F4xx_HAL_Driver/Src/stm32f4xx_hal_pcd.c **** 
  20:Drivers/STM32F4xx_HAL_Driver/Src/stm32f4xx_hal_pcd.c ****      (#) Declare a PCD_HandleTypeDef handle structure, for example:
  21:Drivers/STM32F4xx_HAL_Driver/Src/stm32f4xx_hal_pcd.c ****          PCD_HandleTypeDef  hpcd;
  22:Drivers/STM32F4xx_HAL_Driver/Src/stm32f4xx_hal_pcd.c **** 
  23:Drivers/STM32F4xx_HAL_Driver/Src/stm32f4xx_hal_pcd.c ****      (#) Fill parameters of Init structure in HCD handle
  24:Drivers/STM32F4xx_HAL_Driver/Src/stm32f4xx_hal_pcd.c **** 
  25:Drivers/STM32F4xx_HAL_Driver/Src/stm32f4xx_hal_pcd.c ****      (#) Call HAL_PCD_Init() API to initialize the PCD peripheral (Core, Device core, ...)
  26:Drivers/STM32F4xx_HAL_Driver/Src/stm32f4xx_hal_pcd.c **** 
  27:Drivers/STM32F4xx_HAL_Driver/Src/stm32f4xx_hal_pcd.c ****      (#) Initialize the PCD low level resources through the HAL_PCD_MspInit() API:
  28:Drivers/STM32F4xx_HAL_Driver/Src/stm32f4xx_hal_pcd.c ****          (##) Enable the PCD/USB Low Level interface clock using
  29:Drivers/STM32F4xx_HAL_Driver/Src/stm32f4xx_hal_pcd.c ****               (+++) __HAL_RCC_USB_OTG_FS_CLK_ENABLE();
  30:Drivers/STM32F4xx_HAL_Driver/Src/stm32f4xx_hal_pcd.c ****               (+++) __HAL_RCC_USB_OTG_HS_CLK_ENABLE(); (For High Speed Mode)
  31:Drivers/STM32F4xx_HAL_Driver/Src/stm32f4xx_hal_pcd.c **** 
ARM GAS  /var/folders/vq/qt4vp3kd5rxf7v2b6_fdtdt80000gn/T//cc6xBrdC.s 			page 2


  32:Drivers/STM32F4xx_HAL_Driver/Src/stm32f4xx_hal_pcd.c ****          (##) Initialize the related GPIO clocks
  33:Drivers/STM32F4xx_HAL_Driver/Src/stm32f4xx_hal_pcd.c ****          (##) Configure PCD pin-out
  34:Drivers/STM32F4xx_HAL_Driver/Src/stm32f4xx_hal_pcd.c ****          (##) Configure PCD NVIC interrupt
  35:Drivers/STM32F4xx_HAL_Driver/Src/stm32f4xx_hal_pcd.c **** 
  36:Drivers/STM32F4xx_HAL_Driver/Src/stm32f4xx_hal_pcd.c ****      (#)Associate the Upper USB device stack to the HAL PCD Driver:
  37:Drivers/STM32F4xx_HAL_Driver/Src/stm32f4xx_hal_pcd.c ****          (##) hpcd.pData = pdev;
  38:Drivers/STM32F4xx_HAL_Driver/Src/stm32f4xx_hal_pcd.c **** 
  39:Drivers/STM32F4xx_HAL_Driver/Src/stm32f4xx_hal_pcd.c ****      (#)Enable PCD transmission and reception:
  40:Drivers/STM32F4xx_HAL_Driver/Src/stm32f4xx_hal_pcd.c ****          (##) HAL_PCD_Start();
  41:Drivers/STM32F4xx_HAL_Driver/Src/stm32f4xx_hal_pcd.c **** 
  42:Drivers/STM32F4xx_HAL_Driver/Src/stm32f4xx_hal_pcd.c ****   @endverbatim
  43:Drivers/STM32F4xx_HAL_Driver/Src/stm32f4xx_hal_pcd.c ****   ******************************************************************************
  44:Drivers/STM32F4xx_HAL_Driver/Src/stm32f4xx_hal_pcd.c ****   * @attention
  45:Drivers/STM32F4xx_HAL_Driver/Src/stm32f4xx_hal_pcd.c ****   *
  46:Drivers/STM32F4xx_HAL_Driver/Src/stm32f4xx_hal_pcd.c ****   * <h2><center>&copy; Copyright (c) 2016 STMicroelectronics.
  47:Drivers/STM32F4xx_HAL_Driver/Src/stm32f4xx_hal_pcd.c ****   * All rights reserved.</center></h2>
  48:Drivers/STM32F4xx_HAL_Driver/Src/stm32f4xx_hal_pcd.c ****   *
  49:Drivers/STM32F4xx_HAL_Driver/Src/stm32f4xx_hal_pcd.c ****   * This software component is licensed by ST under BSD 3-Clause license,
  50:Drivers/STM32F4xx_HAL_Driver/Src/stm32f4xx_hal_pcd.c ****   * the "License"; You may not use this file except in compliance with the
  51:Drivers/STM32F4xx_HAL_Driver/Src/stm32f4xx_hal_pcd.c ****   * License. You may obtain a copy of the License at:
  52:Drivers/STM32F4xx_HAL_Driver/Src/stm32f4xx_hal_pcd.c ****   *                        opensource.org/licenses/BSD-3-Clause
  53:Drivers/STM32F4xx_HAL_Driver/Src/stm32f4xx_hal_pcd.c ****   *
  54:Drivers/STM32F4xx_HAL_Driver/Src/stm32f4xx_hal_pcd.c ****   ******************************************************************************
  55:Drivers/STM32F4xx_HAL_Driver/Src/stm32f4xx_hal_pcd.c ****   */
  56:Drivers/STM32F4xx_HAL_Driver/Src/stm32f4xx_hal_pcd.c **** 
  57:Drivers/STM32F4xx_HAL_Driver/Src/stm32f4xx_hal_pcd.c **** /* Includes ------------------------------------------------------------------*/
  58:Drivers/STM32F4xx_HAL_Driver/Src/stm32f4xx_hal_pcd.c **** #include "stm32f4xx_hal.h"
  59:Drivers/STM32F4xx_HAL_Driver/Src/stm32f4xx_hal_pcd.c **** 
  60:Drivers/STM32F4xx_HAL_Driver/Src/stm32f4xx_hal_pcd.c **** /** @addtogroup STM32F4xx_HAL_Driver
  61:Drivers/STM32F4xx_HAL_Driver/Src/stm32f4xx_hal_pcd.c ****   * @{
  62:Drivers/STM32F4xx_HAL_Driver/Src/stm32f4xx_hal_pcd.c ****   */
  63:Drivers/STM32F4xx_HAL_Driver/Src/stm32f4xx_hal_pcd.c **** 
  64:Drivers/STM32F4xx_HAL_Driver/Src/stm32f4xx_hal_pcd.c **** /** @defgroup PCD PCD
  65:Drivers/STM32F4xx_HAL_Driver/Src/stm32f4xx_hal_pcd.c ****   * @brief PCD HAL module driver
  66:Drivers/STM32F4xx_HAL_Driver/Src/stm32f4xx_hal_pcd.c ****   * @{
  67:Drivers/STM32F4xx_HAL_Driver/Src/stm32f4xx_hal_pcd.c ****   */
  68:Drivers/STM32F4xx_HAL_Driver/Src/stm32f4xx_hal_pcd.c **** 
  69:Drivers/STM32F4xx_HAL_Driver/Src/stm32f4xx_hal_pcd.c **** #ifdef HAL_PCD_MODULE_ENABLED
  70:Drivers/STM32F4xx_HAL_Driver/Src/stm32f4xx_hal_pcd.c **** 
  71:Drivers/STM32F4xx_HAL_Driver/Src/stm32f4xx_hal_pcd.c **** #if defined (USB_OTG_FS) || defined (USB_OTG_HS)
  72:Drivers/STM32F4xx_HAL_Driver/Src/stm32f4xx_hal_pcd.c **** 
  73:Drivers/STM32F4xx_HAL_Driver/Src/stm32f4xx_hal_pcd.c **** /* Private types -------------------------------------------------------------*/
  74:Drivers/STM32F4xx_HAL_Driver/Src/stm32f4xx_hal_pcd.c **** /* Private variables ---------------------------------------------------------*/
  75:Drivers/STM32F4xx_HAL_Driver/Src/stm32f4xx_hal_pcd.c **** /* Private constants ---------------------------------------------------------*/
  76:Drivers/STM32F4xx_HAL_Driver/Src/stm32f4xx_hal_pcd.c **** /* Private macros ------------------------------------------------------------*/
  77:Drivers/STM32F4xx_HAL_Driver/Src/stm32f4xx_hal_pcd.c **** /** @defgroup PCD_Private_Macros PCD Private Macros
  78:Drivers/STM32F4xx_HAL_Driver/Src/stm32f4xx_hal_pcd.c ****   * @{
  79:Drivers/STM32F4xx_HAL_Driver/Src/stm32f4xx_hal_pcd.c ****   */
  80:Drivers/STM32F4xx_HAL_Driver/Src/stm32f4xx_hal_pcd.c **** #define PCD_MIN(a, b)  (((a) < (b)) ? (a) : (b))
  81:Drivers/STM32F4xx_HAL_Driver/Src/stm32f4xx_hal_pcd.c **** #define PCD_MAX(a, b)  (((a) > (b)) ? (a) : (b))
  82:Drivers/STM32F4xx_HAL_Driver/Src/stm32f4xx_hal_pcd.c **** /**
  83:Drivers/STM32F4xx_HAL_Driver/Src/stm32f4xx_hal_pcd.c ****   * @}
  84:Drivers/STM32F4xx_HAL_Driver/Src/stm32f4xx_hal_pcd.c ****   */
  85:Drivers/STM32F4xx_HAL_Driver/Src/stm32f4xx_hal_pcd.c **** 
  86:Drivers/STM32F4xx_HAL_Driver/Src/stm32f4xx_hal_pcd.c **** /* Private functions prototypes ----------------------------------------------*/
  87:Drivers/STM32F4xx_HAL_Driver/Src/stm32f4xx_hal_pcd.c **** /** @defgroup PCD_Private_Functions PCD Private Functions
  88:Drivers/STM32F4xx_HAL_Driver/Src/stm32f4xx_hal_pcd.c ****   * @{
ARM GAS  /var/folders/vq/qt4vp3kd5rxf7v2b6_fdtdt80000gn/T//cc6xBrdC.s 			page 3


  89:Drivers/STM32F4xx_HAL_Driver/Src/stm32f4xx_hal_pcd.c ****   */
  90:Drivers/STM32F4xx_HAL_Driver/Src/stm32f4xx_hal_pcd.c **** #if defined (USB_OTG_FS) || defined (USB_OTG_HS)
  91:Drivers/STM32F4xx_HAL_Driver/Src/stm32f4xx_hal_pcd.c **** static HAL_StatusTypeDef PCD_WriteEmptyTxFifo(PCD_HandleTypeDef *hpcd, uint32_t epnum);
  92:Drivers/STM32F4xx_HAL_Driver/Src/stm32f4xx_hal_pcd.c **** static HAL_StatusTypeDef PCD_EP_OutXfrComplete_int(PCD_HandleTypeDef *hpcd, uint32_t epnum);
  93:Drivers/STM32F4xx_HAL_Driver/Src/stm32f4xx_hal_pcd.c **** static HAL_StatusTypeDef PCD_EP_OutSetupPacket_int(PCD_HandleTypeDef *hpcd, uint32_t epnum);
  94:Drivers/STM32F4xx_HAL_Driver/Src/stm32f4xx_hal_pcd.c **** #endif /* defined (USB_OTG_FS) || defined (USB_OTG_HS) */
  95:Drivers/STM32F4xx_HAL_Driver/Src/stm32f4xx_hal_pcd.c **** /**
  96:Drivers/STM32F4xx_HAL_Driver/Src/stm32f4xx_hal_pcd.c ****   * @}
  97:Drivers/STM32F4xx_HAL_Driver/Src/stm32f4xx_hal_pcd.c ****   */
  98:Drivers/STM32F4xx_HAL_Driver/Src/stm32f4xx_hal_pcd.c **** 
  99:Drivers/STM32F4xx_HAL_Driver/Src/stm32f4xx_hal_pcd.c **** /* Exported functions --------------------------------------------------------*/
 100:Drivers/STM32F4xx_HAL_Driver/Src/stm32f4xx_hal_pcd.c **** /** @defgroup PCD_Exported_Functions PCD Exported Functions
 101:Drivers/STM32F4xx_HAL_Driver/Src/stm32f4xx_hal_pcd.c ****   * @{
 102:Drivers/STM32F4xx_HAL_Driver/Src/stm32f4xx_hal_pcd.c ****   */
 103:Drivers/STM32F4xx_HAL_Driver/Src/stm32f4xx_hal_pcd.c **** 
 104:Drivers/STM32F4xx_HAL_Driver/Src/stm32f4xx_hal_pcd.c **** /** @defgroup PCD_Exported_Functions_Group1 Initialization and de-initialization functions
 105:Drivers/STM32F4xx_HAL_Driver/Src/stm32f4xx_hal_pcd.c ****   *  @brief    Initialization and Configuration functions
 106:Drivers/STM32F4xx_HAL_Driver/Src/stm32f4xx_hal_pcd.c ****   *
 107:Drivers/STM32F4xx_HAL_Driver/Src/stm32f4xx_hal_pcd.c **** @verbatim
 108:Drivers/STM32F4xx_HAL_Driver/Src/stm32f4xx_hal_pcd.c ****  ===============================================================================
 109:Drivers/STM32F4xx_HAL_Driver/Src/stm32f4xx_hal_pcd.c ****             ##### Initialization and de-initialization functions #####
 110:Drivers/STM32F4xx_HAL_Driver/Src/stm32f4xx_hal_pcd.c ****  ===============================================================================
 111:Drivers/STM32F4xx_HAL_Driver/Src/stm32f4xx_hal_pcd.c ****     [..]  This section provides functions allowing to:
 112:Drivers/STM32F4xx_HAL_Driver/Src/stm32f4xx_hal_pcd.c **** 
 113:Drivers/STM32F4xx_HAL_Driver/Src/stm32f4xx_hal_pcd.c **** @endverbatim
 114:Drivers/STM32F4xx_HAL_Driver/Src/stm32f4xx_hal_pcd.c ****   * @{
 115:Drivers/STM32F4xx_HAL_Driver/Src/stm32f4xx_hal_pcd.c ****   */
 116:Drivers/STM32F4xx_HAL_Driver/Src/stm32f4xx_hal_pcd.c **** 
 117:Drivers/STM32F4xx_HAL_Driver/Src/stm32f4xx_hal_pcd.c **** /**
 118:Drivers/STM32F4xx_HAL_Driver/Src/stm32f4xx_hal_pcd.c ****   * @brief  Initializes the PCD according to the specified
 119:Drivers/STM32F4xx_HAL_Driver/Src/stm32f4xx_hal_pcd.c ****   *         parameters in the PCD_InitTypeDef and initialize the associated handle.
 120:Drivers/STM32F4xx_HAL_Driver/Src/stm32f4xx_hal_pcd.c ****   * @param  hpcd PCD handle
 121:Drivers/STM32F4xx_HAL_Driver/Src/stm32f4xx_hal_pcd.c ****   * @retval HAL status
 122:Drivers/STM32F4xx_HAL_Driver/Src/stm32f4xx_hal_pcd.c ****   */
 123:Drivers/STM32F4xx_HAL_Driver/Src/stm32f4xx_hal_pcd.c **** HAL_StatusTypeDef HAL_PCD_Init(PCD_HandleTypeDef *hpcd)
 124:Drivers/STM32F4xx_HAL_Driver/Src/stm32f4xx_hal_pcd.c **** {
  28              		.loc 1 124 1
  29              		.cfi_startproc
  30              		@ args = 0, pretend = 0, frame = 16
  31              		@ frame_needed = 1, uses_anonymous_args = 0
  32 0000 F0B5     		push	{r4, r5, r6, r7, lr}
  33              	.LCFI0:
  34              		.cfi_def_cfa_offset 20
  35              		.cfi_offset 4, -20
  36              		.cfi_offset 5, -16
  37              		.cfi_offset 6, -12
  38              		.cfi_offset 7, -8
  39              		.cfi_offset 14, -4
  40 0002 8FB0     		sub	sp, sp, #60
  41              	.LCFI1:
  42              		.cfi_def_cfa_offset 80
  43 0004 0AAF     		add	r7, sp, #40
  44              	.LCFI2:
  45              		.cfi_def_cfa 7, 40
  46 0006 7860     		str	r0, [r7, #4]
 125:Drivers/STM32F4xx_HAL_Driver/Src/stm32f4xx_hal_pcd.c ****   USB_OTG_GlobalTypeDef *USBx;
 126:Drivers/STM32F4xx_HAL_Driver/Src/stm32f4xx_hal_pcd.c ****   uint8_t i;
ARM GAS  /var/folders/vq/qt4vp3kd5rxf7v2b6_fdtdt80000gn/T//cc6xBrdC.s 			page 4


 127:Drivers/STM32F4xx_HAL_Driver/Src/stm32f4xx_hal_pcd.c **** 
 128:Drivers/STM32F4xx_HAL_Driver/Src/stm32f4xx_hal_pcd.c ****   /* Check the PCD handle allocation */
 129:Drivers/STM32F4xx_HAL_Driver/Src/stm32f4xx_hal_pcd.c ****   if (hpcd == NULL)
  47              		.loc 1 129 6
  48 0008 7B68     		ldr	r3, [r7, #4]
  49 000a 002B     		cmp	r3, #0
  50 000c 01D1     		bne	.L2
 130:Drivers/STM32F4xx_HAL_Driver/Src/stm32f4xx_hal_pcd.c ****   {
 131:Drivers/STM32F4xx_HAL_Driver/Src/stm32f4xx_hal_pcd.c ****     return HAL_ERROR;
  51              		.loc 1 131 12
  52 000e 0123     		movs	r3, #1
  53 0010 0FE1     		b	.L3
  54              	.L2:
 132:Drivers/STM32F4xx_HAL_Driver/Src/stm32f4xx_hal_pcd.c ****   }
 133:Drivers/STM32F4xx_HAL_Driver/Src/stm32f4xx_hal_pcd.c **** 
 134:Drivers/STM32F4xx_HAL_Driver/Src/stm32f4xx_hal_pcd.c ****   /* Check the parameters */
 135:Drivers/STM32F4xx_HAL_Driver/Src/stm32f4xx_hal_pcd.c ****   assert_param(IS_PCD_ALL_INSTANCE(hpcd->Instance));
 136:Drivers/STM32F4xx_HAL_Driver/Src/stm32f4xx_hal_pcd.c **** 
 137:Drivers/STM32F4xx_HAL_Driver/Src/stm32f4xx_hal_pcd.c ****   USBx = hpcd->Instance;
  55              		.loc 1 137 8
  56 0012 7B68     		ldr	r3, [r7, #4]
  57 0014 1B68     		ldr	r3, [r3]
  58 0016 BB60     		str	r3, [r7, #8]
 138:Drivers/STM32F4xx_HAL_Driver/Src/stm32f4xx_hal_pcd.c **** 
 139:Drivers/STM32F4xx_HAL_Driver/Src/stm32f4xx_hal_pcd.c ****   if (hpcd->State == HAL_PCD_STATE_RESET)
  59              		.loc 1 139 11
  60 0018 7B68     		ldr	r3, [r7, #4]
  61 001a 93F8BD33 		ldrb	r3, [r3, #957]
  62 001e DBB2     		uxtb	r3, r3
  63              		.loc 1 139 6
  64 0020 002B     		cmp	r3, #0
  65 0022 06D1     		bne	.L4
 140:Drivers/STM32F4xx_HAL_Driver/Src/stm32f4xx_hal_pcd.c ****   {
 141:Drivers/STM32F4xx_HAL_Driver/Src/stm32f4xx_hal_pcd.c ****     /* Allocate lock resource and initialize it */
 142:Drivers/STM32F4xx_HAL_Driver/Src/stm32f4xx_hal_pcd.c ****     hpcd->Lock = HAL_UNLOCKED;
  66              		.loc 1 142 16
  67 0024 7B68     		ldr	r3, [r7, #4]
  68 0026 0022     		movs	r2, #0
  69 0028 83F8BC23 		strb	r2, [r3, #956]
 143:Drivers/STM32F4xx_HAL_Driver/Src/stm32f4xx_hal_pcd.c **** 
 144:Drivers/STM32F4xx_HAL_Driver/Src/stm32f4xx_hal_pcd.c **** #if (USE_HAL_PCD_REGISTER_CALLBACKS == 1U)
 145:Drivers/STM32F4xx_HAL_Driver/Src/stm32f4xx_hal_pcd.c ****     hpcd->SOFCallback = HAL_PCD_SOFCallback;
 146:Drivers/STM32F4xx_HAL_Driver/Src/stm32f4xx_hal_pcd.c ****     hpcd->SetupStageCallback = HAL_PCD_SetupStageCallback;
 147:Drivers/STM32F4xx_HAL_Driver/Src/stm32f4xx_hal_pcd.c ****     hpcd->ResetCallback = HAL_PCD_ResetCallback;
 148:Drivers/STM32F4xx_HAL_Driver/Src/stm32f4xx_hal_pcd.c ****     hpcd->SuspendCallback = HAL_PCD_SuspendCallback;
 149:Drivers/STM32F4xx_HAL_Driver/Src/stm32f4xx_hal_pcd.c ****     hpcd->ResumeCallback = HAL_PCD_ResumeCallback;
 150:Drivers/STM32F4xx_HAL_Driver/Src/stm32f4xx_hal_pcd.c ****     hpcd->ConnectCallback = HAL_PCD_ConnectCallback;
 151:Drivers/STM32F4xx_HAL_Driver/Src/stm32f4xx_hal_pcd.c ****     hpcd->DisconnectCallback = HAL_PCD_DisconnectCallback;
 152:Drivers/STM32F4xx_HAL_Driver/Src/stm32f4xx_hal_pcd.c ****     hpcd->DataOutStageCallback = HAL_PCD_DataOutStageCallback;
 153:Drivers/STM32F4xx_HAL_Driver/Src/stm32f4xx_hal_pcd.c ****     hpcd->DataInStageCallback = HAL_PCD_DataInStageCallback;
 154:Drivers/STM32F4xx_HAL_Driver/Src/stm32f4xx_hal_pcd.c ****     hpcd->ISOOUTIncompleteCallback = HAL_PCD_ISOOUTIncompleteCallback;
 155:Drivers/STM32F4xx_HAL_Driver/Src/stm32f4xx_hal_pcd.c ****     hpcd->ISOINIncompleteCallback = HAL_PCD_ISOINIncompleteCallback;
 156:Drivers/STM32F4xx_HAL_Driver/Src/stm32f4xx_hal_pcd.c ****     hpcd->LPMCallback = HAL_PCDEx_LPM_Callback;
 157:Drivers/STM32F4xx_HAL_Driver/Src/stm32f4xx_hal_pcd.c ****     hpcd->BCDCallback = HAL_PCDEx_BCD_Callback;
 158:Drivers/STM32F4xx_HAL_Driver/Src/stm32f4xx_hal_pcd.c **** 
 159:Drivers/STM32F4xx_HAL_Driver/Src/stm32f4xx_hal_pcd.c ****     if (hpcd->MspInitCallback == NULL)
 160:Drivers/STM32F4xx_HAL_Driver/Src/stm32f4xx_hal_pcd.c ****     {
ARM GAS  /var/folders/vq/qt4vp3kd5rxf7v2b6_fdtdt80000gn/T//cc6xBrdC.s 			page 5


 161:Drivers/STM32F4xx_HAL_Driver/Src/stm32f4xx_hal_pcd.c ****       hpcd->MspInitCallback = HAL_PCD_MspInit;
 162:Drivers/STM32F4xx_HAL_Driver/Src/stm32f4xx_hal_pcd.c ****     }
 163:Drivers/STM32F4xx_HAL_Driver/Src/stm32f4xx_hal_pcd.c **** 
 164:Drivers/STM32F4xx_HAL_Driver/Src/stm32f4xx_hal_pcd.c ****     /* Init the low level hardware */
 165:Drivers/STM32F4xx_HAL_Driver/Src/stm32f4xx_hal_pcd.c ****     hpcd->MspInitCallback(hpcd);
 166:Drivers/STM32F4xx_HAL_Driver/Src/stm32f4xx_hal_pcd.c **** #else
 167:Drivers/STM32F4xx_HAL_Driver/Src/stm32f4xx_hal_pcd.c ****     /* Init the low level hardware : GPIO, CLOCK, NVIC... */
 168:Drivers/STM32F4xx_HAL_Driver/Src/stm32f4xx_hal_pcd.c ****     HAL_PCD_MspInit(hpcd);
  70              		.loc 1 168 5
  71 002c 7868     		ldr	r0, [r7, #4]
  72 002e FFF7FEFF 		bl	HAL_PCD_MspInit
  73              	.L4:
 169:Drivers/STM32F4xx_HAL_Driver/Src/stm32f4xx_hal_pcd.c **** #endif /* (USE_HAL_PCD_REGISTER_CALLBACKS) */
 170:Drivers/STM32F4xx_HAL_Driver/Src/stm32f4xx_hal_pcd.c ****   }
 171:Drivers/STM32F4xx_HAL_Driver/Src/stm32f4xx_hal_pcd.c **** 
 172:Drivers/STM32F4xx_HAL_Driver/Src/stm32f4xx_hal_pcd.c ****   hpcd->State = HAL_PCD_STATE_BUSY;
  74              		.loc 1 172 15
  75 0032 7B68     		ldr	r3, [r7, #4]
  76 0034 0322     		movs	r2, #3
  77 0036 83F8BD23 		strb	r2, [r3, #957]
 173:Drivers/STM32F4xx_HAL_Driver/Src/stm32f4xx_hal_pcd.c **** 
 174:Drivers/STM32F4xx_HAL_Driver/Src/stm32f4xx_hal_pcd.c ****   /* Disable DMA mode for FS instance */
 175:Drivers/STM32F4xx_HAL_Driver/Src/stm32f4xx_hal_pcd.c ****   if ((USBx->CID & (0x1U << 8)) == 0U)
  78              		.loc 1 175 12
  79 003a BB68     		ldr	r3, [r7, #8]
  80 003c DB6B     		ldr	r3, [r3, #60]
  81              		.loc 1 175 18
  82 003e 03F48073 		and	r3, r3, #256
  83              		.loc 1 175 6
  84 0042 002B     		cmp	r3, #0
  85 0044 02D1     		bne	.L5
 176:Drivers/STM32F4xx_HAL_Driver/Src/stm32f4xx_hal_pcd.c ****   {
 177:Drivers/STM32F4xx_HAL_Driver/Src/stm32f4xx_hal_pcd.c ****     hpcd->Init.dma_enable = 0U;
  86              		.loc 1 177 27
  87 0046 7B68     		ldr	r3, [r7, #4]
  88 0048 0022     		movs	r2, #0
  89 004a 1A61     		str	r2, [r3, #16]
  90              	.L5:
 178:Drivers/STM32F4xx_HAL_Driver/Src/stm32f4xx_hal_pcd.c ****   }
 179:Drivers/STM32F4xx_HAL_Driver/Src/stm32f4xx_hal_pcd.c **** 
 180:Drivers/STM32F4xx_HAL_Driver/Src/stm32f4xx_hal_pcd.c ****   /* Disable the Interrupts */
 181:Drivers/STM32F4xx_HAL_Driver/Src/stm32f4xx_hal_pcd.c ****   __HAL_PCD_DISABLE(hpcd);
  91              		.loc 1 181 3
  92 004c 7B68     		ldr	r3, [r7, #4]
  93 004e 1B68     		ldr	r3, [r3]
  94 0050 1846     		mov	r0, r3
  95 0052 FFF7FEFF 		bl	USB_DisableGlobalInt
 182:Drivers/STM32F4xx_HAL_Driver/Src/stm32f4xx_hal_pcd.c **** 
 183:Drivers/STM32F4xx_HAL_Driver/Src/stm32f4xx_hal_pcd.c ****   /*Init the Core (common init.) */
 184:Drivers/STM32F4xx_HAL_Driver/Src/stm32f4xx_hal_pcd.c ****   if (USB_CoreInit(hpcd->Instance, hpcd->Init) != HAL_OK)
  96              		.loc 1 184 24
  97 0056 7B68     		ldr	r3, [r7, #4]
  98 0058 1B68     		ldr	r3, [r3]
  99 005a 3B60     		str	r3, [r7]
 100              		.loc 1 184 7
 101 005c 7E68     		ldr	r6, [r7, #4]
 102 005e 6D46     		mov	r5, sp
ARM GAS  /var/folders/vq/qt4vp3kd5rxf7v2b6_fdtdt80000gn/T//cc6xBrdC.s 			page 6


 103 0060 06F11004 		add	r4, r6, #16
 104 0064 0FCC     		ldmia	r4!, {r0, r1, r2, r3}
 105 0066 0FC5     		stmia	r5!, {r0, r1, r2, r3}
 106 0068 0FCC     		ldmia	r4!, {r0, r1, r2, r3}
 107 006a 0FC5     		stmia	r5!, {r0, r1, r2, r3}
 108 006c 94E80300 		ldm	r4, {r0, r1}
 109 0070 85E80300 		stm	r5, {r0, r1}
 110 0074 331D     		adds	r3, r6, #4
 111 0076 0ECB     		ldm	r3, {r1, r2, r3}
 112 0078 3868     		ldr	r0, [r7]
 113 007a FFF7FEFF 		bl	USB_CoreInit
 114 007e 0346     		mov	r3, r0
 115              		.loc 1 184 6
 116 0080 002B     		cmp	r3, #0
 117 0082 05D0     		beq	.L6
 185:Drivers/STM32F4xx_HAL_Driver/Src/stm32f4xx_hal_pcd.c ****   {
 186:Drivers/STM32F4xx_HAL_Driver/Src/stm32f4xx_hal_pcd.c ****     hpcd->State = HAL_PCD_STATE_ERROR;
 118              		.loc 1 186 17
 119 0084 7B68     		ldr	r3, [r7, #4]
 120 0086 0222     		movs	r2, #2
 121 0088 83F8BD23 		strb	r2, [r3, #957]
 187:Drivers/STM32F4xx_HAL_Driver/Src/stm32f4xx_hal_pcd.c ****     return HAL_ERROR;
 122              		.loc 1 187 12
 123 008c 0123     		movs	r3, #1
 124 008e D0E0     		b	.L3
 125              	.L6:
 188:Drivers/STM32F4xx_HAL_Driver/Src/stm32f4xx_hal_pcd.c ****   }
 189:Drivers/STM32F4xx_HAL_Driver/Src/stm32f4xx_hal_pcd.c **** 
 190:Drivers/STM32F4xx_HAL_Driver/Src/stm32f4xx_hal_pcd.c ****   /* Force Device Mode*/
 191:Drivers/STM32F4xx_HAL_Driver/Src/stm32f4xx_hal_pcd.c ****   (void)USB_SetCurrentMode(hpcd->Instance, USB_DEVICE_MODE);
 126              		.loc 1 191 32
 127 0090 7B68     		ldr	r3, [r7, #4]
 128 0092 1B68     		ldr	r3, [r3]
 129              		.loc 1 191 9
 130 0094 0021     		movs	r1, #0
 131 0096 1846     		mov	r0, r3
 132 0098 FFF7FEFF 		bl	USB_SetCurrentMode
 192:Drivers/STM32F4xx_HAL_Driver/Src/stm32f4xx_hal_pcd.c **** 
 193:Drivers/STM32F4xx_HAL_Driver/Src/stm32f4xx_hal_pcd.c ****   /* Init endpoints structures */
 194:Drivers/STM32F4xx_HAL_Driver/Src/stm32f4xx_hal_pcd.c ****   for (i = 0U; i < hpcd->Init.dev_endpoints; i++)
 133              		.loc 1 194 10
 134 009c 0023     		movs	r3, #0
 135 009e FB73     		strb	r3, [r7, #15]
 136              		.loc 1 194 3
 137 00a0 4AE0     		b	.L7
 138              	.L8:
 195:Drivers/STM32F4xx_HAL_Driver/Src/stm32f4xx_hal_pcd.c ****   {
 196:Drivers/STM32F4xx_HAL_Driver/Src/stm32f4xx_hal_pcd.c ****     /* Init ep structure */
 197:Drivers/STM32F4xx_HAL_Driver/Src/stm32f4xx_hal_pcd.c ****     hpcd->IN_ep[i].is_in = 1U;
 139              		.loc 1 197 19 discriminator 3
 140 00a2 FA7B     		ldrb	r2, [r7, #15]	@ zero_extendqisi2
 141              		.loc 1 197 26 discriminator 3
 142 00a4 7968     		ldr	r1, [r7, #4]
 143 00a6 1346     		mov	r3, r2
 144 00a8 DB00     		lsls	r3, r3, #3
 145 00aa 9B1A     		subs	r3, r3, r2
 146 00ac 9B00     		lsls	r3, r3, #2
ARM GAS  /var/folders/vq/qt4vp3kd5rxf7v2b6_fdtdt80000gn/T//cc6xBrdC.s 			page 7


 147 00ae 0B44     		add	r3, r3, r1
 148 00b0 3D33     		adds	r3, r3, #61
 149 00b2 0122     		movs	r2, #1
 150 00b4 1A70     		strb	r2, [r3]
 198:Drivers/STM32F4xx_HAL_Driver/Src/stm32f4xx_hal_pcd.c ****     hpcd->IN_ep[i].num = i;
 151              		.loc 1 198 19 discriminator 3
 152 00b6 FA7B     		ldrb	r2, [r7, #15]	@ zero_extendqisi2
 153              		.loc 1 198 24 discriminator 3
 154 00b8 7968     		ldr	r1, [r7, #4]
 155 00ba 1346     		mov	r3, r2
 156 00bc DB00     		lsls	r3, r3, #3
 157 00be 9B1A     		subs	r3, r3, r2
 158 00c0 9B00     		lsls	r3, r3, #2
 159 00c2 0B44     		add	r3, r3, r1
 160 00c4 3C33     		adds	r3, r3, #60
 161 00c6 FA7B     		ldrb	r2, [r7, #15]
 162 00c8 1A70     		strb	r2, [r3]
 199:Drivers/STM32F4xx_HAL_Driver/Src/stm32f4xx_hal_pcd.c ****     hpcd->IN_ep[i].tx_fifo_num = i;
 163              		.loc 1 199 19 discriminator 3
 164 00ca FA7B     		ldrb	r2, [r7, #15]	@ zero_extendqisi2
 165              		.loc 1 199 32 discriminator 3
 166 00cc FB7B     		ldrb	r3, [r7, #15]	@ zero_extendqisi2
 167 00ce 98B2     		uxth	r0, r3
 168 00d0 7968     		ldr	r1, [r7, #4]
 169 00d2 1346     		mov	r3, r2
 170 00d4 DB00     		lsls	r3, r3, #3
 171 00d6 9B1A     		subs	r3, r3, r2
 172 00d8 9B00     		lsls	r3, r3, #2
 173 00da 0B44     		add	r3, r3, r1
 174 00dc 4233     		adds	r3, r3, #66
 175 00de 0246     		mov	r2, r0	@ movhi
 176 00e0 1A80     		strh	r2, [r3]	@ movhi
 200:Drivers/STM32F4xx_HAL_Driver/Src/stm32f4xx_hal_pcd.c ****     /* Control until ep is activated */
 201:Drivers/STM32F4xx_HAL_Driver/Src/stm32f4xx_hal_pcd.c ****     hpcd->IN_ep[i].type = EP_TYPE_CTRL;
 177              		.loc 1 201 19 discriminator 3
 178 00e2 FA7B     		ldrb	r2, [r7, #15]	@ zero_extendqisi2
 179              		.loc 1 201 25 discriminator 3
 180 00e4 7968     		ldr	r1, [r7, #4]
 181 00e6 1346     		mov	r3, r2
 182 00e8 DB00     		lsls	r3, r3, #3
 183 00ea 9B1A     		subs	r3, r3, r2
 184 00ec 9B00     		lsls	r3, r3, #2
 185 00ee 0B44     		add	r3, r3, r1
 186 00f0 3F33     		adds	r3, r3, #63
 187 00f2 0022     		movs	r2, #0
 188 00f4 1A70     		strb	r2, [r3]
 202:Drivers/STM32F4xx_HAL_Driver/Src/stm32f4xx_hal_pcd.c ****     hpcd->IN_ep[i].maxpacket = 0U;
 189              		.loc 1 202 19 discriminator 3
 190 00f6 FA7B     		ldrb	r2, [r7, #15]	@ zero_extendqisi2
 191              		.loc 1 202 30 discriminator 3
 192 00f8 7968     		ldr	r1, [r7, #4]
 193 00fa 1346     		mov	r3, r2
 194 00fc DB00     		lsls	r3, r3, #3
 195 00fe 9B1A     		subs	r3, r3, r2
 196 0100 9B00     		lsls	r3, r3, #2
 197 0102 0B44     		add	r3, r3, r1
 198 0104 4433     		adds	r3, r3, #68
ARM GAS  /var/folders/vq/qt4vp3kd5rxf7v2b6_fdtdt80000gn/T//cc6xBrdC.s 			page 8


 199 0106 0022     		movs	r2, #0
 200 0108 1A60     		str	r2, [r3]
 203:Drivers/STM32F4xx_HAL_Driver/Src/stm32f4xx_hal_pcd.c ****     hpcd->IN_ep[i].xfer_buff = 0U;
 201              		.loc 1 203 19 discriminator 3
 202 010a FA7B     		ldrb	r2, [r7, #15]	@ zero_extendqisi2
 203              		.loc 1 203 30 discriminator 3
 204 010c 7968     		ldr	r1, [r7, #4]
 205 010e 1346     		mov	r3, r2
 206 0110 DB00     		lsls	r3, r3, #3
 207 0112 9B1A     		subs	r3, r3, r2
 208 0114 9B00     		lsls	r3, r3, #2
 209 0116 0B44     		add	r3, r3, r1
 210 0118 4833     		adds	r3, r3, #72
 211 011a 0022     		movs	r2, #0
 212 011c 1A60     		str	r2, [r3]
 204:Drivers/STM32F4xx_HAL_Driver/Src/stm32f4xx_hal_pcd.c ****     hpcd->IN_ep[i].xfer_len = 0U;
 213              		.loc 1 204 19 discriminator 3
 214 011e FA7B     		ldrb	r2, [r7, #15]	@ zero_extendqisi2
 215              		.loc 1 204 29 discriminator 3
 216 0120 7968     		ldr	r1, [r7, #4]
 217 0122 1346     		mov	r3, r2
 218 0124 DB00     		lsls	r3, r3, #3
 219 0126 9B1A     		subs	r3, r3, r2
 220 0128 9B00     		lsls	r3, r3, #2
 221 012a 0B44     		add	r3, r3, r1
 222 012c 5033     		adds	r3, r3, #80
 223 012e 0022     		movs	r2, #0
 224 0130 1A60     		str	r2, [r3]
 194:Drivers/STM32F4xx_HAL_Driver/Src/stm32f4xx_hal_pcd.c ****   {
 225              		.loc 1 194 47 discriminator 3
 226 0132 FB7B     		ldrb	r3, [r7, #15]	@ zero_extendqisi2
 227 0134 0133     		adds	r3, r3, #1
 228 0136 FB73     		strb	r3, [r7, #15]
 229              	.L7:
 194:Drivers/STM32F4xx_HAL_Driver/Src/stm32f4xx_hal_pcd.c ****   {
 230              		.loc 1 194 18 discriminator 1
 231 0138 FA7B     		ldrb	r2, [r7, #15]	@ zero_extendqisi2
 194:Drivers/STM32F4xx_HAL_Driver/Src/stm32f4xx_hal_pcd.c ****   {
 232              		.loc 1 194 30 discriminator 1
 233 013a 7B68     		ldr	r3, [r7, #4]
 234 013c 5B68     		ldr	r3, [r3, #4]
 194:Drivers/STM32F4xx_HAL_Driver/Src/stm32f4xx_hal_pcd.c ****   {
 235              		.loc 1 194 3 discriminator 1
 236 013e 9A42     		cmp	r2, r3
 237 0140 AFD3     		bcc	.L8
 205:Drivers/STM32F4xx_HAL_Driver/Src/stm32f4xx_hal_pcd.c ****   }
 206:Drivers/STM32F4xx_HAL_Driver/Src/stm32f4xx_hal_pcd.c **** 
 207:Drivers/STM32F4xx_HAL_Driver/Src/stm32f4xx_hal_pcd.c ****   for (i = 0U; i < hpcd->Init.dev_endpoints; i++)
 238              		.loc 1 207 10
 239 0142 0023     		movs	r3, #0
 240 0144 FB73     		strb	r3, [r7, #15]
 241              		.loc 1 207 3
 242 0146 44E0     		b	.L9
 243              	.L10:
 208:Drivers/STM32F4xx_HAL_Driver/Src/stm32f4xx_hal_pcd.c ****   {
 209:Drivers/STM32F4xx_HAL_Driver/Src/stm32f4xx_hal_pcd.c ****     hpcd->OUT_ep[i].is_in = 0U;
 244              		.loc 1 209 20 discriminator 3
ARM GAS  /var/folders/vq/qt4vp3kd5rxf7v2b6_fdtdt80000gn/T//cc6xBrdC.s 			page 9


 245 0148 FA7B     		ldrb	r2, [r7, #15]	@ zero_extendqisi2
 246              		.loc 1 209 27 discriminator 3
 247 014a 7968     		ldr	r1, [r7, #4]
 248 014c 1346     		mov	r3, r2
 249 014e DB00     		lsls	r3, r3, #3
 250 0150 9B1A     		subs	r3, r3, r2
 251 0152 9B00     		lsls	r3, r3, #2
 252 0154 0B44     		add	r3, r3, r1
 253 0156 03F2FD13 		addw	r3, r3, #509
 254 015a 0022     		movs	r2, #0
 255 015c 1A70     		strb	r2, [r3]
 210:Drivers/STM32F4xx_HAL_Driver/Src/stm32f4xx_hal_pcd.c ****     hpcd->OUT_ep[i].num = i;
 256              		.loc 1 210 20 discriminator 3
 257 015e FA7B     		ldrb	r2, [r7, #15]	@ zero_extendqisi2
 258              		.loc 1 210 25 discriminator 3
 259 0160 7968     		ldr	r1, [r7, #4]
 260 0162 1346     		mov	r3, r2
 261 0164 DB00     		lsls	r3, r3, #3
 262 0166 9B1A     		subs	r3, r3, r2
 263 0168 9B00     		lsls	r3, r3, #2
 264 016a 0B44     		add	r3, r3, r1
 265 016c 03F5FE73 		add	r3, r3, #508
 266 0170 FA7B     		ldrb	r2, [r7, #15]
 267 0172 1A70     		strb	r2, [r3]
 211:Drivers/STM32F4xx_HAL_Driver/Src/stm32f4xx_hal_pcd.c ****     /* Control until ep is activated */
 212:Drivers/STM32F4xx_HAL_Driver/Src/stm32f4xx_hal_pcd.c ****     hpcd->OUT_ep[i].type = EP_TYPE_CTRL;
 268              		.loc 1 212 20 discriminator 3
 269 0174 FA7B     		ldrb	r2, [r7, #15]	@ zero_extendqisi2
 270              		.loc 1 212 26 discriminator 3
 271 0176 7968     		ldr	r1, [r7, #4]
 272 0178 1346     		mov	r3, r2
 273 017a DB00     		lsls	r3, r3, #3
 274 017c 9B1A     		subs	r3, r3, r2
 275 017e 9B00     		lsls	r3, r3, #2
 276 0180 0B44     		add	r3, r3, r1
 277 0182 03F2FF13 		addw	r3, r3, #511
 278 0186 0022     		movs	r2, #0
 279 0188 1A70     		strb	r2, [r3]
 213:Drivers/STM32F4xx_HAL_Driver/Src/stm32f4xx_hal_pcd.c ****     hpcd->OUT_ep[i].maxpacket = 0U;
 280              		.loc 1 213 20 discriminator 3
 281 018a FA7B     		ldrb	r2, [r7, #15]	@ zero_extendqisi2
 282              		.loc 1 213 31 discriminator 3
 283 018c 7968     		ldr	r1, [r7, #4]
 284 018e 1346     		mov	r3, r2
 285 0190 DB00     		lsls	r3, r3, #3
 286 0192 9B1A     		subs	r3, r3, r2
 287 0194 9B00     		lsls	r3, r3, #2
 288 0196 0B44     		add	r3, r3, r1
 289 0198 03F50173 		add	r3, r3, #516
 290 019c 0022     		movs	r2, #0
 291 019e 1A60     		str	r2, [r3]
 214:Drivers/STM32F4xx_HAL_Driver/Src/stm32f4xx_hal_pcd.c ****     hpcd->OUT_ep[i].xfer_buff = 0U;
 292              		.loc 1 214 20 discriminator 3
 293 01a0 FA7B     		ldrb	r2, [r7, #15]	@ zero_extendqisi2
 294              		.loc 1 214 31 discriminator 3
 295 01a2 7968     		ldr	r1, [r7, #4]
 296 01a4 1346     		mov	r3, r2
ARM GAS  /var/folders/vq/qt4vp3kd5rxf7v2b6_fdtdt80000gn/T//cc6xBrdC.s 			page 10


 297 01a6 DB00     		lsls	r3, r3, #3
 298 01a8 9B1A     		subs	r3, r3, r2
 299 01aa 9B00     		lsls	r3, r3, #2
 300 01ac 0B44     		add	r3, r3, r1
 301 01ae 03F50273 		add	r3, r3, #520
 302 01b2 0022     		movs	r2, #0
 303 01b4 1A60     		str	r2, [r3]
 215:Drivers/STM32F4xx_HAL_Driver/Src/stm32f4xx_hal_pcd.c ****     hpcd->OUT_ep[i].xfer_len = 0U;
 304              		.loc 1 215 20 discriminator 3
 305 01b6 FA7B     		ldrb	r2, [r7, #15]	@ zero_extendqisi2
 306              		.loc 1 215 30 discriminator 3
 307 01b8 7968     		ldr	r1, [r7, #4]
 308 01ba 1346     		mov	r3, r2
 309 01bc DB00     		lsls	r3, r3, #3
 310 01be 9B1A     		subs	r3, r3, r2
 311 01c0 9B00     		lsls	r3, r3, #2
 312 01c2 0B44     		add	r3, r3, r1
 313 01c4 03F50473 		add	r3, r3, #528
 314 01c8 0022     		movs	r2, #0
 315 01ca 1A60     		str	r2, [r3]
 207:Drivers/STM32F4xx_HAL_Driver/Src/stm32f4xx_hal_pcd.c ****   {
 316              		.loc 1 207 47 discriminator 3
 317 01cc FB7B     		ldrb	r3, [r7, #15]	@ zero_extendqisi2
 318 01ce 0133     		adds	r3, r3, #1
 319 01d0 FB73     		strb	r3, [r7, #15]
 320              	.L9:
 207:Drivers/STM32F4xx_HAL_Driver/Src/stm32f4xx_hal_pcd.c ****   {
 321              		.loc 1 207 18 discriminator 1
 322 01d2 FA7B     		ldrb	r2, [r7, #15]	@ zero_extendqisi2
 207:Drivers/STM32F4xx_HAL_Driver/Src/stm32f4xx_hal_pcd.c ****   {
 323              		.loc 1 207 30 discriminator 1
 324 01d4 7B68     		ldr	r3, [r7, #4]
 325 01d6 5B68     		ldr	r3, [r3, #4]
 207:Drivers/STM32F4xx_HAL_Driver/Src/stm32f4xx_hal_pcd.c ****   {
 326              		.loc 1 207 3 discriminator 1
 327 01d8 9A42     		cmp	r2, r3
 328 01da B5D3     		bcc	.L10
 216:Drivers/STM32F4xx_HAL_Driver/Src/stm32f4xx_hal_pcd.c ****   }
 217:Drivers/STM32F4xx_HAL_Driver/Src/stm32f4xx_hal_pcd.c **** 
 218:Drivers/STM32F4xx_HAL_Driver/Src/stm32f4xx_hal_pcd.c ****   /* Init Device */
 219:Drivers/STM32F4xx_HAL_Driver/Src/stm32f4xx_hal_pcd.c ****   if (USB_DevInit(hpcd->Instance, hpcd->Init) != HAL_OK)
 329              		.loc 1 219 23
 330 01dc 7B68     		ldr	r3, [r7, #4]
 331 01de 1B68     		ldr	r3, [r3]
 332 01e0 3B60     		str	r3, [r7]
 333              		.loc 1 219 7
 334 01e2 7E68     		ldr	r6, [r7, #4]
 335 01e4 6D46     		mov	r5, sp
 336 01e6 06F11004 		add	r4, r6, #16
 337 01ea 0FCC     		ldmia	r4!, {r0, r1, r2, r3}
 338 01ec 0FC5     		stmia	r5!, {r0, r1, r2, r3}
 339 01ee 0FCC     		ldmia	r4!, {r0, r1, r2, r3}
 340 01f0 0FC5     		stmia	r5!, {r0, r1, r2, r3}
 341 01f2 94E80300 		ldm	r4, {r0, r1}
 342 01f6 85E80300 		stm	r5, {r0, r1}
 343 01fa 331D     		adds	r3, r6, #4
 344 01fc 0ECB     		ldm	r3, {r1, r2, r3}
ARM GAS  /var/folders/vq/qt4vp3kd5rxf7v2b6_fdtdt80000gn/T//cc6xBrdC.s 			page 11


 345 01fe 3868     		ldr	r0, [r7]
 346 0200 FFF7FEFF 		bl	USB_DevInit
 347 0204 0346     		mov	r3, r0
 348              		.loc 1 219 6
 349 0206 002B     		cmp	r3, #0
 350 0208 05D0     		beq	.L11
 220:Drivers/STM32F4xx_HAL_Driver/Src/stm32f4xx_hal_pcd.c ****   {
 221:Drivers/STM32F4xx_HAL_Driver/Src/stm32f4xx_hal_pcd.c ****     hpcd->State = HAL_PCD_STATE_ERROR;
 351              		.loc 1 221 17
 352 020a 7B68     		ldr	r3, [r7, #4]
 353 020c 0222     		movs	r2, #2
 354 020e 83F8BD23 		strb	r2, [r3, #957]
 222:Drivers/STM32F4xx_HAL_Driver/Src/stm32f4xx_hal_pcd.c ****     return HAL_ERROR;
 355              		.loc 1 222 12
 356 0212 0123     		movs	r3, #1
 357 0214 0DE0     		b	.L3
 358              	.L11:
 223:Drivers/STM32F4xx_HAL_Driver/Src/stm32f4xx_hal_pcd.c ****   }
 224:Drivers/STM32F4xx_HAL_Driver/Src/stm32f4xx_hal_pcd.c **** 
 225:Drivers/STM32F4xx_HAL_Driver/Src/stm32f4xx_hal_pcd.c ****   hpcd->USB_Address = 0U;
 359              		.loc 1 225 21
 360 0216 7B68     		ldr	r3, [r7, #4]
 361 0218 0022     		movs	r2, #0
 362 021a 83F83820 		strb	r2, [r3, #56]
 226:Drivers/STM32F4xx_HAL_Driver/Src/stm32f4xx_hal_pcd.c ****   hpcd->State = HAL_PCD_STATE_READY;
 363              		.loc 1 226 15
 364 021e 7B68     		ldr	r3, [r7, #4]
 365 0220 0122     		movs	r2, #1
 366 0222 83F8BD23 		strb	r2, [r3, #957]
 227:Drivers/STM32F4xx_HAL_Driver/Src/stm32f4xx_hal_pcd.c ****   #if defined(STM32F446xx) || defined(STM32F469xx) || defined(STM32F479xx) || defined(STM32F412Zx) 
 228:Drivers/STM32F4xx_HAL_Driver/Src/stm32f4xx_hal_pcd.c ****   /* Activate LPM */
 229:Drivers/STM32F4xx_HAL_Driver/Src/stm32f4xx_hal_pcd.c ****   if (hpcd->Init.lpm_enable == 1U)
 230:Drivers/STM32F4xx_HAL_Driver/Src/stm32f4xx_hal_pcd.c ****   {
 231:Drivers/STM32F4xx_HAL_Driver/Src/stm32f4xx_hal_pcd.c ****     (void)HAL_PCDEx_ActivateLPM(hpcd);
 232:Drivers/STM32F4xx_HAL_Driver/Src/stm32f4xx_hal_pcd.c ****   }
 233:Drivers/STM32F4xx_HAL_Driver/Src/stm32f4xx_hal_pcd.c **** #endif /* defined(STM32F446xx) || defined(STM32F469xx) || defined(STM32F479xx) || defined(STM32F412
 234:Drivers/STM32F4xx_HAL_Driver/Src/stm32f4xx_hal_pcd.c ****   (void)USB_DevDisconnect(hpcd->Instance);
 367              		.loc 1 234 31
 368 0226 7B68     		ldr	r3, [r7, #4]
 369 0228 1B68     		ldr	r3, [r3]
 370              		.loc 1 234 9
 371 022a 1846     		mov	r0, r3
 372 022c FFF7FEFF 		bl	USB_DevDisconnect
 235:Drivers/STM32F4xx_HAL_Driver/Src/stm32f4xx_hal_pcd.c **** 
 236:Drivers/STM32F4xx_HAL_Driver/Src/stm32f4xx_hal_pcd.c ****   return HAL_OK;
 373              		.loc 1 236 10
 374 0230 0023     		movs	r3, #0
 375              	.L3:
 237:Drivers/STM32F4xx_HAL_Driver/Src/stm32f4xx_hal_pcd.c **** }
 376              		.loc 1 237 1
 377 0232 1846     		mov	r0, r3
 378 0234 1437     		adds	r7, r7, #20
 379              	.LCFI3:
 380              		.cfi_def_cfa_offset 20
 381 0236 BD46     		mov	sp, r7
 382              	.LCFI4:
 383              		.cfi_def_cfa_register 13
ARM GAS  /var/folders/vq/qt4vp3kd5rxf7v2b6_fdtdt80000gn/T//cc6xBrdC.s 			page 12


 384              		@ sp needed
 385 0238 F0BD     		pop	{r4, r5, r6, r7, pc}
 386              		.cfi_endproc
 387              	.LFE130:
 389              		.section	.text.HAL_PCD_DeInit,"ax",%progbits
 390              		.align	1
 391              		.global	HAL_PCD_DeInit
 392              		.syntax unified
 393              		.thumb
 394              		.thumb_func
 395              		.fpu fpv4-sp-d16
 397              	HAL_PCD_DeInit:
 398              	.LFB131:
 238:Drivers/STM32F4xx_HAL_Driver/Src/stm32f4xx_hal_pcd.c **** 
 239:Drivers/STM32F4xx_HAL_Driver/Src/stm32f4xx_hal_pcd.c **** /**
 240:Drivers/STM32F4xx_HAL_Driver/Src/stm32f4xx_hal_pcd.c ****   * @brief  DeInitializes the PCD peripheral.
 241:Drivers/STM32F4xx_HAL_Driver/Src/stm32f4xx_hal_pcd.c ****   * @param  hpcd PCD handle
 242:Drivers/STM32F4xx_HAL_Driver/Src/stm32f4xx_hal_pcd.c ****   * @retval HAL status
 243:Drivers/STM32F4xx_HAL_Driver/Src/stm32f4xx_hal_pcd.c ****   */
 244:Drivers/STM32F4xx_HAL_Driver/Src/stm32f4xx_hal_pcd.c **** HAL_StatusTypeDef HAL_PCD_DeInit(PCD_HandleTypeDef *hpcd)
 245:Drivers/STM32F4xx_HAL_Driver/Src/stm32f4xx_hal_pcd.c **** {
 399              		.loc 1 245 1
 400              		.cfi_startproc
 401              		@ args = 0, pretend = 0, frame = 8
 402              		@ frame_needed = 1, uses_anonymous_args = 0
 403 0000 80B5     		push	{r7, lr}
 404              	.LCFI5:
 405              		.cfi_def_cfa_offset 8
 406              		.cfi_offset 7, -8
 407              		.cfi_offset 14, -4
 408 0002 82B0     		sub	sp, sp, #8
 409              	.LCFI6:
 410              		.cfi_def_cfa_offset 16
 411 0004 00AF     		add	r7, sp, #0
 412              	.LCFI7:
 413              		.cfi_def_cfa_register 7
 414 0006 7860     		str	r0, [r7, #4]
 246:Drivers/STM32F4xx_HAL_Driver/Src/stm32f4xx_hal_pcd.c ****   /* Check the PCD handle allocation */
 247:Drivers/STM32F4xx_HAL_Driver/Src/stm32f4xx_hal_pcd.c ****   if (hpcd == NULL)
 415              		.loc 1 247 6
 416 0008 7B68     		ldr	r3, [r7, #4]
 417 000a 002B     		cmp	r3, #0
 418 000c 01D1     		bne	.L13
 248:Drivers/STM32F4xx_HAL_Driver/Src/stm32f4xx_hal_pcd.c ****   {
 249:Drivers/STM32F4xx_HAL_Driver/Src/stm32f4xx_hal_pcd.c ****     return HAL_ERROR;
 419              		.loc 1 249 12
 420 000e 0123     		movs	r3, #1
 421 0010 15E0     		b	.L14
 422              	.L13:
 250:Drivers/STM32F4xx_HAL_Driver/Src/stm32f4xx_hal_pcd.c ****   }
 251:Drivers/STM32F4xx_HAL_Driver/Src/stm32f4xx_hal_pcd.c **** 
 252:Drivers/STM32F4xx_HAL_Driver/Src/stm32f4xx_hal_pcd.c ****   hpcd->State = HAL_PCD_STATE_BUSY;
 423              		.loc 1 252 15
 424 0012 7B68     		ldr	r3, [r7, #4]
 425 0014 0322     		movs	r2, #3
 426 0016 83F8BD23 		strb	r2, [r3, #957]
 253:Drivers/STM32F4xx_HAL_Driver/Src/stm32f4xx_hal_pcd.c **** 
ARM GAS  /var/folders/vq/qt4vp3kd5rxf7v2b6_fdtdt80000gn/T//cc6xBrdC.s 			page 13


 254:Drivers/STM32F4xx_HAL_Driver/Src/stm32f4xx_hal_pcd.c ****   /* Stop Device */
 255:Drivers/STM32F4xx_HAL_Driver/Src/stm32f4xx_hal_pcd.c ****   if (USB_StopDevice(hpcd->Instance) != HAL_OK)
 427              		.loc 1 255 26
 428 001a 7B68     		ldr	r3, [r7, #4]
 429 001c 1B68     		ldr	r3, [r3]
 430              		.loc 1 255 7
 431 001e 1846     		mov	r0, r3
 432 0020 FFF7FEFF 		bl	USB_StopDevice
 433 0024 0346     		mov	r3, r0
 434              		.loc 1 255 6
 435 0026 002B     		cmp	r3, #0
 436 0028 01D0     		beq	.L15
 256:Drivers/STM32F4xx_HAL_Driver/Src/stm32f4xx_hal_pcd.c ****   {
 257:Drivers/STM32F4xx_HAL_Driver/Src/stm32f4xx_hal_pcd.c ****     return HAL_ERROR;
 437              		.loc 1 257 12
 438 002a 0123     		movs	r3, #1
 439 002c 07E0     		b	.L14
 440              	.L15:
 258:Drivers/STM32F4xx_HAL_Driver/Src/stm32f4xx_hal_pcd.c ****   }
 259:Drivers/STM32F4xx_HAL_Driver/Src/stm32f4xx_hal_pcd.c **** 
 260:Drivers/STM32F4xx_HAL_Driver/Src/stm32f4xx_hal_pcd.c **** #if (USE_HAL_PCD_REGISTER_CALLBACKS == 1U)
 261:Drivers/STM32F4xx_HAL_Driver/Src/stm32f4xx_hal_pcd.c ****   if (hpcd->MspDeInitCallback == NULL)
 262:Drivers/STM32F4xx_HAL_Driver/Src/stm32f4xx_hal_pcd.c ****   {
 263:Drivers/STM32F4xx_HAL_Driver/Src/stm32f4xx_hal_pcd.c ****     hpcd->MspDeInitCallback = HAL_PCD_MspDeInit; /* Legacy weak MspDeInit  */
 264:Drivers/STM32F4xx_HAL_Driver/Src/stm32f4xx_hal_pcd.c ****   }
 265:Drivers/STM32F4xx_HAL_Driver/Src/stm32f4xx_hal_pcd.c **** 
 266:Drivers/STM32F4xx_HAL_Driver/Src/stm32f4xx_hal_pcd.c ****   /* DeInit the low level hardware */
 267:Drivers/STM32F4xx_HAL_Driver/Src/stm32f4xx_hal_pcd.c ****   hpcd->MspDeInitCallback(hpcd);
 268:Drivers/STM32F4xx_HAL_Driver/Src/stm32f4xx_hal_pcd.c **** #else
 269:Drivers/STM32F4xx_HAL_Driver/Src/stm32f4xx_hal_pcd.c ****   /* DeInit the low level hardware: CLOCK, NVIC.*/
 270:Drivers/STM32F4xx_HAL_Driver/Src/stm32f4xx_hal_pcd.c ****   HAL_PCD_MspDeInit(hpcd);
 441              		.loc 1 270 3
 442 002e 7868     		ldr	r0, [r7, #4]
 443 0030 FFF7FEFF 		bl	HAL_PCD_MspDeInit
 271:Drivers/STM32F4xx_HAL_Driver/Src/stm32f4xx_hal_pcd.c **** #endif /* USE_HAL_PCD_REGISTER_CALLBACKS */
 272:Drivers/STM32F4xx_HAL_Driver/Src/stm32f4xx_hal_pcd.c **** 
 273:Drivers/STM32F4xx_HAL_Driver/Src/stm32f4xx_hal_pcd.c ****   hpcd->State = HAL_PCD_STATE_RESET;
 444              		.loc 1 273 15
 445 0034 7B68     		ldr	r3, [r7, #4]
 446 0036 0022     		movs	r2, #0
 447 0038 83F8BD23 		strb	r2, [r3, #957]
 274:Drivers/STM32F4xx_HAL_Driver/Src/stm32f4xx_hal_pcd.c **** 
 275:Drivers/STM32F4xx_HAL_Driver/Src/stm32f4xx_hal_pcd.c ****   return HAL_OK;
 448              		.loc 1 275 10
 449 003c 0023     		movs	r3, #0
 450              	.L14:
 276:Drivers/STM32F4xx_HAL_Driver/Src/stm32f4xx_hal_pcd.c **** }
 451              		.loc 1 276 1
 452 003e 1846     		mov	r0, r3
 453 0040 0837     		adds	r7, r7, #8
 454              	.LCFI8:
 455              		.cfi_def_cfa_offset 8
 456 0042 BD46     		mov	sp, r7
 457              	.LCFI9:
 458              		.cfi_def_cfa_register 13
 459              		@ sp needed
 460 0044 80BD     		pop	{r7, pc}
ARM GAS  /var/folders/vq/qt4vp3kd5rxf7v2b6_fdtdt80000gn/T//cc6xBrdC.s 			page 14


 461              		.cfi_endproc
 462              	.LFE131:
 464              		.section	.text.HAL_PCD_MspInit,"ax",%progbits
 465              		.align	1
 466              		.weak	HAL_PCD_MspInit
 467              		.syntax unified
 468              		.thumb
 469              		.thumb_func
 470              		.fpu fpv4-sp-d16
 472              	HAL_PCD_MspInit:
 473              	.LFB132:
 277:Drivers/STM32F4xx_HAL_Driver/Src/stm32f4xx_hal_pcd.c **** 
 278:Drivers/STM32F4xx_HAL_Driver/Src/stm32f4xx_hal_pcd.c **** /**
 279:Drivers/STM32F4xx_HAL_Driver/Src/stm32f4xx_hal_pcd.c ****   * @brief  Initializes the PCD MSP.
 280:Drivers/STM32F4xx_HAL_Driver/Src/stm32f4xx_hal_pcd.c ****   * @param  hpcd PCD handle
 281:Drivers/STM32F4xx_HAL_Driver/Src/stm32f4xx_hal_pcd.c ****   * @retval None
 282:Drivers/STM32F4xx_HAL_Driver/Src/stm32f4xx_hal_pcd.c ****   */
 283:Drivers/STM32F4xx_HAL_Driver/Src/stm32f4xx_hal_pcd.c **** __weak void HAL_PCD_MspInit(PCD_HandleTypeDef *hpcd)
 284:Drivers/STM32F4xx_HAL_Driver/Src/stm32f4xx_hal_pcd.c **** {
 474              		.loc 1 284 1
 475              		.cfi_startproc
 476              		@ args = 0, pretend = 0, frame = 8
 477              		@ frame_needed = 1, uses_anonymous_args = 0
 478              		@ link register save eliminated.
 479 0000 80B4     		push	{r7}
 480              	.LCFI10:
 481              		.cfi_def_cfa_offset 4
 482              		.cfi_offset 7, -4
 483 0002 83B0     		sub	sp, sp, #12
 484              	.LCFI11:
 485              		.cfi_def_cfa_offset 16
 486 0004 00AF     		add	r7, sp, #0
 487              	.LCFI12:
 488              		.cfi_def_cfa_register 7
 489 0006 7860     		str	r0, [r7, #4]
 285:Drivers/STM32F4xx_HAL_Driver/Src/stm32f4xx_hal_pcd.c ****   /* Prevent unused argument(s) compilation warning */
 286:Drivers/STM32F4xx_HAL_Driver/Src/stm32f4xx_hal_pcd.c ****   UNUSED(hpcd);
 287:Drivers/STM32F4xx_HAL_Driver/Src/stm32f4xx_hal_pcd.c **** 
 288:Drivers/STM32F4xx_HAL_Driver/Src/stm32f4xx_hal_pcd.c ****   /* NOTE : This function should not be modified, when the callback is needed,
 289:Drivers/STM32F4xx_HAL_Driver/Src/stm32f4xx_hal_pcd.c ****             the HAL_PCD_MspInit could be implemented in the user file
 290:Drivers/STM32F4xx_HAL_Driver/Src/stm32f4xx_hal_pcd.c ****    */
 291:Drivers/STM32F4xx_HAL_Driver/Src/stm32f4xx_hal_pcd.c **** }
 490              		.loc 1 291 1
 491 0008 00BF     		nop
 492 000a 0C37     		adds	r7, r7, #12
 493              	.LCFI13:
 494              		.cfi_def_cfa_offset 4
 495 000c BD46     		mov	sp, r7
 496              	.LCFI14:
 497              		.cfi_def_cfa_register 13
 498              		@ sp needed
 499 000e 5DF8047B 		ldr	r7, [sp], #4
 500              	.LCFI15:
 501              		.cfi_restore 7
 502              		.cfi_def_cfa_offset 0
 503 0012 7047     		bx	lr
 504              		.cfi_endproc
ARM GAS  /var/folders/vq/qt4vp3kd5rxf7v2b6_fdtdt80000gn/T//cc6xBrdC.s 			page 15


 505              	.LFE132:
 507              		.section	.text.HAL_PCD_MspDeInit,"ax",%progbits
 508              		.align	1
 509              		.weak	HAL_PCD_MspDeInit
 510              		.syntax unified
 511              		.thumb
 512              		.thumb_func
 513              		.fpu fpv4-sp-d16
 515              	HAL_PCD_MspDeInit:
 516              	.LFB133:
 292:Drivers/STM32F4xx_HAL_Driver/Src/stm32f4xx_hal_pcd.c **** 
 293:Drivers/STM32F4xx_HAL_Driver/Src/stm32f4xx_hal_pcd.c **** /**
 294:Drivers/STM32F4xx_HAL_Driver/Src/stm32f4xx_hal_pcd.c ****   * @brief  DeInitializes PCD MSP.
 295:Drivers/STM32F4xx_HAL_Driver/Src/stm32f4xx_hal_pcd.c ****   * @param  hpcd PCD handle
 296:Drivers/STM32F4xx_HAL_Driver/Src/stm32f4xx_hal_pcd.c ****   * @retval None
 297:Drivers/STM32F4xx_HAL_Driver/Src/stm32f4xx_hal_pcd.c ****   */
 298:Drivers/STM32F4xx_HAL_Driver/Src/stm32f4xx_hal_pcd.c **** __weak void HAL_PCD_MspDeInit(PCD_HandleTypeDef *hpcd)
 299:Drivers/STM32F4xx_HAL_Driver/Src/stm32f4xx_hal_pcd.c **** {
 517              		.loc 1 299 1
 518              		.cfi_startproc
 519              		@ args = 0, pretend = 0, frame = 8
 520              		@ frame_needed = 1, uses_anonymous_args = 0
 521              		@ link register save eliminated.
 522 0000 80B4     		push	{r7}
 523              	.LCFI16:
 524              		.cfi_def_cfa_offset 4
 525              		.cfi_offset 7, -4
 526 0002 83B0     		sub	sp, sp, #12
 527              	.LCFI17:
 528              		.cfi_def_cfa_offset 16
 529 0004 00AF     		add	r7, sp, #0
 530              	.LCFI18:
 531              		.cfi_def_cfa_register 7
 532 0006 7860     		str	r0, [r7, #4]
 300:Drivers/STM32F4xx_HAL_Driver/Src/stm32f4xx_hal_pcd.c ****   /* Prevent unused argument(s) compilation warning */
 301:Drivers/STM32F4xx_HAL_Driver/Src/stm32f4xx_hal_pcd.c ****   UNUSED(hpcd);
 302:Drivers/STM32F4xx_HAL_Driver/Src/stm32f4xx_hal_pcd.c **** 
 303:Drivers/STM32F4xx_HAL_Driver/Src/stm32f4xx_hal_pcd.c ****   /* NOTE : This function should not be modified, when the callback is needed,
 304:Drivers/STM32F4xx_HAL_Driver/Src/stm32f4xx_hal_pcd.c ****             the HAL_PCD_MspDeInit could be implemented in the user file
 305:Drivers/STM32F4xx_HAL_Driver/Src/stm32f4xx_hal_pcd.c ****    */
 306:Drivers/STM32F4xx_HAL_Driver/Src/stm32f4xx_hal_pcd.c **** }
 533              		.loc 1 306 1
 534 0008 00BF     		nop
 535 000a 0C37     		adds	r7, r7, #12
 536              	.LCFI19:
 537              		.cfi_def_cfa_offset 4
 538 000c BD46     		mov	sp, r7
 539              	.LCFI20:
 540              		.cfi_def_cfa_register 13
 541              		@ sp needed
 542 000e 5DF8047B 		ldr	r7, [sp], #4
 543              	.LCFI21:
 544              		.cfi_restore 7
 545              		.cfi_def_cfa_offset 0
 546 0012 7047     		bx	lr
 547              		.cfi_endproc
 548              	.LFE133:
ARM GAS  /var/folders/vq/qt4vp3kd5rxf7v2b6_fdtdt80000gn/T//cc6xBrdC.s 			page 16


 550              		.section	.text.HAL_PCD_Start,"ax",%progbits
 551              		.align	1
 552              		.global	HAL_PCD_Start
 553              		.syntax unified
 554              		.thumb
 555              		.thumb_func
 556              		.fpu fpv4-sp-d16
 558              	HAL_PCD_Start:
 559              	.LFB134:
 307:Drivers/STM32F4xx_HAL_Driver/Src/stm32f4xx_hal_pcd.c **** 
 308:Drivers/STM32F4xx_HAL_Driver/Src/stm32f4xx_hal_pcd.c **** #if (USE_HAL_PCD_REGISTER_CALLBACKS == 1U)
 309:Drivers/STM32F4xx_HAL_Driver/Src/stm32f4xx_hal_pcd.c **** /**
 310:Drivers/STM32F4xx_HAL_Driver/Src/stm32f4xx_hal_pcd.c ****   * @brief  Register a User USB PCD Callback
 311:Drivers/STM32F4xx_HAL_Driver/Src/stm32f4xx_hal_pcd.c ****   *         To be used instead of the weak predefined callback
 312:Drivers/STM32F4xx_HAL_Driver/Src/stm32f4xx_hal_pcd.c ****   * @param  hpcd USB PCD handle
 313:Drivers/STM32F4xx_HAL_Driver/Src/stm32f4xx_hal_pcd.c ****   * @param  CallbackID ID of the callback to be registered
 314:Drivers/STM32F4xx_HAL_Driver/Src/stm32f4xx_hal_pcd.c ****   *         This parameter can be one of the following values:
 315:Drivers/STM32F4xx_HAL_Driver/Src/stm32f4xx_hal_pcd.c ****   *          @arg @ref HAL_PCD_SOF_CB_ID USB PCD SOF callback ID
 316:Drivers/STM32F4xx_HAL_Driver/Src/stm32f4xx_hal_pcd.c ****   *          @arg @ref HAL_PCD_SETUPSTAGE_CB_ID USB PCD Setup callback ID
 317:Drivers/STM32F4xx_HAL_Driver/Src/stm32f4xx_hal_pcd.c ****   *          @arg @ref HAL_PCD_RESET_CB_ID USB PCD Reset callback ID
 318:Drivers/STM32F4xx_HAL_Driver/Src/stm32f4xx_hal_pcd.c ****   *          @arg @ref HAL_PCD_SUSPEND_CB_ID USB PCD Suspend callback ID
 319:Drivers/STM32F4xx_HAL_Driver/Src/stm32f4xx_hal_pcd.c ****   *          @arg @ref HAL_PCD_RESUME_CB_ID USB PCD Resume callback ID
 320:Drivers/STM32F4xx_HAL_Driver/Src/stm32f4xx_hal_pcd.c ****   *          @arg @ref HAL_PCD_CONNECT_CB_ID USB PCD Connect callback ID
 321:Drivers/STM32F4xx_HAL_Driver/Src/stm32f4xx_hal_pcd.c ****   *          @arg @ref HAL_PCD_DISCONNECT_CB_ID OTG PCD Disconnect callback ID
 322:Drivers/STM32F4xx_HAL_Driver/Src/stm32f4xx_hal_pcd.c ****   *          @arg @ref HAL_PCD_MSPINIT_CB_ID MspDeInit callback ID
 323:Drivers/STM32F4xx_HAL_Driver/Src/stm32f4xx_hal_pcd.c ****   *          @arg @ref HAL_PCD_MSPDEINIT_CB_ID MspDeInit callback ID
 324:Drivers/STM32F4xx_HAL_Driver/Src/stm32f4xx_hal_pcd.c ****   * @param  pCallback pointer to the Callback function
 325:Drivers/STM32F4xx_HAL_Driver/Src/stm32f4xx_hal_pcd.c ****   * @retval HAL status
 326:Drivers/STM32F4xx_HAL_Driver/Src/stm32f4xx_hal_pcd.c ****   */
 327:Drivers/STM32F4xx_HAL_Driver/Src/stm32f4xx_hal_pcd.c **** HAL_StatusTypeDef HAL_PCD_RegisterCallback(PCD_HandleTypeDef *hpcd,
 328:Drivers/STM32F4xx_HAL_Driver/Src/stm32f4xx_hal_pcd.c ****                                            HAL_PCD_CallbackIDTypeDef CallbackID,
 329:Drivers/STM32F4xx_HAL_Driver/Src/stm32f4xx_hal_pcd.c ****                                            pPCD_CallbackTypeDef pCallback)
 330:Drivers/STM32F4xx_HAL_Driver/Src/stm32f4xx_hal_pcd.c **** {
 331:Drivers/STM32F4xx_HAL_Driver/Src/stm32f4xx_hal_pcd.c ****   HAL_StatusTypeDef status = HAL_OK;
 332:Drivers/STM32F4xx_HAL_Driver/Src/stm32f4xx_hal_pcd.c **** 
 333:Drivers/STM32F4xx_HAL_Driver/Src/stm32f4xx_hal_pcd.c ****   if (pCallback == NULL)
 334:Drivers/STM32F4xx_HAL_Driver/Src/stm32f4xx_hal_pcd.c ****   {
 335:Drivers/STM32F4xx_HAL_Driver/Src/stm32f4xx_hal_pcd.c ****     /* Update the error code */
 336:Drivers/STM32F4xx_HAL_Driver/Src/stm32f4xx_hal_pcd.c ****     hpcd->ErrorCode |= HAL_PCD_ERROR_INVALID_CALLBACK;
 337:Drivers/STM32F4xx_HAL_Driver/Src/stm32f4xx_hal_pcd.c ****     return HAL_ERROR;
 338:Drivers/STM32F4xx_HAL_Driver/Src/stm32f4xx_hal_pcd.c ****   }
 339:Drivers/STM32F4xx_HAL_Driver/Src/stm32f4xx_hal_pcd.c ****   /* Process locked */
 340:Drivers/STM32F4xx_HAL_Driver/Src/stm32f4xx_hal_pcd.c ****   __HAL_LOCK(hpcd);
 341:Drivers/STM32F4xx_HAL_Driver/Src/stm32f4xx_hal_pcd.c **** 
 342:Drivers/STM32F4xx_HAL_Driver/Src/stm32f4xx_hal_pcd.c ****   if (hpcd->State == HAL_PCD_STATE_READY)
 343:Drivers/STM32F4xx_HAL_Driver/Src/stm32f4xx_hal_pcd.c ****   {
 344:Drivers/STM32F4xx_HAL_Driver/Src/stm32f4xx_hal_pcd.c ****     switch (CallbackID)
 345:Drivers/STM32F4xx_HAL_Driver/Src/stm32f4xx_hal_pcd.c ****     {
 346:Drivers/STM32F4xx_HAL_Driver/Src/stm32f4xx_hal_pcd.c ****       case HAL_PCD_SOF_CB_ID :
 347:Drivers/STM32F4xx_HAL_Driver/Src/stm32f4xx_hal_pcd.c ****         hpcd->SOFCallback = pCallback;
 348:Drivers/STM32F4xx_HAL_Driver/Src/stm32f4xx_hal_pcd.c ****         break;
 349:Drivers/STM32F4xx_HAL_Driver/Src/stm32f4xx_hal_pcd.c **** 
 350:Drivers/STM32F4xx_HAL_Driver/Src/stm32f4xx_hal_pcd.c ****       case HAL_PCD_SETUPSTAGE_CB_ID :
 351:Drivers/STM32F4xx_HAL_Driver/Src/stm32f4xx_hal_pcd.c ****         hpcd->SetupStageCallback = pCallback;
 352:Drivers/STM32F4xx_HAL_Driver/Src/stm32f4xx_hal_pcd.c ****         break;
 353:Drivers/STM32F4xx_HAL_Driver/Src/stm32f4xx_hal_pcd.c **** 
 354:Drivers/STM32F4xx_HAL_Driver/Src/stm32f4xx_hal_pcd.c ****       case HAL_PCD_RESET_CB_ID :
ARM GAS  /var/folders/vq/qt4vp3kd5rxf7v2b6_fdtdt80000gn/T//cc6xBrdC.s 			page 17


 355:Drivers/STM32F4xx_HAL_Driver/Src/stm32f4xx_hal_pcd.c ****         hpcd->ResetCallback = pCallback;
 356:Drivers/STM32F4xx_HAL_Driver/Src/stm32f4xx_hal_pcd.c ****         break;
 357:Drivers/STM32F4xx_HAL_Driver/Src/stm32f4xx_hal_pcd.c **** 
 358:Drivers/STM32F4xx_HAL_Driver/Src/stm32f4xx_hal_pcd.c ****       case HAL_PCD_SUSPEND_CB_ID :
 359:Drivers/STM32F4xx_HAL_Driver/Src/stm32f4xx_hal_pcd.c ****         hpcd->SuspendCallback = pCallback;
 360:Drivers/STM32F4xx_HAL_Driver/Src/stm32f4xx_hal_pcd.c ****         break;
 361:Drivers/STM32F4xx_HAL_Driver/Src/stm32f4xx_hal_pcd.c **** 
 362:Drivers/STM32F4xx_HAL_Driver/Src/stm32f4xx_hal_pcd.c ****       case HAL_PCD_RESUME_CB_ID :
 363:Drivers/STM32F4xx_HAL_Driver/Src/stm32f4xx_hal_pcd.c ****         hpcd->ResumeCallback = pCallback;
 364:Drivers/STM32F4xx_HAL_Driver/Src/stm32f4xx_hal_pcd.c ****         break;
 365:Drivers/STM32F4xx_HAL_Driver/Src/stm32f4xx_hal_pcd.c **** 
 366:Drivers/STM32F4xx_HAL_Driver/Src/stm32f4xx_hal_pcd.c ****       case HAL_PCD_CONNECT_CB_ID :
 367:Drivers/STM32F4xx_HAL_Driver/Src/stm32f4xx_hal_pcd.c ****         hpcd->ConnectCallback = pCallback;
 368:Drivers/STM32F4xx_HAL_Driver/Src/stm32f4xx_hal_pcd.c ****         break;
 369:Drivers/STM32F4xx_HAL_Driver/Src/stm32f4xx_hal_pcd.c **** 
 370:Drivers/STM32F4xx_HAL_Driver/Src/stm32f4xx_hal_pcd.c ****       case HAL_PCD_DISCONNECT_CB_ID :
 371:Drivers/STM32F4xx_HAL_Driver/Src/stm32f4xx_hal_pcd.c ****         hpcd->DisconnectCallback = pCallback;
 372:Drivers/STM32F4xx_HAL_Driver/Src/stm32f4xx_hal_pcd.c ****         break;
 373:Drivers/STM32F4xx_HAL_Driver/Src/stm32f4xx_hal_pcd.c **** 
 374:Drivers/STM32F4xx_HAL_Driver/Src/stm32f4xx_hal_pcd.c ****       case HAL_PCD_MSPINIT_CB_ID :
 375:Drivers/STM32F4xx_HAL_Driver/Src/stm32f4xx_hal_pcd.c ****         hpcd->MspInitCallback = pCallback;
 376:Drivers/STM32F4xx_HAL_Driver/Src/stm32f4xx_hal_pcd.c ****         break;
 377:Drivers/STM32F4xx_HAL_Driver/Src/stm32f4xx_hal_pcd.c **** 
 378:Drivers/STM32F4xx_HAL_Driver/Src/stm32f4xx_hal_pcd.c ****       case HAL_PCD_MSPDEINIT_CB_ID :
 379:Drivers/STM32F4xx_HAL_Driver/Src/stm32f4xx_hal_pcd.c ****         hpcd->MspDeInitCallback = pCallback;
 380:Drivers/STM32F4xx_HAL_Driver/Src/stm32f4xx_hal_pcd.c ****         break;
 381:Drivers/STM32F4xx_HAL_Driver/Src/stm32f4xx_hal_pcd.c **** 
 382:Drivers/STM32F4xx_HAL_Driver/Src/stm32f4xx_hal_pcd.c ****       default :
 383:Drivers/STM32F4xx_HAL_Driver/Src/stm32f4xx_hal_pcd.c ****         /* Update the error code */
 384:Drivers/STM32F4xx_HAL_Driver/Src/stm32f4xx_hal_pcd.c ****         hpcd->ErrorCode |= HAL_PCD_ERROR_INVALID_CALLBACK;
 385:Drivers/STM32F4xx_HAL_Driver/Src/stm32f4xx_hal_pcd.c ****         /* Return error status */
 386:Drivers/STM32F4xx_HAL_Driver/Src/stm32f4xx_hal_pcd.c ****         status =  HAL_ERROR;
 387:Drivers/STM32F4xx_HAL_Driver/Src/stm32f4xx_hal_pcd.c ****         break;
 388:Drivers/STM32F4xx_HAL_Driver/Src/stm32f4xx_hal_pcd.c ****     }
 389:Drivers/STM32F4xx_HAL_Driver/Src/stm32f4xx_hal_pcd.c ****   }
 390:Drivers/STM32F4xx_HAL_Driver/Src/stm32f4xx_hal_pcd.c ****   else if (hpcd->State == HAL_PCD_STATE_RESET)
 391:Drivers/STM32F4xx_HAL_Driver/Src/stm32f4xx_hal_pcd.c ****   {
 392:Drivers/STM32F4xx_HAL_Driver/Src/stm32f4xx_hal_pcd.c ****     switch (CallbackID)
 393:Drivers/STM32F4xx_HAL_Driver/Src/stm32f4xx_hal_pcd.c ****     {
 394:Drivers/STM32F4xx_HAL_Driver/Src/stm32f4xx_hal_pcd.c ****       case HAL_PCD_MSPINIT_CB_ID :
 395:Drivers/STM32F4xx_HAL_Driver/Src/stm32f4xx_hal_pcd.c ****         hpcd->MspInitCallback = pCallback;
 396:Drivers/STM32F4xx_HAL_Driver/Src/stm32f4xx_hal_pcd.c ****         break;
 397:Drivers/STM32F4xx_HAL_Driver/Src/stm32f4xx_hal_pcd.c **** 
 398:Drivers/STM32F4xx_HAL_Driver/Src/stm32f4xx_hal_pcd.c ****       case HAL_PCD_MSPDEINIT_CB_ID :
 399:Drivers/STM32F4xx_HAL_Driver/Src/stm32f4xx_hal_pcd.c ****         hpcd->MspDeInitCallback = pCallback;
 400:Drivers/STM32F4xx_HAL_Driver/Src/stm32f4xx_hal_pcd.c ****         break;
 401:Drivers/STM32F4xx_HAL_Driver/Src/stm32f4xx_hal_pcd.c **** 
 402:Drivers/STM32F4xx_HAL_Driver/Src/stm32f4xx_hal_pcd.c ****       default :
 403:Drivers/STM32F4xx_HAL_Driver/Src/stm32f4xx_hal_pcd.c ****         /* Update the error code */
 404:Drivers/STM32F4xx_HAL_Driver/Src/stm32f4xx_hal_pcd.c ****         hpcd->ErrorCode |= HAL_PCD_ERROR_INVALID_CALLBACK;
 405:Drivers/STM32F4xx_HAL_Driver/Src/stm32f4xx_hal_pcd.c ****         /* Return error status */
 406:Drivers/STM32F4xx_HAL_Driver/Src/stm32f4xx_hal_pcd.c ****         status =  HAL_ERROR;
 407:Drivers/STM32F4xx_HAL_Driver/Src/stm32f4xx_hal_pcd.c ****         break;
 408:Drivers/STM32F4xx_HAL_Driver/Src/stm32f4xx_hal_pcd.c ****     }
 409:Drivers/STM32F4xx_HAL_Driver/Src/stm32f4xx_hal_pcd.c ****   }
 410:Drivers/STM32F4xx_HAL_Driver/Src/stm32f4xx_hal_pcd.c ****   else
 411:Drivers/STM32F4xx_HAL_Driver/Src/stm32f4xx_hal_pcd.c ****   {
ARM GAS  /var/folders/vq/qt4vp3kd5rxf7v2b6_fdtdt80000gn/T//cc6xBrdC.s 			page 18


 412:Drivers/STM32F4xx_HAL_Driver/Src/stm32f4xx_hal_pcd.c ****     /* Update the error code */
 413:Drivers/STM32F4xx_HAL_Driver/Src/stm32f4xx_hal_pcd.c ****     hpcd->ErrorCode |= HAL_PCD_ERROR_INVALID_CALLBACK;
 414:Drivers/STM32F4xx_HAL_Driver/Src/stm32f4xx_hal_pcd.c ****     /* Return error status */
 415:Drivers/STM32F4xx_HAL_Driver/Src/stm32f4xx_hal_pcd.c ****     status =  HAL_ERROR;
 416:Drivers/STM32F4xx_HAL_Driver/Src/stm32f4xx_hal_pcd.c ****   }
 417:Drivers/STM32F4xx_HAL_Driver/Src/stm32f4xx_hal_pcd.c **** 
 418:Drivers/STM32F4xx_HAL_Driver/Src/stm32f4xx_hal_pcd.c ****   /* Release Lock */
 419:Drivers/STM32F4xx_HAL_Driver/Src/stm32f4xx_hal_pcd.c ****   __HAL_UNLOCK(hpcd);
 420:Drivers/STM32F4xx_HAL_Driver/Src/stm32f4xx_hal_pcd.c ****   return status;
 421:Drivers/STM32F4xx_HAL_Driver/Src/stm32f4xx_hal_pcd.c **** }
 422:Drivers/STM32F4xx_HAL_Driver/Src/stm32f4xx_hal_pcd.c **** 
 423:Drivers/STM32F4xx_HAL_Driver/Src/stm32f4xx_hal_pcd.c **** /**
 424:Drivers/STM32F4xx_HAL_Driver/Src/stm32f4xx_hal_pcd.c ****   * @brief  Unregister an USB PCD Callback
 425:Drivers/STM32F4xx_HAL_Driver/Src/stm32f4xx_hal_pcd.c ****   *         USB PCD callabck is redirected to the weak predefined callback
 426:Drivers/STM32F4xx_HAL_Driver/Src/stm32f4xx_hal_pcd.c ****   * @param  hpcd USB PCD handle
 427:Drivers/STM32F4xx_HAL_Driver/Src/stm32f4xx_hal_pcd.c ****   * @param  CallbackID ID of the callback to be unregistered
 428:Drivers/STM32F4xx_HAL_Driver/Src/stm32f4xx_hal_pcd.c ****   *         This parameter can be one of the following values:
 429:Drivers/STM32F4xx_HAL_Driver/Src/stm32f4xx_hal_pcd.c ****   *          @arg @ref HAL_PCD_SOF_CB_ID USB PCD SOF callback ID
 430:Drivers/STM32F4xx_HAL_Driver/Src/stm32f4xx_hal_pcd.c ****   *          @arg @ref HAL_PCD_SETUPSTAGE_CB_ID USB PCD Setup callback ID
 431:Drivers/STM32F4xx_HAL_Driver/Src/stm32f4xx_hal_pcd.c ****   *          @arg @ref HAL_PCD_RESET_CB_ID USB PCD Reset callback ID
 432:Drivers/STM32F4xx_HAL_Driver/Src/stm32f4xx_hal_pcd.c ****   *          @arg @ref HAL_PCD_SUSPEND_CB_ID USB PCD Suspend callback ID
 433:Drivers/STM32F4xx_HAL_Driver/Src/stm32f4xx_hal_pcd.c ****   *          @arg @ref HAL_PCD_RESUME_CB_ID USB PCD Resume callback ID
 434:Drivers/STM32F4xx_HAL_Driver/Src/stm32f4xx_hal_pcd.c ****   *          @arg @ref HAL_PCD_CONNECT_CB_ID USB PCD Connect callback ID
 435:Drivers/STM32F4xx_HAL_Driver/Src/stm32f4xx_hal_pcd.c ****   *          @arg @ref HAL_PCD_DISCONNECT_CB_ID OTG PCD Disconnect callback ID
 436:Drivers/STM32F4xx_HAL_Driver/Src/stm32f4xx_hal_pcd.c ****   *          @arg @ref HAL_PCD_MSPINIT_CB_ID MspDeInit callback ID
 437:Drivers/STM32F4xx_HAL_Driver/Src/stm32f4xx_hal_pcd.c ****   *          @arg @ref HAL_PCD_MSPDEINIT_CB_ID MspDeInit callback ID
 438:Drivers/STM32F4xx_HAL_Driver/Src/stm32f4xx_hal_pcd.c ****   * @retval HAL status
 439:Drivers/STM32F4xx_HAL_Driver/Src/stm32f4xx_hal_pcd.c ****   */
 440:Drivers/STM32F4xx_HAL_Driver/Src/stm32f4xx_hal_pcd.c **** HAL_StatusTypeDef HAL_PCD_UnRegisterCallback(PCD_HandleTypeDef *hpcd, HAL_PCD_CallbackIDTypeDef Cal
 441:Drivers/STM32F4xx_HAL_Driver/Src/stm32f4xx_hal_pcd.c **** {
 442:Drivers/STM32F4xx_HAL_Driver/Src/stm32f4xx_hal_pcd.c ****   HAL_StatusTypeDef status = HAL_OK;
 443:Drivers/STM32F4xx_HAL_Driver/Src/stm32f4xx_hal_pcd.c **** 
 444:Drivers/STM32F4xx_HAL_Driver/Src/stm32f4xx_hal_pcd.c ****   /* Process locked */
 445:Drivers/STM32F4xx_HAL_Driver/Src/stm32f4xx_hal_pcd.c ****   __HAL_LOCK(hpcd);
 446:Drivers/STM32F4xx_HAL_Driver/Src/stm32f4xx_hal_pcd.c **** 
 447:Drivers/STM32F4xx_HAL_Driver/Src/stm32f4xx_hal_pcd.c ****   /* Setup Legacy weak Callbacks  */
 448:Drivers/STM32F4xx_HAL_Driver/Src/stm32f4xx_hal_pcd.c ****   if (hpcd->State == HAL_PCD_STATE_READY)
 449:Drivers/STM32F4xx_HAL_Driver/Src/stm32f4xx_hal_pcd.c ****   {
 450:Drivers/STM32F4xx_HAL_Driver/Src/stm32f4xx_hal_pcd.c ****     switch (CallbackID)
 451:Drivers/STM32F4xx_HAL_Driver/Src/stm32f4xx_hal_pcd.c ****     {
 452:Drivers/STM32F4xx_HAL_Driver/Src/stm32f4xx_hal_pcd.c ****       case HAL_PCD_SOF_CB_ID :
 453:Drivers/STM32F4xx_HAL_Driver/Src/stm32f4xx_hal_pcd.c ****         hpcd->SOFCallback = HAL_PCD_SOFCallback;
 454:Drivers/STM32F4xx_HAL_Driver/Src/stm32f4xx_hal_pcd.c ****         break;
 455:Drivers/STM32F4xx_HAL_Driver/Src/stm32f4xx_hal_pcd.c **** 
 456:Drivers/STM32F4xx_HAL_Driver/Src/stm32f4xx_hal_pcd.c ****       case HAL_PCD_SETUPSTAGE_CB_ID :
 457:Drivers/STM32F4xx_HAL_Driver/Src/stm32f4xx_hal_pcd.c ****         hpcd->SetupStageCallback = HAL_PCD_SetupStageCallback;
 458:Drivers/STM32F4xx_HAL_Driver/Src/stm32f4xx_hal_pcd.c ****         break;
 459:Drivers/STM32F4xx_HAL_Driver/Src/stm32f4xx_hal_pcd.c **** 
 460:Drivers/STM32F4xx_HAL_Driver/Src/stm32f4xx_hal_pcd.c ****       case HAL_PCD_RESET_CB_ID :
 461:Drivers/STM32F4xx_HAL_Driver/Src/stm32f4xx_hal_pcd.c ****         hpcd->ResetCallback = HAL_PCD_ResetCallback;
 462:Drivers/STM32F4xx_HAL_Driver/Src/stm32f4xx_hal_pcd.c ****         break;
 463:Drivers/STM32F4xx_HAL_Driver/Src/stm32f4xx_hal_pcd.c **** 
 464:Drivers/STM32F4xx_HAL_Driver/Src/stm32f4xx_hal_pcd.c ****       case HAL_PCD_SUSPEND_CB_ID :
 465:Drivers/STM32F4xx_HAL_Driver/Src/stm32f4xx_hal_pcd.c ****         hpcd->SuspendCallback = HAL_PCD_SuspendCallback;
 466:Drivers/STM32F4xx_HAL_Driver/Src/stm32f4xx_hal_pcd.c ****         break;
 467:Drivers/STM32F4xx_HAL_Driver/Src/stm32f4xx_hal_pcd.c **** 
 468:Drivers/STM32F4xx_HAL_Driver/Src/stm32f4xx_hal_pcd.c ****       case HAL_PCD_RESUME_CB_ID :
ARM GAS  /var/folders/vq/qt4vp3kd5rxf7v2b6_fdtdt80000gn/T//cc6xBrdC.s 			page 19


 469:Drivers/STM32F4xx_HAL_Driver/Src/stm32f4xx_hal_pcd.c ****         hpcd->ResumeCallback = HAL_PCD_ResumeCallback;
 470:Drivers/STM32F4xx_HAL_Driver/Src/stm32f4xx_hal_pcd.c ****         break;
 471:Drivers/STM32F4xx_HAL_Driver/Src/stm32f4xx_hal_pcd.c **** 
 472:Drivers/STM32F4xx_HAL_Driver/Src/stm32f4xx_hal_pcd.c ****       case HAL_PCD_CONNECT_CB_ID :
 473:Drivers/STM32F4xx_HAL_Driver/Src/stm32f4xx_hal_pcd.c ****         hpcd->ConnectCallback = HAL_PCD_ConnectCallback;
 474:Drivers/STM32F4xx_HAL_Driver/Src/stm32f4xx_hal_pcd.c ****         break;
 475:Drivers/STM32F4xx_HAL_Driver/Src/stm32f4xx_hal_pcd.c **** 
 476:Drivers/STM32F4xx_HAL_Driver/Src/stm32f4xx_hal_pcd.c ****       case HAL_PCD_DISCONNECT_CB_ID :
 477:Drivers/STM32F4xx_HAL_Driver/Src/stm32f4xx_hal_pcd.c ****         hpcd->DisconnectCallback = HAL_PCD_DisconnectCallback;
 478:Drivers/STM32F4xx_HAL_Driver/Src/stm32f4xx_hal_pcd.c ****         break;
 479:Drivers/STM32F4xx_HAL_Driver/Src/stm32f4xx_hal_pcd.c **** 
 480:Drivers/STM32F4xx_HAL_Driver/Src/stm32f4xx_hal_pcd.c ****       case HAL_PCD_MSPINIT_CB_ID :
 481:Drivers/STM32F4xx_HAL_Driver/Src/stm32f4xx_hal_pcd.c ****         hpcd->MspInitCallback = HAL_PCD_MspInit;
 482:Drivers/STM32F4xx_HAL_Driver/Src/stm32f4xx_hal_pcd.c ****         break;
 483:Drivers/STM32F4xx_HAL_Driver/Src/stm32f4xx_hal_pcd.c **** 
 484:Drivers/STM32F4xx_HAL_Driver/Src/stm32f4xx_hal_pcd.c ****       case HAL_PCD_MSPDEINIT_CB_ID :
 485:Drivers/STM32F4xx_HAL_Driver/Src/stm32f4xx_hal_pcd.c ****         hpcd->MspDeInitCallback = HAL_PCD_MspDeInit;
 486:Drivers/STM32F4xx_HAL_Driver/Src/stm32f4xx_hal_pcd.c ****         break;
 487:Drivers/STM32F4xx_HAL_Driver/Src/stm32f4xx_hal_pcd.c **** 
 488:Drivers/STM32F4xx_HAL_Driver/Src/stm32f4xx_hal_pcd.c ****       default :
 489:Drivers/STM32F4xx_HAL_Driver/Src/stm32f4xx_hal_pcd.c ****         /* Update the error code */
 490:Drivers/STM32F4xx_HAL_Driver/Src/stm32f4xx_hal_pcd.c ****         hpcd->ErrorCode |= HAL_PCD_ERROR_INVALID_CALLBACK;
 491:Drivers/STM32F4xx_HAL_Driver/Src/stm32f4xx_hal_pcd.c **** 
 492:Drivers/STM32F4xx_HAL_Driver/Src/stm32f4xx_hal_pcd.c ****         /* Return error status */
 493:Drivers/STM32F4xx_HAL_Driver/Src/stm32f4xx_hal_pcd.c ****         status =  HAL_ERROR;
 494:Drivers/STM32F4xx_HAL_Driver/Src/stm32f4xx_hal_pcd.c ****         break;
 495:Drivers/STM32F4xx_HAL_Driver/Src/stm32f4xx_hal_pcd.c ****     }
 496:Drivers/STM32F4xx_HAL_Driver/Src/stm32f4xx_hal_pcd.c ****   }
 497:Drivers/STM32F4xx_HAL_Driver/Src/stm32f4xx_hal_pcd.c ****   else if (hpcd->State == HAL_PCD_STATE_RESET)
 498:Drivers/STM32F4xx_HAL_Driver/Src/stm32f4xx_hal_pcd.c ****   {
 499:Drivers/STM32F4xx_HAL_Driver/Src/stm32f4xx_hal_pcd.c ****     switch (CallbackID)
 500:Drivers/STM32F4xx_HAL_Driver/Src/stm32f4xx_hal_pcd.c ****     {
 501:Drivers/STM32F4xx_HAL_Driver/Src/stm32f4xx_hal_pcd.c ****       case HAL_PCD_MSPINIT_CB_ID :
 502:Drivers/STM32F4xx_HAL_Driver/Src/stm32f4xx_hal_pcd.c ****         hpcd->MspInitCallback = HAL_PCD_MspInit;
 503:Drivers/STM32F4xx_HAL_Driver/Src/stm32f4xx_hal_pcd.c ****         break;
 504:Drivers/STM32F4xx_HAL_Driver/Src/stm32f4xx_hal_pcd.c **** 
 505:Drivers/STM32F4xx_HAL_Driver/Src/stm32f4xx_hal_pcd.c ****       case HAL_PCD_MSPDEINIT_CB_ID :
 506:Drivers/STM32F4xx_HAL_Driver/Src/stm32f4xx_hal_pcd.c ****         hpcd->MspDeInitCallback = HAL_PCD_MspDeInit;
 507:Drivers/STM32F4xx_HAL_Driver/Src/stm32f4xx_hal_pcd.c ****         break;
 508:Drivers/STM32F4xx_HAL_Driver/Src/stm32f4xx_hal_pcd.c **** 
 509:Drivers/STM32F4xx_HAL_Driver/Src/stm32f4xx_hal_pcd.c ****       default :
 510:Drivers/STM32F4xx_HAL_Driver/Src/stm32f4xx_hal_pcd.c ****         /* Update the error code */
 511:Drivers/STM32F4xx_HAL_Driver/Src/stm32f4xx_hal_pcd.c ****         hpcd->ErrorCode |= HAL_PCD_ERROR_INVALID_CALLBACK;
 512:Drivers/STM32F4xx_HAL_Driver/Src/stm32f4xx_hal_pcd.c **** 
 513:Drivers/STM32F4xx_HAL_Driver/Src/stm32f4xx_hal_pcd.c ****         /* Return error status */
 514:Drivers/STM32F4xx_HAL_Driver/Src/stm32f4xx_hal_pcd.c ****         status =  HAL_ERROR;
 515:Drivers/STM32F4xx_HAL_Driver/Src/stm32f4xx_hal_pcd.c ****         break;
 516:Drivers/STM32F4xx_HAL_Driver/Src/stm32f4xx_hal_pcd.c ****     }
 517:Drivers/STM32F4xx_HAL_Driver/Src/stm32f4xx_hal_pcd.c ****   }
 518:Drivers/STM32F4xx_HAL_Driver/Src/stm32f4xx_hal_pcd.c ****   else
 519:Drivers/STM32F4xx_HAL_Driver/Src/stm32f4xx_hal_pcd.c ****   {
 520:Drivers/STM32F4xx_HAL_Driver/Src/stm32f4xx_hal_pcd.c ****     /* Update the error code */
 521:Drivers/STM32F4xx_HAL_Driver/Src/stm32f4xx_hal_pcd.c ****     hpcd->ErrorCode |= HAL_PCD_ERROR_INVALID_CALLBACK;
 522:Drivers/STM32F4xx_HAL_Driver/Src/stm32f4xx_hal_pcd.c **** 
 523:Drivers/STM32F4xx_HAL_Driver/Src/stm32f4xx_hal_pcd.c ****     /* Return error status */
 524:Drivers/STM32F4xx_HAL_Driver/Src/stm32f4xx_hal_pcd.c ****     status =  HAL_ERROR;
 525:Drivers/STM32F4xx_HAL_Driver/Src/stm32f4xx_hal_pcd.c ****   }
ARM GAS  /var/folders/vq/qt4vp3kd5rxf7v2b6_fdtdt80000gn/T//cc6xBrdC.s 			page 20


 526:Drivers/STM32F4xx_HAL_Driver/Src/stm32f4xx_hal_pcd.c **** 
 527:Drivers/STM32F4xx_HAL_Driver/Src/stm32f4xx_hal_pcd.c ****   /* Release Lock */
 528:Drivers/STM32F4xx_HAL_Driver/Src/stm32f4xx_hal_pcd.c ****   __HAL_UNLOCK(hpcd);
 529:Drivers/STM32F4xx_HAL_Driver/Src/stm32f4xx_hal_pcd.c ****   return status;
 530:Drivers/STM32F4xx_HAL_Driver/Src/stm32f4xx_hal_pcd.c **** }
 531:Drivers/STM32F4xx_HAL_Driver/Src/stm32f4xx_hal_pcd.c **** 
 532:Drivers/STM32F4xx_HAL_Driver/Src/stm32f4xx_hal_pcd.c **** /**
 533:Drivers/STM32F4xx_HAL_Driver/Src/stm32f4xx_hal_pcd.c ****   * @brief  Register USB PCD Data OUT Stage Callback
 534:Drivers/STM32F4xx_HAL_Driver/Src/stm32f4xx_hal_pcd.c ****   *         To be used instead of the weak HAL_PCD_DataOutStageCallback() predefined callback
 535:Drivers/STM32F4xx_HAL_Driver/Src/stm32f4xx_hal_pcd.c ****   * @param  hpcd PCD handle
 536:Drivers/STM32F4xx_HAL_Driver/Src/stm32f4xx_hal_pcd.c ****   * @param  pCallback pointer to the USB PCD Data OUT Stage Callback function
 537:Drivers/STM32F4xx_HAL_Driver/Src/stm32f4xx_hal_pcd.c ****   * @retval HAL status
 538:Drivers/STM32F4xx_HAL_Driver/Src/stm32f4xx_hal_pcd.c ****   */
 539:Drivers/STM32F4xx_HAL_Driver/Src/stm32f4xx_hal_pcd.c **** HAL_StatusTypeDef HAL_PCD_RegisterDataOutStageCallback(PCD_HandleTypeDef *hpcd,
 540:Drivers/STM32F4xx_HAL_Driver/Src/stm32f4xx_hal_pcd.c ****                                                        pPCD_DataOutStageCallbackTypeDef pCallback)
 541:Drivers/STM32F4xx_HAL_Driver/Src/stm32f4xx_hal_pcd.c **** {
 542:Drivers/STM32F4xx_HAL_Driver/Src/stm32f4xx_hal_pcd.c ****   HAL_StatusTypeDef status = HAL_OK;
 543:Drivers/STM32F4xx_HAL_Driver/Src/stm32f4xx_hal_pcd.c **** 
 544:Drivers/STM32F4xx_HAL_Driver/Src/stm32f4xx_hal_pcd.c ****   if (pCallback == NULL)
 545:Drivers/STM32F4xx_HAL_Driver/Src/stm32f4xx_hal_pcd.c ****   {
 546:Drivers/STM32F4xx_HAL_Driver/Src/stm32f4xx_hal_pcd.c ****     /* Update the error code */
 547:Drivers/STM32F4xx_HAL_Driver/Src/stm32f4xx_hal_pcd.c ****     hpcd->ErrorCode |= HAL_PCD_ERROR_INVALID_CALLBACK;
 548:Drivers/STM32F4xx_HAL_Driver/Src/stm32f4xx_hal_pcd.c **** 
 549:Drivers/STM32F4xx_HAL_Driver/Src/stm32f4xx_hal_pcd.c ****     return HAL_ERROR;
 550:Drivers/STM32F4xx_HAL_Driver/Src/stm32f4xx_hal_pcd.c ****   }
 551:Drivers/STM32F4xx_HAL_Driver/Src/stm32f4xx_hal_pcd.c **** 
 552:Drivers/STM32F4xx_HAL_Driver/Src/stm32f4xx_hal_pcd.c ****   /* Process locked */
 553:Drivers/STM32F4xx_HAL_Driver/Src/stm32f4xx_hal_pcd.c ****   __HAL_LOCK(hpcd);
 554:Drivers/STM32F4xx_HAL_Driver/Src/stm32f4xx_hal_pcd.c **** 
 555:Drivers/STM32F4xx_HAL_Driver/Src/stm32f4xx_hal_pcd.c ****   if (hpcd->State == HAL_PCD_STATE_READY)
 556:Drivers/STM32F4xx_HAL_Driver/Src/stm32f4xx_hal_pcd.c ****   {
 557:Drivers/STM32F4xx_HAL_Driver/Src/stm32f4xx_hal_pcd.c ****     hpcd->DataOutStageCallback = pCallback;
 558:Drivers/STM32F4xx_HAL_Driver/Src/stm32f4xx_hal_pcd.c ****   }
 559:Drivers/STM32F4xx_HAL_Driver/Src/stm32f4xx_hal_pcd.c ****   else
 560:Drivers/STM32F4xx_HAL_Driver/Src/stm32f4xx_hal_pcd.c ****   {
 561:Drivers/STM32F4xx_HAL_Driver/Src/stm32f4xx_hal_pcd.c ****     /* Update the error code */
 562:Drivers/STM32F4xx_HAL_Driver/Src/stm32f4xx_hal_pcd.c ****     hpcd->ErrorCode |= HAL_PCD_ERROR_INVALID_CALLBACK;
 563:Drivers/STM32F4xx_HAL_Driver/Src/stm32f4xx_hal_pcd.c **** 
 564:Drivers/STM32F4xx_HAL_Driver/Src/stm32f4xx_hal_pcd.c ****     /* Return error status */
 565:Drivers/STM32F4xx_HAL_Driver/Src/stm32f4xx_hal_pcd.c ****     status =  HAL_ERROR;
 566:Drivers/STM32F4xx_HAL_Driver/Src/stm32f4xx_hal_pcd.c ****   }
 567:Drivers/STM32F4xx_HAL_Driver/Src/stm32f4xx_hal_pcd.c **** 
 568:Drivers/STM32F4xx_HAL_Driver/Src/stm32f4xx_hal_pcd.c ****   /* Release Lock */
 569:Drivers/STM32F4xx_HAL_Driver/Src/stm32f4xx_hal_pcd.c ****   __HAL_UNLOCK(hpcd);
 570:Drivers/STM32F4xx_HAL_Driver/Src/stm32f4xx_hal_pcd.c **** 
 571:Drivers/STM32F4xx_HAL_Driver/Src/stm32f4xx_hal_pcd.c ****   return status;
 572:Drivers/STM32F4xx_HAL_Driver/Src/stm32f4xx_hal_pcd.c **** }
 573:Drivers/STM32F4xx_HAL_Driver/Src/stm32f4xx_hal_pcd.c **** 
 574:Drivers/STM32F4xx_HAL_Driver/Src/stm32f4xx_hal_pcd.c **** /**
 575:Drivers/STM32F4xx_HAL_Driver/Src/stm32f4xx_hal_pcd.c ****   * @brief  Unregister the USB PCD Data OUT Stage Callback
 576:Drivers/STM32F4xx_HAL_Driver/Src/stm32f4xx_hal_pcd.c ****   *         USB PCD Data OUT Stage Callback is redirected to the weak HAL_PCD_DataOutStageCallback(
 577:Drivers/STM32F4xx_HAL_Driver/Src/stm32f4xx_hal_pcd.c ****   * @param  hpcd PCD handle
 578:Drivers/STM32F4xx_HAL_Driver/Src/stm32f4xx_hal_pcd.c ****   * @retval HAL status
 579:Drivers/STM32F4xx_HAL_Driver/Src/stm32f4xx_hal_pcd.c ****   */
 580:Drivers/STM32F4xx_HAL_Driver/Src/stm32f4xx_hal_pcd.c **** HAL_StatusTypeDef HAL_PCD_UnRegisterDataOutStageCallback(PCD_HandleTypeDef *hpcd)
 581:Drivers/STM32F4xx_HAL_Driver/Src/stm32f4xx_hal_pcd.c **** {
 582:Drivers/STM32F4xx_HAL_Driver/Src/stm32f4xx_hal_pcd.c ****   HAL_StatusTypeDef status = HAL_OK;
ARM GAS  /var/folders/vq/qt4vp3kd5rxf7v2b6_fdtdt80000gn/T//cc6xBrdC.s 			page 21


 583:Drivers/STM32F4xx_HAL_Driver/Src/stm32f4xx_hal_pcd.c **** 
 584:Drivers/STM32F4xx_HAL_Driver/Src/stm32f4xx_hal_pcd.c ****   /* Process locked */
 585:Drivers/STM32F4xx_HAL_Driver/Src/stm32f4xx_hal_pcd.c ****   __HAL_LOCK(hpcd);
 586:Drivers/STM32F4xx_HAL_Driver/Src/stm32f4xx_hal_pcd.c **** 
 587:Drivers/STM32F4xx_HAL_Driver/Src/stm32f4xx_hal_pcd.c ****   if (hpcd->State == HAL_PCD_STATE_READY)
 588:Drivers/STM32F4xx_HAL_Driver/Src/stm32f4xx_hal_pcd.c ****   {
 589:Drivers/STM32F4xx_HAL_Driver/Src/stm32f4xx_hal_pcd.c ****     hpcd->DataOutStageCallback = HAL_PCD_DataOutStageCallback; /* Legacy weak DataOutStageCallback 
 590:Drivers/STM32F4xx_HAL_Driver/Src/stm32f4xx_hal_pcd.c ****   }
 591:Drivers/STM32F4xx_HAL_Driver/Src/stm32f4xx_hal_pcd.c ****   else
 592:Drivers/STM32F4xx_HAL_Driver/Src/stm32f4xx_hal_pcd.c ****   {
 593:Drivers/STM32F4xx_HAL_Driver/Src/stm32f4xx_hal_pcd.c ****     /* Update the error code */
 594:Drivers/STM32F4xx_HAL_Driver/Src/stm32f4xx_hal_pcd.c ****     hpcd->ErrorCode |= HAL_PCD_ERROR_INVALID_CALLBACK;
 595:Drivers/STM32F4xx_HAL_Driver/Src/stm32f4xx_hal_pcd.c **** 
 596:Drivers/STM32F4xx_HAL_Driver/Src/stm32f4xx_hal_pcd.c ****     /* Return error status */
 597:Drivers/STM32F4xx_HAL_Driver/Src/stm32f4xx_hal_pcd.c ****     status =  HAL_ERROR;
 598:Drivers/STM32F4xx_HAL_Driver/Src/stm32f4xx_hal_pcd.c ****   }
 599:Drivers/STM32F4xx_HAL_Driver/Src/stm32f4xx_hal_pcd.c **** 
 600:Drivers/STM32F4xx_HAL_Driver/Src/stm32f4xx_hal_pcd.c ****   /* Release Lock */
 601:Drivers/STM32F4xx_HAL_Driver/Src/stm32f4xx_hal_pcd.c ****   __HAL_UNLOCK(hpcd);
 602:Drivers/STM32F4xx_HAL_Driver/Src/stm32f4xx_hal_pcd.c **** 
 603:Drivers/STM32F4xx_HAL_Driver/Src/stm32f4xx_hal_pcd.c ****   return status;
 604:Drivers/STM32F4xx_HAL_Driver/Src/stm32f4xx_hal_pcd.c **** }
 605:Drivers/STM32F4xx_HAL_Driver/Src/stm32f4xx_hal_pcd.c **** 
 606:Drivers/STM32F4xx_HAL_Driver/Src/stm32f4xx_hal_pcd.c **** /**
 607:Drivers/STM32F4xx_HAL_Driver/Src/stm32f4xx_hal_pcd.c ****   * @brief  Register USB PCD Data IN Stage Callback
 608:Drivers/STM32F4xx_HAL_Driver/Src/stm32f4xx_hal_pcd.c ****   *         To be used instead of the weak HAL_PCD_DataInStageCallback() predefined callback
 609:Drivers/STM32F4xx_HAL_Driver/Src/stm32f4xx_hal_pcd.c ****   * @param  hpcd PCD handle
 610:Drivers/STM32F4xx_HAL_Driver/Src/stm32f4xx_hal_pcd.c ****   * @param  pCallback pointer to the USB PCD Data IN Stage Callback function
 611:Drivers/STM32F4xx_HAL_Driver/Src/stm32f4xx_hal_pcd.c ****   * @retval HAL status
 612:Drivers/STM32F4xx_HAL_Driver/Src/stm32f4xx_hal_pcd.c ****   */
 613:Drivers/STM32F4xx_HAL_Driver/Src/stm32f4xx_hal_pcd.c **** HAL_StatusTypeDef HAL_PCD_RegisterDataInStageCallback(PCD_HandleTypeDef *hpcd,
 614:Drivers/STM32F4xx_HAL_Driver/Src/stm32f4xx_hal_pcd.c ****                                                       pPCD_DataInStageCallbackTypeDef pCallback)
 615:Drivers/STM32F4xx_HAL_Driver/Src/stm32f4xx_hal_pcd.c **** {
 616:Drivers/STM32F4xx_HAL_Driver/Src/stm32f4xx_hal_pcd.c ****   HAL_StatusTypeDef status = HAL_OK;
 617:Drivers/STM32F4xx_HAL_Driver/Src/stm32f4xx_hal_pcd.c **** 
 618:Drivers/STM32F4xx_HAL_Driver/Src/stm32f4xx_hal_pcd.c ****   if (pCallback == NULL)
 619:Drivers/STM32F4xx_HAL_Driver/Src/stm32f4xx_hal_pcd.c ****   {
 620:Drivers/STM32F4xx_HAL_Driver/Src/stm32f4xx_hal_pcd.c ****     /* Update the error code */
 621:Drivers/STM32F4xx_HAL_Driver/Src/stm32f4xx_hal_pcd.c ****     hpcd->ErrorCode |= HAL_PCD_ERROR_INVALID_CALLBACK;
 622:Drivers/STM32F4xx_HAL_Driver/Src/stm32f4xx_hal_pcd.c **** 
 623:Drivers/STM32F4xx_HAL_Driver/Src/stm32f4xx_hal_pcd.c ****     return HAL_ERROR;
 624:Drivers/STM32F4xx_HAL_Driver/Src/stm32f4xx_hal_pcd.c ****   }
 625:Drivers/STM32F4xx_HAL_Driver/Src/stm32f4xx_hal_pcd.c **** 
 626:Drivers/STM32F4xx_HAL_Driver/Src/stm32f4xx_hal_pcd.c ****   /* Process locked */
 627:Drivers/STM32F4xx_HAL_Driver/Src/stm32f4xx_hal_pcd.c ****   __HAL_LOCK(hpcd);
 628:Drivers/STM32F4xx_HAL_Driver/Src/stm32f4xx_hal_pcd.c **** 
 629:Drivers/STM32F4xx_HAL_Driver/Src/stm32f4xx_hal_pcd.c ****   if (hpcd->State == HAL_PCD_STATE_READY)
 630:Drivers/STM32F4xx_HAL_Driver/Src/stm32f4xx_hal_pcd.c ****   {
 631:Drivers/STM32F4xx_HAL_Driver/Src/stm32f4xx_hal_pcd.c ****     hpcd->DataInStageCallback = pCallback;
 632:Drivers/STM32F4xx_HAL_Driver/Src/stm32f4xx_hal_pcd.c ****   }
 633:Drivers/STM32F4xx_HAL_Driver/Src/stm32f4xx_hal_pcd.c ****   else
 634:Drivers/STM32F4xx_HAL_Driver/Src/stm32f4xx_hal_pcd.c ****   {
 635:Drivers/STM32F4xx_HAL_Driver/Src/stm32f4xx_hal_pcd.c ****     /* Update the error code */
 636:Drivers/STM32F4xx_HAL_Driver/Src/stm32f4xx_hal_pcd.c ****     hpcd->ErrorCode |= HAL_PCD_ERROR_INVALID_CALLBACK;
 637:Drivers/STM32F4xx_HAL_Driver/Src/stm32f4xx_hal_pcd.c **** 
 638:Drivers/STM32F4xx_HAL_Driver/Src/stm32f4xx_hal_pcd.c ****     /* Return error status */
 639:Drivers/STM32F4xx_HAL_Driver/Src/stm32f4xx_hal_pcd.c ****     status =  HAL_ERROR;
ARM GAS  /var/folders/vq/qt4vp3kd5rxf7v2b6_fdtdt80000gn/T//cc6xBrdC.s 			page 22


 640:Drivers/STM32F4xx_HAL_Driver/Src/stm32f4xx_hal_pcd.c ****   }
 641:Drivers/STM32F4xx_HAL_Driver/Src/stm32f4xx_hal_pcd.c **** 
 642:Drivers/STM32F4xx_HAL_Driver/Src/stm32f4xx_hal_pcd.c ****   /* Release Lock */
 643:Drivers/STM32F4xx_HAL_Driver/Src/stm32f4xx_hal_pcd.c ****   __HAL_UNLOCK(hpcd);
 644:Drivers/STM32F4xx_HAL_Driver/Src/stm32f4xx_hal_pcd.c **** 
 645:Drivers/STM32F4xx_HAL_Driver/Src/stm32f4xx_hal_pcd.c ****   return status;
 646:Drivers/STM32F4xx_HAL_Driver/Src/stm32f4xx_hal_pcd.c **** }
 647:Drivers/STM32F4xx_HAL_Driver/Src/stm32f4xx_hal_pcd.c **** 
 648:Drivers/STM32F4xx_HAL_Driver/Src/stm32f4xx_hal_pcd.c **** /**
 649:Drivers/STM32F4xx_HAL_Driver/Src/stm32f4xx_hal_pcd.c ****   * @brief  Unregister the USB PCD Data IN Stage Callback
 650:Drivers/STM32F4xx_HAL_Driver/Src/stm32f4xx_hal_pcd.c ****   *         USB PCD Data OUT Stage Callback is redirected to the weak HAL_PCD_DataInStageCallback()
 651:Drivers/STM32F4xx_HAL_Driver/Src/stm32f4xx_hal_pcd.c ****   * @param  hpcd PCD handle
 652:Drivers/STM32F4xx_HAL_Driver/Src/stm32f4xx_hal_pcd.c ****   * @retval HAL status
 653:Drivers/STM32F4xx_HAL_Driver/Src/stm32f4xx_hal_pcd.c ****   */
 654:Drivers/STM32F4xx_HAL_Driver/Src/stm32f4xx_hal_pcd.c **** HAL_StatusTypeDef HAL_PCD_UnRegisterDataInStageCallback(PCD_HandleTypeDef *hpcd)
 655:Drivers/STM32F4xx_HAL_Driver/Src/stm32f4xx_hal_pcd.c **** {
 656:Drivers/STM32F4xx_HAL_Driver/Src/stm32f4xx_hal_pcd.c ****   HAL_StatusTypeDef status = HAL_OK;
 657:Drivers/STM32F4xx_HAL_Driver/Src/stm32f4xx_hal_pcd.c **** 
 658:Drivers/STM32F4xx_HAL_Driver/Src/stm32f4xx_hal_pcd.c ****   /* Process locked */
 659:Drivers/STM32F4xx_HAL_Driver/Src/stm32f4xx_hal_pcd.c ****   __HAL_LOCK(hpcd);
 660:Drivers/STM32F4xx_HAL_Driver/Src/stm32f4xx_hal_pcd.c **** 
 661:Drivers/STM32F4xx_HAL_Driver/Src/stm32f4xx_hal_pcd.c ****   if (hpcd->State == HAL_PCD_STATE_READY)
 662:Drivers/STM32F4xx_HAL_Driver/Src/stm32f4xx_hal_pcd.c ****   {
 663:Drivers/STM32F4xx_HAL_Driver/Src/stm32f4xx_hal_pcd.c ****     hpcd->DataInStageCallback = HAL_PCD_DataInStageCallback; /* Legacy weak DataInStageCallback  */
 664:Drivers/STM32F4xx_HAL_Driver/Src/stm32f4xx_hal_pcd.c ****   }
 665:Drivers/STM32F4xx_HAL_Driver/Src/stm32f4xx_hal_pcd.c ****   else
 666:Drivers/STM32F4xx_HAL_Driver/Src/stm32f4xx_hal_pcd.c ****   {
 667:Drivers/STM32F4xx_HAL_Driver/Src/stm32f4xx_hal_pcd.c ****     /* Update the error code */
 668:Drivers/STM32F4xx_HAL_Driver/Src/stm32f4xx_hal_pcd.c ****     hpcd->ErrorCode |= HAL_PCD_ERROR_INVALID_CALLBACK;
 669:Drivers/STM32F4xx_HAL_Driver/Src/stm32f4xx_hal_pcd.c **** 
 670:Drivers/STM32F4xx_HAL_Driver/Src/stm32f4xx_hal_pcd.c ****     /* Return error status */
 671:Drivers/STM32F4xx_HAL_Driver/Src/stm32f4xx_hal_pcd.c ****     status =  HAL_ERROR;
 672:Drivers/STM32F4xx_HAL_Driver/Src/stm32f4xx_hal_pcd.c ****   }
 673:Drivers/STM32F4xx_HAL_Driver/Src/stm32f4xx_hal_pcd.c **** 
 674:Drivers/STM32F4xx_HAL_Driver/Src/stm32f4xx_hal_pcd.c ****   /* Release Lock */
 675:Drivers/STM32F4xx_HAL_Driver/Src/stm32f4xx_hal_pcd.c ****   __HAL_UNLOCK(hpcd);
 676:Drivers/STM32F4xx_HAL_Driver/Src/stm32f4xx_hal_pcd.c **** 
 677:Drivers/STM32F4xx_HAL_Driver/Src/stm32f4xx_hal_pcd.c ****   return status;
 678:Drivers/STM32F4xx_HAL_Driver/Src/stm32f4xx_hal_pcd.c **** }
 679:Drivers/STM32F4xx_HAL_Driver/Src/stm32f4xx_hal_pcd.c **** 
 680:Drivers/STM32F4xx_HAL_Driver/Src/stm32f4xx_hal_pcd.c **** /**
 681:Drivers/STM32F4xx_HAL_Driver/Src/stm32f4xx_hal_pcd.c ****   * @brief  Register USB PCD Iso OUT incomplete Callback
 682:Drivers/STM32F4xx_HAL_Driver/Src/stm32f4xx_hal_pcd.c ****   *         To be used instead of the weak HAL_PCD_ISOOUTIncompleteCallback() predefined callback
 683:Drivers/STM32F4xx_HAL_Driver/Src/stm32f4xx_hal_pcd.c ****   * @param  hpcd PCD handle
 684:Drivers/STM32F4xx_HAL_Driver/Src/stm32f4xx_hal_pcd.c ****   * @param  pCallback pointer to the USB PCD Iso OUT incomplete Callback function
 685:Drivers/STM32F4xx_HAL_Driver/Src/stm32f4xx_hal_pcd.c ****   * @retval HAL status
 686:Drivers/STM32F4xx_HAL_Driver/Src/stm32f4xx_hal_pcd.c ****   */
 687:Drivers/STM32F4xx_HAL_Driver/Src/stm32f4xx_hal_pcd.c **** HAL_StatusTypeDef HAL_PCD_RegisterIsoOutIncpltCallback(PCD_HandleTypeDef *hpcd,
 688:Drivers/STM32F4xx_HAL_Driver/Src/stm32f4xx_hal_pcd.c ****                                                        pPCD_IsoOutIncpltCallbackTypeDef pCallback)
 689:Drivers/STM32F4xx_HAL_Driver/Src/stm32f4xx_hal_pcd.c **** {
 690:Drivers/STM32F4xx_HAL_Driver/Src/stm32f4xx_hal_pcd.c ****   HAL_StatusTypeDef status = HAL_OK;
 691:Drivers/STM32F4xx_HAL_Driver/Src/stm32f4xx_hal_pcd.c **** 
 692:Drivers/STM32F4xx_HAL_Driver/Src/stm32f4xx_hal_pcd.c ****   if (pCallback == NULL)
 693:Drivers/STM32F4xx_HAL_Driver/Src/stm32f4xx_hal_pcd.c ****   {
 694:Drivers/STM32F4xx_HAL_Driver/Src/stm32f4xx_hal_pcd.c ****     /* Update the error code */
 695:Drivers/STM32F4xx_HAL_Driver/Src/stm32f4xx_hal_pcd.c ****     hpcd->ErrorCode |= HAL_PCD_ERROR_INVALID_CALLBACK;
 696:Drivers/STM32F4xx_HAL_Driver/Src/stm32f4xx_hal_pcd.c **** 
ARM GAS  /var/folders/vq/qt4vp3kd5rxf7v2b6_fdtdt80000gn/T//cc6xBrdC.s 			page 23


 697:Drivers/STM32F4xx_HAL_Driver/Src/stm32f4xx_hal_pcd.c ****     return HAL_ERROR;
 698:Drivers/STM32F4xx_HAL_Driver/Src/stm32f4xx_hal_pcd.c ****   }
 699:Drivers/STM32F4xx_HAL_Driver/Src/stm32f4xx_hal_pcd.c **** 
 700:Drivers/STM32F4xx_HAL_Driver/Src/stm32f4xx_hal_pcd.c ****   /* Process locked */
 701:Drivers/STM32F4xx_HAL_Driver/Src/stm32f4xx_hal_pcd.c ****   __HAL_LOCK(hpcd);
 702:Drivers/STM32F4xx_HAL_Driver/Src/stm32f4xx_hal_pcd.c **** 
 703:Drivers/STM32F4xx_HAL_Driver/Src/stm32f4xx_hal_pcd.c ****   if (hpcd->State == HAL_PCD_STATE_READY)
 704:Drivers/STM32F4xx_HAL_Driver/Src/stm32f4xx_hal_pcd.c ****   {
 705:Drivers/STM32F4xx_HAL_Driver/Src/stm32f4xx_hal_pcd.c ****     hpcd->ISOOUTIncompleteCallback = pCallback;
 706:Drivers/STM32F4xx_HAL_Driver/Src/stm32f4xx_hal_pcd.c ****   }
 707:Drivers/STM32F4xx_HAL_Driver/Src/stm32f4xx_hal_pcd.c ****   else
 708:Drivers/STM32F4xx_HAL_Driver/Src/stm32f4xx_hal_pcd.c ****   {
 709:Drivers/STM32F4xx_HAL_Driver/Src/stm32f4xx_hal_pcd.c ****     /* Update the error code */
 710:Drivers/STM32F4xx_HAL_Driver/Src/stm32f4xx_hal_pcd.c ****     hpcd->ErrorCode |= HAL_PCD_ERROR_INVALID_CALLBACK;
 711:Drivers/STM32F4xx_HAL_Driver/Src/stm32f4xx_hal_pcd.c **** 
 712:Drivers/STM32F4xx_HAL_Driver/Src/stm32f4xx_hal_pcd.c ****     /* Return error status */
 713:Drivers/STM32F4xx_HAL_Driver/Src/stm32f4xx_hal_pcd.c ****     status =  HAL_ERROR;
 714:Drivers/STM32F4xx_HAL_Driver/Src/stm32f4xx_hal_pcd.c ****   }
 715:Drivers/STM32F4xx_HAL_Driver/Src/stm32f4xx_hal_pcd.c **** 
 716:Drivers/STM32F4xx_HAL_Driver/Src/stm32f4xx_hal_pcd.c ****   /* Release Lock */
 717:Drivers/STM32F4xx_HAL_Driver/Src/stm32f4xx_hal_pcd.c ****   __HAL_UNLOCK(hpcd);
 718:Drivers/STM32F4xx_HAL_Driver/Src/stm32f4xx_hal_pcd.c **** 
 719:Drivers/STM32F4xx_HAL_Driver/Src/stm32f4xx_hal_pcd.c ****   return status;
 720:Drivers/STM32F4xx_HAL_Driver/Src/stm32f4xx_hal_pcd.c **** }
 721:Drivers/STM32F4xx_HAL_Driver/Src/stm32f4xx_hal_pcd.c **** 
 722:Drivers/STM32F4xx_HAL_Driver/Src/stm32f4xx_hal_pcd.c **** /**
 723:Drivers/STM32F4xx_HAL_Driver/Src/stm32f4xx_hal_pcd.c ****   * @brief  Unregister the USB PCD Iso OUT incomplete Callback
 724:Drivers/STM32F4xx_HAL_Driver/Src/stm32f4xx_hal_pcd.c ****   *         USB PCD Iso OUT incomplete Callback is redirected to the weak HAL_PCD_ISOOUTIncompleteC
 725:Drivers/STM32F4xx_HAL_Driver/Src/stm32f4xx_hal_pcd.c ****   * @param  hpcd PCD handle
 726:Drivers/STM32F4xx_HAL_Driver/Src/stm32f4xx_hal_pcd.c ****   * @retval HAL status
 727:Drivers/STM32F4xx_HAL_Driver/Src/stm32f4xx_hal_pcd.c ****   */
 728:Drivers/STM32F4xx_HAL_Driver/Src/stm32f4xx_hal_pcd.c **** HAL_StatusTypeDef HAL_PCD_UnRegisterIsoOutIncpltCallback(PCD_HandleTypeDef *hpcd)
 729:Drivers/STM32F4xx_HAL_Driver/Src/stm32f4xx_hal_pcd.c **** {
 730:Drivers/STM32F4xx_HAL_Driver/Src/stm32f4xx_hal_pcd.c ****   HAL_StatusTypeDef status = HAL_OK;
 731:Drivers/STM32F4xx_HAL_Driver/Src/stm32f4xx_hal_pcd.c **** 
 732:Drivers/STM32F4xx_HAL_Driver/Src/stm32f4xx_hal_pcd.c ****   /* Process locked */
 733:Drivers/STM32F4xx_HAL_Driver/Src/stm32f4xx_hal_pcd.c ****   __HAL_LOCK(hpcd);
 734:Drivers/STM32F4xx_HAL_Driver/Src/stm32f4xx_hal_pcd.c **** 
 735:Drivers/STM32F4xx_HAL_Driver/Src/stm32f4xx_hal_pcd.c ****   if (hpcd->State == HAL_PCD_STATE_READY)
 736:Drivers/STM32F4xx_HAL_Driver/Src/stm32f4xx_hal_pcd.c ****   {
 737:Drivers/STM32F4xx_HAL_Driver/Src/stm32f4xx_hal_pcd.c ****     hpcd->ISOOUTIncompleteCallback = HAL_PCD_ISOOUTIncompleteCallback; /* Legacy weak ISOOUTIncompl
 738:Drivers/STM32F4xx_HAL_Driver/Src/stm32f4xx_hal_pcd.c ****   }
 739:Drivers/STM32F4xx_HAL_Driver/Src/stm32f4xx_hal_pcd.c ****   else
 740:Drivers/STM32F4xx_HAL_Driver/Src/stm32f4xx_hal_pcd.c ****   {
 741:Drivers/STM32F4xx_HAL_Driver/Src/stm32f4xx_hal_pcd.c ****     /* Update the error code */
 742:Drivers/STM32F4xx_HAL_Driver/Src/stm32f4xx_hal_pcd.c ****     hpcd->ErrorCode |= HAL_PCD_ERROR_INVALID_CALLBACK;
 743:Drivers/STM32F4xx_HAL_Driver/Src/stm32f4xx_hal_pcd.c **** 
 744:Drivers/STM32F4xx_HAL_Driver/Src/stm32f4xx_hal_pcd.c ****     /* Return error status */
 745:Drivers/STM32F4xx_HAL_Driver/Src/stm32f4xx_hal_pcd.c ****     status =  HAL_ERROR;
 746:Drivers/STM32F4xx_HAL_Driver/Src/stm32f4xx_hal_pcd.c ****   }
 747:Drivers/STM32F4xx_HAL_Driver/Src/stm32f4xx_hal_pcd.c **** 
 748:Drivers/STM32F4xx_HAL_Driver/Src/stm32f4xx_hal_pcd.c ****   /* Release Lock */
 749:Drivers/STM32F4xx_HAL_Driver/Src/stm32f4xx_hal_pcd.c ****   __HAL_UNLOCK(hpcd);
 750:Drivers/STM32F4xx_HAL_Driver/Src/stm32f4xx_hal_pcd.c **** 
 751:Drivers/STM32F4xx_HAL_Driver/Src/stm32f4xx_hal_pcd.c ****   return status;
 752:Drivers/STM32F4xx_HAL_Driver/Src/stm32f4xx_hal_pcd.c **** }
 753:Drivers/STM32F4xx_HAL_Driver/Src/stm32f4xx_hal_pcd.c **** 
ARM GAS  /var/folders/vq/qt4vp3kd5rxf7v2b6_fdtdt80000gn/T//cc6xBrdC.s 			page 24


 754:Drivers/STM32F4xx_HAL_Driver/Src/stm32f4xx_hal_pcd.c **** /**
 755:Drivers/STM32F4xx_HAL_Driver/Src/stm32f4xx_hal_pcd.c ****   * @brief  Register USB PCD Iso IN incomplete Callback
 756:Drivers/STM32F4xx_HAL_Driver/Src/stm32f4xx_hal_pcd.c ****   *         To be used instead of the weak HAL_PCD_ISOINIncompleteCallback() predefined callback
 757:Drivers/STM32F4xx_HAL_Driver/Src/stm32f4xx_hal_pcd.c ****   * @param  hpcd PCD handle
 758:Drivers/STM32F4xx_HAL_Driver/Src/stm32f4xx_hal_pcd.c ****   * @param  pCallback pointer to the USB PCD Iso IN incomplete Callback function
 759:Drivers/STM32F4xx_HAL_Driver/Src/stm32f4xx_hal_pcd.c ****   * @retval HAL status
 760:Drivers/STM32F4xx_HAL_Driver/Src/stm32f4xx_hal_pcd.c ****   */
 761:Drivers/STM32F4xx_HAL_Driver/Src/stm32f4xx_hal_pcd.c **** HAL_StatusTypeDef HAL_PCD_RegisterIsoInIncpltCallback(PCD_HandleTypeDef *hpcd,
 762:Drivers/STM32F4xx_HAL_Driver/Src/stm32f4xx_hal_pcd.c ****                                                       pPCD_IsoInIncpltCallbackTypeDef pCallback)
 763:Drivers/STM32F4xx_HAL_Driver/Src/stm32f4xx_hal_pcd.c **** {
 764:Drivers/STM32F4xx_HAL_Driver/Src/stm32f4xx_hal_pcd.c ****   HAL_StatusTypeDef status = HAL_OK;
 765:Drivers/STM32F4xx_HAL_Driver/Src/stm32f4xx_hal_pcd.c **** 
 766:Drivers/STM32F4xx_HAL_Driver/Src/stm32f4xx_hal_pcd.c ****   if (pCallback == NULL)
 767:Drivers/STM32F4xx_HAL_Driver/Src/stm32f4xx_hal_pcd.c ****   {
 768:Drivers/STM32F4xx_HAL_Driver/Src/stm32f4xx_hal_pcd.c ****     /* Update the error code */
 769:Drivers/STM32F4xx_HAL_Driver/Src/stm32f4xx_hal_pcd.c ****     hpcd->ErrorCode |= HAL_PCD_ERROR_INVALID_CALLBACK;
 770:Drivers/STM32F4xx_HAL_Driver/Src/stm32f4xx_hal_pcd.c **** 
 771:Drivers/STM32F4xx_HAL_Driver/Src/stm32f4xx_hal_pcd.c ****     return HAL_ERROR;
 772:Drivers/STM32F4xx_HAL_Driver/Src/stm32f4xx_hal_pcd.c ****   }
 773:Drivers/STM32F4xx_HAL_Driver/Src/stm32f4xx_hal_pcd.c **** 
 774:Drivers/STM32F4xx_HAL_Driver/Src/stm32f4xx_hal_pcd.c ****   /* Process locked */
 775:Drivers/STM32F4xx_HAL_Driver/Src/stm32f4xx_hal_pcd.c ****   __HAL_LOCK(hpcd);
 776:Drivers/STM32F4xx_HAL_Driver/Src/stm32f4xx_hal_pcd.c **** 
 777:Drivers/STM32F4xx_HAL_Driver/Src/stm32f4xx_hal_pcd.c ****   if (hpcd->State == HAL_PCD_STATE_READY)
 778:Drivers/STM32F4xx_HAL_Driver/Src/stm32f4xx_hal_pcd.c ****   {
 779:Drivers/STM32F4xx_HAL_Driver/Src/stm32f4xx_hal_pcd.c ****     hpcd->ISOINIncompleteCallback = pCallback;
 780:Drivers/STM32F4xx_HAL_Driver/Src/stm32f4xx_hal_pcd.c ****   }
 781:Drivers/STM32F4xx_HAL_Driver/Src/stm32f4xx_hal_pcd.c ****   else
 782:Drivers/STM32F4xx_HAL_Driver/Src/stm32f4xx_hal_pcd.c ****   {
 783:Drivers/STM32F4xx_HAL_Driver/Src/stm32f4xx_hal_pcd.c ****     /* Update the error code */
 784:Drivers/STM32F4xx_HAL_Driver/Src/stm32f4xx_hal_pcd.c ****     hpcd->ErrorCode |= HAL_PCD_ERROR_INVALID_CALLBACK;
 785:Drivers/STM32F4xx_HAL_Driver/Src/stm32f4xx_hal_pcd.c **** 
 786:Drivers/STM32F4xx_HAL_Driver/Src/stm32f4xx_hal_pcd.c ****     /* Return error status */
 787:Drivers/STM32F4xx_HAL_Driver/Src/stm32f4xx_hal_pcd.c ****     status =  HAL_ERROR;
 788:Drivers/STM32F4xx_HAL_Driver/Src/stm32f4xx_hal_pcd.c ****   }
 789:Drivers/STM32F4xx_HAL_Driver/Src/stm32f4xx_hal_pcd.c **** 
 790:Drivers/STM32F4xx_HAL_Driver/Src/stm32f4xx_hal_pcd.c ****   /* Release Lock */
 791:Drivers/STM32F4xx_HAL_Driver/Src/stm32f4xx_hal_pcd.c ****   __HAL_UNLOCK(hpcd);
 792:Drivers/STM32F4xx_HAL_Driver/Src/stm32f4xx_hal_pcd.c **** 
 793:Drivers/STM32F4xx_HAL_Driver/Src/stm32f4xx_hal_pcd.c ****   return status;
 794:Drivers/STM32F4xx_HAL_Driver/Src/stm32f4xx_hal_pcd.c **** }
 795:Drivers/STM32F4xx_HAL_Driver/Src/stm32f4xx_hal_pcd.c **** 
 796:Drivers/STM32F4xx_HAL_Driver/Src/stm32f4xx_hal_pcd.c **** /**
 797:Drivers/STM32F4xx_HAL_Driver/Src/stm32f4xx_hal_pcd.c ****   * @brief  Unregister the USB PCD Iso IN incomplete Callback
 798:Drivers/STM32F4xx_HAL_Driver/Src/stm32f4xx_hal_pcd.c ****   *         USB PCD Iso IN incomplete Callback is redirected to the weak HAL_PCD_ISOINIncompleteCal
 799:Drivers/STM32F4xx_HAL_Driver/Src/stm32f4xx_hal_pcd.c ****   * @param  hpcd PCD handle
 800:Drivers/STM32F4xx_HAL_Driver/Src/stm32f4xx_hal_pcd.c ****   * @retval HAL status
 801:Drivers/STM32F4xx_HAL_Driver/Src/stm32f4xx_hal_pcd.c ****   */
 802:Drivers/STM32F4xx_HAL_Driver/Src/stm32f4xx_hal_pcd.c **** HAL_StatusTypeDef HAL_PCD_UnRegisterIsoInIncpltCallback(PCD_HandleTypeDef *hpcd)
 803:Drivers/STM32F4xx_HAL_Driver/Src/stm32f4xx_hal_pcd.c **** {
 804:Drivers/STM32F4xx_HAL_Driver/Src/stm32f4xx_hal_pcd.c ****   HAL_StatusTypeDef status = HAL_OK;
 805:Drivers/STM32F4xx_HAL_Driver/Src/stm32f4xx_hal_pcd.c **** 
 806:Drivers/STM32F4xx_HAL_Driver/Src/stm32f4xx_hal_pcd.c ****   /* Process locked */
 807:Drivers/STM32F4xx_HAL_Driver/Src/stm32f4xx_hal_pcd.c ****   __HAL_LOCK(hpcd);
 808:Drivers/STM32F4xx_HAL_Driver/Src/stm32f4xx_hal_pcd.c **** 
 809:Drivers/STM32F4xx_HAL_Driver/Src/stm32f4xx_hal_pcd.c ****   if (hpcd->State == HAL_PCD_STATE_READY)
 810:Drivers/STM32F4xx_HAL_Driver/Src/stm32f4xx_hal_pcd.c ****   {
ARM GAS  /var/folders/vq/qt4vp3kd5rxf7v2b6_fdtdt80000gn/T//cc6xBrdC.s 			page 25


 811:Drivers/STM32F4xx_HAL_Driver/Src/stm32f4xx_hal_pcd.c ****     hpcd->ISOINIncompleteCallback = HAL_PCD_ISOINIncompleteCallback; /* Legacy weak ISOINIncomplete
 812:Drivers/STM32F4xx_HAL_Driver/Src/stm32f4xx_hal_pcd.c ****   }
 813:Drivers/STM32F4xx_HAL_Driver/Src/stm32f4xx_hal_pcd.c ****   else
 814:Drivers/STM32F4xx_HAL_Driver/Src/stm32f4xx_hal_pcd.c ****   {
 815:Drivers/STM32F4xx_HAL_Driver/Src/stm32f4xx_hal_pcd.c ****     /* Update the error code */
 816:Drivers/STM32F4xx_HAL_Driver/Src/stm32f4xx_hal_pcd.c ****     hpcd->ErrorCode |= HAL_PCD_ERROR_INVALID_CALLBACK;
 817:Drivers/STM32F4xx_HAL_Driver/Src/stm32f4xx_hal_pcd.c **** 
 818:Drivers/STM32F4xx_HAL_Driver/Src/stm32f4xx_hal_pcd.c ****     /* Return error status */
 819:Drivers/STM32F4xx_HAL_Driver/Src/stm32f4xx_hal_pcd.c ****     status =  HAL_ERROR;
 820:Drivers/STM32F4xx_HAL_Driver/Src/stm32f4xx_hal_pcd.c ****   }
 821:Drivers/STM32F4xx_HAL_Driver/Src/stm32f4xx_hal_pcd.c **** 
 822:Drivers/STM32F4xx_HAL_Driver/Src/stm32f4xx_hal_pcd.c ****   /* Release Lock */
 823:Drivers/STM32F4xx_HAL_Driver/Src/stm32f4xx_hal_pcd.c ****   __HAL_UNLOCK(hpcd);
 824:Drivers/STM32F4xx_HAL_Driver/Src/stm32f4xx_hal_pcd.c **** 
 825:Drivers/STM32F4xx_HAL_Driver/Src/stm32f4xx_hal_pcd.c ****   return status;
 826:Drivers/STM32F4xx_HAL_Driver/Src/stm32f4xx_hal_pcd.c **** }
 827:Drivers/STM32F4xx_HAL_Driver/Src/stm32f4xx_hal_pcd.c **** 
 828:Drivers/STM32F4xx_HAL_Driver/Src/stm32f4xx_hal_pcd.c **** /**
 829:Drivers/STM32F4xx_HAL_Driver/Src/stm32f4xx_hal_pcd.c ****   * @brief  Register USB PCD BCD Callback
 830:Drivers/STM32F4xx_HAL_Driver/Src/stm32f4xx_hal_pcd.c ****   *         To be used instead of the weak HAL_PCDEx_BCD_Callback() predefined callback
 831:Drivers/STM32F4xx_HAL_Driver/Src/stm32f4xx_hal_pcd.c ****   * @param  hpcd PCD handle
 832:Drivers/STM32F4xx_HAL_Driver/Src/stm32f4xx_hal_pcd.c ****   * @param  pCallback pointer to the USB PCD BCD Callback function
 833:Drivers/STM32F4xx_HAL_Driver/Src/stm32f4xx_hal_pcd.c ****   * @retval HAL status
 834:Drivers/STM32F4xx_HAL_Driver/Src/stm32f4xx_hal_pcd.c ****   */
 835:Drivers/STM32F4xx_HAL_Driver/Src/stm32f4xx_hal_pcd.c **** HAL_StatusTypeDef HAL_PCD_RegisterBcdCallback(PCD_HandleTypeDef *hpcd, pPCD_BcdCallbackTypeDef pCal
 836:Drivers/STM32F4xx_HAL_Driver/Src/stm32f4xx_hal_pcd.c **** {
 837:Drivers/STM32F4xx_HAL_Driver/Src/stm32f4xx_hal_pcd.c ****   HAL_StatusTypeDef status = HAL_OK;
 838:Drivers/STM32F4xx_HAL_Driver/Src/stm32f4xx_hal_pcd.c **** 
 839:Drivers/STM32F4xx_HAL_Driver/Src/stm32f4xx_hal_pcd.c ****   if (pCallback == NULL)
 840:Drivers/STM32F4xx_HAL_Driver/Src/stm32f4xx_hal_pcd.c ****   {
 841:Drivers/STM32F4xx_HAL_Driver/Src/stm32f4xx_hal_pcd.c ****     /* Update the error code */
 842:Drivers/STM32F4xx_HAL_Driver/Src/stm32f4xx_hal_pcd.c ****     hpcd->ErrorCode |= HAL_PCD_ERROR_INVALID_CALLBACK;
 843:Drivers/STM32F4xx_HAL_Driver/Src/stm32f4xx_hal_pcd.c **** 
 844:Drivers/STM32F4xx_HAL_Driver/Src/stm32f4xx_hal_pcd.c ****     return HAL_ERROR;
 845:Drivers/STM32F4xx_HAL_Driver/Src/stm32f4xx_hal_pcd.c ****   }
 846:Drivers/STM32F4xx_HAL_Driver/Src/stm32f4xx_hal_pcd.c **** 
 847:Drivers/STM32F4xx_HAL_Driver/Src/stm32f4xx_hal_pcd.c ****   /* Process locked */
 848:Drivers/STM32F4xx_HAL_Driver/Src/stm32f4xx_hal_pcd.c ****   __HAL_LOCK(hpcd);
 849:Drivers/STM32F4xx_HAL_Driver/Src/stm32f4xx_hal_pcd.c **** 
 850:Drivers/STM32F4xx_HAL_Driver/Src/stm32f4xx_hal_pcd.c ****   if (hpcd->State == HAL_PCD_STATE_READY)
 851:Drivers/STM32F4xx_HAL_Driver/Src/stm32f4xx_hal_pcd.c ****   {
 852:Drivers/STM32F4xx_HAL_Driver/Src/stm32f4xx_hal_pcd.c ****     hpcd->BCDCallback = pCallback;
 853:Drivers/STM32F4xx_HAL_Driver/Src/stm32f4xx_hal_pcd.c ****   }
 854:Drivers/STM32F4xx_HAL_Driver/Src/stm32f4xx_hal_pcd.c ****   else
 855:Drivers/STM32F4xx_HAL_Driver/Src/stm32f4xx_hal_pcd.c ****   {
 856:Drivers/STM32F4xx_HAL_Driver/Src/stm32f4xx_hal_pcd.c ****     /* Update the error code */
 857:Drivers/STM32F4xx_HAL_Driver/Src/stm32f4xx_hal_pcd.c ****     hpcd->ErrorCode |= HAL_PCD_ERROR_INVALID_CALLBACK;
 858:Drivers/STM32F4xx_HAL_Driver/Src/stm32f4xx_hal_pcd.c **** 
 859:Drivers/STM32F4xx_HAL_Driver/Src/stm32f4xx_hal_pcd.c ****     /* Return error status */
 860:Drivers/STM32F4xx_HAL_Driver/Src/stm32f4xx_hal_pcd.c ****     status =  HAL_ERROR;
 861:Drivers/STM32F4xx_HAL_Driver/Src/stm32f4xx_hal_pcd.c ****   }
 862:Drivers/STM32F4xx_HAL_Driver/Src/stm32f4xx_hal_pcd.c **** 
 863:Drivers/STM32F4xx_HAL_Driver/Src/stm32f4xx_hal_pcd.c ****   /* Release Lock */
 864:Drivers/STM32F4xx_HAL_Driver/Src/stm32f4xx_hal_pcd.c ****   __HAL_UNLOCK(hpcd);
 865:Drivers/STM32F4xx_HAL_Driver/Src/stm32f4xx_hal_pcd.c **** 
 866:Drivers/STM32F4xx_HAL_Driver/Src/stm32f4xx_hal_pcd.c ****   return status;
 867:Drivers/STM32F4xx_HAL_Driver/Src/stm32f4xx_hal_pcd.c **** }
ARM GAS  /var/folders/vq/qt4vp3kd5rxf7v2b6_fdtdt80000gn/T//cc6xBrdC.s 			page 26


 868:Drivers/STM32F4xx_HAL_Driver/Src/stm32f4xx_hal_pcd.c **** 
 869:Drivers/STM32F4xx_HAL_Driver/Src/stm32f4xx_hal_pcd.c **** /**
 870:Drivers/STM32F4xx_HAL_Driver/Src/stm32f4xx_hal_pcd.c ****   * @brief  Unregister the USB PCD BCD Callback
 871:Drivers/STM32F4xx_HAL_Driver/Src/stm32f4xx_hal_pcd.c ****   *         USB BCD Callback is redirected to the weak HAL_PCDEx_BCD_Callback() predefined callback
 872:Drivers/STM32F4xx_HAL_Driver/Src/stm32f4xx_hal_pcd.c ****   * @param  hpcd PCD handle
 873:Drivers/STM32F4xx_HAL_Driver/Src/stm32f4xx_hal_pcd.c ****   * @retval HAL status
 874:Drivers/STM32F4xx_HAL_Driver/Src/stm32f4xx_hal_pcd.c ****   */
 875:Drivers/STM32F4xx_HAL_Driver/Src/stm32f4xx_hal_pcd.c **** HAL_StatusTypeDef HAL_PCD_UnRegisterBcdCallback(PCD_HandleTypeDef *hpcd)
 876:Drivers/STM32F4xx_HAL_Driver/Src/stm32f4xx_hal_pcd.c **** {
 877:Drivers/STM32F4xx_HAL_Driver/Src/stm32f4xx_hal_pcd.c ****   HAL_StatusTypeDef status = HAL_OK;
 878:Drivers/STM32F4xx_HAL_Driver/Src/stm32f4xx_hal_pcd.c **** 
 879:Drivers/STM32F4xx_HAL_Driver/Src/stm32f4xx_hal_pcd.c ****   /* Process locked */
 880:Drivers/STM32F4xx_HAL_Driver/Src/stm32f4xx_hal_pcd.c ****   __HAL_LOCK(hpcd);
 881:Drivers/STM32F4xx_HAL_Driver/Src/stm32f4xx_hal_pcd.c **** 
 882:Drivers/STM32F4xx_HAL_Driver/Src/stm32f4xx_hal_pcd.c ****   if (hpcd->State == HAL_PCD_STATE_READY)
 883:Drivers/STM32F4xx_HAL_Driver/Src/stm32f4xx_hal_pcd.c ****   {
 884:Drivers/STM32F4xx_HAL_Driver/Src/stm32f4xx_hal_pcd.c ****     hpcd->BCDCallback = HAL_PCDEx_BCD_Callback; /* Legacy weak HAL_PCDEx_BCD_Callback  */
 885:Drivers/STM32F4xx_HAL_Driver/Src/stm32f4xx_hal_pcd.c ****   }
 886:Drivers/STM32F4xx_HAL_Driver/Src/stm32f4xx_hal_pcd.c ****   else
 887:Drivers/STM32F4xx_HAL_Driver/Src/stm32f4xx_hal_pcd.c ****   {
 888:Drivers/STM32F4xx_HAL_Driver/Src/stm32f4xx_hal_pcd.c ****     /* Update the error code */
 889:Drivers/STM32F4xx_HAL_Driver/Src/stm32f4xx_hal_pcd.c ****     hpcd->ErrorCode |= HAL_PCD_ERROR_INVALID_CALLBACK;
 890:Drivers/STM32F4xx_HAL_Driver/Src/stm32f4xx_hal_pcd.c **** 
 891:Drivers/STM32F4xx_HAL_Driver/Src/stm32f4xx_hal_pcd.c ****     /* Return error status */
 892:Drivers/STM32F4xx_HAL_Driver/Src/stm32f4xx_hal_pcd.c ****     status =  HAL_ERROR;
 893:Drivers/STM32F4xx_HAL_Driver/Src/stm32f4xx_hal_pcd.c ****   }
 894:Drivers/STM32F4xx_HAL_Driver/Src/stm32f4xx_hal_pcd.c **** 
 895:Drivers/STM32F4xx_HAL_Driver/Src/stm32f4xx_hal_pcd.c ****   /* Release Lock */
 896:Drivers/STM32F4xx_HAL_Driver/Src/stm32f4xx_hal_pcd.c ****   __HAL_UNLOCK(hpcd);
 897:Drivers/STM32F4xx_HAL_Driver/Src/stm32f4xx_hal_pcd.c **** 
 898:Drivers/STM32F4xx_HAL_Driver/Src/stm32f4xx_hal_pcd.c ****   return status;
 899:Drivers/STM32F4xx_HAL_Driver/Src/stm32f4xx_hal_pcd.c **** }
 900:Drivers/STM32F4xx_HAL_Driver/Src/stm32f4xx_hal_pcd.c **** 
 901:Drivers/STM32F4xx_HAL_Driver/Src/stm32f4xx_hal_pcd.c **** /**
 902:Drivers/STM32F4xx_HAL_Driver/Src/stm32f4xx_hal_pcd.c ****   * @brief  Register USB PCD LPM Callback
 903:Drivers/STM32F4xx_HAL_Driver/Src/stm32f4xx_hal_pcd.c ****   *         To be used instead of the weak HAL_PCDEx_LPM_Callback() predefined callback
 904:Drivers/STM32F4xx_HAL_Driver/Src/stm32f4xx_hal_pcd.c ****   * @param  hpcd PCD handle
 905:Drivers/STM32F4xx_HAL_Driver/Src/stm32f4xx_hal_pcd.c ****   * @param  pCallback pointer to the USB PCD LPM Callback function
 906:Drivers/STM32F4xx_HAL_Driver/Src/stm32f4xx_hal_pcd.c ****   * @retval HAL status
 907:Drivers/STM32F4xx_HAL_Driver/Src/stm32f4xx_hal_pcd.c ****   */
 908:Drivers/STM32F4xx_HAL_Driver/Src/stm32f4xx_hal_pcd.c **** HAL_StatusTypeDef HAL_PCD_RegisterLpmCallback(PCD_HandleTypeDef *hpcd, pPCD_LpmCallbackTypeDef pCal
 909:Drivers/STM32F4xx_HAL_Driver/Src/stm32f4xx_hal_pcd.c **** {
 910:Drivers/STM32F4xx_HAL_Driver/Src/stm32f4xx_hal_pcd.c ****   HAL_StatusTypeDef status = HAL_OK;
 911:Drivers/STM32F4xx_HAL_Driver/Src/stm32f4xx_hal_pcd.c **** 
 912:Drivers/STM32F4xx_HAL_Driver/Src/stm32f4xx_hal_pcd.c ****   if (pCallback == NULL)
 913:Drivers/STM32F4xx_HAL_Driver/Src/stm32f4xx_hal_pcd.c ****   {
 914:Drivers/STM32F4xx_HAL_Driver/Src/stm32f4xx_hal_pcd.c ****     /* Update the error code */
 915:Drivers/STM32F4xx_HAL_Driver/Src/stm32f4xx_hal_pcd.c ****     hpcd->ErrorCode |= HAL_PCD_ERROR_INVALID_CALLBACK;
 916:Drivers/STM32F4xx_HAL_Driver/Src/stm32f4xx_hal_pcd.c **** 
 917:Drivers/STM32F4xx_HAL_Driver/Src/stm32f4xx_hal_pcd.c ****     return HAL_ERROR;
 918:Drivers/STM32F4xx_HAL_Driver/Src/stm32f4xx_hal_pcd.c ****   }
 919:Drivers/STM32F4xx_HAL_Driver/Src/stm32f4xx_hal_pcd.c **** 
 920:Drivers/STM32F4xx_HAL_Driver/Src/stm32f4xx_hal_pcd.c ****   /* Process locked */
 921:Drivers/STM32F4xx_HAL_Driver/Src/stm32f4xx_hal_pcd.c ****   __HAL_LOCK(hpcd);
 922:Drivers/STM32F4xx_HAL_Driver/Src/stm32f4xx_hal_pcd.c **** 
 923:Drivers/STM32F4xx_HAL_Driver/Src/stm32f4xx_hal_pcd.c ****   if (hpcd->State == HAL_PCD_STATE_READY)
 924:Drivers/STM32F4xx_HAL_Driver/Src/stm32f4xx_hal_pcd.c ****   {
ARM GAS  /var/folders/vq/qt4vp3kd5rxf7v2b6_fdtdt80000gn/T//cc6xBrdC.s 			page 27


 925:Drivers/STM32F4xx_HAL_Driver/Src/stm32f4xx_hal_pcd.c ****     hpcd->LPMCallback = pCallback;
 926:Drivers/STM32F4xx_HAL_Driver/Src/stm32f4xx_hal_pcd.c ****   }
 927:Drivers/STM32F4xx_HAL_Driver/Src/stm32f4xx_hal_pcd.c ****   else
 928:Drivers/STM32F4xx_HAL_Driver/Src/stm32f4xx_hal_pcd.c ****   {
 929:Drivers/STM32F4xx_HAL_Driver/Src/stm32f4xx_hal_pcd.c ****     /* Update the error code */
 930:Drivers/STM32F4xx_HAL_Driver/Src/stm32f4xx_hal_pcd.c ****     hpcd->ErrorCode |= HAL_PCD_ERROR_INVALID_CALLBACK;
 931:Drivers/STM32F4xx_HAL_Driver/Src/stm32f4xx_hal_pcd.c **** 
 932:Drivers/STM32F4xx_HAL_Driver/Src/stm32f4xx_hal_pcd.c ****     /* Return error status */
 933:Drivers/STM32F4xx_HAL_Driver/Src/stm32f4xx_hal_pcd.c ****     status =  HAL_ERROR;
 934:Drivers/STM32F4xx_HAL_Driver/Src/stm32f4xx_hal_pcd.c ****   }
 935:Drivers/STM32F4xx_HAL_Driver/Src/stm32f4xx_hal_pcd.c **** 
 936:Drivers/STM32F4xx_HAL_Driver/Src/stm32f4xx_hal_pcd.c ****   /* Release Lock */
 937:Drivers/STM32F4xx_HAL_Driver/Src/stm32f4xx_hal_pcd.c ****   __HAL_UNLOCK(hpcd);
 938:Drivers/STM32F4xx_HAL_Driver/Src/stm32f4xx_hal_pcd.c **** 
 939:Drivers/STM32F4xx_HAL_Driver/Src/stm32f4xx_hal_pcd.c ****   return status;
 940:Drivers/STM32F4xx_HAL_Driver/Src/stm32f4xx_hal_pcd.c **** }
 941:Drivers/STM32F4xx_HAL_Driver/Src/stm32f4xx_hal_pcd.c **** 
 942:Drivers/STM32F4xx_HAL_Driver/Src/stm32f4xx_hal_pcd.c **** /**
 943:Drivers/STM32F4xx_HAL_Driver/Src/stm32f4xx_hal_pcd.c ****   * @brief  Unregister the USB PCD LPM Callback
 944:Drivers/STM32F4xx_HAL_Driver/Src/stm32f4xx_hal_pcd.c ****   *         USB LPM Callback is redirected to the weak HAL_PCDEx_LPM_Callback() predefined callback
 945:Drivers/STM32F4xx_HAL_Driver/Src/stm32f4xx_hal_pcd.c ****   * @param  hpcd PCD handle
 946:Drivers/STM32F4xx_HAL_Driver/Src/stm32f4xx_hal_pcd.c ****   * @retval HAL status
 947:Drivers/STM32F4xx_HAL_Driver/Src/stm32f4xx_hal_pcd.c ****   */
 948:Drivers/STM32F4xx_HAL_Driver/Src/stm32f4xx_hal_pcd.c **** HAL_StatusTypeDef HAL_PCD_UnRegisterLpmCallback(PCD_HandleTypeDef *hpcd)
 949:Drivers/STM32F4xx_HAL_Driver/Src/stm32f4xx_hal_pcd.c **** {
 950:Drivers/STM32F4xx_HAL_Driver/Src/stm32f4xx_hal_pcd.c ****   HAL_StatusTypeDef status = HAL_OK;
 951:Drivers/STM32F4xx_HAL_Driver/Src/stm32f4xx_hal_pcd.c **** 
 952:Drivers/STM32F4xx_HAL_Driver/Src/stm32f4xx_hal_pcd.c ****   /* Process locked */
 953:Drivers/STM32F4xx_HAL_Driver/Src/stm32f4xx_hal_pcd.c ****   __HAL_LOCK(hpcd);
 954:Drivers/STM32F4xx_HAL_Driver/Src/stm32f4xx_hal_pcd.c **** 
 955:Drivers/STM32F4xx_HAL_Driver/Src/stm32f4xx_hal_pcd.c ****   if (hpcd->State == HAL_PCD_STATE_READY)
 956:Drivers/STM32F4xx_HAL_Driver/Src/stm32f4xx_hal_pcd.c ****   {
 957:Drivers/STM32F4xx_HAL_Driver/Src/stm32f4xx_hal_pcd.c ****     hpcd->LPMCallback = HAL_PCDEx_LPM_Callback; /* Legacy weak HAL_PCDEx_LPM_Callback  */
 958:Drivers/STM32F4xx_HAL_Driver/Src/stm32f4xx_hal_pcd.c ****   }
 959:Drivers/STM32F4xx_HAL_Driver/Src/stm32f4xx_hal_pcd.c ****   else
 960:Drivers/STM32F4xx_HAL_Driver/Src/stm32f4xx_hal_pcd.c ****   {
 961:Drivers/STM32F4xx_HAL_Driver/Src/stm32f4xx_hal_pcd.c ****     /* Update the error code */
 962:Drivers/STM32F4xx_HAL_Driver/Src/stm32f4xx_hal_pcd.c ****     hpcd->ErrorCode |= HAL_PCD_ERROR_INVALID_CALLBACK;
 963:Drivers/STM32F4xx_HAL_Driver/Src/stm32f4xx_hal_pcd.c **** 
 964:Drivers/STM32F4xx_HAL_Driver/Src/stm32f4xx_hal_pcd.c ****     /* Return error status */
 965:Drivers/STM32F4xx_HAL_Driver/Src/stm32f4xx_hal_pcd.c ****     status =  HAL_ERROR;
 966:Drivers/STM32F4xx_HAL_Driver/Src/stm32f4xx_hal_pcd.c ****   }
 967:Drivers/STM32F4xx_HAL_Driver/Src/stm32f4xx_hal_pcd.c **** 
 968:Drivers/STM32F4xx_HAL_Driver/Src/stm32f4xx_hal_pcd.c ****   /* Release Lock */
 969:Drivers/STM32F4xx_HAL_Driver/Src/stm32f4xx_hal_pcd.c ****   __HAL_UNLOCK(hpcd);
 970:Drivers/STM32F4xx_HAL_Driver/Src/stm32f4xx_hal_pcd.c **** 
 971:Drivers/STM32F4xx_HAL_Driver/Src/stm32f4xx_hal_pcd.c ****   return status;
 972:Drivers/STM32F4xx_HAL_Driver/Src/stm32f4xx_hal_pcd.c **** }
 973:Drivers/STM32F4xx_HAL_Driver/Src/stm32f4xx_hal_pcd.c **** #endif /* USE_HAL_PCD_REGISTER_CALLBACKS */
 974:Drivers/STM32F4xx_HAL_Driver/Src/stm32f4xx_hal_pcd.c **** 
 975:Drivers/STM32F4xx_HAL_Driver/Src/stm32f4xx_hal_pcd.c **** /**
 976:Drivers/STM32F4xx_HAL_Driver/Src/stm32f4xx_hal_pcd.c ****   * @}
 977:Drivers/STM32F4xx_HAL_Driver/Src/stm32f4xx_hal_pcd.c ****   */
 978:Drivers/STM32F4xx_HAL_Driver/Src/stm32f4xx_hal_pcd.c **** 
 979:Drivers/STM32F4xx_HAL_Driver/Src/stm32f4xx_hal_pcd.c **** /** @defgroup PCD_Exported_Functions_Group2 Input and Output operation functions
 980:Drivers/STM32F4xx_HAL_Driver/Src/stm32f4xx_hal_pcd.c ****   *  @brief   Data transfers functions
 981:Drivers/STM32F4xx_HAL_Driver/Src/stm32f4xx_hal_pcd.c ****   *
ARM GAS  /var/folders/vq/qt4vp3kd5rxf7v2b6_fdtdt80000gn/T//cc6xBrdC.s 			page 28


 982:Drivers/STM32F4xx_HAL_Driver/Src/stm32f4xx_hal_pcd.c **** @verbatim
 983:Drivers/STM32F4xx_HAL_Driver/Src/stm32f4xx_hal_pcd.c ****  ===============================================================================
 984:Drivers/STM32F4xx_HAL_Driver/Src/stm32f4xx_hal_pcd.c ****                       ##### IO operation functions #####
 985:Drivers/STM32F4xx_HAL_Driver/Src/stm32f4xx_hal_pcd.c ****  ===============================================================================
 986:Drivers/STM32F4xx_HAL_Driver/Src/stm32f4xx_hal_pcd.c ****     [..]
 987:Drivers/STM32F4xx_HAL_Driver/Src/stm32f4xx_hal_pcd.c ****     This subsection provides a set of functions allowing to manage the PCD data
 988:Drivers/STM32F4xx_HAL_Driver/Src/stm32f4xx_hal_pcd.c ****     transfers.
 989:Drivers/STM32F4xx_HAL_Driver/Src/stm32f4xx_hal_pcd.c **** 
 990:Drivers/STM32F4xx_HAL_Driver/Src/stm32f4xx_hal_pcd.c **** @endverbatim
 991:Drivers/STM32F4xx_HAL_Driver/Src/stm32f4xx_hal_pcd.c ****   * @{
 992:Drivers/STM32F4xx_HAL_Driver/Src/stm32f4xx_hal_pcd.c ****   */
 993:Drivers/STM32F4xx_HAL_Driver/Src/stm32f4xx_hal_pcd.c **** 
 994:Drivers/STM32F4xx_HAL_Driver/Src/stm32f4xx_hal_pcd.c **** /**
 995:Drivers/STM32F4xx_HAL_Driver/Src/stm32f4xx_hal_pcd.c ****   * @brief  Start the USB device
 996:Drivers/STM32F4xx_HAL_Driver/Src/stm32f4xx_hal_pcd.c ****   * @param  hpcd PCD handle
 997:Drivers/STM32F4xx_HAL_Driver/Src/stm32f4xx_hal_pcd.c ****   * @retval HAL status
 998:Drivers/STM32F4xx_HAL_Driver/Src/stm32f4xx_hal_pcd.c ****   */
 999:Drivers/STM32F4xx_HAL_Driver/Src/stm32f4xx_hal_pcd.c **** HAL_StatusTypeDef HAL_PCD_Start(PCD_HandleTypeDef *hpcd)
1000:Drivers/STM32F4xx_HAL_Driver/Src/stm32f4xx_hal_pcd.c **** {
 560              		.loc 1 1000 1
 561              		.cfi_startproc
 562              		@ args = 0, pretend = 0, frame = 16
 563              		@ frame_needed = 1, uses_anonymous_args = 0
 564 0000 80B5     		push	{r7, lr}
 565              	.LCFI22:
 566              		.cfi_def_cfa_offset 8
 567              		.cfi_offset 7, -8
 568              		.cfi_offset 14, -4
 569 0002 84B0     		sub	sp, sp, #16
 570              	.LCFI23:
 571              		.cfi_def_cfa_offset 24
 572 0004 00AF     		add	r7, sp, #0
 573              	.LCFI24:
 574              		.cfi_def_cfa_register 7
 575 0006 7860     		str	r0, [r7, #4]
1001:Drivers/STM32F4xx_HAL_Driver/Src/stm32f4xx_hal_pcd.c ****   USB_OTG_GlobalTypeDef *USBx = hpcd->Instance;
 576              		.loc 1 1001 26
 577 0008 7B68     		ldr	r3, [r7, #4]
 578 000a 1B68     		ldr	r3, [r3]
 579 000c FB60     		str	r3, [r7, #12]
1002:Drivers/STM32F4xx_HAL_Driver/Src/stm32f4xx_hal_pcd.c **** 
1003:Drivers/STM32F4xx_HAL_Driver/Src/stm32f4xx_hal_pcd.c ****   __HAL_LOCK(hpcd);
 580              		.loc 1 1003 3
 581 000e 7B68     		ldr	r3, [r7, #4]
 582 0010 93F8BC33 		ldrb	r3, [r3, #956]	@ zero_extendqisi2
 583 0014 012B     		cmp	r3, #1
 584 0016 01D1     		bne	.L19
 585              		.loc 1 1003 3 is_stmt 0 discriminator 1
 586 0018 0223     		movs	r3, #2
 587 001a 20E0     		b	.L20
 588              	.L19:
 589              		.loc 1 1003 3 discriminator 2
 590 001c 7B68     		ldr	r3, [r7, #4]
 591 001e 0122     		movs	r2, #1
 592 0020 83F8BC23 		strb	r2, [r3, #956]
1004:Drivers/STM32F4xx_HAL_Driver/Src/stm32f4xx_hal_pcd.c **** 
1005:Drivers/STM32F4xx_HAL_Driver/Src/stm32f4xx_hal_pcd.c ****   if ((hpcd->Init.battery_charging_enable == 1U) &&
ARM GAS  /var/folders/vq/qt4vp3kd5rxf7v2b6_fdtdt80000gn/T//cc6xBrdC.s 			page 29


 593              		.loc 1 1005 18 is_stmt 1 discriminator 2
 594 0024 7B68     		ldr	r3, [r7, #4]
 595 0026 9B6A     		ldr	r3, [r3, #40]
 596              		.loc 1 1005 6 discriminator 2
 597 0028 012B     		cmp	r3, #1
 598 002a 09D1     		bne	.L21
1006:Drivers/STM32F4xx_HAL_Driver/Src/stm32f4xx_hal_pcd.c ****       (hpcd->Init.phy_itface != USB_OTG_ULPI_PHY))
 599              		.loc 1 1006 18 discriminator 1
 600 002c 7B68     		ldr	r3, [r7, #4]
 601 002e 9B69     		ldr	r3, [r3, #24]
1005:Drivers/STM32F4xx_HAL_Driver/Src/stm32f4xx_hal_pcd.c ****       (hpcd->Init.phy_itface != USB_OTG_ULPI_PHY))
 602              		.loc 1 1005 50 discriminator 1
 603 0030 012B     		cmp	r3, #1
 604 0032 05D0     		beq	.L21
1007:Drivers/STM32F4xx_HAL_Driver/Src/stm32f4xx_hal_pcd.c ****   {
1008:Drivers/STM32F4xx_HAL_Driver/Src/stm32f4xx_hal_pcd.c ****     /* Enable USB Transceiver */
1009:Drivers/STM32F4xx_HAL_Driver/Src/stm32f4xx_hal_pcd.c ****     USBx->GCCFG |= USB_OTG_GCCFG_PWRDWN;
 605              		.loc 1 1009 17
 606 0034 FB68     		ldr	r3, [r7, #12]
 607 0036 9B6B     		ldr	r3, [r3, #56]
 608 0038 43F48032 		orr	r2, r3, #65536
 609 003c FB68     		ldr	r3, [r7, #12]
 610 003e 9A63     		str	r2, [r3, #56]
 611              	.L21:
1010:Drivers/STM32F4xx_HAL_Driver/Src/stm32f4xx_hal_pcd.c ****   }
1011:Drivers/STM32F4xx_HAL_Driver/Src/stm32f4xx_hal_pcd.c **** 
1012:Drivers/STM32F4xx_HAL_Driver/Src/stm32f4xx_hal_pcd.c ****   __HAL_PCD_ENABLE(hpcd);
 612              		.loc 1 1012 3
 613 0040 7B68     		ldr	r3, [r7, #4]
 614 0042 1B68     		ldr	r3, [r3]
 615 0044 1846     		mov	r0, r3
 616 0046 FFF7FEFF 		bl	USB_EnableGlobalInt
1013:Drivers/STM32F4xx_HAL_Driver/Src/stm32f4xx_hal_pcd.c ****   (void)USB_DevConnect(hpcd->Instance);
 617              		.loc 1 1013 28
 618 004a 7B68     		ldr	r3, [r7, #4]
 619 004c 1B68     		ldr	r3, [r3]
 620              		.loc 1 1013 9
 621 004e 1846     		mov	r0, r3
 622 0050 FFF7FEFF 		bl	USB_DevConnect
1014:Drivers/STM32F4xx_HAL_Driver/Src/stm32f4xx_hal_pcd.c ****   __HAL_UNLOCK(hpcd);
 623              		.loc 1 1014 3
 624 0054 7B68     		ldr	r3, [r7, #4]
 625 0056 0022     		movs	r2, #0
 626 0058 83F8BC23 		strb	r2, [r3, #956]
1015:Drivers/STM32F4xx_HAL_Driver/Src/stm32f4xx_hal_pcd.c **** 
1016:Drivers/STM32F4xx_HAL_Driver/Src/stm32f4xx_hal_pcd.c ****   return HAL_OK;
 627              		.loc 1 1016 10
 628 005c 0023     		movs	r3, #0
 629              	.L20:
1017:Drivers/STM32F4xx_HAL_Driver/Src/stm32f4xx_hal_pcd.c **** }
 630              		.loc 1 1017 1
 631 005e 1846     		mov	r0, r3
 632 0060 1037     		adds	r7, r7, #16
 633              	.LCFI25:
 634              		.cfi_def_cfa_offset 8
 635 0062 BD46     		mov	sp, r7
 636              	.LCFI26:
ARM GAS  /var/folders/vq/qt4vp3kd5rxf7v2b6_fdtdt80000gn/T//cc6xBrdC.s 			page 30


 637              		.cfi_def_cfa_register 13
 638              		@ sp needed
 639 0064 80BD     		pop	{r7, pc}
 640              		.cfi_endproc
 641              	.LFE134:
 643              		.section	.text.HAL_PCD_Stop,"ax",%progbits
 644              		.align	1
 645              		.global	HAL_PCD_Stop
 646              		.syntax unified
 647              		.thumb
 648              		.thumb_func
 649              		.fpu fpv4-sp-d16
 651              	HAL_PCD_Stop:
 652              	.LFB135:
1018:Drivers/STM32F4xx_HAL_Driver/Src/stm32f4xx_hal_pcd.c **** 
1019:Drivers/STM32F4xx_HAL_Driver/Src/stm32f4xx_hal_pcd.c **** /**
1020:Drivers/STM32F4xx_HAL_Driver/Src/stm32f4xx_hal_pcd.c ****   * @brief  Stop the USB device.
1021:Drivers/STM32F4xx_HAL_Driver/Src/stm32f4xx_hal_pcd.c ****   * @param  hpcd PCD handle
1022:Drivers/STM32F4xx_HAL_Driver/Src/stm32f4xx_hal_pcd.c ****   * @retval HAL status
1023:Drivers/STM32F4xx_HAL_Driver/Src/stm32f4xx_hal_pcd.c ****   */
1024:Drivers/STM32F4xx_HAL_Driver/Src/stm32f4xx_hal_pcd.c **** HAL_StatusTypeDef HAL_PCD_Stop(PCD_HandleTypeDef *hpcd)
1025:Drivers/STM32F4xx_HAL_Driver/Src/stm32f4xx_hal_pcd.c **** {
 653              		.loc 1 1025 1
 654              		.cfi_startproc
 655              		@ args = 0, pretend = 0, frame = 16
 656              		@ frame_needed = 1, uses_anonymous_args = 0
 657 0000 80B5     		push	{r7, lr}
 658              	.LCFI27:
 659              		.cfi_def_cfa_offset 8
 660              		.cfi_offset 7, -8
 661              		.cfi_offset 14, -4
 662 0002 84B0     		sub	sp, sp, #16
 663              	.LCFI28:
 664              		.cfi_def_cfa_offset 24
 665 0004 00AF     		add	r7, sp, #0
 666              	.LCFI29:
 667              		.cfi_def_cfa_register 7
 668 0006 7860     		str	r0, [r7, #4]
1026:Drivers/STM32F4xx_HAL_Driver/Src/stm32f4xx_hal_pcd.c ****   USB_OTG_GlobalTypeDef *USBx = hpcd->Instance;
 669              		.loc 1 1026 26
 670 0008 7B68     		ldr	r3, [r7, #4]
 671 000a 1B68     		ldr	r3, [r3]
 672 000c FB60     		str	r3, [r7, #12]
1027:Drivers/STM32F4xx_HAL_Driver/Src/stm32f4xx_hal_pcd.c **** 
1028:Drivers/STM32F4xx_HAL_Driver/Src/stm32f4xx_hal_pcd.c ****   __HAL_LOCK(hpcd);
 673              		.loc 1 1028 3
 674 000e 7B68     		ldr	r3, [r7, #4]
 675 0010 93F8BC33 		ldrb	r3, [r3, #956]	@ zero_extendqisi2
 676 0014 012B     		cmp	r3, #1
 677 0016 01D1     		bne	.L23
 678              		.loc 1 1028 3 is_stmt 0 discriminator 1
 679 0018 0223     		movs	r3, #2
 680 001a 26E0     		b	.L24
 681              	.L23:
 682              		.loc 1 1028 3 discriminator 2
 683 001c 7B68     		ldr	r3, [r7, #4]
 684 001e 0122     		movs	r2, #1
ARM GAS  /var/folders/vq/qt4vp3kd5rxf7v2b6_fdtdt80000gn/T//cc6xBrdC.s 			page 31


 685 0020 83F8BC23 		strb	r2, [r3, #956]
1029:Drivers/STM32F4xx_HAL_Driver/Src/stm32f4xx_hal_pcd.c ****   __HAL_PCD_DISABLE(hpcd);
 686              		.loc 1 1029 3 is_stmt 1 discriminator 2
 687 0024 7B68     		ldr	r3, [r7, #4]
 688 0026 1B68     		ldr	r3, [r3]
 689 0028 1846     		mov	r0, r3
 690 002a FFF7FEFF 		bl	USB_DisableGlobalInt
1030:Drivers/STM32F4xx_HAL_Driver/Src/stm32f4xx_hal_pcd.c ****   (void)USB_DevDisconnect(hpcd->Instance);
 691              		.loc 1 1030 31 discriminator 2
 692 002e 7B68     		ldr	r3, [r7, #4]
 693 0030 1B68     		ldr	r3, [r3]
 694              		.loc 1 1030 9 discriminator 2
 695 0032 1846     		mov	r0, r3
 696 0034 FFF7FEFF 		bl	USB_DevDisconnect
1031:Drivers/STM32F4xx_HAL_Driver/Src/stm32f4xx_hal_pcd.c **** 
1032:Drivers/STM32F4xx_HAL_Driver/Src/stm32f4xx_hal_pcd.c ****   (void)USB_FlushTxFifo(hpcd->Instance, 0x10U);
 697              		.loc 1 1032 29 discriminator 2
 698 0038 7B68     		ldr	r3, [r7, #4]
 699 003a 1B68     		ldr	r3, [r3]
 700              		.loc 1 1032 9 discriminator 2
 701 003c 1021     		movs	r1, #16
 702 003e 1846     		mov	r0, r3
 703 0040 FFF7FEFF 		bl	USB_FlushTxFifo
1033:Drivers/STM32F4xx_HAL_Driver/Src/stm32f4xx_hal_pcd.c **** 
1034:Drivers/STM32F4xx_HAL_Driver/Src/stm32f4xx_hal_pcd.c ****   if ((hpcd->Init.battery_charging_enable == 1U) &&
 704              		.loc 1 1034 18 discriminator 2
 705 0044 7B68     		ldr	r3, [r7, #4]
 706 0046 9B6A     		ldr	r3, [r3, #40]
 707              		.loc 1 1034 6 discriminator 2
 708 0048 012B     		cmp	r3, #1
 709 004a 09D1     		bne	.L25
1035:Drivers/STM32F4xx_HAL_Driver/Src/stm32f4xx_hal_pcd.c ****       (hpcd->Init.phy_itface != USB_OTG_ULPI_PHY))
 710              		.loc 1 1035 18 discriminator 1
 711 004c 7B68     		ldr	r3, [r7, #4]
 712 004e 9B69     		ldr	r3, [r3, #24]
1034:Drivers/STM32F4xx_HAL_Driver/Src/stm32f4xx_hal_pcd.c ****       (hpcd->Init.phy_itface != USB_OTG_ULPI_PHY))
 713              		.loc 1 1034 50 discriminator 1
 714 0050 012B     		cmp	r3, #1
 715 0052 05D0     		beq	.L25
1036:Drivers/STM32F4xx_HAL_Driver/Src/stm32f4xx_hal_pcd.c ****   {
1037:Drivers/STM32F4xx_HAL_Driver/Src/stm32f4xx_hal_pcd.c ****     /* Disable USB Transceiver */
1038:Drivers/STM32F4xx_HAL_Driver/Src/stm32f4xx_hal_pcd.c ****     USBx->GCCFG &= ~(USB_OTG_GCCFG_PWRDWN);
 716              		.loc 1 1038 17
 717 0054 FB68     		ldr	r3, [r7, #12]
 718 0056 9B6B     		ldr	r3, [r3, #56]
 719 0058 23F48032 		bic	r2, r3, #65536
 720 005c FB68     		ldr	r3, [r7, #12]
 721 005e 9A63     		str	r2, [r3, #56]
 722              	.L25:
1039:Drivers/STM32F4xx_HAL_Driver/Src/stm32f4xx_hal_pcd.c ****   }
1040:Drivers/STM32F4xx_HAL_Driver/Src/stm32f4xx_hal_pcd.c ****   __HAL_UNLOCK(hpcd);
 723              		.loc 1 1040 3
 724 0060 7B68     		ldr	r3, [r7, #4]
 725 0062 0022     		movs	r2, #0
 726 0064 83F8BC23 		strb	r2, [r3, #956]
1041:Drivers/STM32F4xx_HAL_Driver/Src/stm32f4xx_hal_pcd.c **** 
1042:Drivers/STM32F4xx_HAL_Driver/Src/stm32f4xx_hal_pcd.c ****   return HAL_OK;
ARM GAS  /var/folders/vq/qt4vp3kd5rxf7v2b6_fdtdt80000gn/T//cc6xBrdC.s 			page 32


 727              		.loc 1 1042 10
 728 0068 0023     		movs	r3, #0
 729              	.L24:
1043:Drivers/STM32F4xx_HAL_Driver/Src/stm32f4xx_hal_pcd.c **** }
 730              		.loc 1 1043 1
 731 006a 1846     		mov	r0, r3
 732 006c 1037     		adds	r7, r7, #16
 733              	.LCFI30:
 734              		.cfi_def_cfa_offset 8
 735 006e BD46     		mov	sp, r7
 736              	.LCFI31:
 737              		.cfi_def_cfa_register 13
 738              		@ sp needed
 739 0070 80BD     		pop	{r7, pc}
 740              		.cfi_endproc
 741              	.LFE135:
 743              		.section	.text.HAL_PCD_IRQHandler,"ax",%progbits
 744              		.align	1
 745              		.global	HAL_PCD_IRQHandler
 746              		.syntax unified
 747              		.thumb
 748              		.thumb_func
 749              		.fpu fpv4-sp-d16
 751              	HAL_PCD_IRQHandler:
 752              	.LFB136:
1044:Drivers/STM32F4xx_HAL_Driver/Src/stm32f4xx_hal_pcd.c **** 
1045:Drivers/STM32F4xx_HAL_Driver/Src/stm32f4xx_hal_pcd.c **** #if defined (USB_OTG_FS) || defined (USB_OTG_HS)
1046:Drivers/STM32F4xx_HAL_Driver/Src/stm32f4xx_hal_pcd.c **** /**
1047:Drivers/STM32F4xx_HAL_Driver/Src/stm32f4xx_hal_pcd.c ****   * @brief  Handles PCD interrupt request.
1048:Drivers/STM32F4xx_HAL_Driver/Src/stm32f4xx_hal_pcd.c ****   * @param  hpcd PCD handle
1049:Drivers/STM32F4xx_HAL_Driver/Src/stm32f4xx_hal_pcd.c ****   * @retval HAL status
1050:Drivers/STM32F4xx_HAL_Driver/Src/stm32f4xx_hal_pcd.c ****   */
1051:Drivers/STM32F4xx_HAL_Driver/Src/stm32f4xx_hal_pcd.c **** void HAL_PCD_IRQHandler(PCD_HandleTypeDef *hpcd)
1052:Drivers/STM32F4xx_HAL_Driver/Src/stm32f4xx_hal_pcd.c **** {
 753              		.loc 1 1052 1
 754              		.cfi_startproc
 755              		@ args = 0, pretend = 0, frame = 48
 756              		@ frame_needed = 1, uses_anonymous_args = 0
 757 0000 90B5     		push	{r4, r7, lr}
 758              	.LCFI32:
 759              		.cfi_def_cfa_offset 12
 760              		.cfi_offset 4, -12
 761              		.cfi_offset 7, -8
 762              		.cfi_offset 14, -4
 763 0002 8DB0     		sub	sp, sp, #52
 764              	.LCFI33:
 765              		.cfi_def_cfa_offset 64
 766 0004 00AF     		add	r7, sp, #0
 767              	.LCFI34:
 768              		.cfi_def_cfa_register 7
 769 0006 7860     		str	r0, [r7, #4]
1053:Drivers/STM32F4xx_HAL_Driver/Src/stm32f4xx_hal_pcd.c ****   USB_OTG_GlobalTypeDef *USBx = hpcd->Instance;
 770              		.loc 1 1053 26
 771 0008 7B68     		ldr	r3, [r7, #4]
 772 000a 1B68     		ldr	r3, [r3]
 773 000c 3B62     		str	r3, [r7, #32]
1054:Drivers/STM32F4xx_HAL_Driver/Src/stm32f4xx_hal_pcd.c ****   uint32_t USBx_BASE = (uint32_t)USBx;
ARM GAS  /var/folders/vq/qt4vp3kd5rxf7v2b6_fdtdt80000gn/T//cc6xBrdC.s 			page 33


 774              		.loc 1 1054 12
 775 000e 3B6A     		ldr	r3, [r7, #32]
 776 0010 FB61     		str	r3, [r7, #28]
1055:Drivers/STM32F4xx_HAL_Driver/Src/stm32f4xx_hal_pcd.c ****   uint32_t i, ep_intr, epint, epnum;
1056:Drivers/STM32F4xx_HAL_Driver/Src/stm32f4xx_hal_pcd.c ****   uint32_t fifoemptymsk, temp;
1057:Drivers/STM32F4xx_HAL_Driver/Src/stm32f4xx_hal_pcd.c ****   USB_OTG_EPTypeDef *ep;
1058:Drivers/STM32F4xx_HAL_Driver/Src/stm32f4xx_hal_pcd.c **** 
1059:Drivers/STM32F4xx_HAL_Driver/Src/stm32f4xx_hal_pcd.c ****   /* ensure that we are in device mode */
1060:Drivers/STM32F4xx_HAL_Driver/Src/stm32f4xx_hal_pcd.c ****   if (USB_GetMode(hpcd->Instance) == USB_OTG_MODE_DEVICE)
 777              		.loc 1 1060 23
 778 0012 7B68     		ldr	r3, [r7, #4]
 779 0014 1B68     		ldr	r3, [r3]
 780              		.loc 1 1060 7
 781 0016 1846     		mov	r0, r3
 782 0018 FFF7FEFF 		bl	USB_GetMode
 783 001c 0346     		mov	r3, r0
 784              		.loc 1 1060 6
 785 001e 002B     		cmp	r3, #0
 786 0020 40F09D83 		bne	.L26
1061:Drivers/STM32F4xx_HAL_Driver/Src/stm32f4xx_hal_pcd.c ****   {
1062:Drivers/STM32F4xx_HAL_Driver/Src/stm32f4xx_hal_pcd.c ****     /* avoid spurious interrupt */
1063:Drivers/STM32F4xx_HAL_Driver/Src/stm32f4xx_hal_pcd.c ****     if (__HAL_PCD_IS_INVALID_INTERRUPT(hpcd))
 787              		.loc 1 1063 9
 788 0024 7B68     		ldr	r3, [r7, #4]
 789 0026 1B68     		ldr	r3, [r3]
 790 0028 1846     		mov	r0, r3
 791 002a FFF7FEFF 		bl	USB_ReadInterrupts
 792 002e 0346     		mov	r3, r0
 793              		.loc 1 1063 8
 794 0030 002B     		cmp	r3, #0
 795 0032 00F09383 		beq	.L67
1064:Drivers/STM32F4xx_HAL_Driver/Src/stm32f4xx_hal_pcd.c ****     {
1065:Drivers/STM32F4xx_HAL_Driver/Src/stm32f4xx_hal_pcd.c ****       return;
1066:Drivers/STM32F4xx_HAL_Driver/Src/stm32f4xx_hal_pcd.c ****     }
1067:Drivers/STM32F4xx_HAL_Driver/Src/stm32f4xx_hal_pcd.c **** 
1068:Drivers/STM32F4xx_HAL_Driver/Src/stm32f4xx_hal_pcd.c ****     if (__HAL_PCD_GET_FLAG(hpcd, USB_OTG_GINTSTS_MMIS))
 796              		.loc 1 1068 9
 797 0036 7B68     		ldr	r3, [r7, #4]
 798 0038 1B68     		ldr	r3, [r3]
 799 003a 1846     		mov	r0, r3
 800 003c FFF7FEFF 		bl	USB_ReadInterrupts
 801 0040 0346     		mov	r3, r0
 802 0042 03F00203 		and	r3, r3, #2
 803              		.loc 1 1068 8
 804 0046 022B     		cmp	r3, #2
 805 0048 07D1     		bne	.L29
1069:Drivers/STM32F4xx_HAL_Driver/Src/stm32f4xx_hal_pcd.c ****     {
1070:Drivers/STM32F4xx_HAL_Driver/Src/stm32f4xx_hal_pcd.c ****       /* incorrect mode, acknowledge the interrupt */
1071:Drivers/STM32F4xx_HAL_Driver/Src/stm32f4xx_hal_pcd.c ****       __HAL_PCD_CLEAR_FLAG(hpcd, USB_OTG_GINTSTS_MMIS);
 806              		.loc 1 1071 7
 807 004a 7B68     		ldr	r3, [r7, #4]
 808 004c 1B68     		ldr	r3, [r3]
 809 004e 5A69     		ldr	r2, [r3, #20]
 810 0050 7B68     		ldr	r3, [r7, #4]
 811 0052 1B68     		ldr	r3, [r3]
 812 0054 02F00202 		and	r2, r2, #2
 813 0058 5A61     		str	r2, [r3, #20]
ARM GAS  /var/folders/vq/qt4vp3kd5rxf7v2b6_fdtdt80000gn/T//cc6xBrdC.s 			page 34


 814              	.L29:
1072:Drivers/STM32F4xx_HAL_Driver/Src/stm32f4xx_hal_pcd.c ****     }
1073:Drivers/STM32F4xx_HAL_Driver/Src/stm32f4xx_hal_pcd.c **** 
1074:Drivers/STM32F4xx_HAL_Driver/Src/stm32f4xx_hal_pcd.c ****     /* Handle RxQLevel Interrupt */
1075:Drivers/STM32F4xx_HAL_Driver/Src/stm32f4xx_hal_pcd.c ****     if (__HAL_PCD_GET_FLAG(hpcd, USB_OTG_GINTSTS_RXFLVL))
 815              		.loc 1 1075 9
 816 005a 7B68     		ldr	r3, [r7, #4]
 817 005c 1B68     		ldr	r3, [r3]
 818 005e 1846     		mov	r0, r3
 819 0060 FFF7FEFF 		bl	USB_ReadInterrupts
 820 0064 0346     		mov	r3, r0
 821 0066 03F01003 		and	r3, r3, #16
 822              		.loc 1 1075 8
 823 006a 102B     		cmp	r3, #16
 824 006c 61D1     		bne	.L30
1076:Drivers/STM32F4xx_HAL_Driver/Src/stm32f4xx_hal_pcd.c ****     {
1077:Drivers/STM32F4xx_HAL_Driver/Src/stm32f4xx_hal_pcd.c ****       USB_MASK_INTERRUPT(hpcd->Instance, USB_OTG_GINTSTS_RXFLVL);
 825              		.loc 1 1077 7
 826 006e 7B68     		ldr	r3, [r7, #4]
 827 0070 1B68     		ldr	r3, [r3]
 828 0072 9A69     		ldr	r2, [r3, #24]
 829 0074 7B68     		ldr	r3, [r7, #4]
 830 0076 1B68     		ldr	r3, [r3]
 831 0078 22F01002 		bic	r2, r2, #16
 832 007c 9A61     		str	r2, [r3, #24]
1078:Drivers/STM32F4xx_HAL_Driver/Src/stm32f4xx_hal_pcd.c **** 
1079:Drivers/STM32F4xx_HAL_Driver/Src/stm32f4xx_hal_pcd.c ****       temp = USBx->GRXSTSP;
 833              		.loc 1 1079 12
 834 007e 3B6A     		ldr	r3, [r7, #32]
 835 0080 1B6A     		ldr	r3, [r3, #32]
 836 0082 BB61     		str	r3, [r7, #24]
1080:Drivers/STM32F4xx_HAL_Driver/Src/stm32f4xx_hal_pcd.c **** 
1081:Drivers/STM32F4xx_HAL_Driver/Src/stm32f4xx_hal_pcd.c ****       ep = &hpcd->OUT_ep[temp & USB_OTG_GRXSTSP_EPNUM];
 837              		.loc 1 1081 31
 838 0084 BB69     		ldr	r3, [r7, #24]
 839 0086 03F00F02 		and	r2, r3, #15
 840              		.loc 1 1081 10
 841 008a 1346     		mov	r3, r2
 842 008c DB00     		lsls	r3, r3, #3
 843 008e 9B1A     		subs	r3, r3, r2
 844 0090 9B00     		lsls	r3, r3, #2
 845 0092 03F5FC73 		add	r3, r3, #504
 846 0096 7A68     		ldr	r2, [r7, #4]
 847 0098 1344     		add	r3, r3, r2
 848 009a 0433     		adds	r3, r3, #4
 849 009c 7B61     		str	r3, [r7, #20]
1082:Drivers/STM32F4xx_HAL_Driver/Src/stm32f4xx_hal_pcd.c **** 
1083:Drivers/STM32F4xx_HAL_Driver/Src/stm32f4xx_hal_pcd.c ****       if (((temp & USB_OTG_GRXSTSP_PKTSTS) >> 17) ==  STS_DATA_UPDT)
 850              		.loc 1 1083 44
 851 009e BB69     		ldr	r3, [r7, #24]
 852 00a0 5B0C     		lsrs	r3, r3, #17
 853 00a2 03F00F03 		and	r3, r3, #15
 854              		.loc 1 1083 10
 855 00a6 022B     		cmp	r3, #2
 856 00a8 24D1     		bne	.L31
1084:Drivers/STM32F4xx_HAL_Driver/Src/stm32f4xx_hal_pcd.c ****       {
1085:Drivers/STM32F4xx_HAL_Driver/Src/stm32f4xx_hal_pcd.c ****         if ((temp & USB_OTG_GRXSTSP_BCNT) != 0U)
ARM GAS  /var/folders/vq/qt4vp3kd5rxf7v2b6_fdtdt80000gn/T//cc6xBrdC.s 			page 35


 857              		.loc 1 1085 19
 858 00aa BA69     		ldr	r2, [r7, #24]
 859 00ac 47F6F073 		movw	r3, #32752
 860 00b0 1340     		ands	r3, r3, r2
 861              		.loc 1 1085 12
 862 00b2 002B     		cmp	r3, #0
 863 00b4 35D0     		beq	.L32
1086:Drivers/STM32F4xx_HAL_Driver/Src/stm32f4xx_hal_pcd.c ****         {
1087:Drivers/STM32F4xx_HAL_Driver/Src/stm32f4xx_hal_pcd.c ****           (void)USB_ReadPacket(USBx, ep->xfer_buff,
 864              		.loc 1 1087 17
 865 00b6 7B69     		ldr	r3, [r7, #20]
 866 00b8 D968     		ldr	r1, [r3, #12]
1088:Drivers/STM32F4xx_HAL_Driver/Src/stm32f4xx_hal_pcd.c ****                                (uint16_t)((temp & USB_OTG_GRXSTSP_BCNT) >> 4));
 867              		.loc 1 1088 73
 868 00ba BB69     		ldr	r3, [r7, #24]
 869 00bc 1B09     		lsrs	r3, r3, #4
 870              		.loc 1 1088 32
 871 00be 9BB2     		uxth	r3, r3
1087:Drivers/STM32F4xx_HAL_Driver/Src/stm32f4xx_hal_pcd.c ****                                (uint16_t)((temp & USB_OTG_GRXSTSP_BCNT) >> 4));
 872              		.loc 1 1087 17
 873 00c0 C3F30A03 		ubfx	r3, r3, #0, #11
 874 00c4 9BB2     		uxth	r3, r3
 875 00c6 1A46     		mov	r2, r3
 876 00c8 386A     		ldr	r0, [r7, #32]
 877 00ca FFF7FEFF 		bl	USB_ReadPacket
1089:Drivers/STM32F4xx_HAL_Driver/Src/stm32f4xx_hal_pcd.c **** 
1090:Drivers/STM32F4xx_HAL_Driver/Src/stm32f4xx_hal_pcd.c ****           ep->xfer_buff += (temp & USB_OTG_GRXSTSP_BCNT) >> 4;
 878              		.loc 1 1090 25
 879 00ce 7B69     		ldr	r3, [r7, #20]
 880 00d0 DA68     		ldr	r2, [r3, #12]
 881              		.loc 1 1090 58
 882 00d2 BB69     		ldr	r3, [r7, #24]
 883 00d4 1B09     		lsrs	r3, r3, #4
 884 00d6 C3F30A03 		ubfx	r3, r3, #0, #11
 885              		.loc 1 1090 25
 886 00da 1A44     		add	r2, r2, r3
 887 00dc 7B69     		ldr	r3, [r7, #20]
 888 00de DA60     		str	r2, [r3, #12]
1091:Drivers/STM32F4xx_HAL_Driver/Src/stm32f4xx_hal_pcd.c ****           ep->xfer_count += (temp & USB_OTG_GRXSTSP_BCNT) >> 4;
 889              		.loc 1 1091 26
 890 00e0 7B69     		ldr	r3, [r7, #20]
 891 00e2 9A69     		ldr	r2, [r3, #24]
 892              		.loc 1 1091 59
 893 00e4 BB69     		ldr	r3, [r7, #24]
 894 00e6 1B09     		lsrs	r3, r3, #4
 895 00e8 C3F30A03 		ubfx	r3, r3, #0, #11
 896              		.loc 1 1091 26
 897 00ec 1A44     		add	r2, r2, r3
 898 00ee 7B69     		ldr	r3, [r7, #20]
 899 00f0 9A61     		str	r2, [r3, #24]
 900 00f2 16E0     		b	.L32
 901              	.L31:
1092:Drivers/STM32F4xx_HAL_Driver/Src/stm32f4xx_hal_pcd.c ****         }
1093:Drivers/STM32F4xx_HAL_Driver/Src/stm32f4xx_hal_pcd.c ****       }
1094:Drivers/STM32F4xx_HAL_Driver/Src/stm32f4xx_hal_pcd.c ****       else if (((temp & USB_OTG_GRXSTSP_PKTSTS) >> 17) ==  STS_SETUP_UPDT)
 902              		.loc 1 1094 49
 903 00f4 BB69     		ldr	r3, [r7, #24]
ARM GAS  /var/folders/vq/qt4vp3kd5rxf7v2b6_fdtdt80000gn/T//cc6xBrdC.s 			page 36


 904 00f6 5B0C     		lsrs	r3, r3, #17
 905 00f8 03F00F03 		and	r3, r3, #15
 906              		.loc 1 1094 15
 907 00fc 062B     		cmp	r3, #6
 908 00fe 10D1     		bne	.L32
1095:Drivers/STM32F4xx_HAL_Driver/Src/stm32f4xx_hal_pcd.c ****       {
1096:Drivers/STM32F4xx_HAL_Driver/Src/stm32f4xx_hal_pcd.c ****         (void)USB_ReadPacket(USBx, (uint8_t *)hpcd->Setup, 8U);
 909              		.loc 1 1096 47
 910 0100 7B68     		ldr	r3, [r7, #4]
 911 0102 03F57173 		add	r3, r3, #964
 912              		.loc 1 1096 15
 913 0106 0822     		movs	r2, #8
 914 0108 1946     		mov	r1, r3
 915 010a 386A     		ldr	r0, [r7, #32]
 916 010c FFF7FEFF 		bl	USB_ReadPacket
1097:Drivers/STM32F4xx_HAL_Driver/Src/stm32f4xx_hal_pcd.c ****         ep->xfer_count += (temp & USB_OTG_GRXSTSP_BCNT) >> 4;
 917              		.loc 1 1097 24
 918 0110 7B69     		ldr	r3, [r7, #20]
 919 0112 9A69     		ldr	r2, [r3, #24]
 920              		.loc 1 1097 57
 921 0114 BB69     		ldr	r3, [r7, #24]
 922 0116 1B09     		lsrs	r3, r3, #4
 923 0118 C3F30A03 		ubfx	r3, r3, #0, #11
 924              		.loc 1 1097 24
 925 011c 1A44     		add	r2, r2, r3
 926 011e 7B69     		ldr	r3, [r7, #20]
 927 0120 9A61     		str	r2, [r3, #24]
 928              	.L32:
1098:Drivers/STM32F4xx_HAL_Driver/Src/stm32f4xx_hal_pcd.c ****       }
1099:Drivers/STM32F4xx_HAL_Driver/Src/stm32f4xx_hal_pcd.c ****       else
1100:Drivers/STM32F4xx_HAL_Driver/Src/stm32f4xx_hal_pcd.c ****       {
1101:Drivers/STM32F4xx_HAL_Driver/Src/stm32f4xx_hal_pcd.c ****         /* ... */
1102:Drivers/STM32F4xx_HAL_Driver/Src/stm32f4xx_hal_pcd.c ****       }
1103:Drivers/STM32F4xx_HAL_Driver/Src/stm32f4xx_hal_pcd.c ****       USB_UNMASK_INTERRUPT(hpcd->Instance, USB_OTG_GINTSTS_RXFLVL);
 929              		.loc 1 1103 7
 930 0122 7B68     		ldr	r3, [r7, #4]
 931 0124 1B68     		ldr	r3, [r3]
 932 0126 9A69     		ldr	r2, [r3, #24]
 933 0128 7B68     		ldr	r3, [r7, #4]
 934 012a 1B68     		ldr	r3, [r3]
 935 012c 42F01002 		orr	r2, r2, #16
 936 0130 9A61     		str	r2, [r3, #24]
 937              	.L30:
1104:Drivers/STM32F4xx_HAL_Driver/Src/stm32f4xx_hal_pcd.c ****     }
1105:Drivers/STM32F4xx_HAL_Driver/Src/stm32f4xx_hal_pcd.c **** 
1106:Drivers/STM32F4xx_HAL_Driver/Src/stm32f4xx_hal_pcd.c ****     if (__HAL_PCD_GET_FLAG(hpcd, USB_OTG_GINTSTS_OEPINT))
 938              		.loc 1 1106 9
 939 0132 7B68     		ldr	r3, [r7, #4]
 940 0134 1B68     		ldr	r3, [r3]
 941 0136 1846     		mov	r0, r3
 942 0138 FFF7FEFF 		bl	USB_ReadInterrupts
 943 013c 0346     		mov	r3, r0
 944 013e 03F40023 		and	r3, r3, #524288
 945              		.loc 1 1106 8
 946 0142 B3F5002F 		cmp	r3, #524288
 947 0146 6ED1     		bne	.L33
1107:Drivers/STM32F4xx_HAL_Driver/Src/stm32f4xx_hal_pcd.c ****     {
ARM GAS  /var/folders/vq/qt4vp3kd5rxf7v2b6_fdtdt80000gn/T//cc6xBrdC.s 			page 37


1108:Drivers/STM32F4xx_HAL_Driver/Src/stm32f4xx_hal_pcd.c ****       epnum = 0U;
 948              		.loc 1 1108 13
 949 0148 0023     		movs	r3, #0
 950 014a 7B62     		str	r3, [r7, #36]
1109:Drivers/STM32F4xx_HAL_Driver/Src/stm32f4xx_hal_pcd.c **** 
1110:Drivers/STM32F4xx_HAL_Driver/Src/stm32f4xx_hal_pcd.c ****       /* Read in the device interrupt bits */
1111:Drivers/STM32F4xx_HAL_Driver/Src/stm32f4xx_hal_pcd.c ****       ep_intr = USB_ReadDevAllOutEpInterrupt(hpcd->Instance);
 951              		.loc 1 1111 50
 952 014c 7B68     		ldr	r3, [r7, #4]
 953 014e 1B68     		ldr	r3, [r3]
 954              		.loc 1 1111 17
 955 0150 1846     		mov	r0, r3
 956 0152 FFF7FEFF 		bl	USB_ReadDevAllOutEpInterrupt
 957 0156 B862     		str	r0, [r7, #40]
1112:Drivers/STM32F4xx_HAL_Driver/Src/stm32f4xx_hal_pcd.c **** 
1113:Drivers/STM32F4xx_HAL_Driver/Src/stm32f4xx_hal_pcd.c ****       while (ep_intr != 0U)
 958              		.loc 1 1113 13
 959 0158 62E0     		b	.L34
 960              	.L40:
1114:Drivers/STM32F4xx_HAL_Driver/Src/stm32f4xx_hal_pcd.c ****       {
1115:Drivers/STM32F4xx_HAL_Driver/Src/stm32f4xx_hal_pcd.c ****         if ((ep_intr & 0x1U) != 0U)
 961              		.loc 1 1115 22
 962 015a BB6A     		ldr	r3, [r7, #40]
 963 015c 03F00103 		and	r3, r3, #1
 964              		.loc 1 1115 12
 965 0160 002B     		cmp	r3, #0
 966 0162 57D0     		beq	.L35
1116:Drivers/STM32F4xx_HAL_Driver/Src/stm32f4xx_hal_pcd.c ****         {
1117:Drivers/STM32F4xx_HAL_Driver/Src/stm32f4xx_hal_pcd.c ****           epint = USB_ReadDevOutEPInterrupt(hpcd->Instance, (uint8_t)epnum);
 967              		.loc 1 1117 49
 968 0164 7B68     		ldr	r3, [r7, #4]
 969 0166 1B68     		ldr	r3, [r3]
 970              		.loc 1 1117 19
 971 0168 7A6A     		ldr	r2, [r7, #36]
 972 016a D2B2     		uxtb	r2, r2
 973 016c 1146     		mov	r1, r2
 974 016e 1846     		mov	r0, r3
 975 0170 FFF7FEFF 		bl	USB_ReadDevOutEPInterrupt
 976 0174 3861     		str	r0, [r7, #16]
1118:Drivers/STM32F4xx_HAL_Driver/Src/stm32f4xx_hal_pcd.c **** 
1119:Drivers/STM32F4xx_HAL_Driver/Src/stm32f4xx_hal_pcd.c ****           if ((epint & USB_OTG_DOEPINT_XFRC) == USB_OTG_DOEPINT_XFRC)
 977              		.loc 1 1119 22
 978 0176 3B69     		ldr	r3, [r7, #16]
 979 0178 03F00103 		and	r3, r3, #1
 980              		.loc 1 1119 14
 981 017c 002B     		cmp	r3, #0
 982 017e 0CD0     		beq	.L36
1120:Drivers/STM32F4xx_HAL_Driver/Src/stm32f4xx_hal_pcd.c ****           {
1121:Drivers/STM32F4xx_HAL_Driver/Src/stm32f4xx_hal_pcd.c ****             CLEAR_OUT_EP_INTR(epnum, USB_OTG_DOEPINT_XFRC);
 983              		.loc 1 1121 13
 984 0180 7B6A     		ldr	r3, [r7, #36]
 985 0182 5A01     		lsls	r2, r3, #5
 986 0184 FB69     		ldr	r3, [r7, #28]
 987 0186 1344     		add	r3, r3, r2
 988 0188 03F53063 		add	r3, r3, #2816
 989 018c 1A46     		mov	r2, r3
 990 018e 0123     		movs	r3, #1
ARM GAS  /var/folders/vq/qt4vp3kd5rxf7v2b6_fdtdt80000gn/T//cc6xBrdC.s 			page 38


 991 0190 9360     		str	r3, [r2, #8]
1122:Drivers/STM32F4xx_HAL_Driver/Src/stm32f4xx_hal_pcd.c ****             (void)PCD_EP_OutXfrComplete_int(hpcd, epnum);
 992              		.loc 1 1122 19
 993 0192 796A     		ldr	r1, [r7, #36]
 994 0194 7868     		ldr	r0, [r7, #4]
 995 0196 FFF7FEFF 		bl	PCD_EP_OutXfrComplete_int
 996              	.L36:
1123:Drivers/STM32F4xx_HAL_Driver/Src/stm32f4xx_hal_pcd.c ****           }
1124:Drivers/STM32F4xx_HAL_Driver/Src/stm32f4xx_hal_pcd.c **** 
1125:Drivers/STM32F4xx_HAL_Driver/Src/stm32f4xx_hal_pcd.c ****           if ((epint & USB_OTG_DOEPINT_STUP) == USB_OTG_DOEPINT_STUP)
 997              		.loc 1 1125 22
 998 019a 3B69     		ldr	r3, [r7, #16]
 999 019c 03F00803 		and	r3, r3, #8
 1000              		.loc 1 1125 14
 1001 01a0 002B     		cmp	r3, #0
 1002 01a2 0CD0     		beq	.L37
1126:Drivers/STM32F4xx_HAL_Driver/Src/stm32f4xx_hal_pcd.c ****           {
1127:Drivers/STM32F4xx_HAL_Driver/Src/stm32f4xx_hal_pcd.c ****             CLEAR_OUT_EP_INTR(epnum, USB_OTG_DOEPINT_STUP);
 1003              		.loc 1 1127 13
 1004 01a4 7B6A     		ldr	r3, [r7, #36]
 1005 01a6 5A01     		lsls	r2, r3, #5
 1006 01a8 FB69     		ldr	r3, [r7, #28]
 1007 01aa 1344     		add	r3, r3, r2
 1008 01ac 03F53063 		add	r3, r3, #2816
 1009 01b0 1A46     		mov	r2, r3
 1010 01b2 0823     		movs	r3, #8
 1011 01b4 9360     		str	r3, [r2, #8]
1128:Drivers/STM32F4xx_HAL_Driver/Src/stm32f4xx_hal_pcd.c ****             /* Class B setup phase done for previous decoded setup */
1129:Drivers/STM32F4xx_HAL_Driver/Src/stm32f4xx_hal_pcd.c ****             (void)PCD_EP_OutSetupPacket_int(hpcd, epnum);
 1012              		.loc 1 1129 19
 1013 01b6 796A     		ldr	r1, [r7, #36]
 1014 01b8 7868     		ldr	r0, [r7, #4]
 1015 01ba FFF7FEFF 		bl	PCD_EP_OutSetupPacket_int
 1016              	.L37:
1130:Drivers/STM32F4xx_HAL_Driver/Src/stm32f4xx_hal_pcd.c ****           }
1131:Drivers/STM32F4xx_HAL_Driver/Src/stm32f4xx_hal_pcd.c **** 
1132:Drivers/STM32F4xx_HAL_Driver/Src/stm32f4xx_hal_pcd.c ****           if ((epint & USB_OTG_DOEPINT_OTEPDIS) == USB_OTG_DOEPINT_OTEPDIS)
 1017              		.loc 1 1132 22
 1018 01be 3B69     		ldr	r3, [r7, #16]
 1019 01c0 03F01003 		and	r3, r3, #16
 1020              		.loc 1 1132 14
 1021 01c4 002B     		cmp	r3, #0
 1022 01c6 08D0     		beq	.L38
1133:Drivers/STM32F4xx_HAL_Driver/Src/stm32f4xx_hal_pcd.c ****           {
1134:Drivers/STM32F4xx_HAL_Driver/Src/stm32f4xx_hal_pcd.c ****             CLEAR_OUT_EP_INTR(epnum, USB_OTG_DOEPINT_OTEPDIS);
 1023              		.loc 1 1134 13
 1024 01c8 7B6A     		ldr	r3, [r7, #36]
 1025 01ca 5A01     		lsls	r2, r3, #5
 1026 01cc FB69     		ldr	r3, [r7, #28]
 1027 01ce 1344     		add	r3, r3, r2
 1028 01d0 03F53063 		add	r3, r3, #2816
 1029 01d4 1A46     		mov	r2, r3
 1030 01d6 1023     		movs	r3, #16
 1031 01d8 9360     		str	r3, [r2, #8]
 1032              	.L38:
1135:Drivers/STM32F4xx_HAL_Driver/Src/stm32f4xx_hal_pcd.c ****           }
1136:Drivers/STM32F4xx_HAL_Driver/Src/stm32f4xx_hal_pcd.c **** 
ARM GAS  /var/folders/vq/qt4vp3kd5rxf7v2b6_fdtdt80000gn/T//cc6xBrdC.s 			page 39


1137:Drivers/STM32F4xx_HAL_Driver/Src/stm32f4xx_hal_pcd.c ****           /* Clear Status Phase Received interrupt */
1138:Drivers/STM32F4xx_HAL_Driver/Src/stm32f4xx_hal_pcd.c ****           if ((epint & USB_OTG_DOEPINT_OTEPSPR) == USB_OTG_DOEPINT_OTEPSPR)
 1033              		.loc 1 1138 22
 1034 01da 3B69     		ldr	r3, [r7, #16]
 1035 01dc 03F02003 		and	r3, r3, #32
 1036              		.loc 1 1138 14
 1037 01e0 002B     		cmp	r3, #0
 1038 01e2 08D0     		beq	.L39
1139:Drivers/STM32F4xx_HAL_Driver/Src/stm32f4xx_hal_pcd.c ****           {
1140:Drivers/STM32F4xx_HAL_Driver/Src/stm32f4xx_hal_pcd.c ****             CLEAR_OUT_EP_INTR(epnum, USB_OTG_DOEPINT_OTEPSPR);
 1039              		.loc 1 1140 13
 1040 01e4 7B6A     		ldr	r3, [r7, #36]
 1041 01e6 5A01     		lsls	r2, r3, #5
 1042 01e8 FB69     		ldr	r3, [r7, #28]
 1043 01ea 1344     		add	r3, r3, r2
 1044 01ec 03F53063 		add	r3, r3, #2816
 1045 01f0 1A46     		mov	r2, r3
 1046 01f2 2023     		movs	r3, #32
 1047 01f4 9360     		str	r3, [r2, #8]
 1048              	.L39:
1141:Drivers/STM32F4xx_HAL_Driver/Src/stm32f4xx_hal_pcd.c ****           }
1142:Drivers/STM32F4xx_HAL_Driver/Src/stm32f4xx_hal_pcd.c **** 
1143:Drivers/STM32F4xx_HAL_Driver/Src/stm32f4xx_hal_pcd.c ****           /* Clear OUT NAK interrupt */
1144:Drivers/STM32F4xx_HAL_Driver/Src/stm32f4xx_hal_pcd.c ****           if ((epint & USB_OTG_DOEPINT_NAK) == USB_OTG_DOEPINT_NAK)
 1049              		.loc 1 1144 22
 1050 01f6 3B69     		ldr	r3, [r7, #16]
 1051 01f8 03F40053 		and	r3, r3, #8192
 1052              		.loc 1 1144 14
 1053 01fc 002B     		cmp	r3, #0
 1054 01fe 09D0     		beq	.L35
1145:Drivers/STM32F4xx_HAL_Driver/Src/stm32f4xx_hal_pcd.c ****           {
1146:Drivers/STM32F4xx_HAL_Driver/Src/stm32f4xx_hal_pcd.c ****             CLEAR_OUT_EP_INTR(epnum, USB_OTG_DOEPINT_NAK);
 1055              		.loc 1 1146 13
 1056 0200 7B6A     		ldr	r3, [r7, #36]
 1057 0202 5A01     		lsls	r2, r3, #5
 1058 0204 FB69     		ldr	r3, [r7, #28]
 1059 0206 1344     		add	r3, r3, r2
 1060 0208 03F53063 		add	r3, r3, #2816
 1061 020c 1A46     		mov	r2, r3
 1062 020e 4FF40053 		mov	r3, #8192
 1063 0212 9360     		str	r3, [r2, #8]
 1064              	.L35:
1147:Drivers/STM32F4xx_HAL_Driver/Src/stm32f4xx_hal_pcd.c ****           }
1148:Drivers/STM32F4xx_HAL_Driver/Src/stm32f4xx_hal_pcd.c ****         }
1149:Drivers/STM32F4xx_HAL_Driver/Src/stm32f4xx_hal_pcd.c ****         epnum++;
 1065              		.loc 1 1149 14
 1066 0214 7B6A     		ldr	r3, [r7, #36]
 1067 0216 0133     		adds	r3, r3, #1
 1068 0218 7B62     		str	r3, [r7, #36]
1150:Drivers/STM32F4xx_HAL_Driver/Src/stm32f4xx_hal_pcd.c ****         ep_intr >>= 1U;
 1069              		.loc 1 1150 17
 1070 021a BB6A     		ldr	r3, [r7, #40]
 1071 021c 5B08     		lsrs	r3, r3, #1
 1072 021e BB62     		str	r3, [r7, #40]
 1073              	.L34:
1113:Drivers/STM32F4xx_HAL_Driver/Src/stm32f4xx_hal_pcd.c ****       {
 1074              		.loc 1 1113 13
ARM GAS  /var/folders/vq/qt4vp3kd5rxf7v2b6_fdtdt80000gn/T//cc6xBrdC.s 			page 40


 1075 0220 BB6A     		ldr	r3, [r7, #40]
 1076 0222 002B     		cmp	r3, #0
 1077 0224 99D1     		bne	.L40
 1078              	.L33:
1151:Drivers/STM32F4xx_HAL_Driver/Src/stm32f4xx_hal_pcd.c ****       }
1152:Drivers/STM32F4xx_HAL_Driver/Src/stm32f4xx_hal_pcd.c ****     }
1153:Drivers/STM32F4xx_HAL_Driver/Src/stm32f4xx_hal_pcd.c **** 
1154:Drivers/STM32F4xx_HAL_Driver/Src/stm32f4xx_hal_pcd.c ****     if (__HAL_PCD_GET_FLAG(hpcd, USB_OTG_GINTSTS_IEPINT))
 1079              		.loc 1 1154 9
 1080 0226 7B68     		ldr	r3, [r7, #4]
 1081 0228 1B68     		ldr	r3, [r3]
 1082 022a 1846     		mov	r0, r3
 1083 022c FFF7FEFF 		bl	USB_ReadInterrupts
 1084 0230 0346     		mov	r3, r0
 1085 0232 03F48023 		and	r3, r3, #262144
 1086              		.loc 1 1154 8
 1087 0236 B3F5802F 		cmp	r3, #262144
 1088 023a 40F0C080 		bne	.L41
1155:Drivers/STM32F4xx_HAL_Driver/Src/stm32f4xx_hal_pcd.c ****     {
1156:Drivers/STM32F4xx_HAL_Driver/Src/stm32f4xx_hal_pcd.c ****       /* Read in the device interrupt bits */
1157:Drivers/STM32F4xx_HAL_Driver/Src/stm32f4xx_hal_pcd.c ****       ep_intr = USB_ReadDevAllInEpInterrupt(hpcd->Instance);
 1089              		.loc 1 1157 49
 1090 023e 7B68     		ldr	r3, [r7, #4]
 1091 0240 1B68     		ldr	r3, [r3]
 1092              		.loc 1 1157 17
 1093 0242 1846     		mov	r0, r3
 1094 0244 FFF7FEFF 		bl	USB_ReadDevAllInEpInterrupt
 1095 0248 B862     		str	r0, [r7, #40]
1158:Drivers/STM32F4xx_HAL_Driver/Src/stm32f4xx_hal_pcd.c **** 
1159:Drivers/STM32F4xx_HAL_Driver/Src/stm32f4xx_hal_pcd.c ****       epnum = 0U;
 1096              		.loc 1 1159 13
 1097 024a 0023     		movs	r3, #0
 1098 024c 7B62     		str	r3, [r7, #36]
1160:Drivers/STM32F4xx_HAL_Driver/Src/stm32f4xx_hal_pcd.c **** 
1161:Drivers/STM32F4xx_HAL_Driver/Src/stm32f4xx_hal_pcd.c ****       while (ep_intr != 0U)
 1099              		.loc 1 1161 13
 1100 024e B2E0     		b	.L42
 1101              	.L50:
1162:Drivers/STM32F4xx_HAL_Driver/Src/stm32f4xx_hal_pcd.c ****       {
1163:Drivers/STM32F4xx_HAL_Driver/Src/stm32f4xx_hal_pcd.c ****         if ((ep_intr & 0x1U) != 0U) /* In ITR */
 1102              		.loc 1 1163 22
 1103 0250 BB6A     		ldr	r3, [r7, #40]
 1104 0252 03F00103 		and	r3, r3, #1
 1105              		.loc 1 1163 12
 1106 0256 002B     		cmp	r3, #0
 1107 0258 00F0A780 		beq	.L43
1164:Drivers/STM32F4xx_HAL_Driver/Src/stm32f4xx_hal_pcd.c ****         {
1165:Drivers/STM32F4xx_HAL_Driver/Src/stm32f4xx_hal_pcd.c ****           epint = USB_ReadDevInEPInterrupt(hpcd->Instance, (uint8_t)epnum);
 1108              		.loc 1 1165 48
 1109 025c 7B68     		ldr	r3, [r7, #4]
 1110 025e 1B68     		ldr	r3, [r3]
 1111              		.loc 1 1165 19
 1112 0260 7A6A     		ldr	r2, [r7, #36]
 1113 0262 D2B2     		uxtb	r2, r2
 1114 0264 1146     		mov	r1, r2
 1115 0266 1846     		mov	r0, r3
 1116 0268 FFF7FEFF 		bl	USB_ReadDevInEPInterrupt
ARM GAS  /var/folders/vq/qt4vp3kd5rxf7v2b6_fdtdt80000gn/T//cc6xBrdC.s 			page 41


 1117 026c 3861     		str	r0, [r7, #16]
1166:Drivers/STM32F4xx_HAL_Driver/Src/stm32f4xx_hal_pcd.c **** 
1167:Drivers/STM32F4xx_HAL_Driver/Src/stm32f4xx_hal_pcd.c ****           if ((epint & USB_OTG_DIEPINT_XFRC) == USB_OTG_DIEPINT_XFRC)
 1118              		.loc 1 1167 22
 1119 026e 3B69     		ldr	r3, [r7, #16]
 1120 0270 03F00103 		and	r3, r3, #1
 1121              		.loc 1 1167 14
 1122 0274 002B     		cmp	r3, #0
 1123 0276 57D0     		beq	.L44
1168:Drivers/STM32F4xx_HAL_Driver/Src/stm32f4xx_hal_pcd.c ****           {
1169:Drivers/STM32F4xx_HAL_Driver/Src/stm32f4xx_hal_pcd.c ****             fifoemptymsk = (uint32_t)(0x1UL << (epnum & EP_ADDR_MSK));
 1124              		.loc 1 1169 55
 1125 0278 7B6A     		ldr	r3, [r7, #36]
 1126 027a 03F00F03 		and	r3, r3, #15
 1127              		.loc 1 1169 26
 1128 027e 0122     		movs	r2, #1
 1129 0280 02FA03F3 		lsl	r3, r2, r3
 1130 0284 FB60     		str	r3, [r7, #12]
1170:Drivers/STM32F4xx_HAL_Driver/Src/stm32f4xx_hal_pcd.c ****             USBx_DEVICE->DIEPEMPMSK &= ~fifoemptymsk;
 1131              		.loc 1 1170 37
 1132 0286 FB69     		ldr	r3, [r7, #28]
 1133 0288 03F50063 		add	r3, r3, #2048
 1134 028c 5A6B     		ldr	r2, [r3, #52]
 1135              		.loc 1 1170 40
 1136 028e FB68     		ldr	r3, [r7, #12]
 1137 0290 DB43     		mvns	r3, r3
 1138              		.loc 1 1170 37
 1139 0292 F969     		ldr	r1, [r7, #28]
 1140 0294 01F50061 		add	r1, r1, #2048
 1141 0298 1340     		ands	r3, r3, r2
 1142 029a 4B63     		str	r3, [r1, #52]
1171:Drivers/STM32F4xx_HAL_Driver/Src/stm32f4xx_hal_pcd.c **** 
1172:Drivers/STM32F4xx_HAL_Driver/Src/stm32f4xx_hal_pcd.c ****             CLEAR_IN_EP_INTR(epnum, USB_OTG_DIEPINT_XFRC);
 1143              		.loc 1 1172 13
 1144 029c 7B6A     		ldr	r3, [r7, #36]
 1145 029e 5A01     		lsls	r2, r3, #5
 1146 02a0 FB69     		ldr	r3, [r7, #28]
 1147 02a2 1344     		add	r3, r3, r2
 1148 02a4 03F51063 		add	r3, r3, #2304
 1149 02a8 1A46     		mov	r2, r3
 1150 02aa 0123     		movs	r3, #1
 1151 02ac 9360     		str	r3, [r2, #8]
1173:Drivers/STM32F4xx_HAL_Driver/Src/stm32f4xx_hal_pcd.c **** 
1174:Drivers/STM32F4xx_HAL_Driver/Src/stm32f4xx_hal_pcd.c ****             if (hpcd->Init.dma_enable == 1U)
 1152              		.loc 1 1174 27
 1153 02ae 7B68     		ldr	r3, [r7, #4]
 1154 02b0 1B69     		ldr	r3, [r3, #16]
 1155              		.loc 1 1174 16
 1156 02b2 012B     		cmp	r3, #1
 1157 02b4 32D1     		bne	.L45
1175:Drivers/STM32F4xx_HAL_Driver/Src/stm32f4xx_hal_pcd.c ****             {
1176:Drivers/STM32F4xx_HAL_Driver/Src/stm32f4xx_hal_pcd.c ****               hpcd->IN_ep[epnum].xfer_buff += hpcd->IN_ep[epnum].maxpacket;
 1158              		.loc 1 1176 44
 1159 02b6 7968     		ldr	r1, [r7, #4]
 1160 02b8 7A6A     		ldr	r2, [r7, #36]
 1161 02ba 1346     		mov	r3, r2
 1162 02bc DB00     		lsls	r3, r3, #3
ARM GAS  /var/folders/vq/qt4vp3kd5rxf7v2b6_fdtdt80000gn/T//cc6xBrdC.s 			page 42


 1163 02be 9B1A     		subs	r3, r3, r2
 1164 02c0 9B00     		lsls	r3, r3, #2
 1165 02c2 0B44     		add	r3, r3, r1
 1166 02c4 4833     		adds	r3, r3, #72
 1167 02c6 1968     		ldr	r1, [r3]
 1168              		.loc 1 1176 65
 1169 02c8 7868     		ldr	r0, [r7, #4]
 1170 02ca 7A6A     		ldr	r2, [r7, #36]
 1171 02cc 1346     		mov	r3, r2
 1172 02ce DB00     		lsls	r3, r3, #3
 1173 02d0 9B1A     		subs	r3, r3, r2
 1174 02d2 9B00     		lsls	r3, r3, #2
 1175 02d4 0344     		add	r3, r3, r0
 1176 02d6 4433     		adds	r3, r3, #68
 1177 02d8 1B68     		ldr	r3, [r3]
 1178              		.loc 1 1176 44
 1179 02da 1944     		add	r1, r1, r3
 1180 02dc 7868     		ldr	r0, [r7, #4]
 1181 02de 7A6A     		ldr	r2, [r7, #36]
 1182 02e0 1346     		mov	r3, r2
 1183 02e2 DB00     		lsls	r3, r3, #3
 1184 02e4 9B1A     		subs	r3, r3, r2
 1185 02e6 9B00     		lsls	r3, r3, #2
 1186 02e8 0344     		add	r3, r3, r0
 1187 02ea 4833     		adds	r3, r3, #72
 1188 02ec 1960     		str	r1, [r3]
1177:Drivers/STM32F4xx_HAL_Driver/Src/stm32f4xx_hal_pcd.c **** 
1178:Drivers/STM32F4xx_HAL_Driver/Src/stm32f4xx_hal_pcd.c ****               /* this is ZLP, so prepare EP0 for next setup */
1179:Drivers/STM32F4xx_HAL_Driver/Src/stm32f4xx_hal_pcd.c ****               if ((epnum == 0U) && (hpcd->IN_ep[epnum].xfer_len == 0U))
 1189              		.loc 1 1179 18
 1190 02ee 7B6A     		ldr	r3, [r7, #36]
 1191 02f0 002B     		cmp	r3, #0
 1192 02f2 13D1     		bne	.L45
 1193              		.loc 1 1179 55 discriminator 1
 1194 02f4 7968     		ldr	r1, [r7, #4]
 1195 02f6 7A6A     		ldr	r2, [r7, #36]
 1196 02f8 1346     		mov	r3, r2
 1197 02fa DB00     		lsls	r3, r3, #3
 1198 02fc 9B1A     		subs	r3, r3, r2
 1199 02fe 9B00     		lsls	r3, r3, #2
 1200 0300 0B44     		add	r3, r3, r1
 1201 0302 5033     		adds	r3, r3, #80
 1202 0304 1B68     		ldr	r3, [r3]
 1203              		.loc 1 1179 33 discriminator 1
 1204 0306 002B     		cmp	r3, #0
 1205 0308 08D1     		bne	.L45
1180:Drivers/STM32F4xx_HAL_Driver/Src/stm32f4xx_hal_pcd.c ****               {
1181:Drivers/STM32F4xx_HAL_Driver/Src/stm32f4xx_hal_pcd.c ****                 /* prepare to rx more setup packets */
1182:Drivers/STM32F4xx_HAL_Driver/Src/stm32f4xx_hal_pcd.c ****                 (void)USB_EP0_OutStart(hpcd->Instance, 1U, (uint8_t *)hpcd->Setup);
 1206              		.loc 1 1182 44
 1207 030a 7B68     		ldr	r3, [r7, #4]
 1208 030c 1868     		ldr	r0, [r3]
 1209              		.loc 1 1182 71
 1210 030e 7B68     		ldr	r3, [r7, #4]
 1211 0310 03F57173 		add	r3, r3, #964
 1212              		.loc 1 1182 23
 1213 0314 1A46     		mov	r2, r3
ARM GAS  /var/folders/vq/qt4vp3kd5rxf7v2b6_fdtdt80000gn/T//cc6xBrdC.s 			page 43


 1214 0316 0121     		movs	r1, #1
 1215 0318 FFF7FEFF 		bl	USB_EP0_OutStart
 1216              	.L45:
1183:Drivers/STM32F4xx_HAL_Driver/Src/stm32f4xx_hal_pcd.c ****               }
1184:Drivers/STM32F4xx_HAL_Driver/Src/stm32f4xx_hal_pcd.c ****             }
1185:Drivers/STM32F4xx_HAL_Driver/Src/stm32f4xx_hal_pcd.c **** 
1186:Drivers/STM32F4xx_HAL_Driver/Src/stm32f4xx_hal_pcd.c **** #if (USE_HAL_PCD_REGISTER_CALLBACKS == 1U)
1187:Drivers/STM32F4xx_HAL_Driver/Src/stm32f4xx_hal_pcd.c ****             hpcd->DataInStageCallback(hpcd, (uint8_t)epnum);
1188:Drivers/STM32F4xx_HAL_Driver/Src/stm32f4xx_hal_pcd.c **** #else
1189:Drivers/STM32F4xx_HAL_Driver/Src/stm32f4xx_hal_pcd.c ****             HAL_PCD_DataInStageCallback(hpcd, (uint8_t)epnum);
 1217              		.loc 1 1189 13
 1218 031c 7B6A     		ldr	r3, [r7, #36]
 1219 031e DBB2     		uxtb	r3, r3
 1220 0320 1946     		mov	r1, r3
 1221 0322 7868     		ldr	r0, [r7, #4]
 1222 0324 FFF7FEFF 		bl	HAL_PCD_DataInStageCallback
 1223              	.L44:
1190:Drivers/STM32F4xx_HAL_Driver/Src/stm32f4xx_hal_pcd.c **** #endif /* USE_HAL_PCD_REGISTER_CALLBACKS */
1191:Drivers/STM32F4xx_HAL_Driver/Src/stm32f4xx_hal_pcd.c ****           }
1192:Drivers/STM32F4xx_HAL_Driver/Src/stm32f4xx_hal_pcd.c ****           if ((epint & USB_OTG_DIEPINT_TOC) == USB_OTG_DIEPINT_TOC)
 1224              		.loc 1 1192 22
 1225 0328 3B69     		ldr	r3, [r7, #16]
 1226 032a 03F00803 		and	r3, r3, #8
 1227              		.loc 1 1192 14
 1228 032e 002B     		cmp	r3, #0
 1229 0330 08D0     		beq	.L46
1193:Drivers/STM32F4xx_HAL_Driver/Src/stm32f4xx_hal_pcd.c ****           {
1194:Drivers/STM32F4xx_HAL_Driver/Src/stm32f4xx_hal_pcd.c ****             CLEAR_IN_EP_INTR(epnum, USB_OTG_DIEPINT_TOC);
 1230              		.loc 1 1194 13
 1231 0332 7B6A     		ldr	r3, [r7, #36]
 1232 0334 5A01     		lsls	r2, r3, #5
 1233 0336 FB69     		ldr	r3, [r7, #28]
 1234 0338 1344     		add	r3, r3, r2
 1235 033a 03F51063 		add	r3, r3, #2304
 1236 033e 1A46     		mov	r2, r3
 1237 0340 0823     		movs	r3, #8
 1238 0342 9360     		str	r3, [r2, #8]
 1239              	.L46:
1195:Drivers/STM32F4xx_HAL_Driver/Src/stm32f4xx_hal_pcd.c ****           }
1196:Drivers/STM32F4xx_HAL_Driver/Src/stm32f4xx_hal_pcd.c ****           if ((epint & USB_OTG_DIEPINT_ITTXFE) == USB_OTG_DIEPINT_ITTXFE)
 1240              		.loc 1 1196 22
 1241 0344 3B69     		ldr	r3, [r7, #16]
 1242 0346 03F01003 		and	r3, r3, #16
 1243              		.loc 1 1196 14
 1244 034a 002B     		cmp	r3, #0
 1245 034c 08D0     		beq	.L47
1197:Drivers/STM32F4xx_HAL_Driver/Src/stm32f4xx_hal_pcd.c ****           {
1198:Drivers/STM32F4xx_HAL_Driver/Src/stm32f4xx_hal_pcd.c ****             CLEAR_IN_EP_INTR(epnum, USB_OTG_DIEPINT_ITTXFE);
 1246              		.loc 1 1198 13
 1247 034e 7B6A     		ldr	r3, [r7, #36]
 1248 0350 5A01     		lsls	r2, r3, #5
 1249 0352 FB69     		ldr	r3, [r7, #28]
 1250 0354 1344     		add	r3, r3, r2
 1251 0356 03F51063 		add	r3, r3, #2304
 1252 035a 1A46     		mov	r2, r3
 1253 035c 1023     		movs	r3, #16
 1254 035e 9360     		str	r3, [r2, #8]
ARM GAS  /var/folders/vq/qt4vp3kd5rxf7v2b6_fdtdt80000gn/T//cc6xBrdC.s 			page 44


 1255              	.L47:
1199:Drivers/STM32F4xx_HAL_Driver/Src/stm32f4xx_hal_pcd.c ****           }
1200:Drivers/STM32F4xx_HAL_Driver/Src/stm32f4xx_hal_pcd.c ****           if ((epint & USB_OTG_DIEPINT_INEPNE) == USB_OTG_DIEPINT_INEPNE)
 1256              		.loc 1 1200 22
 1257 0360 3B69     		ldr	r3, [r7, #16]
 1258 0362 03F04003 		and	r3, r3, #64
 1259              		.loc 1 1200 14
 1260 0366 002B     		cmp	r3, #0
 1261 0368 08D0     		beq	.L48
1201:Drivers/STM32F4xx_HAL_Driver/Src/stm32f4xx_hal_pcd.c ****           {
1202:Drivers/STM32F4xx_HAL_Driver/Src/stm32f4xx_hal_pcd.c ****             CLEAR_IN_EP_INTR(epnum, USB_OTG_DIEPINT_INEPNE);
 1262              		.loc 1 1202 13
 1263 036a 7B6A     		ldr	r3, [r7, #36]
 1264 036c 5A01     		lsls	r2, r3, #5
 1265 036e FB69     		ldr	r3, [r7, #28]
 1266 0370 1344     		add	r3, r3, r2
 1267 0372 03F51063 		add	r3, r3, #2304
 1268 0376 1A46     		mov	r2, r3
 1269 0378 4023     		movs	r3, #64
 1270 037a 9360     		str	r3, [r2, #8]
 1271              	.L48:
1203:Drivers/STM32F4xx_HAL_Driver/Src/stm32f4xx_hal_pcd.c ****           }
1204:Drivers/STM32F4xx_HAL_Driver/Src/stm32f4xx_hal_pcd.c ****           if ((epint & USB_OTG_DIEPINT_EPDISD) == USB_OTG_DIEPINT_EPDISD)
 1272              		.loc 1 1204 22
 1273 037c 3B69     		ldr	r3, [r7, #16]
 1274 037e 03F00203 		and	r3, r3, #2
 1275              		.loc 1 1204 14
 1276 0382 002B     		cmp	r3, #0
 1277 0384 08D0     		beq	.L49
1205:Drivers/STM32F4xx_HAL_Driver/Src/stm32f4xx_hal_pcd.c ****           {
1206:Drivers/STM32F4xx_HAL_Driver/Src/stm32f4xx_hal_pcd.c ****             CLEAR_IN_EP_INTR(epnum, USB_OTG_DIEPINT_EPDISD);
 1278              		.loc 1 1206 13
 1279 0386 7B6A     		ldr	r3, [r7, #36]
 1280 0388 5A01     		lsls	r2, r3, #5
 1281 038a FB69     		ldr	r3, [r7, #28]
 1282 038c 1344     		add	r3, r3, r2
 1283 038e 03F51063 		add	r3, r3, #2304
 1284 0392 1A46     		mov	r2, r3
 1285 0394 0223     		movs	r3, #2
 1286 0396 9360     		str	r3, [r2, #8]
 1287              	.L49:
1207:Drivers/STM32F4xx_HAL_Driver/Src/stm32f4xx_hal_pcd.c ****           }
1208:Drivers/STM32F4xx_HAL_Driver/Src/stm32f4xx_hal_pcd.c ****           if ((epint & USB_OTG_DIEPINT_TXFE) == USB_OTG_DIEPINT_TXFE)
 1288              		.loc 1 1208 22
 1289 0398 3B69     		ldr	r3, [r7, #16]
 1290 039a 03F08003 		and	r3, r3, #128
 1291              		.loc 1 1208 14
 1292 039e 002B     		cmp	r3, #0
 1293 03a0 03D0     		beq	.L43
1209:Drivers/STM32F4xx_HAL_Driver/Src/stm32f4xx_hal_pcd.c ****           {
1210:Drivers/STM32F4xx_HAL_Driver/Src/stm32f4xx_hal_pcd.c ****             (void)PCD_WriteEmptyTxFifo(hpcd, epnum);
 1294              		.loc 1 1210 19
 1295 03a2 796A     		ldr	r1, [r7, #36]
 1296 03a4 7868     		ldr	r0, [r7, #4]
 1297 03a6 FFF7FEFF 		bl	PCD_WriteEmptyTxFifo
 1298              	.L43:
1211:Drivers/STM32F4xx_HAL_Driver/Src/stm32f4xx_hal_pcd.c ****           }
ARM GAS  /var/folders/vq/qt4vp3kd5rxf7v2b6_fdtdt80000gn/T//cc6xBrdC.s 			page 45


1212:Drivers/STM32F4xx_HAL_Driver/Src/stm32f4xx_hal_pcd.c ****         }
1213:Drivers/STM32F4xx_HAL_Driver/Src/stm32f4xx_hal_pcd.c ****         epnum++;
 1299              		.loc 1 1213 14
 1300 03aa 7B6A     		ldr	r3, [r7, #36]
 1301 03ac 0133     		adds	r3, r3, #1
 1302 03ae 7B62     		str	r3, [r7, #36]
1214:Drivers/STM32F4xx_HAL_Driver/Src/stm32f4xx_hal_pcd.c ****         ep_intr >>= 1U;
 1303              		.loc 1 1214 17
 1304 03b0 BB6A     		ldr	r3, [r7, #40]
 1305 03b2 5B08     		lsrs	r3, r3, #1
 1306 03b4 BB62     		str	r3, [r7, #40]
 1307              	.L42:
1161:Drivers/STM32F4xx_HAL_Driver/Src/stm32f4xx_hal_pcd.c ****       {
 1308              		.loc 1 1161 13
 1309 03b6 BB6A     		ldr	r3, [r7, #40]
 1310 03b8 002B     		cmp	r3, #0
 1311 03ba 7FF449AF 		bne	.L50
 1312              	.L41:
1215:Drivers/STM32F4xx_HAL_Driver/Src/stm32f4xx_hal_pcd.c ****       }
1216:Drivers/STM32F4xx_HAL_Driver/Src/stm32f4xx_hal_pcd.c ****     }
1217:Drivers/STM32F4xx_HAL_Driver/Src/stm32f4xx_hal_pcd.c **** 
1218:Drivers/STM32F4xx_HAL_Driver/Src/stm32f4xx_hal_pcd.c ****     /* Handle Resume Interrupt */
1219:Drivers/STM32F4xx_HAL_Driver/Src/stm32f4xx_hal_pcd.c ****     if (__HAL_PCD_GET_FLAG(hpcd, USB_OTG_GINTSTS_WKUINT))
 1313              		.loc 1 1219 9
 1314 03be 7B68     		ldr	r3, [r7, #4]
 1315 03c0 1B68     		ldr	r3, [r3]
 1316 03c2 1846     		mov	r0, r3
 1317 03c4 FFF7FEFF 		bl	USB_ReadInterrupts
 1318 03c8 0346     		mov	r3, r0
 1319 03ca 03F00043 		and	r3, r3, #-2147483648
 1320              		.loc 1 1219 8
 1321 03ce B3F1004F 		cmp	r3, #-2147483648
 1322 03d2 22D1     		bne	.L51
1220:Drivers/STM32F4xx_HAL_Driver/Src/stm32f4xx_hal_pcd.c ****     {
1221:Drivers/STM32F4xx_HAL_Driver/Src/stm32f4xx_hal_pcd.c ****       /* Clear the Remote Wake-up Signaling */
1222:Drivers/STM32F4xx_HAL_Driver/Src/stm32f4xx_hal_pcd.c ****       USBx_DEVICE->DCTL &= ~USB_OTG_DCTL_RWUSIG;
 1323              		.loc 1 1222 25
 1324 03d4 FB69     		ldr	r3, [r7, #28]
 1325 03d6 03F50063 		add	r3, r3, #2048
 1326 03da 5B68     		ldr	r3, [r3, #4]
 1327 03dc FA69     		ldr	r2, [r7, #28]
 1328 03de 02F50062 		add	r2, r2, #2048
 1329 03e2 23F00103 		bic	r3, r3, #1
 1330 03e6 5360     		str	r3, [r2, #4]
1223:Drivers/STM32F4xx_HAL_Driver/Src/stm32f4xx_hal_pcd.c **** 
1224:Drivers/STM32F4xx_HAL_Driver/Src/stm32f4xx_hal_pcd.c ****       if (hpcd->LPM_State == LPM_L1)
 1331              		.loc 1 1224 15
 1332 03e8 7B68     		ldr	r3, [r7, #4]
 1333 03ea 93F8F433 		ldrb	r3, [r3, #1012]	@ zero_extendqisi2
 1334              		.loc 1 1224 10
 1335 03ee 012B     		cmp	r3, #1
 1336 03f0 08D1     		bne	.L52
1225:Drivers/STM32F4xx_HAL_Driver/Src/stm32f4xx_hal_pcd.c ****       {
1226:Drivers/STM32F4xx_HAL_Driver/Src/stm32f4xx_hal_pcd.c ****         hpcd->LPM_State = LPM_L0;
 1337              		.loc 1 1226 25
 1338 03f2 7B68     		ldr	r3, [r7, #4]
 1339 03f4 0022     		movs	r2, #0
ARM GAS  /var/folders/vq/qt4vp3kd5rxf7v2b6_fdtdt80000gn/T//cc6xBrdC.s 			page 46


 1340 03f6 83F8F423 		strb	r2, [r3, #1012]
1227:Drivers/STM32F4xx_HAL_Driver/Src/stm32f4xx_hal_pcd.c **** 
1228:Drivers/STM32F4xx_HAL_Driver/Src/stm32f4xx_hal_pcd.c **** #if (USE_HAL_PCD_REGISTER_CALLBACKS == 1U)
1229:Drivers/STM32F4xx_HAL_Driver/Src/stm32f4xx_hal_pcd.c ****         hpcd->LPMCallback(hpcd, PCD_LPM_L0_ACTIVE);
1230:Drivers/STM32F4xx_HAL_Driver/Src/stm32f4xx_hal_pcd.c **** #else
1231:Drivers/STM32F4xx_HAL_Driver/Src/stm32f4xx_hal_pcd.c ****         HAL_PCDEx_LPM_Callback(hpcd, PCD_LPM_L0_ACTIVE);
 1341              		.loc 1 1231 9
 1342 03fa 0021     		movs	r1, #0
 1343 03fc 7868     		ldr	r0, [r7, #4]
 1344 03fe FFF7FEFF 		bl	HAL_PCDEx_LPM_Callback
 1345 0402 02E0     		b	.L53
 1346              	.L52:
1232:Drivers/STM32F4xx_HAL_Driver/Src/stm32f4xx_hal_pcd.c **** #endif /* USE_HAL_PCD_REGISTER_CALLBACKS */
1233:Drivers/STM32F4xx_HAL_Driver/Src/stm32f4xx_hal_pcd.c ****       }
1234:Drivers/STM32F4xx_HAL_Driver/Src/stm32f4xx_hal_pcd.c ****       else
1235:Drivers/STM32F4xx_HAL_Driver/Src/stm32f4xx_hal_pcd.c ****       {
1236:Drivers/STM32F4xx_HAL_Driver/Src/stm32f4xx_hal_pcd.c **** #if (USE_HAL_PCD_REGISTER_CALLBACKS == 1U)
1237:Drivers/STM32F4xx_HAL_Driver/Src/stm32f4xx_hal_pcd.c ****         hpcd->ResumeCallback(hpcd);
1238:Drivers/STM32F4xx_HAL_Driver/Src/stm32f4xx_hal_pcd.c **** #else
1239:Drivers/STM32F4xx_HAL_Driver/Src/stm32f4xx_hal_pcd.c ****         HAL_PCD_ResumeCallback(hpcd);
 1347              		.loc 1 1239 9
 1348 0404 7868     		ldr	r0, [r7, #4]
 1349 0406 FFF7FEFF 		bl	HAL_PCD_ResumeCallback
 1350              	.L53:
1240:Drivers/STM32F4xx_HAL_Driver/Src/stm32f4xx_hal_pcd.c **** #endif /* USE_HAL_PCD_REGISTER_CALLBACKS */
1241:Drivers/STM32F4xx_HAL_Driver/Src/stm32f4xx_hal_pcd.c ****       }
1242:Drivers/STM32F4xx_HAL_Driver/Src/stm32f4xx_hal_pcd.c **** 
1243:Drivers/STM32F4xx_HAL_Driver/Src/stm32f4xx_hal_pcd.c ****       __HAL_PCD_CLEAR_FLAG(hpcd, USB_OTG_GINTSTS_WKUINT);
 1351              		.loc 1 1243 7
 1352 040a 7B68     		ldr	r3, [r7, #4]
 1353 040c 1B68     		ldr	r3, [r3]
 1354 040e 5A69     		ldr	r2, [r3, #20]
 1355 0410 7B68     		ldr	r3, [r7, #4]
 1356 0412 1B68     		ldr	r3, [r3]
 1357 0414 02F00042 		and	r2, r2, #-2147483648
 1358 0418 5A61     		str	r2, [r3, #20]
 1359              	.L51:
1244:Drivers/STM32F4xx_HAL_Driver/Src/stm32f4xx_hal_pcd.c ****     }
1245:Drivers/STM32F4xx_HAL_Driver/Src/stm32f4xx_hal_pcd.c **** 
1246:Drivers/STM32F4xx_HAL_Driver/Src/stm32f4xx_hal_pcd.c ****     /* Handle Suspend Interrupt */
1247:Drivers/STM32F4xx_HAL_Driver/Src/stm32f4xx_hal_pcd.c ****     if (__HAL_PCD_GET_FLAG(hpcd, USB_OTG_GINTSTS_USBSUSP))
 1360              		.loc 1 1247 9
 1361 041a 7B68     		ldr	r3, [r7, #4]
 1362 041c 1B68     		ldr	r3, [r3]
 1363 041e 1846     		mov	r0, r3
 1364 0420 FFF7FEFF 		bl	USB_ReadInterrupts
 1365 0424 0346     		mov	r3, r0
 1366 0426 03F40063 		and	r3, r3, #2048
 1367              		.loc 1 1247 8
 1368 042a B3F5006F 		cmp	r3, #2048
 1369 042e 12D1     		bne	.L54
1248:Drivers/STM32F4xx_HAL_Driver/Src/stm32f4xx_hal_pcd.c ****     {
1249:Drivers/STM32F4xx_HAL_Driver/Src/stm32f4xx_hal_pcd.c ****       if ((USBx_DEVICE->DSTS & USB_OTG_DSTS_SUSPSTS) == USB_OTG_DSTS_SUSPSTS)
 1370              		.loc 1 1249 12
 1371 0430 FB69     		ldr	r3, [r7, #28]
 1372 0432 03F50063 		add	r3, r3, #2048
 1373              		.loc 1 1249 23
ARM GAS  /var/folders/vq/qt4vp3kd5rxf7v2b6_fdtdt80000gn/T//cc6xBrdC.s 			page 47


 1374 0436 9B68     		ldr	r3, [r3, #8]
 1375              		.loc 1 1249 30
 1376 0438 03F00103 		and	r3, r3, #1
 1377              		.loc 1 1249 10
 1378 043c 012B     		cmp	r3, #1
 1379 043e 02D1     		bne	.L55
1250:Drivers/STM32F4xx_HAL_Driver/Src/stm32f4xx_hal_pcd.c ****       {
1251:Drivers/STM32F4xx_HAL_Driver/Src/stm32f4xx_hal_pcd.c **** #if (USE_HAL_PCD_REGISTER_CALLBACKS == 1U)
1252:Drivers/STM32F4xx_HAL_Driver/Src/stm32f4xx_hal_pcd.c ****         hpcd->SuspendCallback(hpcd);
1253:Drivers/STM32F4xx_HAL_Driver/Src/stm32f4xx_hal_pcd.c **** #else
1254:Drivers/STM32F4xx_HAL_Driver/Src/stm32f4xx_hal_pcd.c ****         HAL_PCD_SuspendCallback(hpcd);
 1380              		.loc 1 1254 9
 1381 0440 7868     		ldr	r0, [r7, #4]
 1382 0442 FFF7FEFF 		bl	HAL_PCD_SuspendCallback
 1383              	.L55:
1255:Drivers/STM32F4xx_HAL_Driver/Src/stm32f4xx_hal_pcd.c **** #endif /* USE_HAL_PCD_REGISTER_CALLBACKS */
1256:Drivers/STM32F4xx_HAL_Driver/Src/stm32f4xx_hal_pcd.c ****       }
1257:Drivers/STM32F4xx_HAL_Driver/Src/stm32f4xx_hal_pcd.c ****       __HAL_PCD_CLEAR_FLAG(hpcd, USB_OTG_GINTSTS_USBSUSP);
 1384              		.loc 1 1257 7
 1385 0446 7B68     		ldr	r3, [r7, #4]
 1386 0448 1B68     		ldr	r3, [r3]
 1387 044a 5A69     		ldr	r2, [r3, #20]
 1388 044c 7B68     		ldr	r3, [r7, #4]
 1389 044e 1B68     		ldr	r3, [r3]
 1390 0450 02F40062 		and	r2, r2, #2048
 1391 0454 5A61     		str	r2, [r3, #20]
 1392              	.L54:
1258:Drivers/STM32F4xx_HAL_Driver/Src/stm32f4xx_hal_pcd.c ****     }
1259:Drivers/STM32F4xx_HAL_Driver/Src/stm32f4xx_hal_pcd.c **** #if defined(STM32F446xx) || defined(STM32F469xx) || defined(STM32F479xx) || defined(STM32F412Zx) ||
1260:Drivers/STM32F4xx_HAL_Driver/Src/stm32f4xx_hal_pcd.c ****     /* Handle LPM Interrupt */
1261:Drivers/STM32F4xx_HAL_Driver/Src/stm32f4xx_hal_pcd.c ****     if (__HAL_PCD_GET_FLAG(hpcd, USB_OTG_GINTSTS_LPMINT))
1262:Drivers/STM32F4xx_HAL_Driver/Src/stm32f4xx_hal_pcd.c ****     {
1263:Drivers/STM32F4xx_HAL_Driver/Src/stm32f4xx_hal_pcd.c ****       __HAL_PCD_CLEAR_FLAG(hpcd, USB_OTG_GINTSTS_LPMINT);
1264:Drivers/STM32F4xx_HAL_Driver/Src/stm32f4xx_hal_pcd.c **** 
1265:Drivers/STM32F4xx_HAL_Driver/Src/stm32f4xx_hal_pcd.c ****       if (hpcd->LPM_State == LPM_L0)
1266:Drivers/STM32F4xx_HAL_Driver/Src/stm32f4xx_hal_pcd.c ****       {
1267:Drivers/STM32F4xx_HAL_Driver/Src/stm32f4xx_hal_pcd.c ****         hpcd->LPM_State = LPM_L1;
1268:Drivers/STM32F4xx_HAL_Driver/Src/stm32f4xx_hal_pcd.c ****         hpcd->BESL = (hpcd->Instance->GLPMCFG & USB_OTG_GLPMCFG_BESL) >> 2U;
1269:Drivers/STM32F4xx_HAL_Driver/Src/stm32f4xx_hal_pcd.c **** 
1270:Drivers/STM32F4xx_HAL_Driver/Src/stm32f4xx_hal_pcd.c **** #if (USE_HAL_PCD_REGISTER_CALLBACKS == 1U)
1271:Drivers/STM32F4xx_HAL_Driver/Src/stm32f4xx_hal_pcd.c ****         hpcd->LPMCallback(hpcd, PCD_LPM_L1_ACTIVE);
1272:Drivers/STM32F4xx_HAL_Driver/Src/stm32f4xx_hal_pcd.c **** #else
1273:Drivers/STM32F4xx_HAL_Driver/Src/stm32f4xx_hal_pcd.c ****         HAL_PCDEx_LPM_Callback(hpcd, PCD_LPM_L1_ACTIVE);
1274:Drivers/STM32F4xx_HAL_Driver/Src/stm32f4xx_hal_pcd.c **** #endif /* USE_HAL_PCD_REGISTER_CALLBACKS */
1275:Drivers/STM32F4xx_HAL_Driver/Src/stm32f4xx_hal_pcd.c ****       }
1276:Drivers/STM32F4xx_HAL_Driver/Src/stm32f4xx_hal_pcd.c ****       else
1277:Drivers/STM32F4xx_HAL_Driver/Src/stm32f4xx_hal_pcd.c ****       {
1278:Drivers/STM32F4xx_HAL_Driver/Src/stm32f4xx_hal_pcd.c **** #if (USE_HAL_PCD_REGISTER_CALLBACKS == 1U)
1279:Drivers/STM32F4xx_HAL_Driver/Src/stm32f4xx_hal_pcd.c ****         hpcd->SuspendCallback(hpcd);
1280:Drivers/STM32F4xx_HAL_Driver/Src/stm32f4xx_hal_pcd.c **** #else
1281:Drivers/STM32F4xx_HAL_Driver/Src/stm32f4xx_hal_pcd.c ****         HAL_PCD_SuspendCallback(hpcd);
1282:Drivers/STM32F4xx_HAL_Driver/Src/stm32f4xx_hal_pcd.c **** #endif /* USE_HAL_PCD_REGISTER_CALLBACKS */
1283:Drivers/STM32F4xx_HAL_Driver/Src/stm32f4xx_hal_pcd.c ****       }
1284:Drivers/STM32F4xx_HAL_Driver/Src/stm32f4xx_hal_pcd.c ****     }
1285:Drivers/STM32F4xx_HAL_Driver/Src/stm32f4xx_hal_pcd.c **** #endif /* defined(STM32F446xx) || defined(STM32F469xx) || defined(STM32F479xx) || defined(STM32F412
1286:Drivers/STM32F4xx_HAL_Driver/Src/stm32f4xx_hal_pcd.c ****     /* Handle Reset Interrupt */
1287:Drivers/STM32F4xx_HAL_Driver/Src/stm32f4xx_hal_pcd.c ****     if (__HAL_PCD_GET_FLAG(hpcd, USB_OTG_GINTSTS_USBRST))
ARM GAS  /var/folders/vq/qt4vp3kd5rxf7v2b6_fdtdt80000gn/T//cc6xBrdC.s 			page 48


 1393              		.loc 1 1287 9
 1394 0456 7B68     		ldr	r3, [r7, #4]
 1395 0458 1B68     		ldr	r3, [r3]
 1396 045a 1846     		mov	r0, r3
 1397 045c FFF7FEFF 		bl	USB_ReadInterrupts
 1398 0460 0346     		mov	r3, r0
 1399 0462 03F48053 		and	r3, r3, #4096
 1400              		.loc 1 1287 8
 1401 0466 B3F5805F 		cmp	r3, #4096
 1402 046a 40F0C780 		bne	.L56
1288:Drivers/STM32F4xx_HAL_Driver/Src/stm32f4xx_hal_pcd.c ****     {
1289:Drivers/STM32F4xx_HAL_Driver/Src/stm32f4xx_hal_pcd.c ****       USBx_DEVICE->DCTL &= ~USB_OTG_DCTL_RWUSIG;
 1403              		.loc 1 1289 25
 1404 046e FB69     		ldr	r3, [r7, #28]
 1405 0470 03F50063 		add	r3, r3, #2048
 1406 0474 5B68     		ldr	r3, [r3, #4]
 1407 0476 FA69     		ldr	r2, [r7, #28]
 1408 0478 02F50062 		add	r2, r2, #2048
 1409 047c 23F00103 		bic	r3, r3, #1
 1410 0480 5360     		str	r3, [r2, #4]
1290:Drivers/STM32F4xx_HAL_Driver/Src/stm32f4xx_hal_pcd.c ****       (void)USB_FlushTxFifo(hpcd->Instance, 0x10U);
 1411              		.loc 1 1290 33
 1412 0482 7B68     		ldr	r3, [r7, #4]
 1413 0484 1B68     		ldr	r3, [r3]
 1414              		.loc 1 1290 13
 1415 0486 1021     		movs	r1, #16
 1416 0488 1846     		mov	r0, r3
 1417 048a FFF7FEFF 		bl	USB_FlushTxFifo
1291:Drivers/STM32F4xx_HAL_Driver/Src/stm32f4xx_hal_pcd.c **** 
1292:Drivers/STM32F4xx_HAL_Driver/Src/stm32f4xx_hal_pcd.c ****       for (i = 0U; i < hpcd->Init.dev_endpoints; i++)
 1418              		.loc 1 1292 14
 1419 048e 0023     		movs	r3, #0
 1420 0490 FB62     		str	r3, [r7, #44]
 1421              		.loc 1 1292 7
 1422 0492 56E0     		b	.L57
 1423              	.L58:
1293:Drivers/STM32F4xx_HAL_Driver/Src/stm32f4xx_hal_pcd.c ****       {
1294:Drivers/STM32F4xx_HAL_Driver/Src/stm32f4xx_hal_pcd.c ****         USBx_INEP(i)->DIEPINT = 0xFB7FU;
 1424              		.loc 1 1294 9 discriminator 3
 1425 0494 FB6A     		ldr	r3, [r7, #44]
 1426 0496 5A01     		lsls	r2, r3, #5
 1427 0498 FB69     		ldr	r3, [r7, #28]
 1428 049a 1344     		add	r3, r3, r2
 1429 049c 03F51063 		add	r3, r3, #2304
 1430 04a0 1A46     		mov	r2, r3
 1431              		.loc 1 1294 31 discriminator 3
 1432 04a2 4FF67F33 		movw	r3, #64383
 1433 04a6 9360     		str	r3, [r2, #8]
1295:Drivers/STM32F4xx_HAL_Driver/Src/stm32f4xx_hal_pcd.c ****         USBx_INEP(i)->DIEPCTL &= ~USB_OTG_DIEPCTL_STALL;
 1434              		.loc 1 1295 31 discriminator 3
 1435 04a8 FB6A     		ldr	r3, [r7, #44]
 1436 04aa 5A01     		lsls	r2, r3, #5
 1437 04ac FB69     		ldr	r3, [r7, #28]
 1438 04ae 1344     		add	r3, r3, r2
 1439 04b0 03F51063 		add	r3, r3, #2304
 1440 04b4 1B68     		ldr	r3, [r3]
 1441 04b6 FA6A     		ldr	r2, [r7, #44]
ARM GAS  /var/folders/vq/qt4vp3kd5rxf7v2b6_fdtdt80000gn/T//cc6xBrdC.s 			page 49


 1442 04b8 5101     		lsls	r1, r2, #5
 1443 04ba FA69     		ldr	r2, [r7, #28]
 1444 04bc 0A44     		add	r2, r2, r1
 1445 04be 02F51062 		add	r2, r2, #2304
 1446 04c2 23F40013 		bic	r3, r3, #2097152
 1447 04c6 1360     		str	r3, [r2]
1296:Drivers/STM32F4xx_HAL_Driver/Src/stm32f4xx_hal_pcd.c ****         USBx_INEP(i)->DIEPCTL |= USB_OTG_DIEPCTL_SNAK;
 1448              		.loc 1 1296 31 discriminator 3
 1449 04c8 FB6A     		ldr	r3, [r7, #44]
 1450 04ca 5A01     		lsls	r2, r3, #5
 1451 04cc FB69     		ldr	r3, [r7, #28]
 1452 04ce 1344     		add	r3, r3, r2
 1453 04d0 03F51063 		add	r3, r3, #2304
 1454 04d4 1B68     		ldr	r3, [r3]
 1455 04d6 FA6A     		ldr	r2, [r7, #44]
 1456 04d8 5101     		lsls	r1, r2, #5
 1457 04da FA69     		ldr	r2, [r7, #28]
 1458 04dc 0A44     		add	r2, r2, r1
 1459 04de 02F51062 		add	r2, r2, #2304
 1460 04e2 43F00063 		orr	r3, r3, #134217728
 1461 04e6 1360     		str	r3, [r2]
1297:Drivers/STM32F4xx_HAL_Driver/Src/stm32f4xx_hal_pcd.c ****         USBx_OUTEP(i)->DOEPINT = 0xFB7FU;
 1462              		.loc 1 1297 9 discriminator 3
 1463 04e8 FB6A     		ldr	r3, [r7, #44]
 1464 04ea 5A01     		lsls	r2, r3, #5
 1465 04ec FB69     		ldr	r3, [r7, #28]
 1466 04ee 1344     		add	r3, r3, r2
 1467 04f0 03F53063 		add	r3, r3, #2816
 1468 04f4 1A46     		mov	r2, r3
 1469              		.loc 1 1297 32 discriminator 3
 1470 04f6 4FF67F33 		movw	r3, #64383
 1471 04fa 9360     		str	r3, [r2, #8]
1298:Drivers/STM32F4xx_HAL_Driver/Src/stm32f4xx_hal_pcd.c ****         USBx_OUTEP(i)->DOEPCTL &= ~USB_OTG_DOEPCTL_STALL;
 1472              		.loc 1 1298 32 discriminator 3
 1473 04fc FB6A     		ldr	r3, [r7, #44]
 1474 04fe 5A01     		lsls	r2, r3, #5
 1475 0500 FB69     		ldr	r3, [r7, #28]
 1476 0502 1344     		add	r3, r3, r2
 1477 0504 03F53063 		add	r3, r3, #2816
 1478 0508 1B68     		ldr	r3, [r3]
 1479 050a FA6A     		ldr	r2, [r7, #44]
 1480 050c 5101     		lsls	r1, r2, #5
 1481 050e FA69     		ldr	r2, [r7, #28]
 1482 0510 0A44     		add	r2, r2, r1
 1483 0512 02F53062 		add	r2, r2, #2816
 1484 0516 23F40013 		bic	r3, r3, #2097152
 1485 051a 1360     		str	r3, [r2]
1299:Drivers/STM32F4xx_HAL_Driver/Src/stm32f4xx_hal_pcd.c ****         USBx_OUTEP(i)->DOEPCTL |= USB_OTG_DOEPCTL_SNAK;
 1486              		.loc 1 1299 32 discriminator 3
 1487 051c FB6A     		ldr	r3, [r7, #44]
 1488 051e 5A01     		lsls	r2, r3, #5
 1489 0520 FB69     		ldr	r3, [r7, #28]
 1490 0522 1344     		add	r3, r3, r2
 1491 0524 03F53063 		add	r3, r3, #2816
 1492 0528 1B68     		ldr	r3, [r3]
 1493 052a FA6A     		ldr	r2, [r7, #44]
 1494 052c 5101     		lsls	r1, r2, #5
ARM GAS  /var/folders/vq/qt4vp3kd5rxf7v2b6_fdtdt80000gn/T//cc6xBrdC.s 			page 50


 1495 052e FA69     		ldr	r2, [r7, #28]
 1496 0530 0A44     		add	r2, r2, r1
 1497 0532 02F53062 		add	r2, r2, #2816
 1498 0536 43F00063 		orr	r3, r3, #134217728
 1499 053a 1360     		str	r3, [r2]
1292:Drivers/STM32F4xx_HAL_Driver/Src/stm32f4xx_hal_pcd.c ****       {
 1500              		.loc 1 1292 51 discriminator 3
 1501 053c FB6A     		ldr	r3, [r7, #44]
 1502 053e 0133     		adds	r3, r3, #1
 1503 0540 FB62     		str	r3, [r7, #44]
 1504              	.L57:
1292:Drivers/STM32F4xx_HAL_Driver/Src/stm32f4xx_hal_pcd.c ****       {
 1505              		.loc 1 1292 34 discriminator 1
 1506 0542 7B68     		ldr	r3, [r7, #4]
 1507 0544 5B68     		ldr	r3, [r3, #4]
1292:Drivers/STM32F4xx_HAL_Driver/Src/stm32f4xx_hal_pcd.c ****       {
 1508              		.loc 1 1292 7 discriminator 1
 1509 0546 FA6A     		ldr	r2, [r7, #44]
 1510 0548 9A42     		cmp	r2, r3
 1511 054a A3D3     		bcc	.L58
1300:Drivers/STM32F4xx_HAL_Driver/Src/stm32f4xx_hal_pcd.c ****       }
1301:Drivers/STM32F4xx_HAL_Driver/Src/stm32f4xx_hal_pcd.c ****       USBx_DEVICE->DAINTMSK |= 0x10001U;
 1512              		.loc 1 1301 29
 1513 054c FB69     		ldr	r3, [r7, #28]
 1514 054e 03F50063 		add	r3, r3, #2048
 1515 0552 DB69     		ldr	r3, [r3, #28]
 1516 0554 FA69     		ldr	r2, [r7, #28]
 1517 0556 02F50062 		add	r2, r2, #2048
 1518 055a 43F00113 		orr	r3, r3, #65537
 1519 055e D361     		str	r3, [r2, #28]
1302:Drivers/STM32F4xx_HAL_Driver/Src/stm32f4xx_hal_pcd.c **** 
1303:Drivers/STM32F4xx_HAL_Driver/Src/stm32f4xx_hal_pcd.c ****       if (hpcd->Init.use_dedicated_ep1 != 0U)
 1520              		.loc 1 1303 21
 1521 0560 7B68     		ldr	r3, [r7, #4]
 1522 0562 1B6B     		ldr	r3, [r3, #48]
 1523              		.loc 1 1303 10
 1524 0564 002B     		cmp	r3, #0
 1525 0566 16D0     		beq	.L59
1304:Drivers/STM32F4xx_HAL_Driver/Src/stm32f4xx_hal_pcd.c ****       {
1305:Drivers/STM32F4xx_HAL_Driver/Src/stm32f4xx_hal_pcd.c ****         USBx_DEVICE->DOUTEP1MSK |= USB_OTG_DOEPMSK_STUPM |
 1526              		.loc 1 1305 33
 1527 0568 FB69     		ldr	r3, [r7, #28]
 1528 056a 03F50063 		add	r3, r3, #2048
 1529 056e D3F88430 		ldr	r3, [r3, #132]
 1530 0572 FA69     		ldr	r2, [r7, #28]
 1531 0574 02F50062 		add	r2, r2, #2048
 1532 0578 43F00B03 		orr	r3, r3, #11
 1533 057c C2F88430 		str	r3, [r2, #132]
1306:Drivers/STM32F4xx_HAL_Driver/Src/stm32f4xx_hal_pcd.c ****                                    USB_OTG_DOEPMSK_XFRCM |
1307:Drivers/STM32F4xx_HAL_Driver/Src/stm32f4xx_hal_pcd.c ****                                    USB_OTG_DOEPMSK_EPDM;
1308:Drivers/STM32F4xx_HAL_Driver/Src/stm32f4xx_hal_pcd.c **** 
1309:Drivers/STM32F4xx_HAL_Driver/Src/stm32f4xx_hal_pcd.c ****         USBx_DEVICE->DINEP1MSK |= USB_OTG_DIEPMSK_TOM |
 1534              		.loc 1 1309 32
 1535 0580 FB69     		ldr	r3, [r7, #28]
 1536 0582 03F50063 		add	r3, r3, #2048
 1537 0586 5B6C     		ldr	r3, [r3, #68]
 1538 0588 FA69     		ldr	r2, [r7, #28]
ARM GAS  /var/folders/vq/qt4vp3kd5rxf7v2b6_fdtdt80000gn/T//cc6xBrdC.s 			page 51


 1539 058a 02F50062 		add	r2, r2, #2048
 1540 058e 43F00B03 		orr	r3, r3, #11
 1541 0592 5364     		str	r3, [r2, #68]
 1542 0594 15E0     		b	.L60
 1543              	.L59:
1310:Drivers/STM32F4xx_HAL_Driver/Src/stm32f4xx_hal_pcd.c ****                                   USB_OTG_DIEPMSK_XFRCM |
1311:Drivers/STM32F4xx_HAL_Driver/Src/stm32f4xx_hal_pcd.c ****                                   USB_OTG_DIEPMSK_EPDM;
1312:Drivers/STM32F4xx_HAL_Driver/Src/stm32f4xx_hal_pcd.c ****       }
1313:Drivers/STM32F4xx_HAL_Driver/Src/stm32f4xx_hal_pcd.c ****       else
1314:Drivers/STM32F4xx_HAL_Driver/Src/stm32f4xx_hal_pcd.c ****       {
1315:Drivers/STM32F4xx_HAL_Driver/Src/stm32f4xx_hal_pcd.c ****         USBx_DEVICE->DOEPMSK |= USB_OTG_DOEPMSK_STUPM |
 1544              		.loc 1 1315 30
 1545 0596 FB69     		ldr	r3, [r7, #28]
 1546 0598 03F50063 		add	r3, r3, #2048
 1547 059c 5B69     		ldr	r3, [r3, #20]
 1548 059e FA69     		ldr	r2, [r7, #28]
 1549 05a0 02F50062 		add	r2, r2, #2048
 1550 05a4 43F40053 		orr	r3, r3, #8192
 1551 05a8 43F02B03 		orr	r3, r3, #43
 1552 05ac 5361     		str	r3, [r2, #20]
1316:Drivers/STM32F4xx_HAL_Driver/Src/stm32f4xx_hal_pcd.c ****                                 USB_OTG_DOEPMSK_XFRCM |
1317:Drivers/STM32F4xx_HAL_Driver/Src/stm32f4xx_hal_pcd.c ****                                 USB_OTG_DOEPMSK_EPDM |
1318:Drivers/STM32F4xx_HAL_Driver/Src/stm32f4xx_hal_pcd.c ****                                 USB_OTG_DOEPMSK_OTEPSPRM |
1319:Drivers/STM32F4xx_HAL_Driver/Src/stm32f4xx_hal_pcd.c ****                                 USB_OTG_DOEPMSK_NAKM;
1320:Drivers/STM32F4xx_HAL_Driver/Src/stm32f4xx_hal_pcd.c **** 
1321:Drivers/STM32F4xx_HAL_Driver/Src/stm32f4xx_hal_pcd.c ****         USBx_DEVICE->DIEPMSK |= USB_OTG_DIEPMSK_TOM |
 1553              		.loc 1 1321 30
 1554 05ae FB69     		ldr	r3, [r7, #28]
 1555 05b0 03F50063 		add	r3, r3, #2048
 1556 05b4 1B69     		ldr	r3, [r3, #16]
 1557 05b6 FA69     		ldr	r2, [r7, #28]
 1558 05b8 02F50062 		add	r2, r2, #2048
 1559 05bc 43F00B03 		orr	r3, r3, #11
 1560 05c0 1361     		str	r3, [r2, #16]
 1561              	.L60:
1322:Drivers/STM32F4xx_HAL_Driver/Src/stm32f4xx_hal_pcd.c ****                                 USB_OTG_DIEPMSK_XFRCM |
1323:Drivers/STM32F4xx_HAL_Driver/Src/stm32f4xx_hal_pcd.c ****                                 USB_OTG_DIEPMSK_EPDM;
1324:Drivers/STM32F4xx_HAL_Driver/Src/stm32f4xx_hal_pcd.c ****       }
1325:Drivers/STM32F4xx_HAL_Driver/Src/stm32f4xx_hal_pcd.c **** 
1326:Drivers/STM32F4xx_HAL_Driver/Src/stm32f4xx_hal_pcd.c ****       /* Set Default Address to 0 */
1327:Drivers/STM32F4xx_HAL_Driver/Src/stm32f4xx_hal_pcd.c ****       USBx_DEVICE->DCFG &= ~USB_OTG_DCFG_DAD;
 1562              		.loc 1 1327 25
 1563 05c2 FB69     		ldr	r3, [r7, #28]
 1564 05c4 03F50063 		add	r3, r3, #2048
 1565 05c8 1B68     		ldr	r3, [r3]
 1566 05ca FA69     		ldr	r2, [r7, #28]
 1567 05cc 02F50062 		add	r2, r2, #2048
 1568 05d0 23F4FE63 		bic	r3, r3, #2032
 1569 05d4 1360     		str	r3, [r2]
1328:Drivers/STM32F4xx_HAL_Driver/Src/stm32f4xx_hal_pcd.c **** 
1329:Drivers/STM32F4xx_HAL_Driver/Src/stm32f4xx_hal_pcd.c ****       /* setup EP0 to receive SETUP packets */
1330:Drivers/STM32F4xx_HAL_Driver/Src/stm32f4xx_hal_pcd.c ****       (void)USB_EP0_OutStart(hpcd->Instance, (uint8_t)hpcd->Init.dma_enable,
 1570              		.loc 1 1330 34
 1571 05d6 7B68     		ldr	r3, [r7, #4]
 1572 05d8 1868     		ldr	r0, [r3]
 1573              		.loc 1 1330 65
 1574 05da 7B68     		ldr	r3, [r7, #4]
ARM GAS  /var/folders/vq/qt4vp3kd5rxf7v2b6_fdtdt80000gn/T//cc6xBrdC.s 			page 52


 1575 05dc 1B69     		ldr	r3, [r3, #16]
 1576              		.loc 1 1330 13
 1577 05de D9B2     		uxtb	r1, r3
1331:Drivers/STM32F4xx_HAL_Driver/Src/stm32f4xx_hal_pcd.c ****                              (uint8_t *)hpcd->Setup);
 1578              		.loc 1 1331 41
 1579 05e0 7B68     		ldr	r3, [r7, #4]
 1580 05e2 03F57173 		add	r3, r3, #964
1330:Drivers/STM32F4xx_HAL_Driver/Src/stm32f4xx_hal_pcd.c ****                              (uint8_t *)hpcd->Setup);
 1581              		.loc 1 1330 13
 1582 05e6 1A46     		mov	r2, r3
 1583 05e8 FFF7FEFF 		bl	USB_EP0_OutStart
1332:Drivers/STM32F4xx_HAL_Driver/Src/stm32f4xx_hal_pcd.c **** 
1333:Drivers/STM32F4xx_HAL_Driver/Src/stm32f4xx_hal_pcd.c ****       __HAL_PCD_CLEAR_FLAG(hpcd, USB_OTG_GINTSTS_USBRST);
 1584              		.loc 1 1333 7
 1585 05ec 7B68     		ldr	r3, [r7, #4]
 1586 05ee 1B68     		ldr	r3, [r3]
 1587 05f0 5A69     		ldr	r2, [r3, #20]
 1588 05f2 7B68     		ldr	r3, [r7, #4]
 1589 05f4 1B68     		ldr	r3, [r3]
 1590 05f6 02F48052 		and	r2, r2, #4096
 1591 05fa 5A61     		str	r2, [r3, #20]
 1592              	.L56:
1334:Drivers/STM32F4xx_HAL_Driver/Src/stm32f4xx_hal_pcd.c ****     }
1335:Drivers/STM32F4xx_HAL_Driver/Src/stm32f4xx_hal_pcd.c **** 
1336:Drivers/STM32F4xx_HAL_Driver/Src/stm32f4xx_hal_pcd.c ****     /* Handle Enumeration done Interrupt */
1337:Drivers/STM32F4xx_HAL_Driver/Src/stm32f4xx_hal_pcd.c ****     if (__HAL_PCD_GET_FLAG(hpcd, USB_OTG_GINTSTS_ENUMDNE))
 1593              		.loc 1 1337 9
 1594 05fc 7B68     		ldr	r3, [r7, #4]
 1595 05fe 1B68     		ldr	r3, [r3]
 1596 0600 1846     		mov	r0, r3
 1597 0602 FFF7FEFF 		bl	USB_ReadInterrupts
 1598 0606 0346     		mov	r3, r0
 1599 0608 03F40053 		and	r3, r3, #8192
 1600              		.loc 1 1337 8
 1601 060c B3F5005F 		cmp	r3, #8192
 1602 0610 24D1     		bne	.L61
1338:Drivers/STM32F4xx_HAL_Driver/Src/stm32f4xx_hal_pcd.c ****     {
1339:Drivers/STM32F4xx_HAL_Driver/Src/stm32f4xx_hal_pcd.c ****       (void)USB_ActivateSetup(hpcd->Instance);
 1603              		.loc 1 1339 35
 1604 0612 7B68     		ldr	r3, [r7, #4]
 1605 0614 1B68     		ldr	r3, [r3]
 1606              		.loc 1 1339 13
 1607 0616 1846     		mov	r0, r3
 1608 0618 FFF7FEFF 		bl	USB_ActivateSetup
1340:Drivers/STM32F4xx_HAL_Driver/Src/stm32f4xx_hal_pcd.c ****       hpcd->Init.speed = USB_GetDevSpeed(hpcd->Instance);
 1609              		.loc 1 1340 46
 1610 061c 7B68     		ldr	r3, [r7, #4]
 1611 061e 1B68     		ldr	r3, [r3]
 1612              		.loc 1 1340 26
 1613 0620 1846     		mov	r0, r3
 1614 0622 FFF7FEFF 		bl	USB_GetDevSpeed
 1615 0626 0346     		mov	r3, r0
 1616 0628 1A46     		mov	r2, r3
 1617              		.loc 1 1340 24
 1618 062a 7B68     		ldr	r3, [r7, #4]
 1619 062c DA60     		str	r2, [r3, #12]
1341:Drivers/STM32F4xx_HAL_Driver/Src/stm32f4xx_hal_pcd.c **** 
ARM GAS  /var/folders/vq/qt4vp3kd5rxf7v2b6_fdtdt80000gn/T//cc6xBrdC.s 			page 53


1342:Drivers/STM32F4xx_HAL_Driver/Src/stm32f4xx_hal_pcd.c ****       /* Set USB Turnaround time */
1343:Drivers/STM32F4xx_HAL_Driver/Src/stm32f4xx_hal_pcd.c ****       (void)USB_SetTurnaroundTime(hpcd->Instance,
 1620              		.loc 1 1343 39
 1621 062e 7B68     		ldr	r3, [r7, #4]
 1622 0630 1C68     		ldr	r4, [r3]
 1623              		.loc 1 1343 13
 1624 0632 FFF7FEFF 		bl	HAL_RCC_GetHCLKFreq
 1625 0636 0146     		mov	r1, r0
1344:Drivers/STM32F4xx_HAL_Driver/Src/stm32f4xx_hal_pcd.c ****                                   HAL_RCC_GetHCLKFreq(),
1345:Drivers/STM32F4xx_HAL_Driver/Src/stm32f4xx_hal_pcd.c ****                                   (uint8_t)hpcd->Init.speed);
 1626              		.loc 1 1345 54
 1627 0638 7B68     		ldr	r3, [r7, #4]
 1628 063a DB68     		ldr	r3, [r3, #12]
1343:Drivers/STM32F4xx_HAL_Driver/Src/stm32f4xx_hal_pcd.c ****                                   HAL_RCC_GetHCLKFreq(),
 1629              		.loc 1 1343 13
 1630 063c DBB2     		uxtb	r3, r3
 1631 063e 1A46     		mov	r2, r3
 1632 0640 2046     		mov	r0, r4
 1633 0642 FFF7FEFF 		bl	USB_SetTurnaroundTime
1346:Drivers/STM32F4xx_HAL_Driver/Src/stm32f4xx_hal_pcd.c **** 
1347:Drivers/STM32F4xx_HAL_Driver/Src/stm32f4xx_hal_pcd.c **** #if (USE_HAL_PCD_REGISTER_CALLBACKS == 1U)
1348:Drivers/STM32F4xx_HAL_Driver/Src/stm32f4xx_hal_pcd.c ****       hpcd->ResetCallback(hpcd);
1349:Drivers/STM32F4xx_HAL_Driver/Src/stm32f4xx_hal_pcd.c **** #else
1350:Drivers/STM32F4xx_HAL_Driver/Src/stm32f4xx_hal_pcd.c ****       HAL_PCD_ResetCallback(hpcd);
 1634              		.loc 1 1350 7
 1635 0646 7868     		ldr	r0, [r7, #4]
 1636 0648 FFF7FEFF 		bl	HAL_PCD_ResetCallback
1351:Drivers/STM32F4xx_HAL_Driver/Src/stm32f4xx_hal_pcd.c **** #endif /* USE_HAL_PCD_REGISTER_CALLBACKS */
1352:Drivers/STM32F4xx_HAL_Driver/Src/stm32f4xx_hal_pcd.c **** 
1353:Drivers/STM32F4xx_HAL_Driver/Src/stm32f4xx_hal_pcd.c ****       __HAL_PCD_CLEAR_FLAG(hpcd, USB_OTG_GINTSTS_ENUMDNE);
 1637              		.loc 1 1353 7
 1638 064c 7B68     		ldr	r3, [r7, #4]
 1639 064e 1B68     		ldr	r3, [r3]
 1640 0650 5A69     		ldr	r2, [r3, #20]
 1641 0652 7B68     		ldr	r3, [r7, #4]
 1642 0654 1B68     		ldr	r3, [r3]
 1643 0656 02F40052 		and	r2, r2, #8192
 1644 065a 5A61     		str	r2, [r3, #20]
 1645              	.L61:
1354:Drivers/STM32F4xx_HAL_Driver/Src/stm32f4xx_hal_pcd.c ****     }
1355:Drivers/STM32F4xx_HAL_Driver/Src/stm32f4xx_hal_pcd.c **** 
1356:Drivers/STM32F4xx_HAL_Driver/Src/stm32f4xx_hal_pcd.c ****     /* Handle SOF Interrupt */
1357:Drivers/STM32F4xx_HAL_Driver/Src/stm32f4xx_hal_pcd.c ****     if (__HAL_PCD_GET_FLAG(hpcd, USB_OTG_GINTSTS_SOF))
 1646              		.loc 1 1357 9
 1647 065c 7B68     		ldr	r3, [r7, #4]
 1648 065e 1B68     		ldr	r3, [r3]
 1649 0660 1846     		mov	r0, r3
 1650 0662 FFF7FEFF 		bl	USB_ReadInterrupts
 1651 0666 0346     		mov	r3, r0
 1652 0668 03F00803 		and	r3, r3, #8
 1653              		.loc 1 1357 8
 1654 066c 082B     		cmp	r3, #8
 1655 066e 0AD1     		bne	.L62
1358:Drivers/STM32F4xx_HAL_Driver/Src/stm32f4xx_hal_pcd.c ****     {
1359:Drivers/STM32F4xx_HAL_Driver/Src/stm32f4xx_hal_pcd.c **** #if (USE_HAL_PCD_REGISTER_CALLBACKS == 1U)
1360:Drivers/STM32F4xx_HAL_Driver/Src/stm32f4xx_hal_pcd.c ****       hpcd->SOFCallback(hpcd);
1361:Drivers/STM32F4xx_HAL_Driver/Src/stm32f4xx_hal_pcd.c **** #else
ARM GAS  /var/folders/vq/qt4vp3kd5rxf7v2b6_fdtdt80000gn/T//cc6xBrdC.s 			page 54


1362:Drivers/STM32F4xx_HAL_Driver/Src/stm32f4xx_hal_pcd.c ****       HAL_PCD_SOFCallback(hpcd);
 1656              		.loc 1 1362 7
 1657 0670 7868     		ldr	r0, [r7, #4]
 1658 0672 FFF7FEFF 		bl	HAL_PCD_SOFCallback
1363:Drivers/STM32F4xx_HAL_Driver/Src/stm32f4xx_hal_pcd.c **** #endif /* USE_HAL_PCD_REGISTER_CALLBACKS */
1364:Drivers/STM32F4xx_HAL_Driver/Src/stm32f4xx_hal_pcd.c **** 
1365:Drivers/STM32F4xx_HAL_Driver/Src/stm32f4xx_hal_pcd.c ****       __HAL_PCD_CLEAR_FLAG(hpcd, USB_OTG_GINTSTS_SOF);
 1659              		.loc 1 1365 7
 1660 0676 7B68     		ldr	r3, [r7, #4]
 1661 0678 1B68     		ldr	r3, [r3]
 1662 067a 5A69     		ldr	r2, [r3, #20]
 1663 067c 7B68     		ldr	r3, [r7, #4]
 1664 067e 1B68     		ldr	r3, [r3]
 1665 0680 02F00802 		and	r2, r2, #8
 1666 0684 5A61     		str	r2, [r3, #20]
 1667              	.L62:
1366:Drivers/STM32F4xx_HAL_Driver/Src/stm32f4xx_hal_pcd.c ****     }
1367:Drivers/STM32F4xx_HAL_Driver/Src/stm32f4xx_hal_pcd.c **** 
1368:Drivers/STM32F4xx_HAL_Driver/Src/stm32f4xx_hal_pcd.c ****     /* Handle Incomplete ISO IN Interrupt */
1369:Drivers/STM32F4xx_HAL_Driver/Src/stm32f4xx_hal_pcd.c ****     if (__HAL_PCD_GET_FLAG(hpcd, USB_OTG_GINTSTS_IISOIXFR))
 1668              		.loc 1 1369 9
 1669 0686 7B68     		ldr	r3, [r7, #4]
 1670 0688 1B68     		ldr	r3, [r3]
 1671 068a 1846     		mov	r0, r3
 1672 068c FFF7FEFF 		bl	USB_ReadInterrupts
 1673 0690 0346     		mov	r3, r0
 1674 0692 03F48013 		and	r3, r3, #1048576
 1675              		.loc 1 1369 8
 1676 0696 B3F5801F 		cmp	r3, #1048576
 1677 069a 0FD1     		bne	.L63
1370:Drivers/STM32F4xx_HAL_Driver/Src/stm32f4xx_hal_pcd.c ****     {
1371:Drivers/STM32F4xx_HAL_Driver/Src/stm32f4xx_hal_pcd.c ****       /* Keep application checking the corresponding Iso IN endpoint
1372:Drivers/STM32F4xx_HAL_Driver/Src/stm32f4xx_hal_pcd.c ****       causing the incomplete Interrupt */
1373:Drivers/STM32F4xx_HAL_Driver/Src/stm32f4xx_hal_pcd.c ****       epnum = 0U;
 1678              		.loc 1 1373 13
 1679 069c 0023     		movs	r3, #0
 1680 069e 7B62     		str	r3, [r7, #36]
1374:Drivers/STM32F4xx_HAL_Driver/Src/stm32f4xx_hal_pcd.c **** 
1375:Drivers/STM32F4xx_HAL_Driver/Src/stm32f4xx_hal_pcd.c **** #if (USE_HAL_PCD_REGISTER_CALLBACKS == 1U)
1376:Drivers/STM32F4xx_HAL_Driver/Src/stm32f4xx_hal_pcd.c ****       hpcd->ISOINIncompleteCallback(hpcd, (uint8_t)epnum);
1377:Drivers/STM32F4xx_HAL_Driver/Src/stm32f4xx_hal_pcd.c **** #else
1378:Drivers/STM32F4xx_HAL_Driver/Src/stm32f4xx_hal_pcd.c ****       HAL_PCD_ISOINIncompleteCallback(hpcd, (uint8_t)epnum);
 1681              		.loc 1 1378 7
 1682 06a0 7B6A     		ldr	r3, [r7, #36]
 1683 06a2 DBB2     		uxtb	r3, r3
 1684 06a4 1946     		mov	r1, r3
 1685 06a6 7868     		ldr	r0, [r7, #4]
 1686 06a8 FFF7FEFF 		bl	HAL_PCD_ISOINIncompleteCallback
1379:Drivers/STM32F4xx_HAL_Driver/Src/stm32f4xx_hal_pcd.c **** #endif /* USE_HAL_PCD_REGISTER_CALLBACKS */
1380:Drivers/STM32F4xx_HAL_Driver/Src/stm32f4xx_hal_pcd.c **** 
1381:Drivers/STM32F4xx_HAL_Driver/Src/stm32f4xx_hal_pcd.c ****       __HAL_PCD_CLEAR_FLAG(hpcd, USB_OTG_GINTSTS_IISOIXFR);
 1687              		.loc 1 1381 7
 1688 06ac 7B68     		ldr	r3, [r7, #4]
 1689 06ae 1B68     		ldr	r3, [r3]
 1690 06b0 5A69     		ldr	r2, [r3, #20]
 1691 06b2 7B68     		ldr	r3, [r7, #4]
 1692 06b4 1B68     		ldr	r3, [r3]
ARM GAS  /var/folders/vq/qt4vp3kd5rxf7v2b6_fdtdt80000gn/T//cc6xBrdC.s 			page 55


 1693 06b6 02F48012 		and	r2, r2, #1048576
 1694 06ba 5A61     		str	r2, [r3, #20]
 1695              	.L63:
1382:Drivers/STM32F4xx_HAL_Driver/Src/stm32f4xx_hal_pcd.c ****     }
1383:Drivers/STM32F4xx_HAL_Driver/Src/stm32f4xx_hal_pcd.c **** 
1384:Drivers/STM32F4xx_HAL_Driver/Src/stm32f4xx_hal_pcd.c ****     /* Handle Incomplete ISO OUT Interrupt */
1385:Drivers/STM32F4xx_HAL_Driver/Src/stm32f4xx_hal_pcd.c ****     if (__HAL_PCD_GET_FLAG(hpcd, USB_OTG_GINTSTS_PXFR_INCOMPISOOUT))
 1696              		.loc 1 1385 9
 1697 06bc 7B68     		ldr	r3, [r7, #4]
 1698 06be 1B68     		ldr	r3, [r3]
 1699 06c0 1846     		mov	r0, r3
 1700 06c2 FFF7FEFF 		bl	USB_ReadInterrupts
 1701 06c6 0346     		mov	r3, r0
 1702 06c8 03F40013 		and	r3, r3, #2097152
 1703              		.loc 1 1385 8
 1704 06cc B3F5001F 		cmp	r3, #2097152
 1705 06d0 0FD1     		bne	.L64
1386:Drivers/STM32F4xx_HAL_Driver/Src/stm32f4xx_hal_pcd.c ****     {
1387:Drivers/STM32F4xx_HAL_Driver/Src/stm32f4xx_hal_pcd.c ****       /* Keep application checking the corresponding Iso OUT endpoint
1388:Drivers/STM32F4xx_HAL_Driver/Src/stm32f4xx_hal_pcd.c ****       causing the incomplete Interrupt */
1389:Drivers/STM32F4xx_HAL_Driver/Src/stm32f4xx_hal_pcd.c ****       epnum = 0U;
 1706              		.loc 1 1389 13
 1707 06d2 0023     		movs	r3, #0
 1708 06d4 7B62     		str	r3, [r7, #36]
1390:Drivers/STM32F4xx_HAL_Driver/Src/stm32f4xx_hal_pcd.c **** 
1391:Drivers/STM32F4xx_HAL_Driver/Src/stm32f4xx_hal_pcd.c **** #if (USE_HAL_PCD_REGISTER_CALLBACKS == 1U)
1392:Drivers/STM32F4xx_HAL_Driver/Src/stm32f4xx_hal_pcd.c ****       hpcd->ISOOUTIncompleteCallback(hpcd, (uint8_t)epnum);
1393:Drivers/STM32F4xx_HAL_Driver/Src/stm32f4xx_hal_pcd.c **** #else
1394:Drivers/STM32F4xx_HAL_Driver/Src/stm32f4xx_hal_pcd.c ****       HAL_PCD_ISOOUTIncompleteCallback(hpcd, (uint8_t)epnum);
 1709              		.loc 1 1394 7
 1710 06d6 7B6A     		ldr	r3, [r7, #36]
 1711 06d8 DBB2     		uxtb	r3, r3
 1712 06da 1946     		mov	r1, r3
 1713 06dc 7868     		ldr	r0, [r7, #4]
 1714 06de FFF7FEFF 		bl	HAL_PCD_ISOOUTIncompleteCallback
1395:Drivers/STM32F4xx_HAL_Driver/Src/stm32f4xx_hal_pcd.c **** #endif /* USE_HAL_PCD_REGISTER_CALLBACKS */
1396:Drivers/STM32F4xx_HAL_Driver/Src/stm32f4xx_hal_pcd.c **** 
1397:Drivers/STM32F4xx_HAL_Driver/Src/stm32f4xx_hal_pcd.c ****       __HAL_PCD_CLEAR_FLAG(hpcd, USB_OTG_GINTSTS_PXFR_INCOMPISOOUT);
 1715              		.loc 1 1397 7
 1716 06e2 7B68     		ldr	r3, [r7, #4]
 1717 06e4 1B68     		ldr	r3, [r3]
 1718 06e6 5A69     		ldr	r2, [r3, #20]
 1719 06e8 7B68     		ldr	r3, [r7, #4]
 1720 06ea 1B68     		ldr	r3, [r3]
 1721 06ec 02F40012 		and	r2, r2, #2097152
 1722 06f0 5A61     		str	r2, [r3, #20]
 1723              	.L64:
1398:Drivers/STM32F4xx_HAL_Driver/Src/stm32f4xx_hal_pcd.c ****     }
1399:Drivers/STM32F4xx_HAL_Driver/Src/stm32f4xx_hal_pcd.c **** 
1400:Drivers/STM32F4xx_HAL_Driver/Src/stm32f4xx_hal_pcd.c ****     /* Handle Connection event Interrupt */
1401:Drivers/STM32F4xx_HAL_Driver/Src/stm32f4xx_hal_pcd.c ****     if (__HAL_PCD_GET_FLAG(hpcd, USB_OTG_GINTSTS_SRQINT))
 1724              		.loc 1 1401 9
 1725 06f2 7B68     		ldr	r3, [r7, #4]
 1726 06f4 1B68     		ldr	r3, [r3]
 1727 06f6 1846     		mov	r0, r3
 1728 06f8 FFF7FEFF 		bl	USB_ReadInterrupts
 1729 06fc 0346     		mov	r3, r0
ARM GAS  /var/folders/vq/qt4vp3kd5rxf7v2b6_fdtdt80000gn/T//cc6xBrdC.s 			page 56


 1730 06fe 03F08043 		and	r3, r3, #1073741824
 1731              		.loc 1 1401 8
 1732 0702 B3F1804F 		cmp	r3, #1073741824
 1733 0706 0AD1     		bne	.L65
1402:Drivers/STM32F4xx_HAL_Driver/Src/stm32f4xx_hal_pcd.c ****     {
1403:Drivers/STM32F4xx_HAL_Driver/Src/stm32f4xx_hal_pcd.c **** #if (USE_HAL_PCD_REGISTER_CALLBACKS == 1U)
1404:Drivers/STM32F4xx_HAL_Driver/Src/stm32f4xx_hal_pcd.c ****       hpcd->ConnectCallback(hpcd);
1405:Drivers/STM32F4xx_HAL_Driver/Src/stm32f4xx_hal_pcd.c **** #else
1406:Drivers/STM32F4xx_HAL_Driver/Src/stm32f4xx_hal_pcd.c ****       HAL_PCD_ConnectCallback(hpcd);
 1734              		.loc 1 1406 7
 1735 0708 7868     		ldr	r0, [r7, #4]
 1736 070a FFF7FEFF 		bl	HAL_PCD_ConnectCallback
1407:Drivers/STM32F4xx_HAL_Driver/Src/stm32f4xx_hal_pcd.c **** #endif /* USE_HAL_PCD_REGISTER_CALLBACKS */
1408:Drivers/STM32F4xx_HAL_Driver/Src/stm32f4xx_hal_pcd.c **** 
1409:Drivers/STM32F4xx_HAL_Driver/Src/stm32f4xx_hal_pcd.c ****       __HAL_PCD_CLEAR_FLAG(hpcd, USB_OTG_GINTSTS_SRQINT);
 1737              		.loc 1 1409 7
 1738 070e 7B68     		ldr	r3, [r7, #4]
 1739 0710 1B68     		ldr	r3, [r3]
 1740 0712 5A69     		ldr	r2, [r3, #20]
 1741 0714 7B68     		ldr	r3, [r7, #4]
 1742 0716 1B68     		ldr	r3, [r3]
 1743 0718 02F08042 		and	r2, r2, #1073741824
 1744 071c 5A61     		str	r2, [r3, #20]
 1745              	.L65:
1410:Drivers/STM32F4xx_HAL_Driver/Src/stm32f4xx_hal_pcd.c ****     }
1411:Drivers/STM32F4xx_HAL_Driver/Src/stm32f4xx_hal_pcd.c **** 
1412:Drivers/STM32F4xx_HAL_Driver/Src/stm32f4xx_hal_pcd.c ****     /* Handle Disconnection event Interrupt */
1413:Drivers/STM32F4xx_HAL_Driver/Src/stm32f4xx_hal_pcd.c ****     if (__HAL_PCD_GET_FLAG(hpcd, USB_OTG_GINTSTS_OTGINT))
 1746              		.loc 1 1413 9
 1747 071e 7B68     		ldr	r3, [r7, #4]
 1748 0720 1B68     		ldr	r3, [r3]
 1749 0722 1846     		mov	r0, r3
 1750 0724 FFF7FEFF 		bl	USB_ReadInterrupts
 1751 0728 0346     		mov	r3, r0
 1752 072a 03F00403 		and	r3, r3, #4
 1753              		.loc 1 1413 8
 1754 072e 042B     		cmp	r3, #4
 1755 0730 15D1     		bne	.L26
1414:Drivers/STM32F4xx_HAL_Driver/Src/stm32f4xx_hal_pcd.c ****     {
1415:Drivers/STM32F4xx_HAL_Driver/Src/stm32f4xx_hal_pcd.c ****       temp = hpcd->Instance->GOTGINT;
 1756              		.loc 1 1415 18
 1757 0732 7B68     		ldr	r3, [r7, #4]
 1758 0734 1B68     		ldr	r3, [r3]
 1759              		.loc 1 1415 12
 1760 0736 5B68     		ldr	r3, [r3, #4]
 1761 0738 BB61     		str	r3, [r7, #24]
1416:Drivers/STM32F4xx_HAL_Driver/Src/stm32f4xx_hal_pcd.c **** 
1417:Drivers/STM32F4xx_HAL_Driver/Src/stm32f4xx_hal_pcd.c ****       if ((temp & USB_OTG_GOTGINT_SEDET) == USB_OTG_GOTGINT_SEDET)
 1762              		.loc 1 1417 17
 1763 073a BB69     		ldr	r3, [r7, #24]
 1764 073c 03F00403 		and	r3, r3, #4
 1765              		.loc 1 1417 10
 1766 0740 002B     		cmp	r3, #0
 1767 0742 02D0     		beq	.L66
1418:Drivers/STM32F4xx_HAL_Driver/Src/stm32f4xx_hal_pcd.c ****       {
1419:Drivers/STM32F4xx_HAL_Driver/Src/stm32f4xx_hal_pcd.c **** #if (USE_HAL_PCD_REGISTER_CALLBACKS == 1U)
1420:Drivers/STM32F4xx_HAL_Driver/Src/stm32f4xx_hal_pcd.c ****         hpcd->DisconnectCallback(hpcd);
ARM GAS  /var/folders/vq/qt4vp3kd5rxf7v2b6_fdtdt80000gn/T//cc6xBrdC.s 			page 57


1421:Drivers/STM32F4xx_HAL_Driver/Src/stm32f4xx_hal_pcd.c **** #else
1422:Drivers/STM32F4xx_HAL_Driver/Src/stm32f4xx_hal_pcd.c ****         HAL_PCD_DisconnectCallback(hpcd);
 1768              		.loc 1 1422 9
 1769 0744 7868     		ldr	r0, [r7, #4]
 1770 0746 FFF7FEFF 		bl	HAL_PCD_DisconnectCallback
 1771              	.L66:
1423:Drivers/STM32F4xx_HAL_Driver/Src/stm32f4xx_hal_pcd.c **** #endif /* USE_HAL_PCD_REGISTER_CALLBACKS */
1424:Drivers/STM32F4xx_HAL_Driver/Src/stm32f4xx_hal_pcd.c ****       }
1425:Drivers/STM32F4xx_HAL_Driver/Src/stm32f4xx_hal_pcd.c ****       hpcd->Instance->GOTGINT |= temp;
 1772              		.loc 1 1425 11
 1773 074a 7B68     		ldr	r3, [r7, #4]
 1774 074c 1B68     		ldr	r3, [r3]
 1775              		.loc 1 1425 31
 1776 074e 5968     		ldr	r1, [r3, #4]
 1777              		.loc 1 1425 11
 1778 0750 7B68     		ldr	r3, [r7, #4]
 1779 0752 1B68     		ldr	r3, [r3]
 1780              		.loc 1 1425 31
 1781 0754 BA69     		ldr	r2, [r7, #24]
 1782 0756 0A43     		orrs	r2, r2, r1
 1783 0758 5A60     		str	r2, [r3, #4]
 1784 075a 00E0     		b	.L26
 1785              	.L67:
1065:Drivers/STM32F4xx_HAL_Driver/Src/stm32f4xx_hal_pcd.c ****     }
 1786              		.loc 1 1065 7
 1787 075c 00BF     		nop
 1788              	.L26:
1426:Drivers/STM32F4xx_HAL_Driver/Src/stm32f4xx_hal_pcd.c ****     }
1427:Drivers/STM32F4xx_HAL_Driver/Src/stm32f4xx_hal_pcd.c ****   }
1428:Drivers/STM32F4xx_HAL_Driver/Src/stm32f4xx_hal_pcd.c **** }
 1789              		.loc 1 1428 1
 1790 075e 3437     		adds	r7, r7, #52
 1791              	.LCFI35:
 1792              		.cfi_def_cfa_offset 12
 1793 0760 BD46     		mov	sp, r7
 1794              	.LCFI36:
 1795              		.cfi_def_cfa_register 13
 1796              		@ sp needed
 1797 0762 90BD     		pop	{r4, r7, pc}
 1798              		.cfi_endproc
 1799              	.LFE136:
 1801              		.section	.text.HAL_PCD_WKUP_IRQHandler,"ax",%progbits
 1802              		.align	1
 1803              		.global	HAL_PCD_WKUP_IRQHandler
 1804              		.syntax unified
 1805              		.thumb
 1806              		.thumb_func
 1807              		.fpu fpv4-sp-d16
 1809              	HAL_PCD_WKUP_IRQHandler:
 1810              	.LFB137:
1429:Drivers/STM32F4xx_HAL_Driver/Src/stm32f4xx_hal_pcd.c **** 
1430:Drivers/STM32F4xx_HAL_Driver/Src/stm32f4xx_hal_pcd.c **** 
1431:Drivers/STM32F4xx_HAL_Driver/Src/stm32f4xx_hal_pcd.c **** /**
1432:Drivers/STM32F4xx_HAL_Driver/Src/stm32f4xx_hal_pcd.c ****   * @brief  Handles PCD Wakeup interrupt request.
1433:Drivers/STM32F4xx_HAL_Driver/Src/stm32f4xx_hal_pcd.c ****   * @param  hpcd PCD handle
1434:Drivers/STM32F4xx_HAL_Driver/Src/stm32f4xx_hal_pcd.c ****   * @retval HAL status
1435:Drivers/STM32F4xx_HAL_Driver/Src/stm32f4xx_hal_pcd.c ****   */
ARM GAS  /var/folders/vq/qt4vp3kd5rxf7v2b6_fdtdt80000gn/T//cc6xBrdC.s 			page 58


1436:Drivers/STM32F4xx_HAL_Driver/Src/stm32f4xx_hal_pcd.c **** void HAL_PCD_WKUP_IRQHandler(PCD_HandleTypeDef *hpcd)
1437:Drivers/STM32F4xx_HAL_Driver/Src/stm32f4xx_hal_pcd.c **** {
 1811              		.loc 1 1437 1
 1812              		.cfi_startproc
 1813              		@ args = 0, pretend = 0, frame = 16
 1814              		@ frame_needed = 1, uses_anonymous_args = 0
 1815              		@ link register save eliminated.
 1816 0000 80B4     		push	{r7}
 1817              	.LCFI37:
 1818              		.cfi_def_cfa_offset 4
 1819              		.cfi_offset 7, -4
 1820 0002 85B0     		sub	sp, sp, #20
 1821              	.LCFI38:
 1822              		.cfi_def_cfa_offset 24
 1823 0004 00AF     		add	r7, sp, #0
 1824              	.LCFI39:
 1825              		.cfi_def_cfa_register 7
 1826 0006 7860     		str	r0, [r7, #4]
1438:Drivers/STM32F4xx_HAL_Driver/Src/stm32f4xx_hal_pcd.c ****   USB_OTG_GlobalTypeDef *USBx;
1439:Drivers/STM32F4xx_HAL_Driver/Src/stm32f4xx_hal_pcd.c **** 
1440:Drivers/STM32F4xx_HAL_Driver/Src/stm32f4xx_hal_pcd.c ****   USBx = hpcd->Instance;
 1827              		.loc 1 1440 8
 1828 0008 7B68     		ldr	r3, [r7, #4]
 1829 000a 1B68     		ldr	r3, [r3]
 1830 000c FB60     		str	r3, [r7, #12]
1441:Drivers/STM32F4xx_HAL_Driver/Src/stm32f4xx_hal_pcd.c **** 
1442:Drivers/STM32F4xx_HAL_Driver/Src/stm32f4xx_hal_pcd.c ****   if ((USBx->CID & (0x1U << 8)) == 0U)
 1831              		.loc 1 1442 12
 1832 000e FB68     		ldr	r3, [r7, #12]
 1833 0010 DB6B     		ldr	r3, [r3, #60]
 1834              		.loc 1 1442 18
 1835 0012 03F48073 		and	r3, r3, #256
 1836              		.loc 1 1442 6
 1837 0016 002B     		cmp	r3, #0
 1838 0018 04D1     		bne	.L69
1443:Drivers/STM32F4xx_HAL_Driver/Src/stm32f4xx_hal_pcd.c ****   {
1444:Drivers/STM32F4xx_HAL_Driver/Src/stm32f4xx_hal_pcd.c ****     /* Clear EXTI pending Bit */
1445:Drivers/STM32F4xx_HAL_Driver/Src/stm32f4xx_hal_pcd.c ****     __HAL_USB_OTG_FS_WAKEUP_EXTI_CLEAR_FLAG();
 1839              		.loc 1 1445 5
 1840 001a 074B     		ldr	r3, .L72
 1841 001c 4FF48022 		mov	r2, #262144
 1842 0020 5A61     		str	r2, [r3, #20]
1446:Drivers/STM32F4xx_HAL_Driver/Src/stm32f4xx_hal_pcd.c ****   }
1447:Drivers/STM32F4xx_HAL_Driver/Src/stm32f4xx_hal_pcd.c ****   else
1448:Drivers/STM32F4xx_HAL_Driver/Src/stm32f4xx_hal_pcd.c ****   {
1449:Drivers/STM32F4xx_HAL_Driver/Src/stm32f4xx_hal_pcd.c ****     /* Clear EXTI pending Bit */
1450:Drivers/STM32F4xx_HAL_Driver/Src/stm32f4xx_hal_pcd.c ****     __HAL_USB_OTG_HS_WAKEUP_EXTI_CLEAR_FLAG();
1451:Drivers/STM32F4xx_HAL_Driver/Src/stm32f4xx_hal_pcd.c ****   }
1452:Drivers/STM32F4xx_HAL_Driver/Src/stm32f4xx_hal_pcd.c **** }
 1843              		.loc 1 1452 1
 1844 0022 03E0     		b	.L71
 1845              	.L69:
1450:Drivers/STM32F4xx_HAL_Driver/Src/stm32f4xx_hal_pcd.c ****   }
 1846              		.loc 1 1450 5
 1847 0024 044B     		ldr	r3, .L72
 1848 0026 4FF48012 		mov	r2, #1048576
 1849 002a 5A61     		str	r2, [r3, #20]
ARM GAS  /var/folders/vq/qt4vp3kd5rxf7v2b6_fdtdt80000gn/T//cc6xBrdC.s 			page 59


 1850              	.L71:
 1851              		.loc 1 1452 1
 1852 002c 00BF     		nop
 1853 002e 1437     		adds	r7, r7, #20
 1854              	.LCFI40:
 1855              		.cfi_def_cfa_offset 4
 1856 0030 BD46     		mov	sp, r7
 1857              	.LCFI41:
 1858              		.cfi_def_cfa_register 13
 1859              		@ sp needed
 1860 0032 5DF8047B 		ldr	r7, [sp], #4
 1861              	.LCFI42:
 1862              		.cfi_restore 7
 1863              		.cfi_def_cfa_offset 0
 1864 0036 7047     		bx	lr
 1865              	.L73:
 1866              		.align	2
 1867              	.L72:
 1868 0038 003C0140 		.word	1073822720
 1869              		.cfi_endproc
 1870              	.LFE137:
 1872              		.section	.text.HAL_PCD_DataOutStageCallback,"ax",%progbits
 1873              		.align	1
 1874              		.weak	HAL_PCD_DataOutStageCallback
 1875              		.syntax unified
 1876              		.thumb
 1877              		.thumb_func
 1878              		.fpu fpv4-sp-d16
 1880              	HAL_PCD_DataOutStageCallback:
 1881              	.LFB138:
1453:Drivers/STM32F4xx_HAL_Driver/Src/stm32f4xx_hal_pcd.c **** #endif /* defined (USB_OTG_FS) || defined (USB_OTG_HS) */
1454:Drivers/STM32F4xx_HAL_Driver/Src/stm32f4xx_hal_pcd.c **** 
1455:Drivers/STM32F4xx_HAL_Driver/Src/stm32f4xx_hal_pcd.c **** 
1456:Drivers/STM32F4xx_HAL_Driver/Src/stm32f4xx_hal_pcd.c **** /**
1457:Drivers/STM32F4xx_HAL_Driver/Src/stm32f4xx_hal_pcd.c ****   * @brief  Data OUT stage callback.
1458:Drivers/STM32F4xx_HAL_Driver/Src/stm32f4xx_hal_pcd.c ****   * @param  hpcd PCD handle
1459:Drivers/STM32F4xx_HAL_Driver/Src/stm32f4xx_hal_pcd.c ****   * @param  epnum endpoint number
1460:Drivers/STM32F4xx_HAL_Driver/Src/stm32f4xx_hal_pcd.c ****   * @retval None
1461:Drivers/STM32F4xx_HAL_Driver/Src/stm32f4xx_hal_pcd.c ****   */
1462:Drivers/STM32F4xx_HAL_Driver/Src/stm32f4xx_hal_pcd.c **** __weak void HAL_PCD_DataOutStageCallback(PCD_HandleTypeDef *hpcd, uint8_t epnum)
1463:Drivers/STM32F4xx_HAL_Driver/Src/stm32f4xx_hal_pcd.c **** {
 1882              		.loc 1 1463 1
 1883              		.cfi_startproc
 1884              		@ args = 0, pretend = 0, frame = 8
 1885              		@ frame_needed = 1, uses_anonymous_args = 0
 1886              		@ link register save eliminated.
 1887 0000 80B4     		push	{r7}
 1888              	.LCFI43:
 1889              		.cfi_def_cfa_offset 4
 1890              		.cfi_offset 7, -4
 1891 0002 83B0     		sub	sp, sp, #12
 1892              	.LCFI44:
 1893              		.cfi_def_cfa_offset 16
 1894 0004 00AF     		add	r7, sp, #0
 1895              	.LCFI45:
 1896              		.cfi_def_cfa_register 7
 1897 0006 7860     		str	r0, [r7, #4]
ARM GAS  /var/folders/vq/qt4vp3kd5rxf7v2b6_fdtdt80000gn/T//cc6xBrdC.s 			page 60


 1898 0008 0B46     		mov	r3, r1
 1899 000a FB70     		strb	r3, [r7, #3]
1464:Drivers/STM32F4xx_HAL_Driver/Src/stm32f4xx_hal_pcd.c ****   /* Prevent unused argument(s) compilation warning */
1465:Drivers/STM32F4xx_HAL_Driver/Src/stm32f4xx_hal_pcd.c ****   UNUSED(hpcd);
1466:Drivers/STM32F4xx_HAL_Driver/Src/stm32f4xx_hal_pcd.c ****   UNUSED(epnum);
1467:Drivers/STM32F4xx_HAL_Driver/Src/stm32f4xx_hal_pcd.c **** 
1468:Drivers/STM32F4xx_HAL_Driver/Src/stm32f4xx_hal_pcd.c ****   /* NOTE : This function should not be modified, when the callback is needed,
1469:Drivers/STM32F4xx_HAL_Driver/Src/stm32f4xx_hal_pcd.c ****             the HAL_PCD_DataOutStageCallback could be implemented in the user file
1470:Drivers/STM32F4xx_HAL_Driver/Src/stm32f4xx_hal_pcd.c ****    */
1471:Drivers/STM32F4xx_HAL_Driver/Src/stm32f4xx_hal_pcd.c **** }
 1900              		.loc 1 1471 1
 1901 000c 00BF     		nop
 1902 000e 0C37     		adds	r7, r7, #12
 1903              	.LCFI46:
 1904              		.cfi_def_cfa_offset 4
 1905 0010 BD46     		mov	sp, r7
 1906              	.LCFI47:
 1907              		.cfi_def_cfa_register 13
 1908              		@ sp needed
 1909 0012 5DF8047B 		ldr	r7, [sp], #4
 1910              	.LCFI48:
 1911              		.cfi_restore 7
 1912              		.cfi_def_cfa_offset 0
 1913 0016 7047     		bx	lr
 1914              		.cfi_endproc
 1915              	.LFE138:
 1917              		.section	.text.HAL_PCD_DataInStageCallback,"ax",%progbits
 1918              		.align	1
 1919              		.weak	HAL_PCD_DataInStageCallback
 1920              		.syntax unified
 1921              		.thumb
 1922              		.thumb_func
 1923              		.fpu fpv4-sp-d16
 1925              	HAL_PCD_DataInStageCallback:
 1926              	.LFB139:
1472:Drivers/STM32F4xx_HAL_Driver/Src/stm32f4xx_hal_pcd.c **** 
1473:Drivers/STM32F4xx_HAL_Driver/Src/stm32f4xx_hal_pcd.c **** /**
1474:Drivers/STM32F4xx_HAL_Driver/Src/stm32f4xx_hal_pcd.c ****   * @brief  Data IN stage callback
1475:Drivers/STM32F4xx_HAL_Driver/Src/stm32f4xx_hal_pcd.c ****   * @param  hpcd PCD handle
1476:Drivers/STM32F4xx_HAL_Driver/Src/stm32f4xx_hal_pcd.c ****   * @param  epnum endpoint number
1477:Drivers/STM32F4xx_HAL_Driver/Src/stm32f4xx_hal_pcd.c ****   * @retval None
1478:Drivers/STM32F4xx_HAL_Driver/Src/stm32f4xx_hal_pcd.c ****   */
1479:Drivers/STM32F4xx_HAL_Driver/Src/stm32f4xx_hal_pcd.c **** __weak void HAL_PCD_DataInStageCallback(PCD_HandleTypeDef *hpcd, uint8_t epnum)
1480:Drivers/STM32F4xx_HAL_Driver/Src/stm32f4xx_hal_pcd.c **** {
 1927              		.loc 1 1480 1
 1928              		.cfi_startproc
 1929              		@ args = 0, pretend = 0, frame = 8
 1930              		@ frame_needed = 1, uses_anonymous_args = 0
 1931              		@ link register save eliminated.
 1932 0000 80B4     		push	{r7}
 1933              	.LCFI49:
 1934              		.cfi_def_cfa_offset 4
 1935              		.cfi_offset 7, -4
 1936 0002 83B0     		sub	sp, sp, #12
 1937              	.LCFI50:
 1938              		.cfi_def_cfa_offset 16
 1939 0004 00AF     		add	r7, sp, #0
ARM GAS  /var/folders/vq/qt4vp3kd5rxf7v2b6_fdtdt80000gn/T//cc6xBrdC.s 			page 61


 1940              	.LCFI51:
 1941              		.cfi_def_cfa_register 7
 1942 0006 7860     		str	r0, [r7, #4]
 1943 0008 0B46     		mov	r3, r1
 1944 000a FB70     		strb	r3, [r7, #3]
1481:Drivers/STM32F4xx_HAL_Driver/Src/stm32f4xx_hal_pcd.c ****   /* Prevent unused argument(s) compilation warning */
1482:Drivers/STM32F4xx_HAL_Driver/Src/stm32f4xx_hal_pcd.c ****   UNUSED(hpcd);
1483:Drivers/STM32F4xx_HAL_Driver/Src/stm32f4xx_hal_pcd.c ****   UNUSED(epnum);
1484:Drivers/STM32F4xx_HAL_Driver/Src/stm32f4xx_hal_pcd.c **** 
1485:Drivers/STM32F4xx_HAL_Driver/Src/stm32f4xx_hal_pcd.c ****   /* NOTE : This function should not be modified, when the callback is needed,
1486:Drivers/STM32F4xx_HAL_Driver/Src/stm32f4xx_hal_pcd.c ****             the HAL_PCD_DataInStageCallback could be implemented in the user file
1487:Drivers/STM32F4xx_HAL_Driver/Src/stm32f4xx_hal_pcd.c ****    */
1488:Drivers/STM32F4xx_HAL_Driver/Src/stm32f4xx_hal_pcd.c **** }
 1945              		.loc 1 1488 1
 1946 000c 00BF     		nop
 1947 000e 0C37     		adds	r7, r7, #12
 1948              	.LCFI52:
 1949              		.cfi_def_cfa_offset 4
 1950 0010 BD46     		mov	sp, r7
 1951              	.LCFI53:
 1952              		.cfi_def_cfa_register 13
 1953              		@ sp needed
 1954 0012 5DF8047B 		ldr	r7, [sp], #4
 1955              	.LCFI54:
 1956              		.cfi_restore 7
 1957              		.cfi_def_cfa_offset 0
 1958 0016 7047     		bx	lr
 1959              		.cfi_endproc
 1960              	.LFE139:
 1962              		.section	.text.HAL_PCD_SetupStageCallback,"ax",%progbits
 1963              		.align	1
 1964              		.weak	HAL_PCD_SetupStageCallback
 1965              		.syntax unified
 1966              		.thumb
 1967              		.thumb_func
 1968              		.fpu fpv4-sp-d16
 1970              	HAL_PCD_SetupStageCallback:
 1971              	.LFB140:
1489:Drivers/STM32F4xx_HAL_Driver/Src/stm32f4xx_hal_pcd.c **** /**
1490:Drivers/STM32F4xx_HAL_Driver/Src/stm32f4xx_hal_pcd.c ****   * @brief  Setup stage callback
1491:Drivers/STM32F4xx_HAL_Driver/Src/stm32f4xx_hal_pcd.c ****   * @param  hpcd PCD handle
1492:Drivers/STM32F4xx_HAL_Driver/Src/stm32f4xx_hal_pcd.c ****   * @retval None
1493:Drivers/STM32F4xx_HAL_Driver/Src/stm32f4xx_hal_pcd.c ****   */
1494:Drivers/STM32F4xx_HAL_Driver/Src/stm32f4xx_hal_pcd.c **** __weak void HAL_PCD_SetupStageCallback(PCD_HandleTypeDef *hpcd)
1495:Drivers/STM32F4xx_HAL_Driver/Src/stm32f4xx_hal_pcd.c **** {
 1972              		.loc 1 1495 1
 1973              		.cfi_startproc
 1974              		@ args = 0, pretend = 0, frame = 8
 1975              		@ frame_needed = 1, uses_anonymous_args = 0
 1976              		@ link register save eliminated.
 1977 0000 80B4     		push	{r7}
 1978              	.LCFI55:
 1979              		.cfi_def_cfa_offset 4
 1980              		.cfi_offset 7, -4
 1981 0002 83B0     		sub	sp, sp, #12
 1982              	.LCFI56:
 1983              		.cfi_def_cfa_offset 16
ARM GAS  /var/folders/vq/qt4vp3kd5rxf7v2b6_fdtdt80000gn/T//cc6xBrdC.s 			page 62


 1984 0004 00AF     		add	r7, sp, #0
 1985              	.LCFI57:
 1986              		.cfi_def_cfa_register 7
 1987 0006 7860     		str	r0, [r7, #4]
1496:Drivers/STM32F4xx_HAL_Driver/Src/stm32f4xx_hal_pcd.c ****   /* Prevent unused argument(s) compilation warning */
1497:Drivers/STM32F4xx_HAL_Driver/Src/stm32f4xx_hal_pcd.c ****   UNUSED(hpcd);
1498:Drivers/STM32F4xx_HAL_Driver/Src/stm32f4xx_hal_pcd.c **** 
1499:Drivers/STM32F4xx_HAL_Driver/Src/stm32f4xx_hal_pcd.c ****   /* NOTE : This function should not be modified, when the callback is needed,
1500:Drivers/STM32F4xx_HAL_Driver/Src/stm32f4xx_hal_pcd.c ****             the HAL_PCD_SetupStageCallback could be implemented in the user file
1501:Drivers/STM32F4xx_HAL_Driver/Src/stm32f4xx_hal_pcd.c ****    */
1502:Drivers/STM32F4xx_HAL_Driver/Src/stm32f4xx_hal_pcd.c **** }
 1988              		.loc 1 1502 1
 1989 0008 00BF     		nop
 1990 000a 0C37     		adds	r7, r7, #12
 1991              	.LCFI58:
 1992              		.cfi_def_cfa_offset 4
 1993 000c BD46     		mov	sp, r7
 1994              	.LCFI59:
 1995              		.cfi_def_cfa_register 13
 1996              		@ sp needed
 1997 000e 5DF8047B 		ldr	r7, [sp], #4
 1998              	.LCFI60:
 1999              		.cfi_restore 7
 2000              		.cfi_def_cfa_offset 0
 2001 0012 7047     		bx	lr
 2002              		.cfi_endproc
 2003              	.LFE140:
 2005              		.section	.text.HAL_PCD_SOFCallback,"ax",%progbits
 2006              		.align	1
 2007              		.weak	HAL_PCD_SOFCallback
 2008              		.syntax unified
 2009              		.thumb
 2010              		.thumb_func
 2011              		.fpu fpv4-sp-d16
 2013              	HAL_PCD_SOFCallback:
 2014              	.LFB141:
1503:Drivers/STM32F4xx_HAL_Driver/Src/stm32f4xx_hal_pcd.c **** 
1504:Drivers/STM32F4xx_HAL_Driver/Src/stm32f4xx_hal_pcd.c **** /**
1505:Drivers/STM32F4xx_HAL_Driver/Src/stm32f4xx_hal_pcd.c ****   * @brief  USB Start Of Frame callback.
1506:Drivers/STM32F4xx_HAL_Driver/Src/stm32f4xx_hal_pcd.c ****   * @param  hpcd PCD handle
1507:Drivers/STM32F4xx_HAL_Driver/Src/stm32f4xx_hal_pcd.c ****   * @retval None
1508:Drivers/STM32F4xx_HAL_Driver/Src/stm32f4xx_hal_pcd.c ****   */
1509:Drivers/STM32F4xx_HAL_Driver/Src/stm32f4xx_hal_pcd.c **** __weak void HAL_PCD_SOFCallback(PCD_HandleTypeDef *hpcd)
1510:Drivers/STM32F4xx_HAL_Driver/Src/stm32f4xx_hal_pcd.c **** {
 2015              		.loc 1 1510 1
 2016              		.cfi_startproc
 2017              		@ args = 0, pretend = 0, frame = 8
 2018              		@ frame_needed = 1, uses_anonymous_args = 0
 2019              		@ link register save eliminated.
 2020 0000 80B4     		push	{r7}
 2021              	.LCFI61:
 2022              		.cfi_def_cfa_offset 4
 2023              		.cfi_offset 7, -4
 2024 0002 83B0     		sub	sp, sp, #12
 2025              	.LCFI62:
 2026              		.cfi_def_cfa_offset 16
 2027 0004 00AF     		add	r7, sp, #0
ARM GAS  /var/folders/vq/qt4vp3kd5rxf7v2b6_fdtdt80000gn/T//cc6xBrdC.s 			page 63


 2028              	.LCFI63:
 2029              		.cfi_def_cfa_register 7
 2030 0006 7860     		str	r0, [r7, #4]
1511:Drivers/STM32F4xx_HAL_Driver/Src/stm32f4xx_hal_pcd.c ****   /* Prevent unused argument(s) compilation warning */
1512:Drivers/STM32F4xx_HAL_Driver/Src/stm32f4xx_hal_pcd.c ****   UNUSED(hpcd);
1513:Drivers/STM32F4xx_HAL_Driver/Src/stm32f4xx_hal_pcd.c **** 
1514:Drivers/STM32F4xx_HAL_Driver/Src/stm32f4xx_hal_pcd.c ****   /* NOTE : This function should not be modified, when the callback is needed,
1515:Drivers/STM32F4xx_HAL_Driver/Src/stm32f4xx_hal_pcd.c ****             the HAL_PCD_SOFCallback could be implemented in the user file
1516:Drivers/STM32F4xx_HAL_Driver/Src/stm32f4xx_hal_pcd.c ****    */
1517:Drivers/STM32F4xx_HAL_Driver/Src/stm32f4xx_hal_pcd.c **** }
 2031              		.loc 1 1517 1
 2032 0008 00BF     		nop
 2033 000a 0C37     		adds	r7, r7, #12
 2034              	.LCFI64:
 2035              		.cfi_def_cfa_offset 4
 2036 000c BD46     		mov	sp, r7
 2037              	.LCFI65:
 2038              		.cfi_def_cfa_register 13
 2039              		@ sp needed
 2040 000e 5DF8047B 		ldr	r7, [sp], #4
 2041              	.LCFI66:
 2042              		.cfi_restore 7
 2043              		.cfi_def_cfa_offset 0
 2044 0012 7047     		bx	lr
 2045              		.cfi_endproc
 2046              	.LFE141:
 2048              		.section	.text.HAL_PCD_ResetCallback,"ax",%progbits
 2049              		.align	1
 2050              		.weak	HAL_PCD_ResetCallback
 2051              		.syntax unified
 2052              		.thumb
 2053              		.thumb_func
 2054              		.fpu fpv4-sp-d16
 2056              	HAL_PCD_ResetCallback:
 2057              	.LFB142:
1518:Drivers/STM32F4xx_HAL_Driver/Src/stm32f4xx_hal_pcd.c **** 
1519:Drivers/STM32F4xx_HAL_Driver/Src/stm32f4xx_hal_pcd.c **** /**
1520:Drivers/STM32F4xx_HAL_Driver/Src/stm32f4xx_hal_pcd.c ****   * @brief  USB Reset callback.
1521:Drivers/STM32F4xx_HAL_Driver/Src/stm32f4xx_hal_pcd.c ****   * @param  hpcd PCD handle
1522:Drivers/STM32F4xx_HAL_Driver/Src/stm32f4xx_hal_pcd.c ****   * @retval None
1523:Drivers/STM32F4xx_HAL_Driver/Src/stm32f4xx_hal_pcd.c ****   */
1524:Drivers/STM32F4xx_HAL_Driver/Src/stm32f4xx_hal_pcd.c **** __weak void HAL_PCD_ResetCallback(PCD_HandleTypeDef *hpcd)
1525:Drivers/STM32F4xx_HAL_Driver/Src/stm32f4xx_hal_pcd.c **** {
 2058              		.loc 1 1525 1
 2059              		.cfi_startproc
 2060              		@ args = 0, pretend = 0, frame = 8
 2061              		@ frame_needed = 1, uses_anonymous_args = 0
 2062              		@ link register save eliminated.
 2063 0000 80B4     		push	{r7}
 2064              	.LCFI67:
 2065              		.cfi_def_cfa_offset 4
 2066              		.cfi_offset 7, -4
 2067 0002 83B0     		sub	sp, sp, #12
 2068              	.LCFI68:
 2069              		.cfi_def_cfa_offset 16
 2070 0004 00AF     		add	r7, sp, #0
 2071              	.LCFI69:
ARM GAS  /var/folders/vq/qt4vp3kd5rxf7v2b6_fdtdt80000gn/T//cc6xBrdC.s 			page 64


 2072              		.cfi_def_cfa_register 7
 2073 0006 7860     		str	r0, [r7, #4]
1526:Drivers/STM32F4xx_HAL_Driver/Src/stm32f4xx_hal_pcd.c ****   /* Prevent unused argument(s) compilation warning */
1527:Drivers/STM32F4xx_HAL_Driver/Src/stm32f4xx_hal_pcd.c ****   UNUSED(hpcd);
1528:Drivers/STM32F4xx_HAL_Driver/Src/stm32f4xx_hal_pcd.c **** 
1529:Drivers/STM32F4xx_HAL_Driver/Src/stm32f4xx_hal_pcd.c ****   /* NOTE : This function should not be modified, when the callback is needed,
1530:Drivers/STM32F4xx_HAL_Driver/Src/stm32f4xx_hal_pcd.c ****             the HAL_PCD_ResetCallback could be implemented in the user file
1531:Drivers/STM32F4xx_HAL_Driver/Src/stm32f4xx_hal_pcd.c ****    */
1532:Drivers/STM32F4xx_HAL_Driver/Src/stm32f4xx_hal_pcd.c **** }
 2074              		.loc 1 1532 1
 2075 0008 00BF     		nop
 2076 000a 0C37     		adds	r7, r7, #12
 2077              	.LCFI70:
 2078              		.cfi_def_cfa_offset 4
 2079 000c BD46     		mov	sp, r7
 2080              	.LCFI71:
 2081              		.cfi_def_cfa_register 13
 2082              		@ sp needed
 2083 000e 5DF8047B 		ldr	r7, [sp], #4
 2084              	.LCFI72:
 2085              		.cfi_restore 7
 2086              		.cfi_def_cfa_offset 0
 2087 0012 7047     		bx	lr
 2088              		.cfi_endproc
 2089              	.LFE142:
 2091              		.section	.text.HAL_PCD_SuspendCallback,"ax",%progbits
 2092              		.align	1
 2093              		.weak	HAL_PCD_SuspendCallback
 2094              		.syntax unified
 2095              		.thumb
 2096              		.thumb_func
 2097              		.fpu fpv4-sp-d16
 2099              	HAL_PCD_SuspendCallback:
 2100              	.LFB143:
1533:Drivers/STM32F4xx_HAL_Driver/Src/stm32f4xx_hal_pcd.c **** 
1534:Drivers/STM32F4xx_HAL_Driver/Src/stm32f4xx_hal_pcd.c **** /**
1535:Drivers/STM32F4xx_HAL_Driver/Src/stm32f4xx_hal_pcd.c ****   * @brief  Suspend event callback.
1536:Drivers/STM32F4xx_HAL_Driver/Src/stm32f4xx_hal_pcd.c ****   * @param  hpcd PCD handle
1537:Drivers/STM32F4xx_HAL_Driver/Src/stm32f4xx_hal_pcd.c ****   * @retval None
1538:Drivers/STM32F4xx_HAL_Driver/Src/stm32f4xx_hal_pcd.c ****   */
1539:Drivers/STM32F4xx_HAL_Driver/Src/stm32f4xx_hal_pcd.c **** __weak void HAL_PCD_SuspendCallback(PCD_HandleTypeDef *hpcd)
1540:Drivers/STM32F4xx_HAL_Driver/Src/stm32f4xx_hal_pcd.c **** {
 2101              		.loc 1 1540 1
 2102              		.cfi_startproc
 2103              		@ args = 0, pretend = 0, frame = 8
 2104              		@ frame_needed = 1, uses_anonymous_args = 0
 2105              		@ link register save eliminated.
 2106 0000 80B4     		push	{r7}
 2107              	.LCFI73:
 2108              		.cfi_def_cfa_offset 4
 2109              		.cfi_offset 7, -4
 2110 0002 83B0     		sub	sp, sp, #12
 2111              	.LCFI74:
 2112              		.cfi_def_cfa_offset 16
 2113 0004 00AF     		add	r7, sp, #0
 2114              	.LCFI75:
 2115              		.cfi_def_cfa_register 7
ARM GAS  /var/folders/vq/qt4vp3kd5rxf7v2b6_fdtdt80000gn/T//cc6xBrdC.s 			page 65


 2116 0006 7860     		str	r0, [r7, #4]
1541:Drivers/STM32F4xx_HAL_Driver/Src/stm32f4xx_hal_pcd.c ****   /* Prevent unused argument(s) compilation warning */
1542:Drivers/STM32F4xx_HAL_Driver/Src/stm32f4xx_hal_pcd.c ****   UNUSED(hpcd);
1543:Drivers/STM32F4xx_HAL_Driver/Src/stm32f4xx_hal_pcd.c **** 
1544:Drivers/STM32F4xx_HAL_Driver/Src/stm32f4xx_hal_pcd.c ****   /* NOTE : This function should not be modified, when the callback is needed,
1545:Drivers/STM32F4xx_HAL_Driver/Src/stm32f4xx_hal_pcd.c ****             the HAL_PCD_SuspendCallback could be implemented in the user file
1546:Drivers/STM32F4xx_HAL_Driver/Src/stm32f4xx_hal_pcd.c ****    */
1547:Drivers/STM32F4xx_HAL_Driver/Src/stm32f4xx_hal_pcd.c **** }
 2117              		.loc 1 1547 1
 2118 0008 00BF     		nop
 2119 000a 0C37     		adds	r7, r7, #12
 2120              	.LCFI76:
 2121              		.cfi_def_cfa_offset 4
 2122 000c BD46     		mov	sp, r7
 2123              	.LCFI77:
 2124              		.cfi_def_cfa_register 13
 2125              		@ sp needed
 2126 000e 5DF8047B 		ldr	r7, [sp], #4
 2127              	.LCFI78:
 2128              		.cfi_restore 7
 2129              		.cfi_def_cfa_offset 0
 2130 0012 7047     		bx	lr
 2131              		.cfi_endproc
 2132              	.LFE143:
 2134              		.section	.text.HAL_PCD_ResumeCallback,"ax",%progbits
 2135              		.align	1
 2136              		.weak	HAL_PCD_ResumeCallback
 2137              		.syntax unified
 2138              		.thumb
 2139              		.thumb_func
 2140              		.fpu fpv4-sp-d16
 2142              	HAL_PCD_ResumeCallback:
 2143              	.LFB144:
1548:Drivers/STM32F4xx_HAL_Driver/Src/stm32f4xx_hal_pcd.c **** 
1549:Drivers/STM32F4xx_HAL_Driver/Src/stm32f4xx_hal_pcd.c **** /**
1550:Drivers/STM32F4xx_HAL_Driver/Src/stm32f4xx_hal_pcd.c ****   * @brief  Resume event callback.
1551:Drivers/STM32F4xx_HAL_Driver/Src/stm32f4xx_hal_pcd.c ****   * @param  hpcd PCD handle
1552:Drivers/STM32F4xx_HAL_Driver/Src/stm32f4xx_hal_pcd.c ****   * @retval None
1553:Drivers/STM32F4xx_HAL_Driver/Src/stm32f4xx_hal_pcd.c ****   */
1554:Drivers/STM32F4xx_HAL_Driver/Src/stm32f4xx_hal_pcd.c **** __weak void HAL_PCD_ResumeCallback(PCD_HandleTypeDef *hpcd)
1555:Drivers/STM32F4xx_HAL_Driver/Src/stm32f4xx_hal_pcd.c **** {
 2144              		.loc 1 1555 1
 2145              		.cfi_startproc
 2146              		@ args = 0, pretend = 0, frame = 8
 2147              		@ frame_needed = 1, uses_anonymous_args = 0
 2148              		@ link register save eliminated.
 2149 0000 80B4     		push	{r7}
 2150              	.LCFI79:
 2151              		.cfi_def_cfa_offset 4
 2152              		.cfi_offset 7, -4
 2153 0002 83B0     		sub	sp, sp, #12
 2154              	.LCFI80:
 2155              		.cfi_def_cfa_offset 16
 2156 0004 00AF     		add	r7, sp, #0
 2157              	.LCFI81:
 2158              		.cfi_def_cfa_register 7
 2159 0006 7860     		str	r0, [r7, #4]
ARM GAS  /var/folders/vq/qt4vp3kd5rxf7v2b6_fdtdt80000gn/T//cc6xBrdC.s 			page 66


1556:Drivers/STM32F4xx_HAL_Driver/Src/stm32f4xx_hal_pcd.c ****   /* Prevent unused argument(s) compilation warning */
1557:Drivers/STM32F4xx_HAL_Driver/Src/stm32f4xx_hal_pcd.c ****   UNUSED(hpcd);
1558:Drivers/STM32F4xx_HAL_Driver/Src/stm32f4xx_hal_pcd.c **** 
1559:Drivers/STM32F4xx_HAL_Driver/Src/stm32f4xx_hal_pcd.c ****   /* NOTE : This function should not be modified, when the callback is needed,
1560:Drivers/STM32F4xx_HAL_Driver/Src/stm32f4xx_hal_pcd.c ****             the HAL_PCD_ResumeCallback could be implemented in the user file
1561:Drivers/STM32F4xx_HAL_Driver/Src/stm32f4xx_hal_pcd.c ****    */
1562:Drivers/STM32F4xx_HAL_Driver/Src/stm32f4xx_hal_pcd.c **** }
 2160              		.loc 1 1562 1
 2161 0008 00BF     		nop
 2162 000a 0C37     		adds	r7, r7, #12
 2163              	.LCFI82:
 2164              		.cfi_def_cfa_offset 4
 2165 000c BD46     		mov	sp, r7
 2166              	.LCFI83:
 2167              		.cfi_def_cfa_register 13
 2168              		@ sp needed
 2169 000e 5DF8047B 		ldr	r7, [sp], #4
 2170              	.LCFI84:
 2171              		.cfi_restore 7
 2172              		.cfi_def_cfa_offset 0
 2173 0012 7047     		bx	lr
 2174              		.cfi_endproc
 2175              	.LFE144:
 2177              		.section	.text.HAL_PCD_ISOOUTIncompleteCallback,"ax",%progbits
 2178              		.align	1
 2179              		.weak	HAL_PCD_ISOOUTIncompleteCallback
 2180              		.syntax unified
 2181              		.thumb
 2182              		.thumb_func
 2183              		.fpu fpv4-sp-d16
 2185              	HAL_PCD_ISOOUTIncompleteCallback:
 2186              	.LFB145:
1563:Drivers/STM32F4xx_HAL_Driver/Src/stm32f4xx_hal_pcd.c **** 
1564:Drivers/STM32F4xx_HAL_Driver/Src/stm32f4xx_hal_pcd.c **** /**
1565:Drivers/STM32F4xx_HAL_Driver/Src/stm32f4xx_hal_pcd.c ****   * @brief  Incomplete ISO OUT callback.
1566:Drivers/STM32F4xx_HAL_Driver/Src/stm32f4xx_hal_pcd.c ****   * @param  hpcd PCD handle
1567:Drivers/STM32F4xx_HAL_Driver/Src/stm32f4xx_hal_pcd.c ****   * @param  epnum endpoint number
1568:Drivers/STM32F4xx_HAL_Driver/Src/stm32f4xx_hal_pcd.c ****   * @retval None
1569:Drivers/STM32F4xx_HAL_Driver/Src/stm32f4xx_hal_pcd.c ****   */
1570:Drivers/STM32F4xx_HAL_Driver/Src/stm32f4xx_hal_pcd.c **** __weak void HAL_PCD_ISOOUTIncompleteCallback(PCD_HandleTypeDef *hpcd, uint8_t epnum)
1571:Drivers/STM32F4xx_HAL_Driver/Src/stm32f4xx_hal_pcd.c **** {
 2187              		.loc 1 1571 1
 2188              		.cfi_startproc
 2189              		@ args = 0, pretend = 0, frame = 8
 2190              		@ frame_needed = 1, uses_anonymous_args = 0
 2191              		@ link register save eliminated.
 2192 0000 80B4     		push	{r7}
 2193              	.LCFI85:
 2194              		.cfi_def_cfa_offset 4
 2195              		.cfi_offset 7, -4
 2196 0002 83B0     		sub	sp, sp, #12
 2197              	.LCFI86:
 2198              		.cfi_def_cfa_offset 16
 2199 0004 00AF     		add	r7, sp, #0
 2200              	.LCFI87:
 2201              		.cfi_def_cfa_register 7
 2202 0006 7860     		str	r0, [r7, #4]
ARM GAS  /var/folders/vq/qt4vp3kd5rxf7v2b6_fdtdt80000gn/T//cc6xBrdC.s 			page 67


 2203 0008 0B46     		mov	r3, r1
 2204 000a FB70     		strb	r3, [r7, #3]
1572:Drivers/STM32F4xx_HAL_Driver/Src/stm32f4xx_hal_pcd.c ****   /* Prevent unused argument(s) compilation warning */
1573:Drivers/STM32F4xx_HAL_Driver/Src/stm32f4xx_hal_pcd.c ****   UNUSED(hpcd);
1574:Drivers/STM32F4xx_HAL_Driver/Src/stm32f4xx_hal_pcd.c ****   UNUSED(epnum);
1575:Drivers/STM32F4xx_HAL_Driver/Src/stm32f4xx_hal_pcd.c **** 
1576:Drivers/STM32F4xx_HAL_Driver/Src/stm32f4xx_hal_pcd.c ****   /* NOTE : This function should not be modified, when the callback is needed,
1577:Drivers/STM32F4xx_HAL_Driver/Src/stm32f4xx_hal_pcd.c ****             the HAL_PCD_ISOOUTIncompleteCallback could be implemented in the user file
1578:Drivers/STM32F4xx_HAL_Driver/Src/stm32f4xx_hal_pcd.c ****    */
1579:Drivers/STM32F4xx_HAL_Driver/Src/stm32f4xx_hal_pcd.c **** }
 2205              		.loc 1 1579 1
 2206 000c 00BF     		nop
 2207 000e 0C37     		adds	r7, r7, #12
 2208              	.LCFI88:
 2209              		.cfi_def_cfa_offset 4
 2210 0010 BD46     		mov	sp, r7
 2211              	.LCFI89:
 2212              		.cfi_def_cfa_register 13
 2213              		@ sp needed
 2214 0012 5DF8047B 		ldr	r7, [sp], #4
 2215              	.LCFI90:
 2216              		.cfi_restore 7
 2217              		.cfi_def_cfa_offset 0
 2218 0016 7047     		bx	lr
 2219              		.cfi_endproc
 2220              	.LFE145:
 2222              		.section	.text.HAL_PCD_ISOINIncompleteCallback,"ax",%progbits
 2223              		.align	1
 2224              		.weak	HAL_PCD_ISOINIncompleteCallback
 2225              		.syntax unified
 2226              		.thumb
 2227              		.thumb_func
 2228              		.fpu fpv4-sp-d16
 2230              	HAL_PCD_ISOINIncompleteCallback:
 2231              	.LFB146:
1580:Drivers/STM32F4xx_HAL_Driver/Src/stm32f4xx_hal_pcd.c **** 
1581:Drivers/STM32F4xx_HAL_Driver/Src/stm32f4xx_hal_pcd.c **** /**
1582:Drivers/STM32F4xx_HAL_Driver/Src/stm32f4xx_hal_pcd.c ****   * @brief  Incomplete ISO IN callback.
1583:Drivers/STM32F4xx_HAL_Driver/Src/stm32f4xx_hal_pcd.c ****   * @param  hpcd PCD handle
1584:Drivers/STM32F4xx_HAL_Driver/Src/stm32f4xx_hal_pcd.c ****   * @param  epnum endpoint number
1585:Drivers/STM32F4xx_HAL_Driver/Src/stm32f4xx_hal_pcd.c ****   * @retval None
1586:Drivers/STM32F4xx_HAL_Driver/Src/stm32f4xx_hal_pcd.c ****   */
1587:Drivers/STM32F4xx_HAL_Driver/Src/stm32f4xx_hal_pcd.c **** __weak void HAL_PCD_ISOINIncompleteCallback(PCD_HandleTypeDef *hpcd, uint8_t epnum)
1588:Drivers/STM32F4xx_HAL_Driver/Src/stm32f4xx_hal_pcd.c **** {
 2232              		.loc 1 1588 1
 2233              		.cfi_startproc
 2234              		@ args = 0, pretend = 0, frame = 8
 2235              		@ frame_needed = 1, uses_anonymous_args = 0
 2236              		@ link register save eliminated.
 2237 0000 80B4     		push	{r7}
 2238              	.LCFI91:
 2239              		.cfi_def_cfa_offset 4
 2240              		.cfi_offset 7, -4
 2241 0002 83B0     		sub	sp, sp, #12
 2242              	.LCFI92:
 2243              		.cfi_def_cfa_offset 16
 2244 0004 00AF     		add	r7, sp, #0
ARM GAS  /var/folders/vq/qt4vp3kd5rxf7v2b6_fdtdt80000gn/T//cc6xBrdC.s 			page 68


 2245              	.LCFI93:
 2246              		.cfi_def_cfa_register 7
 2247 0006 7860     		str	r0, [r7, #4]
 2248 0008 0B46     		mov	r3, r1
 2249 000a FB70     		strb	r3, [r7, #3]
1589:Drivers/STM32F4xx_HAL_Driver/Src/stm32f4xx_hal_pcd.c ****   /* Prevent unused argument(s) compilation warning */
1590:Drivers/STM32F4xx_HAL_Driver/Src/stm32f4xx_hal_pcd.c ****   UNUSED(hpcd);
1591:Drivers/STM32F4xx_HAL_Driver/Src/stm32f4xx_hal_pcd.c ****   UNUSED(epnum);
1592:Drivers/STM32F4xx_HAL_Driver/Src/stm32f4xx_hal_pcd.c **** 
1593:Drivers/STM32F4xx_HAL_Driver/Src/stm32f4xx_hal_pcd.c ****   /* NOTE : This function should not be modified, when the callback is needed,
1594:Drivers/STM32F4xx_HAL_Driver/Src/stm32f4xx_hal_pcd.c ****             the HAL_PCD_ISOINIncompleteCallback could be implemented in the user file
1595:Drivers/STM32F4xx_HAL_Driver/Src/stm32f4xx_hal_pcd.c ****    */
1596:Drivers/STM32F4xx_HAL_Driver/Src/stm32f4xx_hal_pcd.c **** }
 2250              		.loc 1 1596 1
 2251 000c 00BF     		nop
 2252 000e 0C37     		adds	r7, r7, #12
 2253              	.LCFI94:
 2254              		.cfi_def_cfa_offset 4
 2255 0010 BD46     		mov	sp, r7
 2256              	.LCFI95:
 2257              		.cfi_def_cfa_register 13
 2258              		@ sp needed
 2259 0012 5DF8047B 		ldr	r7, [sp], #4
 2260              	.LCFI96:
 2261              		.cfi_restore 7
 2262              		.cfi_def_cfa_offset 0
 2263 0016 7047     		bx	lr
 2264              		.cfi_endproc
 2265              	.LFE146:
 2267              		.section	.text.HAL_PCD_ConnectCallback,"ax",%progbits
 2268              		.align	1
 2269              		.weak	HAL_PCD_ConnectCallback
 2270              		.syntax unified
 2271              		.thumb
 2272              		.thumb_func
 2273              		.fpu fpv4-sp-d16
 2275              	HAL_PCD_ConnectCallback:
 2276              	.LFB147:
1597:Drivers/STM32F4xx_HAL_Driver/Src/stm32f4xx_hal_pcd.c **** 
1598:Drivers/STM32F4xx_HAL_Driver/Src/stm32f4xx_hal_pcd.c **** /**
1599:Drivers/STM32F4xx_HAL_Driver/Src/stm32f4xx_hal_pcd.c ****   * @brief  Connection event callback.
1600:Drivers/STM32F4xx_HAL_Driver/Src/stm32f4xx_hal_pcd.c ****   * @param  hpcd PCD handle
1601:Drivers/STM32F4xx_HAL_Driver/Src/stm32f4xx_hal_pcd.c ****   * @retval None
1602:Drivers/STM32F4xx_HAL_Driver/Src/stm32f4xx_hal_pcd.c ****   */
1603:Drivers/STM32F4xx_HAL_Driver/Src/stm32f4xx_hal_pcd.c **** __weak void HAL_PCD_ConnectCallback(PCD_HandleTypeDef *hpcd)
1604:Drivers/STM32F4xx_HAL_Driver/Src/stm32f4xx_hal_pcd.c **** {
 2277              		.loc 1 1604 1
 2278              		.cfi_startproc
 2279              		@ args = 0, pretend = 0, frame = 8
 2280              		@ frame_needed = 1, uses_anonymous_args = 0
 2281              		@ link register save eliminated.
 2282 0000 80B4     		push	{r7}
 2283              	.LCFI97:
 2284              		.cfi_def_cfa_offset 4
 2285              		.cfi_offset 7, -4
 2286 0002 83B0     		sub	sp, sp, #12
 2287              	.LCFI98:
ARM GAS  /var/folders/vq/qt4vp3kd5rxf7v2b6_fdtdt80000gn/T//cc6xBrdC.s 			page 69


 2288              		.cfi_def_cfa_offset 16
 2289 0004 00AF     		add	r7, sp, #0
 2290              	.LCFI99:
 2291              		.cfi_def_cfa_register 7
 2292 0006 7860     		str	r0, [r7, #4]
1605:Drivers/STM32F4xx_HAL_Driver/Src/stm32f4xx_hal_pcd.c ****   /* Prevent unused argument(s) compilation warning */
1606:Drivers/STM32F4xx_HAL_Driver/Src/stm32f4xx_hal_pcd.c ****   UNUSED(hpcd);
1607:Drivers/STM32F4xx_HAL_Driver/Src/stm32f4xx_hal_pcd.c **** 
1608:Drivers/STM32F4xx_HAL_Driver/Src/stm32f4xx_hal_pcd.c ****   /* NOTE : This function should not be modified, when the callback is needed,
1609:Drivers/STM32F4xx_HAL_Driver/Src/stm32f4xx_hal_pcd.c ****             the HAL_PCD_ConnectCallback could be implemented in the user file
1610:Drivers/STM32F4xx_HAL_Driver/Src/stm32f4xx_hal_pcd.c ****    */
1611:Drivers/STM32F4xx_HAL_Driver/Src/stm32f4xx_hal_pcd.c **** }
 2293              		.loc 1 1611 1
 2294 0008 00BF     		nop
 2295 000a 0C37     		adds	r7, r7, #12
 2296              	.LCFI100:
 2297              		.cfi_def_cfa_offset 4
 2298 000c BD46     		mov	sp, r7
 2299              	.LCFI101:
 2300              		.cfi_def_cfa_register 13
 2301              		@ sp needed
 2302 000e 5DF8047B 		ldr	r7, [sp], #4
 2303              	.LCFI102:
 2304              		.cfi_restore 7
 2305              		.cfi_def_cfa_offset 0
 2306 0012 7047     		bx	lr
 2307              		.cfi_endproc
 2308              	.LFE147:
 2310              		.section	.text.HAL_PCD_DisconnectCallback,"ax",%progbits
 2311              		.align	1
 2312              		.weak	HAL_PCD_DisconnectCallback
 2313              		.syntax unified
 2314              		.thumb
 2315              		.thumb_func
 2316              		.fpu fpv4-sp-d16
 2318              	HAL_PCD_DisconnectCallback:
 2319              	.LFB148:
1612:Drivers/STM32F4xx_HAL_Driver/Src/stm32f4xx_hal_pcd.c **** 
1613:Drivers/STM32F4xx_HAL_Driver/Src/stm32f4xx_hal_pcd.c **** /**
1614:Drivers/STM32F4xx_HAL_Driver/Src/stm32f4xx_hal_pcd.c ****   * @brief  Disconnection event callback.
1615:Drivers/STM32F4xx_HAL_Driver/Src/stm32f4xx_hal_pcd.c ****   * @param  hpcd PCD handle
1616:Drivers/STM32F4xx_HAL_Driver/Src/stm32f4xx_hal_pcd.c ****   * @retval None
1617:Drivers/STM32F4xx_HAL_Driver/Src/stm32f4xx_hal_pcd.c ****   */
1618:Drivers/STM32F4xx_HAL_Driver/Src/stm32f4xx_hal_pcd.c **** __weak void HAL_PCD_DisconnectCallback(PCD_HandleTypeDef *hpcd)
1619:Drivers/STM32F4xx_HAL_Driver/Src/stm32f4xx_hal_pcd.c **** {
 2320              		.loc 1 1619 1
 2321              		.cfi_startproc
 2322              		@ args = 0, pretend = 0, frame = 8
 2323              		@ frame_needed = 1, uses_anonymous_args = 0
 2324              		@ link register save eliminated.
 2325 0000 80B4     		push	{r7}
 2326              	.LCFI103:
 2327              		.cfi_def_cfa_offset 4
 2328              		.cfi_offset 7, -4
 2329 0002 83B0     		sub	sp, sp, #12
 2330              	.LCFI104:
 2331              		.cfi_def_cfa_offset 16
ARM GAS  /var/folders/vq/qt4vp3kd5rxf7v2b6_fdtdt80000gn/T//cc6xBrdC.s 			page 70


 2332 0004 00AF     		add	r7, sp, #0
 2333              	.LCFI105:
 2334              		.cfi_def_cfa_register 7
 2335 0006 7860     		str	r0, [r7, #4]
1620:Drivers/STM32F4xx_HAL_Driver/Src/stm32f4xx_hal_pcd.c ****   /* Prevent unused argument(s) compilation warning */
1621:Drivers/STM32F4xx_HAL_Driver/Src/stm32f4xx_hal_pcd.c ****   UNUSED(hpcd);
1622:Drivers/STM32F4xx_HAL_Driver/Src/stm32f4xx_hal_pcd.c **** 
1623:Drivers/STM32F4xx_HAL_Driver/Src/stm32f4xx_hal_pcd.c ****   /* NOTE : This function should not be modified, when the callback is needed,
1624:Drivers/STM32F4xx_HAL_Driver/Src/stm32f4xx_hal_pcd.c ****             the HAL_PCD_DisconnectCallback could be implemented in the user file
1625:Drivers/STM32F4xx_HAL_Driver/Src/stm32f4xx_hal_pcd.c ****    */
1626:Drivers/STM32F4xx_HAL_Driver/Src/stm32f4xx_hal_pcd.c **** }
 2336              		.loc 1 1626 1
 2337 0008 00BF     		nop
 2338 000a 0C37     		adds	r7, r7, #12
 2339              	.LCFI106:
 2340              		.cfi_def_cfa_offset 4
 2341 000c BD46     		mov	sp, r7
 2342              	.LCFI107:
 2343              		.cfi_def_cfa_register 13
 2344              		@ sp needed
 2345 000e 5DF8047B 		ldr	r7, [sp], #4
 2346              	.LCFI108:
 2347              		.cfi_restore 7
 2348              		.cfi_def_cfa_offset 0
 2349 0012 7047     		bx	lr
 2350              		.cfi_endproc
 2351              	.LFE148:
 2353              		.section	.text.HAL_PCD_DevConnect,"ax",%progbits
 2354              		.align	1
 2355              		.global	HAL_PCD_DevConnect
 2356              		.syntax unified
 2357              		.thumb
 2358              		.thumb_func
 2359              		.fpu fpv4-sp-d16
 2361              	HAL_PCD_DevConnect:
 2362              	.LFB149:
1627:Drivers/STM32F4xx_HAL_Driver/Src/stm32f4xx_hal_pcd.c **** 
1628:Drivers/STM32F4xx_HAL_Driver/Src/stm32f4xx_hal_pcd.c **** /**
1629:Drivers/STM32F4xx_HAL_Driver/Src/stm32f4xx_hal_pcd.c ****   * @}
1630:Drivers/STM32F4xx_HAL_Driver/Src/stm32f4xx_hal_pcd.c ****   */
1631:Drivers/STM32F4xx_HAL_Driver/Src/stm32f4xx_hal_pcd.c **** 
1632:Drivers/STM32F4xx_HAL_Driver/Src/stm32f4xx_hal_pcd.c **** /** @defgroup PCD_Exported_Functions_Group3 Peripheral Control functions
1633:Drivers/STM32F4xx_HAL_Driver/Src/stm32f4xx_hal_pcd.c ****   *  @brief   management functions
1634:Drivers/STM32F4xx_HAL_Driver/Src/stm32f4xx_hal_pcd.c ****   *
1635:Drivers/STM32F4xx_HAL_Driver/Src/stm32f4xx_hal_pcd.c **** @verbatim
1636:Drivers/STM32F4xx_HAL_Driver/Src/stm32f4xx_hal_pcd.c ****  ===============================================================================
1637:Drivers/STM32F4xx_HAL_Driver/Src/stm32f4xx_hal_pcd.c ****                       ##### Peripheral Control functions #####
1638:Drivers/STM32F4xx_HAL_Driver/Src/stm32f4xx_hal_pcd.c ****  ===============================================================================
1639:Drivers/STM32F4xx_HAL_Driver/Src/stm32f4xx_hal_pcd.c ****     [..]
1640:Drivers/STM32F4xx_HAL_Driver/Src/stm32f4xx_hal_pcd.c ****     This subsection provides a set of functions allowing to control the PCD data
1641:Drivers/STM32F4xx_HAL_Driver/Src/stm32f4xx_hal_pcd.c ****     transfers.
1642:Drivers/STM32F4xx_HAL_Driver/Src/stm32f4xx_hal_pcd.c **** 
1643:Drivers/STM32F4xx_HAL_Driver/Src/stm32f4xx_hal_pcd.c **** @endverbatim
1644:Drivers/STM32F4xx_HAL_Driver/Src/stm32f4xx_hal_pcd.c ****   * @{
1645:Drivers/STM32F4xx_HAL_Driver/Src/stm32f4xx_hal_pcd.c ****   */
1646:Drivers/STM32F4xx_HAL_Driver/Src/stm32f4xx_hal_pcd.c **** 
1647:Drivers/STM32F4xx_HAL_Driver/Src/stm32f4xx_hal_pcd.c **** /**
ARM GAS  /var/folders/vq/qt4vp3kd5rxf7v2b6_fdtdt80000gn/T//cc6xBrdC.s 			page 71


1648:Drivers/STM32F4xx_HAL_Driver/Src/stm32f4xx_hal_pcd.c ****   * @brief  Connect the USB device
1649:Drivers/STM32F4xx_HAL_Driver/Src/stm32f4xx_hal_pcd.c ****   * @param  hpcd PCD handle
1650:Drivers/STM32F4xx_HAL_Driver/Src/stm32f4xx_hal_pcd.c ****   * @retval HAL status
1651:Drivers/STM32F4xx_HAL_Driver/Src/stm32f4xx_hal_pcd.c ****   */
1652:Drivers/STM32F4xx_HAL_Driver/Src/stm32f4xx_hal_pcd.c **** HAL_StatusTypeDef HAL_PCD_DevConnect(PCD_HandleTypeDef *hpcd)
1653:Drivers/STM32F4xx_HAL_Driver/Src/stm32f4xx_hal_pcd.c **** {
 2363              		.loc 1 1653 1
 2364              		.cfi_startproc
 2365              		@ args = 0, pretend = 0, frame = 16
 2366              		@ frame_needed = 1, uses_anonymous_args = 0
 2367 0000 80B5     		push	{r7, lr}
 2368              	.LCFI109:
 2369              		.cfi_def_cfa_offset 8
 2370              		.cfi_offset 7, -8
 2371              		.cfi_offset 14, -4
 2372 0002 84B0     		sub	sp, sp, #16
 2373              	.LCFI110:
 2374              		.cfi_def_cfa_offset 24
 2375 0004 00AF     		add	r7, sp, #0
 2376              	.LCFI111:
 2377              		.cfi_def_cfa_register 7
 2378 0006 7860     		str	r0, [r7, #4]
1654:Drivers/STM32F4xx_HAL_Driver/Src/stm32f4xx_hal_pcd.c **** #if defined (USB_OTG_FS) || defined (USB_OTG_HS)
1655:Drivers/STM32F4xx_HAL_Driver/Src/stm32f4xx_hal_pcd.c ****   USB_OTG_GlobalTypeDef *USBx = hpcd->Instance;
 2379              		.loc 1 1655 26
 2380 0008 7B68     		ldr	r3, [r7, #4]
 2381 000a 1B68     		ldr	r3, [r3]
 2382 000c FB60     		str	r3, [r7, #12]
1656:Drivers/STM32F4xx_HAL_Driver/Src/stm32f4xx_hal_pcd.c **** #endif /* defined (USB_OTG_FS) || defined (USB_OTG_HS) */
1657:Drivers/STM32F4xx_HAL_Driver/Src/stm32f4xx_hal_pcd.c **** 
1658:Drivers/STM32F4xx_HAL_Driver/Src/stm32f4xx_hal_pcd.c ****   __HAL_LOCK(hpcd);
 2383              		.loc 1 1658 3
 2384 000e 7B68     		ldr	r3, [r7, #4]
 2385 0010 93F8BC33 		ldrb	r3, [r3, #956]	@ zero_extendqisi2
 2386 0014 012B     		cmp	r3, #1
 2387 0016 01D1     		bne	.L86
 2388              		.loc 1 1658 3 is_stmt 0 discriminator 1
 2389 0018 0223     		movs	r3, #2
 2390 001a 1BE0     		b	.L87
 2391              	.L86:
 2392              		.loc 1 1658 3 discriminator 2
 2393 001c 7B68     		ldr	r3, [r7, #4]
 2394 001e 0122     		movs	r2, #1
 2395 0020 83F8BC23 		strb	r2, [r3, #956]
1659:Drivers/STM32F4xx_HAL_Driver/Src/stm32f4xx_hal_pcd.c **** #if defined (USB_OTG_FS) || defined (USB_OTG_HS)
1660:Drivers/STM32F4xx_HAL_Driver/Src/stm32f4xx_hal_pcd.c ****   if ((hpcd->Init.battery_charging_enable == 1U) &&
 2396              		.loc 1 1660 18 is_stmt 1 discriminator 2
 2397 0024 7B68     		ldr	r3, [r7, #4]
 2398 0026 9B6A     		ldr	r3, [r3, #40]
 2399              		.loc 1 1660 6 discriminator 2
 2400 0028 012B     		cmp	r3, #1
 2401 002a 09D1     		bne	.L88
1661:Drivers/STM32F4xx_HAL_Driver/Src/stm32f4xx_hal_pcd.c ****       (hpcd->Init.phy_itface != USB_OTG_ULPI_PHY))
 2402              		.loc 1 1661 18 discriminator 1
 2403 002c 7B68     		ldr	r3, [r7, #4]
 2404 002e 9B69     		ldr	r3, [r3, #24]
1660:Drivers/STM32F4xx_HAL_Driver/Src/stm32f4xx_hal_pcd.c ****       (hpcd->Init.phy_itface != USB_OTG_ULPI_PHY))
ARM GAS  /var/folders/vq/qt4vp3kd5rxf7v2b6_fdtdt80000gn/T//cc6xBrdC.s 			page 72


 2405              		.loc 1 1660 50 discriminator 1
 2406 0030 012B     		cmp	r3, #1
 2407 0032 05D0     		beq	.L88
1662:Drivers/STM32F4xx_HAL_Driver/Src/stm32f4xx_hal_pcd.c ****   {
1663:Drivers/STM32F4xx_HAL_Driver/Src/stm32f4xx_hal_pcd.c ****     /* Enable USB Transceiver */
1664:Drivers/STM32F4xx_HAL_Driver/Src/stm32f4xx_hal_pcd.c ****     USBx->GCCFG |= USB_OTG_GCCFG_PWRDWN;
 2408              		.loc 1 1664 17
 2409 0034 FB68     		ldr	r3, [r7, #12]
 2410 0036 9B6B     		ldr	r3, [r3, #56]
 2411 0038 43F48032 		orr	r2, r3, #65536
 2412 003c FB68     		ldr	r3, [r7, #12]
 2413 003e 9A63     		str	r2, [r3, #56]
 2414              	.L88:
1665:Drivers/STM32F4xx_HAL_Driver/Src/stm32f4xx_hal_pcd.c ****   }
1666:Drivers/STM32F4xx_HAL_Driver/Src/stm32f4xx_hal_pcd.c **** #endif /* defined (USB_OTG_FS) || defined (USB_OTG_HS) */
1667:Drivers/STM32F4xx_HAL_Driver/Src/stm32f4xx_hal_pcd.c ****   (void)USB_DevConnect(hpcd->Instance);
 2415              		.loc 1 1667 28
 2416 0040 7B68     		ldr	r3, [r7, #4]
 2417 0042 1B68     		ldr	r3, [r3]
 2418              		.loc 1 1667 9
 2419 0044 1846     		mov	r0, r3
 2420 0046 FFF7FEFF 		bl	USB_DevConnect
1668:Drivers/STM32F4xx_HAL_Driver/Src/stm32f4xx_hal_pcd.c ****   __HAL_UNLOCK(hpcd);
 2421              		.loc 1 1668 3
 2422 004a 7B68     		ldr	r3, [r7, #4]
 2423 004c 0022     		movs	r2, #0
 2424 004e 83F8BC23 		strb	r2, [r3, #956]
1669:Drivers/STM32F4xx_HAL_Driver/Src/stm32f4xx_hal_pcd.c **** 
1670:Drivers/STM32F4xx_HAL_Driver/Src/stm32f4xx_hal_pcd.c ****   return HAL_OK;
 2425              		.loc 1 1670 10
 2426 0052 0023     		movs	r3, #0
 2427              	.L87:
1671:Drivers/STM32F4xx_HAL_Driver/Src/stm32f4xx_hal_pcd.c **** }
 2428              		.loc 1 1671 1
 2429 0054 1846     		mov	r0, r3
 2430 0056 1037     		adds	r7, r7, #16
 2431              	.LCFI112:
 2432              		.cfi_def_cfa_offset 8
 2433 0058 BD46     		mov	sp, r7
 2434              	.LCFI113:
 2435              		.cfi_def_cfa_register 13
 2436              		@ sp needed
 2437 005a 80BD     		pop	{r7, pc}
 2438              		.cfi_endproc
 2439              	.LFE149:
 2441              		.section	.text.HAL_PCD_DevDisconnect,"ax",%progbits
 2442              		.align	1
 2443              		.global	HAL_PCD_DevDisconnect
 2444              		.syntax unified
 2445              		.thumb
 2446              		.thumb_func
 2447              		.fpu fpv4-sp-d16
 2449              	HAL_PCD_DevDisconnect:
 2450              	.LFB150:
1672:Drivers/STM32F4xx_HAL_Driver/Src/stm32f4xx_hal_pcd.c **** 
1673:Drivers/STM32F4xx_HAL_Driver/Src/stm32f4xx_hal_pcd.c **** /**
1674:Drivers/STM32F4xx_HAL_Driver/Src/stm32f4xx_hal_pcd.c ****   * @brief  Disconnect the USB device.
ARM GAS  /var/folders/vq/qt4vp3kd5rxf7v2b6_fdtdt80000gn/T//cc6xBrdC.s 			page 73


1675:Drivers/STM32F4xx_HAL_Driver/Src/stm32f4xx_hal_pcd.c ****   * @param  hpcd PCD handle
1676:Drivers/STM32F4xx_HAL_Driver/Src/stm32f4xx_hal_pcd.c ****   * @retval HAL status
1677:Drivers/STM32F4xx_HAL_Driver/Src/stm32f4xx_hal_pcd.c ****   */
1678:Drivers/STM32F4xx_HAL_Driver/Src/stm32f4xx_hal_pcd.c **** HAL_StatusTypeDef HAL_PCD_DevDisconnect(PCD_HandleTypeDef *hpcd)
1679:Drivers/STM32F4xx_HAL_Driver/Src/stm32f4xx_hal_pcd.c **** {
 2451              		.loc 1 1679 1
 2452              		.cfi_startproc
 2453              		@ args = 0, pretend = 0, frame = 16
 2454              		@ frame_needed = 1, uses_anonymous_args = 0
 2455 0000 80B5     		push	{r7, lr}
 2456              	.LCFI114:
 2457              		.cfi_def_cfa_offset 8
 2458              		.cfi_offset 7, -8
 2459              		.cfi_offset 14, -4
 2460 0002 84B0     		sub	sp, sp, #16
 2461              	.LCFI115:
 2462              		.cfi_def_cfa_offset 24
 2463 0004 00AF     		add	r7, sp, #0
 2464              	.LCFI116:
 2465              		.cfi_def_cfa_register 7
 2466 0006 7860     		str	r0, [r7, #4]
1680:Drivers/STM32F4xx_HAL_Driver/Src/stm32f4xx_hal_pcd.c **** #if defined (USB_OTG_FS) || defined (USB_OTG_HS)
1681:Drivers/STM32F4xx_HAL_Driver/Src/stm32f4xx_hal_pcd.c ****   USB_OTG_GlobalTypeDef *USBx = hpcd->Instance;
 2467              		.loc 1 1681 26
 2468 0008 7B68     		ldr	r3, [r7, #4]
 2469 000a 1B68     		ldr	r3, [r3]
 2470 000c FB60     		str	r3, [r7, #12]
1682:Drivers/STM32F4xx_HAL_Driver/Src/stm32f4xx_hal_pcd.c **** #endif /* defined (USB_OTG_FS) || defined (USB_OTG_HS) */
1683:Drivers/STM32F4xx_HAL_Driver/Src/stm32f4xx_hal_pcd.c **** 
1684:Drivers/STM32F4xx_HAL_Driver/Src/stm32f4xx_hal_pcd.c ****   __HAL_LOCK(hpcd);
 2471              		.loc 1 1684 3
 2472 000e 7B68     		ldr	r3, [r7, #4]
 2473 0010 93F8BC33 		ldrb	r3, [r3, #956]	@ zero_extendqisi2
 2474 0014 012B     		cmp	r3, #1
 2475 0016 01D1     		bne	.L90
 2476              		.loc 1 1684 3 is_stmt 0 discriminator 1
 2477 0018 0223     		movs	r3, #2
 2478 001a 1BE0     		b	.L91
 2479              	.L90:
 2480              		.loc 1 1684 3 discriminator 2
 2481 001c 7B68     		ldr	r3, [r7, #4]
 2482 001e 0122     		movs	r2, #1
 2483 0020 83F8BC23 		strb	r2, [r3, #956]
1685:Drivers/STM32F4xx_HAL_Driver/Src/stm32f4xx_hal_pcd.c ****   (void)USB_DevDisconnect(hpcd->Instance);
 2484              		.loc 1 1685 31 is_stmt 1 discriminator 2
 2485 0024 7B68     		ldr	r3, [r7, #4]
 2486 0026 1B68     		ldr	r3, [r3]
 2487              		.loc 1 1685 9 discriminator 2
 2488 0028 1846     		mov	r0, r3
 2489 002a FFF7FEFF 		bl	USB_DevDisconnect
1686:Drivers/STM32F4xx_HAL_Driver/Src/stm32f4xx_hal_pcd.c **** 
1687:Drivers/STM32F4xx_HAL_Driver/Src/stm32f4xx_hal_pcd.c **** #if defined (USB_OTG_FS) || defined (USB_OTG_HS)
1688:Drivers/STM32F4xx_HAL_Driver/Src/stm32f4xx_hal_pcd.c ****   if ((hpcd->Init.battery_charging_enable == 1U) &&
 2490              		.loc 1 1688 18 discriminator 2
 2491 002e 7B68     		ldr	r3, [r7, #4]
 2492 0030 9B6A     		ldr	r3, [r3, #40]
 2493              		.loc 1 1688 6 discriminator 2
ARM GAS  /var/folders/vq/qt4vp3kd5rxf7v2b6_fdtdt80000gn/T//cc6xBrdC.s 			page 74


 2494 0032 012B     		cmp	r3, #1
 2495 0034 09D1     		bne	.L92
1689:Drivers/STM32F4xx_HAL_Driver/Src/stm32f4xx_hal_pcd.c ****       (hpcd->Init.phy_itface != USB_OTG_ULPI_PHY))
 2496              		.loc 1 1689 18 discriminator 1
 2497 0036 7B68     		ldr	r3, [r7, #4]
 2498 0038 9B69     		ldr	r3, [r3, #24]
1688:Drivers/STM32F4xx_HAL_Driver/Src/stm32f4xx_hal_pcd.c ****       (hpcd->Init.phy_itface != USB_OTG_ULPI_PHY))
 2499              		.loc 1 1688 50 discriminator 1
 2500 003a 012B     		cmp	r3, #1
 2501 003c 05D0     		beq	.L92
1690:Drivers/STM32F4xx_HAL_Driver/Src/stm32f4xx_hal_pcd.c ****   {
1691:Drivers/STM32F4xx_HAL_Driver/Src/stm32f4xx_hal_pcd.c ****     /* Disable USB Transceiver */
1692:Drivers/STM32F4xx_HAL_Driver/Src/stm32f4xx_hal_pcd.c ****     USBx->GCCFG &= ~(USB_OTG_GCCFG_PWRDWN);
 2502              		.loc 1 1692 17
 2503 003e FB68     		ldr	r3, [r7, #12]
 2504 0040 9B6B     		ldr	r3, [r3, #56]
 2505 0042 23F48032 		bic	r2, r3, #65536
 2506 0046 FB68     		ldr	r3, [r7, #12]
 2507 0048 9A63     		str	r2, [r3, #56]
 2508              	.L92:
1693:Drivers/STM32F4xx_HAL_Driver/Src/stm32f4xx_hal_pcd.c ****   }
1694:Drivers/STM32F4xx_HAL_Driver/Src/stm32f4xx_hal_pcd.c **** #endif /* defined (USB_OTG_FS) || defined (USB_OTG_HS) */
1695:Drivers/STM32F4xx_HAL_Driver/Src/stm32f4xx_hal_pcd.c **** 
1696:Drivers/STM32F4xx_HAL_Driver/Src/stm32f4xx_hal_pcd.c ****   __HAL_UNLOCK(hpcd);
 2509              		.loc 1 1696 3
 2510 004a 7B68     		ldr	r3, [r7, #4]
 2511 004c 0022     		movs	r2, #0
 2512 004e 83F8BC23 		strb	r2, [r3, #956]
1697:Drivers/STM32F4xx_HAL_Driver/Src/stm32f4xx_hal_pcd.c **** 
1698:Drivers/STM32F4xx_HAL_Driver/Src/stm32f4xx_hal_pcd.c ****   return HAL_OK;
 2513              		.loc 1 1698 10
 2514 0052 0023     		movs	r3, #0
 2515              	.L91:
1699:Drivers/STM32F4xx_HAL_Driver/Src/stm32f4xx_hal_pcd.c **** }
 2516              		.loc 1 1699 1
 2517 0054 1846     		mov	r0, r3
 2518 0056 1037     		adds	r7, r7, #16
 2519              	.LCFI117:
 2520              		.cfi_def_cfa_offset 8
 2521 0058 BD46     		mov	sp, r7
 2522              	.LCFI118:
 2523              		.cfi_def_cfa_register 13
 2524              		@ sp needed
 2525 005a 80BD     		pop	{r7, pc}
 2526              		.cfi_endproc
 2527              	.LFE150:
 2529              		.section	.text.HAL_PCD_SetAddress,"ax",%progbits
 2530              		.align	1
 2531              		.global	HAL_PCD_SetAddress
 2532              		.syntax unified
 2533              		.thumb
 2534              		.thumb_func
 2535              		.fpu fpv4-sp-d16
 2537              	HAL_PCD_SetAddress:
 2538              	.LFB151:
1700:Drivers/STM32F4xx_HAL_Driver/Src/stm32f4xx_hal_pcd.c **** 
1701:Drivers/STM32F4xx_HAL_Driver/Src/stm32f4xx_hal_pcd.c **** /**
ARM GAS  /var/folders/vq/qt4vp3kd5rxf7v2b6_fdtdt80000gn/T//cc6xBrdC.s 			page 75


1702:Drivers/STM32F4xx_HAL_Driver/Src/stm32f4xx_hal_pcd.c ****   * @brief  Set the USB Device address.
1703:Drivers/STM32F4xx_HAL_Driver/Src/stm32f4xx_hal_pcd.c ****   * @param  hpcd PCD handle
1704:Drivers/STM32F4xx_HAL_Driver/Src/stm32f4xx_hal_pcd.c ****   * @param  address new device address
1705:Drivers/STM32F4xx_HAL_Driver/Src/stm32f4xx_hal_pcd.c ****   * @retval HAL status
1706:Drivers/STM32F4xx_HAL_Driver/Src/stm32f4xx_hal_pcd.c ****   */
1707:Drivers/STM32F4xx_HAL_Driver/Src/stm32f4xx_hal_pcd.c **** HAL_StatusTypeDef HAL_PCD_SetAddress(PCD_HandleTypeDef *hpcd, uint8_t address)
1708:Drivers/STM32F4xx_HAL_Driver/Src/stm32f4xx_hal_pcd.c **** {
 2539              		.loc 1 1708 1
 2540              		.cfi_startproc
 2541              		@ args = 0, pretend = 0, frame = 8
 2542              		@ frame_needed = 1, uses_anonymous_args = 0
 2543 0000 80B5     		push	{r7, lr}
 2544              	.LCFI119:
 2545              		.cfi_def_cfa_offset 8
 2546              		.cfi_offset 7, -8
 2547              		.cfi_offset 14, -4
 2548 0002 82B0     		sub	sp, sp, #8
 2549              	.LCFI120:
 2550              		.cfi_def_cfa_offset 16
 2551 0004 00AF     		add	r7, sp, #0
 2552              	.LCFI121:
 2553              		.cfi_def_cfa_register 7
 2554 0006 7860     		str	r0, [r7, #4]
 2555 0008 0B46     		mov	r3, r1
 2556 000a FB70     		strb	r3, [r7, #3]
1709:Drivers/STM32F4xx_HAL_Driver/Src/stm32f4xx_hal_pcd.c ****   __HAL_LOCK(hpcd);
 2557              		.loc 1 1709 3
 2558 000c 7B68     		ldr	r3, [r7, #4]
 2559 000e 93F8BC33 		ldrb	r3, [r3, #956]	@ zero_extendqisi2
 2560 0012 012B     		cmp	r3, #1
 2561 0014 01D1     		bne	.L94
 2562              		.loc 1 1709 3 is_stmt 0 discriminator 1
 2563 0016 0223     		movs	r3, #2
 2564 0018 13E0     		b	.L95
 2565              	.L94:
 2566              		.loc 1 1709 3 discriminator 2
 2567 001a 7B68     		ldr	r3, [r7, #4]
 2568 001c 0122     		movs	r2, #1
 2569 001e 83F8BC23 		strb	r2, [r3, #956]
1710:Drivers/STM32F4xx_HAL_Driver/Src/stm32f4xx_hal_pcd.c ****   hpcd->USB_Address = address;
 2570              		.loc 1 1710 21 is_stmt 1 discriminator 2
 2571 0022 7B68     		ldr	r3, [r7, #4]
 2572 0024 FA78     		ldrb	r2, [r7, #3]
 2573 0026 83F83820 		strb	r2, [r3, #56]
1711:Drivers/STM32F4xx_HAL_Driver/Src/stm32f4xx_hal_pcd.c ****   (void)USB_SetDevAddress(hpcd->Instance, address);
 2574              		.loc 1 1711 31 discriminator 2
 2575 002a 7B68     		ldr	r3, [r7, #4]
 2576 002c 1B68     		ldr	r3, [r3]
 2577              		.loc 1 1711 9 discriminator 2
 2578 002e FA78     		ldrb	r2, [r7, #3]	@ zero_extendqisi2
 2579 0030 1146     		mov	r1, r2
 2580 0032 1846     		mov	r0, r3
 2581 0034 FFF7FEFF 		bl	USB_SetDevAddress
1712:Drivers/STM32F4xx_HAL_Driver/Src/stm32f4xx_hal_pcd.c ****   __HAL_UNLOCK(hpcd);
 2582              		.loc 1 1712 3 discriminator 2
 2583 0038 7B68     		ldr	r3, [r7, #4]
 2584 003a 0022     		movs	r2, #0
ARM GAS  /var/folders/vq/qt4vp3kd5rxf7v2b6_fdtdt80000gn/T//cc6xBrdC.s 			page 76


 2585 003c 83F8BC23 		strb	r2, [r3, #956]
1713:Drivers/STM32F4xx_HAL_Driver/Src/stm32f4xx_hal_pcd.c **** 
1714:Drivers/STM32F4xx_HAL_Driver/Src/stm32f4xx_hal_pcd.c ****   return HAL_OK;
 2586              		.loc 1 1714 10 discriminator 2
 2587 0040 0023     		movs	r3, #0
 2588              	.L95:
1715:Drivers/STM32F4xx_HAL_Driver/Src/stm32f4xx_hal_pcd.c **** }
 2589              		.loc 1 1715 1
 2590 0042 1846     		mov	r0, r3
 2591 0044 0837     		adds	r7, r7, #8
 2592              	.LCFI122:
 2593              		.cfi_def_cfa_offset 8
 2594 0046 BD46     		mov	sp, r7
 2595              	.LCFI123:
 2596              		.cfi_def_cfa_register 13
 2597              		@ sp needed
 2598 0048 80BD     		pop	{r7, pc}
 2599              		.cfi_endproc
 2600              	.LFE151:
 2602              		.section	.text.HAL_PCD_EP_Open,"ax",%progbits
 2603              		.align	1
 2604              		.global	HAL_PCD_EP_Open
 2605              		.syntax unified
 2606              		.thumb
 2607              		.thumb_func
 2608              		.fpu fpv4-sp-d16
 2610              	HAL_PCD_EP_Open:
 2611              	.LFB152:
1716:Drivers/STM32F4xx_HAL_Driver/Src/stm32f4xx_hal_pcd.c **** /**
1717:Drivers/STM32F4xx_HAL_Driver/Src/stm32f4xx_hal_pcd.c ****   * @brief  Open and configure an endpoint.
1718:Drivers/STM32F4xx_HAL_Driver/Src/stm32f4xx_hal_pcd.c ****   * @param  hpcd PCD handle
1719:Drivers/STM32F4xx_HAL_Driver/Src/stm32f4xx_hal_pcd.c ****   * @param  ep_addr endpoint address
1720:Drivers/STM32F4xx_HAL_Driver/Src/stm32f4xx_hal_pcd.c ****   * @param  ep_mps endpoint max packet size
1721:Drivers/STM32F4xx_HAL_Driver/Src/stm32f4xx_hal_pcd.c ****   * @param  ep_type endpoint type
1722:Drivers/STM32F4xx_HAL_Driver/Src/stm32f4xx_hal_pcd.c ****   * @retval HAL status
1723:Drivers/STM32F4xx_HAL_Driver/Src/stm32f4xx_hal_pcd.c ****   */
1724:Drivers/STM32F4xx_HAL_Driver/Src/stm32f4xx_hal_pcd.c **** HAL_StatusTypeDef HAL_PCD_EP_Open(PCD_HandleTypeDef *hpcd, uint8_t ep_addr,
1725:Drivers/STM32F4xx_HAL_Driver/Src/stm32f4xx_hal_pcd.c ****                                   uint16_t ep_mps, uint8_t ep_type)
1726:Drivers/STM32F4xx_HAL_Driver/Src/stm32f4xx_hal_pcd.c **** {
 2612              		.loc 1 1726 1
 2613              		.cfi_startproc
 2614              		@ args = 0, pretend = 0, frame = 16
 2615              		@ frame_needed = 1, uses_anonymous_args = 0
 2616 0000 80B5     		push	{r7, lr}
 2617              	.LCFI124:
 2618              		.cfi_def_cfa_offset 8
 2619              		.cfi_offset 7, -8
 2620              		.cfi_offset 14, -4
 2621 0002 84B0     		sub	sp, sp, #16
 2622              	.LCFI125:
 2623              		.cfi_def_cfa_offset 24
 2624 0004 00AF     		add	r7, sp, #0
 2625              	.LCFI126:
 2626              		.cfi_def_cfa_register 7
 2627 0006 7860     		str	r0, [r7, #4]
 2628 0008 0846     		mov	r0, r1
 2629 000a 1146     		mov	r1, r2
ARM GAS  /var/folders/vq/qt4vp3kd5rxf7v2b6_fdtdt80000gn/T//cc6xBrdC.s 			page 77


 2630 000c 1A46     		mov	r2, r3
 2631 000e 0346     		mov	r3, r0
 2632 0010 FB70     		strb	r3, [r7, #3]
 2633 0012 0B46     		mov	r3, r1	@ movhi
 2634 0014 3B80     		strh	r3, [r7]	@ movhi
 2635 0016 1346     		mov	r3, r2
 2636 0018 BB70     		strb	r3, [r7, #2]
1727:Drivers/STM32F4xx_HAL_Driver/Src/stm32f4xx_hal_pcd.c ****   HAL_StatusTypeDef  ret = HAL_OK;
 2637              		.loc 1 1727 22
 2638 001a 0023     		movs	r3, #0
 2639 001c FB72     		strb	r3, [r7, #11]
1728:Drivers/STM32F4xx_HAL_Driver/Src/stm32f4xx_hal_pcd.c ****   PCD_EPTypeDef *ep;
1729:Drivers/STM32F4xx_HAL_Driver/Src/stm32f4xx_hal_pcd.c **** 
1730:Drivers/STM32F4xx_HAL_Driver/Src/stm32f4xx_hal_pcd.c ****   if ((ep_addr & 0x80U) == 0x80U)
 2640              		.loc 1 1730 25
 2641 001e 97F90330 		ldrsb	r3, [r7, #3]
 2642              		.loc 1 1730 6
 2643 0022 002B     		cmp	r3, #0
 2644 0024 0FDA     		bge	.L97
1731:Drivers/STM32F4xx_HAL_Driver/Src/stm32f4xx_hal_pcd.c ****   {
1732:Drivers/STM32F4xx_HAL_Driver/Src/stm32f4xx_hal_pcd.c ****     ep = &hpcd->IN_ep[ep_addr & EP_ADDR_MSK];
 2645              		.loc 1 1732 31
 2646 0026 FB78     		ldrb	r3, [r7, #3]	@ zero_extendqisi2
 2647 0028 03F00F02 		and	r2, r3, #15
 2648              		.loc 1 1732 8
 2649 002c 1346     		mov	r3, r2
 2650 002e DB00     		lsls	r3, r3, #3
 2651 0030 9B1A     		subs	r3, r3, r2
 2652 0032 9B00     		lsls	r3, r3, #2
 2653 0034 3833     		adds	r3, r3, #56
 2654 0036 7A68     		ldr	r2, [r7, #4]
 2655 0038 1344     		add	r3, r3, r2
 2656 003a 0433     		adds	r3, r3, #4
 2657 003c FB60     		str	r3, [r7, #12]
1733:Drivers/STM32F4xx_HAL_Driver/Src/stm32f4xx_hal_pcd.c ****     ep->is_in = 1U;
 2658              		.loc 1 1733 15
 2659 003e FB68     		ldr	r3, [r7, #12]
 2660 0040 0122     		movs	r2, #1
 2661 0042 5A70     		strb	r2, [r3, #1]
 2662 0044 0FE0     		b	.L98
 2663              	.L97:
1734:Drivers/STM32F4xx_HAL_Driver/Src/stm32f4xx_hal_pcd.c ****   }
1735:Drivers/STM32F4xx_HAL_Driver/Src/stm32f4xx_hal_pcd.c ****   else
1736:Drivers/STM32F4xx_HAL_Driver/Src/stm32f4xx_hal_pcd.c ****   {
1737:Drivers/STM32F4xx_HAL_Driver/Src/stm32f4xx_hal_pcd.c ****     ep = &hpcd->OUT_ep[ep_addr & EP_ADDR_MSK];
 2664              		.loc 1 1737 32
 2665 0046 FB78     		ldrb	r3, [r7, #3]	@ zero_extendqisi2
 2666 0048 03F00F02 		and	r2, r3, #15
 2667              		.loc 1 1737 8
 2668 004c 1346     		mov	r3, r2
 2669 004e DB00     		lsls	r3, r3, #3
 2670 0050 9B1A     		subs	r3, r3, r2
 2671 0052 9B00     		lsls	r3, r3, #2
 2672 0054 03F5FC73 		add	r3, r3, #504
 2673 0058 7A68     		ldr	r2, [r7, #4]
 2674 005a 1344     		add	r3, r3, r2
 2675 005c 0433     		adds	r3, r3, #4
ARM GAS  /var/folders/vq/qt4vp3kd5rxf7v2b6_fdtdt80000gn/T//cc6xBrdC.s 			page 78


 2676 005e FB60     		str	r3, [r7, #12]
1738:Drivers/STM32F4xx_HAL_Driver/Src/stm32f4xx_hal_pcd.c ****     ep->is_in = 0U;
 2677              		.loc 1 1738 15
 2678 0060 FB68     		ldr	r3, [r7, #12]
 2679 0062 0022     		movs	r2, #0
 2680 0064 5A70     		strb	r2, [r3, #1]
 2681              	.L98:
1739:Drivers/STM32F4xx_HAL_Driver/Src/stm32f4xx_hal_pcd.c ****   }
1740:Drivers/STM32F4xx_HAL_Driver/Src/stm32f4xx_hal_pcd.c **** 
1741:Drivers/STM32F4xx_HAL_Driver/Src/stm32f4xx_hal_pcd.c ****   ep->num = ep_addr & EP_ADDR_MSK;
 2682              		.loc 1 1741 21
 2683 0066 FB78     		ldrb	r3, [r7, #3]
 2684 0068 03F00F03 		and	r3, r3, #15
 2685 006c DAB2     		uxtb	r2, r3
 2686              		.loc 1 1741 11
 2687 006e FB68     		ldr	r3, [r7, #12]
 2688 0070 1A70     		strb	r2, [r3]
1742:Drivers/STM32F4xx_HAL_Driver/Src/stm32f4xx_hal_pcd.c ****   ep->maxpacket = ep_mps;
 2689              		.loc 1 1742 17
 2690 0072 3A88     		ldrh	r2, [r7]
 2691 0074 FB68     		ldr	r3, [r7, #12]
 2692 0076 9A60     		str	r2, [r3, #8]
1743:Drivers/STM32F4xx_HAL_Driver/Src/stm32f4xx_hal_pcd.c ****   ep->type = ep_type;
 2693              		.loc 1 1743 12
 2694 0078 FB68     		ldr	r3, [r7, #12]
 2695 007a BA78     		ldrb	r2, [r7, #2]
 2696 007c DA70     		strb	r2, [r3, #3]
1744:Drivers/STM32F4xx_HAL_Driver/Src/stm32f4xx_hal_pcd.c **** 
1745:Drivers/STM32F4xx_HAL_Driver/Src/stm32f4xx_hal_pcd.c ****   if (ep->is_in != 0U)
 2697              		.loc 1 1745 9
 2698 007e FB68     		ldr	r3, [r7, #12]
 2699 0080 5B78     		ldrb	r3, [r3, #1]	@ zero_extendqisi2
 2700              		.loc 1 1745 6
 2701 0082 002B     		cmp	r3, #0
 2702 0084 04D0     		beq	.L99
1746:Drivers/STM32F4xx_HAL_Driver/Src/stm32f4xx_hal_pcd.c ****   {
1747:Drivers/STM32F4xx_HAL_Driver/Src/stm32f4xx_hal_pcd.c ****     /* Assign a Tx FIFO */
1748:Drivers/STM32F4xx_HAL_Driver/Src/stm32f4xx_hal_pcd.c ****     ep->tx_fifo_num = ep->num;
 2703              		.loc 1 1748 25
 2704 0086 FB68     		ldr	r3, [r7, #12]
 2705 0088 1B78     		ldrb	r3, [r3]	@ zero_extendqisi2
 2706 008a 9AB2     		uxth	r2, r3
 2707              		.loc 1 1748 21
 2708 008c FB68     		ldr	r3, [r7, #12]
 2709 008e DA80     		strh	r2, [r3, #6]	@ movhi
 2710              	.L99:
1749:Drivers/STM32F4xx_HAL_Driver/Src/stm32f4xx_hal_pcd.c ****   }
1750:Drivers/STM32F4xx_HAL_Driver/Src/stm32f4xx_hal_pcd.c ****   /* Set initial data PID. */
1751:Drivers/STM32F4xx_HAL_Driver/Src/stm32f4xx_hal_pcd.c ****   if (ep_type == EP_TYPE_BULK)
 2711              		.loc 1 1751 6
 2712 0090 BB78     		ldrb	r3, [r7, #2]	@ zero_extendqisi2
 2713 0092 022B     		cmp	r3, #2
 2714 0094 02D1     		bne	.L100
1752:Drivers/STM32F4xx_HAL_Driver/Src/stm32f4xx_hal_pcd.c ****   {
1753:Drivers/STM32F4xx_HAL_Driver/Src/stm32f4xx_hal_pcd.c ****     ep->data_pid_start = 0U;
 2715              		.loc 1 1753 24
 2716 0096 FB68     		ldr	r3, [r7, #12]
ARM GAS  /var/folders/vq/qt4vp3kd5rxf7v2b6_fdtdt80000gn/T//cc6xBrdC.s 			page 79


 2717 0098 0022     		movs	r2, #0
 2718 009a 1A71     		strb	r2, [r3, #4]
 2719              	.L100:
1754:Drivers/STM32F4xx_HAL_Driver/Src/stm32f4xx_hal_pcd.c ****   }
1755:Drivers/STM32F4xx_HAL_Driver/Src/stm32f4xx_hal_pcd.c **** 
1756:Drivers/STM32F4xx_HAL_Driver/Src/stm32f4xx_hal_pcd.c ****   __HAL_LOCK(hpcd);
 2720              		.loc 1 1756 3
 2721 009c 7B68     		ldr	r3, [r7, #4]
 2722 009e 93F8BC33 		ldrb	r3, [r3, #956]	@ zero_extendqisi2
 2723 00a2 012B     		cmp	r3, #1
 2724 00a4 01D1     		bne	.L101
 2725              		.loc 1 1756 3 is_stmt 0 discriminator 1
 2726 00a6 0223     		movs	r3, #2
 2727 00a8 0EE0     		b	.L102
 2728              	.L101:
 2729              		.loc 1 1756 3 discriminator 2
 2730 00aa 7B68     		ldr	r3, [r7, #4]
 2731 00ac 0122     		movs	r2, #1
 2732 00ae 83F8BC23 		strb	r2, [r3, #956]
1757:Drivers/STM32F4xx_HAL_Driver/Src/stm32f4xx_hal_pcd.c ****   (void)USB_ActivateEndpoint(hpcd->Instance, ep);
 2733              		.loc 1 1757 34 is_stmt 1 discriminator 2
 2734 00b2 7B68     		ldr	r3, [r7, #4]
 2735 00b4 1B68     		ldr	r3, [r3]
 2736              		.loc 1 1757 9 discriminator 2
 2737 00b6 F968     		ldr	r1, [r7, #12]
 2738 00b8 1846     		mov	r0, r3
 2739 00ba FFF7FEFF 		bl	USB_ActivateEndpoint
1758:Drivers/STM32F4xx_HAL_Driver/Src/stm32f4xx_hal_pcd.c ****   __HAL_UNLOCK(hpcd);
 2740              		.loc 1 1758 3 discriminator 2
 2741 00be 7B68     		ldr	r3, [r7, #4]
 2742 00c0 0022     		movs	r2, #0
 2743 00c2 83F8BC23 		strb	r2, [r3, #956]
1759:Drivers/STM32F4xx_HAL_Driver/Src/stm32f4xx_hal_pcd.c **** 
1760:Drivers/STM32F4xx_HAL_Driver/Src/stm32f4xx_hal_pcd.c ****   return ret;
 2744              		.loc 1 1760 10 discriminator 2
 2745 00c6 FB7A     		ldrb	r3, [r7, #11]	@ zero_extendqisi2
 2746              	.L102:
1761:Drivers/STM32F4xx_HAL_Driver/Src/stm32f4xx_hal_pcd.c **** }
 2747              		.loc 1 1761 1
 2748 00c8 1846     		mov	r0, r3
 2749 00ca 1037     		adds	r7, r7, #16
 2750              	.LCFI127:
 2751              		.cfi_def_cfa_offset 8
 2752 00cc BD46     		mov	sp, r7
 2753              	.LCFI128:
 2754              		.cfi_def_cfa_register 13
 2755              		@ sp needed
 2756 00ce 80BD     		pop	{r7, pc}
 2757              		.cfi_endproc
 2758              	.LFE152:
 2760              		.section	.text.HAL_PCD_EP_Close,"ax",%progbits
 2761              		.align	1
 2762              		.global	HAL_PCD_EP_Close
 2763              		.syntax unified
 2764              		.thumb
 2765              		.thumb_func
 2766              		.fpu fpv4-sp-d16
ARM GAS  /var/folders/vq/qt4vp3kd5rxf7v2b6_fdtdt80000gn/T//cc6xBrdC.s 			page 80


 2768              	HAL_PCD_EP_Close:
 2769              	.LFB153:
1762:Drivers/STM32F4xx_HAL_Driver/Src/stm32f4xx_hal_pcd.c **** 
1763:Drivers/STM32F4xx_HAL_Driver/Src/stm32f4xx_hal_pcd.c **** /**
1764:Drivers/STM32F4xx_HAL_Driver/Src/stm32f4xx_hal_pcd.c ****   * @brief  Deactivate an endpoint.
1765:Drivers/STM32F4xx_HAL_Driver/Src/stm32f4xx_hal_pcd.c ****   * @param  hpcd PCD handle
1766:Drivers/STM32F4xx_HAL_Driver/Src/stm32f4xx_hal_pcd.c ****   * @param  ep_addr endpoint address
1767:Drivers/STM32F4xx_HAL_Driver/Src/stm32f4xx_hal_pcd.c ****   * @retval HAL status
1768:Drivers/STM32F4xx_HAL_Driver/Src/stm32f4xx_hal_pcd.c ****   */
1769:Drivers/STM32F4xx_HAL_Driver/Src/stm32f4xx_hal_pcd.c **** HAL_StatusTypeDef HAL_PCD_EP_Close(PCD_HandleTypeDef *hpcd, uint8_t ep_addr)
1770:Drivers/STM32F4xx_HAL_Driver/Src/stm32f4xx_hal_pcd.c **** {
 2770              		.loc 1 1770 1
 2771              		.cfi_startproc
 2772              		@ args = 0, pretend = 0, frame = 16
 2773              		@ frame_needed = 1, uses_anonymous_args = 0
 2774 0000 80B5     		push	{r7, lr}
 2775              	.LCFI129:
 2776              		.cfi_def_cfa_offset 8
 2777              		.cfi_offset 7, -8
 2778              		.cfi_offset 14, -4
 2779 0002 84B0     		sub	sp, sp, #16
 2780              	.LCFI130:
 2781              		.cfi_def_cfa_offset 24
 2782 0004 00AF     		add	r7, sp, #0
 2783              	.LCFI131:
 2784              		.cfi_def_cfa_register 7
 2785 0006 7860     		str	r0, [r7, #4]
 2786 0008 0B46     		mov	r3, r1
 2787 000a FB70     		strb	r3, [r7, #3]
1771:Drivers/STM32F4xx_HAL_Driver/Src/stm32f4xx_hal_pcd.c ****   PCD_EPTypeDef *ep;
1772:Drivers/STM32F4xx_HAL_Driver/Src/stm32f4xx_hal_pcd.c **** 
1773:Drivers/STM32F4xx_HAL_Driver/Src/stm32f4xx_hal_pcd.c ****   if ((ep_addr & 0x80U) == 0x80U)
 2788              		.loc 1 1773 25
 2789 000c 97F90330 		ldrsb	r3, [r7, #3]
 2790              		.loc 1 1773 6
 2791 0010 002B     		cmp	r3, #0
 2792 0012 0FDA     		bge	.L104
1774:Drivers/STM32F4xx_HAL_Driver/Src/stm32f4xx_hal_pcd.c ****   {
1775:Drivers/STM32F4xx_HAL_Driver/Src/stm32f4xx_hal_pcd.c ****     ep = &hpcd->IN_ep[ep_addr & EP_ADDR_MSK];
 2793              		.loc 1 1775 31
 2794 0014 FB78     		ldrb	r3, [r7, #3]	@ zero_extendqisi2
 2795 0016 03F00F02 		and	r2, r3, #15
 2796              		.loc 1 1775 8
 2797 001a 1346     		mov	r3, r2
 2798 001c DB00     		lsls	r3, r3, #3
 2799 001e 9B1A     		subs	r3, r3, r2
 2800 0020 9B00     		lsls	r3, r3, #2
 2801 0022 3833     		adds	r3, r3, #56
 2802 0024 7A68     		ldr	r2, [r7, #4]
 2803 0026 1344     		add	r3, r3, r2
 2804 0028 0433     		adds	r3, r3, #4
 2805 002a FB60     		str	r3, [r7, #12]
1776:Drivers/STM32F4xx_HAL_Driver/Src/stm32f4xx_hal_pcd.c ****     ep->is_in = 1U;
 2806              		.loc 1 1776 15
 2807 002c FB68     		ldr	r3, [r7, #12]
 2808 002e 0122     		movs	r2, #1
 2809 0030 5A70     		strb	r2, [r3, #1]
ARM GAS  /var/folders/vq/qt4vp3kd5rxf7v2b6_fdtdt80000gn/T//cc6xBrdC.s 			page 81


 2810 0032 0FE0     		b	.L105
 2811              	.L104:
1777:Drivers/STM32F4xx_HAL_Driver/Src/stm32f4xx_hal_pcd.c ****   }
1778:Drivers/STM32F4xx_HAL_Driver/Src/stm32f4xx_hal_pcd.c ****   else
1779:Drivers/STM32F4xx_HAL_Driver/Src/stm32f4xx_hal_pcd.c ****   {
1780:Drivers/STM32F4xx_HAL_Driver/Src/stm32f4xx_hal_pcd.c ****     ep = &hpcd->OUT_ep[ep_addr & EP_ADDR_MSK];
 2812              		.loc 1 1780 32
 2813 0034 FB78     		ldrb	r3, [r7, #3]	@ zero_extendqisi2
 2814 0036 03F00F02 		and	r2, r3, #15
 2815              		.loc 1 1780 8
 2816 003a 1346     		mov	r3, r2
 2817 003c DB00     		lsls	r3, r3, #3
 2818 003e 9B1A     		subs	r3, r3, r2
 2819 0040 9B00     		lsls	r3, r3, #2
 2820 0042 03F5FC73 		add	r3, r3, #504
 2821 0046 7A68     		ldr	r2, [r7, #4]
 2822 0048 1344     		add	r3, r3, r2
 2823 004a 0433     		adds	r3, r3, #4
 2824 004c FB60     		str	r3, [r7, #12]
1781:Drivers/STM32F4xx_HAL_Driver/Src/stm32f4xx_hal_pcd.c ****     ep->is_in = 0U;
 2825              		.loc 1 1781 15
 2826 004e FB68     		ldr	r3, [r7, #12]
 2827 0050 0022     		movs	r2, #0
 2828 0052 5A70     		strb	r2, [r3, #1]
 2829              	.L105:
1782:Drivers/STM32F4xx_HAL_Driver/Src/stm32f4xx_hal_pcd.c ****   }
1783:Drivers/STM32F4xx_HAL_Driver/Src/stm32f4xx_hal_pcd.c ****   ep->num   = ep_addr & EP_ADDR_MSK;
 2830              		.loc 1 1783 23
 2831 0054 FB78     		ldrb	r3, [r7, #3]
 2832 0056 03F00F03 		and	r3, r3, #15
 2833 005a DAB2     		uxtb	r2, r3
 2834              		.loc 1 1783 13
 2835 005c FB68     		ldr	r3, [r7, #12]
 2836 005e 1A70     		strb	r2, [r3]
1784:Drivers/STM32F4xx_HAL_Driver/Src/stm32f4xx_hal_pcd.c **** 
1785:Drivers/STM32F4xx_HAL_Driver/Src/stm32f4xx_hal_pcd.c ****   __HAL_LOCK(hpcd);
 2837              		.loc 1 1785 3
 2838 0060 7B68     		ldr	r3, [r7, #4]
 2839 0062 93F8BC33 		ldrb	r3, [r3, #956]	@ zero_extendqisi2
 2840 0066 012B     		cmp	r3, #1
 2841 0068 01D1     		bne	.L106
 2842              		.loc 1 1785 3 is_stmt 0 discriminator 1
 2843 006a 0223     		movs	r3, #2
 2844 006c 0EE0     		b	.L107
 2845              	.L106:
 2846              		.loc 1 1785 3 discriminator 2
 2847 006e 7B68     		ldr	r3, [r7, #4]
 2848 0070 0122     		movs	r2, #1
 2849 0072 83F8BC23 		strb	r2, [r3, #956]
1786:Drivers/STM32F4xx_HAL_Driver/Src/stm32f4xx_hal_pcd.c ****   (void)USB_DeactivateEndpoint(hpcd->Instance, ep);
 2850              		.loc 1 1786 36 is_stmt 1 discriminator 2
 2851 0076 7B68     		ldr	r3, [r7, #4]
 2852 0078 1B68     		ldr	r3, [r3]
 2853              		.loc 1 1786 9 discriminator 2
 2854 007a F968     		ldr	r1, [r7, #12]
 2855 007c 1846     		mov	r0, r3
 2856 007e FFF7FEFF 		bl	USB_DeactivateEndpoint
ARM GAS  /var/folders/vq/qt4vp3kd5rxf7v2b6_fdtdt80000gn/T//cc6xBrdC.s 			page 82


1787:Drivers/STM32F4xx_HAL_Driver/Src/stm32f4xx_hal_pcd.c ****   __HAL_UNLOCK(hpcd);
 2857              		.loc 1 1787 3 discriminator 2
 2858 0082 7B68     		ldr	r3, [r7, #4]
 2859 0084 0022     		movs	r2, #0
 2860 0086 83F8BC23 		strb	r2, [r3, #956]
1788:Drivers/STM32F4xx_HAL_Driver/Src/stm32f4xx_hal_pcd.c ****   return HAL_OK;
 2861              		.loc 1 1788 10 discriminator 2
 2862 008a 0023     		movs	r3, #0
 2863              	.L107:
1789:Drivers/STM32F4xx_HAL_Driver/Src/stm32f4xx_hal_pcd.c **** }
 2864              		.loc 1 1789 1
 2865 008c 1846     		mov	r0, r3
 2866 008e 1037     		adds	r7, r7, #16
 2867              	.LCFI132:
 2868              		.cfi_def_cfa_offset 8
 2869 0090 BD46     		mov	sp, r7
 2870              	.LCFI133:
 2871              		.cfi_def_cfa_register 13
 2872              		@ sp needed
 2873 0092 80BD     		pop	{r7, pc}
 2874              		.cfi_endproc
 2875              	.LFE153:
 2877              		.section	.text.HAL_PCD_EP_Receive,"ax",%progbits
 2878              		.align	1
 2879              		.global	HAL_PCD_EP_Receive
 2880              		.syntax unified
 2881              		.thumb
 2882              		.thumb_func
 2883              		.fpu fpv4-sp-d16
 2885              	HAL_PCD_EP_Receive:
 2886              	.LFB154:
1790:Drivers/STM32F4xx_HAL_Driver/Src/stm32f4xx_hal_pcd.c **** 
1791:Drivers/STM32F4xx_HAL_Driver/Src/stm32f4xx_hal_pcd.c **** 
1792:Drivers/STM32F4xx_HAL_Driver/Src/stm32f4xx_hal_pcd.c **** /**
1793:Drivers/STM32F4xx_HAL_Driver/Src/stm32f4xx_hal_pcd.c ****   * @brief  Receive an amount of data.
1794:Drivers/STM32F4xx_HAL_Driver/Src/stm32f4xx_hal_pcd.c ****   * @param  hpcd PCD handle
1795:Drivers/STM32F4xx_HAL_Driver/Src/stm32f4xx_hal_pcd.c ****   * @param  ep_addr endpoint address
1796:Drivers/STM32F4xx_HAL_Driver/Src/stm32f4xx_hal_pcd.c ****   * @param  pBuf pointer to the reception buffer
1797:Drivers/STM32F4xx_HAL_Driver/Src/stm32f4xx_hal_pcd.c ****   * @param  len amount of data to be received
1798:Drivers/STM32F4xx_HAL_Driver/Src/stm32f4xx_hal_pcd.c ****   * @retval HAL status
1799:Drivers/STM32F4xx_HAL_Driver/Src/stm32f4xx_hal_pcd.c ****   */
1800:Drivers/STM32F4xx_HAL_Driver/Src/stm32f4xx_hal_pcd.c **** HAL_StatusTypeDef HAL_PCD_EP_Receive(PCD_HandleTypeDef *hpcd, uint8_t ep_addr, uint8_t *pBuf, uint3
1801:Drivers/STM32F4xx_HAL_Driver/Src/stm32f4xx_hal_pcd.c **** {
 2887              		.loc 1 1801 1
 2888              		.cfi_startproc
 2889              		@ args = 0, pretend = 0, frame = 24
 2890              		@ frame_needed = 1, uses_anonymous_args = 0
 2891 0000 80B5     		push	{r7, lr}
 2892              	.LCFI134:
 2893              		.cfi_def_cfa_offset 8
 2894              		.cfi_offset 7, -8
 2895              		.cfi_offset 14, -4
 2896 0002 86B0     		sub	sp, sp, #24
 2897              	.LCFI135:
 2898              		.cfi_def_cfa_offset 32
 2899 0004 00AF     		add	r7, sp, #0
 2900              	.LCFI136:
ARM GAS  /var/folders/vq/qt4vp3kd5rxf7v2b6_fdtdt80000gn/T//cc6xBrdC.s 			page 83


 2901              		.cfi_def_cfa_register 7
 2902 0006 F860     		str	r0, [r7, #12]
 2903 0008 7A60     		str	r2, [r7, #4]
 2904 000a 3B60     		str	r3, [r7]
 2905 000c 0B46     		mov	r3, r1
 2906 000e FB72     		strb	r3, [r7, #11]
1802:Drivers/STM32F4xx_HAL_Driver/Src/stm32f4xx_hal_pcd.c ****   PCD_EPTypeDef *ep;
1803:Drivers/STM32F4xx_HAL_Driver/Src/stm32f4xx_hal_pcd.c **** 
1804:Drivers/STM32F4xx_HAL_Driver/Src/stm32f4xx_hal_pcd.c ****   ep = &hpcd->OUT_ep[ep_addr & EP_ADDR_MSK];
 2907              		.loc 1 1804 30
 2908 0010 FB7A     		ldrb	r3, [r7, #11]	@ zero_extendqisi2
 2909 0012 03F00F02 		and	r2, r3, #15
 2910              		.loc 1 1804 6
 2911 0016 1346     		mov	r3, r2
 2912 0018 DB00     		lsls	r3, r3, #3
 2913 001a 9B1A     		subs	r3, r3, r2
 2914 001c 9B00     		lsls	r3, r3, #2
 2915 001e 03F5FC73 		add	r3, r3, #504
 2916 0022 FA68     		ldr	r2, [r7, #12]
 2917 0024 1344     		add	r3, r3, r2
 2918 0026 0433     		adds	r3, r3, #4
 2919 0028 7B61     		str	r3, [r7, #20]
1805:Drivers/STM32F4xx_HAL_Driver/Src/stm32f4xx_hal_pcd.c **** 
1806:Drivers/STM32F4xx_HAL_Driver/Src/stm32f4xx_hal_pcd.c ****   /*setup and start the Xfer */
1807:Drivers/STM32F4xx_HAL_Driver/Src/stm32f4xx_hal_pcd.c ****   ep->xfer_buff = pBuf;
 2920              		.loc 1 1807 17
 2921 002a 7B69     		ldr	r3, [r7, #20]
 2922 002c 7A68     		ldr	r2, [r7, #4]
 2923 002e DA60     		str	r2, [r3, #12]
1808:Drivers/STM32F4xx_HAL_Driver/Src/stm32f4xx_hal_pcd.c ****   ep->xfer_len = len;
 2924              		.loc 1 1808 16
 2925 0030 7B69     		ldr	r3, [r7, #20]
 2926 0032 3A68     		ldr	r2, [r7]
 2927 0034 5A61     		str	r2, [r3, #20]
1809:Drivers/STM32F4xx_HAL_Driver/Src/stm32f4xx_hal_pcd.c ****   ep->xfer_count = 0U;
 2928              		.loc 1 1809 18
 2929 0036 7B69     		ldr	r3, [r7, #20]
 2930 0038 0022     		movs	r2, #0
 2931 003a 9A61     		str	r2, [r3, #24]
1810:Drivers/STM32F4xx_HAL_Driver/Src/stm32f4xx_hal_pcd.c ****   ep->is_in = 0U;
 2932              		.loc 1 1810 13
 2933 003c 7B69     		ldr	r3, [r7, #20]
 2934 003e 0022     		movs	r2, #0
 2935 0040 5A70     		strb	r2, [r3, #1]
1811:Drivers/STM32F4xx_HAL_Driver/Src/stm32f4xx_hal_pcd.c ****   ep->num = ep_addr & EP_ADDR_MSK;
 2936              		.loc 1 1811 21
 2937 0042 FB7A     		ldrb	r3, [r7, #11]
 2938 0044 03F00F03 		and	r3, r3, #15
 2939 0048 DAB2     		uxtb	r2, r3
 2940              		.loc 1 1811 11
 2941 004a 7B69     		ldr	r3, [r7, #20]
 2942 004c 1A70     		strb	r2, [r3]
1812:Drivers/STM32F4xx_HAL_Driver/Src/stm32f4xx_hal_pcd.c **** 
1813:Drivers/STM32F4xx_HAL_Driver/Src/stm32f4xx_hal_pcd.c ****   if (hpcd->Init.dma_enable == 1U)
 2943              		.loc 1 1813 17
 2944 004e FB68     		ldr	r3, [r7, #12]
 2945 0050 1B69     		ldr	r3, [r3, #16]
ARM GAS  /var/folders/vq/qt4vp3kd5rxf7v2b6_fdtdt80000gn/T//cc6xBrdC.s 			page 84


 2946              		.loc 1 1813 6
 2947 0052 012B     		cmp	r3, #1
 2948 0054 02D1     		bne	.L109
1814:Drivers/STM32F4xx_HAL_Driver/Src/stm32f4xx_hal_pcd.c ****   {
1815:Drivers/STM32F4xx_HAL_Driver/Src/stm32f4xx_hal_pcd.c ****     ep->dma_addr = (uint32_t)pBuf;
 2949              		.loc 1 1815 20
 2950 0056 7A68     		ldr	r2, [r7, #4]
 2951              		.loc 1 1815 18
 2952 0058 7B69     		ldr	r3, [r7, #20]
 2953 005a 1A61     		str	r2, [r3, #16]
 2954              	.L109:
1816:Drivers/STM32F4xx_HAL_Driver/Src/stm32f4xx_hal_pcd.c ****   }
1817:Drivers/STM32F4xx_HAL_Driver/Src/stm32f4xx_hal_pcd.c **** 
1818:Drivers/STM32F4xx_HAL_Driver/Src/stm32f4xx_hal_pcd.c ****   if ((ep_addr & EP_ADDR_MSK) == 0U)
 2955              		.loc 1 1818 16
 2956 005c FB7A     		ldrb	r3, [r7, #11]	@ zero_extendqisi2
 2957 005e 03F00F03 		and	r3, r3, #15
 2958              		.loc 1 1818 6
 2959 0062 002B     		cmp	r3, #0
 2960 0064 09D1     		bne	.L110
1819:Drivers/STM32F4xx_HAL_Driver/Src/stm32f4xx_hal_pcd.c ****   {
1820:Drivers/STM32F4xx_HAL_Driver/Src/stm32f4xx_hal_pcd.c ****     (void)USB_EP0StartXfer(hpcd->Instance, ep, (uint8_t)hpcd->Init.dma_enable);
 2961              		.loc 1 1820 32
 2962 0066 FB68     		ldr	r3, [r7, #12]
 2963 0068 1868     		ldr	r0, [r3]
 2964              		.loc 1 1820 67
 2965 006a FB68     		ldr	r3, [r7, #12]
 2966 006c 1B69     		ldr	r3, [r3, #16]
 2967              		.loc 1 1820 11
 2968 006e DBB2     		uxtb	r3, r3
 2969 0070 1A46     		mov	r2, r3
 2970 0072 7969     		ldr	r1, [r7, #20]
 2971 0074 FFF7FEFF 		bl	USB_EP0StartXfer
 2972 0078 08E0     		b	.L111
 2973              	.L110:
1821:Drivers/STM32F4xx_HAL_Driver/Src/stm32f4xx_hal_pcd.c ****   }
1822:Drivers/STM32F4xx_HAL_Driver/Src/stm32f4xx_hal_pcd.c ****   else
1823:Drivers/STM32F4xx_HAL_Driver/Src/stm32f4xx_hal_pcd.c ****   {
1824:Drivers/STM32F4xx_HAL_Driver/Src/stm32f4xx_hal_pcd.c ****     (void)USB_EPStartXfer(hpcd->Instance, ep, (uint8_t)hpcd->Init.dma_enable);
 2974              		.loc 1 1824 31
 2975 007a FB68     		ldr	r3, [r7, #12]
 2976 007c 1868     		ldr	r0, [r3]
 2977              		.loc 1 1824 66
 2978 007e FB68     		ldr	r3, [r7, #12]
 2979 0080 1B69     		ldr	r3, [r3, #16]
 2980              		.loc 1 1824 11
 2981 0082 DBB2     		uxtb	r3, r3
 2982 0084 1A46     		mov	r2, r3
 2983 0086 7969     		ldr	r1, [r7, #20]
 2984 0088 FFF7FEFF 		bl	USB_EPStartXfer
 2985              	.L111:
1825:Drivers/STM32F4xx_HAL_Driver/Src/stm32f4xx_hal_pcd.c ****   }
1826:Drivers/STM32F4xx_HAL_Driver/Src/stm32f4xx_hal_pcd.c **** 
1827:Drivers/STM32F4xx_HAL_Driver/Src/stm32f4xx_hal_pcd.c ****   return HAL_OK;
 2986              		.loc 1 1827 10
 2987 008c 0023     		movs	r3, #0
1828:Drivers/STM32F4xx_HAL_Driver/Src/stm32f4xx_hal_pcd.c **** }
ARM GAS  /var/folders/vq/qt4vp3kd5rxf7v2b6_fdtdt80000gn/T//cc6xBrdC.s 			page 85


 2988              		.loc 1 1828 1
 2989 008e 1846     		mov	r0, r3
 2990 0090 1837     		adds	r7, r7, #24
 2991              	.LCFI137:
 2992              		.cfi_def_cfa_offset 8
 2993 0092 BD46     		mov	sp, r7
 2994              	.LCFI138:
 2995              		.cfi_def_cfa_register 13
 2996              		@ sp needed
 2997 0094 80BD     		pop	{r7, pc}
 2998              		.cfi_endproc
 2999              	.LFE154:
 3001              		.section	.text.HAL_PCD_EP_GetRxCount,"ax",%progbits
 3002              		.align	1
 3003              		.global	HAL_PCD_EP_GetRxCount
 3004              		.syntax unified
 3005              		.thumb
 3006              		.thumb_func
 3007              		.fpu fpv4-sp-d16
 3009              	HAL_PCD_EP_GetRxCount:
 3010              	.LFB155:
1829:Drivers/STM32F4xx_HAL_Driver/Src/stm32f4xx_hal_pcd.c **** 
1830:Drivers/STM32F4xx_HAL_Driver/Src/stm32f4xx_hal_pcd.c **** /**
1831:Drivers/STM32F4xx_HAL_Driver/Src/stm32f4xx_hal_pcd.c ****   * @brief  Get Received Data Size
1832:Drivers/STM32F4xx_HAL_Driver/Src/stm32f4xx_hal_pcd.c ****   * @param  hpcd PCD handle
1833:Drivers/STM32F4xx_HAL_Driver/Src/stm32f4xx_hal_pcd.c ****   * @param  ep_addr endpoint address
1834:Drivers/STM32F4xx_HAL_Driver/Src/stm32f4xx_hal_pcd.c ****   * @retval Data Size
1835:Drivers/STM32F4xx_HAL_Driver/Src/stm32f4xx_hal_pcd.c ****   */
1836:Drivers/STM32F4xx_HAL_Driver/Src/stm32f4xx_hal_pcd.c **** uint32_t HAL_PCD_EP_GetRxCount(PCD_HandleTypeDef *hpcd, uint8_t ep_addr)
1837:Drivers/STM32F4xx_HAL_Driver/Src/stm32f4xx_hal_pcd.c **** {
 3011              		.loc 1 1837 1
 3012              		.cfi_startproc
 3013              		@ args = 0, pretend = 0, frame = 8
 3014              		@ frame_needed = 1, uses_anonymous_args = 0
 3015              		@ link register save eliminated.
 3016 0000 80B4     		push	{r7}
 3017              	.LCFI139:
 3018              		.cfi_def_cfa_offset 4
 3019              		.cfi_offset 7, -4
 3020 0002 83B0     		sub	sp, sp, #12
 3021              	.LCFI140:
 3022              		.cfi_def_cfa_offset 16
 3023 0004 00AF     		add	r7, sp, #0
 3024              	.LCFI141:
 3025              		.cfi_def_cfa_register 7
 3026 0006 7860     		str	r0, [r7, #4]
 3027 0008 0B46     		mov	r3, r1
 3028 000a FB70     		strb	r3, [r7, #3]
1838:Drivers/STM32F4xx_HAL_Driver/Src/stm32f4xx_hal_pcd.c ****   return hpcd->OUT_ep[ep_addr & EP_ADDR_MSK].xfer_count;
 3029              		.loc 1 1838 31
 3030 000c FB78     		ldrb	r3, [r7, #3]	@ zero_extendqisi2
 3031 000e 03F00F02 		and	r2, r3, #15
 3032              		.loc 1 1838 45
 3033 0012 7968     		ldr	r1, [r7, #4]
 3034 0014 1346     		mov	r3, r2
 3035 0016 DB00     		lsls	r3, r3, #3
 3036 0018 9B1A     		subs	r3, r3, r2
ARM GAS  /var/folders/vq/qt4vp3kd5rxf7v2b6_fdtdt80000gn/T//cc6xBrdC.s 			page 86


 3037 001a 9B00     		lsls	r3, r3, #2
 3038 001c 0B44     		add	r3, r3, r1
 3039 001e 03F50573 		add	r3, r3, #532
 3040 0022 1B68     		ldr	r3, [r3]
1839:Drivers/STM32F4xx_HAL_Driver/Src/stm32f4xx_hal_pcd.c **** }
 3041              		.loc 1 1839 1
 3042 0024 1846     		mov	r0, r3
 3043 0026 0C37     		adds	r7, r7, #12
 3044              	.LCFI142:
 3045              		.cfi_def_cfa_offset 4
 3046 0028 BD46     		mov	sp, r7
 3047              	.LCFI143:
 3048              		.cfi_def_cfa_register 13
 3049              		@ sp needed
 3050 002a 5DF8047B 		ldr	r7, [sp], #4
 3051              	.LCFI144:
 3052              		.cfi_restore 7
 3053              		.cfi_def_cfa_offset 0
 3054 002e 7047     		bx	lr
 3055              		.cfi_endproc
 3056              	.LFE155:
 3058              		.section	.text.HAL_PCD_EP_Transmit,"ax",%progbits
 3059              		.align	1
 3060              		.global	HAL_PCD_EP_Transmit
 3061              		.syntax unified
 3062              		.thumb
 3063              		.thumb_func
 3064              		.fpu fpv4-sp-d16
 3066              	HAL_PCD_EP_Transmit:
 3067              	.LFB156:
1840:Drivers/STM32F4xx_HAL_Driver/Src/stm32f4xx_hal_pcd.c **** /**
1841:Drivers/STM32F4xx_HAL_Driver/Src/stm32f4xx_hal_pcd.c ****   * @brief  Send an amount of data
1842:Drivers/STM32F4xx_HAL_Driver/Src/stm32f4xx_hal_pcd.c ****   * @param  hpcd PCD handle
1843:Drivers/STM32F4xx_HAL_Driver/Src/stm32f4xx_hal_pcd.c ****   * @param  ep_addr endpoint address
1844:Drivers/STM32F4xx_HAL_Driver/Src/stm32f4xx_hal_pcd.c ****   * @param  pBuf pointer to the transmission buffer
1845:Drivers/STM32F4xx_HAL_Driver/Src/stm32f4xx_hal_pcd.c ****   * @param  len amount of data to be sent
1846:Drivers/STM32F4xx_HAL_Driver/Src/stm32f4xx_hal_pcd.c ****   * @retval HAL status
1847:Drivers/STM32F4xx_HAL_Driver/Src/stm32f4xx_hal_pcd.c ****   */
1848:Drivers/STM32F4xx_HAL_Driver/Src/stm32f4xx_hal_pcd.c **** HAL_StatusTypeDef HAL_PCD_EP_Transmit(PCD_HandleTypeDef *hpcd, uint8_t ep_addr, uint8_t *pBuf, uint
1849:Drivers/STM32F4xx_HAL_Driver/Src/stm32f4xx_hal_pcd.c **** {
 3068              		.loc 1 1849 1
 3069              		.cfi_startproc
 3070              		@ args = 0, pretend = 0, frame = 24
 3071              		@ frame_needed = 1, uses_anonymous_args = 0
 3072 0000 80B5     		push	{r7, lr}
 3073              	.LCFI145:
 3074              		.cfi_def_cfa_offset 8
 3075              		.cfi_offset 7, -8
 3076              		.cfi_offset 14, -4
 3077 0002 86B0     		sub	sp, sp, #24
 3078              	.LCFI146:
 3079              		.cfi_def_cfa_offset 32
 3080 0004 00AF     		add	r7, sp, #0
 3081              	.LCFI147:
 3082              		.cfi_def_cfa_register 7
 3083 0006 F860     		str	r0, [r7, #12]
 3084 0008 7A60     		str	r2, [r7, #4]
ARM GAS  /var/folders/vq/qt4vp3kd5rxf7v2b6_fdtdt80000gn/T//cc6xBrdC.s 			page 87


 3085 000a 3B60     		str	r3, [r7]
 3086 000c 0B46     		mov	r3, r1
 3087 000e FB72     		strb	r3, [r7, #11]
1850:Drivers/STM32F4xx_HAL_Driver/Src/stm32f4xx_hal_pcd.c ****   PCD_EPTypeDef *ep;
1851:Drivers/STM32F4xx_HAL_Driver/Src/stm32f4xx_hal_pcd.c **** 
1852:Drivers/STM32F4xx_HAL_Driver/Src/stm32f4xx_hal_pcd.c ****   ep = &hpcd->IN_ep[ep_addr & EP_ADDR_MSK];
 3088              		.loc 1 1852 29
 3089 0010 FB7A     		ldrb	r3, [r7, #11]	@ zero_extendqisi2
 3090 0012 03F00F02 		and	r2, r3, #15
 3091              		.loc 1 1852 6
 3092 0016 1346     		mov	r3, r2
 3093 0018 DB00     		lsls	r3, r3, #3
 3094 001a 9B1A     		subs	r3, r3, r2
 3095 001c 9B00     		lsls	r3, r3, #2
 3096 001e 3833     		adds	r3, r3, #56
 3097 0020 FA68     		ldr	r2, [r7, #12]
 3098 0022 1344     		add	r3, r3, r2
 3099 0024 0433     		adds	r3, r3, #4
 3100 0026 7B61     		str	r3, [r7, #20]
1853:Drivers/STM32F4xx_HAL_Driver/Src/stm32f4xx_hal_pcd.c **** 
1854:Drivers/STM32F4xx_HAL_Driver/Src/stm32f4xx_hal_pcd.c ****   /*setup and start the Xfer */
1855:Drivers/STM32F4xx_HAL_Driver/Src/stm32f4xx_hal_pcd.c ****   ep->xfer_buff = pBuf;
 3101              		.loc 1 1855 17
 3102 0028 7B69     		ldr	r3, [r7, #20]
 3103 002a 7A68     		ldr	r2, [r7, #4]
 3104 002c DA60     		str	r2, [r3, #12]
1856:Drivers/STM32F4xx_HAL_Driver/Src/stm32f4xx_hal_pcd.c ****   ep->xfer_len = len;
 3105              		.loc 1 1856 16
 3106 002e 7B69     		ldr	r3, [r7, #20]
 3107 0030 3A68     		ldr	r2, [r7]
 3108 0032 5A61     		str	r2, [r3, #20]
1857:Drivers/STM32F4xx_HAL_Driver/Src/stm32f4xx_hal_pcd.c ****   ep->xfer_count = 0U;
 3109              		.loc 1 1857 18
 3110 0034 7B69     		ldr	r3, [r7, #20]
 3111 0036 0022     		movs	r2, #0
 3112 0038 9A61     		str	r2, [r3, #24]
1858:Drivers/STM32F4xx_HAL_Driver/Src/stm32f4xx_hal_pcd.c ****   ep->is_in = 1U;
 3113              		.loc 1 1858 13
 3114 003a 7B69     		ldr	r3, [r7, #20]
 3115 003c 0122     		movs	r2, #1
 3116 003e 5A70     		strb	r2, [r3, #1]
1859:Drivers/STM32F4xx_HAL_Driver/Src/stm32f4xx_hal_pcd.c ****   ep->num = ep_addr & EP_ADDR_MSK;
 3117              		.loc 1 1859 21
 3118 0040 FB7A     		ldrb	r3, [r7, #11]
 3119 0042 03F00F03 		and	r3, r3, #15
 3120 0046 DAB2     		uxtb	r2, r3
 3121              		.loc 1 1859 11
 3122 0048 7B69     		ldr	r3, [r7, #20]
 3123 004a 1A70     		strb	r2, [r3]
1860:Drivers/STM32F4xx_HAL_Driver/Src/stm32f4xx_hal_pcd.c **** 
1861:Drivers/STM32F4xx_HAL_Driver/Src/stm32f4xx_hal_pcd.c ****   if (hpcd->Init.dma_enable == 1U)
 3124              		.loc 1 1861 17
 3125 004c FB68     		ldr	r3, [r7, #12]
 3126 004e 1B69     		ldr	r3, [r3, #16]
 3127              		.loc 1 1861 6
 3128 0050 012B     		cmp	r3, #1
 3129 0052 02D1     		bne	.L116
ARM GAS  /var/folders/vq/qt4vp3kd5rxf7v2b6_fdtdt80000gn/T//cc6xBrdC.s 			page 88


1862:Drivers/STM32F4xx_HAL_Driver/Src/stm32f4xx_hal_pcd.c ****   {
1863:Drivers/STM32F4xx_HAL_Driver/Src/stm32f4xx_hal_pcd.c ****     ep->dma_addr = (uint32_t)pBuf;
 3130              		.loc 1 1863 20
 3131 0054 7A68     		ldr	r2, [r7, #4]
 3132              		.loc 1 1863 18
 3133 0056 7B69     		ldr	r3, [r7, #20]
 3134 0058 1A61     		str	r2, [r3, #16]
 3135              	.L116:
1864:Drivers/STM32F4xx_HAL_Driver/Src/stm32f4xx_hal_pcd.c ****   }
1865:Drivers/STM32F4xx_HAL_Driver/Src/stm32f4xx_hal_pcd.c **** 
1866:Drivers/STM32F4xx_HAL_Driver/Src/stm32f4xx_hal_pcd.c ****   if ((ep_addr & EP_ADDR_MSK) == 0U)
 3136              		.loc 1 1866 16
 3137 005a FB7A     		ldrb	r3, [r7, #11]	@ zero_extendqisi2
 3138 005c 03F00F03 		and	r3, r3, #15
 3139              		.loc 1 1866 6
 3140 0060 002B     		cmp	r3, #0
 3141 0062 09D1     		bne	.L117
1867:Drivers/STM32F4xx_HAL_Driver/Src/stm32f4xx_hal_pcd.c ****   {
1868:Drivers/STM32F4xx_HAL_Driver/Src/stm32f4xx_hal_pcd.c ****     (void)USB_EP0StartXfer(hpcd->Instance, ep, (uint8_t)hpcd->Init.dma_enable);
 3142              		.loc 1 1868 32
 3143 0064 FB68     		ldr	r3, [r7, #12]
 3144 0066 1868     		ldr	r0, [r3]
 3145              		.loc 1 1868 67
 3146 0068 FB68     		ldr	r3, [r7, #12]
 3147 006a 1B69     		ldr	r3, [r3, #16]
 3148              		.loc 1 1868 11
 3149 006c DBB2     		uxtb	r3, r3
 3150 006e 1A46     		mov	r2, r3
 3151 0070 7969     		ldr	r1, [r7, #20]
 3152 0072 FFF7FEFF 		bl	USB_EP0StartXfer
 3153 0076 08E0     		b	.L118
 3154              	.L117:
1869:Drivers/STM32F4xx_HAL_Driver/Src/stm32f4xx_hal_pcd.c ****   }
1870:Drivers/STM32F4xx_HAL_Driver/Src/stm32f4xx_hal_pcd.c ****   else
1871:Drivers/STM32F4xx_HAL_Driver/Src/stm32f4xx_hal_pcd.c ****   {
1872:Drivers/STM32F4xx_HAL_Driver/Src/stm32f4xx_hal_pcd.c ****     (void)USB_EPStartXfer(hpcd->Instance, ep, (uint8_t)hpcd->Init.dma_enable);
 3155              		.loc 1 1872 31
 3156 0078 FB68     		ldr	r3, [r7, #12]
 3157 007a 1868     		ldr	r0, [r3]
 3158              		.loc 1 1872 66
 3159 007c FB68     		ldr	r3, [r7, #12]
 3160 007e 1B69     		ldr	r3, [r3, #16]
 3161              		.loc 1 1872 11
 3162 0080 DBB2     		uxtb	r3, r3
 3163 0082 1A46     		mov	r2, r3
 3164 0084 7969     		ldr	r1, [r7, #20]
 3165 0086 FFF7FEFF 		bl	USB_EPStartXfer
 3166              	.L118:
1873:Drivers/STM32F4xx_HAL_Driver/Src/stm32f4xx_hal_pcd.c ****   }
1874:Drivers/STM32F4xx_HAL_Driver/Src/stm32f4xx_hal_pcd.c **** 
1875:Drivers/STM32F4xx_HAL_Driver/Src/stm32f4xx_hal_pcd.c ****   return HAL_OK;
 3167              		.loc 1 1875 10
 3168 008a 0023     		movs	r3, #0
1876:Drivers/STM32F4xx_HAL_Driver/Src/stm32f4xx_hal_pcd.c **** }
 3169              		.loc 1 1876 1
 3170 008c 1846     		mov	r0, r3
 3171 008e 1837     		adds	r7, r7, #24
ARM GAS  /var/folders/vq/qt4vp3kd5rxf7v2b6_fdtdt80000gn/T//cc6xBrdC.s 			page 89


 3172              	.LCFI148:
 3173              		.cfi_def_cfa_offset 8
 3174 0090 BD46     		mov	sp, r7
 3175              	.LCFI149:
 3176              		.cfi_def_cfa_register 13
 3177              		@ sp needed
 3178 0092 80BD     		pop	{r7, pc}
 3179              		.cfi_endproc
 3180              	.LFE156:
 3182              		.section	.text.HAL_PCD_EP_SetStall,"ax",%progbits
 3183              		.align	1
 3184              		.global	HAL_PCD_EP_SetStall
 3185              		.syntax unified
 3186              		.thumb
 3187              		.thumb_func
 3188              		.fpu fpv4-sp-d16
 3190              	HAL_PCD_EP_SetStall:
 3191              	.LFB157:
1877:Drivers/STM32F4xx_HAL_Driver/Src/stm32f4xx_hal_pcd.c **** 
1878:Drivers/STM32F4xx_HAL_Driver/Src/stm32f4xx_hal_pcd.c **** /**
1879:Drivers/STM32F4xx_HAL_Driver/Src/stm32f4xx_hal_pcd.c ****   * @brief  Set a STALL condition over an endpoint
1880:Drivers/STM32F4xx_HAL_Driver/Src/stm32f4xx_hal_pcd.c ****   * @param  hpcd PCD handle
1881:Drivers/STM32F4xx_HAL_Driver/Src/stm32f4xx_hal_pcd.c ****   * @param  ep_addr endpoint address
1882:Drivers/STM32F4xx_HAL_Driver/Src/stm32f4xx_hal_pcd.c ****   * @retval HAL status
1883:Drivers/STM32F4xx_HAL_Driver/Src/stm32f4xx_hal_pcd.c ****   */
1884:Drivers/STM32F4xx_HAL_Driver/Src/stm32f4xx_hal_pcd.c **** HAL_StatusTypeDef HAL_PCD_EP_SetStall(PCD_HandleTypeDef *hpcd, uint8_t ep_addr)
1885:Drivers/STM32F4xx_HAL_Driver/Src/stm32f4xx_hal_pcd.c **** {
 3192              		.loc 1 1885 1
 3193              		.cfi_startproc
 3194              		@ args = 0, pretend = 0, frame = 16
 3195              		@ frame_needed = 1, uses_anonymous_args = 0
 3196 0000 80B5     		push	{r7, lr}
 3197              	.LCFI150:
 3198              		.cfi_def_cfa_offset 8
 3199              		.cfi_offset 7, -8
 3200              		.cfi_offset 14, -4
 3201 0002 84B0     		sub	sp, sp, #16
 3202              	.LCFI151:
 3203              		.cfi_def_cfa_offset 24
 3204 0004 00AF     		add	r7, sp, #0
 3205              	.LCFI152:
 3206              		.cfi_def_cfa_register 7
 3207 0006 7860     		str	r0, [r7, #4]
 3208 0008 0B46     		mov	r3, r1
 3209 000a FB70     		strb	r3, [r7, #3]
1886:Drivers/STM32F4xx_HAL_Driver/Src/stm32f4xx_hal_pcd.c ****   PCD_EPTypeDef *ep;
1887:Drivers/STM32F4xx_HAL_Driver/Src/stm32f4xx_hal_pcd.c **** 
1888:Drivers/STM32F4xx_HAL_Driver/Src/stm32f4xx_hal_pcd.c ****   if (((uint32_t)ep_addr & EP_ADDR_MSK) > hpcd->Init.dev_endpoints)
 3210              		.loc 1 1888 26
 3211 000c FB78     		ldrb	r3, [r7, #3]	@ zero_extendqisi2
 3212 000e 03F00F02 		and	r2, r3, #15
 3213              		.loc 1 1888 53
 3214 0012 7B68     		ldr	r3, [r7, #4]
 3215 0014 5B68     		ldr	r3, [r3, #4]
 3216              		.loc 1 1888 6
 3217 0016 9A42     		cmp	r2, r3
 3218 0018 01D9     		bls	.L121
ARM GAS  /var/folders/vq/qt4vp3kd5rxf7v2b6_fdtdt80000gn/T//cc6xBrdC.s 			page 90


1889:Drivers/STM32F4xx_HAL_Driver/Src/stm32f4xx_hal_pcd.c ****   {
1890:Drivers/STM32F4xx_HAL_Driver/Src/stm32f4xx_hal_pcd.c ****     return HAL_ERROR;
 3219              		.loc 1 1890 12
 3220 001a 0123     		movs	r3, #1
 3221 001c 50E0     		b	.L122
 3222              	.L121:
1891:Drivers/STM32F4xx_HAL_Driver/Src/stm32f4xx_hal_pcd.c ****   }
1892:Drivers/STM32F4xx_HAL_Driver/Src/stm32f4xx_hal_pcd.c **** 
1893:Drivers/STM32F4xx_HAL_Driver/Src/stm32f4xx_hal_pcd.c ****   if ((0x80U & ep_addr) == 0x80U)
 3223              		.loc 1 1893 25
 3224 001e 97F90330 		ldrsb	r3, [r7, #3]
 3225              		.loc 1 1893 6
 3226 0022 002B     		cmp	r3, #0
 3227 0024 0FDA     		bge	.L123
1894:Drivers/STM32F4xx_HAL_Driver/Src/stm32f4xx_hal_pcd.c ****   {
1895:Drivers/STM32F4xx_HAL_Driver/Src/stm32f4xx_hal_pcd.c ****     ep = &hpcd->IN_ep[ep_addr & EP_ADDR_MSK];
 3228              		.loc 1 1895 31
 3229 0026 FB78     		ldrb	r3, [r7, #3]	@ zero_extendqisi2
 3230 0028 03F00F02 		and	r2, r3, #15
 3231              		.loc 1 1895 8
 3232 002c 1346     		mov	r3, r2
 3233 002e DB00     		lsls	r3, r3, #3
 3234 0030 9B1A     		subs	r3, r3, r2
 3235 0032 9B00     		lsls	r3, r3, #2
 3236 0034 3833     		adds	r3, r3, #56
 3237 0036 7A68     		ldr	r2, [r7, #4]
 3238 0038 1344     		add	r3, r3, r2
 3239 003a 0433     		adds	r3, r3, #4
 3240 003c FB60     		str	r3, [r7, #12]
1896:Drivers/STM32F4xx_HAL_Driver/Src/stm32f4xx_hal_pcd.c ****     ep->is_in = 1U;
 3241              		.loc 1 1896 15
 3242 003e FB68     		ldr	r3, [r7, #12]
 3243 0040 0122     		movs	r2, #1
 3244 0042 5A70     		strb	r2, [r3, #1]
 3245 0044 0DE0     		b	.L124
 3246              	.L123:
1897:Drivers/STM32F4xx_HAL_Driver/Src/stm32f4xx_hal_pcd.c ****   }
1898:Drivers/STM32F4xx_HAL_Driver/Src/stm32f4xx_hal_pcd.c ****   else
1899:Drivers/STM32F4xx_HAL_Driver/Src/stm32f4xx_hal_pcd.c ****   {
1900:Drivers/STM32F4xx_HAL_Driver/Src/stm32f4xx_hal_pcd.c ****     ep = &hpcd->OUT_ep[ep_addr];
 3247              		.loc 1 1900 23
 3248 0046 FA78     		ldrb	r2, [r7, #3]	@ zero_extendqisi2
 3249              		.loc 1 1900 8
 3250 0048 1346     		mov	r3, r2
 3251 004a DB00     		lsls	r3, r3, #3
 3252 004c 9B1A     		subs	r3, r3, r2
 3253 004e 9B00     		lsls	r3, r3, #2
 3254 0050 03F5FC73 		add	r3, r3, #504
 3255 0054 7A68     		ldr	r2, [r7, #4]
 3256 0056 1344     		add	r3, r3, r2
 3257 0058 0433     		adds	r3, r3, #4
 3258 005a FB60     		str	r3, [r7, #12]
1901:Drivers/STM32F4xx_HAL_Driver/Src/stm32f4xx_hal_pcd.c ****     ep->is_in = 0U;
 3259              		.loc 1 1901 15
 3260 005c FB68     		ldr	r3, [r7, #12]
 3261 005e 0022     		movs	r2, #0
 3262 0060 5A70     		strb	r2, [r3, #1]
ARM GAS  /var/folders/vq/qt4vp3kd5rxf7v2b6_fdtdt80000gn/T//cc6xBrdC.s 			page 91


 3263              	.L124:
1902:Drivers/STM32F4xx_HAL_Driver/Src/stm32f4xx_hal_pcd.c ****   }
1903:Drivers/STM32F4xx_HAL_Driver/Src/stm32f4xx_hal_pcd.c **** 
1904:Drivers/STM32F4xx_HAL_Driver/Src/stm32f4xx_hal_pcd.c ****   ep->is_stall = 1U;
 3264              		.loc 1 1904 16
 3265 0062 FB68     		ldr	r3, [r7, #12]
 3266 0064 0122     		movs	r2, #1
 3267 0066 9A70     		strb	r2, [r3, #2]
1905:Drivers/STM32F4xx_HAL_Driver/Src/stm32f4xx_hal_pcd.c ****   ep->num = ep_addr & EP_ADDR_MSK;
 3268              		.loc 1 1905 21
 3269 0068 FB78     		ldrb	r3, [r7, #3]
 3270 006a 03F00F03 		and	r3, r3, #15
 3271 006e DAB2     		uxtb	r2, r3
 3272              		.loc 1 1905 11
 3273 0070 FB68     		ldr	r3, [r7, #12]
 3274 0072 1A70     		strb	r2, [r3]
1906:Drivers/STM32F4xx_HAL_Driver/Src/stm32f4xx_hal_pcd.c **** 
1907:Drivers/STM32F4xx_HAL_Driver/Src/stm32f4xx_hal_pcd.c ****   __HAL_LOCK(hpcd);
 3275              		.loc 1 1907 3
 3276 0074 7B68     		ldr	r3, [r7, #4]
 3277 0076 93F8BC33 		ldrb	r3, [r3, #956]	@ zero_extendqisi2
 3278 007a 012B     		cmp	r3, #1
 3279 007c 01D1     		bne	.L125
 3280              		.loc 1 1907 3 is_stmt 0 discriminator 1
 3281 007e 0223     		movs	r3, #2
 3282 0080 1EE0     		b	.L122
 3283              	.L125:
 3284              		.loc 1 1907 3 discriminator 2
 3285 0082 7B68     		ldr	r3, [r7, #4]
 3286 0084 0122     		movs	r2, #1
 3287 0086 83F8BC23 		strb	r2, [r3, #956]
1908:Drivers/STM32F4xx_HAL_Driver/Src/stm32f4xx_hal_pcd.c **** 
1909:Drivers/STM32F4xx_HAL_Driver/Src/stm32f4xx_hal_pcd.c ****   (void)USB_EPSetStall(hpcd->Instance, ep);
 3288              		.loc 1 1909 28 is_stmt 1 discriminator 2
 3289 008a 7B68     		ldr	r3, [r7, #4]
 3290 008c 1B68     		ldr	r3, [r3]
 3291              		.loc 1 1909 9 discriminator 2
 3292 008e F968     		ldr	r1, [r7, #12]
 3293 0090 1846     		mov	r0, r3
 3294 0092 FFF7FEFF 		bl	USB_EPSetStall
1910:Drivers/STM32F4xx_HAL_Driver/Src/stm32f4xx_hal_pcd.c **** 
1911:Drivers/STM32F4xx_HAL_Driver/Src/stm32f4xx_hal_pcd.c ****   if ((ep_addr & EP_ADDR_MSK) == 0U)
 3295              		.loc 1 1911 16 discriminator 2
 3296 0096 FB78     		ldrb	r3, [r7, #3]	@ zero_extendqisi2
 3297 0098 03F00F03 		and	r3, r3, #15
 3298              		.loc 1 1911 6 discriminator 2
 3299 009c 002B     		cmp	r3, #0
 3300 009e 0AD1     		bne	.L126
1912:Drivers/STM32F4xx_HAL_Driver/Src/stm32f4xx_hal_pcd.c ****   {
1913:Drivers/STM32F4xx_HAL_Driver/Src/stm32f4xx_hal_pcd.c ****     (void)USB_EP0_OutStart(hpcd->Instance, (uint8_t)hpcd->Init.dma_enable, (uint8_t *)hpcd->Setup);
 3301              		.loc 1 1913 32
 3302 00a0 7B68     		ldr	r3, [r7, #4]
 3303 00a2 1868     		ldr	r0, [r3]
 3304              		.loc 1 1913 63
 3305 00a4 7B68     		ldr	r3, [r7, #4]
 3306 00a6 1B69     		ldr	r3, [r3, #16]
 3307              		.loc 1 1913 11
ARM GAS  /var/folders/vq/qt4vp3kd5rxf7v2b6_fdtdt80000gn/T//cc6xBrdC.s 			page 92


 3308 00a8 D9B2     		uxtb	r1, r3
 3309              		.loc 1 1913 87
 3310 00aa 7B68     		ldr	r3, [r7, #4]
 3311 00ac 03F57173 		add	r3, r3, #964
 3312              		.loc 1 1913 11
 3313 00b0 1A46     		mov	r2, r3
 3314 00b2 FFF7FEFF 		bl	USB_EP0_OutStart
 3315              	.L126:
1914:Drivers/STM32F4xx_HAL_Driver/Src/stm32f4xx_hal_pcd.c ****   }
1915:Drivers/STM32F4xx_HAL_Driver/Src/stm32f4xx_hal_pcd.c **** 
1916:Drivers/STM32F4xx_HAL_Driver/Src/stm32f4xx_hal_pcd.c ****   __HAL_UNLOCK(hpcd);
 3316              		.loc 1 1916 3
 3317 00b6 7B68     		ldr	r3, [r7, #4]
 3318 00b8 0022     		movs	r2, #0
 3319 00ba 83F8BC23 		strb	r2, [r3, #956]
1917:Drivers/STM32F4xx_HAL_Driver/Src/stm32f4xx_hal_pcd.c **** 
1918:Drivers/STM32F4xx_HAL_Driver/Src/stm32f4xx_hal_pcd.c ****   return HAL_OK;
 3320              		.loc 1 1918 10
 3321 00be 0023     		movs	r3, #0
 3322              	.L122:
1919:Drivers/STM32F4xx_HAL_Driver/Src/stm32f4xx_hal_pcd.c **** }
 3323              		.loc 1 1919 1
 3324 00c0 1846     		mov	r0, r3
 3325 00c2 1037     		adds	r7, r7, #16
 3326              	.LCFI153:
 3327              		.cfi_def_cfa_offset 8
 3328 00c4 BD46     		mov	sp, r7
 3329              	.LCFI154:
 3330              		.cfi_def_cfa_register 13
 3331              		@ sp needed
 3332 00c6 80BD     		pop	{r7, pc}
 3333              		.cfi_endproc
 3334              	.LFE157:
 3336              		.section	.text.HAL_PCD_EP_ClrStall,"ax",%progbits
 3337              		.align	1
 3338              		.global	HAL_PCD_EP_ClrStall
 3339              		.syntax unified
 3340              		.thumb
 3341              		.thumb_func
 3342              		.fpu fpv4-sp-d16
 3344              	HAL_PCD_EP_ClrStall:
 3345              	.LFB158:
1920:Drivers/STM32F4xx_HAL_Driver/Src/stm32f4xx_hal_pcd.c **** 
1921:Drivers/STM32F4xx_HAL_Driver/Src/stm32f4xx_hal_pcd.c **** /**
1922:Drivers/STM32F4xx_HAL_Driver/Src/stm32f4xx_hal_pcd.c ****   * @brief  Clear a STALL condition over in an endpoint
1923:Drivers/STM32F4xx_HAL_Driver/Src/stm32f4xx_hal_pcd.c ****   * @param  hpcd PCD handle
1924:Drivers/STM32F4xx_HAL_Driver/Src/stm32f4xx_hal_pcd.c ****   * @param  ep_addr endpoint address
1925:Drivers/STM32F4xx_HAL_Driver/Src/stm32f4xx_hal_pcd.c ****   * @retval HAL status
1926:Drivers/STM32F4xx_HAL_Driver/Src/stm32f4xx_hal_pcd.c ****   */
1927:Drivers/STM32F4xx_HAL_Driver/Src/stm32f4xx_hal_pcd.c **** HAL_StatusTypeDef HAL_PCD_EP_ClrStall(PCD_HandleTypeDef *hpcd, uint8_t ep_addr)
1928:Drivers/STM32F4xx_HAL_Driver/Src/stm32f4xx_hal_pcd.c **** {
 3346              		.loc 1 1928 1
 3347              		.cfi_startproc
 3348              		@ args = 0, pretend = 0, frame = 16
 3349              		@ frame_needed = 1, uses_anonymous_args = 0
 3350 0000 80B5     		push	{r7, lr}
 3351              	.LCFI155:
ARM GAS  /var/folders/vq/qt4vp3kd5rxf7v2b6_fdtdt80000gn/T//cc6xBrdC.s 			page 93


 3352              		.cfi_def_cfa_offset 8
 3353              		.cfi_offset 7, -8
 3354              		.cfi_offset 14, -4
 3355 0002 84B0     		sub	sp, sp, #16
 3356              	.LCFI156:
 3357              		.cfi_def_cfa_offset 24
 3358 0004 00AF     		add	r7, sp, #0
 3359              	.LCFI157:
 3360              		.cfi_def_cfa_register 7
 3361 0006 7860     		str	r0, [r7, #4]
 3362 0008 0B46     		mov	r3, r1
 3363 000a FB70     		strb	r3, [r7, #3]
1929:Drivers/STM32F4xx_HAL_Driver/Src/stm32f4xx_hal_pcd.c ****   PCD_EPTypeDef *ep;
1930:Drivers/STM32F4xx_HAL_Driver/Src/stm32f4xx_hal_pcd.c **** 
1931:Drivers/STM32F4xx_HAL_Driver/Src/stm32f4xx_hal_pcd.c ****   if (((uint32_t)ep_addr & 0x0FU) > hpcd->Init.dev_endpoints)
 3364              		.loc 1 1931 26
 3365 000c FB78     		ldrb	r3, [r7, #3]	@ zero_extendqisi2
 3366 000e 03F00F02 		and	r2, r3, #15
 3367              		.loc 1 1931 47
 3368 0012 7B68     		ldr	r3, [r7, #4]
 3369 0014 5B68     		ldr	r3, [r3, #4]
 3370              		.loc 1 1931 6
 3371 0016 9A42     		cmp	r2, r3
 3372 0018 01D9     		bls	.L128
1932:Drivers/STM32F4xx_HAL_Driver/Src/stm32f4xx_hal_pcd.c ****   {
1933:Drivers/STM32F4xx_HAL_Driver/Src/stm32f4xx_hal_pcd.c ****     return HAL_ERROR;
 3373              		.loc 1 1933 12
 3374 001a 0123     		movs	r3, #1
 3375 001c 42E0     		b	.L129
 3376              	.L128:
1934:Drivers/STM32F4xx_HAL_Driver/Src/stm32f4xx_hal_pcd.c ****   }
1935:Drivers/STM32F4xx_HAL_Driver/Src/stm32f4xx_hal_pcd.c **** 
1936:Drivers/STM32F4xx_HAL_Driver/Src/stm32f4xx_hal_pcd.c ****   if ((0x80U & ep_addr) == 0x80U)
 3377              		.loc 1 1936 25
 3378 001e 97F90330 		ldrsb	r3, [r7, #3]
 3379              		.loc 1 1936 6
 3380 0022 002B     		cmp	r3, #0
 3381 0024 0FDA     		bge	.L130
1937:Drivers/STM32F4xx_HAL_Driver/Src/stm32f4xx_hal_pcd.c ****   {
1938:Drivers/STM32F4xx_HAL_Driver/Src/stm32f4xx_hal_pcd.c ****     ep = &hpcd->IN_ep[ep_addr & EP_ADDR_MSK];
 3382              		.loc 1 1938 31
 3383 0026 FB78     		ldrb	r3, [r7, #3]	@ zero_extendqisi2
 3384 0028 03F00F02 		and	r2, r3, #15
 3385              		.loc 1 1938 8
 3386 002c 1346     		mov	r3, r2
 3387 002e DB00     		lsls	r3, r3, #3
 3388 0030 9B1A     		subs	r3, r3, r2
 3389 0032 9B00     		lsls	r3, r3, #2
 3390 0034 3833     		adds	r3, r3, #56
 3391 0036 7A68     		ldr	r2, [r7, #4]
 3392 0038 1344     		add	r3, r3, r2
 3393 003a 0433     		adds	r3, r3, #4
 3394 003c FB60     		str	r3, [r7, #12]
1939:Drivers/STM32F4xx_HAL_Driver/Src/stm32f4xx_hal_pcd.c ****     ep->is_in = 1U;
 3395              		.loc 1 1939 15
 3396 003e FB68     		ldr	r3, [r7, #12]
 3397 0040 0122     		movs	r2, #1
ARM GAS  /var/folders/vq/qt4vp3kd5rxf7v2b6_fdtdt80000gn/T//cc6xBrdC.s 			page 94


 3398 0042 5A70     		strb	r2, [r3, #1]
 3399 0044 0FE0     		b	.L131
 3400              	.L130:
1940:Drivers/STM32F4xx_HAL_Driver/Src/stm32f4xx_hal_pcd.c ****   }
1941:Drivers/STM32F4xx_HAL_Driver/Src/stm32f4xx_hal_pcd.c ****   else
1942:Drivers/STM32F4xx_HAL_Driver/Src/stm32f4xx_hal_pcd.c ****   {
1943:Drivers/STM32F4xx_HAL_Driver/Src/stm32f4xx_hal_pcd.c ****     ep = &hpcd->OUT_ep[ep_addr & EP_ADDR_MSK];
 3401              		.loc 1 1943 32
 3402 0046 FB78     		ldrb	r3, [r7, #3]	@ zero_extendqisi2
 3403 0048 03F00F02 		and	r2, r3, #15
 3404              		.loc 1 1943 8
 3405 004c 1346     		mov	r3, r2
 3406 004e DB00     		lsls	r3, r3, #3
 3407 0050 9B1A     		subs	r3, r3, r2
 3408 0052 9B00     		lsls	r3, r3, #2
 3409 0054 03F5FC73 		add	r3, r3, #504
 3410 0058 7A68     		ldr	r2, [r7, #4]
 3411 005a 1344     		add	r3, r3, r2
 3412 005c 0433     		adds	r3, r3, #4
 3413 005e FB60     		str	r3, [r7, #12]
1944:Drivers/STM32F4xx_HAL_Driver/Src/stm32f4xx_hal_pcd.c ****     ep->is_in = 0U;
 3414              		.loc 1 1944 15
 3415 0060 FB68     		ldr	r3, [r7, #12]
 3416 0062 0022     		movs	r2, #0
 3417 0064 5A70     		strb	r2, [r3, #1]
 3418              	.L131:
1945:Drivers/STM32F4xx_HAL_Driver/Src/stm32f4xx_hal_pcd.c ****   }
1946:Drivers/STM32F4xx_HAL_Driver/Src/stm32f4xx_hal_pcd.c **** 
1947:Drivers/STM32F4xx_HAL_Driver/Src/stm32f4xx_hal_pcd.c ****   ep->is_stall = 0U;
 3419              		.loc 1 1947 16
 3420 0066 FB68     		ldr	r3, [r7, #12]
 3421 0068 0022     		movs	r2, #0
 3422 006a 9A70     		strb	r2, [r3, #2]
1948:Drivers/STM32F4xx_HAL_Driver/Src/stm32f4xx_hal_pcd.c ****   ep->num = ep_addr & EP_ADDR_MSK;
 3423              		.loc 1 1948 21
 3424 006c FB78     		ldrb	r3, [r7, #3]
 3425 006e 03F00F03 		and	r3, r3, #15
 3426 0072 DAB2     		uxtb	r2, r3
 3427              		.loc 1 1948 11
 3428 0074 FB68     		ldr	r3, [r7, #12]
 3429 0076 1A70     		strb	r2, [r3]
1949:Drivers/STM32F4xx_HAL_Driver/Src/stm32f4xx_hal_pcd.c **** 
1950:Drivers/STM32F4xx_HAL_Driver/Src/stm32f4xx_hal_pcd.c ****   __HAL_LOCK(hpcd);
 3430              		.loc 1 1950 3
 3431 0078 7B68     		ldr	r3, [r7, #4]
 3432 007a 93F8BC33 		ldrb	r3, [r3, #956]	@ zero_extendqisi2
 3433 007e 012B     		cmp	r3, #1
 3434 0080 01D1     		bne	.L132
 3435              		.loc 1 1950 3 is_stmt 0 discriminator 1
 3436 0082 0223     		movs	r3, #2
 3437 0084 0EE0     		b	.L129
 3438              	.L132:
 3439              		.loc 1 1950 3 discriminator 2
 3440 0086 7B68     		ldr	r3, [r7, #4]
 3441 0088 0122     		movs	r2, #1
 3442 008a 83F8BC23 		strb	r2, [r3, #956]
1951:Drivers/STM32F4xx_HAL_Driver/Src/stm32f4xx_hal_pcd.c ****   (void)USB_EPClearStall(hpcd->Instance, ep);
ARM GAS  /var/folders/vq/qt4vp3kd5rxf7v2b6_fdtdt80000gn/T//cc6xBrdC.s 			page 95


 3443              		.loc 1 1951 30 is_stmt 1 discriminator 2
 3444 008e 7B68     		ldr	r3, [r7, #4]
 3445 0090 1B68     		ldr	r3, [r3]
 3446              		.loc 1 1951 9 discriminator 2
 3447 0092 F968     		ldr	r1, [r7, #12]
 3448 0094 1846     		mov	r0, r3
 3449 0096 FFF7FEFF 		bl	USB_EPClearStall
1952:Drivers/STM32F4xx_HAL_Driver/Src/stm32f4xx_hal_pcd.c ****   __HAL_UNLOCK(hpcd);
 3450              		.loc 1 1952 3 discriminator 2
 3451 009a 7B68     		ldr	r3, [r7, #4]
 3452 009c 0022     		movs	r2, #0
 3453 009e 83F8BC23 		strb	r2, [r3, #956]
1953:Drivers/STM32F4xx_HAL_Driver/Src/stm32f4xx_hal_pcd.c **** 
1954:Drivers/STM32F4xx_HAL_Driver/Src/stm32f4xx_hal_pcd.c ****   return HAL_OK;
 3454              		.loc 1 1954 10 discriminator 2
 3455 00a2 0023     		movs	r3, #0
 3456              	.L129:
1955:Drivers/STM32F4xx_HAL_Driver/Src/stm32f4xx_hal_pcd.c **** }
 3457              		.loc 1 1955 1
 3458 00a4 1846     		mov	r0, r3
 3459 00a6 1037     		adds	r7, r7, #16
 3460              	.LCFI158:
 3461              		.cfi_def_cfa_offset 8
 3462 00a8 BD46     		mov	sp, r7
 3463              	.LCFI159:
 3464              		.cfi_def_cfa_register 13
 3465              		@ sp needed
 3466 00aa 80BD     		pop	{r7, pc}
 3467              		.cfi_endproc
 3468              	.LFE158:
 3470              		.section	.text.HAL_PCD_EP_Flush,"ax",%progbits
 3471              		.align	1
 3472              		.global	HAL_PCD_EP_Flush
 3473              		.syntax unified
 3474              		.thumb
 3475              		.thumb_func
 3476              		.fpu fpv4-sp-d16
 3478              	HAL_PCD_EP_Flush:
 3479              	.LFB159:
1956:Drivers/STM32F4xx_HAL_Driver/Src/stm32f4xx_hal_pcd.c **** 
1957:Drivers/STM32F4xx_HAL_Driver/Src/stm32f4xx_hal_pcd.c **** /**
1958:Drivers/STM32F4xx_HAL_Driver/Src/stm32f4xx_hal_pcd.c ****   * @brief  Flush an endpoint
1959:Drivers/STM32F4xx_HAL_Driver/Src/stm32f4xx_hal_pcd.c ****   * @param  hpcd PCD handle
1960:Drivers/STM32F4xx_HAL_Driver/Src/stm32f4xx_hal_pcd.c ****   * @param  ep_addr endpoint address
1961:Drivers/STM32F4xx_HAL_Driver/Src/stm32f4xx_hal_pcd.c ****   * @retval HAL status
1962:Drivers/STM32F4xx_HAL_Driver/Src/stm32f4xx_hal_pcd.c ****   */
1963:Drivers/STM32F4xx_HAL_Driver/Src/stm32f4xx_hal_pcd.c **** HAL_StatusTypeDef HAL_PCD_EP_Flush(PCD_HandleTypeDef *hpcd, uint8_t ep_addr)
1964:Drivers/STM32F4xx_HAL_Driver/Src/stm32f4xx_hal_pcd.c **** {
 3480              		.loc 1 1964 1
 3481              		.cfi_startproc
 3482              		@ args = 0, pretend = 0, frame = 8
 3483              		@ frame_needed = 1, uses_anonymous_args = 0
 3484 0000 80B5     		push	{r7, lr}
 3485              	.LCFI160:
 3486              		.cfi_def_cfa_offset 8
 3487              		.cfi_offset 7, -8
 3488              		.cfi_offset 14, -4
ARM GAS  /var/folders/vq/qt4vp3kd5rxf7v2b6_fdtdt80000gn/T//cc6xBrdC.s 			page 96


 3489 0002 82B0     		sub	sp, sp, #8
 3490              	.LCFI161:
 3491              		.cfi_def_cfa_offset 16
 3492 0004 00AF     		add	r7, sp, #0
 3493              	.LCFI162:
 3494              		.cfi_def_cfa_register 7
 3495 0006 7860     		str	r0, [r7, #4]
 3496 0008 0B46     		mov	r3, r1
 3497 000a FB70     		strb	r3, [r7, #3]
1965:Drivers/STM32F4xx_HAL_Driver/Src/stm32f4xx_hal_pcd.c ****   __HAL_LOCK(hpcd);
 3498              		.loc 1 1965 3
 3499 000c 7B68     		ldr	r3, [r7, #4]
 3500 000e 93F8BC33 		ldrb	r3, [r3, #956]	@ zero_extendqisi2
 3501 0012 012B     		cmp	r3, #1
 3502 0014 01D1     		bne	.L134
 3503              		.loc 1 1965 3 is_stmt 0 discriminator 1
 3504 0016 0223     		movs	r3, #2
 3505 0018 1BE0     		b	.L135
 3506              	.L134:
 3507              		.loc 1 1965 3 discriminator 2
 3508 001a 7B68     		ldr	r3, [r7, #4]
 3509 001c 0122     		movs	r2, #1
 3510 001e 83F8BC23 		strb	r2, [r3, #956]
1966:Drivers/STM32F4xx_HAL_Driver/Src/stm32f4xx_hal_pcd.c **** 
1967:Drivers/STM32F4xx_HAL_Driver/Src/stm32f4xx_hal_pcd.c ****   if ((ep_addr & 0x80U) == 0x80U)
 3511              		.loc 1 1967 25 is_stmt 1 discriminator 2
 3512 0022 97F90330 		ldrsb	r3, [r7, #3]
 3513              		.loc 1 1967 6 discriminator 2
 3514 0026 002B     		cmp	r3, #0
 3515 0028 09DA     		bge	.L136
1968:Drivers/STM32F4xx_HAL_Driver/Src/stm32f4xx_hal_pcd.c ****   {
1969:Drivers/STM32F4xx_HAL_Driver/Src/stm32f4xx_hal_pcd.c ****     (void)USB_FlushTxFifo(hpcd->Instance, (uint32_t)ep_addr & EP_ADDR_MSK);
 3516              		.loc 1 1969 31
 3517 002a 7B68     		ldr	r3, [r7, #4]
 3518 002c 1A68     		ldr	r2, [r3]
 3519              		.loc 1 1969 11
 3520 002e FB78     		ldrb	r3, [r7, #3]	@ zero_extendqisi2
 3521 0030 03F00F03 		and	r3, r3, #15
 3522 0034 1946     		mov	r1, r3
 3523 0036 1046     		mov	r0, r2
 3524 0038 FFF7FEFF 		bl	USB_FlushTxFifo
 3525 003c 04E0     		b	.L137
 3526              	.L136:
1970:Drivers/STM32F4xx_HAL_Driver/Src/stm32f4xx_hal_pcd.c ****   }
1971:Drivers/STM32F4xx_HAL_Driver/Src/stm32f4xx_hal_pcd.c ****   else
1972:Drivers/STM32F4xx_HAL_Driver/Src/stm32f4xx_hal_pcd.c ****   {
1973:Drivers/STM32F4xx_HAL_Driver/Src/stm32f4xx_hal_pcd.c ****     (void)USB_FlushRxFifo(hpcd->Instance);
 3527              		.loc 1 1973 31
 3528 003e 7B68     		ldr	r3, [r7, #4]
 3529 0040 1B68     		ldr	r3, [r3]
 3530              		.loc 1 1973 11
 3531 0042 1846     		mov	r0, r3
 3532 0044 FFF7FEFF 		bl	USB_FlushRxFifo
 3533              	.L137:
1974:Drivers/STM32F4xx_HAL_Driver/Src/stm32f4xx_hal_pcd.c ****   }
1975:Drivers/STM32F4xx_HAL_Driver/Src/stm32f4xx_hal_pcd.c **** 
1976:Drivers/STM32F4xx_HAL_Driver/Src/stm32f4xx_hal_pcd.c ****   __HAL_UNLOCK(hpcd);
ARM GAS  /var/folders/vq/qt4vp3kd5rxf7v2b6_fdtdt80000gn/T//cc6xBrdC.s 			page 97


 3534              		.loc 1 1976 3
 3535 0048 7B68     		ldr	r3, [r7, #4]
 3536 004a 0022     		movs	r2, #0
 3537 004c 83F8BC23 		strb	r2, [r3, #956]
1977:Drivers/STM32F4xx_HAL_Driver/Src/stm32f4xx_hal_pcd.c **** 
1978:Drivers/STM32F4xx_HAL_Driver/Src/stm32f4xx_hal_pcd.c ****   return HAL_OK;
 3538              		.loc 1 1978 10
 3539 0050 0023     		movs	r3, #0
 3540              	.L135:
1979:Drivers/STM32F4xx_HAL_Driver/Src/stm32f4xx_hal_pcd.c **** }
 3541              		.loc 1 1979 1
 3542 0052 1846     		mov	r0, r3
 3543 0054 0837     		adds	r7, r7, #8
 3544              	.LCFI163:
 3545              		.cfi_def_cfa_offset 8
 3546 0056 BD46     		mov	sp, r7
 3547              	.LCFI164:
 3548              		.cfi_def_cfa_register 13
 3549              		@ sp needed
 3550 0058 80BD     		pop	{r7, pc}
 3551              		.cfi_endproc
 3552              	.LFE159:
 3554              		.section	.text.HAL_PCD_ActivateRemoteWakeup,"ax",%progbits
 3555              		.align	1
 3556              		.global	HAL_PCD_ActivateRemoteWakeup
 3557              		.syntax unified
 3558              		.thumb
 3559              		.thumb_func
 3560              		.fpu fpv4-sp-d16
 3562              	HAL_PCD_ActivateRemoteWakeup:
 3563              	.LFB160:
1980:Drivers/STM32F4xx_HAL_Driver/Src/stm32f4xx_hal_pcd.c **** 
1981:Drivers/STM32F4xx_HAL_Driver/Src/stm32f4xx_hal_pcd.c **** /**
1982:Drivers/STM32F4xx_HAL_Driver/Src/stm32f4xx_hal_pcd.c ****   * @brief  Activate remote wakeup signalling
1983:Drivers/STM32F4xx_HAL_Driver/Src/stm32f4xx_hal_pcd.c ****   * @param  hpcd PCD handle
1984:Drivers/STM32F4xx_HAL_Driver/Src/stm32f4xx_hal_pcd.c ****   * @retval HAL status
1985:Drivers/STM32F4xx_HAL_Driver/Src/stm32f4xx_hal_pcd.c ****   */
1986:Drivers/STM32F4xx_HAL_Driver/Src/stm32f4xx_hal_pcd.c **** HAL_StatusTypeDef HAL_PCD_ActivateRemoteWakeup(PCD_HandleTypeDef *hpcd)
1987:Drivers/STM32F4xx_HAL_Driver/Src/stm32f4xx_hal_pcd.c **** {
 3564              		.loc 1 1987 1
 3565              		.cfi_startproc
 3566              		@ args = 0, pretend = 0, frame = 8
 3567              		@ frame_needed = 1, uses_anonymous_args = 0
 3568 0000 80B5     		push	{r7, lr}
 3569              	.LCFI165:
 3570              		.cfi_def_cfa_offset 8
 3571              		.cfi_offset 7, -8
 3572              		.cfi_offset 14, -4
 3573 0002 82B0     		sub	sp, sp, #8
 3574              	.LCFI166:
 3575              		.cfi_def_cfa_offset 16
 3576 0004 00AF     		add	r7, sp, #0
 3577              	.LCFI167:
 3578              		.cfi_def_cfa_register 7
 3579 0006 7860     		str	r0, [r7, #4]
1988:Drivers/STM32F4xx_HAL_Driver/Src/stm32f4xx_hal_pcd.c ****   return (USB_ActivateRemoteWakeup(hpcd->Instance));
 3580              		.loc 1 1988 40
ARM GAS  /var/folders/vq/qt4vp3kd5rxf7v2b6_fdtdt80000gn/T//cc6xBrdC.s 			page 98


 3581 0008 7B68     		ldr	r3, [r7, #4]
 3582 000a 1B68     		ldr	r3, [r3]
 3583              		.loc 1 1988 11
 3584 000c 1846     		mov	r0, r3
 3585 000e FFF7FEFF 		bl	USB_ActivateRemoteWakeup
 3586 0012 0346     		mov	r3, r0
1989:Drivers/STM32F4xx_HAL_Driver/Src/stm32f4xx_hal_pcd.c **** }
 3587              		.loc 1 1989 1
 3588 0014 1846     		mov	r0, r3
 3589 0016 0837     		adds	r7, r7, #8
 3590              	.LCFI168:
 3591              		.cfi_def_cfa_offset 8
 3592 0018 BD46     		mov	sp, r7
 3593              	.LCFI169:
 3594              		.cfi_def_cfa_register 13
 3595              		@ sp needed
 3596 001a 80BD     		pop	{r7, pc}
 3597              		.cfi_endproc
 3598              	.LFE160:
 3600              		.section	.text.HAL_PCD_DeActivateRemoteWakeup,"ax",%progbits
 3601              		.align	1
 3602              		.global	HAL_PCD_DeActivateRemoteWakeup
 3603              		.syntax unified
 3604              		.thumb
 3605              		.thumb_func
 3606              		.fpu fpv4-sp-d16
 3608              	HAL_PCD_DeActivateRemoteWakeup:
 3609              	.LFB161:
1990:Drivers/STM32F4xx_HAL_Driver/Src/stm32f4xx_hal_pcd.c **** 
1991:Drivers/STM32F4xx_HAL_Driver/Src/stm32f4xx_hal_pcd.c **** /**
1992:Drivers/STM32F4xx_HAL_Driver/Src/stm32f4xx_hal_pcd.c ****   * @brief  De-activate remote wakeup signalling.
1993:Drivers/STM32F4xx_HAL_Driver/Src/stm32f4xx_hal_pcd.c ****   * @param  hpcd PCD handle
1994:Drivers/STM32F4xx_HAL_Driver/Src/stm32f4xx_hal_pcd.c ****   * @retval HAL status
1995:Drivers/STM32F4xx_HAL_Driver/Src/stm32f4xx_hal_pcd.c ****   */
1996:Drivers/STM32F4xx_HAL_Driver/Src/stm32f4xx_hal_pcd.c **** HAL_StatusTypeDef HAL_PCD_DeActivateRemoteWakeup(PCD_HandleTypeDef *hpcd)
1997:Drivers/STM32F4xx_HAL_Driver/Src/stm32f4xx_hal_pcd.c **** {
 3610              		.loc 1 1997 1
 3611              		.cfi_startproc
 3612              		@ args = 0, pretend = 0, frame = 8
 3613              		@ frame_needed = 1, uses_anonymous_args = 0
 3614 0000 80B5     		push	{r7, lr}
 3615              	.LCFI170:
 3616              		.cfi_def_cfa_offset 8
 3617              		.cfi_offset 7, -8
 3618              		.cfi_offset 14, -4
 3619 0002 82B0     		sub	sp, sp, #8
 3620              	.LCFI171:
 3621              		.cfi_def_cfa_offset 16
 3622 0004 00AF     		add	r7, sp, #0
 3623              	.LCFI172:
 3624              		.cfi_def_cfa_register 7
 3625 0006 7860     		str	r0, [r7, #4]
1998:Drivers/STM32F4xx_HAL_Driver/Src/stm32f4xx_hal_pcd.c ****   return (USB_DeActivateRemoteWakeup(hpcd->Instance));
 3626              		.loc 1 1998 42
 3627 0008 7B68     		ldr	r3, [r7, #4]
 3628 000a 1B68     		ldr	r3, [r3]
 3629              		.loc 1 1998 11
ARM GAS  /var/folders/vq/qt4vp3kd5rxf7v2b6_fdtdt80000gn/T//cc6xBrdC.s 			page 99


 3630 000c 1846     		mov	r0, r3
 3631 000e FFF7FEFF 		bl	USB_DeActivateRemoteWakeup
 3632 0012 0346     		mov	r3, r0
1999:Drivers/STM32F4xx_HAL_Driver/Src/stm32f4xx_hal_pcd.c **** }
 3633              		.loc 1 1999 1
 3634 0014 1846     		mov	r0, r3
 3635 0016 0837     		adds	r7, r7, #8
 3636              	.LCFI173:
 3637              		.cfi_def_cfa_offset 8
 3638 0018 BD46     		mov	sp, r7
 3639              	.LCFI174:
 3640              		.cfi_def_cfa_register 13
 3641              		@ sp needed
 3642 001a 80BD     		pop	{r7, pc}
 3643              		.cfi_endproc
 3644              	.LFE161:
 3646              		.section	.text.HAL_PCD_GetState,"ax",%progbits
 3647              		.align	1
 3648              		.global	HAL_PCD_GetState
 3649              		.syntax unified
 3650              		.thumb
 3651              		.thumb_func
 3652              		.fpu fpv4-sp-d16
 3654              	HAL_PCD_GetState:
 3655              	.LFB162:
2000:Drivers/STM32F4xx_HAL_Driver/Src/stm32f4xx_hal_pcd.c **** 
2001:Drivers/STM32F4xx_HAL_Driver/Src/stm32f4xx_hal_pcd.c **** /**
2002:Drivers/STM32F4xx_HAL_Driver/Src/stm32f4xx_hal_pcd.c ****   * @}
2003:Drivers/STM32F4xx_HAL_Driver/Src/stm32f4xx_hal_pcd.c ****   */
2004:Drivers/STM32F4xx_HAL_Driver/Src/stm32f4xx_hal_pcd.c **** 
2005:Drivers/STM32F4xx_HAL_Driver/Src/stm32f4xx_hal_pcd.c **** /** @defgroup PCD_Exported_Functions_Group4 Peripheral State functions
2006:Drivers/STM32F4xx_HAL_Driver/Src/stm32f4xx_hal_pcd.c ****   *  @brief   Peripheral State functions
2007:Drivers/STM32F4xx_HAL_Driver/Src/stm32f4xx_hal_pcd.c ****   *
2008:Drivers/STM32F4xx_HAL_Driver/Src/stm32f4xx_hal_pcd.c **** @verbatim
2009:Drivers/STM32F4xx_HAL_Driver/Src/stm32f4xx_hal_pcd.c ****  ===============================================================================
2010:Drivers/STM32F4xx_HAL_Driver/Src/stm32f4xx_hal_pcd.c ****                       ##### Peripheral State functions #####
2011:Drivers/STM32F4xx_HAL_Driver/Src/stm32f4xx_hal_pcd.c ****  ===============================================================================
2012:Drivers/STM32F4xx_HAL_Driver/Src/stm32f4xx_hal_pcd.c ****     [..]
2013:Drivers/STM32F4xx_HAL_Driver/Src/stm32f4xx_hal_pcd.c ****     This subsection permits to get in run-time the status of the peripheral
2014:Drivers/STM32F4xx_HAL_Driver/Src/stm32f4xx_hal_pcd.c ****     and the data flow.
2015:Drivers/STM32F4xx_HAL_Driver/Src/stm32f4xx_hal_pcd.c **** 
2016:Drivers/STM32F4xx_HAL_Driver/Src/stm32f4xx_hal_pcd.c **** @endverbatim
2017:Drivers/STM32F4xx_HAL_Driver/Src/stm32f4xx_hal_pcd.c ****   * @{
2018:Drivers/STM32F4xx_HAL_Driver/Src/stm32f4xx_hal_pcd.c ****   */
2019:Drivers/STM32F4xx_HAL_Driver/Src/stm32f4xx_hal_pcd.c **** 
2020:Drivers/STM32F4xx_HAL_Driver/Src/stm32f4xx_hal_pcd.c **** /**
2021:Drivers/STM32F4xx_HAL_Driver/Src/stm32f4xx_hal_pcd.c ****   * @brief  Return the PCD handle state.
2022:Drivers/STM32F4xx_HAL_Driver/Src/stm32f4xx_hal_pcd.c ****   * @param  hpcd PCD handle
2023:Drivers/STM32F4xx_HAL_Driver/Src/stm32f4xx_hal_pcd.c ****   * @retval HAL state
2024:Drivers/STM32F4xx_HAL_Driver/Src/stm32f4xx_hal_pcd.c ****   */
2025:Drivers/STM32F4xx_HAL_Driver/Src/stm32f4xx_hal_pcd.c **** PCD_StateTypeDef HAL_PCD_GetState(PCD_HandleTypeDef *hpcd)
2026:Drivers/STM32F4xx_HAL_Driver/Src/stm32f4xx_hal_pcd.c **** {
 3656              		.loc 1 2026 1
 3657              		.cfi_startproc
 3658              		@ args = 0, pretend = 0, frame = 8
 3659              		@ frame_needed = 1, uses_anonymous_args = 0
 3660              		@ link register save eliminated.
ARM GAS  /var/folders/vq/qt4vp3kd5rxf7v2b6_fdtdt80000gn/T//cc6xBrdC.s 			page 100


 3661 0000 80B4     		push	{r7}
 3662              	.LCFI175:
 3663              		.cfi_def_cfa_offset 4
 3664              		.cfi_offset 7, -4
 3665 0002 83B0     		sub	sp, sp, #12
 3666              	.LCFI176:
 3667              		.cfi_def_cfa_offset 16
 3668 0004 00AF     		add	r7, sp, #0
 3669              	.LCFI177:
 3670              		.cfi_def_cfa_register 7
 3671 0006 7860     		str	r0, [r7, #4]
2027:Drivers/STM32F4xx_HAL_Driver/Src/stm32f4xx_hal_pcd.c ****   return hpcd->State;
 3672              		.loc 1 2027 14
 3673 0008 7B68     		ldr	r3, [r7, #4]
 3674 000a 93F8BD33 		ldrb	r3, [r3, #957]
 3675 000e DBB2     		uxtb	r3, r3
2028:Drivers/STM32F4xx_HAL_Driver/Src/stm32f4xx_hal_pcd.c **** }
 3676              		.loc 1 2028 1
 3677 0010 1846     		mov	r0, r3
 3678 0012 0C37     		adds	r7, r7, #12
 3679              	.LCFI178:
 3680              		.cfi_def_cfa_offset 4
 3681 0014 BD46     		mov	sp, r7
 3682              	.LCFI179:
 3683              		.cfi_def_cfa_register 13
 3684              		@ sp needed
 3685 0016 5DF8047B 		ldr	r7, [sp], #4
 3686              	.LCFI180:
 3687              		.cfi_restore 7
 3688              		.cfi_def_cfa_offset 0
 3689 001a 7047     		bx	lr
 3690              		.cfi_endproc
 3691              	.LFE162:
 3693              		.section	.text.PCD_WriteEmptyTxFifo,"ax",%progbits
 3694              		.align	1
 3695              		.syntax unified
 3696              		.thumb
 3697              		.thumb_func
 3698              		.fpu fpv4-sp-d16
 3700              	PCD_WriteEmptyTxFifo:
 3701              	.LFB163:
2029:Drivers/STM32F4xx_HAL_Driver/Src/stm32f4xx_hal_pcd.c **** 
2030:Drivers/STM32F4xx_HAL_Driver/Src/stm32f4xx_hal_pcd.c **** /**
2031:Drivers/STM32F4xx_HAL_Driver/Src/stm32f4xx_hal_pcd.c ****   * @}
2032:Drivers/STM32F4xx_HAL_Driver/Src/stm32f4xx_hal_pcd.c ****   */
2033:Drivers/STM32F4xx_HAL_Driver/Src/stm32f4xx_hal_pcd.c **** 
2034:Drivers/STM32F4xx_HAL_Driver/Src/stm32f4xx_hal_pcd.c **** /**
2035:Drivers/STM32F4xx_HAL_Driver/Src/stm32f4xx_hal_pcd.c ****   * @}
2036:Drivers/STM32F4xx_HAL_Driver/Src/stm32f4xx_hal_pcd.c ****   */
2037:Drivers/STM32F4xx_HAL_Driver/Src/stm32f4xx_hal_pcd.c **** 
2038:Drivers/STM32F4xx_HAL_Driver/Src/stm32f4xx_hal_pcd.c **** /* Private functions ---------------------------------------------------------*/
2039:Drivers/STM32F4xx_HAL_Driver/Src/stm32f4xx_hal_pcd.c **** /** @addtogroup PCD_Private_Functions
2040:Drivers/STM32F4xx_HAL_Driver/Src/stm32f4xx_hal_pcd.c ****   * @{
2041:Drivers/STM32F4xx_HAL_Driver/Src/stm32f4xx_hal_pcd.c ****   */
2042:Drivers/STM32F4xx_HAL_Driver/Src/stm32f4xx_hal_pcd.c **** #if defined (USB_OTG_FS) || defined (USB_OTG_HS)
2043:Drivers/STM32F4xx_HAL_Driver/Src/stm32f4xx_hal_pcd.c **** /**
2044:Drivers/STM32F4xx_HAL_Driver/Src/stm32f4xx_hal_pcd.c ****   * @brief  Check FIFO for the next packet to be loaded.
ARM GAS  /var/folders/vq/qt4vp3kd5rxf7v2b6_fdtdt80000gn/T//cc6xBrdC.s 			page 101


2045:Drivers/STM32F4xx_HAL_Driver/Src/stm32f4xx_hal_pcd.c ****   * @param  hpcd PCD handle
2046:Drivers/STM32F4xx_HAL_Driver/Src/stm32f4xx_hal_pcd.c ****   * @param  epnum endpoint number
2047:Drivers/STM32F4xx_HAL_Driver/Src/stm32f4xx_hal_pcd.c ****   * @retval HAL status
2048:Drivers/STM32F4xx_HAL_Driver/Src/stm32f4xx_hal_pcd.c ****   */
2049:Drivers/STM32F4xx_HAL_Driver/Src/stm32f4xx_hal_pcd.c **** static HAL_StatusTypeDef PCD_WriteEmptyTxFifo(PCD_HandleTypeDef *hpcd, uint32_t epnum)
2050:Drivers/STM32F4xx_HAL_Driver/Src/stm32f4xx_hal_pcd.c **** {
 3702              		.loc 1 2050 1
 3703              		.cfi_startproc
 3704              		@ args = 0, pretend = 0, frame = 32
 3705              		@ frame_needed = 1, uses_anonymous_args = 0
 3706 0000 80B5     		push	{r7, lr}
 3707              	.LCFI181:
 3708              		.cfi_def_cfa_offset 8
 3709              		.cfi_offset 7, -8
 3710              		.cfi_offset 14, -4
 3711 0002 8AB0     		sub	sp, sp, #40
 3712              	.LCFI182:
 3713              		.cfi_def_cfa_offset 48
 3714 0004 02AF     		add	r7, sp, #8
 3715              	.LCFI183:
 3716              		.cfi_def_cfa 7, 40
 3717 0006 7860     		str	r0, [r7, #4]
 3718 0008 3960     		str	r1, [r7]
2051:Drivers/STM32F4xx_HAL_Driver/Src/stm32f4xx_hal_pcd.c ****   USB_OTG_GlobalTypeDef *USBx = hpcd->Instance;
 3719              		.loc 1 2051 26
 3720 000a 7B68     		ldr	r3, [r7, #4]
 3721 000c 1B68     		ldr	r3, [r3]
 3722 000e 7B61     		str	r3, [r7, #20]
2052:Drivers/STM32F4xx_HAL_Driver/Src/stm32f4xx_hal_pcd.c ****   uint32_t USBx_BASE = (uint32_t)USBx;
 3723              		.loc 1 2052 12
 3724 0010 7B69     		ldr	r3, [r7, #20]
 3725 0012 3B61     		str	r3, [r7, #16]
2053:Drivers/STM32F4xx_HAL_Driver/Src/stm32f4xx_hal_pcd.c ****   USB_OTG_EPTypeDef *ep;
2054:Drivers/STM32F4xx_HAL_Driver/Src/stm32f4xx_hal_pcd.c ****   uint32_t len;
2055:Drivers/STM32F4xx_HAL_Driver/Src/stm32f4xx_hal_pcd.c ****   uint32_t len32b;
2056:Drivers/STM32F4xx_HAL_Driver/Src/stm32f4xx_hal_pcd.c ****   uint32_t fifoemptymsk;
2057:Drivers/STM32F4xx_HAL_Driver/Src/stm32f4xx_hal_pcd.c **** 
2058:Drivers/STM32F4xx_HAL_Driver/Src/stm32f4xx_hal_pcd.c ****   ep = &hpcd->IN_ep[epnum];
 3726              		.loc 1 2058 6
 3727 0014 3A68     		ldr	r2, [r7]
 3728 0016 1346     		mov	r3, r2
 3729 0018 DB00     		lsls	r3, r3, #3
 3730 001a 9B1A     		subs	r3, r3, r2
 3731 001c 9B00     		lsls	r3, r3, #2
 3732 001e 3833     		adds	r3, r3, #56
 3733 0020 7A68     		ldr	r2, [r7, #4]
 3734 0022 1344     		add	r3, r3, r2
 3735 0024 0433     		adds	r3, r3, #4
 3736 0026 FB60     		str	r3, [r7, #12]
2059:Drivers/STM32F4xx_HAL_Driver/Src/stm32f4xx_hal_pcd.c **** 
2060:Drivers/STM32F4xx_HAL_Driver/Src/stm32f4xx_hal_pcd.c ****   if (ep->xfer_count > ep->xfer_len)
 3737              		.loc 1 2060 9
 3738 0028 FB68     		ldr	r3, [r7, #12]
 3739 002a 9A69     		ldr	r2, [r3, #24]
 3740              		.loc 1 2060 26
 3741 002c FB68     		ldr	r3, [r7, #12]
 3742 002e 5B69     		ldr	r3, [r3, #20]
ARM GAS  /var/folders/vq/qt4vp3kd5rxf7v2b6_fdtdt80000gn/T//cc6xBrdC.s 			page 102


 3743              		.loc 1 2060 6
 3744 0030 9A42     		cmp	r2, r3
 3745 0032 01D9     		bls	.L145
2061:Drivers/STM32F4xx_HAL_Driver/Src/stm32f4xx_hal_pcd.c ****   {
2062:Drivers/STM32F4xx_HAL_Driver/Src/stm32f4xx_hal_pcd.c ****     return HAL_ERROR;
 3746              		.loc 1 2062 12
 3747 0034 0123     		movs	r3, #1
 3748 0036 6CE0     		b	.L146
 3749              	.L145:
2063:Drivers/STM32F4xx_HAL_Driver/Src/stm32f4xx_hal_pcd.c ****   }
2064:Drivers/STM32F4xx_HAL_Driver/Src/stm32f4xx_hal_pcd.c **** 
2065:Drivers/STM32F4xx_HAL_Driver/Src/stm32f4xx_hal_pcd.c ****   len = ep->xfer_len - ep->xfer_count;
 3750              		.loc 1 2065 11
 3751 0038 FB68     		ldr	r3, [r7, #12]
 3752 003a 5A69     		ldr	r2, [r3, #20]
 3753              		.loc 1 2065 26
 3754 003c FB68     		ldr	r3, [r7, #12]
 3755 003e 9B69     		ldr	r3, [r3, #24]
 3756              		.loc 1 2065 7
 3757 0040 D31A     		subs	r3, r2, r3
 3758 0042 FB61     		str	r3, [r7, #28]
2066:Drivers/STM32F4xx_HAL_Driver/Src/stm32f4xx_hal_pcd.c **** 
2067:Drivers/STM32F4xx_HAL_Driver/Src/stm32f4xx_hal_pcd.c ****   if (len > ep->maxpacket)
 3759              		.loc 1 2067 15
 3760 0044 FB68     		ldr	r3, [r7, #12]
 3761 0046 9B68     		ldr	r3, [r3, #8]
 3762              		.loc 1 2067 6
 3763 0048 FA69     		ldr	r2, [r7, #28]
 3764 004a 9A42     		cmp	r2, r3
 3765 004c 02D9     		bls	.L147
2068:Drivers/STM32F4xx_HAL_Driver/Src/stm32f4xx_hal_pcd.c ****   {
2069:Drivers/STM32F4xx_HAL_Driver/Src/stm32f4xx_hal_pcd.c ****     len = ep->maxpacket;
 3766              		.loc 1 2069 9
 3767 004e FB68     		ldr	r3, [r7, #12]
 3768 0050 9B68     		ldr	r3, [r3, #8]
 3769 0052 FB61     		str	r3, [r7, #28]
 3770              	.L147:
2070:Drivers/STM32F4xx_HAL_Driver/Src/stm32f4xx_hal_pcd.c ****   }
2071:Drivers/STM32F4xx_HAL_Driver/Src/stm32f4xx_hal_pcd.c **** 
2072:Drivers/STM32F4xx_HAL_Driver/Src/stm32f4xx_hal_pcd.c ****   len32b = (len + 3U) / 4U;
 3771              		.loc 1 2072 17
 3772 0054 FB69     		ldr	r3, [r7, #28]
 3773 0056 0333     		adds	r3, r3, #3
 3774              		.loc 1 2072 10
 3775 0058 9B08     		lsrs	r3, r3, #2
 3776 005a BB61     		str	r3, [r7, #24]
2073:Drivers/STM32F4xx_HAL_Driver/Src/stm32f4xx_hal_pcd.c **** 
2074:Drivers/STM32F4xx_HAL_Driver/Src/stm32f4xx_hal_pcd.c ****   while (((USBx_INEP(epnum)->DTXFSTS & USB_OTG_DTXFSTS_INEPTFSAV) >= len32b) &&
 3777              		.loc 1 2074 9
 3778 005c 2BE0     		b	.L148
 3779              	.L151:
2075:Drivers/STM32F4xx_HAL_Driver/Src/stm32f4xx_hal_pcd.c ****          (ep->xfer_count < ep->xfer_len) && (ep->xfer_len != 0U))
2076:Drivers/STM32F4xx_HAL_Driver/Src/stm32f4xx_hal_pcd.c ****   {
2077:Drivers/STM32F4xx_HAL_Driver/Src/stm32f4xx_hal_pcd.c ****     /* Write the FIFO */
2078:Drivers/STM32F4xx_HAL_Driver/Src/stm32f4xx_hal_pcd.c ****     len = ep->xfer_len - ep->xfer_count;
 3780              		.loc 1 2078 13
 3781 005e FB68     		ldr	r3, [r7, #12]
ARM GAS  /var/folders/vq/qt4vp3kd5rxf7v2b6_fdtdt80000gn/T//cc6xBrdC.s 			page 103


 3782 0060 5A69     		ldr	r2, [r3, #20]
 3783              		.loc 1 2078 28
 3784 0062 FB68     		ldr	r3, [r7, #12]
 3785 0064 9B69     		ldr	r3, [r3, #24]
 3786              		.loc 1 2078 9
 3787 0066 D31A     		subs	r3, r2, r3
 3788 0068 FB61     		str	r3, [r7, #28]
2079:Drivers/STM32F4xx_HAL_Driver/Src/stm32f4xx_hal_pcd.c **** 
2080:Drivers/STM32F4xx_HAL_Driver/Src/stm32f4xx_hal_pcd.c ****     if (len > ep->maxpacket)
 3789              		.loc 1 2080 17
 3790 006a FB68     		ldr	r3, [r7, #12]
 3791 006c 9B68     		ldr	r3, [r3, #8]
 3792              		.loc 1 2080 8
 3793 006e FA69     		ldr	r2, [r7, #28]
 3794 0070 9A42     		cmp	r2, r3
 3795 0072 02D9     		bls	.L149
2081:Drivers/STM32F4xx_HAL_Driver/Src/stm32f4xx_hal_pcd.c ****     {
2082:Drivers/STM32F4xx_HAL_Driver/Src/stm32f4xx_hal_pcd.c ****       len = ep->maxpacket;
 3796              		.loc 1 2082 11
 3797 0074 FB68     		ldr	r3, [r7, #12]
 3798 0076 9B68     		ldr	r3, [r3, #8]
 3799 0078 FB61     		str	r3, [r7, #28]
 3800              	.L149:
2083:Drivers/STM32F4xx_HAL_Driver/Src/stm32f4xx_hal_pcd.c ****     }
2084:Drivers/STM32F4xx_HAL_Driver/Src/stm32f4xx_hal_pcd.c ****     len32b = (len + 3U) / 4U;
 3801              		.loc 1 2084 19
 3802 007a FB69     		ldr	r3, [r7, #28]
 3803 007c 0333     		adds	r3, r3, #3
 3804              		.loc 1 2084 12
 3805 007e 9B08     		lsrs	r3, r3, #2
 3806 0080 BB61     		str	r3, [r7, #24]
2085:Drivers/STM32F4xx_HAL_Driver/Src/stm32f4xx_hal_pcd.c **** 
2086:Drivers/STM32F4xx_HAL_Driver/Src/stm32f4xx_hal_pcd.c ****     (void)USB_WritePacket(USBx, ep->xfer_buff, (uint8_t)epnum, (uint16_t)len,
 3807              		.loc 1 2086 11
 3808 0082 FB68     		ldr	r3, [r7, #12]
 3809 0084 D968     		ldr	r1, [r3, #12]
 3810 0086 3B68     		ldr	r3, [r7]
 3811 0088 DAB2     		uxtb	r2, r3
 3812 008a FB69     		ldr	r3, [r7, #28]
 3813 008c 98B2     		uxth	r0, r3
2087:Drivers/STM32F4xx_HAL_Driver/Src/stm32f4xx_hal_pcd.c ****                           (uint8_t)hpcd->Init.dma_enable);
 3814              		.loc 1 2087 46
 3815 008e 7B68     		ldr	r3, [r7, #4]
 3816 0090 1B69     		ldr	r3, [r3, #16]
2086:Drivers/STM32F4xx_HAL_Driver/Src/stm32f4xx_hal_pcd.c ****                           (uint8_t)hpcd->Init.dma_enable);
 3817              		.loc 1 2086 11
 3818 0092 DBB2     		uxtb	r3, r3
 3819 0094 0093     		str	r3, [sp]
 3820 0096 0346     		mov	r3, r0
 3821 0098 7869     		ldr	r0, [r7, #20]
 3822 009a FFF7FEFF 		bl	USB_WritePacket
2088:Drivers/STM32F4xx_HAL_Driver/Src/stm32f4xx_hal_pcd.c **** 
2089:Drivers/STM32F4xx_HAL_Driver/Src/stm32f4xx_hal_pcd.c ****     ep->xfer_buff  += len;
 3823              		.loc 1 2089 20
 3824 009e FB68     		ldr	r3, [r7, #12]
 3825 00a0 DA68     		ldr	r2, [r3, #12]
 3826 00a2 FB69     		ldr	r3, [r7, #28]
ARM GAS  /var/folders/vq/qt4vp3kd5rxf7v2b6_fdtdt80000gn/T//cc6xBrdC.s 			page 104


 3827 00a4 1A44     		add	r2, r2, r3
 3828 00a6 FB68     		ldr	r3, [r7, #12]
 3829 00a8 DA60     		str	r2, [r3, #12]
2090:Drivers/STM32F4xx_HAL_Driver/Src/stm32f4xx_hal_pcd.c ****     ep->xfer_count += len;
 3830              		.loc 1 2090 20
 3831 00aa FB68     		ldr	r3, [r7, #12]
 3832 00ac 9A69     		ldr	r2, [r3, #24]
 3833 00ae FB69     		ldr	r3, [r7, #28]
 3834 00b0 1A44     		add	r2, r2, r3
 3835 00b2 FB68     		ldr	r3, [r7, #12]
 3836 00b4 9A61     		str	r2, [r3, #24]
 3837              	.L148:
2074:Drivers/STM32F4xx_HAL_Driver/Src/stm32f4xx_hal_pcd.c ****          (ep->xfer_count < ep->xfer_len) && (ep->xfer_len != 0U))
 3838              		.loc 1 2074 12
 3839 00b6 3B68     		ldr	r3, [r7]
 3840 00b8 5A01     		lsls	r2, r3, #5
 3841 00ba 3B69     		ldr	r3, [r7, #16]
 3842 00bc 1344     		add	r3, r3, r2
 3843 00be 03F51063 		add	r3, r3, #2304
2074:Drivers/STM32F4xx_HAL_Driver/Src/stm32f4xx_hal_pcd.c ****          (ep->xfer_count < ep->xfer_len) && (ep->xfer_len != 0U))
 3844              		.loc 1 2074 28
 3845 00c2 9B69     		ldr	r3, [r3, #24]
2074:Drivers/STM32F4xx_HAL_Driver/Src/stm32f4xx_hal_pcd.c ****          (ep->xfer_count < ep->xfer_len) && (ep->xfer_len != 0U))
 3846              		.loc 1 2074 38
 3847 00c4 9BB2     		uxth	r3, r3
2074:Drivers/STM32F4xx_HAL_Driver/Src/stm32f4xx_hal_pcd.c ****          (ep->xfer_count < ep->xfer_len) && (ep->xfer_len != 0U))
 3848              		.loc 1 2074 9
 3849 00c6 BA69     		ldr	r2, [r7, #24]
 3850 00c8 9A42     		cmp	r2, r3
 3851 00ca 09D8     		bhi	.L150
2075:Drivers/STM32F4xx_HAL_Driver/Src/stm32f4xx_hal_pcd.c ****   {
 3852              		.loc 1 2075 13 discriminator 1
 3853 00cc FB68     		ldr	r3, [r7, #12]
 3854 00ce 9A69     		ldr	r2, [r3, #24]
2075:Drivers/STM32F4xx_HAL_Driver/Src/stm32f4xx_hal_pcd.c ****   {
 3855              		.loc 1 2075 30 discriminator 1
 3856 00d0 FB68     		ldr	r3, [r7, #12]
 3857 00d2 5B69     		ldr	r3, [r3, #20]
2074:Drivers/STM32F4xx_HAL_Driver/Src/stm32f4xx_hal_pcd.c ****          (ep->xfer_count < ep->xfer_len) && (ep->xfer_len != 0U))
 3858              		.loc 1 2074 78 discriminator 1
 3859 00d4 9A42     		cmp	r2, r3
 3860 00d6 03D2     		bcs	.L150
2075:Drivers/STM32F4xx_HAL_Driver/Src/stm32f4xx_hal_pcd.c ****   {
 3861              		.loc 1 2075 48
 3862 00d8 FB68     		ldr	r3, [r7, #12]
 3863 00da 5B69     		ldr	r3, [r3, #20]
2075:Drivers/STM32F4xx_HAL_Driver/Src/stm32f4xx_hal_pcd.c ****   {
 3864              		.loc 1 2075 42
 3865 00dc 002B     		cmp	r3, #0
 3866 00de BED1     		bne	.L151
 3867              	.L150:
2091:Drivers/STM32F4xx_HAL_Driver/Src/stm32f4xx_hal_pcd.c ****   }
2092:Drivers/STM32F4xx_HAL_Driver/Src/stm32f4xx_hal_pcd.c **** 
2093:Drivers/STM32F4xx_HAL_Driver/Src/stm32f4xx_hal_pcd.c ****   if (ep->xfer_len <= ep->xfer_count)
 3868              		.loc 1 2093 9
 3869 00e0 FB68     		ldr	r3, [r7, #12]
 3870 00e2 5A69     		ldr	r2, [r3, #20]
ARM GAS  /var/folders/vq/qt4vp3kd5rxf7v2b6_fdtdt80000gn/T//cc6xBrdC.s 			page 105


 3871              		.loc 1 2093 25
 3872 00e4 FB68     		ldr	r3, [r7, #12]
 3873 00e6 9B69     		ldr	r3, [r3, #24]
 3874              		.loc 1 2093 6
 3875 00e8 9A42     		cmp	r2, r3
 3876 00ea 11D8     		bhi	.L152
2094:Drivers/STM32F4xx_HAL_Driver/Src/stm32f4xx_hal_pcd.c ****   {
2095:Drivers/STM32F4xx_HAL_Driver/Src/stm32f4xx_hal_pcd.c ****     fifoemptymsk = (uint32_t)(0x1UL << (epnum & EP_ADDR_MSK));
 3877              		.loc 1 2095 47
 3878 00ec 3B68     		ldr	r3, [r7]
 3879 00ee 03F00F03 		and	r3, r3, #15
 3880              		.loc 1 2095 18
 3881 00f2 0122     		movs	r2, #1
 3882 00f4 02FA03F3 		lsl	r3, r2, r3
 3883 00f8 BB60     		str	r3, [r7, #8]
2096:Drivers/STM32F4xx_HAL_Driver/Src/stm32f4xx_hal_pcd.c ****     USBx_DEVICE->DIEPEMPMSK &= ~fifoemptymsk;
 3884              		.loc 1 2096 29
 3885 00fa 3B69     		ldr	r3, [r7, #16]
 3886 00fc 03F50063 		add	r3, r3, #2048
 3887 0100 5A6B     		ldr	r2, [r3, #52]
 3888              		.loc 1 2096 32
 3889 0102 BB68     		ldr	r3, [r7, #8]
 3890 0104 DB43     		mvns	r3, r3
 3891              		.loc 1 2096 29
 3892 0106 3969     		ldr	r1, [r7, #16]
 3893 0108 01F50061 		add	r1, r1, #2048
 3894 010c 1340     		ands	r3, r3, r2
 3895 010e 4B63     		str	r3, [r1, #52]
 3896              	.L152:
2097:Drivers/STM32F4xx_HAL_Driver/Src/stm32f4xx_hal_pcd.c ****   }
2098:Drivers/STM32F4xx_HAL_Driver/Src/stm32f4xx_hal_pcd.c **** 
2099:Drivers/STM32F4xx_HAL_Driver/Src/stm32f4xx_hal_pcd.c ****   return HAL_OK;
 3897              		.loc 1 2099 10
 3898 0110 0023     		movs	r3, #0
 3899              	.L146:
2100:Drivers/STM32F4xx_HAL_Driver/Src/stm32f4xx_hal_pcd.c **** }
 3900              		.loc 1 2100 1
 3901 0112 1846     		mov	r0, r3
 3902 0114 2037     		adds	r7, r7, #32
 3903              	.LCFI184:
 3904              		.cfi_def_cfa_offset 8
 3905 0116 BD46     		mov	sp, r7
 3906              	.LCFI185:
 3907              		.cfi_def_cfa_register 13
 3908              		@ sp needed
 3909 0118 80BD     		pop	{r7, pc}
 3910              		.cfi_endproc
 3911              	.LFE163:
 3913              		.section	.text.PCD_EP_OutXfrComplete_int,"ax",%progbits
 3914              		.align	1
 3915              		.syntax unified
 3916              		.thumb
 3917              		.thumb_func
 3918              		.fpu fpv4-sp-d16
 3920              	PCD_EP_OutXfrComplete_int:
 3921              	.LFB164:
2101:Drivers/STM32F4xx_HAL_Driver/Src/stm32f4xx_hal_pcd.c **** 
ARM GAS  /var/folders/vq/qt4vp3kd5rxf7v2b6_fdtdt80000gn/T//cc6xBrdC.s 			page 106


2102:Drivers/STM32F4xx_HAL_Driver/Src/stm32f4xx_hal_pcd.c **** 
2103:Drivers/STM32F4xx_HAL_Driver/Src/stm32f4xx_hal_pcd.c **** /**
2104:Drivers/STM32F4xx_HAL_Driver/Src/stm32f4xx_hal_pcd.c ****   * @brief  process EP OUT transfer complete interrupt.
2105:Drivers/STM32F4xx_HAL_Driver/Src/stm32f4xx_hal_pcd.c ****   * @param  hpcd PCD handle
2106:Drivers/STM32F4xx_HAL_Driver/Src/stm32f4xx_hal_pcd.c ****   * @param  epnum endpoint number
2107:Drivers/STM32F4xx_HAL_Driver/Src/stm32f4xx_hal_pcd.c ****   * @retval HAL status
2108:Drivers/STM32F4xx_HAL_Driver/Src/stm32f4xx_hal_pcd.c ****   */
2109:Drivers/STM32F4xx_HAL_Driver/Src/stm32f4xx_hal_pcd.c **** static HAL_StatusTypeDef PCD_EP_OutXfrComplete_int(PCD_HandleTypeDef *hpcd, uint32_t epnum)
2110:Drivers/STM32F4xx_HAL_Driver/Src/stm32f4xx_hal_pcd.c **** {
 3922              		.loc 1 2110 1
 3923              		.cfi_startproc
 3924              		@ args = 0, pretend = 0, frame = 24
 3925              		@ frame_needed = 1, uses_anonymous_args = 0
 3926 0000 80B5     		push	{r7, lr}
 3927              	.LCFI186:
 3928              		.cfi_def_cfa_offset 8
 3929              		.cfi_offset 7, -8
 3930              		.cfi_offset 14, -4
 3931 0002 86B0     		sub	sp, sp, #24
 3932              	.LCFI187:
 3933              		.cfi_def_cfa_offset 32
 3934 0004 00AF     		add	r7, sp, #0
 3935              	.LCFI188:
 3936              		.cfi_def_cfa_register 7
 3937 0006 7860     		str	r0, [r7, #4]
 3938 0008 3960     		str	r1, [r7]
2111:Drivers/STM32F4xx_HAL_Driver/Src/stm32f4xx_hal_pcd.c ****   USB_OTG_GlobalTypeDef *USBx = hpcd->Instance;
 3939              		.loc 1 2111 26
 3940 000a 7B68     		ldr	r3, [r7, #4]
 3941 000c 1B68     		ldr	r3, [r3]
 3942 000e 7B61     		str	r3, [r7, #20]
2112:Drivers/STM32F4xx_HAL_Driver/Src/stm32f4xx_hal_pcd.c ****   uint32_t USBx_BASE = (uint32_t)USBx;
 3943              		.loc 1 2112 12
 3944 0010 7B69     		ldr	r3, [r7, #20]
 3945 0012 3B61     		str	r3, [r7, #16]
2113:Drivers/STM32F4xx_HAL_Driver/Src/stm32f4xx_hal_pcd.c ****   uint32_t gSNPSiD = *(__IO uint32_t *)(&USBx->CID + 0x1U);
 3946              		.loc 1 2113 41
 3947 0014 7B69     		ldr	r3, [r7, #20]
 3948 0016 3C33     		adds	r3, r3, #60
 3949              		.loc 1 2113 23
 3950 0018 0433     		adds	r3, r3, #4
 3951              		.loc 1 2113 12
 3952 001a 1B68     		ldr	r3, [r3]
 3953 001c FB60     		str	r3, [r7, #12]
2114:Drivers/STM32F4xx_HAL_Driver/Src/stm32f4xx_hal_pcd.c ****   uint32_t DoepintReg = USBx_OUTEP(epnum)->DOEPINT;
 3954              		.loc 1 2114 25
 3955 001e 3B68     		ldr	r3, [r7]
 3956 0020 5A01     		lsls	r2, r3, #5
 3957 0022 3B69     		ldr	r3, [r7, #16]
 3958 0024 1344     		add	r3, r3, r2
 3959 0026 03F53063 		add	r3, r3, #2816
 3960              		.loc 1 2114 12
 3961 002a 9B68     		ldr	r3, [r3, #8]
 3962 002c BB60     		str	r3, [r7, #8]
2115:Drivers/STM32F4xx_HAL_Driver/Src/stm32f4xx_hal_pcd.c **** 
2116:Drivers/STM32F4xx_HAL_Driver/Src/stm32f4xx_hal_pcd.c ****   if (hpcd->Init.dma_enable == 1U)
 3963              		.loc 1 2116 17
ARM GAS  /var/folders/vq/qt4vp3kd5rxf7v2b6_fdtdt80000gn/T//cc6xBrdC.s 			page 107


 3964 002e 7B68     		ldr	r3, [r7, #4]
 3965 0030 1B69     		ldr	r3, [r3, #16]
 3966              		.loc 1 2116 6
 3967 0032 012B     		cmp	r3, #1
 3968 0034 40F0A080 		bne	.L154
2117:Drivers/STM32F4xx_HAL_Driver/Src/stm32f4xx_hal_pcd.c ****   {
2118:Drivers/STM32F4xx_HAL_Driver/Src/stm32f4xx_hal_pcd.c ****     if ((DoepintReg & USB_OTG_DOEPINT_STUP) == USB_OTG_DOEPINT_STUP) /* Class C */
 3969              		.loc 1 2118 21
 3970 0038 BB68     		ldr	r3, [r7, #8]
 3971 003a 03F00803 		and	r3, r3, #8
 3972              		.loc 1 2118 8
 3973 003e 002B     		cmp	r3, #0
 3974 0040 15D0     		beq	.L155
2119:Drivers/STM32F4xx_HAL_Driver/Src/stm32f4xx_hal_pcd.c ****     {
2120:Drivers/STM32F4xx_HAL_Driver/Src/stm32f4xx_hal_pcd.c ****       /* StupPktRcvd = 1 this is a setup packet */
2121:Drivers/STM32F4xx_HAL_Driver/Src/stm32f4xx_hal_pcd.c ****       if ((gSNPSiD > USB_OTG_CORE_ID_300A) &&
 3975              		.loc 1 2121 10
 3976 0042 FB68     		ldr	r3, [r7, #12]
 3977 0044 724A     		ldr	r2, .L166
 3978 0046 9342     		cmp	r3, r2
 3979 0048 40F2DD80 		bls	.L156
2122:Drivers/STM32F4xx_HAL_Driver/Src/stm32f4xx_hal_pcd.c ****           ((DoepintReg & USB_OTG_DOEPINT_STPKTRX) == USB_OTG_DOEPINT_STPKTRX))
 3980              		.loc 1 2122 24 discriminator 1
 3981 004c BB68     		ldr	r3, [r7, #8]
 3982 004e 03F40043 		and	r3, r3, #32768
2121:Drivers/STM32F4xx_HAL_Driver/Src/stm32f4xx_hal_pcd.c ****           ((DoepintReg & USB_OTG_DOEPINT_STPKTRX) == USB_OTG_DOEPINT_STPKTRX))
 3983              		.loc 1 2121 44 discriminator 1
 3984 0052 002B     		cmp	r3, #0
 3985 0054 00F0D780 		beq	.L156
2123:Drivers/STM32F4xx_HAL_Driver/Src/stm32f4xx_hal_pcd.c ****       {
2124:Drivers/STM32F4xx_HAL_Driver/Src/stm32f4xx_hal_pcd.c ****         CLEAR_OUT_EP_INTR(epnum, USB_OTG_DOEPINT_STPKTRX);
 3986              		.loc 1 2124 9
 3987 0058 3B68     		ldr	r3, [r7]
 3988 005a 5A01     		lsls	r2, r3, #5
 3989 005c 3B69     		ldr	r3, [r7, #16]
 3990 005e 1344     		add	r3, r3, r2
 3991 0060 03F53063 		add	r3, r3, #2816
 3992 0064 1A46     		mov	r2, r3
 3993 0066 4FF40043 		mov	r3, #32768
 3994 006a 9360     		str	r3, [r2, #8]
 3995 006c CBE0     		b	.L156
 3996              	.L155:
2125:Drivers/STM32F4xx_HAL_Driver/Src/stm32f4xx_hal_pcd.c ****       }
2126:Drivers/STM32F4xx_HAL_Driver/Src/stm32f4xx_hal_pcd.c ****     }
2127:Drivers/STM32F4xx_HAL_Driver/Src/stm32f4xx_hal_pcd.c ****     else if ((DoepintReg & USB_OTG_DOEPINT_OTEPSPR) == USB_OTG_DOEPINT_OTEPSPR) /* Class E */
 3997              		.loc 1 2127 26
 3998 006e BB68     		ldr	r3, [r7, #8]
 3999 0070 03F02003 		and	r3, r3, #32
 4000              		.loc 1 2127 13
 4001 0074 002B     		cmp	r3, #0
 4002 0076 09D0     		beq	.L157
2128:Drivers/STM32F4xx_HAL_Driver/Src/stm32f4xx_hal_pcd.c ****     {
2129:Drivers/STM32F4xx_HAL_Driver/Src/stm32f4xx_hal_pcd.c ****       CLEAR_OUT_EP_INTR(epnum, USB_OTG_DOEPINT_OTEPSPR);
 4003              		.loc 1 2129 7
 4004 0078 3B68     		ldr	r3, [r7]
 4005 007a 5A01     		lsls	r2, r3, #5
 4006 007c 3B69     		ldr	r3, [r7, #16]
ARM GAS  /var/folders/vq/qt4vp3kd5rxf7v2b6_fdtdt80000gn/T//cc6xBrdC.s 			page 108


 4007 007e 1344     		add	r3, r3, r2
 4008 0080 03F53063 		add	r3, r3, #2816
 4009 0084 1A46     		mov	r2, r3
 4010 0086 2023     		movs	r3, #32
 4011 0088 9360     		str	r3, [r2, #8]
 4012 008a BCE0     		b	.L156
 4013              	.L157:
2130:Drivers/STM32F4xx_HAL_Driver/Src/stm32f4xx_hal_pcd.c ****     }
2131:Drivers/STM32F4xx_HAL_Driver/Src/stm32f4xx_hal_pcd.c ****     else if ((DoepintReg & (USB_OTG_DOEPINT_STUP | USB_OTG_DOEPINT_OTEPSPR)) == 0U)
 4014              		.loc 1 2131 26
 4015 008c BB68     		ldr	r3, [r7, #8]
 4016 008e 03F02803 		and	r3, r3, #40
 4017              		.loc 1 2131 13
 4018 0092 002B     		cmp	r3, #0
 4019 0094 40F0B780 		bne	.L156
2132:Drivers/STM32F4xx_HAL_Driver/Src/stm32f4xx_hal_pcd.c ****     {
2133:Drivers/STM32F4xx_HAL_Driver/Src/stm32f4xx_hal_pcd.c ****       /* StupPktRcvd = 1 this is a setup packet */
2134:Drivers/STM32F4xx_HAL_Driver/Src/stm32f4xx_hal_pcd.c ****       if ((gSNPSiD > USB_OTG_CORE_ID_300A) &&
 4020              		.loc 1 2134 10
 4021 0098 FB68     		ldr	r3, [r7, #12]
 4022 009a 5D4A     		ldr	r2, .L166
 4023 009c 9342     		cmp	r3, r2
 4024 009e 0FD9     		bls	.L158
2135:Drivers/STM32F4xx_HAL_Driver/Src/stm32f4xx_hal_pcd.c ****           ((DoepintReg & USB_OTG_DOEPINT_STPKTRX) == USB_OTG_DOEPINT_STPKTRX))
 4025              		.loc 1 2135 24 discriminator 1
 4026 00a0 BB68     		ldr	r3, [r7, #8]
 4027 00a2 03F40043 		and	r3, r3, #32768
2134:Drivers/STM32F4xx_HAL_Driver/Src/stm32f4xx_hal_pcd.c ****           ((DoepintReg & USB_OTG_DOEPINT_STPKTRX) == USB_OTG_DOEPINT_STPKTRX))
 4028              		.loc 1 2134 44 discriminator 1
 4029 00a6 002B     		cmp	r3, #0
 4030 00a8 0AD0     		beq	.L158
2136:Drivers/STM32F4xx_HAL_Driver/Src/stm32f4xx_hal_pcd.c ****       {
2137:Drivers/STM32F4xx_HAL_Driver/Src/stm32f4xx_hal_pcd.c ****         CLEAR_OUT_EP_INTR(epnum, USB_OTG_DOEPINT_STPKTRX);
 4031              		.loc 1 2137 9
 4032 00aa 3B68     		ldr	r3, [r7]
 4033 00ac 5A01     		lsls	r2, r3, #5
 4034 00ae 3B69     		ldr	r3, [r7, #16]
 4035 00b0 1344     		add	r3, r3, r2
 4036 00b2 03F53063 		add	r3, r3, #2816
 4037 00b6 1A46     		mov	r2, r3
 4038 00b8 4FF40043 		mov	r3, #32768
 4039 00bc 9360     		str	r3, [r2, #8]
 4040 00be A2E0     		b	.L156
 4041              	.L158:
2138:Drivers/STM32F4xx_HAL_Driver/Src/stm32f4xx_hal_pcd.c ****       }
2139:Drivers/STM32F4xx_HAL_Driver/Src/stm32f4xx_hal_pcd.c ****       else
2140:Drivers/STM32F4xx_HAL_Driver/Src/stm32f4xx_hal_pcd.c ****       {
2141:Drivers/STM32F4xx_HAL_Driver/Src/stm32f4xx_hal_pcd.c ****         /* out data packet received over EP0 */
2142:Drivers/STM32F4xx_HAL_Driver/Src/stm32f4xx_hal_pcd.c ****         hpcd->OUT_ep[epnum].xfer_count =
2143:Drivers/STM32F4xx_HAL_Driver/Src/stm32f4xx_hal_pcd.c ****           hpcd->OUT_ep[epnum].maxpacket -
 4042              		.loc 1 2143 30
 4043 00c0 7968     		ldr	r1, [r7, #4]
 4044 00c2 3A68     		ldr	r2, [r7]
 4045 00c4 1346     		mov	r3, r2
 4046 00c6 DB00     		lsls	r3, r3, #3
 4047 00c8 9B1A     		subs	r3, r3, r2
 4048 00ca 9B00     		lsls	r3, r3, #2
ARM GAS  /var/folders/vq/qt4vp3kd5rxf7v2b6_fdtdt80000gn/T//cc6xBrdC.s 			page 109


 4049 00cc 0B44     		add	r3, r3, r1
 4050 00ce 03F50173 		add	r3, r3, #516
 4051 00d2 1A68     		ldr	r2, [r3]
2144:Drivers/STM32F4xx_HAL_Driver/Src/stm32f4xx_hal_pcd.c ****           (USBx_OUTEP(epnum)->DOEPTSIZ & USB_OTG_DOEPTSIZ_XFRSIZ);
 4052              		.loc 1 2144 12
 4053 00d4 3B68     		ldr	r3, [r7]
 4054 00d6 5901     		lsls	r1, r3, #5
 4055 00d8 3B69     		ldr	r3, [r7, #16]
 4056 00da 0B44     		add	r3, r3, r1
 4057 00dc 03F53063 		add	r3, r3, #2816
 4058              		.loc 1 2144 29
 4059 00e0 1B69     		ldr	r3, [r3, #16]
 4060              		.loc 1 2144 40
 4061 00e2 C3F31203 		ubfx	r3, r3, #0, #19
2143:Drivers/STM32F4xx_HAL_Driver/Src/stm32f4xx_hal_pcd.c ****           (USBx_OUTEP(epnum)->DOEPTSIZ & USB_OTG_DOEPTSIZ_XFRSIZ);
 4062              		.loc 1 2143 41
 4063 00e6 D11A     		subs	r1, r2, r3
2142:Drivers/STM32F4xx_HAL_Driver/Src/stm32f4xx_hal_pcd.c ****           hpcd->OUT_ep[epnum].maxpacket -
 4064              		.loc 1 2142 40
 4065 00e8 7868     		ldr	r0, [r7, #4]
 4066 00ea 3A68     		ldr	r2, [r7]
 4067 00ec 1346     		mov	r3, r2
 4068 00ee DB00     		lsls	r3, r3, #3
 4069 00f0 9B1A     		subs	r3, r3, r2
 4070 00f2 9B00     		lsls	r3, r3, #2
 4071 00f4 0344     		add	r3, r3, r0
 4072 00f6 03F50573 		add	r3, r3, #532
 4073 00fa 1960     		str	r1, [r3]
2145:Drivers/STM32F4xx_HAL_Driver/Src/stm32f4xx_hal_pcd.c **** 
2146:Drivers/STM32F4xx_HAL_Driver/Src/stm32f4xx_hal_pcd.c ****         hpcd->OUT_ep[epnum].xfer_buff += hpcd->OUT_ep[epnum].maxpacket;
 4074              		.loc 1 2146 39
 4075 00fc 7968     		ldr	r1, [r7, #4]
 4076 00fe 3A68     		ldr	r2, [r7]
 4077 0100 1346     		mov	r3, r2
 4078 0102 DB00     		lsls	r3, r3, #3
 4079 0104 9B1A     		subs	r3, r3, r2
 4080 0106 9B00     		lsls	r3, r3, #2
 4081 0108 0B44     		add	r3, r3, r1
 4082 010a 03F50273 		add	r3, r3, #520
 4083 010e 1968     		ldr	r1, [r3]
 4084              		.loc 1 2146 61
 4085 0110 7868     		ldr	r0, [r7, #4]
 4086 0112 3A68     		ldr	r2, [r7]
 4087 0114 1346     		mov	r3, r2
 4088 0116 DB00     		lsls	r3, r3, #3
 4089 0118 9B1A     		subs	r3, r3, r2
 4090 011a 9B00     		lsls	r3, r3, #2
 4091 011c 0344     		add	r3, r3, r0
 4092 011e 03F50173 		add	r3, r3, #516
 4093 0122 1B68     		ldr	r3, [r3]
 4094              		.loc 1 2146 39
 4095 0124 1944     		add	r1, r1, r3
 4096 0126 7868     		ldr	r0, [r7, #4]
 4097 0128 3A68     		ldr	r2, [r7]
 4098 012a 1346     		mov	r3, r2
 4099 012c DB00     		lsls	r3, r3, #3
 4100 012e 9B1A     		subs	r3, r3, r2
ARM GAS  /var/folders/vq/qt4vp3kd5rxf7v2b6_fdtdt80000gn/T//cc6xBrdC.s 			page 110


 4101 0130 9B00     		lsls	r3, r3, #2
 4102 0132 0344     		add	r3, r3, r0
 4103 0134 03F50273 		add	r3, r3, #520
 4104 0138 1960     		str	r1, [r3]
2147:Drivers/STM32F4xx_HAL_Driver/Src/stm32f4xx_hal_pcd.c **** 
2148:Drivers/STM32F4xx_HAL_Driver/Src/stm32f4xx_hal_pcd.c ****         if ((epnum == 0U) && (hpcd->OUT_ep[epnum].xfer_len == 0U))
 4105              		.loc 1 2148 12
 4106 013a 3B68     		ldr	r3, [r7]
 4107 013c 002B     		cmp	r3, #0
 4108 013e 14D1     		bne	.L160
 4109              		.loc 1 2148 50 discriminator 1
 4110 0140 7968     		ldr	r1, [r7, #4]
 4111 0142 3A68     		ldr	r2, [r7]
 4112 0144 1346     		mov	r3, r2
 4113 0146 DB00     		lsls	r3, r3, #3
 4114 0148 9B1A     		subs	r3, r3, r2
 4115 014a 9B00     		lsls	r3, r3, #2
 4116 014c 0B44     		add	r3, r3, r1
 4117 014e 03F50473 		add	r3, r3, #528
 4118 0152 1B68     		ldr	r3, [r3]
 4119              		.loc 1 2148 27 discriminator 1
 4120 0154 002B     		cmp	r3, #0
 4121 0156 08D1     		bne	.L160
2149:Drivers/STM32F4xx_HAL_Driver/Src/stm32f4xx_hal_pcd.c ****         {
2150:Drivers/STM32F4xx_HAL_Driver/Src/stm32f4xx_hal_pcd.c ****           /* this is ZLP, so prepare EP0 for next setup */
2151:Drivers/STM32F4xx_HAL_Driver/Src/stm32f4xx_hal_pcd.c ****           (void)USB_EP0_OutStart(hpcd->Instance, 1U, (uint8_t *)hpcd->Setup);
 4122              		.loc 1 2151 38
 4123 0158 7B68     		ldr	r3, [r7, #4]
 4124 015a 1868     		ldr	r0, [r3]
 4125              		.loc 1 2151 65
 4126 015c 7B68     		ldr	r3, [r7, #4]
 4127 015e 03F57173 		add	r3, r3, #964
 4128              		.loc 1 2151 17
 4129 0162 1A46     		mov	r2, r3
 4130 0164 0121     		movs	r1, #1
 4131 0166 FFF7FEFF 		bl	USB_EP0_OutStart
 4132              	.L160:
2152:Drivers/STM32F4xx_HAL_Driver/Src/stm32f4xx_hal_pcd.c ****         }
2153:Drivers/STM32F4xx_HAL_Driver/Src/stm32f4xx_hal_pcd.c **** #if (USE_HAL_PCD_REGISTER_CALLBACKS == 1U)
2154:Drivers/STM32F4xx_HAL_Driver/Src/stm32f4xx_hal_pcd.c ****         hpcd->DataOutStageCallback(hpcd, (uint8_t)epnum);
2155:Drivers/STM32F4xx_HAL_Driver/Src/stm32f4xx_hal_pcd.c **** #else
2156:Drivers/STM32F4xx_HAL_Driver/Src/stm32f4xx_hal_pcd.c ****         HAL_PCD_DataOutStageCallback(hpcd, (uint8_t)epnum);
 4133              		.loc 1 2156 9
 4134 016a 3B68     		ldr	r3, [r7]
 4135 016c DBB2     		uxtb	r3, r3
 4136 016e 1946     		mov	r1, r3
 4137 0170 7868     		ldr	r0, [r7, #4]
 4138 0172 FFF7FEFF 		bl	HAL_PCD_DataOutStageCallback
 4139 0176 46E0     		b	.L156
 4140              	.L154:
2157:Drivers/STM32F4xx_HAL_Driver/Src/stm32f4xx_hal_pcd.c **** #endif /* USE_HAL_PCD_REGISTER_CALLBACKS */
2158:Drivers/STM32F4xx_HAL_Driver/Src/stm32f4xx_hal_pcd.c ****       }
2159:Drivers/STM32F4xx_HAL_Driver/Src/stm32f4xx_hal_pcd.c ****     }
2160:Drivers/STM32F4xx_HAL_Driver/Src/stm32f4xx_hal_pcd.c ****     else
2161:Drivers/STM32F4xx_HAL_Driver/Src/stm32f4xx_hal_pcd.c ****     {
2162:Drivers/STM32F4xx_HAL_Driver/Src/stm32f4xx_hal_pcd.c ****       /* ... */
2163:Drivers/STM32F4xx_HAL_Driver/Src/stm32f4xx_hal_pcd.c ****     }
ARM GAS  /var/folders/vq/qt4vp3kd5rxf7v2b6_fdtdt80000gn/T//cc6xBrdC.s 			page 111


2164:Drivers/STM32F4xx_HAL_Driver/Src/stm32f4xx_hal_pcd.c ****   }
2165:Drivers/STM32F4xx_HAL_Driver/Src/stm32f4xx_hal_pcd.c ****   else
2166:Drivers/STM32F4xx_HAL_Driver/Src/stm32f4xx_hal_pcd.c ****   {
2167:Drivers/STM32F4xx_HAL_Driver/Src/stm32f4xx_hal_pcd.c ****     if (gSNPSiD == USB_OTG_CORE_ID_310A)
 4141              		.loc 1 2167 8
 4142 0178 FB68     		ldr	r3, [r7, #12]
 4143 017a 264A     		ldr	r2, .L166+4
 4144 017c 9342     		cmp	r3, r2
 4145 017e 24D1     		bne	.L161
2168:Drivers/STM32F4xx_HAL_Driver/Src/stm32f4xx_hal_pcd.c ****     {
2169:Drivers/STM32F4xx_HAL_Driver/Src/stm32f4xx_hal_pcd.c ****       /* StupPktRcvd = 1 this is a setup packet */
2170:Drivers/STM32F4xx_HAL_Driver/Src/stm32f4xx_hal_pcd.c ****       if ((DoepintReg & USB_OTG_DOEPINT_STPKTRX) == USB_OTG_DOEPINT_STPKTRX)
 4146              		.loc 1 2170 23
 4147 0180 BB68     		ldr	r3, [r7, #8]
 4148 0182 03F40043 		and	r3, r3, #32768
 4149              		.loc 1 2170 10
 4150 0186 002B     		cmp	r3, #0
 4151 0188 0AD0     		beq	.L162
2171:Drivers/STM32F4xx_HAL_Driver/Src/stm32f4xx_hal_pcd.c ****       {
2172:Drivers/STM32F4xx_HAL_Driver/Src/stm32f4xx_hal_pcd.c ****         CLEAR_OUT_EP_INTR(epnum, USB_OTG_DOEPINT_STPKTRX);
 4152              		.loc 1 2172 9
 4153 018a 3B68     		ldr	r3, [r7]
 4154 018c 5A01     		lsls	r2, r3, #5
 4155 018e 3B69     		ldr	r3, [r7, #16]
 4156 0190 1344     		add	r3, r3, r2
 4157 0192 03F53063 		add	r3, r3, #2816
 4158 0196 1A46     		mov	r2, r3
 4159 0198 4FF40043 		mov	r3, #32768
 4160 019c 9360     		str	r3, [r2, #8]
 4161 019e 32E0     		b	.L156
 4162              	.L162:
2173:Drivers/STM32F4xx_HAL_Driver/Src/stm32f4xx_hal_pcd.c ****       }
2174:Drivers/STM32F4xx_HAL_Driver/Src/stm32f4xx_hal_pcd.c ****       else
2175:Drivers/STM32F4xx_HAL_Driver/Src/stm32f4xx_hal_pcd.c ****       {
2176:Drivers/STM32F4xx_HAL_Driver/Src/stm32f4xx_hal_pcd.c ****         if ((DoepintReg & USB_OTG_DOEPINT_OTEPSPR) == USB_OTG_DOEPINT_OTEPSPR)
 4163              		.loc 1 2176 25
 4164 01a0 BB68     		ldr	r3, [r7, #8]
 4165 01a2 03F02003 		and	r3, r3, #32
 4166              		.loc 1 2176 12
 4167 01a6 002B     		cmp	r3, #0
 4168 01a8 08D0     		beq	.L163
2177:Drivers/STM32F4xx_HAL_Driver/Src/stm32f4xx_hal_pcd.c ****         {
2178:Drivers/STM32F4xx_HAL_Driver/Src/stm32f4xx_hal_pcd.c ****           CLEAR_OUT_EP_INTR(epnum, USB_OTG_DOEPINT_OTEPSPR);
 4169              		.loc 1 2178 11
 4170 01aa 3B68     		ldr	r3, [r7]
 4171 01ac 5A01     		lsls	r2, r3, #5
 4172 01ae 3B69     		ldr	r3, [r7, #16]
 4173 01b0 1344     		add	r3, r3, r2
 4174 01b2 03F53063 		add	r3, r3, #2816
 4175 01b6 1A46     		mov	r2, r3
 4176 01b8 2023     		movs	r3, #32
 4177 01ba 9360     		str	r3, [r2, #8]
 4178              	.L163:
2179:Drivers/STM32F4xx_HAL_Driver/Src/stm32f4xx_hal_pcd.c ****         }
2180:Drivers/STM32F4xx_HAL_Driver/Src/stm32f4xx_hal_pcd.c **** 
2181:Drivers/STM32F4xx_HAL_Driver/Src/stm32f4xx_hal_pcd.c **** #if (USE_HAL_PCD_REGISTER_CALLBACKS == 1U)
2182:Drivers/STM32F4xx_HAL_Driver/Src/stm32f4xx_hal_pcd.c ****         hpcd->DataOutStageCallback(hpcd, (uint8_t)epnum);
ARM GAS  /var/folders/vq/qt4vp3kd5rxf7v2b6_fdtdt80000gn/T//cc6xBrdC.s 			page 112


2183:Drivers/STM32F4xx_HAL_Driver/Src/stm32f4xx_hal_pcd.c **** #else
2184:Drivers/STM32F4xx_HAL_Driver/Src/stm32f4xx_hal_pcd.c ****         HAL_PCD_DataOutStageCallback(hpcd, (uint8_t)epnum);
 4179              		.loc 1 2184 9
 4180 01bc 3B68     		ldr	r3, [r7]
 4181 01be DBB2     		uxtb	r3, r3
 4182 01c0 1946     		mov	r1, r3
 4183 01c2 7868     		ldr	r0, [r7, #4]
 4184 01c4 FFF7FEFF 		bl	HAL_PCD_DataOutStageCallback
 4185 01c8 1DE0     		b	.L156
 4186              	.L161:
2185:Drivers/STM32F4xx_HAL_Driver/Src/stm32f4xx_hal_pcd.c **** #endif /* USE_HAL_PCD_REGISTER_CALLBACKS */
2186:Drivers/STM32F4xx_HAL_Driver/Src/stm32f4xx_hal_pcd.c ****       }
2187:Drivers/STM32F4xx_HAL_Driver/Src/stm32f4xx_hal_pcd.c ****     }
2188:Drivers/STM32F4xx_HAL_Driver/Src/stm32f4xx_hal_pcd.c ****     else
2189:Drivers/STM32F4xx_HAL_Driver/Src/stm32f4xx_hal_pcd.c ****     {
2190:Drivers/STM32F4xx_HAL_Driver/Src/stm32f4xx_hal_pcd.c ****       if ((epnum == 0U) && (hpcd->OUT_ep[epnum].xfer_len == 0U))
 4187              		.loc 1 2190 10
 4188 01ca 3B68     		ldr	r3, [r7]
 4189 01cc 002B     		cmp	r3, #0
 4190 01ce 14D1     		bne	.L164
 4191              		.loc 1 2190 48 discriminator 1
 4192 01d0 7968     		ldr	r1, [r7, #4]
 4193 01d2 3A68     		ldr	r2, [r7]
 4194 01d4 1346     		mov	r3, r2
 4195 01d6 DB00     		lsls	r3, r3, #3
 4196 01d8 9B1A     		subs	r3, r3, r2
 4197 01da 9B00     		lsls	r3, r3, #2
 4198 01dc 0B44     		add	r3, r3, r1
 4199 01de 03F50473 		add	r3, r3, #528
 4200 01e2 1B68     		ldr	r3, [r3]
 4201              		.loc 1 2190 25 discriminator 1
 4202 01e4 002B     		cmp	r3, #0
 4203 01e6 08D1     		bne	.L164
2191:Drivers/STM32F4xx_HAL_Driver/Src/stm32f4xx_hal_pcd.c ****       {
2192:Drivers/STM32F4xx_HAL_Driver/Src/stm32f4xx_hal_pcd.c ****         /* this is ZLP, so prepare EP0 for next setup */
2193:Drivers/STM32F4xx_HAL_Driver/Src/stm32f4xx_hal_pcd.c ****         (void)USB_EP0_OutStart(hpcd->Instance, 0U, (uint8_t *)hpcd->Setup);
 4204              		.loc 1 2193 36
 4205 01e8 7B68     		ldr	r3, [r7, #4]
 4206 01ea 1868     		ldr	r0, [r3]
 4207              		.loc 1 2193 63
 4208 01ec 7B68     		ldr	r3, [r7, #4]
 4209 01ee 03F57173 		add	r3, r3, #964
 4210              		.loc 1 2193 15
 4211 01f2 1A46     		mov	r2, r3
 4212 01f4 0021     		movs	r1, #0
 4213 01f6 FFF7FEFF 		bl	USB_EP0_OutStart
 4214              	.L164:
2194:Drivers/STM32F4xx_HAL_Driver/Src/stm32f4xx_hal_pcd.c ****       }
2195:Drivers/STM32F4xx_HAL_Driver/Src/stm32f4xx_hal_pcd.c **** 
2196:Drivers/STM32F4xx_HAL_Driver/Src/stm32f4xx_hal_pcd.c **** #if (USE_HAL_PCD_REGISTER_CALLBACKS == 1U)
2197:Drivers/STM32F4xx_HAL_Driver/Src/stm32f4xx_hal_pcd.c ****       hpcd->DataOutStageCallback(hpcd, (uint8_t)epnum);
2198:Drivers/STM32F4xx_HAL_Driver/Src/stm32f4xx_hal_pcd.c **** #else
2199:Drivers/STM32F4xx_HAL_Driver/Src/stm32f4xx_hal_pcd.c ****       HAL_PCD_DataOutStageCallback(hpcd, (uint8_t)epnum);
 4215              		.loc 1 2199 7
 4216 01fa 3B68     		ldr	r3, [r7]
 4217 01fc DBB2     		uxtb	r3, r3
 4218 01fe 1946     		mov	r1, r3
ARM GAS  /var/folders/vq/qt4vp3kd5rxf7v2b6_fdtdt80000gn/T//cc6xBrdC.s 			page 113


 4219 0200 7868     		ldr	r0, [r7, #4]
 4220 0202 FFF7FEFF 		bl	HAL_PCD_DataOutStageCallback
 4221              	.L156:
2200:Drivers/STM32F4xx_HAL_Driver/Src/stm32f4xx_hal_pcd.c **** #endif /* USE_HAL_PCD_REGISTER_CALLBACKS */
2201:Drivers/STM32F4xx_HAL_Driver/Src/stm32f4xx_hal_pcd.c ****     }
2202:Drivers/STM32F4xx_HAL_Driver/Src/stm32f4xx_hal_pcd.c ****   }
2203:Drivers/STM32F4xx_HAL_Driver/Src/stm32f4xx_hal_pcd.c **** 
2204:Drivers/STM32F4xx_HAL_Driver/Src/stm32f4xx_hal_pcd.c ****   return HAL_OK;
 4222              		.loc 1 2204 10
 4223 0206 0023     		movs	r3, #0
2205:Drivers/STM32F4xx_HAL_Driver/Src/stm32f4xx_hal_pcd.c **** }
 4224              		.loc 1 2205 1
 4225 0208 1846     		mov	r0, r3
 4226 020a 1837     		adds	r7, r7, #24
 4227              	.LCFI189:
 4228              		.cfi_def_cfa_offset 8
 4229 020c BD46     		mov	sp, r7
 4230              	.LCFI190:
 4231              		.cfi_def_cfa_register 13
 4232              		@ sp needed
 4233 020e 80BD     		pop	{r7, pc}
 4234              	.L167:
 4235              		.align	2
 4236              	.L166:
 4237 0210 0A30544F 		.word	1330917386
 4238 0214 0A31544F 		.word	1330917642
 4239              		.cfi_endproc
 4240              	.LFE164:
 4242              		.section	.text.PCD_EP_OutSetupPacket_int,"ax",%progbits
 4243              		.align	1
 4244              		.syntax unified
 4245              		.thumb
 4246              		.thumb_func
 4247              		.fpu fpv4-sp-d16
 4249              	PCD_EP_OutSetupPacket_int:
 4250              	.LFB165:
2206:Drivers/STM32F4xx_HAL_Driver/Src/stm32f4xx_hal_pcd.c **** 
2207:Drivers/STM32F4xx_HAL_Driver/Src/stm32f4xx_hal_pcd.c **** 
2208:Drivers/STM32F4xx_HAL_Driver/Src/stm32f4xx_hal_pcd.c **** /**
2209:Drivers/STM32F4xx_HAL_Driver/Src/stm32f4xx_hal_pcd.c ****   * @brief  process EP OUT setup packet received interrupt.
2210:Drivers/STM32F4xx_HAL_Driver/Src/stm32f4xx_hal_pcd.c ****   * @param  hpcd PCD handle
2211:Drivers/STM32F4xx_HAL_Driver/Src/stm32f4xx_hal_pcd.c ****   * @param  epnum endpoint number
2212:Drivers/STM32F4xx_HAL_Driver/Src/stm32f4xx_hal_pcd.c ****   * @retval HAL status
2213:Drivers/STM32F4xx_HAL_Driver/Src/stm32f4xx_hal_pcd.c ****   */
2214:Drivers/STM32F4xx_HAL_Driver/Src/stm32f4xx_hal_pcd.c **** static HAL_StatusTypeDef PCD_EP_OutSetupPacket_int(PCD_HandleTypeDef *hpcd, uint32_t epnum)
2215:Drivers/STM32F4xx_HAL_Driver/Src/stm32f4xx_hal_pcd.c **** {
 4251              		.loc 1 2215 1
 4252              		.cfi_startproc
 4253              		@ args = 0, pretend = 0, frame = 24
 4254              		@ frame_needed = 1, uses_anonymous_args = 0
 4255 0000 80B5     		push	{r7, lr}
 4256              	.LCFI191:
 4257              		.cfi_def_cfa_offset 8
 4258              		.cfi_offset 7, -8
 4259              		.cfi_offset 14, -4
 4260 0002 86B0     		sub	sp, sp, #24
 4261              	.LCFI192:
ARM GAS  /var/folders/vq/qt4vp3kd5rxf7v2b6_fdtdt80000gn/T//cc6xBrdC.s 			page 114


 4262              		.cfi_def_cfa_offset 32
 4263 0004 00AF     		add	r7, sp, #0
 4264              	.LCFI193:
 4265              		.cfi_def_cfa_register 7
 4266 0006 7860     		str	r0, [r7, #4]
 4267 0008 3960     		str	r1, [r7]
2216:Drivers/STM32F4xx_HAL_Driver/Src/stm32f4xx_hal_pcd.c ****   USB_OTG_GlobalTypeDef *USBx = hpcd->Instance;
 4268              		.loc 1 2216 26
 4269 000a 7B68     		ldr	r3, [r7, #4]
 4270 000c 1B68     		ldr	r3, [r3]
 4271 000e 7B61     		str	r3, [r7, #20]
2217:Drivers/STM32F4xx_HAL_Driver/Src/stm32f4xx_hal_pcd.c ****   uint32_t USBx_BASE = (uint32_t)USBx;
 4272              		.loc 1 2217 12
 4273 0010 7B69     		ldr	r3, [r7, #20]
 4274 0012 3B61     		str	r3, [r7, #16]
2218:Drivers/STM32F4xx_HAL_Driver/Src/stm32f4xx_hal_pcd.c ****   uint32_t gSNPSiD = *(__IO uint32_t *)(&USBx->CID + 0x1U);
 4275              		.loc 1 2218 41
 4276 0014 7B69     		ldr	r3, [r7, #20]
 4277 0016 3C33     		adds	r3, r3, #60
 4278              		.loc 1 2218 23
 4279 0018 0433     		adds	r3, r3, #4
 4280              		.loc 1 2218 12
 4281 001a 1B68     		ldr	r3, [r3]
 4282 001c FB60     		str	r3, [r7, #12]
2219:Drivers/STM32F4xx_HAL_Driver/Src/stm32f4xx_hal_pcd.c ****   uint32_t DoepintReg = USBx_OUTEP(epnum)->DOEPINT;
 4283              		.loc 1 2219 25
 4284 001e 3B68     		ldr	r3, [r7]
 4285 0020 5A01     		lsls	r2, r3, #5
 4286 0022 3B69     		ldr	r3, [r7, #16]
 4287 0024 1344     		add	r3, r3, r2
 4288 0026 03F53063 		add	r3, r3, #2816
 4289              		.loc 1 2219 12
 4290 002a 9B68     		ldr	r3, [r3, #8]
 4291 002c BB60     		str	r3, [r7, #8]
2220:Drivers/STM32F4xx_HAL_Driver/Src/stm32f4xx_hal_pcd.c **** 
2221:Drivers/STM32F4xx_HAL_Driver/Src/stm32f4xx_hal_pcd.c ****   if ((gSNPSiD > USB_OTG_CORE_ID_300A) &&
 4292              		.loc 1 2221 6
 4293 002e FB68     		ldr	r3, [r7, #12]
 4294 0030 154A     		ldr	r2, .L172
 4295 0032 9342     		cmp	r3, r2
 4296 0034 0ED9     		bls	.L169
2222:Drivers/STM32F4xx_HAL_Driver/Src/stm32f4xx_hal_pcd.c ****       ((DoepintReg & USB_OTG_DOEPINT_STPKTRX) == USB_OTG_DOEPINT_STPKTRX))
 4297              		.loc 1 2222 20 discriminator 1
 4298 0036 BB68     		ldr	r3, [r7, #8]
 4299 0038 03F40043 		and	r3, r3, #32768
2221:Drivers/STM32F4xx_HAL_Driver/Src/stm32f4xx_hal_pcd.c ****       ((DoepintReg & USB_OTG_DOEPINT_STPKTRX) == USB_OTG_DOEPINT_STPKTRX))
 4300              		.loc 1 2221 40 discriminator 1
 4301 003c 002B     		cmp	r3, #0
 4302 003e 09D0     		beq	.L169
2223:Drivers/STM32F4xx_HAL_Driver/Src/stm32f4xx_hal_pcd.c ****   {
2224:Drivers/STM32F4xx_HAL_Driver/Src/stm32f4xx_hal_pcd.c ****     CLEAR_OUT_EP_INTR(epnum, USB_OTG_DOEPINT_STPKTRX);
 4303              		.loc 1 2224 5
 4304 0040 3B68     		ldr	r3, [r7]
 4305 0042 5A01     		lsls	r2, r3, #5
 4306 0044 3B69     		ldr	r3, [r7, #16]
 4307 0046 1344     		add	r3, r3, r2
 4308 0048 03F53063 		add	r3, r3, #2816
ARM GAS  /var/folders/vq/qt4vp3kd5rxf7v2b6_fdtdt80000gn/T//cc6xBrdC.s 			page 115


 4309 004c 1A46     		mov	r2, r3
 4310 004e 4FF40043 		mov	r3, #32768
 4311 0052 9360     		str	r3, [r2, #8]
 4312              	.L169:
2225:Drivers/STM32F4xx_HAL_Driver/Src/stm32f4xx_hal_pcd.c ****   }
2226:Drivers/STM32F4xx_HAL_Driver/Src/stm32f4xx_hal_pcd.c **** 
2227:Drivers/STM32F4xx_HAL_Driver/Src/stm32f4xx_hal_pcd.c ****   /* Inform the upper layer that a setup packet is available */
2228:Drivers/STM32F4xx_HAL_Driver/Src/stm32f4xx_hal_pcd.c **** #if (USE_HAL_PCD_REGISTER_CALLBACKS == 1U)
2229:Drivers/STM32F4xx_HAL_Driver/Src/stm32f4xx_hal_pcd.c ****   hpcd->SetupStageCallback(hpcd);
2230:Drivers/STM32F4xx_HAL_Driver/Src/stm32f4xx_hal_pcd.c **** #else
2231:Drivers/STM32F4xx_HAL_Driver/Src/stm32f4xx_hal_pcd.c ****   HAL_PCD_SetupStageCallback(hpcd);
 4313              		.loc 1 2231 3
 4314 0054 7868     		ldr	r0, [r7, #4]
 4315 0056 FFF7FEFF 		bl	HAL_PCD_SetupStageCallback
2232:Drivers/STM32F4xx_HAL_Driver/Src/stm32f4xx_hal_pcd.c **** #endif /* USE_HAL_PCD_REGISTER_CALLBACKS */
2233:Drivers/STM32F4xx_HAL_Driver/Src/stm32f4xx_hal_pcd.c **** 
2234:Drivers/STM32F4xx_HAL_Driver/Src/stm32f4xx_hal_pcd.c ****   if ((gSNPSiD > USB_OTG_CORE_ID_300A) && (hpcd->Init.dma_enable == 1U))
 4316              		.loc 1 2234 6
 4317 005a FB68     		ldr	r3, [r7, #12]
 4318 005c 0A4A     		ldr	r2, .L172
 4319 005e 9342     		cmp	r3, r2
 4320 0060 0CD9     		bls	.L170
 4321              		.loc 1 2234 54 discriminator 1
 4322 0062 7B68     		ldr	r3, [r7, #4]
 4323 0064 1B69     		ldr	r3, [r3, #16]
 4324              		.loc 1 2234 40 discriminator 1
 4325 0066 012B     		cmp	r3, #1
 4326 0068 08D1     		bne	.L170
2235:Drivers/STM32F4xx_HAL_Driver/Src/stm32f4xx_hal_pcd.c ****   {
2236:Drivers/STM32F4xx_HAL_Driver/Src/stm32f4xx_hal_pcd.c ****     (void)USB_EP0_OutStart(hpcd->Instance, 1U, (uint8_t *)hpcd->Setup);
 4327              		.loc 1 2236 32
 4328 006a 7B68     		ldr	r3, [r7, #4]
 4329 006c 1868     		ldr	r0, [r3]
 4330              		.loc 1 2236 59
 4331 006e 7B68     		ldr	r3, [r7, #4]
 4332 0070 03F57173 		add	r3, r3, #964
 4333              		.loc 1 2236 11
 4334 0074 1A46     		mov	r2, r3
 4335 0076 0121     		movs	r1, #1
 4336 0078 FFF7FEFF 		bl	USB_EP0_OutStart
 4337              	.L170:
2237:Drivers/STM32F4xx_HAL_Driver/Src/stm32f4xx_hal_pcd.c ****   }
2238:Drivers/STM32F4xx_HAL_Driver/Src/stm32f4xx_hal_pcd.c **** 
2239:Drivers/STM32F4xx_HAL_Driver/Src/stm32f4xx_hal_pcd.c ****   return HAL_OK;
 4338              		.loc 1 2239 10
 4339 007c 0023     		movs	r3, #0
2240:Drivers/STM32F4xx_HAL_Driver/Src/stm32f4xx_hal_pcd.c **** }
 4340              		.loc 1 2240 1
 4341 007e 1846     		mov	r0, r3
 4342 0080 1837     		adds	r7, r7, #24
 4343              	.LCFI194:
 4344              		.cfi_def_cfa_offset 8
 4345 0082 BD46     		mov	sp, r7
 4346              	.LCFI195:
 4347              		.cfi_def_cfa_register 13
 4348              		@ sp needed
 4349 0084 80BD     		pop	{r7, pc}
ARM GAS  /var/folders/vq/qt4vp3kd5rxf7v2b6_fdtdt80000gn/T//cc6xBrdC.s 			page 116


 4350              	.L173:
 4351 0086 00BF     		.align	2
 4352              	.L172:
 4353 0088 0A30544F 		.word	1330917386
 4354              		.cfi_endproc
 4355              	.LFE165:
 4357              		.text
 4358              	.Letext0:
 4359              		.file 2 "/usr/local/Cellar/arm-none-eabi-gcc/9-2019-q4-major/gcc/arm-none-eabi/include/machine/_de
 4360              		.file 3 "/usr/local/Cellar/arm-none-eabi-gcc/9-2019-q4-major/gcc/arm-none-eabi/include/sys/_stdint
 4361              		.file 4 "Drivers/CMSIS/Include/core_cm4.h"
 4362              		.file 5 "Drivers/CMSIS/Device/ST/STM32F4xx/Include/system_stm32f4xx.h"
 4363              		.file 6 "Drivers/CMSIS/Device/ST/STM32F4xx/Include/stm32f407xx.h"
 4364              		.file 7 "Drivers/STM32F4xx_HAL_Driver/Inc/stm32f4xx_hal_def.h"
 4365              		.file 8 "Drivers/STM32F4xx_HAL_Driver/Inc/stm32f4xx_ll_usb.h"
 4366              		.file 9 "Drivers/STM32F4xx_HAL_Driver/Inc/stm32f4xx_hal_pcd.h"
 4367              		.file 10 "Drivers/STM32F4xx_HAL_Driver/Inc/stm32f4xx_hal.h"
ARM GAS  /var/folders/vq/qt4vp3kd5rxf7v2b6_fdtdt80000gn/T//cc6xBrdC.s 			page 117


DEFINED SYMBOLS
                            *ABS*:0000000000000000 stm32f4xx_hal_pcd.c
/var/folders/vq/qt4vp3kd5rxf7v2b6_fdtdt80000gn/T//cc6xBrdC.s:17     .text.HAL_PCD_Init:0000000000000000 $t
/var/folders/vq/qt4vp3kd5rxf7v2b6_fdtdt80000gn/T//cc6xBrdC.s:25     .text.HAL_PCD_Init:0000000000000000 HAL_PCD_Init
/var/folders/vq/qt4vp3kd5rxf7v2b6_fdtdt80000gn/T//cc6xBrdC.s:472    .text.HAL_PCD_MspInit:0000000000000000 HAL_PCD_MspInit
/var/folders/vq/qt4vp3kd5rxf7v2b6_fdtdt80000gn/T//cc6xBrdC.s:390    .text.HAL_PCD_DeInit:0000000000000000 $t
/var/folders/vq/qt4vp3kd5rxf7v2b6_fdtdt80000gn/T//cc6xBrdC.s:397    .text.HAL_PCD_DeInit:0000000000000000 HAL_PCD_DeInit
/var/folders/vq/qt4vp3kd5rxf7v2b6_fdtdt80000gn/T//cc6xBrdC.s:515    .text.HAL_PCD_MspDeInit:0000000000000000 HAL_PCD_MspDeInit
/var/folders/vq/qt4vp3kd5rxf7v2b6_fdtdt80000gn/T//cc6xBrdC.s:465    .text.HAL_PCD_MspInit:0000000000000000 $t
/var/folders/vq/qt4vp3kd5rxf7v2b6_fdtdt80000gn/T//cc6xBrdC.s:508    .text.HAL_PCD_MspDeInit:0000000000000000 $t
/var/folders/vq/qt4vp3kd5rxf7v2b6_fdtdt80000gn/T//cc6xBrdC.s:551    .text.HAL_PCD_Start:0000000000000000 $t
/var/folders/vq/qt4vp3kd5rxf7v2b6_fdtdt80000gn/T//cc6xBrdC.s:558    .text.HAL_PCD_Start:0000000000000000 HAL_PCD_Start
/var/folders/vq/qt4vp3kd5rxf7v2b6_fdtdt80000gn/T//cc6xBrdC.s:644    .text.HAL_PCD_Stop:0000000000000000 $t
/var/folders/vq/qt4vp3kd5rxf7v2b6_fdtdt80000gn/T//cc6xBrdC.s:651    .text.HAL_PCD_Stop:0000000000000000 HAL_PCD_Stop
/var/folders/vq/qt4vp3kd5rxf7v2b6_fdtdt80000gn/T//cc6xBrdC.s:744    .text.HAL_PCD_IRQHandler:0000000000000000 $t
/var/folders/vq/qt4vp3kd5rxf7v2b6_fdtdt80000gn/T//cc6xBrdC.s:751    .text.HAL_PCD_IRQHandler:0000000000000000 HAL_PCD_IRQHandler
/var/folders/vq/qt4vp3kd5rxf7v2b6_fdtdt80000gn/T//cc6xBrdC.s:3920   .text.PCD_EP_OutXfrComplete_int:0000000000000000 PCD_EP_OutXfrComplete_int
/var/folders/vq/qt4vp3kd5rxf7v2b6_fdtdt80000gn/T//cc6xBrdC.s:4249   .text.PCD_EP_OutSetupPacket_int:0000000000000000 PCD_EP_OutSetupPacket_int
/var/folders/vq/qt4vp3kd5rxf7v2b6_fdtdt80000gn/T//cc6xBrdC.s:1925   .text.HAL_PCD_DataInStageCallback:0000000000000000 HAL_PCD_DataInStageCallback
/var/folders/vq/qt4vp3kd5rxf7v2b6_fdtdt80000gn/T//cc6xBrdC.s:3700   .text.PCD_WriteEmptyTxFifo:0000000000000000 PCD_WriteEmptyTxFifo
/var/folders/vq/qt4vp3kd5rxf7v2b6_fdtdt80000gn/T//cc6xBrdC.s:2142   .text.HAL_PCD_ResumeCallback:0000000000000000 HAL_PCD_ResumeCallback
/var/folders/vq/qt4vp3kd5rxf7v2b6_fdtdt80000gn/T//cc6xBrdC.s:2099   .text.HAL_PCD_SuspendCallback:0000000000000000 HAL_PCD_SuspendCallback
/var/folders/vq/qt4vp3kd5rxf7v2b6_fdtdt80000gn/T//cc6xBrdC.s:2056   .text.HAL_PCD_ResetCallback:0000000000000000 HAL_PCD_ResetCallback
/var/folders/vq/qt4vp3kd5rxf7v2b6_fdtdt80000gn/T//cc6xBrdC.s:2013   .text.HAL_PCD_SOFCallback:0000000000000000 HAL_PCD_SOFCallback
/var/folders/vq/qt4vp3kd5rxf7v2b6_fdtdt80000gn/T//cc6xBrdC.s:2230   .text.HAL_PCD_ISOINIncompleteCallback:0000000000000000 HAL_PCD_ISOINIncompleteCallback
/var/folders/vq/qt4vp3kd5rxf7v2b6_fdtdt80000gn/T//cc6xBrdC.s:2185   .text.HAL_PCD_ISOOUTIncompleteCallback:0000000000000000 HAL_PCD_ISOOUTIncompleteCallback
/var/folders/vq/qt4vp3kd5rxf7v2b6_fdtdt80000gn/T//cc6xBrdC.s:2275   .text.HAL_PCD_ConnectCallback:0000000000000000 HAL_PCD_ConnectCallback
/var/folders/vq/qt4vp3kd5rxf7v2b6_fdtdt80000gn/T//cc6xBrdC.s:2318   .text.HAL_PCD_DisconnectCallback:0000000000000000 HAL_PCD_DisconnectCallback
/var/folders/vq/qt4vp3kd5rxf7v2b6_fdtdt80000gn/T//cc6xBrdC.s:1802   .text.HAL_PCD_WKUP_IRQHandler:0000000000000000 $t
/var/folders/vq/qt4vp3kd5rxf7v2b6_fdtdt80000gn/T//cc6xBrdC.s:1809   .text.HAL_PCD_WKUP_IRQHandler:0000000000000000 HAL_PCD_WKUP_IRQHandler
/var/folders/vq/qt4vp3kd5rxf7v2b6_fdtdt80000gn/T//cc6xBrdC.s:1868   .text.HAL_PCD_WKUP_IRQHandler:0000000000000038 $d
/var/folders/vq/qt4vp3kd5rxf7v2b6_fdtdt80000gn/T//cc6xBrdC.s:1873   .text.HAL_PCD_DataOutStageCallback:0000000000000000 $t
/var/folders/vq/qt4vp3kd5rxf7v2b6_fdtdt80000gn/T//cc6xBrdC.s:1880   .text.HAL_PCD_DataOutStageCallback:0000000000000000 HAL_PCD_DataOutStageCallback
/var/folders/vq/qt4vp3kd5rxf7v2b6_fdtdt80000gn/T//cc6xBrdC.s:1918   .text.HAL_PCD_DataInStageCallback:0000000000000000 $t
/var/folders/vq/qt4vp3kd5rxf7v2b6_fdtdt80000gn/T//cc6xBrdC.s:1963   .text.HAL_PCD_SetupStageCallback:0000000000000000 $t
/var/folders/vq/qt4vp3kd5rxf7v2b6_fdtdt80000gn/T//cc6xBrdC.s:1970   .text.HAL_PCD_SetupStageCallback:0000000000000000 HAL_PCD_SetupStageCallback
/var/folders/vq/qt4vp3kd5rxf7v2b6_fdtdt80000gn/T//cc6xBrdC.s:2006   .text.HAL_PCD_SOFCallback:0000000000000000 $t
/var/folders/vq/qt4vp3kd5rxf7v2b6_fdtdt80000gn/T//cc6xBrdC.s:2049   .text.HAL_PCD_ResetCallback:0000000000000000 $t
/var/folders/vq/qt4vp3kd5rxf7v2b6_fdtdt80000gn/T//cc6xBrdC.s:2092   .text.HAL_PCD_SuspendCallback:0000000000000000 $t
/var/folders/vq/qt4vp3kd5rxf7v2b6_fdtdt80000gn/T//cc6xBrdC.s:2135   .text.HAL_PCD_ResumeCallback:0000000000000000 $t
/var/folders/vq/qt4vp3kd5rxf7v2b6_fdtdt80000gn/T//cc6xBrdC.s:2178   .text.HAL_PCD_ISOOUTIncompleteCallback:0000000000000000 $t
/var/folders/vq/qt4vp3kd5rxf7v2b6_fdtdt80000gn/T//cc6xBrdC.s:2223   .text.HAL_PCD_ISOINIncompleteCallback:0000000000000000 $t
/var/folders/vq/qt4vp3kd5rxf7v2b6_fdtdt80000gn/T//cc6xBrdC.s:2268   .text.HAL_PCD_ConnectCallback:0000000000000000 $t
/var/folders/vq/qt4vp3kd5rxf7v2b6_fdtdt80000gn/T//cc6xBrdC.s:2311   .text.HAL_PCD_DisconnectCallback:0000000000000000 $t
/var/folders/vq/qt4vp3kd5rxf7v2b6_fdtdt80000gn/T//cc6xBrdC.s:2354   .text.HAL_PCD_DevConnect:0000000000000000 $t
/var/folders/vq/qt4vp3kd5rxf7v2b6_fdtdt80000gn/T//cc6xBrdC.s:2361   .text.HAL_PCD_DevConnect:0000000000000000 HAL_PCD_DevConnect
/var/folders/vq/qt4vp3kd5rxf7v2b6_fdtdt80000gn/T//cc6xBrdC.s:2442   .text.HAL_PCD_DevDisconnect:0000000000000000 $t
/var/folders/vq/qt4vp3kd5rxf7v2b6_fdtdt80000gn/T//cc6xBrdC.s:2449   .text.HAL_PCD_DevDisconnect:0000000000000000 HAL_PCD_DevDisconnect
/var/folders/vq/qt4vp3kd5rxf7v2b6_fdtdt80000gn/T//cc6xBrdC.s:2530   .text.HAL_PCD_SetAddress:0000000000000000 $t
/var/folders/vq/qt4vp3kd5rxf7v2b6_fdtdt80000gn/T//cc6xBrdC.s:2537   .text.HAL_PCD_SetAddress:0000000000000000 HAL_PCD_SetAddress
/var/folders/vq/qt4vp3kd5rxf7v2b6_fdtdt80000gn/T//cc6xBrdC.s:2603   .text.HAL_PCD_EP_Open:0000000000000000 $t
/var/folders/vq/qt4vp3kd5rxf7v2b6_fdtdt80000gn/T//cc6xBrdC.s:2610   .text.HAL_PCD_EP_Open:0000000000000000 HAL_PCD_EP_Open
/var/folders/vq/qt4vp3kd5rxf7v2b6_fdtdt80000gn/T//cc6xBrdC.s:2761   .text.HAL_PCD_EP_Close:0000000000000000 $t
/var/folders/vq/qt4vp3kd5rxf7v2b6_fdtdt80000gn/T//cc6xBrdC.s:2768   .text.HAL_PCD_EP_Close:0000000000000000 HAL_PCD_EP_Close
/var/folders/vq/qt4vp3kd5rxf7v2b6_fdtdt80000gn/T//cc6xBrdC.s:2878   .text.HAL_PCD_EP_Receive:0000000000000000 $t
/var/folders/vq/qt4vp3kd5rxf7v2b6_fdtdt80000gn/T//cc6xBrdC.s:2885   .text.HAL_PCD_EP_Receive:0000000000000000 HAL_PCD_EP_Receive
/var/folders/vq/qt4vp3kd5rxf7v2b6_fdtdt80000gn/T//cc6xBrdC.s:3002   .text.HAL_PCD_EP_GetRxCount:0000000000000000 $t
ARM GAS  /var/folders/vq/qt4vp3kd5rxf7v2b6_fdtdt80000gn/T//cc6xBrdC.s 			page 118


/var/folders/vq/qt4vp3kd5rxf7v2b6_fdtdt80000gn/T//cc6xBrdC.s:3009   .text.HAL_PCD_EP_GetRxCount:0000000000000000 HAL_PCD_EP_GetRxCount
/var/folders/vq/qt4vp3kd5rxf7v2b6_fdtdt80000gn/T//cc6xBrdC.s:3059   .text.HAL_PCD_EP_Transmit:0000000000000000 $t
/var/folders/vq/qt4vp3kd5rxf7v2b6_fdtdt80000gn/T//cc6xBrdC.s:3066   .text.HAL_PCD_EP_Transmit:0000000000000000 HAL_PCD_EP_Transmit
/var/folders/vq/qt4vp3kd5rxf7v2b6_fdtdt80000gn/T//cc6xBrdC.s:3183   .text.HAL_PCD_EP_SetStall:0000000000000000 $t
/var/folders/vq/qt4vp3kd5rxf7v2b6_fdtdt80000gn/T//cc6xBrdC.s:3190   .text.HAL_PCD_EP_SetStall:0000000000000000 HAL_PCD_EP_SetStall
/var/folders/vq/qt4vp3kd5rxf7v2b6_fdtdt80000gn/T//cc6xBrdC.s:3337   .text.HAL_PCD_EP_ClrStall:0000000000000000 $t
/var/folders/vq/qt4vp3kd5rxf7v2b6_fdtdt80000gn/T//cc6xBrdC.s:3344   .text.HAL_PCD_EP_ClrStall:0000000000000000 HAL_PCD_EP_ClrStall
/var/folders/vq/qt4vp3kd5rxf7v2b6_fdtdt80000gn/T//cc6xBrdC.s:3471   .text.HAL_PCD_EP_Flush:0000000000000000 $t
/var/folders/vq/qt4vp3kd5rxf7v2b6_fdtdt80000gn/T//cc6xBrdC.s:3478   .text.HAL_PCD_EP_Flush:0000000000000000 HAL_PCD_EP_Flush
/var/folders/vq/qt4vp3kd5rxf7v2b6_fdtdt80000gn/T//cc6xBrdC.s:3555   .text.HAL_PCD_ActivateRemoteWakeup:0000000000000000 $t
/var/folders/vq/qt4vp3kd5rxf7v2b6_fdtdt80000gn/T//cc6xBrdC.s:3562   .text.HAL_PCD_ActivateRemoteWakeup:0000000000000000 HAL_PCD_ActivateRemoteWakeup
/var/folders/vq/qt4vp3kd5rxf7v2b6_fdtdt80000gn/T//cc6xBrdC.s:3601   .text.HAL_PCD_DeActivateRemoteWakeup:0000000000000000 $t
/var/folders/vq/qt4vp3kd5rxf7v2b6_fdtdt80000gn/T//cc6xBrdC.s:3608   .text.HAL_PCD_DeActivateRemoteWakeup:0000000000000000 HAL_PCD_DeActivateRemoteWakeup
/var/folders/vq/qt4vp3kd5rxf7v2b6_fdtdt80000gn/T//cc6xBrdC.s:3647   .text.HAL_PCD_GetState:0000000000000000 $t
/var/folders/vq/qt4vp3kd5rxf7v2b6_fdtdt80000gn/T//cc6xBrdC.s:3654   .text.HAL_PCD_GetState:0000000000000000 HAL_PCD_GetState
/var/folders/vq/qt4vp3kd5rxf7v2b6_fdtdt80000gn/T//cc6xBrdC.s:3694   .text.PCD_WriteEmptyTxFifo:0000000000000000 $t
/var/folders/vq/qt4vp3kd5rxf7v2b6_fdtdt80000gn/T//cc6xBrdC.s:3914   .text.PCD_EP_OutXfrComplete_int:0000000000000000 $t
/var/folders/vq/qt4vp3kd5rxf7v2b6_fdtdt80000gn/T//cc6xBrdC.s:4237   .text.PCD_EP_OutXfrComplete_int:0000000000000210 $d
/var/folders/vq/qt4vp3kd5rxf7v2b6_fdtdt80000gn/T//cc6xBrdC.s:4243   .text.PCD_EP_OutSetupPacket_int:0000000000000000 $t
/var/folders/vq/qt4vp3kd5rxf7v2b6_fdtdt80000gn/T//cc6xBrdC.s:4353   .text.PCD_EP_OutSetupPacket_int:0000000000000088 $d

UNDEFINED SYMBOLS
USB_DisableGlobalInt
USB_CoreInit
USB_SetCurrentMode
USB_DevInit
USB_DevDisconnect
USB_StopDevice
USB_EnableGlobalInt
USB_DevConnect
USB_FlushTxFifo
USB_GetMode
USB_ReadInterrupts
USB_ReadPacket
USB_ReadDevAllOutEpInterrupt
USB_ReadDevOutEPInterrupt
USB_ReadDevAllInEpInterrupt
USB_ReadDevInEPInterrupt
USB_EP0_OutStart
HAL_PCDEx_LPM_Callback
USB_ActivateSetup
USB_GetDevSpeed
HAL_RCC_GetHCLKFreq
USB_SetTurnaroundTime
USB_SetDevAddress
USB_ActivateEndpoint
USB_DeactivateEndpoint
USB_EP0StartXfer
USB_EPStartXfer
USB_EPSetStall
USB_EPClearStall
USB_FlushRxFifo
USB_ActivateRemoteWakeup
USB_DeActivateRemoteWakeup
USB_WritePacket
