ARM GAS  /var/folders/vq/qt4vp3kd5rxf7v2b6_fdtdt80000gn/T//cc6xBrdC.s 			page 1


   1              		.cpu cortex-m4
   2              		.eabi_attribute 27, 1
   3              		.eabi_attribute 20, 1
   4              		.eabi_attribute 21, 1
   5              		.eabi_attribute 23, 3
   6              		.eabi_attribute 24, 1
   7              		.eabi_attribute 25, 1
   8              		.eabi_attribute 26, 1
   9              		.eabi_attribute 30, 6
  10              		.eabi_attribute 34, 1
  11              		.eabi_attribute 18, 4
  12              		.file	"stm32f4xx_hal_pcd.c"
  13              		.text
  14              	.Ltext0:
  15              		.cfi_sections	.debug_frame
  16              		.section	.text.HAL_PCD_Init,"ax",%progbits
  17              		.align	1
  18              		.global	HAL_PCD_Init
  19              		.arch armv7e-m
  20              		.syntax unified
  21              		.thumb
  22              		.thumb_func
  23              		.fpu fpv4-sp-d16
  25              	HAL_PCD_Init:
  26              	.LFB130:
  27              		.file 1 "Drivers/STM32F4xx_HAL_Driver/Src/stm32f4xx_hal_pcd.c"
   1:Drivers/STM32F4xx_HAL_Driver/Src/stm32f4xx_hal_pcd.c **** /**
   2:Drivers/STM32F4xx_HAL_Driver/Src/stm32f4xx_hal_pcd.c ****   ******************************************************************************
   3:Drivers/STM32F4xx_HAL_Driver/Src/stm32f4xx_hal_pcd.c ****   * @file    stm32f4xx_hal_pcd.c
   4:Drivers/STM32F4xx_HAL_Driver/Src/stm32f4xx_hal_pcd.c ****   * @author  MCD Application Team
   5:Drivers/STM32F4xx_HAL_Driver/Src/stm32f4xx_hal_pcd.c ****   * @brief   PCD HAL module driver.
   6:Drivers/STM32F4xx_HAL_Driver/Src/stm32f4xx_hal_pcd.c ****   *          This file provides firmware functions to manage the following
   7:Drivers/STM32F4xx_HAL_Driver/Src/stm32f4xx_hal_pcd.c ****   *          functionalities of the USB Peripheral Controller:
   8:Drivers/STM32F4xx_HAL_Driver/Src/stm32f4xx_hal_pcd.c ****   *           + Initialization and de-initialization functions
   9:Drivers/STM32F4xx_HAL_Driver/Src/stm32f4xx_hal_pcd.c ****   *           + IO operation functions
  10:Drivers/STM32F4xx_HAL_Driver/Src/stm32f4xx_hal_pcd.c ****   *           + Peripheral Control functions
  11:Drivers/STM32F4xx_HAL_Driver/Src/stm32f4xx_hal_pcd.c ****   *           + Peripheral State functions
  12:Drivers/STM32F4xx_HAL_Driver/Src/stm32f4xx_hal_pcd.c ****   *
  13:Drivers/STM32F4xx_HAL_Driver/Src/stm32f4xx_hal_pcd.c ****   @verbatim
  14:Drivers/STM32F4xx_HAL_Driver/Src/stm32f4xx_hal_pcd.c ****   ==============================================================================
  15:Drivers/STM32F4xx_HAL_Driver/Src/stm32f4xx_hal_pcd.c ****                     ##### How to use this driver #####
  16:Drivers/STM32F4xx_HAL_Driver/Src/stm32f4xx_hal_pcd.c ****   ==============================================================================
  17:Drivers/STM32F4xx_HAL_Driver/Src/stm32f4xx_hal_pcd.c ****     [..]
  18:Drivers/STM32F4xx_HAL_Driver/Src/stm32f4xx_hal_pcd.c ****       The PCD HAL driver can be used as follows:
  19:Drivers/STM32F4xx_HAL_Driver/Src/stm32f4xx_hal_pcd.c **** 
  20:Drivers/STM32F4xx_HAL_Driver/Src/stm32f4xx_hal_pcd.c ****      (#) Declare a PCD_HandleTypeDef handle structure, for example:
  21:Drivers/STM32F4xx_HAL_Driver/Src/stm32f4xx_hal_pcd.c ****          PCD_HandleTypeDef  hpcd;
  22:Drivers/STM32F4xx_HAL_Driver/Src/stm32f4xx_hal_pcd.c **** 
  23:Drivers/STM32F4xx_HAL_Driver/Src/stm32f4xx_hal_pcd.c ****      (#) Fill parameters of Init structure in HCD handle
  24:Drivers/STM32F4xx_HAL_Driver/Src/stm32f4xx_hal_pcd.c **** 
  25:Drivers/STM32F4xx_HAL_Driver/Src/stm32f4xx_hal_pcd.c ****      (#) Call HAL_PCD_Init() API to initialize the PCD peripheral (Core, Device core, ...)
  26:Drivers/STM32F4xx_HAL_Driver/Src/stm32f4xx_hal_pcd.c **** 
  27:Drivers/STM32F4xx_HAL_Driver/Src/stm32f4xx_hal_pcd.c ****      (#) Initialize the PCD low level resources through the HAL_PCD_MspInit() API:
  28:Drivers/STM32F4xx_HAL_Driver/Src/stm32f4xx_hal_pcd.c ****          (##) Enable the PCD/USB Low Level interface clock using
  29:Drivers/STM32F4xx_HAL_Driver/Src/stm32f4xx_hal_pcd.c ****               (+++) __HAL_RCC_USB_OTG_FS_CLK_ENABLE();
  30:Drivers/STM32F4xx_HAL_Driver/Src/stm32f4xx_hal_pcd.c ****               (+++) __HAL_RCC_USB_OTG_HS_CLK_ENABLE(); (For High Speed Mode)
  31:Drivers/STM32F4xx_HAL_Driver/Src/stm32f4xx_hal_pcd.c **** 
ARM GAS  /var/folders/vq/qt4vp3kd5rxf7v2b6_fdtdt80000gn/T//cc6xBrdC.s 			page 2


  32:Drivers/STM32F4xx_HAL_Driver/Src/stm32f4xx_hal_pcd.c ****          (##) Initialize the related GPIO clocks
  33:Drivers/STM32F4xx_HAL_Driver/Src/stm32f4xx_hal_pcd.c ****          (##) Configure PCD pin-out
  34:Drivers/STM32F4xx_HAL_Driver/Src/stm32f4xx_hal_pcd.c ****          (##) Configure PCD NVIC interrupt
  35:Drivers/STM32F4xx_HAL_Driver/Src/stm32f4xx_hal_pcd.c **** 
  36:Drivers/STM32F4xx_HAL_Driver/Src/stm32f4xx_hal_pcd.c ****      (#)Associate the Upper USB device stack to the HAL PCD Driver:
  37:Drivers/STM32F4xx_HAL_Driver/Src/stm32f4xx_hal_pcd.c ****          (##) hpcd.pData = pdev;
  38:Drivers/STM32F4xx_HAL_Driver/Src/stm32f4xx_hal_pcd.c **** 
  39:Drivers/STM32F4xx_HAL_Driver/Src/stm32f4xx_hal_pcd.c ****      (#)Enable PCD transmission and reception:
  40:Drivers/STM32F4xx_HAL_Driver/Src/stm32f4xx_hal_pcd.c ****          (##) HAL_PCD_Start();
  41:Drivers/STM32F4xx_HAL_Driver/Src/stm32f4xx_hal_pcd.c **** 
  42:Drivers/STM32F4xx_HAL_Driver/Src/stm32f4xx_hal_pcd.c ****   @endverbatim
  43:Drivers/STM32F4xx_HAL_Driver/Src/stm32f4xx_hal_pcd.c ****   ******************************************************************************
  44:Drivers/STM32F4xx_HAL_Driver/Src/stm32f4xx_hal_pcd.c ****   * @attention
  45:Drivers/STM32F4xx_HAL_Driver/Src/stm32f4xx_hal_pcd.c ****   *
  46:Drivers/STM32F4xx_HAL_Driver/Src/stm32f4xx_hal_pcd.c ****   * <h2><center>&copy; Copyright (c) 2016 STMicroelectronics.
  47:Drivers/STM32F4xx_HAL_Driver/Src/stm32f4xx_hal_pcd.c ****   * All rights reserved.</center></h2>
  48:Drivers/STM32F4xx_HAL_Driver/Src/stm32f4xx_hal_pcd.c ****   *
  49:Drivers/STM32F4xx_HAL_Driver/Src/stm32f4xx_hal_pcd.c ****   * This software component is licensed by ST under BSD 3-Clause license,
  50:Drivers/STM32F4xx_HAL_Driver/Src/stm32f4xx_hal_pcd.c ****   * the "License"; You may not use this file except in compliance with the
  51:Drivers/STM32F4xx_HAL_Driver/Src/stm32f4xx_hal_pcd.c ****   * License. You may obtain a copy of the License at:
  52:Drivers/STM32F4xx_HAL_Driver/Src/stm32f4xx_hal_pcd.c ****   *                        opensource.org/licenses/BSD-3-Clause
  53:Drivers/STM32F4xx_HAL_Driver/Src/stm32f4xx_hal_pcd.c ****   *
  54:Drivers/STM32F4xx_HAL_Driver/Src/stm32f4xx_hal_pcd.c ****   ******************************************************************************
  55:Drivers/STM32F4xx_HAL_Driver/Src/stm32f4xx_hal_pcd.c ****   */
  56:Drivers/STM32F4xx_HAL_Driver/Src/stm32f4xx_hal_pcd.c **** 
  57:Drivers/STM32F4xx_HAL_Driver/Src/stm32f4xx_hal_pcd.c **** /* Includes ------------------------------------------------------------------*/
  58:Drivers/STM32F4xx_HAL_Driver/Src/stm32f4xx_hal_pcd.c **** #include "stm32f4xx_hal.h"
  59:Drivers/STM32F4xx_HAL_Driver/Src/stm32f4xx_hal_pcd.c **** 
  60:Drivers/STM32F4xx_HAL_Driver/Src/stm32f4xx_hal_pcd.c **** /** @addtogroup STM32F4xx_HAL_Driver
  61:Drivers/STM32F4xx_HAL_Driver/Src/stm32f4xx_hal_pcd.c ****   * @{
  62:Drivers/STM32F4xx_HAL_Driver/Src/stm32f4xx_hal_pcd.c ****   */
  63:Drivers/STM32F4xx_HAL_Driver/Src/stm32f4xx_hal_pcd.c **** 
  64:Drivers/STM32F4xx_HAL_Driver/Src/stm32f4xx_hal_pcd.c **** /** @defgroup PCD PCD
  65:Drivers/STM32F4xx_HAL_Driver/Src/stm32f4xx_hal_pcd.c ****   * @brief PCD HAL module driver
  66:Drivers/STM32F4xx_HAL_Driver/Src/stm32f4xx_hal_pcd.c ****   * @{
  67:Drivers/STM32F4xx_HAL_Driver/Src/stm32f4xx_hal_pcd.c ****   */
  68:Drivers/STM32F4xx_HAL_Driver/Src/stm32f4xx_hal_pcd.c **** 
  69:Drivers/STM32F4xx_HAL_Driver/Src/stm32f4xx_hal_pcd.c **** #ifdef HAL_PCD_MODULE_ENABLED
  70:Drivers/STM32F4xx_HAL_Driver/Src/stm32f4xx_hal_pcd.c **** 
  71:Drivers/STM32F4xx_HAL_Driver/Src/stm32f4xx_hal_pcd.c **** #if defined (USB_OTG_FS) || defined (USB_OTG_HS)
  72:Drivers/STM32F4xx_HAL_Driver/Src/stm32f4xx_hal_pcd.c **** 
  73:Drivers/STM32F4xx_HAL_Driver/Src/stm32f4xx_hal_pcd.c **** /* Private types -------------------------------------------------------------*/
  74:Drivers/STM32F4xx_HAL_Driver/Src/stm32f4xx_hal_pcd.c **** /* Private variables ---------------------------------------------------------*/
  75:Drivers/STM32F4xx_HAL_Driver/Src/stm32f4xx_hal_pcd.c **** /* Private constants ---------------------------------------------------------*/
  76:Drivers/STM32F4xx_HAL_Driver/Src/stm32f4xx_hal_pcd.c **** /* Private macros ------------------------------------------------------------*/
  77:Drivers/STM32F4xx_HAL_Driver/Src/stm32f4xx_hal_pcd.c **** /** @defgroup PCD_Private_Macros PCD Private Macros
  78:Drivers/STM32F4xx_HAL_Driver/Src/stm32f4xx_hal_pcd.c ****   * @{
  79:Drivers/STM32F4xx_HAL_Driver/Src/stm32f4xx_hal_pcd.c ****   */
  80:Drivers/STM32F4xx_HAL_Driver/Src/stm32f4xx_hal_pcd.c **** #define PCD_MIN(a, b)  (((a) < (b)) ? (a) : (b))
  81:Drivers/STM32F4xx_HAL_Driver/Src/stm32f4xx_hal_pcd.c **** #define PCD_MAX(a, b)  (((a) > (b)) ? (a) : (b))
  82:Drivers/STM32F4xx_HAL_Driver/Src/stm32f4xx_hal_pcd.c **** /**
  83:Drivers/STM32F4xx_HAL_Driver/Src/stm32f4xx_hal_pcd.c ****   * @}
  84:Drivers/STM32F4xx_HAL_Driver/Src/stm32f4xx_hal_pcd.c ****   */
  85:Drivers/STM32F4xx_HAL_Driver/Src/stm32f4xx_hal_pcd.c **** 
  86:Drivers/STM32F4xx_HAL_Driver/Src/stm32f4xx_hal_pcd.c **** /* Private functions prototypes ----------------------------------------------*/
  87:Drivers/STM32F4xx_HAL_Driver/Src/stm32f4xx_hal_pcd.c **** /** @defgroup PCD_Private_Functions PCD Private Functions
  88:Drivers/STM32F4xx_HAL_Driver/Src/stm32f4xx_hal_pcd.c ****   * @{
ARM GAS  /var/folders/vq/qt4vp3kd5rxf7v2b6_fdtdt80000gn/T//cc6xBrdC.s 			page 3


  89:Drivers/STM32F4xx_HAL_Driver/Src/stm32f4xx_hal_pcd.c ****   */
  90:Drivers/STM32F4xx_HAL_Driver/Src/stm32f4xx_hal_pcd.c **** #if defined (USB_OTG_FS) || defined (USB_OTG_HS)
  91:Drivers/STM32F4xx_HAL_Driver/Src/stm32f4xx_hal_pcd.c **** static HAL_StatusTypeDef PCD_WriteEmptyTxFifo(PCD_HandleTypeDef *hpcd, uint32_t epnum);
  92:Drivers/STM32F4xx_HAL_Driver/Src/stm32f4xx_hal_pcd.c **** static HAL_StatusTypeDef PCD_EP_OutXfrComplete_int(PCD_HandleTypeDef *hpcd, uint32_t epnum);
  93:Drivers/STM32F4xx_HAL_Driver/Src/stm32f4xx_hal_pcd.c **** static HAL_StatusTypeDef PCD_EP_OutSetupPacket_int(PCD_HandleTypeDef *hpcd, uint32_t epnum);
  94:Drivers/STM32F4xx_HAL_Driver/Src/stm32f4xx_hal_pcd.c **** #endif /* defined (USB_OTG_FS) || defined (USB_OTG_HS) */
  95:Drivers/STM32F4xx_HAL_Driver/Src/stm32f4xx_hal_pcd.c **** /**
  96:Drivers/STM32F4xx_HAL_Driver/Src/stm32f4xx_hal_pcd.c ****   * @}
  97:Drivers/STM32F4xx_HAL_Driver/Src/stm32f4xx_hal_pcd.c ****   */
  98:Drivers/STM32F4xx_HAL_Driver/Src/stm32f4xx_hal_pcd.c **** 
  99:Drivers/STM32F4xx_HAL_Driver/Src/stm32f4xx_hal_pcd.c **** /* Exported functions --------------------------------------------------------*/
 100:Drivers/STM32F4xx_HAL_Driver/Src/stm32f4xx_hal_pcd.c **** /** @defgroup PCD_Exported_Functions PCD Exported Functions
 101:Drivers/STM32F4xx_HAL_Driver/Src/stm32f4xx_hal_pcd.c ****   * @{
 102:Drivers/STM32F4xx_HAL_Driver/Src/stm32f4xx_hal_pcd.c ****   */
 103:Drivers/STM32F4xx_HAL_Driver/Src/stm32f4xx_hal_pcd.c **** 
 104:Drivers/STM32F4xx_HAL_Driver/Src/stm32f4xx_hal_pcd.c **** /** @defgroup PCD_Exported_Functions_Group1 Initialization and de-initialization functions
 105:Drivers/STM32F4xx_HAL_Driver/Src/stm32f4xx_hal_pcd.c ****   *  @brief    Initialization and Configuration functions
 106:Drivers/STM32F4xx_HAL_Driver/Src/stm32f4xx_hal_pcd.c ****   *
 107:Drivers/STM32F4xx_HAL_Driver/Src/stm32f4xx_hal_pcd.c **** @verbatim
 108:Drivers/STM32F4xx_HAL_Driver/Src/stm32f4xx_hal_pcd.c ****  ===============================================================================
 109:Drivers/STM32F4xx_HAL_Driver/Src/stm32f4xx_hal_pcd.c ****             ##### Initialization and de-initialization functions #####
 110:Drivers/STM32F4xx_HAL_Driver/Src/stm32f4xx_hal_pcd.c ****  ===============================================================================
 111:Drivers/STM32F4xx_HAL_Driver/Src/stm32f4xx_hal_pcd.c ****     [..]  This section provides functions allowing to:
 112:Drivers/STM32F4xx_HAL_Driver/Src/stm32f4xx_hal_pcd.c **** 
 113:Drivers/STM32F4xx_HAL_Driver/Src/stm32f4xx_hal_pcd.c **** @endverbatim
 114:Drivers/STM32F4xx_HAL_Driver/Src/stm32f4xx_hal_pcd.c ****   * @{
 115:Drivers/STM32F4xx_HAL_Driver/Src/stm32f4xx_hal_pcd.c ****   */
 116:Drivers/STM32F4xx_HAL_Driver/Src/stm32f4xx_hal_pcd.c **** 
 117:Drivers/STM32F4xx_HAL_Driver/Src/stm32f4xx_hal_pcd.c **** /**
 118:Drivers/STM32F4xx_HAL_Driver/Src/stm32f4xx_hal_pcd.c ****   * @brief  Initializes the PCD according to the specified
 119:Drivers/STM32F4xx_HAL_Driver/Src/stm32f4xx_hal_pcd.c ****   *         parameters in the PCD_InitTypeDef and initialize the associated handle.
 120:Drivers/STM32F4xx_HAL_Driver/Src/stm32f4xx_hal_pcd.c ****   * @param  hpcd PCD handle
 121:Drivers/STM32F4xx_HAL_Driver/Src/stm32f4xx_hal_pcd.c ****   * @retval HAL status
 122:Drivers/STM32F4xx_HAL_Driver/Src/stm32f4xx_hal_pcd.c ****   */
 123:Drivers/STM32F4xx_HAL_Driver/Src/stm32f4xx_hal_pcd.c **** HAL_StatusTypeDef HAL_PCD_Init(PCD_HandleTypeDef *hpcd)
 124:Drivers/STM32F4xx_HAL_Driver/Src/stm32f4xx_hal_pcd.c **** {
  28              		.loc 1 124 1
  29              		.cfi_startproc
  30              		@ args = 0, pretend = 0, frame = 16
  31              		@ frame_needed = 1, uses_anonymous_args = 0
  32 0000 F0B5     		push	{r4, r5, r6, r7, lr}
  33              	.LCFI0:
  34              		.cfi_def_cfa_offset 20
  35              		.cfi_offset 4, -20
  36              		.cfi_offset 5, -16
  37              		.cfi_offset 6, -12
  38              		.cfi_offset 7, -8
  39              		.cfi_offset 14, -4
  40 0002 8FB0     		sub	sp, sp, #60
  41              	.LCFI1:
  42              		.cfi_def_cfa_offset 80
  43 0004 0AAF     		add	r7, sp, #40
  44              	.LCFI2:
  45              		.cfi_def_cfa 7, 40
  46 0006 7860     		str	r0, [r7, #4]
 125:Drivers/STM32F4xx_HAL_Driver/Src/stm32f4xx_hal_pcd.c ****   USB_OTG_GlobalTypeDef *USBx;
 126:Drivers/STM32F4xx_HAL_Driver/Src/stm32f4xx_hal_pcd.c ****   uint8_t i;
ARM GAS  /var/folders/vq/qt4vp3kd5rxf7v2b6_fdtdt80000gn/T//cc6xBrdC.s 			page 4


 127:Drivers/STM32F4xx_HAL_Driver/Src/stm32f4xx_hal_pcd.c **** 
 128:Drivers/STM32F4xx_HAL_Driver/Src/stm32f4xx_hal_pcd.c ****   /* Check the PCD handle allocation */
 129:Drivers/STM32F4xx_HAL_Driver/Src/stm32f4xx_hal_pcd.c ****   if (hpcd == NULL)
  47              		.loc 1 129 6
  48 0008 7B68     		ldr	r3, [r7, #4]
  49 000a 002B     		cmp	r3, #0
  50 000c 01D1     		bne	.L2
 130:Drivers/STM32F4xx_HAL_Driver/Src/stm32f4xx_hal_pcd.c ****   {
 131:Drivers/STM32F4xx_HAL_Driver/Src/stm32f4xx_hal_pcd.c ****     return HAL_ERROR;
  51              		.loc 1 131 12
  52 000e 0123     		movs	r3, #1
  53 0010 0FE1     		b	.L3
  54              	.L2:
 132:Drivers/STM32F4xx_HAL_Driver/Src/stm32f4xx_hal_pcd.c ****   }
 133:Drivers/STM32F4xx_HAL_Driver/Src/stm32f4xx_hal_pcd.c **** 
 134:Drivers/STM32F4xx_HAL_Driver/Src/stm32f4xx_hal_pcd.c ****   /* Check the parameters */
 135:Drivers/STM32F4xx_HAL_Driver/Src/stm32f4xx_hal_pcd.c ****   assert_param(IS_PCD_ALL_INSTANCE(hpcd->Instance));
 136:Drivers/STM32F4xx_HAL_Driver/Src/stm32f4xx_hal_pcd.c **** 
 137:Drivers/STM32F4xx_HAL_Driver/Src/stm32f4xx_hal_pcd.c ****   USBx = hpcd->Instance;
  55              		.loc 1 137 8
  56 0012 7B68     		ldr	r3, [r7, #4]
  57 0014 1B68     		ldr	r3, [r3]
  58 0016 BB60     		str	r3, [r7, #8]
 138:Drivers/STM32F4xx_HAL_Driver/Src/stm32f4xx_hal_pcd.c **** 
 139:Drivers/STM32F4xx_HAL_Driver/Src/stm32f4xx_hal_pcd.c ****   if (hpcd->State == HAL_PCD_STATE_RESET)
  59              		.loc 1 139 11
  60 0018 7B68     		ldr	r3, [r7, #4]
  61 001a 93F8BD33 		ldrb	r3, [r3, #957]
  62 001e DBB2     		uxtb	r3, r3
  63              		.loc 1 139 6
  64 0020 002B     		cmp	r3, #0
  65 0022 06D1     		bne	.L4
 140:Drivers/STM32F4xx_HAL_Driver/Src/stm32f4xx_hal_pcd.c ****   {
 141:Drivers/STM32F4xx_HAL_Driver/Src/stm32f4xx_hal_pcd.c ****     /* Allocate lock resource and initialize it */
 142:Drivers/STM32F4xx_HAL_Driver/Src/stm32f4xx_hal_pcd.c ****     hpcd->Lock = HAL_UNLOCKED;
  66              		.loc 1 142 16
  67 0024 7B68     		ldr	r3, [r7, #4]
  68 0026 0022     		movs	r2, #0
  69 0028 83F8BC23 		strb	r2, [r3, #956]
 143:Drivers/STM32F4xx_HAL_Driver/Src/stm32f4xx_hal_pcd.c **** 
 144:Drivers/STM32F4xx_HAL_Driver/Src/stm32f4xx_hal_pcd.c **** #if (USE_HAL_PCD_REGISTER_CALLBACKS == 1U)
 145:Drivers/STM32F4xx_HAL_Driver/Src/stm32f4xx_hal_pcd.c ****     hpcd->SOFCallback = HAL_PCD_SOFCallback;
 146:Drivers/STM32F4xx_HAL_Driver/Src/stm32f4xx_hal_pcd.c ****     hpcd->SetupStageCallback = HAL_PCD_SetupStageCallback;
 147:Drivers/STM32F4xx_HAL_Driver/Src/stm32f4xx_hal_pcd.c ****     hpcd->ResetCallback = HAL_PCD_ResetCallback;
 148:Drivers/STM32F4xx_HAL_Driver/Src/stm32f4xx_hal_pcd.c ****     hpcd->SuspendCallback = HAL_PCD_SuspendCallback;
 149:Drivers/STM32F4xx_HAL_Driver/Src/stm32f4xx_hal_pcd.c ****     hpcd->ResumeCallback = HAL_PCD_ResumeCallback;
 150:Drivers/STM32F4xx_HAL_Driver/Src/stm32f4xx_hal_pcd.c ****     hpcd->ConnectCallback = HAL_PCD_ConnectCallback;
 151:Drivers/STM32F4xx_HAL_Driver/Src/stm32f4xx_hal_pcd.c ****     hpcd->DisconnectCallback = HAL_PCD_DisconnectCallback;
 152:Drivers/STM32F4xx_HAL_Driver/Src/stm32f4xx_hal_pcd.c ****     hpcd->DataOutStageCallback = HAL_PCD_DataOutStageCallback;
 153:Drivers/STM32F4xx_HAL_Driver/Src/stm32f4xx_hal_pcd.c ****     hpcd->DataInStageCallback = HAL_PCD_DataInStageCallback;
 154:Drivers/STM32F4xx_HAL_Driver/Src/stm32f4xx_hal_pcd.c ****     hpcd->ISOOUTIncompleteCallback = HAL_PCD_ISOOUTIncompleteCallback;
 155:Drivers/STM32F4xx_HAL_Driver/Src/stm32f4xx_hal_pcd.c ****     hpcd->ISOINIncompleteCallback = HAL_PCD_ISOINIncompleteCallback;
 156:Drivers/STM32F4xx_HAL_Driver/Src/stm32f4xx_hal_pcd.c ****     hpcd->LPMCallback = HAL_PCDEx_LPM_Callback;
 157:Drivers/STM32F4xx_HAL_Driver/Src/stm32f4xx_hal_pcd.c ****     hpcd->BCDCallback = HAL_PCDEx_BCD_Callback;
 158:Drivers/STM32F4xx_HAL_Driver/Src/stm32f4xx_hal_pcd.c **** 
 159:Drivers/STM32F4xx_HAL_Driver/Src/stm32f4xx_hal_pcd.c ****     if (hpcd->MspInitCallback == NULL)
 160:Drivers/STM32F4xx_HAL_Driver/Src/stm32f4xx_hal_pcd.c ****     {
ARM GAS  /var/folders/vq/qt4vp3kd5rxf7v2b6_fdtdt80000gn/T//cc6xBrdC.s 			page 5


 161:Drivers/STM32F4xx_HAL_Driver/Src/stm32f4xx_hal_pcd.c ****       hpcd->MspInitCallback = HAL_PCD_MspInit;
 162:Drivers/STM32F4xx_HAL_Driver/Src/stm32f4xx_hal_pcd.c ****     }
 163:Drivers/STM32F4xx_HAL_Driver/Src/stm32f4xx_hal_pcd.c **** 
 164:Drivers/STM32F4xx_HAL_Driver/Src/stm32f4xx_hal_pcd.c ****     /* Init the low level hardware */
 165:Drivers/STM32F4xx_HAL_Driver/Src/stm32f4xx_hal_pcd.c ****     hpcd->MspInitCallback(hpcd);
 166:Drivers/STM32F4xx_HAL_Driver/Src/stm32f4xx_hal_pcd.c **** #else
 167:Drivers/STM32F4xx_HAL_Driver/Src/stm32f4xx_hal_pcd.c ****     /* Init the low level hardware : GPIO, CLOCK, NVIC... */
 168:Drivers/STM32F4xx_HAL_Driver/Src/stm32f4xx_hal_pcd.c ****     HAL_PCD_MspInit(hpcd);
  70              		.loc 1 168 5
  71 002c 7868     		ldr	r0, [r7, #4]
  72 002e FFF7FEFF 		bl	HAL_PCD_MspInit
  73              	.L4:
 169:Drivers/STM32F4xx_HAL_Driver/Src/stm32f4xx_hal_pcd.c **** #endif /* (USE_HAL_PCD_REGISTER_CALLBACKS) */
 170:Drivers/STM32F4xx_HAL_Driver/Src/stm32f4xx_hal_pcd.c ****   }
 171:Drivers/STM32F4xx_HAL_Driver/Src/stm32f4xx_hal_pcd.c **** 
 172:Drivers/STM32F4xx_HAL_Driver/Src/stm32f4xx_hal_pcd.c ****   hpcd->State = HAL_PCD_STATE_BUSY;
  74              		.loc 1 172 15
  75 0032 7B68     		ldr	r3, [r7, #4]
  76 0034 0322     		movs	r2, #3
  77 0036 83F8BD23 		strb	r2, [r3, #957]
 173:Drivers/STM32F4xx_HAL_Driver/Src/stm32f4xx_hal_pcd.c **** 
 174:Drivers/STM32F4xx_HAL_Driver/Src/stm32f4xx_hal_pcd.c ****   /* Disable DMA mode for FS instance */
 175:Drivers/STM32F4xx_HAL_Driver/Src/stm32f4xx_hal_pcd.c ****   if ((USBx->CID & (0x1U << 8)) == 0U)
  78              		.loc 1 175 12
  79 003a BB68     		ldr	r3, [r7, #8]
  80 003c DB6B     		ldr	r3, [r3, #60]
  81              		.loc 1 175 18
  82 003e 03F48073 		and	r3, r3, #256
  83              		.loc 1 175 6
  84 0042 002B     		cmp	r3, #0
  85 0044 02D1     		bne	.L5
 176:Drivers/STM32F4xx_HAL_Driver/Src/stm32f4xx_hal_pcd.c ****   {
 177:Drivers/STM32F4xx_HAL_Driver/Src/stm32f4xx_hal_pcd.c ****     hpcd->Init.dma_enable = 0U;
  86              		.loc 1 177 27
  87 0046 7B68     		ldr	r3, [r7, #4]
  88 0048 0022     		movs	r2, #0
  89 004a 1A61     		str	r2, [r3, #16]
  90              	.L5:
 178:Drivers/STM32F4xx_HAL_Driver/Src/stm32f4xx_hal_pcd.c ****   }
 179:Drivers/STM32F4xx_HAL_Driver/Src/stm32f4xx_hal_pcd.c **** 
 180:Drivers/STM32F4xx_HAL_Driver/Src/stm32f4xx_hal_pcd.c ****   /* Disable the Interrupts */
 181:Drivers/STM32F4xx_HAL_Driver/Src/stm32f4xx_hal_pcd.c ****   __HAL_PCD_DISABLE(hpcd);
  91              		.loc 1 181 3
  92 004c 7B68     		ldr	r3, [r7, #4]
  93 004e 1B68     		ldr	r3, [r3]
  94 0050 1846     		mov	r0, r3
  95 0052 FFF7FEFF 		bl	USB_DisableGlobalInt
 182:Drivers/STM32F4xx_HAL_Driver/Src/stm32f4xx_hal_pcd.c **** 
 183:Drivers/STM32F4xx_HAL_Driver/Src/stm32f4xx_hal_pcd.c ****   /*Init the Core (common init.) */
 184:Drivers/STM32F4xx_HAL_Driver/Src/stm32f4xx_hal_pcd.c ****   if (USB_CoreInit(hpcd->Instance, hpcd->Init) != HAL_OK)
  96              		.loc 1 184 24
  97 0056 7B68     		ldr	r3, [r7, #4]
  98 0058 1B68     		ldr	r3, [r3]
  99 005a 3B60     		str	r3, [r7]
 100              		.loc 1 184 7
 101 005c 7E68     		ldr	r6, [r7, #4]
 102 005e 6D46     		mov	r5, sp
ARM GAS  /var/folders/vq/qt4vp3kd5rxf7v2b6_fdtdt80000gn/T//cc6xBrdC.s 			page 6


 103 0060 06F11004 		add	r4, r6, #16
 104 0064 0FCC     		ldmia	r4!, {r0, r1, r2, r3}
 105 0066 0FC5     		stmia	r5!, {r0, r1, r2, r3}
 106 0068 0FCC     		ldmia	r4!, {r0, r1, r2, r3}
 107 006a 0FC5     		stmia	r5!, {r0, r1, r2, r3}
 108 006c 94E80300 		ldm	r4, {r0, r1}
 109 0070 85E80300 		stm	r5, {r0, r1}
 110 0074 331D     		adds	r3, r6, #4
 111 0076 0ECB     		ldm	r3, {r1, r2, r3}
 112 0078 3868     		ldr	r0, [r7]
 113 007a FFF7FEFF 		bl	USB_CoreInit
 114 007e 0346     		mov	r3, r0
 115              		.loc 1 184 6
 116 0080 002B     		cmp	r3, #0
 117 0082 05D0     		beq	.L6
 185:Drivers/STM32F4xx_HAL_Driver/Src/stm32f4xx_hal_pcd.c ****   {
 186:Drivers/STM32F4xx_HAL_Driver/Src/stm32f4xx_hal_pcd.c ****     hpcd->State = HAL_PCD_STATE_ERROR;
 118              		.loc 1 186 17
 119 0084 7B68     		ldr	r3, [r7, #4]
 120 0086 0222     		movs	r2, #2
 121 0088 83F8BD23 		strb	r2, [r3, #957]
 187:Drivers/STM32F4xx_HAL_Driver/Src/stm32f4xx_hal_pcd.c ****     return HAL_ERROR;
 122              		.loc 1 187 12
 123 008c 0123     		movs	r3, #1
 124 008e D0E0     		b	.L3
 125              	.L6:
 188:Drivers/STM32F4xx_HAL_Driver/Src/stm32f4xx_hal_pcd.c ****   }
 189:Drivers/STM32F4xx_HAL_Driver/Src/stm32f4xx_hal_pcd.c **** 
 190:Drivers/STM32F4xx_HAL_Driver/Src/stm32f4xx_hal_pcd.c ****   /* Force Device Mode*/
 191:Drivers/STM32F4xx_HAL_Driver/Src/stm32f4xx_hal_pcd.c ****   (void)USB_SetCurrentMode(hpcd->Instance, USB_DEVICE_MODE);
 126              		.loc 1 191 32
 127 0090 7B68     		ldr	r3, [r7, #4]
 128 0092 1B68     		ldr	r3, [r3]
 129              		.loc 1 191 9
 130 0094 0021     		movs	r1, #0
 131 0096 1846     		mov	r0, r3
 132 0098 FFF7FEFF 		bl	USB_SetCurrentMode
 192:Drivers/STM32F4xx_HAL_Driver/Src/stm32f4xx_hal_pcd.c **** 
 193:Drivers/STM32F4xx_HAL_Driver/Src/stm32f4xx_hal_pcd.c ****   /* Init endpoints structures */
 194:Drivers/STM32F4xx_HAL_Driver/Src/stm32f4xx_hal_pcd.c ****   for (i = 0U; i < hpcd->Init.dev_endpoints; i++)
 133              		.loc 1 194 10
 134 009c 0023     		movs	r3, #0
 135 009e FB73     		strb	r3, [r7, #15]
 136              		.loc 1 194 3
 137 00a0 4AE0     		b	.L7
 138              	.L8:
 195:Drivers/STM32F4xx_HAL_Driver/Src/stm32f4xx_hal_pcd.c ****   {
 196:Drivers/STM32F4xx_HAL_Driver/Src/stm32f4xx_hal_pcd.c ****     /* Init ep structure */
 197:Drivers/STM32F4xx_HAL_Driver/Src/stm32f4xx_hal_pcd.c ****     hpcd->IN_ep[i].is_in = 1U;
 139              		.loc 1 197 19 discriminator 3
 140 00a2 FA7B     		ldrb	r2, [r7, #15]	@ zero_extendqisi2
 141              		.loc 1 197 26 discriminator 3
 142 00a4 7968     		ldr	r1, [r7, #4]
 143 00a6 1346     		mov	r3, r2
 144 00a8 DB00     		lsls	r3, r3, #3
 145 00aa 9B1A     		subs	r3, r3, r2
 146 00ac 9B00     		lsls	r3, r3, #2
ARM GAS  /var/folders/vq/qt4vp3kd5rxf7v2b6_fdtdt80000gn/T//cc6xBrdC.s 			page 7


 147 00ae 0B44     		add	r3, r3, r1
 148 00b0 3D33     		adds	r3, r3, #61
 149 00b2 0122     		movs	r2, #1
 150 00b4 1A70     		strb	r2, [r3]
 198:Drivers/STM32F4xx_HAL_Driver/Src/stm32f4xx_hal_pcd.c ****     hpcd->IN_ep[i].num = i;
 151              		.loc 1 198 19 discriminator 3
 152 00b6 FA7B     		ldrb	r2, [r7, #15]	@ zero_extendqisi2
 153              		.loc 1 198 24 discriminator 3
 154 00b8 7968     		ldr	r1, [r7, #4]
 155 00ba 1346     		mov	r3, r2
 156 00bc DB00     		lsls	r3, r3, #3
 157 00be 9B1A     		subs	r3, r3, r2
 158 00c0 9B00     		lsls	r3, r3, #2
 159 00c2 0B44     		add	r3, r3, r1
 160 00c4 3C33     		adds	r3, r3, #60
 161 00c6 FA7B     		ldrb	r2, [r7, #15]
 162 00c8 1A70     		strb	r2, [r3]
 199:Drivers/STM32F4xx_HAL_Driver/Src/stm32f4xx_hal_pcd.c ****     hpcd->IN_ep[i].tx_fifo_num = i;
 163              		.loc 1 199 19 discriminator 3
 164 00ca FA7B     		ldrb	r2, [r7, #15]	@ zero_extendqisi2
 165              		.loc 1 199 32 discriminator 3
 166 00cc FB7B     		ldrb	r3, [r7, #15]	@ zero_extendqisi2
 167 00ce 98B2     		uxth	r0, r3
 168 00d0 7968     		ldr	r1, [r7, #4]
 169 00d2 1346     		mov	r3, r2
 170 00d4 DB00     		lsls	r3, r3, #3
 171 00d6 9B1A     		subs	r3, r3, r2
 172 00d8 9B00     		lsls	r3, r3, #2
 173 00da 0B44     		add	r3, r3, r1
 174 00dc 4233     		adds	r3, r3, #66
 175 00de 0246     		mov	r2, r0	@ movhi
 176 00e0 1A80     		strh	r2, [r3]	@ movhi
 200:Drivers/STM32F4xx_HAL_Driver/Src/stm32f4xx_hal_pcd.c ****     /* Control until ep is activated */
 201:Drivers/STM32F4xx_HAL_Driver/Src/stm32f4xx_hal_pcd.c ****     hpcd->IN_ep[i].type = EP_TYPE_CTRL;
 177              		.loc 1 201 19 discriminator 3
 178 00e2 FA7B     		ldrb	r2, [r7, #15]	@ zero_extendqisi2
 179              		.loc 1 201 25 discriminator 3
 180 00e4 7968     		ldr	r1, [r7, #4]
 181 00e6 1346     		mov	r3, r2
 182 00e8 DB00     		lsls	r3, r3, #3
 183 00ea 9B1A     		subs	r3, r3, r2
 184 00ec 9B00     		lsls	r3, r3, #2
 185 00ee 0B44     		add	r3, r3, r1
 186 00f0 3F33     		adds	r3, r3, #63
 187 00f2 0022     		movs	r2, #0
 188 00f4 1A70     		strb	r2, [r3]
 202:Drivers/STM32F4xx_HAL_Driver/Src/stm32f4xx_hal_pcd.c ****     hpcd->IN_ep[i].maxpacket = 0U;
 189              		.loc 1 202 19 discriminator 3
 190 00f6 FA7B     		ldrb	r2, [r7, #15]	@ zero_extendqisi2
 191              		.loc 1 202 30 discriminator 3
 192 00f8 7968     		ldr	r1, [r7, #4]
 193 00fa 1346     		mov	r3, r2
 194 00fc DB00     		lsls	r3, r3, #3
 195 00fe 9B1A     		subs	r3, r3, r2
 196 0100 9B00     		lsls	r3, r3, #2
 197 0102 0B44     		add	r3, r3, r1
 198 0104 4433     		adds	r3, r3, #68
ARM GAS  /var/folders/vq/qt4vp3kd5rxf7v2b6_fdtdt80000gn/T//cc6xBrdC.s 			page 8


 199 0106 0022     		movs	r2, #0
 200 0108 1A60     		str	r2, [r3]
 203:Drivers/STM32F4xx_HAL_Driver/Src/stm32f4xx_hal_pcd.c ****     hpcd->IN_ep[i].xfer_buff = 0U;
 201              		.loc 1 203 19 discriminator 3
 202 010a FA7B     		ldrb	r2, [r7, #15]	@ zero_extendqisi2
 203              		.loc 1 203 30 discriminator 3
 204 010c 7968     		ldr	r1, [r7, #4]
 205 010e 1346     		mov	r3, r2
 206 0110 DB00     		lsls	r3, r3, #3
 207 0112 9B1A     		subs	r3, r3, r2
 208 0114 9B00     		lsls	r3, r3, #2
 209 0116 0B44     		add	r3, r3, r1
 210 0118 4833     		adds	r3, r3, #72
 211 011a 0022     		movs	r2, #0
 212 011c 1A60     		str	r2, [r3]
 204:Drivers/STM32F4xx_HAL_Driver/Src/stm32f4xx_hal_pcd.c ****     hpcd->IN_ep[i].xfer_len = 0U;
 213              		.loc 1 204 19 discriminator 3
 214 011e FA7B     		ldrb	r2, [r7, #15]	@ zero_extendqisi2
 215              		.loc 1 204 29 discriminator 3
 216 0120 7968     		ldr	r1, [r7, #4]
 217 0122 1346     		mov	r3, r2
 218 0124 DB00     		lsls	r3, r3, #3
 219 0126 9B1A     		subs	r3, r3, r2
 220 0128 9B00     		lsls	r3, r3, #2
 221 012a 0B44     		add	r3, r3, r1
 222 012c 5033     		adds	r3, r3, #80
 223 012e 0022     		movs	r2, #0
 224 0130 1A60     		str	r2, [r3]
 194:Drivers/STM32F4xx_HAL_Driver/Src/stm32f4xx_hal_pcd.c ****   {
 225              		.loc 1 194 47 discriminator 3
 226 0132 FB7B     		ldrb	r3, [r7, #15]	@ zero_extendqisi2
 227 0134 0133     		adds	r3, r3, #1
 228 0136 FB73     		strb	r3, [r7, #15]
 229              	.L7:
 194:Drivers/STM32F4xx_HAL_Driver/Src/stm32f4xx_hal_pcd.c ****   {
 230              		.loc 1 194 18 discriminator 1
 231 0138 FA7B     		ldrb	r2, [r7, #15]	@ zero_extendqisi2
 194:Drivers/STM32F4xx_HAL_Driver/Src/stm32f4xx_hal_pcd.c ****   {
 232              		.loc 1 194 30 discriminator 1
 233 013a 7B68     		ldr	r3, [r7, #4]
 234 013c 5B68     		ldr	r3, [r3, #4]
 194:Drivers/STM32F4xx_HAL_Driver/Src/stm32f4xx_hal_pcd.c ****   {
 235              		.loc 1 194 3 discriminator 1
 236 013e 9A42     		cmp	r2, r3
 237 0140 AFD3     		bcc	.L8
 205:Drivers/STM32F4xx_HAL_Driver/Src/stm32f4xx_hal_pcd.c ****   }
 206:Drivers/STM32F4xx_HAL_Driver/Src/stm32f4xx_hal_pcd.c **** 
 207:Drivers/STM32F4xx_HAL_Driver/Src/stm32f4xx_hal_pcd.c ****   for (i = 0U; i < hpcd->Init.dev_endpoints; i++)
 238              		.loc 1 207 10
 239 0142 0023     		movs	r3, #0
 240 0144 FB73     		strb	r3, [r7, #15]
 241              		.loc 1 207 3
 242 0146 44E0     		b	.L9
 243              	.L10:
 208:Drivers/STM32F4xx_HAL_Driver/Src/stm32f4xx_hal_pcd.c ****   {
 209:Drivers/STM32F4xx_HAL_Driver/Src/stm32f4xx_hal_pcd.c ****     hpcd->OUT_ep[i].is_in = 0U;
 244              		.loc 1 209 20 discriminator 3
ARM GAS  /var/folders/vq/qt4vp3kd5rxf7v2b6_fdtdt80000gn/T//cc6xBrdC.s 			page 9


 245 0148 FA7B     		ldrb	r2, [r7, #15]	@ zero_extendqisi2
 246              		.loc 1 209 27 discriminator 3
 247 014a 7968     		ldr	r1, [r7, #4]
 248 014c 1346     		mov	r3, r2
 249 014e DB00     		lsls	r3, r3, #3
 250 0150 9B1A     		subs	r3, r3, r2
 251 0152 9B00     		lsls	r3, r3, #2
 252 0154 0B44     		add	r3, r3, r1
 253 0156 03F2FD13 		addw	r3, r3, #509
 254 015a 0022     		movs	r2, #0
 255 015c 1A70     		strb	r2, [r3]
 210:Drivers/STM32F4xx_HAL_Driver/Src/stm32f4xx_hal_pcd.c ****     hpcd->OUT_ep[i].num = i;
 256              		.loc 1 210 20 discriminator 3
 257 015e FA7B     		ldrb	r2, [r7, #15]	@ zero_extendqisi2
 258              		.loc 1 210 25 discriminator 3
 259 0160 7968     		ldr	r1, [r7, #4]
 260 0162 1346     		mov	r3, r2
 261 0164 DB00     		lsls	r3, r3, #3
 262 0166 9B1A     		subs	r3, r3, r2
 263 0168 9B00     		lsls	r3, r3, #2
 264 016a 0B44     		add	r3, r3, r1
 265 016c 03F5FE73 		add	r3, r3, #508
 266 0170 FA7B     		ldrb	r2, [r7, #15]
 267 0172 1A70     		strb	r2, [r3]
 211:Drivers/STM32F4xx_HAL_Driver/Src/stm32f4xx_hal_pcd.c ****     /* Control until ep is activated */
 212:Drivers/STM32F4xx_HAL_Driver/Src/stm32f4xx_hal_pcd.c ****     hpcd->OUT_ep[i].type = EP_TYPE_CTRL;
 268              		.loc 1 212 20 discriminator 3
 269 0174 FA7B     		ldrb	r2, [r7, #15]	@ zero_extendqisi2
 270              		.loc 1 212 26 discriminator 3
 271 0176 7968     		ldr	r1, [r7, #4]
 272 0178 1346     		mov	r3, r2
 273 017a DB00     		lsls	r3, r3, #3
 274 017c 9B1A     		subs	r3, r3, r2
 275 017e 9B00     		lsls	r3, r3, #2
 276 0180 0B44     		add	r3, r3, r1
 277 0182 03F2FF13 		addw	r3, r3, #511
 278 0186 0022     		movs	r2, #0
 279 0188 1A70     		strb	r2, [r3]
 213:Drivers/STM32F4xx_HAL_Driver/Src/stm32f4xx_hal_pcd.c ****     hpcd->OUT_ep[i].maxpacket = 0U;
 280              		.loc 1 213 20 discriminator 3
 281 018a FA7B     		ldrb	r2, [r7, #15]	@ zero_extendqisi2
 282              		.loc 1 213 31 discriminator 3
 283 018c 7968     		ldr	r1, [r7, #4]
 284 018e 1346     		mov	r3, r2
 285 0190 DB00     		lsls	r3, r3, #3
 286 0192 9B1A     		subs	r3, r3, r2
 287 0194 9B00     		lsls	r3, r3, #2
 288 0196 0B44     		add	r3, r3, r1
 289 0198 03F50173 		add	r3, r3, #516
 290 019c 0022     		movs	r2, #0
 291 019e 1A60     		str	r2, [r3]
 214:Drivers/STM32F4xx_HAL_Driver/Src/stm32f4xx_hal_pcd.c ****     hpcd->OUT_ep[i].xfer_buff = 0U;
 292              		.loc 1 214 20 discriminator 3
 293 01a0 FA7B     		ldrb	r2, [r7, #15]	@ zero_extendqisi2
 294              		.loc 1 214 31 discriminator 3
 295 01a2 7968     		ldr	r1, [r7, #4]
 296 01a4 1346     		mov	r3, r2
ARM GAS  /var/folders/vq/qt4vp3kd5rxf7v2b6_fdtdt80000gn/T//cc6xBrdC.s 			page 10


 297 01a6 DB00     		lsls	r3, r3, #3
 298 01a8 9B1A     		subs	r3, r3, r2
 299 01aa 9B00     		lsls	r3, r3, #2
 300 01ac 0B44     		add	r3, r3, r1
 301 01ae 03F50273 		add	r3, r3, #520
 302 01b2 0022     		movs	r2, #0
 303 01b4 1A60     		str	r2, [r3]
 215:Drivers/STM32F4xx_HAL_Driver/Src/stm32f4xx_hal_pcd.c ****     hpcd->OUT_ep[i].xfer_len = 0U;
 304              		.loc 1 215 20 discriminator 3
 305 01b6 FA7B     		ldrb	r2, [r7, #15]	@ zero_extendqisi2
 306              		.loc 1 215 30 discriminator 3
 307 01b8 7968     		ldr	r1, [r7, #4]
 308 01ba 1346     		mov	r3, r2
 309 01bc DB00     		lsls	r3, r3, #3
 310 01be 9B1A     		subs	r3, r3, r2
 311 01c0 9B00     		lsls	r3, r3, #2
 312 01c2 0B44     		add	r3, r3, r1
 313 01c4 03F50473 		add	r3, r3, #528
 314 01c8 0022     		movs	r2, #0
 315 01ca 1A60     		str	r2, [r3]
 207:Drivers/STM32F4xx_HAL_Driver/Src/stm32f4xx_hal_pcd.c ****   {
 316              		.loc 1 207 47 discriminator 3
 317 01cc FB7B     		ldrb	r3, [r7, #15]	@ zero_extendqisi2
 318 01ce 0133     		adds	r3, r3, #1
 319 01d0 FB73     		strb	r3, [r7, #15]
 320              	.L9:
 207:Drivers/STM32F4xx_HAL_Driver/Src/stm32f4xx_hal_pcd.c ****   {
 321              		.loc 1 207 18 discriminator 1
 322 01d2 FA7B     		ldrb	r2, [r7, #15]	@ zero_extendqisi2
 207:Drivers/STM32F4xx_HAL_Driver/Src/stm32f4xx_hal_pcd.c ****   {
 323              		.loc 1 207 30 discriminator 1
 324 01d4 7B68     		ldr	r3, [r7, #4]
 325 01d6 5B68     		ldr	r3, [r3, #4]
 207:Drivers/STM32F4xx_HAL_Driver/Src/stm32f4xx_hal_pcd.c ****   {
 326              		.loc 1 207 3 discriminator 1
 327 01d8 9A42     		cmp	r2, r3
 328 01da B5D3     		bcc	.L10
 216:Drivers/STM32F4xx_HAL_Driver/Src/stm32f4xx_hal_pcd.c ****   }
 217:Drivers/STM32F4xx_HAL_Driver/Src/stm32f4xx_hal_pcd.c **** 
 218:Drivers/STM32F4xx_HAL_Driver/Src/stm32f4xx_hal_pcd.c ****   /* Init Device */
 219:Drivers/STM32F4xx_HAL_Driver/Src/stm32f4xx_hal_pcd.c ****   if (USB_DevInit(hpcd->Instance, hpcd->Init) != HAL_OK)
 329              		.loc 1 219 23
 330 01dc 7B68     		ldr	r3, [r7, #4]
 331 01de 1B68     		ldr	r3, [r3]
 332 01e0 3B60     		str	r3, [r7]
 333              		.loc 1 219 7
 334 01e2 7E68     		ldr	r6, [r7, #4]
 335 01e4 6D46     		mov	r5, sp
 336 01e6 06F11004 		add	r4, r6, #16
 337 01ea 0FCC     		ldmia	r4!, {r0, r1, r2, r3}
 338 01ec 0FC5     		stmia	r5!, {r0, r1, r2, r3}
 339 01ee 0FCC     		ldmia	r4!, {r0, r1, r2, r3}
 340 01f0 0FC5     		stmia	r5!, {r0, r1, r2, r3}
 341 01f2 94E80300 		ldm	r4, {r0, r1}
 342 01f6 85E80300 		stm	r5, {r0, r1}
 343 01fa 331D     		adds	r3, r6, #4
 344 01fc 0ECB     		ldm	r3, {r1, r2, r3}
ARM GAS  /var/folders/vq/qt4vp3kd5rxf7v2b6_fdtdt80000gn/T//cc6xBrdC.s 			page 11


 345 01fe 3868     		ldr	r0, [r7]
 346 0200 FFF7FEFF 		bl	USB_DevInit
 347 0204 0346     		mov	r3, r0
 348              		.loc 1 219 6
 349 0206 002B     		cmp	r3, #0
 350 0208 05D0     		beq	.L11
 220:Drivers/STM32F4xx_HAL_Driver/Src/stm32f4xx_hal_pcd.c ****   {
 221:Drivers/STM32F4xx_HAL_Driver/Src/stm32f4xx_hal_pcd.c ****     hpcd->State = HAL_PCD_STATE_ERROR;
 351              		.loc 1 221 17
 352 020a 7B68     		ldr	r3, [r7, #4]
 353 020c 0222     		movs	r2, #2
 354 020e 83F8BD23 		strb	r2, [r3, #957]
 222:Drivers/STM32F4xx_HAL_Driver/Src/stm32f4xx_hal_pcd.c ****     return HAL_ERROR;
 355              		.loc 1 222 12
 356 0212 0123     		movs	r3, #1
 357 0214 0DE0     		b	.L3
 358              	.L11:
 223:Drivers/STM32F4xx_HAL_Driver/Src/stm32f4xx_hal_pcd.c ****   }
 224:Drivers/STM32F4xx_HAL_Driver/Src/stm32f4xx_hal_pcd.c **** 
 225:Drivers/STM32F4xx_HAL_Driver/Src/stm32f4xx_hal_pcd.c ****   hpcd->USB_Address = 0U;
 359              		.loc 1 225 21
 360 0216 7B68     		ldr	r3, [r7, #4]
 361 0218 0022     		movs	r2, #0
 362 021a 83F83820 		strb	r2, [r3, #56]
 226:Drivers/STM32F4xx_HAL_Driver/Src/stm32f4xx_hal_pcd.c ****   hpcd->State = HAL_PCD_STATE_READY;
 363              		.loc 1 226 15
 364 021e 7B68     		ldr	r3, [r7, #4]
 365 0220 0122     		movs	r2, #1
 366 0222 83F8BD23 		strb	r2, [r3, #957]
 227:Drivers/STM32F4xx_HAL_Driver/Src/stm32f4xx_hal_pcd.c ****   #if defined(STM32F446xx) || defined(STM32F469xx) || defined(STM32F479xx) || defined(STM32F412Zx) 
 228:Drivers/STM32F4xx_HAL_Driver/Src/stm32f4xx_hal_pcd.c ****   /* Activate LPM */
 229:Drivers/STM32F4xx_HAL_Driver/Src/stm32f4xx_hal_pcd.c ****   if (hpcd->Init.lpm_enable == 1U)
 230:Drivers/STM32F4xx_HAL_Driver/Src/stm32f4xx_hal_pcd.c ****   {
 231:Drivers/STM32F4xx_HAL_Driver/Src/stm32f4xx_hal_pcd.c ****     (void)HAL_PCDEx_ActivateLPM(hpcd);
 232:Drivers/STM32F4xx_HAL_Driver/Src/stm32f4xx_hal_pcd.c ****   }
 233:Drivers/STM32F4xx_HAL_Driver/Src/stm32f4xx_hal_pcd.c **** #endif /* defined(STM32F446xx) || defined(STM32F469xx) || defined(STM32F479xx) || defined(STM32F412
 234:Drivers/STM32F4xx_HAL_Driver/Src/stm32f4xx_hal_pcd.c ****   (void)USB_DevDisconnect(hpcd->Instance);
 367              		.loc 1 234 31
 368 0226 7B68     		ldr	r3, [r7, #4]
 369 0228 1B68     		ldr	r3, [r3]
 370              		.loc 1 234 9
 371 022a 1846     		mov	r0, r3
 372 022c FFF7FEFF 		bl	USB_DevDisconnect
 235:Drivers/STM32F4xx_HAL_Driver/Src/stm32f4xx_hal_pcd.c **** 
 236:Drivers/STM32F4xx_HAL_Driver/Src/stm32f4xx_hal_pcd.c ****   return HAL_OK;
 373              		.loc 1 236 10
 374 0230 0023     		movs	r3, #0
 375              	.L3:
 237:Drivers/STM32F4xx_HAL_Driver/Src/stm32f4xx_hal_pcd.c **** }
 376              		.loc 1 237 1
 377 0232 1846     		mov	r0, r3
 378 0234 1437     		adds	r7, r7, #20
 379              	.LCFI3:
 380              		.cfi_def_cfa_offset 20
 381 0236 BD46     		mov	sp, r7
 382              	.LCFI4:
 383              		.cfi_def_cfa_register 13
ARM GAS  /var/folders/vq/qt4vp3kd5rxf7v2b6_fdtdt80000gn/T//cc6xBrdC.s 			page 12


 384              		@ sp needed
 385 0238 F0BD     		pop	{r4, r5, r6, r7, pc}
 386              		.cfi_endproc
 387              	.LFE130:
 389              		.section	.text.HAL_PCD_DeInit,"ax",%progbits
 390              		.align	1
 391              		.global	HAL_PCD_DeInit
 392              		.syntax unified
 393              		.thumb
 394              		.thumb_func
 395              		.fpu fpv4-sp-d16
 397              	HAL_PCD_DeInit:
 398              	.LFB131:
 238:Drivers/STM32F4xx_HAL_Driver/Src/stm32f4xx_hal_pcd.c **** 
 239:Drivers/STM32F4xx_HAL_Driver/Src/stm32f4xx_hal_pcd.c **** /**
 240:Drivers/STM32F4xx_HAL_Driver/Src/stm32f4xx_hal_pcd.c ****   * @brief  DeInitializes the PCD peripheral.
 241:Drivers/STM32F4xx_HAL_Driver/Src/stm32f4xx_hal_pcd.c ****   * @param  hpcd PCD handle
 242:Drivers/STM32F4xx_HAL_Driver/Src/stm32f4xx_hal_pcd.c ****   * @retval HAL status
 243:Drivers/STM32F4xx_HAL_Driver/Src/stm32f4xx_hal_pcd.c ****   */
 244:Drivers/STM32F4xx_HAL_Driver/Src/stm32f4xx_hal_pcd.c **** HAL_StatusTypeDef HAL_PCD_DeInit(PCD_HandleTypeDef *hpcd)
 245:Drivers/STM32F4xx_HAL_Driver/Src/stm32f4xx_hal_pcd.c **** {
 399              		.loc 1 245 1
 400              		.cfi_startproc
 401              		@ args = 0, pretend = 0, frame = 8
 402              		@ frame_needed = 1, uses_anonymous_args = 0
 403 0000 80B5     		push	{r7, lr}
 404              	.LCFI5:
 405              		.cfi_def_cfa_offset 8
 406              		.cfi_offset 7, -8
 407              		.cfi_offset 14, -4
 408 0002 82B0     		sub	sp, sp, #8
 409              	.LCFI6:
 410              		.cfi_def_cfa_offset 16
 411 0004 00AF     		add	r7, sp, #0
 412              	.LCFI7:
 413              		.cfi_def_cfa_register 7
 414 0006 7860     		str	r0, [r7, #4]
 246:Drivers/STM32F4xx_HAL_Driver/Src/stm32f4xx_hal_pcd.c ****   /* Check the PCD handle allocation */
 247:Drivers/STM32F4xx_HAL_Driver/Src/stm32f4xx_hal_pcd.c ****   if (hpcd == NULL)
 415              		.loc 1 247 6
 416 0008 7B68     		ldr	r3, [r7, #4]
 417 000a 002B     		cmp	r3, #0
 418 000c 01D1     		bne	.L13
 248:Drivers/STM32F4xx_HAL_Driver/Src/stm32f4xx_hal_pcd.c ****   {
 249:Drivers/STM32F4xx_HAL_Driver/Src/stm32f4xx_hal_pcd.c ****     return HAL_ERROR;
 419              		.loc 1 249 12
 420 000e 0123     		movs	r3, #1
 421 0010 15E0     		b	.L14
 422              	.L13:
 250:Drivers/STM32F4xx_HAL_Driver/Src/stm32f4xx_hal_pcd.c ****   }
 251:Drivers/STM32F4xx_HAL_Driver/Src/stm32f4xx_hal_pcd.c **** 
 252:Drivers/STM32F4xx_HAL_Driver/Src/stm32f4xx_hal_pcd.c ****   hpcd->State = HAL_PCD_STATE_BUSY;
 423              		.loc 1 252 15
 424 0012 7B68     		ldr	r3, [r7, #4]
 425 0014 0322     		movs	r2, #3
 426 0016 83F8BD23 		strb	r2, [r3, #957]
 253:Drivers/STM32F4xx_HAL_Driver/Src/stm32f4xx_hal_pcd.c **** 
ARM GAS  /var/folders/vq/qt4vp3kd5rxf7v2b6_fdtdt80000gn/T//cc6xBrdC.s 			page 13


 254:Drivers/STM32F4xx_HAL_Driver/Src/stm32f4xx_hal_pcd.c ****   /* Stop Device */
 255:Drivers/STM32F4xx_HAL_Driver/Src/stm32f4xx_hal_pcd.c ****   if (USB_StopDevice(hpcd->Instance) != HAL_OK)
 427              		.loc 1 255 26
 428 001a 7B68     		ldr	r3, [r7, #4]
 429 001c 1B68     		ldr	r3, [r3]
 430              		.loc 1 255 7
 431 001e 1846     		mov	r0, r3
 432 0020 FFF7FEFF 		bl	USB_StopDevice
 433 0024 0346     		mov	r3, r0
 434              		.loc 1 255 6
 435 0026 002B     		cmp	r3, #0
 436 0028 01D0     		beq	.L15
 256:Drivers/STM32F4xx_HAL_Driver/Src/stm32f4xx_hal_pcd.c ****   {
 257:Drivers/STM32F4xx_HAL_Driver/Src/stm32f4xx_hal_pcd.c ****     return HAL_ERROR;
 437              		.loc 1 257 12
 438 002a 0123     		movs	r3, #1
 439 002c 07E0     		b	.L14
 440              	.L15:
 258:Drivers/STM32F4xx_HAL_Driver/Src/stm32f4xx_hal_pcd.c ****   }
 259:Drivers/STM32F4xx_HAL_Driver/Src/stm32f4xx_hal_pcd.c **** 
 260:Drivers/STM32F4xx_HAL_Driver/Src/stm32f4xx_hal_pcd.c **** #if (USE_HAL_PCD_REGISTER_CALLBACKS == 1U)
 261:Drivers/STM32F4xx_HAL_Driver/Src/stm32f4xx_hal_pcd.c ****   if (hpcd->MspDeInitCallback == NULL)
 262:Drivers/STM32F4xx_HAL_Driver/Src/stm32f4xx_hal_pcd.c ****   {
 263:Drivers/STM32F4xx_HAL_Driver/Src/stm32f4xx_hal_pcd.c ****     hpcd->MspDeInitCallback = HAL_PCD_MspDeInit; /* Legacy weak MspDeInit  */
 264:Drivers/STM32F4xx_HAL_Driver/Src/stm32f4xx_hal_pcd.c ****   }
 265:Drivers/STM32F4xx_HAL_Driver/Src/stm32f4xx_hal_pcd.c **** 
 266:Drivers/STM32F4xx_HAL_Driver/Src/stm32f4xx_hal_pcd.c ****   /* DeInit the low level hardware */
 267:Drivers/STM32F4xx_HAL_Driver/Src/stm32f4xx_hal_pcd.c ****   hpcd->MspDeInitCallback(hpcd);
 268:Drivers/STM32F4xx_HAL_Driver/Src/stm32f4xx_hal_pcd.c **** #else
 269:Drivers/STM32F4xx_HAL_Driver/Src/stm32f4xx_hal_pcd.c ****   /* DeInit the low level hardware: CLOCK, NVIC.*/
 270:Drivers/STM32F4xx_HAL_Driver/Src/stm32f4xx_hal_pcd.c ****   HAL_PCD_MspDeInit(hpcd);
 441              		.loc 1 270 3
 442 002e 7868     		ldr	r0, [r7, #4]
 443 0030 FFF7FEFF 		bl	HAL_PCD_MspDeInit
 271:Drivers/STM32F4xx_HAL_Driver/Src/stm32f4xx_hal_pcd.c **** #endif /* USE_HAL_PCD_REGISTER_CALLBACKS */
 272:Drivers/STM32F4xx_HAL_Driver/Src/stm32f4xx_hal_pcd.c **** 
 273:Drivers/STM32F4xx_HAL_Driver/Src/stm32f4xx_hal_pcd.c ****   hpcd->State = HAL_PCD_STATE_RESET;
 444              		.loc 1 273 15
 445 0034 7B68     		ldr	r3, [r7, #4]
 446 0036 0022     		movs	r2, #0
 447 0038 83F8BD23 		strb	r2, [r3, #957]
 274:Drivers/STM32F4xx_HAL_Driver/Src/stm32f4xx_hal_pcd.c **** 
 275:Drivers/STM32F4xx_HAL_Driver/Src/stm32f4xx_hal_pcd.c ****   return HAL_OK;
 448              		.loc 1 275 10
 449 003c 0023     		movs	r3, #0
 450              	.L14:
 276:Drivers/STM32F4xx_HAL_Driver/Src/stm32f4xx_hal_pcd.c **** }
 451              		.loc 1 276 1
 452 003e 1846     		mov	r0, r3
 453 0040 0837     		adds	r7, r7, #8
 454              	.LCFI8:
 455              		.cfi_def_cfa_offset 8
 456 0042 BD46     		mov	sp, r7
 457              	.LCFI9:
 458              		.cfi_def_cfa_register 13
 459              		@ sp needed
 460 0044 80BD     		pop	{r7, pc}
ARM GAS  /var/folders/vq/qt4vp3kd5rxf7v2b6_fdtdt80000gn/T//cc6xBrdC.s 			page 14


 461              		.cfi_endproc
 462              	.LFE131:
 464              		.section	.text.HAL_PCD_MspInit,"ax",%progbits
 465              		.align	1
 466              		.weak	HAL_PCD_MspInit
 467              		.syntax unified
 468              		.thumb
 469              		.thumb_func
 470              		.fpu fpv4-sp-d16
 472              	HAL_PCD_MspInit:
 473              	.LFB132:
 277:Drivers/STM32F4xx_HAL_Driver/Src/stm32f4xx_hal_pcd.c **** 
 278:Drivers/STM32F4xx_HAL_Driver/Src/stm32f4xx_hal_pcd.c **** /**
 279:Drivers/STM32F4xx_HAL_Driver/Src/stm32f4xx_hal_pcd.c ****   * @brief  Initializes the PCD MSP.
 280:Drivers/STM32F4xx_HAL_Driver/Src/stm32f4xx_hal_pcd.c ****   * @param  hpcd PCD handle
 281:Drivers/STM32F4xx_HAL_Driver/Src/stm32f4xx_hal_pcd.c ****   * @retval None
 282:Drivers/STM32F4xx_HAL_Driver/Src/stm32f4xx_hal_pcd.c ****   */
 283:Drivers/STM32F4xx_HAL_Driver/Src/stm32f4xx_hal_pcd.c **** __weak void HAL_PCD_MspInit(PCD_HandleTypeDef *hpcd)
 284:Drivers/STM32F4xx_HAL_Driver/Src/stm32f4xx_hal_pcd.c **** {
 474              		.loc 1 284 1
 475              		.cfi_startproc
 476              		@ args = 0, pretend = 0, frame = 8
 477              		@ frame_needed = 1, uses_anonymous_args = 0
 478              		@ link register save eliminated.
 479 0000 80B4     		push	{r7}
 480              	.LCFI10:
 481              		.cfi_def_cfa_offset 4
 482              		.cfi_offset 7, -4
 483 0002 83B0     		sub	sp, sp, #12
 484              	.LCFI11:
 485              		.cfi_def_cfa_offset 16
 486 0004 00AF     		add	r7, sp, #0
 487              	.LCFI12:
 488              		.cfi_def_cfa_register 7
 489 0006 7860     		str	r0, [r7, #4]
 285:Drivers/STM32F4xx_HAL_Driver/Src/stm32f4xx_hal_pcd.c ****   /* Prevent unused argument(s) compilation warning */
 286:Drivers/STM32F4xx_HAL_Driver/Src/stm32f4xx_hal_pcd.c ****   UNUSED(hpcd);
 287:Drivers/STM32F4xx_HAL_Driver/Src/stm32f4xx_hal_pcd.c **** 
 288:Drivers/STM32F4xx_HAL_Driver/Src/stm32f4xx_hal_pcd.c ****   /* NOTE : This function should not be modified, when the callback is needed,
 289:Drivers/STM32F4xx_HAL_Driver/Src/stm32f4xx_hal_pcd.c ****             the HAL_PCD_MspInit could be implemented in the user file
 290:Drivers/STM32F4xx_HAL_Driver/Src/stm32f4xx_hal_pcd.c ****    */
 291:Drivers/STM32F4xx_HAL_Driver/Src/stm32f4xx_hal_pcd.c **** }
 490              		.loc 1 291 1
 491 0008 00BF     		nop
 492 000a 0C37     		adds	r7, r7, #12
 493              	.LCFI13:
 494              		.cfi_def_cfa_offset 4
 495 000c BD46     		mov	sp, r7
 496              	.LCFI14:
 497              		.cfi_def_cfa_register 13
 498              		@ sp needed
 499 000e 5DF8047B 		ldr	r7, [sp], #4
 500              	.LCFI15:
 501              		.cfi_restore 7
 502              		.cfi_def_cfa_offset 0
 503 0012 7047     		bx	lr
 504              		.cfi_endproc
ARM GAS  /var/folders/vq/qt4vp3kd5rxf7v2b6_fdtdt80000gn/T//cc6xBrdC.s 			page 15


 505              	.LFE132:
 507              		.section	.text.HAL_PCD_MspDeInit,"ax",%progbits
 508              		.align	1
 509              		.weak	HAL_PCD_MspDeInit
 510              		.syntax unified
 511              		.thumb
 512              		.thumb_func
 513              		.fpu fpv4-sp-d16
 515              	HAL_PCD_MspDeInit:
 516              	.LFB133:
 292:Drivers/STM32F4xx_HAL_Driver/Src/stm32f4xx_hal_pcd.c **** 
 293:Drivers/STM32F4xx_HAL_Driver/Src/stm32f4xx_hal_pcd.c **** /**
 294:Drivers/STM32F4xx_HAL_Driver/Src/stm32f4xx_hal_pcd.c ****   * @brief  DeInitializes PCD MSP.
 295:Drivers/STM32F4xx_HAL_Driver/Src/stm32f4xx_hal_pcd.c ****   * @param  hpcd PCD handle
 296:Drivers/STM32F4xx_HAL_Driver/Src/stm32f4xx_hal_pcd.c ****   * @retval None
 297:Drivers/STM32F4xx_HAL_Driver/Src/stm32f4xx_hal_pcd.c ****   */
 298:Drivers/STM32F4xx_HAL_Driver/Src/stm32f4xx_hal_pcd.c **** __weak void HAL_PCD_MspDeInit(PCD_HandleTypeDef *hpcd)
 299:Drivers/STM32F4xx_HAL_Driver/Src/stm32f4xx_hal_pcd.c **** {
 517              		.loc 1 299 1
 518              		.cfi_startproc
 519              		@ args = 0, pretend = 0, frame = 8
 520              		@ frame_needed = 1, uses_anonymous_args = 0
 521              		@ link register save eliminated.
 522 0000 80B4     		push	{r7}
 523              	.LCFI16:
 524              		.cfi_def_cfa_offset 4
 525              		.cfi_offset 7, -4
 526 0002 83B0     		sub	sp, sp, #12
 527              	.LCFI17:
 528              		.cfi_def_cfa_offset 16
 529 0004 00AF     		add	r7, sp, #0
 530              	.LCFI18:
 531              		.cfi_def_cfa_register 7
 532 0006 7860     		str	r0, [r7, #4]
 300:Drivers/STM32F4xx_HAL_Driver/Src/stm32f4xx_hal_pcd.c ****   /* Prevent unused argument(s) compilation warning */
 301:Drivers/STM32F4xx_HAL_Driver/Src/stm32f4xx_hal_pcd.c ****   UNUSED(hpcd);
 302:Drivers/STM32F4xx_HAL_Driver/Src/stm32f4xx_hal_pcd.c **** 
 303:Drivers/STM32F4xx_HAL_Driver/Src/stm32f4xx_hal_pcd.c ****   /* NOTE : This function should not be modified, when the callback is needed,
 304:Drivers/STM32F4xx_HAL_Driver/Src/stm32f4xx_hal_pcd.c ****             the HAL_PCD_MspDeInit could be implemented in the user file
 305:Drivers/STM32F4xx_HAL_Driver/Src/stm32f4xx_hal_pcd.c ****    */
 306:Drivers/STM32F4xx_HAL_Driver/Src/stm32f4xx_hal_pcd.c **** }
 533              		.loc 1 306 1
 534 0008 00BF     		nop
 535 000a 0C37     		adds	r7, r7, #12
 536              	.LCFI19:
 537              		.cfi_def_cfa_offset 4
 538 000c BD46     		mov	sp, r7
 539              	.LCFI20:
 540              		.cfi_def_cfa_register 13
 541              		@ sp needed
 542 000e 5DF8047B 		ldr	r7, [sp], #4
 543              	.LCFI21:
 544              		.cfi_restore 7
 545              		.cfi_def_cfa_offset 0
 546 0012 7047     		bx	lr
 547              		.cfi_endproc
 548              	.LFE133:
ARM GAS  /var/folders/vq/qt4vp3kd5rxf7v2b6_fdtdt80000gn/T//cc6xBrdC.s 			page 16


 550              		.section	.text.HAL_PCD_Start,"ax",%progbits
 551              		.align	1
 552              		.global	HAL_PCD_Start
 553              		.syntax unified
 554              		.thumb
 555              		.thumb_func
 556              		.fpu fpv4-sp-d16
 558              	HAL_PCD_Start:
 559              	.LFB134:
 307:Drivers/STM32F4xx_HAL_Driver/Src/stm32f4xx_hal_pcd.c **** 
 308:Drivers/STM32F4xx_HAL_Driver/Src/stm32f4xx_hal_pcd.c **** #if (USE_HAL_PCD_REGISTER_CALLBACKS == 1U)
 309:Drivers/STM32F4xx_HAL_Driver/Src/stm32f4xx_hal_pcd.c **** /**
 310:Drivers/STM32F4xx_HAL_Driver/Src/stm32f4xx_hal_pcd.c ****   * @brief  Register a User USB PCD Callback
 311:Drivers/STM32F4xx_HAL_Driver/Src/stm32f4xx_hal_pcd.c ****   *         To be used instead of the weak predefined callback
 312:Drivers/STM32F4xx_HAL_Driver/Src/stm32f4xx_hal_pcd.c ****   * @param  hpcd USB PCD handle
 313:Drivers/STM32F4xx_HAL_Driver/Src/stm32f4xx_hal_pcd.c ****   * @param  CallbackID ID of the callback to be registered
 314:Drivers/STM32F4xx_HAL_Driver/Src/stm32f4xx_hal_pcd.c ****   *         This parameter can be one of the following values:
 315:Drivers/STM32F4xx_HAL_Driver/Src/stm32f4xx_hal_pcd.c ****   *          @arg @ref HAL_PCD_SOF_CB_ID USB PCD SOF callback ID
 316:Drivers/STM32F4xx_HAL_Driver/Src/stm32f4xx_hal_pcd.c ****   *          @arg @ref HAL_PCD_SETUPSTAGE_CB_ID USB PCD Setup callback ID
 317:Drivers/STM32F4xx_HAL_Driver/Src/stm32f4xx_hal_pcd.c ****   *          @arg @ref HAL_PCD_RESET_CB_ID USB PCD Reset callback ID
 318:Drivers/STM32F4xx_HAL_Driver/Src/stm32f4xx_hal_pcd.c ****   *          @arg @ref HAL_PCD_SUSPEND_CB_ID USB PCD Suspend callback ID
 319:Drivers/STM32F4xx_HAL_Driver/Src/stm32f4xx_hal_pcd.c ****   *          @arg @ref HAL_PCD_RESUME_CB_ID USB PCD Resume callback ID
 320:Drivers/STM32F4xx_HAL_Driver/Src/stm32f4xx_hal_pcd.c ****   *          @arg @ref HAL_PCD_CONNECT_CB_ID USB PCD Connect callback ID
 321:Drivers/STM32F4xx_HAL_Driver/Src/stm32f4xx_hal_pcd.c ****   *          @arg @ref HAL_PCD_DISCONNECT_CB_ID OTG PCD Disconnect callback ID
 322:Drivers/STM32F4xx_HAL_Driver/Src/stm32f4xx_hal_pcd.c ****   *          @arg @ref HAL_PCD_MSPINIT_CB_ID MspDeInit callback ID
 323:Drivers/STM32F4xx_HAL_Driver/Src/stm32f4xx_hal_pcd.c ****   *          @arg @ref HAL_PCD_MSPDEINIT_CB_ID MspDeInit callback ID
 324:Drivers/STM32F4xx_HAL_Driver/Src/stm32f4xx_hal_pcd.c ****   * @param  pCallback pointer to the Callback function
 325:Drivers/STM32F4xx_HAL_Driver/Src/stm32f4xx_hal_pcd.c ****   * @retval HAL status
 326:Drivers/STM32F4xx_HAL_Driver/Src/stm32f4xx_hal_pcd.c ****   */
 327:Drivers/STM32F4xx_HAL_Driver/Src/stm32f4xx_hal_pcd.c **** HAL_StatusTypeDef HAL_PCD_RegisterCallback(PCD_HandleTypeDef *hpcd,
 328:Drivers/STM32F4xx_HAL_Driver/Src/stm32f4xx_hal_pcd.c ****                                            HAL_PCD_CallbackIDTypeDef CallbackID,
 329:Drivers/STM32F4xx_HAL_Driver/Src/stm32f4xx_hal_pcd.c ****                                            pPCD_CallbackTypeDef pCallback)
 330:Drivers/STM32F4xx_HAL_Driver/Src/stm32f4xx_hal_pcd.c **** {
 331:Drivers/STM32F4xx_HAL_Driver/Src/stm32f4xx_hal_pcd.c ****   HAL_StatusTypeDef status = HAL_OK;
 332:Drivers/STM32F4xx_HAL_Driver/Src/stm32f4xx_hal_pcd.c **** 
 333:Drivers/STM32F4xx_HAL_Driver/Src/stm32f4xx_hal_pcd.c ****   if (pCallback == NULL)
 334:Drivers/STM32F4xx_HAL_Driver/Src/stm32f4xx_hal_pcd.c ****   {
 335:Drivers/STM32F4xx_HAL_Driver/Src/stm32f4xx_hal_pcd.c ****     /* Update the error code */
 336:Drivers/STM32F4xx_HAL_Driver/Src/stm32f4xx_hal_pcd.c ****     hpcd->ErrorCode |= HAL_PCD_ERROR_INVALID_CALLBACK;
 337:Drivers/STM32F4xx_HAL_Driver/Src/stm32f4xx_hal_pcd.c ****     return HAL_ERROR;
 338:Drivers/STM32F4xx_HAL_Driver/Src/stm32f4xx_hal_pcd.c ****   }
 339:Drivers/STM32F4xx_HAL_Driver/Src/stm32f4xx_hal_pcd.c ****   /* Process locked */
 340:Drivers/STM32F4xx_HAL_Driver/Src/stm32f4xx_hal_pcd.c ****   __HAL_LOCK(hpcd);
 341:Drivers/STM32F4xx_HAL_Driver/Src/stm32f4xx_hal_pcd.c **** 
 342:Drivers/STM32F4xx_HAL_Driver/Src/stm32f4xx_hal_pcd.c ****   if (hpcd->State == HAL_PCD_STATE_READY)
 343:Drivers/STM32F4xx_HAL_Driver/Src/stm32f4xx_hal_pcd.c ****   {
 344:Drivers/STM32F4xx_HAL_Driver/Src/stm32f4xx_hal_pcd.c ****     switch (CallbackID)
 345:Drivers/STM32F4xx_HAL_Driver/Src/stm32f4xx_hal_pcd.c ****     {
 346:Drivers/STM32F4xx_HAL_Driver/Src/stm32f4xx_hal_pcd.c ****       case HAL_PCD_SOF_CB_ID :
 347:Drivers/STM32F4xx_HAL_Driver/Src/stm32f4xx_hal_pcd.c ****         hpcd->SOFCallback = pCallback;
 348:Drivers/STM32F4xx_HAL_Driver/Src/stm32f4xx_hal_pcd.c ****         break;
 349:Drivers/STM32F4xx_HAL_Driver/Src/stm32f4xx_hal_pcd.c **** 
 350:Drivers/STM32F4xx_HAL_Driver/Src/stm32f4xx_hal_pcd.c ****       case HAL_PCD_SETUPSTAGE_CB_ID :
 351:Drivers/STM32F4xx_HAL_Driver/Src/stm32f4xx_hal_pcd.c ****         hpcd->SetupStageCallback = pCallback;
 352:Drivers/STM32F4xx_HAL_Driver/Src/stm32f4xx_hal_pcd.c ****         break;
 353:Drivers/STM32F4xx_HAL_Driver/Src/stm32f4xx_hal_pcd.c **** 
 354:Drivers/STM32F4xx_HAL_Driver/Src/stm32f4xx_hal_pcd.c ****       case HAL_PCD_RESET_CB_ID :
ARM GAS  /var/folders/vq/qt4vp3kd5rxf7v2b6_fdtdt80000gn/T//cc6xBrdC.s 			page 17


 355:Drivers/STM32F4xx_HAL_Driver/Src/stm32f4xx_hal_pcd.c ****         hpcd->ResetCallback = pCallback;
 356:Drivers/STM32F4xx_HAL_Driver/Src/stm32f4xx_hal_pcd.c ****         break;
 357:Drivers/STM32F4xx_HAL_Driver/Src/stm32f4xx_hal_pcd.c **** 
 358:Drivers/STM32F4xx_HAL_Driver/Src/stm32f4xx_hal_pcd.c ****       case HAL_PCD_SUSPEND_CB_ID :
 359:Drivers/STM32F4xx_HAL_Driver/Src/stm32f4xx_hal_pcd.c ****         hpcd->SuspendCallback = pCallback;
 360:Drivers/STM32F4xx_HAL_Driver/Src/stm32f4xx_hal_pcd.c ****         break;
 361:Drivers/STM32F4xx_HAL_Driver/Src/stm32f4xx_hal_pcd.c **** 
 362:Drivers/STM32F4xx_HAL_Driver/Src/stm32f4xx_hal_pcd.c ****       case HAL_PCD_RESUME_CB_ID :
 363:Drivers/STM32F4xx_HAL_Driver/Src/stm32f4xx_hal_pcd.c ****         hpcd->ResumeCallback = pCallback;
 364:Drivers/STM32F4xx_HAL_Driver/Src/stm32f4xx_hal_pcd.c ****         break;
 365:Drivers/STM32F4xx_HAL_Driver/Src/stm32f4xx_hal_pcd.c **** 
 366:Drivers/STM32F4xx_HAL_Driver/Src/stm32f4xx_hal_pcd.c ****       case HAL_PCD_CONNECT_CB_ID :
 367:Drivers/STM32F4xx_HAL_Driver/Src/stm32f4xx_hal_pcd.c ****         hpcd->ConnectCallback = pCallback;
 368:Drivers/STM32F4xx_HAL_Driver/Src/stm32f4xx_hal_pcd.c ****         break;
 369:Drivers/STM32F4xx_HAL_Driver/Src/stm32f4xx_hal_pcd.c **** 
 370:Drivers/STM32F4xx_HAL_Driver/Src/stm32f4xx_hal_pcd.c ****       case HAL_PCD_DISCONNECT_CB_ID :
 371:Drivers/STM32F4xx_HAL_Driver/Src/stm32f4xx_hal_pcd.c ****         hpcd->DisconnectCallback = pCallback;
 372:Drivers/STM32F4xx_HAL_Driver/Src/stm32f4xx_hal_pcd.c ****         break;
 373:Drivers/STM32F4xx_HAL_Driver/Src/stm32f4xx_hal_pcd.c **** 
 374:Drivers/STM32F4xx_HAL_Driver/Src/stm32f4xx_hal_pcd.c ****       case HAL_PCD_MSPINIT_CB_ID :
 375:Drivers/STM32F4xx_HAL_Driver/Src/stm32f4xx_hal_pcd.c ****         hpcd->MspInitCallback = pCallback;
 376:Drivers/STM32F4xx_HAL_Driver/Src/stm32f4xx_hal_pcd.c ****         break;
 377:Drivers/STM32F4xx_HAL_Driver/Src/stm32f4xx_hal_pcd.c **** 
 378:Drivers/STM32F4xx_HAL_Driver/Src/stm32f4xx_hal_pcd.c ****       case HAL_PCD_MSPDEINIT_CB_ID :
 379:Drivers/STM32F4xx_HAL_Driver/Src/stm32f4xx_hal_pcd.c ****         hpcd->MspDeInitCallback = pCallback;
 380:Drivers/STM32F4xx_HAL_Driver/Src/stm32f4xx_hal_pcd.c ****         break;
 381:Drivers/STM32F4xx_HAL_Driver/Src/stm32f4xx_hal_pcd.c **** 
 382:Drivers/STM32F4xx_HAL_Driver/Src/stm32f4xx_hal_pcd.c ****       default :
 383:Drivers/STM32F4xx_HAL_Driver/Src/stm32f4xx_hal_pcd.c ****         /* Update the error code */
 384:Drivers/STM32F4xx_HAL_Driver/Src/stm32f4xx_hal_pcd.c ****         hpcd->ErrorCode |= HAL_PCD_ERROR_INVALID_CALLBACK;
 385:Drivers/STM32F4xx_HAL_Driver/Src/stm32f4xx_hal_pcd.c ****         /* Return error status */
 386:Drivers/STM32F4xx_HAL_Driver/Src/stm32f4xx_hal_pcd.c ****         status =  HAL_ERROR;
 387:Drivers/STM32F4xx_HAL_Driver/Src/stm32f4xx_hal_pcd.c ****         break;
 388:Drivers/STM32F4xx_HAL_Driver/Src/stm32f4xx_hal_pcd.c ****     }
 389:Drivers/STM32F4xx_HAL_Driver/Src/stm32f4xx_hal_pcd.c ****   }
 390:Drivers/STM32F4xx_HAL_Driver/Src/stm32f4xx_hal_pcd.c ****   else if (hpcd->State == HAL_PCD_STATE_RESET)
 391:Drivers/STM32F4xx_HAL_Driver/Src/stm32f4xx_hal_pcd.c ****   {
 392:Drivers/STM32F4xx_HAL_Driver/Src/stm32f4xx_hal_pcd.c ****     switch (CallbackID)
 393:Drivers/STM32F4xx_HAL_Driver/Src/stm32f4xx_hal_pcd.c ****     {
 394:Drivers/STM32F4xx_HAL_Driver/Src/stm32f4xx_hal_pcd.c ****       case HAL_PCD_MSPINIT_CB_ID :
 395:Drivers/STM32F4xx_HAL_Driver/Src/stm32f4xx_hal_pcd.c ****         hpcd->MspInitCallback = pCallback;
 396:Drivers/STM32F4xx_HAL_Driver/Src/stm32f4xx_hal_pcd.c ****         break;
 397:Drivers/STM32F4xx_HAL_Driver/Src/stm32f4xx_hal_pcd.c **** 
 398:Drivers/STM32F4xx_HAL_Driver/Src/stm32f4xx_hal_pcd.c ****       case HAL_PCD_MSPDEINIT_CB_ID :
 399:Drivers/STM32F4xx_HAL_Driver/Src/stm32f4xx_hal_pcd.c ****         hpcd->MspDeInitCallback = pCallback;
 400:Drivers/STM32F4xx_HAL_Driver/Src/stm32f4xx_hal_pcd.c ****         break;
 401:Drivers/STM32F4xx_HAL_Driver/Src/stm32f4xx_hal_pcd.c **** 
 402:Drivers/STM32F4xx_HAL_Driver/Src/stm32f4xx_hal_pcd.c ****       default :
 403:Drivers/STM32F4xx_HAL_Driver/Src/stm32f4xx_hal_pcd.c ****         /* Update the error code */
 404:Drivers/STM32F4xx_HAL_Driver/Src/stm32f4xx_hal_pcd.c ****         hpcd->ErrorCode |= HAL_PCD_ERROR_INVALID_CALLBACK;
 405:Drivers/STM32F4xx_HAL_Driver/Src/stm32f4xx_hal_pcd.c ****         /* Return error status */
 406:Drivers/STM32F4xx_HAL_Driver/Src/stm32f4xx_hal_pcd.c ****         status =  HAL_ERROR;
 407:Drivers/STM32F4xx_HAL_Driver/Src/stm32f4xx_hal_pcd.c ****         break;
 408:Drivers/STM32F4xx_HAL_Driver/Src/stm32f4xx_hal_pcd.c ****     }
 409:Drivers/STM32F4xx_HAL_Driver/Src/stm32f4xx_hal_pcd.c ****   }
 410:Drivers/STM32F4xx_HAL_Driver/Src/stm32f4xx_hal_pcd.c ****   else
 411:Drivers/STM32F4xx_HAL_Driver/Src/stm32f4xx_hal_pcd.c ****   {
ARM GAS  /var/folders/vq/qt4vp3kd5rxf7v2b6_fdtdt80000gn/T//cc6xBrdC.s 			page 18


 412:Drivers/STM32F4xx_HAL_Driver/Src/stm32f4xx_hal_pcd.c ****     /* Update the error code */
 413:Drivers/STM32F4xx_HAL_Driver/Src/stm32f4xx_hal_pcd.c ****     hpcd->ErrorCode |= HAL_PCD_ERROR_INVALID_CALLBACK;
 414:Drivers/STM32F4xx_HAL_Driver/Src/stm32f4xx_hal_pcd.c ****     /* Return error status */
 415:Drivers/STM32F4xx_HAL_Driver/Src/stm32f4xx_hal_pcd.c ****     status =  HAL_ERROR;
 416:Drivers/STM32F4xx_HAL_Driver/Src/stm32f4xx_hal_pcd.c ****   }
 417:Drivers/STM32F4xx_HAL_Driver/Src/stm32f4xx_hal_pcd.c **** 
 418:Drivers/STM32F4xx_HAL_Driver/Src/stm32f4xx_hal_pcd.c ****   /* Release Lock */
 419:Drivers/STM32F4xx_HAL_Driver/Src/stm32f4xx_hal_pcd.c ****   __HAL_UNLOCK(hpcd);
 420:Drivers/STM32F4xx_HAL_Driver/Src/stm32f4xx_hal_pcd.c ****   return status;
 421:Drivers/STM32F4xx_HAL_Driver/Src/stm32f4xx_hal_pcd.c **** }
 422:Drivers/STM32F4xx_HAL_Driver/Src/stm32f4xx_hal_pcd.c **** 
 423:Drivers/STM32F4xx_HAL_Driver/Src/stm32f4xx_hal_pcd.c **** /**
 424:Drivers/STM32F4xx_HAL_Driver/Src/stm32f4xx_hal_pcd.c ****   * @brief  Unregister an USB PCD Callback
 425:Drivers/STM32F4xx_HAL_Driver/Src/stm32f4xx_hal_pcd.c ****   *         USB PCD callabck is redirected to the weak predefined callback
 426:Drivers/STM32F4xx_HAL_Driver/Src/stm32f4xx_hal_pcd.c ****   * @param  hpcd USB PCD handle
 427:Drivers/STM32F4xx_HAL_Driver/Src/stm32f4xx_hal_pcd.c ****   * @param  CallbackID ID of the callback to be unregistered
 428:Drivers/STM32F4xx_HAL_Driver/Src/stm32f4xx_hal_pcd.c ****   *         This parameter can be one of the following values:
 429:Drivers/STM32F4xx_HAL_Driver/Src/stm32f4xx_hal_pcd.c ****   *          @arg @ref HAL_PCD_SOF_CB_ID USB PCD SOF callback ID
 430:Drivers/STM32F4xx_HAL_Driver/Src/stm32f4xx_hal_pcd.c ****   *          @arg @ref HAL_PCD_SETUPSTAGE_CB_ID USB PCD Setup callback ID
 431:Drivers/STM32F4xx_HAL_Driver/Src/stm32f4xx_hal_pcd.c ****   *          @arg @ref HAL_PCD_RESET_CB_ID USB PCD Reset callback ID
 432:Drivers/STM32F4xx_HAL_Driver/Src/stm32f4xx_hal_pcd.c ****   *          @arg @ref HAL_PCD_SUSPEND_CB_ID USB PCD Suspend callback ID
 433:Drivers/STM32F4xx_HAL_Driver/Src/stm32f4xx_hal_pcd.c ****   *          @arg @ref HAL_PCD_RESUME_CB_ID USB PCD Resume callback ID
 434:Drivers/STM32F4xx_HAL_Driver/Src/stm32f4xx_hal_pcd.c ****   *          @arg @ref HAL_PCD_CONNECT_CB_ID USB PCD Connect callback ID
 435:Drivers/STM32F4xx_HAL_Driver/Src/stm32f4xx_hal_pcd.c ****   *          @arg @ref HAL_PCD_DISCONNECT_CB_ID OTG PCD Disconnect callback ID
 436:Drivers/STM32F4xx_HAL_Driver/Src/stm32f4xx_hal_pcd.c ****   *          @arg @ref HAL_PCD_MSPINIT_CB_ID MspDeInit callback ID
 437:Drivers/STM32F4xx_HAL_Driver/Src/stm32f4xx_hal_pcd.c ****   *          @arg @ref HAL_PCD_MSPDEINIT_CB_ID MspDeInit callback ID
 438:Drivers/STM32F4xx_HAL_Driver/Src/stm32f4xx_hal_pcd.c ****   * @retval HAL status
 439:Drivers/STM32F4xx_HAL_Driver/Src/stm32f4xx_hal_pcd.c ****   */
 440:Drivers/STM32F4xx_HAL_Driver/Src/stm32f4xx_hal_pcd.c **** HAL_StatusTypeDef HAL_PCD_UnRegisterCallback(PCD_HandleTypeDef *hpcd, HAL_PCD_CallbackIDTypeDef Cal
 441:Drivers/STM32F4xx_HAL_Driver/Src/stm32f4xx_hal_pcd.c **** {
 442:Drivers/STM32F4xx_HAL_Driver/Src/stm32f4xx_hal_pcd.c ****   HAL_StatusTypeDef status = HAL_OK;
 443:Drivers/STM32F4xx_HAL_Driver/Src/stm32f4xx_hal_pcd.c **** 
 444:Drivers/STM32F4xx_HAL_Driver/Src/stm32f4xx_hal_pcd.c ****   /* Process locked */
 445:Drivers/STM32F4xx_HAL_Driver/Src/stm32f4xx_hal_pcd.c ****   __HAL_LOCK(hpcd);
 446:Drivers/STM32F4xx_HAL_Driver/Src/stm32f4xx_hal_pcd.c **** 
 447:Drivers/STM32F4xx_HAL_Driver/Src/stm32f4xx_hal_pcd.c ****   /* Setup Legacy weak Callbacks  */
 448:Drivers/STM32F4xx_HAL_Driver/Src/stm32f4xx_hal_pcd.c ****   if (hpcd->State == HAL_PCD_STATE_READY)
 449:Drivers/STM32F4xx_HAL_Driver/Src/stm32f4xx_hal_pcd.c ****   {
 450:Drivers/STM32F4xx_HAL_Driver/Src/stm32f4xx_hal_pcd.c ****     switch (CallbackID)
 451:Drivers/STM32F4xx_HAL_Driver/Src/stm32f4xx_hal_pcd.c ****     {
 452:Drivers/STM32F4xx_HAL_Driver/Src/stm32f4xx_hal_pcd.c ****       case HAL_PCD_SOF_CB_ID :
 453:Drivers/STM32F4xx_HAL_Driver/Src/stm32f4xx_hal_pcd.c ****         hpcd->SOFCallback = HAL_PCD_SOFCallback;
 454:Drivers/STM32F4xx_HAL_Driver/Src/stm32f4xx_hal_pcd.c ****         break;
 455:Drivers/STM32F4xx_HAL_Driver/Src/stm32f4xx_hal_pcd.c **** 
 456:Drivers/STM32F4xx_HAL_Driver/Src/stm32f4xx_hal_pcd.c ****       case HAL_PCD_SETUPSTAGE_CB_ID :
 457:Drivers/STM32F4xx_HAL_Driver/Src/stm32f4xx_hal_pcd.c ****         hpcd->SetupStageCallback = HAL_PCD_SetupStageCallback;
 458:Drivers/STM32F4xx_HAL_Driver/Src/stm32f4xx_hal_pcd.c ****         break;
 459:Drivers/STM32F4xx_HAL_Driver/Src/stm32f4xx_hal_pcd.c **** 
 460:Drivers/STM32F4xx_HAL_Driver/Src/stm32f4xx_hal_pcd.c ****       case HAL_PCD_RESET_CB_ID :
 461:Drivers/STM32F4xx_HAL_Driver/Src/stm32f4xx_hal_pcd.c ****         hpcd->ResetCallback = HAL_PCD_ResetCallback;
 462:Drivers/STM32F4xx_HAL_Driver/Src/stm32f4xx_hal_pcd.c ****         break;
 463:Drivers/STM32F4xx_HAL_Driver/Src/stm32f4xx_hal_pcd.c **** 
 464:Drivers/STM32F4xx_HAL_Driver/Src/stm32f4xx_hal_pcd.c ****       case HAL_PCD_SUSPEND_CB_ID :
 465:Drivers/STM32F4xx_HAL_Driver/Src/stm32f4xx_hal_pcd.c ****         hpcd->SuspendCallback = HAL_PCD_SuspendCallback;
 466:Drivers/STM32F4xx_HAL_Driver/Src/stm32f4xx_hal_pcd.c ****         break;
 467:Drivers/STM32F4xx_HAL_Driver/Src/stm32f4xx_hal_pcd.c **** 
 468:Drivers/STM32F4xx_HAL_Driver/Src/stm32f4xx_hal_pcd.c ****       case HAL_PCD_RESUME_CB_ID :
ARM GAS  /var/folders/vq/qt4vp3kd5rxf7v2b6_fdtdt80000gn/T//cc6xBrdC.s 			page 19


 469:Drivers/STM32F4xx_HAL_Driver/Src/stm32f4xx_hal_pcd.c ****         hpcd->ResumeCallback = HAL_PCD_ResumeCallback;
 470:Drivers/STM32F4xx_HAL_Driver/Src/stm32f4xx_hal_pcd.c ****         break;
 471:Drivers/STM32F4xx_HAL_Driver/Src/stm32f4xx_hal_pcd.c **** 
 472:Drivers/STM32F4xx_HAL_Driver/Src/stm32f4xx_hal_pcd.c ****       case HAL_PCD_CONNECT_CB_ID :
 473:Drivers/STM32F4xx_HAL_Driver/Src/stm32f4xx_hal_pcd.c ****         hpcd->ConnectCallback = HAL_PCD_ConnectCallback;
 474:Drivers/STM32F4xx_HAL_Driver/Src/stm32f4xx_hal_pcd.c ****         break;
 475:Drivers/STM32F4xx_HAL_Driver/Src/stm32f4xx_hal_pcd.c **** 
 476:Drivers/STM32F4xx_HAL_Driver/Src/stm32f4xx_hal_pcd.c ****       case HAL_PCD_DISCONNECT_CB_ID :
 477:Drivers/STM32F4xx_HAL_Driver/Src/stm32f4xx_hal_pcd.c ****         hpcd->DisconnectCallback = HAL_PCD_DisconnectCallback;
 478:Drivers/STM32F4xx_HAL_Driver/Src/stm32f4xx_hal_pcd.c ****         break;
 479:Drivers/STM32F4xx_HAL_Driver/Src/stm32f4xx_hal_pcd.c **** 
 480:Drivers/STM32F4xx_HAL_Driver/Src/stm32f4xx_hal_pcd.c ****       case HAL_PCD_MSPINIT_CB_ID :
 481:Drivers/STM32F4xx_HAL_Driver/Src/stm32f4xx_hal_pcd.c ****         hpcd->MspInitCallback = HAL_PCD_MspInit;
 482:Drivers/STM32F4xx_HAL_Driver/Src/stm32f4xx_hal_pcd.c ****         break;
 483:Drivers/STM32F4xx_HAL_Driver/Src/stm32f4xx_hal_pcd.c **** 
 484:Drivers/STM32F4xx_HAL_Driver/Src/stm32f4xx_hal_pcd.c ****       case HAL_PCD_MSPDEINIT_CB_ID :
 485:Drivers/STM32F4xx_HAL_Driver/Src/stm32f4xx_hal_pcd.c ****         hpcd->MspDeInitCallback = HAL_PCD_MspDeInit;
 486:Drivers/STM32F4xx_HAL_Driver/Src/stm32f4xx_hal_pcd.c ****         break;
 487:Drivers/STM32F4xx_HAL_Driver/Src/stm32f4xx_hal_pcd.c **** 
 488:Drivers/STM32F4xx_HAL_Driver/Src/stm32f4xx_hal_pcd.c ****       default :
 489:Drivers/STM32F4xx_HAL_Driver/Src/stm32f4xx_hal_pcd.c ****         /* Update the error code */
 490:Drivers/STM32F4xx_HAL_Driver/Src/stm32f4xx_hal_pcd.c ****         hpcd->ErrorCode |= HAL_PCD_ERROR_INVALID_CALLBACK;
 491:Drivers/STM32F4xx_HAL_Driver/Src/stm32f4xx_hal_pcd.c **** 
 492:Drivers/STM32F4xx_HAL_Driver/Src/stm32f4xx_hal_pcd.c ****         /* Return error status */
 493:Drivers/STM32F4xx_HAL_Driver/Src/stm32f4xx_hal_pcd.c ****         status =  HAL_ERROR;
 494:Drivers/STM32F4xx_HAL_Driver/Src/stm32f4xx_hal_pcd.c ****         break;
 495:Drivers/STM32F4xx_HAL_Driver/Src/stm32f4xx_hal_pcd.c ****     }
 496:Drivers/STM32F4xx_HAL_Driver/Src/stm32f4xx_hal_pcd.c ****   }
 497:Drivers/STM32F4xx_HAL_Driver/Src/stm32f4xx_hal_pcd.c ****   else if (hpcd->State == HAL_PCD_STATE_RESET)
 498:Drivers/STM32F4xx_HAL_Driver/Src/stm32f4xx_hal_pcd.c ****   {
 499:Drivers/STM32F4xx_HAL_Driver/Src/stm32f4xx_hal_pcd.c ****     switch (CallbackID)
 500:Drivers/STM32F4xx_HAL_Driver/Src/stm32f4xx_hal_pcd.c ****     {
 501:Drivers/STM32F4xx_HAL_Driver/Src/stm32f4xx_hal_pcd.c ****       case HAL_PCD_MSPINIT_CB_ID :
 502:Drivers/STM32F4xx_HAL_Driver/Src/stm32f4xx_hal_pcd.c ****         hpcd->MspInitCallback = HAL_PCD_MspInit;
 503:Drivers/STM32F4xx_HAL_Driver/Src/stm32f4xx_hal_pcd.c ****         break;
 504:Drivers/STM32F4xx_HAL_Driver/Src/stm32f4xx_hal_pcd.c **** 
 505:Drivers/STM32F4xx_HAL_Driver/Src/stm32f4xx_hal_pcd.c ****       case HAL_PCD_MSPDEINIT_CB_ID :
 506:Drivers/STM32F4xx_HAL_Driver/Src/stm32f4xx_hal_pcd.c ****         hpcd->MspDeInitCallback = HAL_PCD_MspDeInit;
 507:Drivers/STM32F4xx_HAL_Driver/Src/stm32f4xx_hal_pcd.c ****         break;
 508:Drivers/STM32F4xx_HAL_Driver/Src/stm32f4xx_hal_pcd.c **** 
 509:Drivers/STM32F4xx_HAL_Driver/Src/stm32f4xx_hal_pcd.c ****       default :
 510:Drivers/STM32F4xx_HAL_Driver/Src/stm32f4xx_hal_pcd.c ****         /* Update the error code */
 511:Drivers/STM32F4xx_HAL_Driver/Src/stm32f4xx_hal_pcd.c ****         hpcd->ErrorCode |= HAL_PCD_ERROR_INVALID_CALLBACK;
 512:Drivers/STM32F4xx_HAL_Driver/Src/stm32f4xx_hal_pcd.c **** 
 513:Drivers/STM32F4xx_HAL_Driver/Src/stm32f4xx_hal_pcd.c ****         /* Return error status */
 514:Drivers/STM32F4xx_HAL_Driver/Src/stm32f4xx_hal_pcd.c ****         status =  HAL_ERROR;
 515:Drivers/STM32F4xx_HAL_Driver/Src/stm32f4xx_hal_pcd.c ****         break;
 516:Drivers/STM32F4xx_HAL_Driver/Src/stm32f4xx_hal_pcd.c ****     }
 517:Drivers/STM32F4xx_HAL_Driver/Src/stm32f4xx_hal_pcd.c ****   }
 518:Drivers/STM32F4xx_HAL_Driver/Src/stm32f4xx_hal_pcd.c ****   else
 519:Drivers/STM32F4xx_HAL_Driver/Src/stm32f4xx_hal_pcd.c ****   {
 520:Drivers/STM32F4xx_HAL_Driver/Src/stm32f4xx_hal_pcd.c ****     /* Update the error code */
 521:Drivers/STM32F4xx_HAL_Driver/Src/stm32f4xx_hal_pcd.c ****     hpcd->ErrorCode |= HAL_PCD_ERROR_INVALID_CALLBACK;
 522:Drivers/STM32F4xx_HAL_Driver/Src/stm32f4xx_hal_pcd.c **** 
 523:Drivers/STM32F4xx_HAL_Driver/Src/stm32f4xx_hal_pcd.c ****     /* Return error status */
 524:Drivers/STM32F4xx_HAL_Driver/Src/stm32f4xx_hal_pcd.c ****     status =  HAL_ERROR;
 525:Drivers/STM32F4xx_HAL_Driver/Src/stm32f4xx_hal_pcd.c ****   }
ARM GAS  /var/folders/vq/qt4vp3kd5rxf7v2b6_fdtdt80000gn/T//cc6xBrdC.s 			page 20


 526:Drivers/STM32F4xx_HAL_Driver/Src/stm32f4xx_hal_pcd.c **** 
 527:Drivers/STM32F4xx_HAL_Driver/Src/stm32f4xx_hal_pcd.c ****   /* Release Lock */
 528:Drivers/STM32F4xx_HAL_Driver/Src/stm32f4xx_hal_pcd.c ****   __HAL_UNLOCK(hpcd);
 529:Drivers/STM32F4xx_HAL_Driver/Src/stm32f4xx_hal_pcd.c ****   return status;
 530:Drivers/STM32F4xx_HAL_Driver/Src/stm32f4xx_hal_pcd.c **** }
 531:Drivers/STM32F4xx_HAL_Driver/Src/stm32f4xx_hal_pcd.c **** 
 532:Drivers/STM32F4xx_HAL_Driver/Src/stm32f4xx_hal_pcd.c **** /**
 533:Drivers/STM32F4xx_HAL_Driver/Src/stm32f4xx_hal_pcd.c ****   * @brief  Register USB PCD Data OUT Stage Callback
 534:Drivers/STM32F4xx_HAL_Driver/Src/stm32f4xx_hal_pcd.c ****   *         To be used instead of the weak HAL_PCD_DataOutStageCallback() predefined callback
 535:Drivers/STM32F4xx_HAL_Driver/Src/stm32f4xx_hal_pcd.c ****   * @param  hpcd PCD handle
 536:Drivers/STM32F4xx_HAL_Driver/Src/stm32f4xx_hal_pcd.c ****   * @param  pCallback pointer to the USB PCD Data OUT Stage Callback function
 537:Drivers/STM32F4xx_HAL_Driver/Src/stm32f4xx_hal_pcd.c ****   * @retval HAL status
 538:Drivers/STM32F4xx_HAL_Driver/Src/stm32f4xx_hal_pcd.c ****   */
 539:Drivers/STM32F4xx_HAL_Driver/Src/stm32f4xx_hal_pcd.c **** HAL_StatusTypeDef HAL_PCD_RegisterDataOutStageCallback(PCD_HandleTypeDef *hpcd,
 540:Drivers/STM32F4xx_HAL_Driver/Src/stm32f4xx_hal_pcd.c ****                                                        pPCD_DataOutStageCallbackTypeDef pCallback)
 541:Drivers/STM32F4xx_HAL_Driver/Src/stm32f4xx_hal_pcd.c **** {
 542:Drivers/STM32F4xx_HAL_Driver/Src/stm32f4xx_hal_pcd.c ****   HAL_StatusTypeDef status = HAL_OK;
 543:Drivers/STM32F4xx_HAL_Driver/Src/stm32f4xx_hal_pcd.c **** 
 544:Drivers/STM32F4xx_HAL_Driver/Src/stm32f4xx_hal_pcd.c ****   if (pCallback == NULL)
 545:Drivers/STM32F4xx_HAL_Driver/Src/stm32f4xx_hal_pcd.c ****   {
 546:Drivers/STM32F4xx_HAL_Driver/Src/stm32f4xx_hal_pcd.c ****     /* Update the error code */
 547:Drivers/STM32F4xx_HAL_Driver/Src/stm32f4xx_hal_pcd.c ****     hpcd->ErrorCode |= HAL_PCD_ERROR_INVALID_CALLBACK;
 548:Drivers/STM32F4xx_HAL_Driver/Src/stm32f4xx_hal_pcd.c **** 
 549:Drivers/STM32F4xx_HAL_Driver/Src/stm32f4xx_hal_pcd.c ****     return HAL_ERROR;
 550:Drivers/STM32F4xx_HAL_Driver/Src/stm32f4xx_hal_pcd.c ****   }
 551:Drivers/STM32F4xx_HAL_Driver/Src/stm32f4xx_hal_pcd.c **** 
 552:Drivers/STM32F4xx_HAL_Driver/Src/stm32f4xx_hal_pcd.c ****   /* Process locked */
 553:Drivers/STM32F4xx_HAL_Driver/Src/stm32f4xx_hal_pcd.c ****   __HAL_LOCK(hpcd);
 554:Drivers/STM32F4xx_HAL_Driver/Src/stm32f4xx_hal_pcd.c **** 
 555:Drivers/STM32F4xx_HAL_Driver/Src/stm32f4xx_hal_pcd.c ****   if (hpcd->State == HAL_PCD_STATE_READY)
 556:Drivers/STM32F4xx_HAL_Driver/Src/stm32f4xx_hal_pcd.c ****   {
 557:Drivers/STM32F4xx_HAL_Driver/Src/stm32f4xx_hal_pcd.c ****     hpcd->DataOutStageCallback = pCallback;
 558:Drivers/STM32F4xx_HAL_Driver/Src/stm32f4xx_hal_pcd.c ****   }
 559:Drivers/STM32F4xx_HAL_Driver/Src/stm32f4xx_hal_pcd.c ****   else
 560:Drivers/STM32F4xx_HAL_Driver/Src/stm32f4xx_hal_pcd.c ****   {
 561:Drivers/STM32F4xx_HAL_Driver/Src/stm32f4xx_hal_pcd.c ****     /* Update the error code */
 562:Drivers/STM32F4xx_HAL_Driver/Src/stm32f4xx_hal_pcd.c ****     hpcd->ErrorCode |= HAL_PCD_ERROR_INVALID_CALLBACK;
 563:Drivers/STM32F4xx_HAL_Driver/Src/stm32f4xx_hal_pcd.c **** 
 564:Drivers/STM32F4xx_HAL_Driver/Src/stm32f4xx_hal_pcd.c ****     /* Return error status */
 565:Drivers/STM32F4xx_HAL_Driver/Src/stm32f4xx_hal_pcd.c ****     status =  HAL_ERROR;
 566:Drivers/STM32F4xx_HAL_Driver/Src/stm32f4xx_hal_pcd.c ****   }
 567:Drivers/STM32F4xx_HAL_Driver/Src/stm32f4xx_hal_pcd.c **** 
 568:Drivers/STM32F4xx_HAL_Driver/Src/stm32f4xx_hal_pcd.c ****   /* Release Lock */
 569:Drivers/STM32F4xx_HAL_Driver/Src/stm32f4xx_hal_pcd.c ****   __HAL_UNLOCK(hpcd);
 570:Drivers/STM32F4xx_HAL_Driver/Src/stm32f4xx_hal_pcd.c **** 
 571:Drivers/STM32F4xx_HAL_Driver/Src/stm32f4xx_hal_pcd.c ****   return status;
 572:Drivers/STM32F4xx_HAL_Driver/Src/stm32f4xx_hal_pcd.c **** }
 573:Drivers/STM32F4xx_HAL_Driver/Src/stm32f4xx_hal_pcd.c **** 
 574:Drivers/STM32F4xx_HAL_Driver/Src/stm32f4xx_hal_pcd.c **** /**
 575:Drivers/STM32F4xx_HAL_Driver/Src/stm32f4xx_hal_pcd.c ****   * @brief  Unregister the USB PCD Data OUT Stage Callback
 576:Drivers/STM32F4xx_HAL_Driver/Src/stm32f4xx_hal_pcd.c ****   *         USB PCD Data OUT Stage Callback is redirected to the weak HAL_PCD_DataOutStageCallback(
 577:Drivers/STM32F4xx_HAL_Driver/Src/stm32f4xx_hal_pcd.c ****   * @param  hpcd PCD handle
 578:Drivers/STM32F4xx_HAL_Driver/Src/stm32f4xx_hal_pcd.c ****   * @retval HAL status
 579:Drivers/STM32F4xx_HAL_Driver/Src/stm32f4xx_hal_pcd.c ****   */
 580:Drivers/STM32F4xx_HAL_Driver/Src/stm32f4xx_hal_pcd.c **** HAL_StatusTypeDef HAL_PCD_UnRegisterDataOutStageCallback(PCD_HandleTypeDef *hpcd)
 581:Drivers/STM32F4xx_HAL_Driver/Src/stm32f4xx_hal_pcd.c **** {
 582:Drivers/STM32F4xx_HAL_Driver/Src/stm32f4xx_hal_pcd.c ****   HAL_StatusTypeDef status = HAL_OK;
ARM GAS  /var/folders/vq/qt4vp3kd5rxf7v2b6_fdtdt80000gn/T//cc6xBrdC.s 			page 21


 583:Drivers/STM32F4xx_HAL_Driver/Src/stm32f4xx_hal_pcd.c **** 
 584:Drivers/STM32F4xx_HAL_Driver/Src/stm32f4xx_hal_pcd.c ****   /* Process locked */
 585:Drivers/STM32F4xx_HAL_Driver/Src/stm32f4xx_hal_pcd.c ****   __HAL_LOCK(hpcd);
 586:Drivers/STM32F4xx_HAL_Driver/Src/stm32f4xx_hal_pcd.c **** 
 587:Drivers/STM32F4xx_HAL_Driver/Src/stm32f4xx_hal_pcd.c ****   if (hpcd->State == HAL_PCD_STATE_READY)
 588:Drivers/STM32F4xx_HAL_Driver/Src/stm32f4xx_hal_pcd.c ****   {
 589:Drivers/STM32F4xx_HAL_Driver/Src/stm32f4xx_hal_pcd.c ****     hpcd->DataOutStageCallback = HAL_PCD_DataOutStageCallback; /* Legacy weak DataOutStageCallback 
 590:Drivers/STM32F4xx_HAL_Driver/Src/stm32f4xx_hal_pcd.c ****   }
 591:Drivers/STM32F4xx_HAL_Driver/Src/stm32f4xx_hal_pcd.c ****   else
 592:Drivers/STM32F4xx_HAL_Driver/Src/stm32f4xx_hal_pcd.c ****   {
 593:Drivers/STM32F4xx_HAL_Driver/Src/stm32f4xx_hal_pcd.c ****     /* Update the error code */
 594:Drivers/STM32F4xx_HAL_Driver/Src/stm32f4xx_hal_pcd.c ****     hpcd->ErrorCode |= HAL_PCD_ERROR_INVALID_CALLBACK;
 595:Drivers/STM32F4xx_HAL_Driver/Src/stm32f4xx_hal_pcd.c **** 
 596:Drivers/STM32F4xx_HAL_Driver/Src/stm32f4xx_hal_pcd.c ****     /* Return error status */
 597:Drivers/STM32F4xx_HAL_Driver/Src/stm32f4xx_hal_pcd.c ****     status =  HAL_ERROR;
 598:Drivers/STM32F4xx_HAL_Driver/Src/stm32f4xx_hal_pcd.c ****   }
 599:Drivers/STM32F4xx_HAL_Driver/Src/stm32f4xx_hal_pcd.c **** 
 600:Drivers/STM32F4xx_HAL_Driver/Src/stm32f4xx_hal_pcd.c ****   /* Release Lock */
 601:Drivers/STM32F4xx_HAL_Driver/Src/stm32f4xx_hal_pcd.c ****   __HAL_UNLOCK(hpcd);
 602:Drivers/STM32F4xx_HAL_Driver/Src/stm32f4xx_hal_pcd.c **** 
 603:Drivers/STM32F4xx_HAL_Driver/Src/stm32f4xx_hal_pcd.c ****   return status;
 604:Drivers/STM32F4xx_HAL_Driver/Src/stm32f4xx_hal_pcd.c **** }
 605:Drivers/STM32F4xx_HAL_Driver/Src/stm32f4xx_hal_pcd.c **** 
 606:Drivers/STM32F4xx_HAL_Driver/Src/stm32f4xx_hal_pcd.c **** /**
 607:Drivers/STM32F4xx_HAL_Driver/Src/stm32f4xx_hal_pcd.c ****   * @brief  Register USB PCD Data IN Stage Callback
 608:Drivers/STM32F4xx_HAL_Driver/Src/stm32f4xx_hal_pcd.c ****   *         To be used instead of the weak HAL_PCD_DataInStageCallback() predefined callback
 609:Drivers/STM32F4xx_HAL_Driver/Src/stm32f4xx_hal_pcd.c ****   * @param  hpcd PCD handle
 610:Drivers/STM32F4xx_HAL_Driver/Src/stm32f4xx_hal_pcd.c ****   * @param  pCallback pointer to the USB PCD Data IN Stage Callback function
 611:Drivers/STM32F4xx_HAL_Driver/Src/stm32f4xx_hal_pcd.c ****   * @retval HAL status
 612:Drivers/STM32F4xx_HAL_Driver/Src/stm32f4xx_hal_pcd.c ****   */
 613:Drivers/STM32F4xx_HAL_Driver/Src/stm32f4xx_hal_pcd.c **** HAL_StatusTypeDef HAL_PCD_RegisterDataInStageCallback(PCD_HandleTypeDef *hpcd,
 614:Drivers/STM32F4xx_HAL_Driver/Src/stm32f4xx_hal_pcd.c ****                                                       pPCD_DataInStageCallbackTypeDef pCallback)
 615:Drivers/STM32F4xx_HAL_Driver/Src/stm32f4xx_hal_pcd.c **** {
 616:Drivers/STM32F4xx_HAL_Driver/Src/stm32f4xx_hal_pcd.c ****   HAL_StatusTypeDef status = HAL_OK;
 617:Drivers/STM32F4xx_HAL_Driver/Src/stm32f4xx_hal_pcd.c **** 
 618:Drivers/STM32F4xx_HAL_Driver/Src/stm32f4xx_hal_pcd.c ****   if (pCallback == NULL)
 619:Drivers/STM32F4xx_HAL_Driver/Src/stm32f4xx_hal_pcd.c ****   {
 620:Drivers/STM32F4xx_HAL_Driver/Src/stm32f4xx_hal_pcd.c ****     /* Update the error code */
 621:Drivers/STM32F4xx_HAL_Driver/Src/stm32f4xx_hal_pcd.c ****     hpcd->ErrorCode |= HAL_PCD_ERROR_INVALID_CALLBACK;
 622:Drivers/STM32F4xx_HAL_Driver/Src/stm32f4xx_hal_pcd.c **** 
 623:Drivers/STM32F4xx_HAL_Driver/Src/stm32f4xx_hal_pcd.c ****     return HAL_ERROR;
 624:Drivers/STM32F4xx_HAL_Driver/Src/stm32f4xx_hal_pcd.c ****   }
 625:Drivers/STM32F4xx_HAL_Driver/Src/stm32f4xx_hal_pcd.c **** 
 626:Drivers/STM32F4xx_HAL_Driver/Src/stm32f4xx_hal_pcd.c ****   /* Process locked */
 627:Drivers/STM32F4xx_HAL_Driver/Src/stm32f4xx_hal_pcd.c ****   __HAL_LOCK(hpcd);
 628:Drivers/STM32F4xx_HAL_Driver/Src/stm32f4xx_hal_pcd.c **** 
 629:Drivers/STM32F4xx_HAL_Driver/Src/stm32f4xx_hal_pcd.c ****   if (hpcd->State == HAL_PCD_STATE_READY)
 630:Drivers/STM32F4xx_HAL_Driver/Src/stm32f4xx_hal_pcd.c ****   {
 631:Drivers/STM32F4xx_HAL_Driver/Src/stm32f4xx_hal_pcd.c ****     hpcd->DataInStageCallback = pCallback;
 632:Drivers/STM32F4xx_HAL_Driver/Src/stm32f4xx_hal_pcd.c ****   }
 633:Drivers/STM32F4xx_HAL_Driver/Src/stm32f4xx_hal_pcd.c ****   else
 634:Drivers/STM32F4xx_HAL_Driver/Src/stm32f4xx_hal_pcd.c ****   {
 635:Drivers/STM32F4xx_HAL_Driver/Src/stm32f4xx_hal_pcd.c ****     /* Update the error code */
 636:Drivers/STM32F4xx_HAL_Driver/Src/stm32f4xx_hal_pcd.c ****     hpcd->ErrorCode |= HAL_PCD_ERROR_INVALID_CALLBACK;
 637:Drivers/STM32F4xx_HAL_Driver/Src/stm32f4xx_hal_pcd.c **** 
 638:Drivers/STM32F4xx_HAL_Driver/Src/stm32f4xx_hal_pcd.c ****     /* Return error status */
 639:Drivers/STM32F4xx_HAL_Driver/Src/stm32f4xx_hal_pcd.c ****     status =  HAL_ERROR;
ARM GAS  /var/folders/vq/qt4vp3kd5rxf7v2b6_fdtdt80000gn/T//cc6xBrdC.s 			page 22


 640:Drivers/STM32F4xx_HAL_Driver/Src/stm32f4xx_hal_pcd.c ****   }
 641:Drivers/STM32F4xx_HAL_Driver/Src/stm32f4xx_hal_pcd.c **** 
 642:Drivers/STM32F4xx_HAL_Driver/Src/stm32f4xx_hal_pcd.c ****   /* Release Lock */
 643:Drivers/STM32F4xx_HAL_Driver/Src/stm32f4xx_hal_pcd.c ****   __HAL_UNLOCK(hpcd);
 644:Drivers/STM32F4xx_HAL_Driver/Src/stm32f4xx_hal_pcd.c **** 
 645:Drivers/STM32F4xx_HAL_Driver/Src/stm32f4xx_hal_pcd.c ****   return status;
 646:Drivers/STM32F4xx_HAL_Driver/Src/stm32f4xx_hal_pcd.c **** }
 647:Drivers/STM32F4xx_HAL_Driver/Src/stm32f4xx_hal_pcd.c **** 
 648:Drivers/STM32F4xx_HAL_Driver/Src/stm32f4xx_hal_pcd.c **** /**
 649:Drivers/STM32F4xx_HAL_Driver/Src/stm32f4xx_hal_pcd.c ****   * @brief  Unregister the USB PCD Data IN Stage Callback
 650:Drivers/STM32F4xx_HAL_Driver/Src/stm32f4xx_hal_pcd.c ****   *         USB PCD Data OUT Stage Callback is redirected to the weak HAL_PCD_DataInStageCallback()
 651:Drivers/STM32F4xx_HAL_Driver/Src/stm32f4xx_hal_pcd.c ****   * @param  hpcd PCD handle
 652:Drivers/STM32F4xx_HAL_Driver/Src/stm32f4xx_hal_pcd.c ****   * @retval HAL status
 653:Drivers/STM32F4xx_HAL_Driver/Src/stm32f4xx_hal_pcd.c ****   */
 654:Drivers/STM32F4xx_HAL_Driver/Src/stm32f4xx_hal_pcd.c **** HAL_StatusTypeDef HAL_PCD_UnRegisterDataInStageCallback(PCD_HandleTypeDef *hpcd)
 655:Drivers/STM32F4xx_HAL_Driver/Src/stm32f4xx_hal_pcd.c **** {
 656:Drivers/STM32F4xx_HAL_Driver/Src/stm32f4xx_hal_pcd.c ****   HAL_StatusTypeDef status = HAL_OK;
 657:Drivers/STM32F4xx_HAL_Driver/Src/stm32f4xx_hal_pcd.c **** 
 658:Drivers/STM32F4xx_HAL_Driver/Src/stm32f4xx_hal_pcd.c ****   /* Process locked */
 659:Drivers/STM32F4xx_HAL_Driver/Src/stm32f4xx_hal_pcd.c ****   __HAL_LOCK(hpcd);
 660:Drivers/STM32F4xx_HAL_Driver/Src/stm32f4xx_hal_pcd.c **** 
 661:Drivers/STM32F4xx_HAL_Driver/Src/stm32f4xx_hal_pcd.c ****   if (hpcd->State == HAL_PCD_STATE_READY)
 662:Drivers/STM32F4xx_HAL_Driver/Src/stm32f4xx_hal_pcd.c ****   {
 663:Drivers/STM32F4xx_HAL_Driver/Src/stm32f4xx_hal_pcd.c ****     hpcd->DataInStageCallback = HAL_PCD_DataInStageCallback; /* Legacy weak DataInStageCallback  */
 664:Drivers/STM32F4xx_HAL_Driver/Src/stm32f4xx_hal_pcd.c ****   }
 665:Drivers/STM32F4xx_HAL_Driver/Src/stm32f4xx_hal_pcd.c ****   else
 666:Drivers/STM32F4xx_HAL_Driver/Src/stm32f4xx_hal_pcd.c ****   {
 667:Drivers/STM32F4xx_HAL_Driver/Src/stm32f4xx_hal_pcd.c ****     /* Update the error code */
 668:Drivers/STM32F4xx_HAL_Driver/Src/stm32f4xx_hal_pcd.c ****     hpcd->ErrorCode |= HAL_PCD_ERROR_INVALID_CALLBACK;
 669:Drivers/STM32F4xx_HAL_Driver/Src/stm32f4xx_hal_pcd.c **** 
 670:Drivers/STM32F4xx_HAL_Driver/Src/stm32f4xx_hal_pcd.c ****     /* Return error status */
 671:Drivers/STM32F4xx_HAL_Driver/Src/stm32f4xx_hal_pcd.c ****     status =  HAL_ERROR;
 672:Drivers/STM32F4xx_HAL_Driver/Src/stm32f4xx_hal_pcd.c ****   }
 673:Drivers/STM32F4xx_HAL_Driver/Src/stm32f4xx_hal_pcd.c **** 
 674:Drivers/STM32F4xx_HAL_Driver/Src/stm32f4xx_hal_pcd.c ****   /* Release Lock */
 675:Drivers/STM32F4xx_HAL_Driver/Src/stm32f4xx_hal_pcd.c ****   __HAL_UNLOCK(hpcd);
 676:Drivers/STM32F4xx_HAL_Driver/Src/stm32f4xx_hal_pcd.c **** 
 677:Drivers/STM32F4xx_HAL_Driver/Src/stm32f4xx_hal_pcd.c ****   return status;
 678:Drivers/STM32F4xx_HAL_Driver/Src/stm32f4xx_hal_pcd.c **** }
 679:Drivers/STM32F4xx_HAL_Driver/Src/stm32f4xx_hal_pcd.c **** 
 680:Drivers/STM32F4xx_HAL_Driver/Src/stm32f4xx_hal_pcd.c **** /**
 681:Drivers/STM32F4xx_HAL_Driver/Src/stm32f4xx_hal_pcd.c ****   * @brief  Register USB PCD Iso OUT incomplete Callback
 682:Drivers/STM32F4xx_HAL_Driver/Src/stm32f4xx_hal_pcd.c ****   *         To be used instead of the weak HAL_PCD_ISOOUTIncompleteCallback() predefined callback
 683:Drivers/STM32F4xx_HAL_Driver/Src/stm32f4xx_hal_pcd.c ****   * @param  hpcd PCD handle
 684:Drivers/STM32F4xx_HAL_Driver/Src/stm32f4xx_hal_pcd.c ****   * @param  pCallback pointer to the USB PCD Iso OUT incomplete Callback function
 685:Drivers/STM32F4xx_HAL_Driver/Src/stm32f4xx_hal_pcd.c ****   * @retval HAL status
 686:Drivers/STM32F4xx_HAL_Driver/Src/stm32f4xx_hal_pcd.c ****   */
 687:Drivers/STM32F4xx_HAL_Driver/Src/stm32f4xx_hal_pcd.c **** HAL_StatusTypeDef HAL_PCD_RegisterIsoOutIncpltCallback(PCD_HandleTypeDef *hpcd,
 688:Drivers/STM32F4xx_HAL_Driver/Src/stm32f4xx_hal_pcd.c ****                                                        pPCD_IsoOutIncpltCallbackTypeDef pCallback)
 689:Drivers/STM32F4xx_HAL_Driver/Src/stm32f4xx_hal_pcd.c **** {
 690:Drivers/STM32F4xx_HAL_Driver/Src/stm32f4xx_hal_pcd.c ****   HAL_StatusTypeDef status = HAL_OK;
 691:Drivers/STM32F4xx_HAL_Driver/Src/stm32f4xx_hal_pcd.c **** 
 692:Drivers/STM32F4xx_HAL_Driver/Src/stm32f4xx_hal_pcd.c ****   if (pCallback == NULL)
 693:Drivers/STM32F4xx_HAL_Driver/Src/stm32f4xx_hal_pcd.c ****   {
 694:Drivers/STM32F4xx_HAL_Driver/Src/stm32f4xx_hal_pcd.c ****     /* Update the error code */
 695:Drivers/STM32F4xx_HAL_Driver/Src/stm32f4xx_hal_pcd.c ****     hpcd->ErrorCode |= HAL_PCD_ERROR_INVALID_CALLBACK;
 696:Drivers/STM32F4xx_HAL_Driver/Src/stm32f4xx_hal_pcd.c **** 
ARM GAS  /var/folders/vq/qt4vp3kd5rxf7v2b6_fdtdt80000gn/T//cc6xBrdC.s 			page 23


 697:Drivers/STM32F4xx_HAL_Driver/Src/stm32f4xx_hal_pcd.c ****     return HAL_ERROR;
 698:Drivers/STM32F4xx_HAL_Driver/Src/stm32f4xx_hal_pcd.c ****   }
 699:Drivers/STM32F4xx_HAL_Driver/Src/stm32f4xx_hal_pcd.c **** 
 700:Drivers/STM32F4xx_HAL_Driver/Src/stm32f4xx_hal_pcd.c ****   /* Process locked */
 701:Drivers/STM32F4xx_HAL_Driver/Src/stm32f4xx_hal_pcd.c ****   __HAL_LOCK(hpcd);
 702:Drivers/STM32F4xx_HAL_Driver/Src/stm32f4xx_hal_pcd.c **** 
 703:Drivers/STM32F4xx_HAL_Driver/Src/stm32f4xx_hal_pcd.c ****   if (hpcd->State == HAL_PCD_STATE_READY)
 704:Drivers/STM32F4xx_HAL_Driver/Src/stm32f4xx_hal_pcd.c ****   {
 705:Drivers/STM32F4xx_HAL_Driver/Src/stm32f4xx_hal_pcd.c ****     hpcd->ISOOUTIncompleteCallback = pCallback;
 706:Drivers/STM32F4xx_HAL_Driver/Src/stm32f4xx_hal_pcd.c ****   }
 707:Drivers/STM32F4xx_HAL_Driver/Src/stm32f4xx_hal_pcd.c ****   else
 708:Drivers/STM32F4xx_HAL_Driver/Src/stm32f4xx_hal_pcd.c ****   {
 709:Drivers/STM32F4xx_HAL_Driver/Src/stm32f4xx_hal_pcd.c ****     /* Update the error code */
 710:Drivers/STM32F4xx_HAL_Driver/Src/stm32f4xx_hal_pcd.c ****     hpcd->ErrorCode |= HAL_PCD_ERROR_INVALID_CALLBACK;
 711:Drivers/STM32F4xx_HAL_Driver/Src/stm32f4xx_hal_pcd.c **** 
 712:Drivers/STM32F4xx_HAL_Driver/Src/stm32f4xx_hal_pcd.c ****     /* Return error status */
 713:Drivers/STM32F4xx_HAL_Driver/Src/stm32f4xx_hal_pcd.c ****     status =  HAL_ERROR;
 714:Drivers/STM32F4xx_HAL_Driver/Src/stm32f4xx_hal_pcd.c ****   }
 715:Drivers/STM32F4xx_HAL_Driver/Src/stm32f4xx_hal_pcd.c **** 
 716:Drivers/STM32F4xx_HAL_Driver/Src/stm32f4xx_hal_pcd.c ****   /* Release Lock */
 717:Drivers/STM32F4xx_HAL_Driver/Src/stm32f4xx_hal_pcd.c ****   __HAL_UNLOCK(hpcd);
 718:Drivers/STM32F4xx_HAL_Driver/Src/stm32f4xx_hal_pcd.c **** 
 719:Drivers/STM32F4xx_HAL_Driver/Src/stm32f4xx_hal_pcd.c ****   return status;
 720:Drivers/STM32F4xx_HAL_Driver/Src/stm32f4xx_hal_pcd.c **** }
 721:Drivers/STM32F4xx_HAL_Driver/Src/stm32f4xx_hal_pcd.c **** 
 722:Drivers/STM32F4xx_HAL_Driver/Src/stm32f4xx_hal_pcd.c **** /**
 723:Drivers/STM32F4xx_HAL_Driver/Src/stm32f4xx_hal_pcd.c ****   * @brief  Unregister the USB PCD Iso OUT incomplete Callback
 724:Drivers/STM32F4xx_HAL_Driver/Src/stm32f4xx_hal_pcd.c ****   *         USB PCD Iso OUT incomplete Callback is redirected to the weak HAL_PCD_ISOOUTIncompleteC
 725:Drivers/STM32F4xx_HAL_Driver/Src/stm32f4xx_hal_pcd.c ****   * @param  hpcd PCD handle
 726:Drivers/STM32F4xx_HAL_Driver/Src/stm32f4xx_hal_pcd.c ****   * @retval HAL status
 727:Drivers/STM32F4xx_HAL_Driver/Src/stm32f4xx_hal_pcd.c ****   */
 728:Drivers/STM32F4xx_HAL_Driver/Src/stm32f4xx_hal_pcd.c **** HAL_StatusTypeDef HAL_PCD_UnRegisterIsoOutIncpltCallback(PCD_HandleTypeDef *hpcd)
 729:Drivers/STM32F4xx_HAL_Driver/Src/stm32f4xx_hal_pcd.c **** {
 730:Drivers/STM32F4xx_HAL_Driver/Src/stm32f4xx_hal_pcd.c ****   HAL_StatusTypeDef status = HAL_OK;
 731:Drivers/STM32F4xx_HAL_Driver/Src/stm32f4xx_hal_pcd.c **** 
 732:Drivers/STM32F4xx_HAL_Driver/Src/stm32f4xx_hal_pcd.c ****   /* Process locked */
 733:Drivers/STM32F4xx_HAL_Driver/Src/stm32f4xx_hal_pcd.c ****   __HAL_LOCK(hpcd);
 734:Drivers/STM32F4xx_HAL_Driver/Src/stm32f4xx_hal_pcd.c **** 
 735:Drivers/STM32F4xx_HAL_Driver/Src/stm32f4xx_hal_pcd.c ****   if (hpcd->State == HAL_PCD_STATE_READY)
 736:Drivers/STM32F4xx_HAL_Driver/Src/stm32f4xx_hal_pcd.c ****   {
 737:Drivers/STM32F4xx_HAL_Driver/Src/stm32f4xx_hal_pcd.c ****     hpcd->ISOOUTIncompleteCallback = HAL_PCD_ISOOUTIncompleteCallback; /* Legacy weak ISOOUTIncompl
 738:Drivers/STM32F4xx_HAL_Driver/Src/stm32f4xx_hal_pcd.c ****   }
 739:Drivers/STM32F4xx_HAL_Driver/Src/stm32f4xx_hal_pcd.c ****   else
 740:Drivers/STM32F4xx_HAL_Driver/Src/stm32f4xx_hal_pcd.c ****   {
 741:Drivers/STM32F4xx_HAL_Driver/Src/stm32f4xx_hal_pcd.c ****     /* Update the error code */
 742:Drivers/STM32F4xx_HAL_Driver/Src/stm32f4xx_hal_pcd.c ****     hpcd->ErrorCode |= HAL_PCD_ERROR_INVALID_CALLBACK;
 743:Drivers/STM32F4xx_HAL_Driver/Src/stm32f4xx_hal_pcd.c **** 
 744:Drivers/STM32F4xx_HAL_Driver/Src/stm32f4xx_hal_pcd.c ****     /* Return error status */
 745:Drivers/STM32F4xx_HAL_Driver/Src/stm32f4xx_hal_pcd.c ****     status =  HAL_ERROR;
 746:Drivers/STM32F4xx_HAL_Driver/Src/stm32f4xx_hal_pcd.c ****   }
 747:Drivers/STM32F4xx_HAL_Driver/Src/stm32f4xx_hal_pcd.c **** 
 748:Drivers/STM32F4xx_HAL_Driver/Src/stm32f4xx_hal_pcd.c ****   /* Release Lock */
 749:Drivers/STM32F4xx_HAL_Driver/Src/stm32f4xx_hal_pcd.c ****   __HAL_UNLOCK(hpcd);
 750:Drivers/STM32F4xx_HAL_Driver/Src/stm32f4xx_hal_pcd.c **** 
 751:Drivers/STM32F4xx_HAL_Driver/Src/stm32f4xx_hal_pcd.c ****   return status;
 752:Drivers/STM32F4xx_HAL_Driver/Src/stm32f4xx_hal_pcd.c **** }
 753:Drivers/STM32F4xx_HAL_Driver/Src/stm32f4xx_hal_pcd.c **** 
ARM GAS  /var/folders/vq/qt4vp3kd5rxf7v2b6_fdtdt80000gn/T//cc6xBrdC.s 			page 24


 754:Drivers/STM32F4xx_HAL_Driver/Src/stm32f4xx_hal_pcd.c **** /**
 755:Drivers/STM32F4xx_HAL_Driver/Src/stm32f4xx_hal_pcd.c ****   * @brief  Register USB PCD Iso IN incomplete Callback
 756:Drivers/STM32F4xx_HAL_Driver/Src/stm32f4xx_hal_pcd.c ****   *         To be used instead of the weak HAL_PCD_ISOINIncompleteCallback() predefined callback
 757:Drivers/STM32F4xx_HAL_Driver/Src/stm32f4xx_hal_pcd.c ****   * @param  hpcd PCD handle
 758:Drivers/STM32F4xx_HAL_Driver/Src/stm32f4xx_hal_pcd.c ****   * @param  pCallback pointer to the USB PCD Iso IN incomplete Callback function
 759:Drivers/STM32F4xx_HAL_Driver/Src/stm32f4xx_hal_pcd.c ****   * @retval HAL status
 760:Drivers/STM32F4xx_HAL_Driver/Src/stm32f4xx_hal_pcd.c ****   */
 761:Drivers/STM32F4xx_HAL_Driver/Src/stm32f4xx_hal_pcd.c **** HAL_StatusTypeDef HAL_PCD_RegisterIsoInIncpltCallback(PCD_HandleTypeDef *hpcd,
 762:Drivers/STM32F4xx_HAL_Driver/Src/stm32f4xx_hal_pcd.c ****                                                       pPCD_IsoInIncpltCallbackTypeDef pCallback)
 763:Drivers/STM32F4xx_HAL_Driver/Src/stm32f4xx_hal_pcd.c **** {
 764:Drivers/STM32F4xx_HAL_Driver/Src/stm32f4xx_hal_pcd.c ****   HAL_StatusTypeDef status = HAL_OK;
 765:Drivers/STM32F4xx_HAL_Driver/Src/stm32f4xx_hal_pcd.c **** 
 766:Drivers/STM32F4xx_HAL_Driver/Src/stm32f4xx_hal_pcd.c ****   if (pCallback == NULL)
 767:Drivers/STM32F4xx_HAL_Driver/Src/stm32f4xx_hal_pcd.c ****   {
 768:Drivers/STM32F4xx_HAL_Driver/Src/stm32f4xx_hal_pcd.c ****     /* Update the error code */
 769:Drivers/STM32F4xx_HAL_Driver/Src/stm32f4xx_hal_pcd.c ****     hpcd->ErrorCode |= HAL_PCD_ERROR_INVALID_CALLBACK;
 770:Drivers/STM32F4xx_HAL_Driver/Src/stm32f4xx_hal_pcd.c **** 
 771:Drivers/STM32F4xx_HAL_Driver/Src/stm32f4xx_hal_pcd.c ****     return HAL_ERROR;
 772:Drivers/STM32F4xx_HAL_Driver/Src/stm32f4xx_hal_pcd.c ****   }
 773:Drivers/STM32F4xx_HAL_Driver/Src/stm32f4xx_hal_pcd.c **** 
 774:Drivers/STM32F4xx_HAL_Driver/Src/stm32f4xx_hal_pcd.c ****   /* Process locked */
 775:Drivers/STM32F4xx_HAL_Driver/Src/stm32f4xx_hal_pcd.c ****   __HAL_LOCK(hpcd);
 776:Drivers/STM32F4xx_HAL_Driver/Src/stm32f4xx_hal_pcd.c **** 
 777:Drivers/STM32F4xx_HAL_Driver/Src/stm32f4xx_hal_pcd.c ****   if (hpcd->State == HAL_PCD_STATE_READY)
 778:Drivers/STM32F4xx_HAL_Driver/Src/stm32f4xx_hal_pcd.c ****   {
 779:Drivers/STM32F4xx_HAL_Driver/Src/stm32f4xx_hal_pcd.c ****     hpcd->ISOINIncompleteCallback = pCallback;
 780:Drivers/STM32F4xx_HAL_Driver/Src/stm32f4xx_hal_pcd.c ****   }
 781:Drivers/STM32F4xx_HAL_Driver/Src/stm32f4xx_hal_pcd.c ****   else
 782:Drivers/STM32F4xx_HAL_Driver/Src/stm32f4xx_hal_pcd.c ****   {
 783:Drivers/STM32F4xx_HAL_Driver/Src/stm32f4xx_hal_pcd.c ****     /* Update the error code */
 784:Drivers/STM32F4xx_HAL_Driver/Src/stm32f4xx_hal_pcd.c ****     hpcd->ErrorCode |= HAL_PCD_ERROR_INVALID_CALLBACK;
 785:Drivers/STM32F4xx_HAL_Driver/Src/stm32f4xx_hal_pcd.c **** 
 786:Drivers/STM32F4xx_HAL_Driver/Src/stm32f4xx_hal_pcd.c ****     /* Return error status */
 787:Drivers/STM32F4xx_HAL_Driver/Src/stm32f4xx_hal_pcd.c ****     status =  HAL_ERROR;
 788:Drivers/STM32F4xx_HAL_Driver/Src/stm32f4xx_hal_pcd.c ****   }
 789:Drivers/STM32F4xx_HAL_Driver/Src/stm32f4xx_hal_pcd.c **** 
 790:Drivers/STM32F4xx_HAL_Driver/Src/stm32f4xx_hal_pcd.c ****   /* Release Lock */
 791:Drivers/STM32F4xx_HAL_Driver/Src/stm32f4xx_hal_pcd.c ****   __HAL_UNLOCK(hpcd);
 792:Drivers/STM32F4xx_HAL_Driver/Src/stm32f4xx_hal_pcd.c **** 
 793:Drivers/STM32F4xx_HAL_Driver/Src/stm32f4xx_hal_pcd.c ****   return status;
 794:Drivers/STM32F4xx_HAL_Driver/Src/stm32f4xx_hal_pcd.c **** }
 795:Drivers/STM32F4xx_HAL_Driver/Src/stm32f4xx_hal_pcd.c **** 
 796:Drivers/STM32F4xx_HAL_Driver/Src/stm32f4xx_hal_pcd.c **** /**
 797:Drivers/STM32F4xx_HAL_Driver/Src/stm32f4xx_hal_pcd.c ****   * @brief  Unregister the USB PCD Iso IN incomplete Callback
 798:Drivers/STM32F4xx_HAL_Driver/Src/stm32f4xx_hal_pcd.c ****   *         USB PCD Iso IN incomplete Callback is redirected to the weak HAL_PCD_ISOINIncompleteCal
 799:Drivers/STM32F4xx_HAL_Driver/Src/stm32f4xx_hal_pcd.c ****   * @param  hpcd PCD handle
 800:Drivers/STM32F4xx_HAL_Driver/Src/stm32f4xx_hal_pcd.c ****   * @retval HAL status
 801:Drivers/STM32F4xx_HAL_Driver/Src/stm32f4xx_hal_pcd.c ****   */
 802:Drivers/STM32F4xx_HAL_Driver/Src/stm32f4xx_hal_pcd.c **** HAL_StatusTypeDef HAL_PCD_UnRegisterIsoInIncpltCallback(PCD_HandleTypeDef *hpcd)
 803:Drivers/STM32F4xx_HAL_Driver/Src/stm32f4xx_hal_pcd.c **** {
 804:Drivers/STM32F4xx_HAL_Driver/Src/stm32f4xx_hal_pcd.c ****   HAL_StatusTypeDef status = HAL_OK;
 805:Drivers/STM32F4xx_HAL_Driver/Src/stm32f4xx_hal_pcd.c **** 
 806:Drivers/STM32F4xx_HAL_Driver/Src/stm32f4xx_hal_pcd.c ****   /* Process locked */
 807:Drivers/STM32F4xx_HAL_Driver/Src/stm32f4xx_hal_pcd.c ****   __HAL_LOCK(hpcd);
 808:Drivers/STM32F4xx_HAL_Driver/Src/stm32f4xx_hal_pcd.c **** 
 809:Drivers/STM32F4xx_HAL_Driver/Src/stm32f4xx_hal_pcd.c ****   if (hpcd->State == HAL_PCD_STATE_READY)
 810:Drivers/STM32F4xx_HAL_Driver/Src/stm32f4xx_hal_pcd.c ****   {
ARM GAS  /var/folders/vq/qt4vp3kd5rxf7v2b6_fdtdt80000gn/T//cc6xBrdC.s 			page 25


 811:Drivers/STM32F4xx_HAL_Driver/Src/stm32f4xx_hal_pcd.c ****     hpcd->ISOINIncompleteCallback = HAL_PCD_ISOINIncompleteCallback; /* Legacy weak ISOINIncomplete
 812:Drivers/STM32F4xx_HAL_Driver/Src/stm32f4xx_hal_pcd.c ****   }
 813:Drivers/STM32F4xx_HAL_Driver/Src/stm32f4xx_hal_pcd.c ****   else
 814:Drivers/STM32F4xx_HAL_Driver/Src/stm32f4xx_hal_pcd.c ****   {
 815:Drivers/STM32F4xx_HAL_Driver/Src/stm32f4xx_hal_pcd.c ****     /* Update the error code */
 816:Drivers/STM32F4xx_HAL_Driver/Src/stm32f4xx_hal_pcd.c ****     hpcd->ErrorCode |= HAL_PCD_ERROR_INVALID_CALLBACK;
 817:Drivers/STM32F4xx_HAL_Driver/Src/stm32f4xx_hal_pcd.c **** 
 818:Drivers/STM32F4xx_HAL_Driver/Src/stm32f4xx_hal_pcd.c ****     /* Return error status */
 819:Drivers/STM32F4xx_HAL_Driver/Src/stm32f4xx_hal_pcd.c ****     status =  HAL_ERROR;
 820:Drivers/STM32F4xx_HAL_Driver/Src/stm32f4xx_hal_pcd.c ****   }
 821:Drivers/STM32F4xx_HAL_Driver/Src/stm32f4xx_hal_pcd.c **** 
 822:Drivers/STM32F4xx_HAL_Driver/Src/stm32f4xx_hal_pcd.c ****   /* Release Lock */
 823:Drivers/STM32F4xx_HAL_Driver/Src/stm32f4xx_hal_pcd.c ****   __HAL_UNLOCK(hpcd);
 824:Drivers/STM32F4xx_HAL_Driver/Src/stm32f4xx_hal_pcd.c **** 
 825:Drivers/STM32F4xx_HAL_Driver/Src/stm32f4xx_hal_pcd.c ****   return status;
 826:Drivers/STM32F4xx_HAL_Driver/Src/stm32f4xx_hal_pcd.c **** }
 827:Drivers/STM32F4xx_HAL_Driver/Src/stm32f4xx_hal_pcd.c **** 
 828:Drivers/STM32F4xx_HAL_Driver/Src/stm32f4xx_hal_pcd.c **** /**
 829:Drivers/STM32F4xx_HAL_Driver/Src/stm32f4xx_hal_pcd.c ****   * @brief  Register USB PCD BCD Callback
 830:Drivers/STM32F4xx_HAL_Driver/Src/stm32f4xx_hal_pcd.c ****   *         To be used instead of the weak HAL_PCDEx_BCD_Callback() predefined callback
 831:Drivers/STM32F4xx_HAL_Driver/Src/stm32f4xx_hal_pcd.c ****   * @param  hpcd PCD handle
 832:Drivers/STM32F4xx_HAL_Driver/Src/stm32f4xx_hal_pcd.c ****   * @param  pCallback pointer to the USB PCD BCD Callback function
 833:Drivers/STM32F4xx_HAL_Driver/Src/stm32f4xx_hal_pcd.c ****   * @retval HAL status
 834:Drivers/STM32F4xx_HAL_Driver/Src/stm32f4xx_hal_pcd.c ****   */
 835:Drivers/STM32F4xx_HAL_Driver/Src/stm32f4xx_hal_pcd.c **** HAL_StatusTypeDef HAL_PCD_RegisterBcdCallback(PCD_HandleTypeDef *hpcd, pPCD_BcdCallbackTypeDef pCal
 836:Drivers/STM32F4xx_HAL_Driver/Src/stm32f4xx_hal_pcd.c **** {
 837:Drivers/STM32F4xx_HAL_Driver/Src/stm32f4xx_hal_pcd.c ****   HAL_StatusTypeDef status = HAL_OK;
 838:Drivers/STM32F4xx_HAL_Driver/Src/stm32f4xx_hal_pcd.c **** 
 839:Drivers/STM32F4xx_HAL_Driver/Src/stm32f4xx_hal_pcd.c ****   if (pCallback == NULL)
 840:Drivers/STM32F4xx_HAL_Driver/Src/stm32f4xx_hal_pcd.c ****   {
 841:Drivers/STM32F4xx_HAL_Driver/Src/stm32f4xx_hal_pcd.c ****     /* Update the error code */
 842:Drivers/STM32F4xx_HAL_Driver/Src/stm32f4xx_hal_pcd.c ****     hpcd->ErrorCode |= HAL_PCD_ERROR_INVALID_CALLBACK;
 843:Drivers/STM32F4xx_HAL_Driver/Src/stm32f4xx_hal_pcd.c **** 
 844:Drivers/STM32F4xx_HAL_Driver/Src/stm32f4xx_hal_pcd.c ****     return HAL_ERROR;
 845:Drivers/STM32F4xx_HAL_Driver/Src/stm32f4xx_hal_pcd.c ****   }
 846:Drivers/STM32F4xx_HAL_Driver/Src/stm32f4xx_hal_pcd.c **** 
 847:Drivers/STM32F4xx_HAL_Driver/Src/stm32f4xx_hal_pcd.c ****   /* Process locked */
 848:Drivers/STM32F4xx_HAL_Driver/Src/stm32f4xx_hal_pcd.c ****   __HAL_LOCK(hpcd);
 849:Drivers/STM32F4xx_HAL_Driver/Src/stm32f4xx_hal_pcd.c **** 
 850:Drivers/STM32F4xx_HAL_Driver/Src/stm32f4xx_hal_pcd.c ****   if (hpcd->State == HAL_PCD_STATE_READY)
 851:Drivers/STM32F4xx_HAL_Driver/Src/stm32f4xx_hal_pcd.c ****   {
 852:Drivers/STM32F4xx_HAL_Driver/Src/stm32f4xx_hal_pcd.c ****     hpcd->BCDCallback = pCallback;
 853:Drivers/STM32F4xx_HAL_Driver/Src/stm32f4xx_hal_pcd.c ****   }
 854:Drivers/STM32F4xx_HAL_Driver/Src/stm32f4xx_hal_pcd.c ****   else
 855:Drivers/STM32F4xx_HAL_Driver/Src/stm32f4xx_hal_pcd.c ****   {
 856:Drivers/STM32F4xx_HAL_Driver/Src/stm32f4xx_hal_pcd.c ****     /* Update the error code */
 857:Drivers/STM32F4xx_HAL_Driver/Src/stm32f4xx_hal_pcd.c ****     hpcd->ErrorCode |= HAL_PCD_ERROR_INVALID_CALLBACK;
 858:Drivers/STM32F4xx_HAL_Driver/Src/stm32f4xx_hal_pcd.c **** 
 859:Drivers/STM32F4xx_HAL_Driver/Src/stm32f4xx_hal_pcd.c ****     /* Return error status */
 860:Drivers/STM32F4xx_HAL_Driver/Src/stm32f4xx_hal_pcd.c ****     status =  HAL_ERROR;
 861:Drivers/STM32F4xx_HAL_Driver/Src/stm32f4xx_hal_pcd.c ****   }
 862:Drivers/STM32F4xx_HAL_Driver/Src/stm32f4xx_hal_pcd.c **** 
 863:Drivers/STM32F4xx_HAL_Driver/Src/stm32f4xx_hal_pcd.c ****   /* Release Lock */
 864:Drivers/STM32F4xx_HAL_Driver/Src/stm32f4xx_hal_pcd.c ****   __HAL_UNLOCK(hpcd);
 865:Drivers/STM32F4xx_HAL_Driver/Src/stm32f4xx_hal_pcd.c **** 
 866:Drivers/STM32F4xx_HAL_Driver/Src/stm32f4xx_hal_pcd.c ****   return status;
 867:Drivers/STM32F4xx_HAL_Driver/Src/stm32f4xx_hal_pcd.c **** }
ARM GAS  /var/folders/vq/qt4vp3kd5rxf7v2b6_fdtdt80000gn/T//cc6xBrdC.s 			page 26


 868:Drivers/STM32F4xx_HAL_Driver/Src/stm32f4xx_hal_pcd.c **** 
 869:Drivers/STM32F4xx_HAL_Driver/Src/stm32f4xx_hal_pcd.c **** /**
 870:Drivers/STM32F4xx_HAL_Driver/Src/stm32f4xx_hal_pcd.c ****   * @brief  Unregister the USB PCD BCD Callback
 871:Drivers/STM32F4xx_HAL_Driver/Src/stm32f4xx_hal_pcd.c ****   *         USB BCD Callback is redirected to the weak HAL_PCDEx_BCD_Callback() predefined callback
 872:Drivers/STM32F4xx_HAL_Driver/Src/stm32f4xx_hal_pcd.c ****   * @param  hpcd PCD handle
 873:Drivers/STM32F4xx_HAL_Driver/Src/stm32f4xx_hal_pcd.c ****   * @retval HAL status
 874:Drivers/STM32F4xx_HAL_Driver/Src/stm32f4xx_hal_pcd.c ****   */
 875:Drivers/STM32F4xx_HAL_Driver/Src/stm32f4xx_hal_pcd.c **** HAL_StatusTypeDef HAL_PCD_UnRegisterBcdCallback(PCD_HandleTypeDef *hpcd)
 876:Drivers/STM32F4xx_HAL_Driver/Src/stm32f4xx_hal_pcd.c **** {
 877:Drivers/STM32F4xx_HAL_Driver/Src/stm32f4xx_hal_pcd.c ****   HAL_StatusTypeDef status = HAL_OK;
 878:Drivers/STM32F4xx_HAL_Driver/Src/stm32f4xx_hal_pcd.c **** 
 879:Drivers/STM32F4xx_HAL_Driver/Src/stm32f4xx_hal_pcd.c ****   /* Process locked */
 880:Drivers/STM32F4xx_HAL_Driver/Src/stm32f4xx_hal_pcd.c ****   __HAL_LOCK(hpcd);
 881:Drivers/STM32F4xx_HAL_Driver/Src/stm32f4xx_hal_pcd.c **** 
 882:Drivers/STM32F4xx_HAL_Driver/Src/stm32f4xx_hal_pcd.c ****   if (hpcd->State == HAL_PCD_STATE_READY)
 883:Drivers/STM32F4xx_HAL_Driver/Src/stm32f4xx_hal_pcd.c ****   {
 884:Drivers/STM32F4xx_HAL_Driver/Src/stm32f4xx_hal_pcd.c ****     hpcd->BCDCallback = HAL_PCDEx_BCD_Callback; /* Legacy weak HAL_PCDEx_BCD_Callback  */
 885:Drivers/STM32F4xx_HAL_Driver/Src/stm32f4xx_hal_pcd.c ****   }
 886:Drivers/STM32F4xx_HAL_Driver/Src/stm32f4xx_hal_pcd.c ****   else
 887:Drivers/STM32F4xx_HAL_Driver/Src/stm32f4xx_hal_pcd.c ****   {
 888:Drivers/STM32F4xx_HAL_Driver/Src/stm32f4xx_hal_pcd.c ****     /* Update the error code */
 889:Drivers/STM32F4xx_HAL_Driver/Src/stm32f4xx_hal_pcd.c ****     hpcd->ErrorCode |= HAL_PCD_ERROR_INVALID_CALLBACK;
 890:Drivers/STM32F4xx_HAL_Driver/Src/stm32f4xx_hal_pcd.c **** 
 891:Drivers/STM32F4xx_HAL_Driver/Src/stm32f4xx_hal_pcd.c ****     /* Return error status */
 892:Drivers/STM32F4xx_HAL_Driver/Src/stm32f4xx_hal_pcd.c ****     status =  HAL_ERROR;
 893:Drivers/STM32F4xx_HAL_Driver/Src/stm32f4xx_hal_pcd.c ****   }
 894:Drivers/STM32F4xx_HAL_Driver/Src/stm32f4xx_hal_pcd.c **** 
 895:Drivers/STM32F4xx_HAL_Driver/Src/stm32f4xx_hal_pcd.c ****   /* Release Lock */
 896:Drivers/STM32F4xx_HAL_Driver/Src/stm32f4xx_hal_pcd.c ****   __HAL_UNLOCK(hpcd);
 897:Drivers/STM32F4xx_HAL_Driver/Src/stm32f4xx_hal_pcd.c **** 
 898:Drivers/STM32F4xx_HAL_Driver/Src/stm32f4xx_hal_pcd.c ****   return status;
 899:Drivers/STM32F4xx_HAL_Driver/Src/stm32f4xx_hal_pcd.c **** }
 900:Drivers/STM32F4xx_HAL_Driver/Src/stm32f4xx_hal_pcd.c **** 
 901:Drivers/STM32F4xx_HAL_Driver/Src/stm32f4xx_hal_pcd.c **** /**
 902:Drivers/STM32F4xx_HAL_Driver/Src/stm32f4xx_hal_pcd.c ****   * @brief  Register USB PCD LPM Callback
 903:Drivers/STM32F4xx_HAL_Driver/Src/stm32f4xx_hal_pcd.c ****   *         To be used instead of the weak HAL_PCDEx_LPM_Callback() predefined callback
 904:Drivers/STM32F4xx_HAL_Driver/Src/stm32f4xx_hal_pcd.c ****   * @param  hpcd PCD handle
 905:Drivers/STM32F4xx_HAL_Driver/Src/stm32f4xx_hal_pcd.c ****   * @param  pCallback pointer to the USB PCD LPM Callback function
 906:Drivers/STM32F4xx_HAL_Driver/Src/stm32f4xx_hal_pcd.c ****   * @retval HAL status
 907:Drivers/STM32F4xx_HAL_Driver/Src/stm32f4xx_hal_pcd.c ****   */
 908:Drivers/STM32F4xx_HAL_Driver/Src/stm32f4xx_hal_pcd.c **** HAL_StatusTypeDef HAL_PCD_RegisterLpmCallback(PCD_HandleTypeDef *hpcd, pPCD_LpmCallbackTypeDef pCal
 909:Drivers/STM32F4xx_HAL_Driver/Src/stm32f4xx_hal_pcd.c **** {
 910:Drivers/STM32F4xx_HAL_Driver/Src/stm32f4xx_hal_pcd.c ****   HAL_StatusTypeDef status = HAL_OK;
 911:Drivers/STM32F4xx_HAL_Driver/Src/stm32f4xx_hal_pcd.c **** 
 912:Drivers/STM32F4xx_HAL_Driver/Src/stm32f4xx_hal_pcd.c ****   if (pCallback == NULL)
 913:Drivers/STM32F4xx_HAL_Driver/Src/stm32f4xx_hal_pcd.c ****   {
 914:Drivers/STM32F4xx_HAL_Driver/Src/stm32f4xx_hal_pcd.c ****     /* Update the error code */
 915:Drivers/STM32F4xx_HAL_Driver/Src/stm32f4xx_hal_pcd.c ****     hpcd->ErrorCode |= HAL_PCD_ERROR_INVALID_CALLBACK;
 916:Drivers/STM32F4xx_HAL_Driver/Src/stm32f4xx_hal_pcd.c **** 
 917:Drivers/STM32F4xx_HAL_Driver/Src/stm32f4xx_hal_pcd.c ****     return HAL_ERROR;
 918:Drivers/STM32F4xx_HAL_Driver/Src/stm32f4xx_hal_pcd.c ****   }
 919:Drivers/STM32F4xx_HAL_Driver/Src/stm32f4xx_hal_pcd.c **** 
 920:Drivers/STM32F4xx_HAL_Driver/Src/stm32f4xx_hal_pcd.c ****   /* Process locked */
 921:Drivers/STM32F4xx_HAL_Driver/Src/stm32f4xx_hal_pcd.c ****   __HAL_LOCK(hpcd);
 922:Drivers/STM32F4xx_HAL_Driver/Src/stm32f4xx_hal_pcd.c **** 
 923:Drivers/STM32F4xx_HAL_Driver/Src/stm32f4xx_hal_pcd.c ****   if (hpcd->State == HAL_PCD_STATE_READY)
 924:Drivers/STM32F4xx_HAL_Driver/Src/stm32f4xx_hal_pcd.c ****   {
ARM GAS  /var/folders/vq/qt4vp3kd5rxf7v2b6_fdtdt80000gn/T//cc6xBrdC.s 			page 27


 925:Drivers/STM32F4xx_HAL_Driver/Src/stm32f4xx_hal_pcd.c ****     hpcd->LPMCallback = pCallback;
 926:Drivers/STM32F4xx_HAL_Driver/Src/stm32f4xx_hal_pcd.c ****   }
 927:Drivers/STM32F4xx_HAL_Driver/Src/stm32f4xx_hal_pcd.c ****   else
 928:Drivers/STM32F4xx_HAL_Driver/Src/stm32f4xx_hal_pcd.c ****   {
 929:Drivers/STM32F4xx_HAL_Driver/Src/stm32f4xx_hal_pcd.c ****     /* Update the error code */
 930:Drivers/STM32F4xx_HAL_Driver/Src/stm32f4xx_hal_pcd.c ****     hpcd->ErrorCode |= HAL_PCD_ERROR_INVALID_CALLBACK;
 931:Drivers/STM32F4xx_HAL_Driver/Src/stm32f4xx_hal_pcd.c **** 
 932:Drivers/STM32F4xx_HAL_Driver/Src/stm32f4xx_hal_pcd.c ****     /* Return error status */
 933:Drivers/STM32F4xx_HAL_Driver/Src/stm32f4xx_hal_pcd.c ****     status =  HAL_ERROR;
 934:Drivers/STM32F4xx_HAL_Driver/Src/stm32f4xx_hal_pcd.c ****   }
 935:Drivers/STM32F4xx_HAL_Driver/Src/stm32f4xx_hal_pcd.c **** 
 936:Drivers/STM32F4xx_HAL_Driver/Src/stm32f4xx_hal_pcd.c ****   /* Release Lock */
 937:Drivers/STM32F4xx_HAL_Driver/Src/stm32f4xx_hal_pcd.c ****   __HAL_UNLOCK(hpcd);
 938:Drivers/STM32F4xx_HAL_Driver/Src/stm32f4xx_hal_pcd.c **** 
 939:Drivers/STM32F4xx_HAL_Driver/Src/stm32f4xx_hal_pcd.c ****   return status;
 940:Drivers/STM32F4xx_HAL_Driver/Src/stm32f4xx_hal_pcd.c **** }
 941:Drivers/STM32F4xx_HAL_Driver/Src/stm32f4xx_hal_pcd.c **** 
 942:Drivers/STM32F4xx_HAL_Driver/Src/stm32f4xx_hal_pcd.c **** /**
 943:Drivers/STM32F4xx_HAL_Driver/Src/stm32f4xx_hal_pcd.c ****   * @brief  Unregister the USB PCD LPM Callback
 944:Drivers/STM32F4xx_HAL_Driver/Src/stm32f4xx_hal_pcd.c ****   *         USB LPM Callback is redirected to the weak HAL_PCDEx_LPM_Callback() predefined callback
 945:Drivers/STM32F4xx_HAL_Driver/Src/stm32f4xx_hal_pcd.c ****   * @param  hpcd PCD handle
 946:Drivers/STM32F4xx_HAL_Driver/Src/stm32f4xx_hal_pcd.c ****   * @retval HAL status
 947:Drivers/STM32F4xx_HAL_Driver/Src/stm32f4xx_hal_pcd.c ****   */
 948:Drivers/STM32F4xx_HAL_Driver/Src/stm32f4xx_hal_pcd.c **** HAL_StatusTypeDef HAL_PCD_UnRegisterLpmCallback(PCD_HandleTypeDef *hpcd)
 949:Drivers/STM32F4xx_HAL_Driver/Src/stm32f4xx_hal_pcd.c **** {
 950:Drivers/STM32F4xx_HAL_Driver/Src/stm32f4xx_hal_pcd.c ****   HAL_StatusTypeDef status = HAL_OK;
 951:Drivers/STM32F4xx_HAL_Driver/Src/stm32f4xx_hal_pcd.c **** 
 952:Drivers/STM32F4xx_HAL_Driver/Src/stm32f4xx_hal_pcd.c ****   /* Process locked */
 953:Drivers/STM32F4xx_HAL_Driver/Src/stm32f4xx_hal_pcd.c ****   __HAL_LOCK(hpcd);
 954:Drivers/STM32F4xx_HAL_Driver/Src/stm32f4xx_hal_pcd.c **** 
 955:Drivers/STM32F4xx_HAL_Driver/Src/stm32f4xx_hal_pcd.c ****   if (hpcd->State == HAL_PCD_STATE_READY)
 956:Drivers/STM32F4xx_HAL_Driver/Src/stm32f4xx_hal_pcd.c ****   {
 957:Drivers/STM32F4xx_HAL_Driver/Src/stm32f4xx_hal_pcd.c ****     hpcd->LPMCallback = HAL_PCDEx_LPM_Callback; /* Legacy weak HAL_PCDEx_LPM_Callback  */
 958:Drivers/STM32F4xx_HAL_Driver/Src/stm32f4xx_hal_pcd.c ****   }
 959:Drivers/STM32F4xx_HAL_Driver/Src/stm32f4xx_hal_pcd.c ****   else
 960:Drivers/STM32F4xx_HAL_Driver/Src/stm32f4xx_hal_pcd.c ****   {
 961:Drivers/STM32F4xx_HAL_Driver/Src/stm32f4xx_hal_pcd.c ****     /* Update the error code */
 962:Drivers/STM32F4xx_HAL_Driver/Src/stm32f4xx_hal_pcd.c ****     hpcd->ErrorCode |= HAL_PCD_ERROR_INVALID_CALLBACK;
 963:Drivers/STM32F4xx_HAL_Driver/Src/stm32f4xx_hal_pcd.c **** 
 964:Drivers/STM32F4xx_HAL_Driver/Src/stm32f4xx_hal_pcd.c ****     /* Return error status */
 965:Drivers/STM32F4xx_HAL_Driver/Src/stm32f4xx_hal_pcd.c ****     status =  HAL_ERROR;
 966:Drivers/STM32F4xx_HAL_Driver/Src/stm32f4xx_hal_pcd.c ****   }
 967:Drivers/STM32F4xx_HAL_Driver/Src/stm32f4xx_hal_pcd.c **** 
 968:Drivers/STM32F4xx_HAL_Driver/Src/stm32f4xx_hal_pcd.c ****   /* Release Lock */
 969:Drivers/STM32F4xx_HAL_Driver/Src/stm32f4xx_hal_pcd.c ****   __HAL_UNLOCK(hpcd);
 970:Drivers/STM32F4xx_HAL_Driver/Src/stm32f4xx_hal_pcd.c **** 
 971:Drivers/STM32F4xx_HAL_Driver/Src/stm32f4xx_hal_pcd.c ****   return status;
 972:Drivers/STM32F4xx_HAL_Driver/Src/stm32f4xx_hal_pcd.c **** }
 973:Drivers/STM32F4xx_HAL_Driver/Src/stm32f4xx_hal_pcd.c **** #endif /* USE_HAL_PCD_REGISTER_CALLBACKS */
 974:Drivers/STM32F4xx_HAL_Driver/Src/stm32f4xx_hal_pcd.c **** 
 975:Drivers/STM32F4xx_HAL_Driver/Src/stm32f4xx_hal_pcd.c **** /**
 976:Drivers/STM32F4xx_HAL_Driver/Src/stm32f4xx_hal_pcd.c ****   * @}
 977:Drivers/STM32F4xx_HAL_Driver/Src/stm32f4xx_hal_pcd.c ****   */
 978:Drivers/STM32F4xx_HAL_Driver/Src/stm32f4xx_hal_pcd.c **** 
 979:Drivers/STM32F4xx_HAL_Driver/Src/stm32f4xx_hal_pcd.c **** /** @defgroup PCD_Exported_Functions_Group2 Input and Output operation functions
 980:Drivers/STM32F4xx_HAL_Driver/Src/stm32f4xx_hal_pcd.c ****   *  @brief   Data transfers functions
 981:Drivers/STM32F4xx_HAL_Driver/Src/stm32f4xx_hal_pcd.c ****   *
ARM GAS  /var/folders/vq/qt4vp3kd5rxf7v2b6_fdtdt80000gn/T//cc6xBrdC.s 			page 28


 982:Drivers/STM32F4xx_HAL_Driver/Src/stm32f4xx_hal_pcd.c **** @verbatim
 983:Drivers/STM32F4xx_HAL_Driver/Src/stm32f4xx_hal_pcd.c ****  ===============================================================================
 984:Drivers/STM32F4xx_HAL_Driver/Src/stm32f4xx_hal_pcd.c ****                       ##### IO operation functions #####
 985:Drivers/STM32F4xx_HAL_Driver/Src/stm32f4xx_hal_pcd.c ****  ===============================================================================
 986:Drivers/STM32F4xx_HAL_Driver/Src/stm32f4xx_hal_pcd.c ****     [..]
 987:Drivers/STM32F4xx_HAL_Driver/Src/stm32f4xx_hal_pcd.c ****     This subsection provides a set of functions allowing to manage the PCD data
 988:Drivers/STM32F4xx_HAL_Driver/Src/stm32f4xx_hal_pcd.c ****     transfers.
 989:Drivers/STM32F4xx_HAL_Driver/Src/stm32f4xx_hal_pcd.c **** 
 990:Drivers/STM32F4xx_HAL_Driver/Src/stm32f4xx_hal_pcd.c **** @endverbatim
 991:Drivers/STM32F4xx_HAL_Driver/Src/stm32f4xx_hal_pcd.c ****   * @{
 992:Drivers/STM32F4xx_HAL_Driver/Src/stm32f4xx_hal_pcd.c ****   */
 993:Drivers/STM32F4xx_HAL_Driver/Src/stm32f4xx_hal_pcd.c **** 
 994:Drivers/STM32F4xx_HAL_Driver/Src/stm32f4xx_hal_pcd.c **** /**
 995:Drivers/STM32F4xx_HAL_Driver/Src/stm32f4xx_hal_pcd.c ****   * @brief  Start the USB device
 996:Drivers/STM32F4xx_HAL_Driver/Src/stm32f4xx_hal_pcd.c ****   * @param  hpcd PCD handle
 997:Drivers/STM32F4xx_HAL_Driver/Src/stm32f4xx_hal_pcd.c ****   * @retval HAL status
 998:Drivers/STM32F4xx_HAL_Driver/Src/stm32f4xx_hal_pcd.c ****   */
 999:Drivers/STM32F4xx_HAL_Driver/Src/stm32f4xx_hal_pcd.c **** HAL_StatusTypeDef HAL_PCD_Start(PCD_HandleTypeDef *hpcd)
1000:Drivers/STM32F4xx_HAL_Driver/Src/stm32f4xx_hal_pcd.c **** {
 560              		.loc 1 1000 1
 561              		.cfi_startproc
 562              		@ args = 0, pretend = 0, frame = 16
 563              		@ frame_needed = 1, uses_anonymous_args = 0
 564 0000 80B5     		push	{r7, lr}
 565              	.LCFI22:
 566              		.cfi_def_cfa_offset 8
 567              		.cfi_offset 7, -8
 568              		.cfi_offset 14, -4
 569 0002 84B0     		sub	sp, sp, #16
 570              	.LCFI23:
 571              		.cfi_def_cfa_offset 24
 572 0004 00AF     		add	r7, sp, #0
 573              	.LCFI24:
 574              		.cfi_def_cfa_register 7
 575 0006 7860     		str	r0, [r7, #4]
1001:Drivers/STM32F4xx_HAL_Driver/Src/stm32f4xx_hal_pcd.c ****   USB_OTG_GlobalTypeDef *USBx = hpcd->Instance;
 576              		.loc 1 1001 26
 577 0008 7B68     		ldr	r3, [r7, #4]
 578 000a 1B68     		ldr	r3, [r3]
 579 000c FB60     		str	r3, [r7, #12]
1002:Drivers/STM32F4xx_HAL_Driver/Src/stm32f4xx_hal_pcd.c **** 
1003:Drivers/STM32F4xx_HAL_Driver/Src/stm32f4xx_hal_pcd.c ****   __HAL_LOCK(hpcd);
 580              		.loc 1 1003 3
 581 000e 7B68     		ldr	r3, [r7, #4]
 582 0010 93F8BC33 		ldrb	r3, [r3, #956]	@ zero_extendqisi2
 583 0014 012B     		cmp	r3, #1
 584 0016 01D1     		bne	.L19
 585              		.loc 1 1003 3 is_stmt 0 discriminator 1
 586 0018 0223     		movs	r3, #2
 587 001a 20E0     		b	.L20
 588              	.L19:
 589              		.loc 1 1003 3 discriminator 2
 590 001c 7B68     		ldr	r3, [r7, #4]
 591 001e 0122     		movs	r2, #1
 592 0020 83F8BC23 		strb	r2, [r3, #956]
1004:Drivers/STM32F4xx_HAL_Driver/Src/stm32f4xx_hal_pcd.c **** 
1005:Drivers/STM32F4xx_HAL_Driver/Src/stm32f4xx_hal_pcd.c ****   if ((hpcd->Init.battery_charging_enable == 1U) &&
ARM GAS  /var/folders/vq/qt4vp3kd5rxf7v2b6_fdtdt80000gn/T//cc6xBrdC.s 			page 29


 593              		.loc 1 1005 18 is_stmt 1 discriminator 2
 594 0024 7B68     		ldr	r3, [r7, #4]
 595 0026 9B6A     		ldr	r3, [r3, #40]
 596              		.loc 1 1005 6 discriminator 2
 597 0028 012B     		cmp	r3, #1
 598 002a 09D1     		bne	.L21
1006:Drivers/STM32F4xx_HAL_Driver/Src/stm32f4xx_hal_pcd.c ****       (hpcd->Init.phy_itface != USB_OTG_ULPI_PHY))
 599              		.loc 1 1006 18 discriminator 1
 600 002c 7B68     		ldr	r3, [r7, #4]
 601 002e 9B69     		ldr	r3, [r3, #24]
1005:Drivers/STM32F4xx_HAL_Driver/Src/stm32f4xx_hal_pcd.c ****       (hpcd->Init.phy_itface != USB_OTG_ULPI_PHY))
 602              		.loc 1 1005 50 discriminator 1
 603 0030 012B     		cmp	r3, #1
 604 0032 05D0     		beq	.L21
1007:Drivers/STM32F4xx_HAL_Driver/Src/stm32f4xx_hal_pcd.c ****   {
1008:Drivers/STM32F4xx_HAL_Driver/Src/stm32f4xx_hal_pcd.c ****     /* Enable USB Transceiver */
1009:Drivers/STM32F4xx_HAL_Driver/Src/stm32f4xx_hal_pcd.c ****     USBx->GCCFG |= USB_OTG_GCCFG_PWRDWN;
 605              		.loc 1 1009 17
 606 0034 FB68     		ldr	r3, [r7, #12]
 607 0036 9B6B     		ldr	r3, [r3, #56]
 608 0038 43F48032 		orr	r2, r3, #65536
 609 003c FB68     		ldr	r3, [r7, #12]
 610 003e 9A63     		str	r2, [r3, #56]
 611              	.L21:
1010:Drivers/STM32F4xx_HAL_Driver/Src/stm32f4xx_hal_pcd.c ****   }
1011:Drivers/STM32F4xx_HAL_Driver/Src/stm32f4xx_hal_pcd.c **** 
1012:Drivers/STM32F4xx_HAL_Driver/Src/stm32f4xx_hal_pcd.c ****   __HAL_PCD_ENABLE(hpcd);
 612              		.loc 1 1012 3
 613 0040 7B68     		ldr	r3, [r7, #4]
 614 0042 1B68     		ldr	r3, [r3]
 615 0044 1846     		mov	r0, r3
 616 0046 FFF7FEFF 		bl	USB_EnableGlobalInt
1013:Drivers/STM32F4xx_HAL_Driver/Src/stm32f4xx_hal_pcd.c ****   (void)USB_DevConnect(hpcd->Instance);
 617              		.loc 1 1013 28
 618 004a 7B68     		ldr	r3, [r7, #4]
 619 004c 1B68     		ldr	r3, [r3]
 620              		.loc 1 1013 9
 621 004e 1846     		mov	r0, r3
 622 0050 FFF7FEFF 		bl	USB_DevConnect
1014:Drivers/STM32F4xx_HAL_Driver/Src/stm32f4xx_hal_pcd.c ****   __HAL_UNLOCK(hpcd);
 623              		.loc 1 1014 3
 624 0054 7B68     		ldr	r3, [r7, #4]
 625 0056 0022     		movs	r2, #0
 626 0058 83F8BC23 		strb	r2, [r3, #956]
1015:Drivers/STM32F4xx_HAL_Driver/Src/stm32f4xx_hal_pcd.c **** 
1016:Drivers/STM32F4xx_HAL_Driver/Src/stm32f4xx_hal_pcd.c ****   return HAL_OK;
 627              		.loc 1 1016 10
 628 005c 0023     		movs	r3, #0
 629              	.L20:
1017:Drivers/STM32F4xx_HAL_Driver/Src/stm32f4xx_hal_pcd.c **** }
 630              		.loc 1 1017 1
 631 005e 1846     		mov	r0, r3
 632 0060 1037     		adds	r7, r7, #16
 633              	.LCFI25:
 634              		.cfi_def_cfa_offset 8
 635 0062 BD46     		mov	sp, r7
 636              	.LCFI26:
ARM GAS  /var/folders/vq/qt4vp3kd5rxf7v2b6_fdtdt80000gn/T//cc6xBrdC.s 			page 30


 637              		.cfi_def_cfa_register 13
 638              		@ sp needed
 639 0064 80BD     		pop	{r7, pc}
 640              		.cfi_endproc
 641              	.LFE134:
 643              		.section	.text.HAL_PCD_Stop,"ax",%progbits
 644              		.align	1
 645              		.global	HAL_PCD_Stop
 646              		.syntax unified
 647              		.thumb
 648              		.thumb_func
 649              		.fpu fpv4-sp-d16
 651              	HAL_PCD_Stop:
 652              	.LFB135:
1018:Drivers/STM32F4xx_HAL_Driver/Src/stm32f4xx_hal_pcd.c **** 
1019:Drivers/STM32F4xx_HAL_Driver/Src/stm32f4xx_hal_pcd.c **** /**
1020:Drivers/STM32F4xx_HAL_Driver/Src/stm32f4xx_hal_pcd.c ****   * @brief  Stop the USB device.
1021:Drivers/STM32F4xx_HAL_Driver/Src/stm32f4xx_hal_pcd.c ****   * @param  hpcd PCD handle
1022:Drivers/STM32F4xx_HAL_Driver/Src/stm32f4xx_hal_pcd.c ****   * @retval HAL status
1023:Drivers/STM32F4xx_HAL_Driver/Src/stm32f4xx_hal_pcd.c ****   */
1024:Drivers/STM32F4xx_HAL_Driver/Src/stm32f4xx_hal_pcd.c **** HAL_StatusTypeDef HAL_PCD_Stop(PCD_HandleTypeDef *hpcd)
1025:Drivers/STM32F4xx_HAL_Driver/Src/stm32f4xx_hal_pcd.c **** {
 653              		.loc 1 1025 1
 654              		.cfi_startproc
 655              		@ args = 0, pretend = 0, frame = 16
 656              		@ frame_needed = 1, uses_anonymous_args = 0
 657 0000 80B5     		push	{r7, lr}
 658              	.LCFI27:
 659              		.cfi_def_cfa_offset 8
 660              		.cfi_offset 7, -8
 661              		.cfi_offset 14, -4
 662 0002 84B0     		sub	sp, sp, #16
 663              	.LCFI28:
 664              		.cfi_def_cfa_offset 24
 665 0004 00AF     		add	r7, sp, #0
 666              	.LCFI29:
 667              		.cfi_def_cfa_register 7
 668 0006 7860     		str	r0, [r7, #4]
1026:Drivers/STM32F4xx_HAL_Driver/Src/stm32f4xx_hal_pcd.c ****   USB_OTG_GlobalTypeDef *USBx = hpcd->Instance;
 669              		.loc 1 1026 26
 670 0008 7B68     		ldr	r3, [r7, #4]
 671 000a 1B68     		ldr	r3, [r3]
 672 000c FB60     		str	r3, [r7, #12]
1027:Drivers/STM32F4xx_HAL_Driver/Src/stm32f4xx_hal_pcd.c **** 
1028:Drivers/STM32F4xx_HAL_Driver/Src/stm32f4xx_hal_pcd.c ****   __HAL_LOCK(hpcd);
 673              		.loc 1 1028 3
 674 000e 7B68     		ldr	r3, [r7, #4]
 675 0010 93F8BC33 		ldrb	r3, [r3, #956]	@ zero_extendqisi2
 676 0014 012B     		cmp	r3, #1
 677 0016 01D1     		bne	.L23
 678              		.loc 1 1028 3 is_stmt 0 discriminator 1
 679 0018 0223     		movs	r3, #2
 680 001a 26E0     		b	.L24
 681              	.L23:
 682              		.loc 1 1028 3 discriminator 2
 683 001c 7B68     		ldr	r3, [r7, #4]
 684 001e 0122     		movs	r2, #1
ARM GAS  /var/folders/vq/qt4vp3kd5rxf7v2b6_fdtdt80000gn/T//cc6xBrdC.s 			page 31


 685 0020 83F8BC23 		strb	r2, [r3, #956]
1029:Drivers/STM32F4xx_HAL_Driver/Src/stm32f4xx_hal_pcd.c ****   __HAL_PCD_DISABLE(hpcd);
 686              		.loc 1 1029 3 is_stmt 1 discriminator 2
 687 0024 7B68     		ldr	r3, [r7, #4]
 688 0026 1B68     		ldr	r3, [r3]
 689 0028 1846     		mov	r0, r3
 690 002a FFF7FEFF 		bl	USB_DisableGlobalInt
1030:Drivers/STM32F4xx_HAL_Driver/Src/stm32f4xx_hal_pcd.c ****   (void)USB_DevDisconnect(hpcd->Instance);
 691              		.loc 1 1030 31 discriminator 2
 692 002e 7B68     		ldr	r3, [r7, #4]
 693 0030 1B68     		ldr	r3, [r3]
 694              		.loc 1 1030 9 discriminator 2
 695 0032 1846     		mov	r0, r3
 696 0034 FFF7FEFF 		bl	USB_DevDisconnect
1031:Drivers/STM32F4xx_HAL_Driver/Src/stm32f4xx_hal_pcd.c **** 
1032:Drivers/STM32F4xx_HAL_Driver/Src/stm32f4xx_hal_pcd.c ****   (void)USB_FlushTxFifo(hpcd->Instance, 0x10U);
 697              		.loc 1 1032 29 discriminator 2
 698 0038 7B68     		ldr	r3, [r7, #4]
 699 003a 1B68     		ldr	r3, [r3]
 700              		.loc 1 1032 9 discriminator 2
 701 003c 1021     		movs	r1, #16
 702 003e 1846     		mov	r0, r3
 703 0040 FFF7FEFF 		bl	USB_FlushTxFifo
1033:Drivers/STM32F4xx_HAL_Driver/Src/stm32f4xx_hal_pcd.c **** 
1034:Drivers/STM32F4xx_HAL_Driver/Src/stm32f4xx_hal_pcd.c ****   if ((hpcd->Init.battery_charging_enable == 1U) &&
 704              		.loc 1 1034 18 discriminator 2
 705 0044 7B68     		ldr	r3, [r7, #4]
 706 0046 9B6A     		ldr	r3, [r3, #40]
 707              		.loc 1 1034 6 discriminator 2
 708 0048 012B     		cmp	r3, #1
 709 004a 09D1     		bne	.L25
1035:Drivers/STM32F4xx_HAL_Driver/Src/stm32f4xx_hal_pcd.c ****       (hpcd->Init.phy_itface != USB_OTG_ULPI_PHY))
 710              		.loc 1 1035 18 discriminator 1
 711 004c 7B68     		ldr	r3, [r7, #4]
 712 004e 9B69     		ldr	r3, [r3, #24]
1034:Drivers/STM32F4xx_HAL_Driver/Src/stm32f4xx_hal_pcd.c ****       (hpcd->Init.phy_itface != USB_OTG_ULPI_PHY))
 713              		.loc 1 1034 50 discriminator 1
 714 0050 012B     		cmp	r3, #1
 715 0052 05D0     		beq	.L25
1036:Drivers/STM32F4xx_HAL_Driver/Src/stm32f4xx_hal_pcd.c ****   {
1037:Drivers/STM32F4xx_HAL_Driver/Src/stm32f4xx_hal_pcd.c ****     /* Disable USB Transceiver */
1038:Drivers/STM32F4xx_HAL_Driver/Src/stm32f4xx_hal_pcd.c ****     USBx->GCCFG &= ~(USB_OTG_GCCFG_PWRDWN);
 716              		.loc 1 1038 17
 717 0054 FB68     		ldr	r3, [r7, #12]
 718 0056 9B6B     		ldr	r3, [r3, #56]
 719 0058 23F48032 		bic	r2, r3, #65536
 720 005c FB68     		ldr	r3, [r7, #12]
 721 005e 9A63     		str	r2, [r3, #56]
 722              	.L25:
1039:Drivers/STM32F4xx_HAL_Driver/Src/stm32f4xx_hal_pcd.c ****   }
1040:Drivers/STM32F4xx_HAL_Driver/Src/stm32f4xx_hal_pcd.c ****   __HAL_UNLOCK(hpcd);
 723              		.loc 1 1040 3
 724 0060 7B68     		ldr	r3, [r7, #4]
 725 0062 0022     		movs	r2, #0
 726 0064 83F8BC23 		strb	r2, [r3, #956]
1041:Drivers/STM32F4xx_HAL_Driver/Src/stm32f4xx_hal_pcd.c **** 
1042:Drivers/STM32F4xx_HAL_Driver/Src/stm32f4xx_hal_pcd.c ****   return HAL_OK;
ARM GAS  /var/folders/vq/qt4vp3kd5rxf7v2b6_fdtdt80000gn/T//cc6xBrdC.s 			page 32


 727              		.loc 1 1042 10
 728 0068 0023     		movs	r3, #0
 729              	.L24:
1043:Drivers/STM32F4xx_HAL_Driver/Src/stm32f4xx_hal_pcd.c **** }
 730              		.loc 1 1043 1
 731 006a 1846     		mov	r0, r3
 732 006c 1037     		adds	r7, r7, #16
 733              	.LCFI30:
 734              		.cfi_def_cfa_offset 8
 735 006e BD46     		mov	sp, r7
 736              	.LCFI31:
 737              		.cfi_def_cfa_register 13
 738              		@ sp needed
 739 0070 80BD     		pop	{r7, pc}
 740              		.cfi_endproc
 741              	.LFE135:
 743              		.section	.text.HAL_PCD_IRQHandler,"ax",%progbits
 744              		.align	1
 745              		.global	HAL_PCD_IRQHandler
 746              		.syntax unified
 747              		.thumb
 748              		.thumb_func
 749              		.fpu fpv4-sp-d16
 751              	HAL_PCD_IRQHandler:
 752              	.LFB136:
1044:Drivers/STM32F4xx_HAL_Driver/Src/stm32f4xx_hal_pcd.c **** 
1045:Drivers/STM32F4xx_HAL_Driver/Src/stm32f4xx_hal_pcd.c **** #if defined (USB_OTG_FS) || defined (USB_OTG_HS)
1046:Drivers/STM32F4xx_HAL_Driver/Src/stm32f4xx_hal_pcd.c **** /**
1047:Drivers/STM32F4xx_HAL_Driver/Src/stm32f4xx_hal_pcd.c ****   * @brief  Handles PCD interrupt request.
1048:Drivers/STM32F4xx_HAL_Driver/Src/stm32f4xx_hal_pcd.c ****   * @param  hpcd PCD handle
1049:Drivers/STM32F4xx_HAL_Driver/Src/stm32f4xx_hal_pcd.c ****   * @retval HAL status
1050:Drivers/STM32F4xx_HAL_Driver/Src/stm32f4xx_hal_pcd.c ****   */
1051:Drivers/STM32F4xx_HAL_Driver/Src/stm32f4xx_hal_pcd.c **** void HAL_PCD_IRQHandler(PCD_HandleTypeDef *hpcd)
1052:Drivers/STM32F4xx_HAL_Driver/Src/stm32f4xx_hal_pcd.c **** {
 753              		.loc 1 1052 1
 754              		.cfi_startproc
 755              		@ args = 0, pretend = 0, frame = 48
 756              		@ frame_needed = 1, uses_anonymous_args = 0
 757 0000 90B5     		push	{r4, r7, lr}
 758              	.LCFI32:
 759              		.cfi_def_cfa_offset 12
 760              		.cfi_offset 4, -12
 761              		.cfi_offset 7, -8
 762              		.cfi_offset 14, -4
 763 0002 8DB0     		sub	sp, sp, #52
 764              	.LCFI33:
 765              		.cfi_def_cfa_offset 64
 766 0004 00AF     		add	r7, sp, #0
 767              	.LCFI34:
 768              		.cfi_def_cfa_register 7
 769 0006 7860     		str	r0, [r7, #4]
1053:Drivers/STM32F4xx_HAL_Driver/Src/stm32f4xx_hal_pcd.c ****   USB_OTG_GlobalTypeDef *USBx = hpcd->Instance;
 770              		.loc 1 1053 26
 771 0008 7B68     		ldr	r3, [r7, #4]
 772 000a 1B68     		ldr	r3, [r3]
 773 000c 3B62     		str	r3, [r7, #32]
1054:Drivers/STM32F4xx_HAL_Driver/Src/stm32f4xx_hal_pcd.c ****   uint32_t USBx_BASE = (uint32_t)USBx;
ARM GAS  /var/folders/vq/qt4vp3kd5rxf7v2b6_fdtdt80000gn/T//cc6xBrdC.s 			page 33


 774              		.loc 1 1054 12
 775 000e 3B6A     		ldr	r3, [r7, #32]
 776 0010 FB61     		str	r3, [r7, #28]
1055:Drivers/STM32F4xx_HAL_Driver/Src/stm32f4xx_hal_pcd.c ****   uint32_t i, ep_intr, epint, epnum;
1056:Drivers/STM32F4xx_HAL_Driver/Src/stm32f4xx_hal_pcd.c ****   uint32_t fifoemptymsk, temp;
1057:Drivers/STM32F4xx_HAL_Driver/Src/stm32f4xx_hal_pcd.c ****   USB_OTG_EPTypeDef *ep;
1058:Drivers/STM32F4xx_HAL_Driver/Src/stm32f4xx_hal_pcd.c **** 
1059:Drivers/STM32F4xx_HAL_Driver/Src/stm32f4xx_hal_pcd.c ****   /* ensure that we are in device mode */
1060:Drivers/STM32F4xx_HAL_Driver/Src/stm32f4xx_hal_pcd.c ****   if (USB_GetMode(hpcd->Instance) == USB_OTG_MODE_DEVICE)
 777              		.loc 1 1060 23
 778 0012 7B68     		ldr	r3, [r7, #4]
 779 0014 1B68     		ldr	r3, [r3]
 780              		.loc 1 1060 7
 781 0016 1846     		mov	r0, r3
 782 0018 FFF7FEFF 		bl	USB_GetMode
 783 001c 0346     		mov	r3, r0
 784              		.loc 1 1060 6
 785 001e 002B     		cmp	r3, #0
 786 0020 40F09D83 		bne	.L26
1061:Drivers/STM32F4xx_HAL_Driver/Src/stm32f4xx_hal_pcd.c ****   {
1062:Drivers/STM32F4xx_HAL_Driver/Src/stm32f4xx_hal_pcd.c ****     /* avoid spurious interrupt */
1063:Drivers/STM32F4xx_HAL_Driver/Src/stm32f4xx_hal_pcd.c ****     if (__HAL_PCD_IS_INVALID_INTERRUPT(hpcd))
 787              		.loc 1 1063 9
 788 0024 7B68     		ldr	r3, [r7, #4]
 789 0026 1B68     		ldr	r3, [r3]
 790 0028 1846     		mov	r0, r3
 791 002a FFF7FEFF 		bl	USB_ReadInterrupts
 792 002e 0346     		mov	r3, r0
 793              		.loc 1 1063 8
 794 0030 002B     		cmp	r3, #0
 795 0032 00F09383 		beq	.L67
1064:Drivers/STM32F4xx_HAL_Driver/Src/stm32f4xx_hal_pcd.c ****     {
1065:Drivers/STM32F4xx_HAL_Driver/Src/stm32f4xx_hal_pcd.c ****       return;
1066:Drivers/STM32F4xx_HAL_Driver/Src/stm32f4xx_hal_pcd.c ****     }
1067:Drivers/STM32F4xx_HAL_Driver/Src/stm32f4xx_hal_pcd.c **** 
1068:Drivers/STM32F4xx_HAL_Driver/Src/stm32f4xx_hal_pcd.c ****     if (__HAL_PCD_GET_FLAG(hpcd, USB_OTG_GINTSTS_MMIS))
 796              		.loc 1 1068 9
 797 0036 7B68     		ldr	r3, [r7, #4]
 798 0038 1B68     		ldr	r3, [r3]
 799 003a 1846     		mov	r0, r3
 800 003c FFF7FEFF 		bl	USB_ReadInterrupts
 801 0040 0346     		mov	r3, r0
 802 0042 03F00203 		and	r3, r3, #2
 803              		.loc 1 1068 8
 804 0046 022B     		cmp	r3, #2
 805 0048 07D1     		bne	.L29
1069:Drivers/STM32F4xx_HAL_Driver/Src/stm32f4xx_hal_pcd.c ****     {
1070:Drivers/STM32F4xx_HAL_Driver/Src/stm32f4xx_hal_pcd.c ****       /* incorrect mode, acknowledge the interrupt */
1071:Drivers/STM32F4xx_HAL_Driver/Src/stm32f4xx_hal_pcd.c ****       __HAL_PCD_CLEAR_FLAG(hpcd, USB_OTG_GINTSTS_MMIS);
 806              		.loc 1 1071 7
 807 004a 7B68     		ldr	r3, [r7, #4]
 808 004c 1B68     		ldr	r3, [r3]
 809 004e 5A69     		ldr	r2, [r3, #20]
 810 0050 7B68     		ldr	r3, [r7, #4]
 811 0052 1B68     		ldr	r3, [r3]
 812 0054 02F00202 		and	r2, r2, #2
 813 0058 5A61     		str	r2, [r3, #20]
ARM GAS  /var/folders/vq/qt4vp3kd5rxf7v2b6_fdtdt80000gn/T//cc6xBrdC.s 			page 34


 814              	.L29:
1072:Drivers/STM32F4xx_HAL_Driver/Src/stm32f4xx_hal_pcd.c ****     }
1073:Drivers/STM32F4xx_HAL_Driver/Src/stm32f4xx_hal_pcd.c **** 
1074:Drivers/STM32F4xx_HAL_Driver/Src/stm32f4xx_hal_pcd.c ****     /* Handle RxQLevel Interrupt */
1075:Drivers/STM32F4xx_HAL_Driver/Src/stm32f4xx_hal_pcd.c ****     if (__HAL_PCD_GET_FLAG(hpcd, USB_OTG_GINTSTS_RXFLVL))
 815              		.loc 1 1075 9
 816 005a 7B68     		ldr	r3, [r7, #4]
 817 005c 1B68     		ldr	r3, [r3]
 818 005e 1846     		mov	r0, r3
 819 0060 FFF7FEFF 		bl	USB_ReadInterrupts
 820 0064 0346     		mov	r3, r0
 821 0066 03F01003 		and	r3, r3, #16
 822              		.loc 1 1075 8
 823 006a 102B     		cmp	r3, #16
 824 006c 61D1     		bne	.L30
1076:Drivers/STM32F4xx_HAL_Driver/Src/stm32f4xx_hal_pcd.c ****     {
1077:Drivers/STM32F4xx_HAL_Driver/Src/stm32f4xx_hal_pcd.c ****       USB_MASK_INTERRUPT(hpcd->Instance, USB_OTG_GINTSTS_RXFLVL);
 825              		.loc 1 1077 7
 826 006e 7B68     		ldr	r3, [r7, #4]
 827 0070 1B68     		ldr	r3, [r3]
 828 0072 9A69     		ldr	r2, [r3, #24]
 829 0074 7B68     		ldr	r3, [r7, #4]
 830 0076 1B68     		ldr	r3, [r3]
 831 0078 22F01002 		bic	r2, r2, #16
 832 007c 9A61     		str	r2, [r3, #24]
1078:Drivers/STM32F4xx_HAL_Driver/Src/stm32f4xx_hal_pcd.c **** 
1079:Drivers/STM32F4xx_HAL_Driver/Src/stm32f4xx_hal_pcd.c ****       temp = USBx->GRXSTSP;
 833              		.loc 1 1079 12
 834 007e 3B6A     		ldr	r3, [r7, #32]
 835 0080 1B6A     		ldr	r3, [r3, #32]
 836 0082 BB61     		str	r3, [r7, #24]
1080:Drivers/STM32F4xx_HAL_Driver/Src/stm32f4xx_hal_pcd.c **** 
1081:Drivers/STM32F4xx_HAL_Driver/Src/stm32f4xx_hal_pcd.c ****       ep = &hpcd->OUT_ep[temp & USB_OTG_GRXSTSP_EPNUM];
 837              		.loc 1 1081 31
 838 0084 BB69     		ldr	r3, [r7, #24]
 839 0086 03F00F02 		and	r2, r3, #15
 840              		.loc 1 1081 10
 841 008a 1346     		mov	r3, r2
 842 008c DB00     		lsls	r3, r3, #3
 843 008e 9B1A     		subs	r3, r3, r2
 844 0090 9B00     		lsls	r3, r3, #2
 845 0092 03F5FC73 		add	r3, r3, #504
 846 0096 7A68     		ldr	r2, [r7, #4]
 847 0098 1344     		add	r3, r3, r2
 848 009a 0433     		adds	r3, r3, #4
 849 009c 7B61     		str	r3, [r7, #20]
1082:Drivers/STM32F4xx_HAL_Driver/Src/stm32f4xx_hal_pcd.c **** 
1083:Drivers/STM32F4xx_HAL_Driver/Src/stm32f4xx_hal_pcd.c ****       if (((temp & USB_OTG_GRXSTSP_PKTSTS) >> 17) ==  STS_DATA_UPDT)
 850              		.loc 1 1083 44
 851 009e BB69     		ldr	r3, [r7, #24]
 852 00a0 5B0C     		lsrs	r3, r3, #17
 853 00a2 03F00F03 		and	r3, r3, #15
 854              		.loc 1 1083 10
 855 00a6 022B     		cmp	r3, #2
 856 00a8 24D1     		bne	.L31
1084:Drivers/STM32F4xx_HAL_Driver/Src/stm32f4xx_hal_pcd.c ****       {
1085:Drivers/STM32F4xx_HAL_Driver/Src/stm32f4xx_hal_pcd.c ****         if ((temp & USB_OTG_GRXSTSP_BCNT) != 0U)
ARM GAS  /var/folders/vq/qt4vp3kd5rxf7v2b6_fdtdt80000gn/T//cc6xBrdC.s 			page 35


 857              		.loc 1 1085 19
 858 00aa BA69     		ldr	r2, [r7, #24]
 859 00ac 47F6F073 		movw	r3, #32752
 860 00b0 1340     		ands	r3, r3, r2
 861              		.loc 1 1085 12
 862 00b2 002B     		cmp	r3, #0
 863 00b4 35D0     		beq	.L32
1086:Drivers/STM32F4xx_HAL_Driver/Src/stm32f4xx_hal_pcd.c ****         {
1087:Drivers/STM32F4xx_HAL_Driver/Src/stm32f4xx_hal_pcd.c ****           (void)USB_ReadPacket(USBx, ep->xfer_buff,
 864              		.loc 1 1087 17
 865 00b6 7B69     		ldr	r3, [r7, #20]
 866 00b8 D968     		ldr	r1, [r3, #12]
1088:Drivers/STM32F4xx_HAL_Driver/Src/stm32f4xx_hal_pcd.c ****                                (uint16_t)((temp & USB_OTG_GRXSTSP_BCNT) >> 4));
 867              		.loc 1 1088 73
 868 00ba BB69     		ldr	r3, [r7, #24]
 869 00bc 1B09     		lsrs	r3, r3, #4
 870              		.loc 1 1088 32
 871 00be 9BB2     		uxth	r3, r3
1087:Drivers/STM32F4xx_HAL_Driver/Src/stm32f4xx_hal_pcd.c ****                                (uint16_t)((temp & USB_OTG_GRXSTSP_BCNT) >> 4));
 872              		.loc 1 1087 17
 873 00c0 C3F30A03 		ubfx	r3, r3, #0, #11
 874 00c4 9BB2     		uxth	r3, r3
 875 00c6 1A46     		mov	r2, r3
 876 00c8 386A     		ldr	r0, [r7, #32]
 877 00ca FFF7FEFF 		bl	USB_ReadPacket
1089:Drivers/STM32F4xx_HAL_Driver/Src/stm32f4xx_hal_pcd.c **** 
1090:Drivers/STM32F4xx_HAL_Driver/Src/stm32f4xx_hal_pcd.c ****           ep->xfer_buff += (temp & USB_OTG_GRXSTSP_BCNT) >> 4;
 878              		.loc 1 1090 25
 879 00ce 7B69     		ldr	r3, [r7, #20]
 880 00d0 DA68     		ldr	r2, [r3, #12]
 881              		.loc 1 1090 58
 882 00d2 BB69     		ldr	r3, [r7, #24]
 883 00d4 1B09     		lsrs	r3, r3, #4
 884 00d6 C3F30A03 		ubfx	r3, r3, #0, #11
 885              		.loc 1 1090 25
 886 00da 1A44     		add	r2, r2, r3
 887 00dc 7B69     		ldr	r3, [r7, #20]
 888 00de DA60     		str	r2, [r3, #12]
1091:Drivers/STM32F4xx_HAL_Driver/Src/stm32f4xx_hal_pcd.c ****           ep->xfer_count += (temp & USB_OTG_GRXSTSP_BCNT) >> 4;
 889              		.loc 1 1091 26
 890 00e0 7B69     		ldr	r3, [r7, #20]
 891 00e2 9A69     		ldr	r2, [r3, #24]
 892              		.loc 1 1091 59
 893 00e4 BB69     		ldr	r3, [r7, #24]
 894 00e6 1B09     		lsrs	r3, r3, #4
 895 00e8 C3F30A03 		ubfx	r3, r3, #0, #11
 896              		.loc 1 1091 26
 897 00ec 1A44     		add	r2, r2, r3
 898 00ee 7B69     		ldr	r3, [r7, #20]
 899 00f0 9A61     		str	r2, [r3, #24]
 900 00f2 16E0     		b	.L32
 901              	.L31:
1092:Drivers/STM32F4xx_HAL_Driver/Src/stm32f4xx_hal_pcd.c ****         }
1093:Drivers/STM32F4xx_HAL_Driver/Src/stm32f4xx_hal_pcd.c ****       }
1094:Drivers/STM32F4xx_HAL_Driver/Src/stm32f4xx_hal_pcd.c ****       else if (((temp & USB_OTG_GRXSTSP_PKTSTS) >> 17) ==  STS_SETUP_UPDT)
 902              		.loc 1 1094 49
 903 00f4 BB69     		ldr	r3, [r7, #24]
ARM GAS  /var/folders/vq/qt4vp3kd5rxf7v2b6_fdtdt80000gn/T//cc6xBrdC.s 			page 36


 904 00f6 5B0C     		lsrs	r3, r3, #17
 905 00f8 03F00F03 		and	r3, r3, #15
 906              		.loc 1 1094 15
 907 00fc 062B     		cmp	r3, #6
 908 00fe 10D1     		bne	.L32
1095:Drivers/STM32F4xx_HAL_Driver/Src/stm32f4xx_hal_pcd.c ****       {
1096:Drivers/STM32F4xx_HAL_Driver/Src/stm32f4xx_hal_pcd.c ****         (void)USB_ReadPacket(USBx, (uint8_t *)hpcd->Setup, 8U);
 909              		.loc 1 1096 47
 910 0100 7B68     		ldr	r3, [r7, #4]
 911 0102 03F57173 		add	r3, r3, #964
 912              		.loc 1 1096 15
 913 0106 0822     		movs	r2, #8
 914 0108 1946     		mov	r1, r3
 915 010a 386A     		ldr	r0, [r7, #32]
 916 010c FFF7FEFF 		bl	USB_ReadPacket
1097:Drivers/STM32F4xx_HAL_Driver/Src/stm32f4xx_hal_pcd.c ****         ep->xfer_count += (temp & USB_OTG_GRXSTSP_BCNT) >> 4;
 917              		.loc 1 1097 24
 918 0110 7B69     		ldr	r3, [r7, #20]
 919 0112 9A69     		ldr	r2, [r3, #24]
 920              		.loc 1 1097 57
 921 0114 BB69     		ldr	r3, [r7, #24]
 922 0116 1B09     		lsrs	r3, r3, #4
 923 0118 C3F30A03 		ubfx	r3, r3, #0, #11
 924              		.loc 1 1097 24
 925 011c 1A44     		add	r2, r2, r3
 926 011e 7B69     		ldr	r3, [r7, #20]
 927 0120 9A61     		str	r2, [r3, #24]
 928              	.L32:
1098:Drivers/STM32F4xx_HAL_Driver/Src/stm32f4xx_hal_pcd.c ****       }
1099:Drivers/STM32F4xx_HAL_Driver/Src/stm32f4xx_hal_pcd.c ****       else
1100:Drivers/STM32F4xx_HAL_Driver/Src/stm32f4xx_hal_pcd.c ****       {
1101:Drivers/STM32F4xx_HAL_Driver/Src/stm32f4xx_hal_pcd.c ****         /* ... */
1102:Drivers/STM32F4xx_HAL_Driver/Src/stm32f4xx_hal_pcd.c ****       }
1103:Drivers/STM32F4xx_HAL_Driver/Src/stm32f4xx_hal_pcd.c ****       USB_UNMASK_INTERRUPT(hpcd->Instance, USB_OTG_GINTSTS_RXFLVL);
 929              		.loc 1 1103 7
 930 0122 7B68     		ldr	r3, [r7, #4]
 931 0124 1B68     		ldr	r3, [r3]
 932 0126 9A69     		ldr	r2, [r3, #24]
 933 0128 7B68     		ldr	r3, [r7, #4]
 934 012a 1B68     		ldr	r3, [r3]
 935 012c 42F01002 		orr	r2, r2, #16
 936 0130 9A61     		str	r2, [r3, #24]
 937              	.L30:
1104:Drivers/STM32F4xx_HAL_Driver/Src/stm32f4xx_hal_pcd.c ****     }
1105:Drivers/STM32F4xx_HAL_Driver/Src/stm32f4xx_hal_pcd.c **** 
1106:Drivers/STM32F4xx_HAL_Driver/Src/stm32f4xx_hal_pcd.c ****     if (__HAL_PCD_GET_FLAG(hpcd, USB_OTG_GINTSTS_OEPINT))
 938              		.loc 1 1106 9
 939 0132 7B68     		ldr	r3, [r7, #4]
 940 0134 1B68     		ldr	r3, [r3]
 941 0136 1846     		mov	r0, r3
 942 0138 FFF7FEFF 		bl	USB_ReadInterrupts
 943 013c 0346     		mov	r3, r0
 944 013e 03F40023 		and	r3, r3, #524288
 945              		.loc 1 1106 8
 946 0142 B3F5002F 		cmp	r3, #524288
 947 0146 6ED1     		bne	.L33
1107:Drivers/STM32F4xx_HAL_Driver/Src/stm32f4xx_hal_pcd.c ****     {
ARM GAS  /var/folders/vq/qt4vp3kd5rxf7v2b6_fdtdt80000gn/T//cc6xBrdC.s 			page 37


1108:Drivers/STM32F4xx_HAL_Driver/Src/stm32f4xx_hal_pcd.c ****       epnum = 0U;
 948              		.loc 1 1108 13
 949 0148 0023     		movs	r3, #0
 950 014a 7B62     		str	r3, [r7, #36]
1109:Drivers/STM32F4xx_HAL_Driver/Src/stm32f4xx_hal_pcd.c **** 
1110:Drivers/STM32F4xx_HAL_Driver/Src/stm32f4xx_hal_pcd.c ****       /* Read in the device interrupt bits */
1111:Drivers/STM32F4xx_HAL_Driver/Src/stm32f4xx_hal_pcd.c ****       ep_intr = USB_ReadDevAllOutEpInterrupt(hpcd->Instance);
 951              		.loc 1 1111 50
 952 014c 7B68     		ldr	r3, [r7, #4]
 953 014e 1B68     		ldr	r3, [r3]
 954              		.loc 1 1111 17
 955 0150 1846     		mov	r0, r3
 956 0152 FFF7FEFF 		bl	USB_ReadDevAllOutEpInterrupt
 957 0156 B862     		str	r0, [r7, #40]
1112:Drivers/STM32F4xx_HAL_Driver/Src/stm32f4xx_hal_pcd.c **** 
1113:Drivers/STM32F4xx_HAL_Driver/Src/stm32f4xx_hal_pcd.c ****       while (ep_intr != 0U)
 958              		.loc 1 1113 13
 959 0158 62E0     		b	.L34
 960              	.L40:
1114:Drivers/STM32F4xx_HAL_Driver/Src/stm32f4xx_hal_pcd.c ****       {
1115:Drivers/STM32F4xx_HAL_Driver/Src/stm32f4xx_hal_pcd.c ****         if ((ep_intr & 0x1U) != 0U)
 961              		.loc 1 1115 22
 962 015a BB6A     		ldr	r3, [r7, #40]
 963 015c 03F00103 		and	r3, r3, #1
 964              		.loc 1 1115 12
 965 0160 002B     		cmp	r3, #0
 966 0162 57D0     		beq	.L35
1116:Drivers/STM32F4xx_HAL_Driver/Src/stm32f4xx_hal_pcd.c ****         {
1117:Drivers/STM32F4xx_HAL_Driver/Src/stm32f4xx_hal_pcd.c ****           epint = USB_ReadDevOutEPInterrupt(hpcd->Instance, (uint8_t)epnum);
 967              		.loc 1 1117 49
 968 0164 7B68     		ldr	r3, [r7, #4]
 969 0166 1B68     		ldr	r3, [r3]
 970              		.loc 1 1117 19
 971 0168 7A6A     		ldr	r2, [r7, #36]
 972 016a D2B2     		uxtb	r2, r2
 973 016c 1146     		mov	r1, r2
 974 016e 1846     		mov	r0, r3
 975 0170 FFF7FEFF 		bl	USB_ReadDevOutEPInterrupt
 976 0174 3861     		str	r0, [r7, #16]
1118:Drivers/STM32F4xx_HAL_Driver/Src/stm32f4xx_hal_pcd.c **** 
1119:Drivers/STM32F4xx_HAL_Driver/Src/stm32f4xx_hal_pcd.c ****           if ((epint & USB_OTG_DOEPINT_XFRC) == USB_OTG_DOEPINT_XFRC)
 977              		.loc 1 1119 22
 978 0176 3B69     		ldr	r3, [r7, #16]
 979 0178 03F00103 		and	r3, r3, #1
 980              		.loc 1 1119 14
 981 017c 002B     		cmp	r3, #0
 982 017e 0CD0     		beq	.L36
1120:Drivers/STM32F4xx_HAL_Driver/Src/stm32f4xx_hal_pcd.c ****           {
1121:Drivers/STM32F4xx_HAL_Driver/Src/stm32f4xx_hal_pcd.c ****             CLEAR_OUT_EP_INTR(epnum, USB_OTG_DOEPINT_XFRC);
 983              		.loc 1 1121 13
 984 0180 7B6A     		ldr	r3, [r7, #36]
 985 0182 5A01     		lsls	r2, r3, #5
 986 0184 FB69     		ldr	r3, [r7, #28]
 987 0186 1344     		add	r3, r3, r2
 988 0188 03F53063 		add	r3, r3, #2816
 989 018c 1A46     		mov	r2, r3
 990 018e 0123     		movs	r3, #1
ARM GAS  /var/folders/vq/qt4vp3kd5rxf7v2b6_fdtdt80000gn/T//cc6xBrdC.s 			page 38


 991 0190 9360     		str	r3, [r2, #8]
1122:Drivers/STM32F4xx_HAL_Driver/Src/stm32f4xx_hal_pcd.c ****             (void)PCD_EP_OutXfrComplete_int(hpcd, epnum);
 992              		.loc 1 1122 19
 993 0192 796A     		ldr	r1, [r7, #36]
 994 0194 7868     		ldr	r0, [r7, #4]
 995 0196 FFF7FEFF 		bl	PCD_EP_OutXfrComplete_int
 996              	.L36:
1123:Drivers/STM32F4xx_HAL_Driver/Src/stm32f4xx_hal_pcd.c ****           }
1124:Drivers/STM32F4xx_HAL_Driver/Src/stm32f4xx_hal_pcd.c **** 
1125:Drivers/STM32F4xx_HAL_Driver/Src/stm32f4xx_hal_pcd.c ****           if ((epint & USB_OTG_DOEPINT_STUP) == USB_OTG_DOEPINT_STUP)
 997              		.loc 1 1125 22
 998 019a 3B69     		ldr	r3, [r7, #16]
 999 019c 03F00803 		and	r3, r3, #8
 1000              		.loc 1 1125 14
 1001 01a0 002B     		cmp	r3, #0
 1002 01a2 0CD0     		beq	.L37
1126:Drivers/STM32F4xx_HAL_Driver/Src/stm32f4xx_hal_pcd.c ****           {
1127:Drivers/STM32F4xx_HAL_Driver/Src/stm32f4xx_hal_pcd.c ****             CLEAR_OUT_EP_INTR(epnum, USB_OTG_DOEPINT_STUP);
 1003              		.loc 1 1127 13
 1004 01a4 7B6A     		ldr	r3, [r7, #36]
 1005 01a6 5A01     		lsls	r2, r3, #5
 1006 01a8 FB69     		ldr	r3, [r7, #28]
 1007 01aa 1344     		add	r3, r3, r2
 1008 01ac 03F53063 		add	r3, r3, #2816
 1009 01b0 1A46     		mov	r2, r3
 1010 01b2 0823     		movs	r3, #8
 1011 01b4 9360     		str	r3, [r2, #8]
1128:Drivers/STM32F4xx_HAL_Driver/Src/stm32f4xx_hal_pcd.c ****             /* Class B setup phase done for previous decoded setup */
1129:Drivers/STM32F4xx_HAL_Driver/Src/stm32f4xx_hal_pcd.c ****             (void)PCD_EP_OutSetupPacket_int(hpcd, epnum);
 1012              		.loc 1 1129 19
 1013 01b6 796A     		ldr	r1, [r7, #36]
 1014 01b8 7868     		ldr	r0, [r7, #4]
 1015 01ba FFF7FEFF 		bl	PCD_EP_OutSetupPacket_int
 1016              	.L37:
1130:Drivers/STM32F4xx_HAL_Driver/Src/stm32f4xx_hal_pcd.c ****           }
1131:Drivers/STM32F4xx_HAL_Driver/Src/stm32f4xx_hal_pcd.c **** 
1132:Drivers/STM32F4xx_HAL_Driver/Src/stm32f4xx_hal_pcd.c ****           if ((epint & USB_OTG_DOEPINT_OTEPDIS) == USB_OTG_DOEPINT_OTEPDIS)
 1017              		.loc 1 1132 22
 1018 01be 3B69     		ldr	r3, [r7, #16]
 1019 01c0 03F01003 		and	r3, r3, #16
 1020              		.loc 1 1132 14
 1021 01c4 002B     		cmp	r3, #0
 1022 01c6 08D0     		beq	.L38
1133:Drivers/STM32F4xx_HAL_Driver/Src/stm32f4xx_hal_pcd.c ****           {
1134:Drivers/STM32F4xx_HAL_Driver/Src/stm32f4xx_hal_pcd.c ****             CLEAR_OUT_EP_INTR(epnum, USB_OTG_DOEPINT_OTEPDIS);
 1023              		.loc 1 1134 13
 1024 01c8 7B6A     		ldr	r3, [r7, #36]
 1025 01ca 5A01     		lsls	r2, r3, #5
 1026 01cc FB69     		ldr	r3, [r7, #28]
 1027 01ce 1344     		add	r3, r3, r2
 1028 01d0 03F53063 		add	r3, r3, #2816
 1029 01d4 1A46     		mov	r2, r3
 1030 01d6 1023     		movs	r3, #16
 1031 01d8 9360     		str	r3, [r2, #8]
 1032              	.L38:
1135:Drivers/STM32F4xx_HAL_Driver/Src/stm32f4xx_hal_pcd.c ****           }
1136:Drivers/STM32F4xx_HAL_Driver/Src/stm32f4xx_hal_pcd.c **** 
ARM GAS  /var/folders/vq/qt4vp3kd5rxf7v2b6_fdtdt80000gn/T//cc6xBrdC.s 			page 39


1137:Drivers/STM32F4xx_HAL_Driver/Src/stm32f4xx_hal_pcd.c ****           /* Clear Status Phase Received interrupt */
1138:Drivers/STM32F4xx_HAL_Driver/Src/stm32f4xx_hal_pcd.c ****           if ((epint & USB_OTG_DOEPINT_OTEPSPR) == USB_OTG_DOEPINT_OTEPSPR)
 1033              		.loc 1 1138 22
 1034 01da 3B69     		ldr	r3, [r7, #16]
 1035 01dc 03F02003 		and	r3, r3, #32
 1036              		.loc 1 1138 14
 1037 01e0 002B     		cmp	r3, #0
 1038 01e2 08D0     		beq	.L39
1139:Drivers/STM32F4xx_HAL_Driver/Src/stm32f4xx_hal_pcd.c ****           {
1140:Drivers/STM32F4xx_HAL_Driver/Src/stm32f4xx_hal_pcd.c ****             CLEAR_OUT_EP_INTR(epnum, USB_OTG_DOEPINT_OTEPSPR);
 1039              		.loc 1 1140 13
 1040 01e4 7B6A     		ldr	r3, [r7, #36]
 1041 01e6 5A01     		lsls	r2, r3, #5
 1042 01e8 FB69     		ldr	r3, [r7, #28]
 1043 01ea 1344     		add	r3, r3, r2
 1044 01ec 03F53063 		add	r3, r3, #2816
 1045 01f0 1A46     		mov	r2, r3
 1046 01f2 2023     		movs	r3, #32
 1047 01f4 9360     		str	r3, [r2, #8]
 1048              	.L39:
1141:Drivers/STM32F4xx_HAL_Driver/Src/stm32f4xx_hal_pcd.c ****           }
1142:Drivers/STM32F4xx_HAL_Driver/Src/stm32f4xx_hal_pcd.c **** 
1143:Drivers/STM32F4xx_HAL_Driver/Src/stm32f4xx_hal_pcd.c ****           /* Clear OUT NAK interrupt */
1144:Drivers/STM32F4xx_HAL_Driver/Src/stm32f4xx_hal_pcd.c ****           if ((epint & USB_OTG_DOEPINT_NAK) == USB_OTG_DOEPINT_NAK)
 1049              		.loc 1 1144 22
 1050 01f6 3B69     		ldr	r3, [r7, #16]
 1051 01f8 03F40053 		and	r3, r3, #8192
 1052              		.loc 1 1144 14
 1053 01fc 002B     		cmp	r3, #0
 1054 01fe 09D0     		beq	.L35
1145:Drivers/STM32F4xx_HAL_Driver/Src/stm32f4xx_hal_pcd.c ****           {
1146:Drivers/STM32F4xx_HAL_Driver/Src/stm32f4xx_hal_pcd.c ****             CLEAR_OUT_EP_INTR(epnum, USB_OTG_DOEPINT_NAK);
 1055              		.loc 1 1146 13
 1056 0200 7B6A     		ldr	r3, [r7, #36]
 1057 0202 5A01     		lsls	r2, r3, #5
 1058 0204 FB69     		ldr	r3, [r7, #28]
 1059 0206 1344     		add	r3, r3, r2
 1060 0208 03F53063 		add	r3, r3, #2816
 1061 020c 1A46     		mov	r2, r3
 1062 020e 4FF40053 		mov	r3, #8192
 1063 0212 9360     		str	r3, [r2, #8]
 1064              	.L35:
1147:Drivers/STM32F4xx_HAL_Driver/Src/stm32f4xx_hal_pcd.c ****           }
1148:Drivers/STM32F4xx_HAL_Driver/Src/stm32f4xx_hal_pcd.c ****         }
1149:Drivers/STM32F4xx_HAL_Driver/Src/stm32f4xx_hal_pcd.c ****         epnum++;
 1065              		.loc 1 1149 14
 1066 0214 7B6A     		ldr	r3, [r7, #36]
 1067 0216 0133     		adds	r3, r3, #1
 1068 0218 7B62     		str	r3, [r7, #36]
1150:Drivers/STM32F4xx_HAL_Driver/Src/stm32f4xx_hal_pcd.c ****         ep_intr >>= 1U;
 1069              		.loc 1 1150 17
 1070 021a BB6A     		ldr	r3, [r7, #40]
 1071 021c 5B08     		lsrs	r3, r3, #1
 1072 021e BB62     		str	r3, [r7, #40]
 1073              	.L34:
1113:Drivers/STM32F4xx_HAL_Driver/Src/stm32f4xx_hal_pcd.c ****       {
 1074              		.loc 1 1113 13
ARM GAS  /var/folders/vq/qt4vp3kd5rxf7v2b6_fdtdt80000gn/T//cc6xBrdC.s 			page 40


 1075 0220 BB6A     		ldr	r3, [r7, #40]
 1076 0222 002B     		cmp	r3, #0
 1077 0224 99D1     		bne	.L40
 1078              	.L33:
1151:Drivers/STM32F4xx_HAL_Driver/Src/stm32f4xx_hal_pcd.c ****       }
1152:Drivers/STM32F4xx_HAL_Driver/Src/stm32f4xx_hal_pcd.c ****     }
1153:Drivers/STM32F4xx_HAL_Driver/Src/stm32f4xx_hal_pcd.c **** 
1154:Drivers/STM32F4xx_HAL_Driver/Src/stm32f4xx_hal_pcd.c ****     if (__HAL_PCD_GET_FLAG(hpcd, USB_OTG_GINTSTS_IEPINT))
 1079              		.loc 1 1154 9
 1080 0226 7B68     		ldr	r3, [r7, #4]
 1081 0228 1B68     		ldr	r3, [r3]
 1082 022a 1846     		mov	r0, r3
 1083 022c FFF7FEFF 		bl	USB_ReadInterrupts
 1084 0230 0346     		mov	r3, r0
 1085 0232 03F48023 		and	r3, r3, #262144
 1086              		.loc 1 1154 8
 1087 0236 B3F5802F 		cmp	r3, #262144
 1088 023a 40F0C080 		bne	.L41
1155:Drivers/STM32F4xx_HAL_Driver/Src/stm32f4xx_hal_pcd.c ****     {
1156:Drivers/STM32F4xx_HAL_Driver/Src/stm32f4xx_hal_pcd.c ****       /* Read in the device interrupt bits */
1157:Drivers/STM32F4xx_HAL_Driver/Src/stm32f4xx_hal_pcd.c ****       ep_intr = USB_ReadDevAllInEpInterrupt(hpcd->Instance);
 1089              		.loc 1 1157 49
 1090 023e 7B68     		ldr	r3, [r7, #4]
 1091 0240 1B68     		ldr	r3, [r3]
 1092              		.loc 1 1157 17
 1093 0242 1846     		mov	r0, r3
 1094 0244 FFF7FEFF 		bl	USB_ReadDevAllInEpInterrupt
 1095 0248 B862     		str	r0, [r7, #40]
1158:Drivers/STM32F4xx_HAL_Driver/Src/stm32f4xx_hal_pcd.c **** 
1159:Drivers/STM32F4xx_HAL_Driver/Src/stm32f4xx_hal_pcd.c ****       epnum = 0U;
 1096              		.loc 1 1159 13
 1097 024a 0023     		movs	r3, #0
 1098 024c 7B62     		str	r3, [r7, #36]
1160:Drivers/STM32F4xx_HAL_Driver/Src/stm32f4xx_hal_pcd.c **** 
1161:Drivers/STM32F4xx_HAL_Driver/Src/stm32f4xx_hal_pcd.c ****       while (ep_intr != 0U)
 1099              		.loc 1 1161 13
 1100 024e B2E0     		b	.L42
 1101              	.L50:
1162:Drivers/STM32F4xx_HAL_Driver/Src/stm32f4xx_hal_pcd.c ****       {
1163:Drivers/STM32F4xx_HAL_Driver/Src/stm32f4xx_hal_pcd.c ****         if ((ep_intr & 0x1U) != 0U) /* In ITR */
 1102              		.loc 1 1163 22
 1103 0250 BB6A     		ldr	r3, [r7, #40]
 1104 0252 03F00103 		and	r3, r3, #1
 1105              		.loc 1 1163 12
 1106 0256 002B     		cmp	r3, #0
 1107 0258 00F0A780 		beq	.L43
1164:Drivers/STM32F4xx_HAL_Driver/Src/stm32f4xx_hal_pcd.c ****         {
1165:Drivers/STM32F4xx_HAL_Driver/Src/stm32f4xx_hal_pcd.c ****           epint = USB_ReadDevInEPInterrupt(hpcd->Instance, (uint8_t)epnum);
 1108              		.loc 1 1165 48
 1109 025c 7B68     		ldr	r3, [r7, #4]
 1110 025e 1B68     		ldr	r3, [r3]
 1111              		.loc 1 1165 19
 1112 0260 7A6A     		ldr	r2, [r7, #36]
 1113 0262 D2B2     		uxtb	r2, r2
 1114 0264 1146     		mov	r1, r2
 1115 0266 1846     		mov	r0, r3
 1116 0268 FFF7FEFF 		bl	USB_ReadDevInEPInterrupt
ARM GAS  /var/folders/vq/qt4vp3kd5rxf7v2b6_fdtdt80000gn/T//cc6xBrdC.s 			page 41


 1117 026c 3861     		str	r0, [r7, #16]
1166:Drivers/STM32F4xx_HAL_Driver/Src/stm32f4xx_hal_pcd.c **** 
1167:Drivers/STM32F4xx_HAL_Driver/Src/stm32f4xx_hal_pcd.c ****           if ((epint & USB_OTG_DIEPINT_XFRC) == USB_OTG_DIEPINT_XFRC)
 1118              		.loc 1 1167 22
 1119 026e 3B69     		ldr	r3, [r7, #16]
 1120 0270 03F00103 		and	r3, r3, #1
 1121              		.loc 1 1167 14
 1122 0274 002B     		cmp	r3, #0
 1123 0276 57D0     		beq	.L44
1168:Drivers/STM32F4xx_HAL_Driver/Src/stm32f4xx_hal_pcd.c ****           {
1169:Drivers/STM32F4xx_HAL_Driver/Src/stm32f4xx_hal_pcd.c ****             fifoemptymsk = (uint32_t)(0x1UL << (epnum & EP_ADDR_MSK));
 1124              		.loc 1 1169 55
 1125 0278 7B6A     		ldr	r3, [r7, #36]
 1126 027a 03F00F03 		and	r3, r3, #15
 1127              		.loc 1 1169 26
 1128 027e 0122     		movs	r2, #1
 1129 0280 02FA03F3 		lsl	r3, r2, r3
 1130 0284 FB60     		str	r3, [r7, #12]
1170:Drivers/STM32F4xx_HAL_Driver/Src/stm32f4xx_hal_pcd.c ****             USBx_DEVICE->DIEPEMPMSK &= ~fifoemptymsk;
 1131              		.loc 1 1170 37
 1132 0286 FB69     		ldr	r3, [r7, #28]
 1133 0288 03F50063 		add	r3, r3, #2048
 1134 028c 5A6B     		ldr	r2, [r3, #52]
 1135              		.loc 1 1170 40
 1136 028e FB68     		ldr	r3, [r7, #12]
 1137 0290 DB43     		mvns	r3, r3
 1138              		.loc 1 1170 37
 1139 0292 F969     		ldr	r1, [r7, #28]
 1140 0294 01F50061 		add	r1, r1, #2048
 1141 0298 1340     		ands	r3, r3, r2
 1142 029a 4B63     		str	r3, [r1, #52]
1171:Drivers/STM32F4xx_HAL_Driver/Src/stm32f4xx_hal_pcd.c **** 
1172:Drivers/STM32F4xx_HAL_Driver/Src/stm32f4xx_hal_pcd.c ****             CLEAR_IN_EP_INTR(epnum, USB_OTG_DIEPINT_XFRC);
 1143              		.loc 1 1172 13
 1144 029c 7B6A     		ldr	r3, [r7, #36]
 1145 029e 5A01     		lsls	r2, r3, #5
 1146 02a0 FB69     		ldr	r3, [r7, #28]
 1147 02a2 1344     		add	r3, r3, r2
 1148 02a4 03F51063 		add	r3, r3, #2304
 1149 02a8 1A46     		mov	r2, r3
 1150 02aa 0123     		movs	r3, #1
 1151 02ac 9360     		str	r3, [r2, #8]
1173:Drivers/STM32F4xx_HAL_Driver/Src/stm32f4xx_hal_pcd.c **** 
1174:Drivers/STM32F4xx_HAL_Driver/Src/stm32f4xx_hal_pcd.c ****             if (hpcd->Init.dma_enable == 1U)
 1152              		.loc 1 1174 27
 1153 02ae 7B68     		ldr	r3, [r7, #4]
 1154 02b0 1B69     		ldr	r3, [r3, #16]
 1155              		.loc 1 1174 16
 1156 02b2 012B     		cmp	r3, #1
 1157 02b4 32D1     		bne	.L45
1175:Drivers/STM32F4xx_HAL_Driver/Src/stm32f4xx_hal_pcd.c ****             {
1176:Drivers/STM32F4xx_HAL_Driver/Src/stm32f4xx_hal_pcd.c ****               hpcd->IN_ep[epnum].xfer_buff += hpcd->IN_ep[epnum].maxpacket;
 1158              		.loc 1 1176 44
 1159 02b6 7968     		ldr	r1, [r7, #4]
 1160 02b8 7A6A     		ldr	r2, [r7, #36]
 1161 02ba 1346     		mov	r3, r2
 1162 02bc DB00     		lsls	r3, r3, #3
ARM GAS  /var/folders/vq/qt4vp3kd5rxf7v2b6_fdtdt80000gn/T//cc6xBrdC.s 			page 42


 1163 02be 9B1A     		subs	r3, r3, r2
 1164 02c0 9B00     		lsls	r3, r3, #2
 1165 02c2 0B44     		add	r3, r3, r1
 1166 02c4 4833     		adds	r3, r3, #72
 1167 02c6 1968     		ldr	r1, [r3]
 1168              		.loc 1 1176 65
 1169 02c8 7868     		ldr	r0, [r7, #4]
 1170 02ca 7A6A     		ldr	r2, [r7, #36]
 1171 02cc 1346     		mov	r3, r2
 1172 02ce DB00     		lsls	r3, r3, #3
 1173 02d0 9B1A     		subs	r3, r3, r2
 1174 02d2 9B00     		lsls	r3, r3, #2
 1175 02d4 0344     		add	r3, r3, r0
 1176 02d6 4433     		adds	r3, r3, #68
 1177 02d8 1B68     		ldr	r3, [r3]
 1178              		.loc 1 1176 44
 1179 02da 1944     		add	r1, r1, r3
 1180 02dc 7868     		ldr	r0, [r7, #4]
 1181 02de 7A6A     		ldr	r2, [r7, #36]
 1182 02e0 1346     		mov	r3, r2
 1183 02e2 DB00     		lsls	r3, r3, #3
 1184 02e4 9B1A     		subs	r3, r3, r2
 1185 02e6 9B00     		lsls	r3, r3, #2
 1186 02e8 0344     		add	r3, r3, r0
 1187 02ea 4833     		adds	r3, r3, #72
 1188 02ec 1960     		str	r1, [r3]
1177:Drivers/STM32F4xx_HAL_Driver/Src/stm32f4xx_hal_pcd.c **** 
1178:Drivers/STM32F4xx_HAL_Driver/Src/stm32f4xx_hal_pcd.c ****               /* this is ZLP, so prepare EP0 for next setup */
1179:Drivers/STM32F4xx_HAL_Driver/Src/stm32f4xx_hal_pcd.c ****               if ((epnum == 0U) && (hpcd->IN_ep[epnum].xfer_len == 0U))
 1189              		.loc 1 1179 18
 1190 02ee 7B6A     		ldr	r3, [r7, #36]
 1191 02f0 002B     		cmp	r3, #0
 1192 02f2 13D1     		bne	.L45
 1193              		.loc 1 1179 55 discriminator 1
 1194 02f4 7968     		ldr	r1, [r7, #4]
 1195 02f6 7A6A     		ldr	r2, [r7, #36]
 1196 02f8 1346     		mov	r3, r2
 1197 02fa DB00     		lsls	r3, r3, #3
 1198 02fc 9B1A     		subs	r3, r3, r2
 1199 02fe 9B00     		lsls	r3, r3, #2
 1200 0300 0B44     		add	r3, r3, r1
 1201 0302 5033     		adds	r3, r3, #80
 1202 0304 1B68     		ldr	r3, [r3]
 1203              		.loc 1 1179 33 discriminator 1
 1204 0306 002B     		cmp	r3, #0
 1205 0308 08D1     		bne	.L45
1180:Drivers/STM32F4xx_HAL_Driver/Src/stm32f4xx_hal_pcd.c ****               {
1181:Drivers/STM32F4xx_HAL_Driver/Src/stm32f4xx_hal_pcd.c ****                 /* prepare to rx more setup packets */
1182:Drivers/STM32F4xx_HAL_Driver/Src/stm32f4xx_hal_pcd.c ****                 (void)USB_EP0_OutStart(hpcd->Instance, 1U, (uint8_t *)hpcd->Setup);
 1206              		.loc 1 1182 44
 1207 030a 7B68     		ldr	r3, [r7, #4]
 1208 030c 1868     		ldr	r0, [r3]
 1209              		.loc 1 1182 71
 1210 030e 7B68     		ldr	r3, [r7, #4]
 1211 0310 03F57173 		add	r3, r3, #964
 1212              		.loc 1 1182 23
 1213 0314 1A46     		mov	r2, r3
ARM GAS  /var/folders/vq/qt4vp3kd5rxf7v2b6_fdtdt80000gn/T//cc6xBrdC.s 			page 43


 1214 0316 0121     		movs	r1, #1
 1215 0318 FFF7FEFF 		bl	USB_EP0_OutStart
 1216              	.L45:
1183:Drivers/STM32F4xx_HAL_Driver/Src/stm32f4xx_hal_pcd.c ****               }
1184:Drivers/STM32F4xx_HAL_Driver/Src/stm32f4xx_hal_pcd.c ****             }
1185:Drivers/STM32F4xx_HAL_Driver/Src/stm32f4xx_hal_pcd.c **** 
1186:Drivers/STM32F4xx_HAL_Driver/Src/stm32f4xx_hal_pcd.c **** #if (USE_HAL_PCD_REGISTER_CALLBACKS == 1U)
1187:Drivers/STM32F4xx_HAL_Driver/Src/stm32f4xx_hal_pcd.c ****             hpcd->DataInStageCallback(hpcd, (uint8_t)epnum);
1188:Drivers/STM32F4xx_HAL_Driver/Src/stm32f4xx_hal_pcd.c **** #else
1189:Drivers/STM32F4xx_HAL_Driver/Src/stm32f4xx_hal_pcd.c ****             HAL_PCD_DataInStageCallback(hpcd, (uint8_t)epnum);
 1217              		.loc 1 1189 13
 1218 031c 7B6A     		ldr	r3, [r7, #36]
 1219 031e DBB2     		uxtb	r3, r3
 1220 0320 1946     		mov	r1, r3
 1221 0322 7868     		ldr	r0, [r7, #4]
 1222 0324 FFF7FEFF 		bl	HAL_PCD_DataInStageCallback
 1223              	.L44:
1190:Drivers/STM32F4xx_HAL_Driver/Src/stm32f4xx_hal_pcd.c **** #endif /* USE_HAL_PCD_REGISTER_CALLBACKS */
1191:Drivers/STM32F4xx_HAL_Driver/Src/stm32f4xx_hal_pcd.c ****           }
1192:Drivers/STM32F4xx_HAL_Driver/Src/stm32f4xx_hal_pcd.c ****           if ((epint & USB_OTG_DIEPINT_TOC) == USB_OTG_DIEPINT_TOC)
 1224              		.loc 1 1192 22
 1225 0328 3B69     		ldr	r3, [r7, #16]
 1226 032a 03F00803 		and	r3, r3, #8
 1227              		.loc 1 1192 14
 1228 032e 002B     		cmp	r3, #0
 1229 0330 08D0     		beq	.L46
1193:Drivers/STM32F4xx_HAL_Driver/Src/stm32f4xx_hal_pcd.c ****           {
1194:Drivers/STM32F4xx_HAL_Driver/Src/stm32f4xx_hal_pcd.c ****             CLEAR_IN_EP_INTR(epnum, USB_OTG_DIEPINT_TOC);
 1230              		.loc 1 1194 13
 1231 0332 7B6A     		ldr	r3, [r7, #36]
 1232 0334 5A01     		lsls	r2, r3, #5
 1233 0336 FB69     		ldr	r3, [r7, #28]
 1234 0338 1344     		add	r3, r3, r2
 1235 033a 03F51063 		add	r3, r3, #2304
 1236 033e 1A46     		mov	r2, r3
 1237 0340 0823     		movs	r3, #8
 1238 0342 9360     		str	r3, [r2, #8]
 1239              	.L46:
1195:Drivers/STM32F4xx_HAL_Driver/Src/stm32f4xx_hal_pcd.c ****           }
1196:Drivers/STM32F4xx_HAL_Driver/Src/stm32f4xx_hal_pcd.c ****           if ((epint & USB_OTG_DIEPINT_ITTXFE) == USB_OTG_DIEPINT_ITTXFE)
 1240              		.loc 1 1196 22
 1241 0344 3B69     		ldr	r3, [r7, #16]
 1242 0346 03F01003 		and	r3, r3, #16
 1243              		.loc 1 1196 14
 1244 034a 002B     		cmp	r3, #0
 1245 034c 08D0     		beq	.L47
1197:Drivers/STM32F4xx_HAL_Driver/Src/stm32f4xx_hal_pcd.c ****           {
1198:Drivers/STM32F4xx_HAL_Driver/Src/stm32f4xx_hal_pcd.c ****             CLEAR_IN_EP_INTR(epnum, USB_OTG_DIEPINT_ITTXFE);
 1246              		.loc 1 1198 13
 1247 034e 7B6A     		ldr	r3, [r7, #36]
 1248 0350 5A01     		lsls	r2, r3, #5
 1249 0352 FB69     		ldr	r3, [r7, #28]
 1250 0354 1344     		add	r3, r3, r2
 1251 0356 03F51063 		add	r3, r3, #2304
 1252 035a 1A46     		mov	r2, r3
 1253 035c 1023     		movs	r3, #16
 1254 035e 9360     		str	r3, [r2, #8]
ARM GAS  /var/folders/vq/qt4vp3kd5rxf7v2b6_fdtdt80000gn/T//cc6xBrdC.s 			page 44


 1255              	.L47:
1199:Drivers/STM32F4xx_HAL_Driver/Src/stm32f4xx_hal_pcd.c ****           }
1200:Drivers/STM32F4xx_HAL_Driver/Src/stm32f4xx_hal_pcd.c ****           if ((epint & USB_OTG_DIEPINT_INEPNE) == USB_OTG_DIEPINT_INEPNE)
 1256              		.loc 1 1200 22
 1257 0360 3B69     		ldr	r3, [r7, #16]
 1258 0362 03F04003 		and	r3, r3, #64
 1259              		.loc 1 1200 14
 1260 0366 002B     		cmp	r3, #0
 1261 0368 08D0     		beq	.L48
1201:Drivers/STM32F4xx_HAL_Driver/Src/stm32f4xx_hal_pcd.c ****           {
1202:Drivers/STM32F4xx_HAL_Driver/Src/stm32f4xx_hal_pcd.c ****             CLEAR_IN_EP_INTR(epnum, USB_OTG_DIEPINT_INEPNE);
 1262              		.loc 1 1202 13
 1263 036a 7B6A     		ldr	r3, [r7, #36]
 1264 036c 5A01     		lsls	r2, r3, #5
 1265 036e FB69     		ldr	r3, [r7, #28]
 1266 0370 1344     		add	r3, r3, r2
 1267 0372 03F51063 		add	r3, r3, #2304
 1268 0376 1A46     		mov	r2, r3
 1269 0378 4023     		movs	r3, #64
 1270 037a 9360     		str	r3, [r2, #8]
 1271              	.L48:
1203:Drivers/STM32F4xx_HAL_Driver/Src/stm32f4xx_hal_pcd.c ****           }
1204:Drivers/STM32F4xx_HAL_Driver/Src/stm32f4xx_hal_pcd.c ****           if ((epint & USB_OTG_DIEPINT_EPDISD) == USB_OTG_DIEPINT_EPDISD)
 1272              		.loc 1 1204 22
 1273 037c 3B69     		ldr	r3, [r7, #16]
 1274 037e 03F00203 		and	r3, r3, #2
 1275              		.loc 1 1204 14
 1276 0382 002B     		cmp	r3, #0
 1277 0384 08D0     		beq	.L49
1205:Drivers/STM32F4xx_HAL_Driver/Src/stm32f4xx_hal_pcd.c ****           {
1206:Drivers/STM32F4xx_HAL_Driver/Src/stm32f4xx_hal_pcd.c ****             CLEAR_IN_EP_INTR(epnum, USB_OTG_DIEPINT_EPDISD);
 1278              		.loc 1 1206 13
 1279 0386 7B6A     		ldr	r3, [r7, #36]
 1280 0388 5A01     		lsls	r2, r3, #5
 1281 038a FB69     		ldr	r3, [r7, #28]
 1282 038c 1344     		add	r3, r3, r2
 1283 038e 03F51063 		add	r3, r3, #2304
 1284 0392 1A46     		mov	r2, r3
 1285 0394 0223     		movs	r3, #2
 1286 0396 9360     		str	r3, [r2, #8]
 1287              	.L49:
1207:Drivers/STM32F4xx_HAL_Driver/Src/stm32f4xx_hal_pcd.c ****           }
1208:Drivers/STM32F4xx_HAL_Driver/Src/stm32f4xx_hal_pcd.c ****           if ((epint & USB_OTG_DIEPINT_TXFE) == USB_OTG_DIEPINT_TXFE)
 1288              		.loc 1 1208 22
 1289 0398 3B69     		ldr	r3, [r7, #16]
 1290 039a 03F08003 		and	r3, r3, #128
 1291              		.loc 1 1208 14
 1292 039e 002B     		cmp	r3, #0
 1293 03a0 03D0     		beq	.L43
1209:Drivers/STM32F4xx_HAL_Driver/Src/stm32f4xx_hal_pcd.c ****           {
1210:Drivers/STM32F4xx_HAL_Driver/Src/stm32f4xx_hal_pcd.c ****             (void)PCD_WriteEmptyTxFifo(hpcd, epnum);
 1294              		.loc 1 1210 19
 1295 03a2 796A     		ldr	r1, [r7, #36]
 1296 03a4 7868     		ldr	r0, [r7, #4]
 1297 03a6 FFF7FEFF 		bl	PCD_WriteEmptyTxFifo
 1298              	.L43:
1211:Drivers/STM32F4xx_HAL_Driver/Src/stm32f4xx_hal_pcd.c ****           }
ARM GAS  /var/folders/vq/qt4vp3kd5rxf7v2b6_fdtdt80000gn/T//cc6xBrdC.s 			page 45


1212:Drivers/STM32F4xx_HAL_Driver/Src/stm32f4xx_hal_pcd.c ****         }
1213:Drivers/STM32F4xx_HAL_Driver/Src/stm32f4xx_hal_pcd.c ****         epnum++;
 1299              		.loc 1 1213 14
 1300 03aa 7B6A     		ldr	r3, [r7, #36]
 1301 03ac 0133     		adds	r3, r3, #1
 1302 03ae 7B62     		str	r3, [r7, #36]
1214:Drivers/STM32F4xx_HAL_Driver/Src/stm32f4xx_hal_pcd.c ****         ep_intr >>= 1U;
 1303              		.loc 1 1214 17
 1304 03b0 BB6A     		ldr	r3, [r7, #40]
 1305 03b2 5B08     		lsrs	r3, r3, #1
 1306 03b4 BB62     		str	r3, [r7, #40]
 1307              	.L42:
1161:Drivers/STM32F4xx_HAL_Driver/Src/stm32f4xx_hal_pcd.c ****       {
 1308              		.loc 1 1161 13
 1309 03b6 BB6A     		ldr	r3, [r7, #40]
 1310 03b8 002B     		cmp	r3, #0
 1311 03ba 7FF449AF 		bne	.L50
 1312              	.L41:
1215:Drivers/STM32F4xx_HAL_Driver/Src/stm32f4xx_hal_pcd.c ****       }
1216:Drivers/STM32F4xx_HAL_Driver/Src/stm32f4xx_hal_pcd.c ****     }
1217:Drivers/STM32F4xx_HAL_Driver/Src/stm32f4xx_hal_pcd.c **** 
1218:Drivers/STM32F4xx_HAL_Driver/Src/stm32f4xx_hal_pcd.c ****     /* Handle Resume Interrupt */
1219:Drivers/STM32F4xx_HAL_Driver/Src/stm32f4xx_hal_pcd.c ****     if (__HAL_PCD_GET_FLAG(hpcd, USB_OTG_GINTSTS_WKUINT))
 1313              		.loc 1 1219 9
 1314 03be 7B68     		ldr	r3, [r7, #4]
 1315 03c0 1B68     		ldr	r3, [r3]
 1316 03c2 1846     		mov	r0, r3
 1317 03c4 FFF7FEFF 		bl	USB_ReadInterrupts
 1318 03c8 0346     		mov	r3, r0
 1319 03ca 03F00043 		and	r3, r3, #-2147483648
 1320              		.loc 1 1219 8
 1321 03ce B3F1004F 		cmp	r3, #-2147483648
 1322 03d2 22D1     		bne	.L51
1220:Drivers/STM32F4xx_HAL_Driver/Src/stm32f4xx_hal_pcd.c ****     {
1221:Drivers/STM32F4xx_HAL_Driver/Src/stm32f4xx_hal_pcd.c ****       /* Clear the Remote Wake-up Signaling */
1222:Drivers/STM32F4xx_HAL_Driver/Src/stm32f4xx_hal_pcd.c ****       USBx_DEVICE->DCTL &= ~USB_OTG_DCTL_RWUSIG;
 1323              		.loc 1 1222 25
 1324 03d4 FB69     		ldr	r3, [r7, #28]
 1325 03d6 03F50063 		add	r3, r3, #2048
 1326 03da 5B68     		ldr	r3, [r3, #4]
 1327 03dc FA69     		ldr	r2, [r7, #28]
 1328 03de 02F50062 		add	r2, r2, #2048
 1329 03e2 23F00103 		bic	r3, r3, #1
 1330 03e6 5360     		str	r3, [r2, #4]
1223:Drivers/STM32F4xx_HAL_Driver/Src/stm32f4xx_hal_pcd.c **** 
1224:Drivers/STM32F4xx_HAL_Driver/Src/stm32f4xx_hal_pcd.c ****       if (hpcd->LPM_State == LPM_L1)
 1331              		.loc 1 1224 15
 1332 03e8 7B68     		ldr	r3, [r7, #4]
 1333 03ea 93F8F433 		ldrb	r3, [r3, #1012]	@ zero_extendqisi2
 1334              		.loc 1 1224 10
 1335 03ee 012B     		cmp	r3, #1
 1336 03f0 08D1     		bne	.L52
1225:Drivers/STM32F4xx_HAL_Driver/Src/stm32f4xx_hal_pcd.c ****       {
1226:Drivers/STM32F4xx_HAL_Driver/Src/stm32f4xx_hal_pcd.c ****         hpcd->LPM_State = LPM_L0;
 1337              		.loc 1 1226 25
 1338 03f2 7B68     		ldr	r3, [r7, #4]
 1339 03f4 0022     		movs	r2, #0
ARM GAS  /var/folders/vq/qt4vp3kd5rxf7v2b6_fdtdt80000gn/T//cc6xBrdC.s 			page 46


 1340 03f6 83F8F423 		strb	r2, [r3, #1012]
1227:Drivers/STM32F4xx_HAL_Driver/Src/stm32f4xx_hal_pcd.c **** 
1228:Drivers/STM32F4xx_HAL_Driver/Src/stm32f4xx_hal_pcd.c **** #if (USE_HAL_PCD_REGISTER_CALLBACKS == 1U)
1229:Drivers/STM32F4xx_HAL_Driver/Src/stm32f4xx_hal_pcd.c ****         hpcd->LPMCallback(hpcd, PCD_LPM_L0_ACTIVE);
1230:Drivers/STM32F4xx_HAL_Driver/Src/stm32f4xx_hal_pcd.c **** #else
1231:Drivers/STM32F4xx_HAL_Driver/Src/stm32f4xx_hal_pcd.c ****         HAL_PCDEx_LPM_Callback(hpcd, PCD_LPM_L0_ACTIVE);
 1341              		.loc 1 1231 9
 1342 03fa 0021     		movs	r1, #0
 1343 03fc 7868     		ldr	r0, [r7, #4]
 1344 03fe FFF7FEFF 		bl	HAL_PCDEx_LPM_Callback
 1345 0402 02E0     		b	.L53
 1346              	.L52:
1232:Drivers/STM32F4xx_HAL_Driver/Src/stm32f4xx_hal_pcd.c **** #endif /* USE_HAL_PCD_REGISTER_CALLBACKS */
1233:Drivers/STM32F4xx_HAL_Driver/Src/stm32f4xx_hal_pcd.c ****       }
1234:Drivers/STM32F4xx_HAL_Driver/Src/stm32f4xx_hal_pcd.c ****       else
1235:Drivers/STM32F4xx_HAL_Driver/Src/stm32f4xx_hal_pcd.c ****       {
1236:Drivers/STM32F4xx_HAL_Driver/Src/stm32f4xx_hal_pcd.c **** #if (USE_HAL_PCD_REGISTER_CALLBACKS == 1U)
1237:Drivers/STM32F4xx_HAL_Driver/Src/stm32f4xx_hal_pcd.c ****         hpcd->ResumeCallback(hpcd);
1238:Drivers/STM32F4xx_HAL_Driver/Src/stm32f4xx_hal_pcd.c **** #else
1239:Drivers/STM32F4xx_HAL_Driver/Src/stm32f4xx_hal_pcd.c ****         HAL_PCD_ResumeCallback(hpcd);
 1347              		.loc 1 1239 9
 1348 0404 7868     		ldr	r0, [r7, #4]
 1349 0406 FFF7FEFF 		bl	HAL_PCD_ResumeCallback
 1350              	.L53:
1240:Drivers/STM32F4xx_HAL_Driver/Src/stm32f4xx_hal_pcd.c **** #endif /* USE_HAL_PCD_REGISTER_CALLBACKS */
1241:Drivers/STM32F4xx_HAL_Driver/Src/stm32f4xx_hal_pcd.c ****       }
1242:Drivers/STM32F4xx_HAL_Driver/Src/stm32f4xx_hal_pcd.c **** 
1243:Drivers/STM32F4xx_HAL_Driver/Src/stm32f4xx_hal_pcd.c ****       __HAL_PCD_CLEAR_FLAG(hpcd, USB_OTG_GINTSTS_WKUINT);
 1351              		.loc 1 1243 7
 1352 040a 7B68     		ldr	r3, [r7, #4]
 1353 040c 1B68     		ldr	r3, [r3]
 1354 040e 5A69     		ldr	r2, [r3, #20]
 1355 0410 7B68     		ldr	r3, [r7, #4]
 1356 0412 1B68     		ldr	r3, [r3]
 1357 0414 02F00042 		and	r2, r2, #-2147483648
 1358 0418 5A61     		str	r2, [r3, #20]
 1359              	.L51:
1244:Drivers/STM32F4xx_HAL_Driver/Src/stm32f4xx_hal_pcd.c ****     }
1245:Drivers/STM32F4xx_HAL_Driver/Src/stm32f4xx_hal_pcd.c **** 
1246:Drivers/STM32F4xx_HAL_Driver/Src/stm32f4xx_hal_pcd.c ****     /* Handle Suspend Interrupt */
1247:Drivers/STM32F4xx_HAL_Driver/Src/stm32f4xx_hal_pcd.c ****     if (__HAL_PCD_GET_FLAG(hpcd, USB_OTG_GINTSTS_USBSUSP))
 1360              		.loc 1 1247 9
 1361 041a 7B68     		ldr	r3, [r7, #4]
 1362 041c 1B68     		ldr	r3, [r3]
 1363 041e 1846     		mov	r0, r3
 1364 0420 FFF7FEFF 		bl	USB_ReadInterrupts
 1365 0424 0346     		mov	r3, r0
 1366 0426 03F40063 		and	r3, r3, #2048
 1367              		.loc 1 1247 8
 1368 042a B3F5006F 		cmp	r3, #2048
 1369 042e 12D1     		bne	.L54
1248:Drivers/STM32F4xx_HAL_Driver/Src/stm32f4xx_hal_pcd.c ****     {
1249:Drivers/STM32F4xx_HAL_Driver/Src/stm32f4xx_hal_pcd.c ****       if ((USBx_DEVICE->DSTS & USB_OTG_DSTS_SUSPSTS) == USB_OTG_DSTS_SUSPSTS)
 1370              		.loc 1 1249 12
 1371 0430 FB69     		ldr	r3, [r7, #28]
 1372 0432 03F50063 		add	r3, r3, #2048
 1373              		.loc 1 1249 23
ARM GAS  /var/folders/vq/qt4vp3kd5rxf7v2b6_fdtdt80000gn/T//cc6xBrdC.s 			page 47


 1374 0436 9B68     		ldr	r3, [r3, #8]
 1375              		.loc 1 1249 30
 1376 0438 03F00103 		and	r3, r3, #1
 1377              		.loc 1 1249 10
 1378 043c 012B     		cmp	r3, #1
 1379 043e 02D1     		bne	.L55
1250:Drivers/STM32F4xx_HAL_Driver/Src/stm32f4xx_hal_pcd.c ****       {
1251:Drivers/STM32F4xx_HAL_Driver/Src/stm32f4xx_hal_pcd.c **** #if (USE_HAL_PCD_REGISTER_CALLBACKS == 1U)
1252:Drivers/STM32F4xx_HAL_Driver/Src/stm32f4xx_hal_pcd.c ****         hpcd->SuspendCallback(hpcd);
1253:Drivers/STM32F4xx_HAL_Driver/Src/stm32f4xx_hal_pcd.c **** #else
1254:Drivers/STM32F4xx_HAL_Driver/Src/stm32f4xx_hal_pcd.c ****         HAL_PCD_SuspendCallback(hpcd);
 1380              		.loc 1 1254 9
 1381 0440 7868     		ldr	r0, [r7, #4]
 1382 0442 FFF7FEFF 		bl	HAL_PCD_SuspendCallback
 1383              	.L55:
1255:Drivers/STM32F4xx_HAL_Driver/Src/stm32f4xx_hal_pcd.c **** #endif /* USE_HAL_PCD_REGISTER_CALLBACKS */
1256:Drivers/STM32F4xx_HAL_Driver/Src/stm32f4xx_hal_pcd.c ****       }
1257:Drivers/STM32F4xx_HAL_Driver/Src/stm32f4xx_hal_pcd.c ****       __HAL_PCD_CLEAR_FLAG(hpcd, USB_OTG_GINTSTS_USBSUSP);
 1384              		.loc 1 1257 7
 1385 0446 7B68     		ldr	r3, [r7, #4]
 1386 0448 1B68     		ldr	r3, [r3]
 1387 044a 5A69     		ldr	r2, [r3, #20]
 1388 044c 7B68     		ldr	r3, [r7, #4]
 1389 044e 1B68     		ldr	r3, [r3]
 1390 0450 02F40062 		and	r2, r2, #2048
 1391 0454 5A61     		str	r2, [r3, #20]
 1392              	.L54:
1258:Drivers/STM32F4xx_HAL_Driver/Src/stm32f4xx_hal_pcd.c ****     }
1259:Drivers/STM32F4xx_HAL_Driver/Src/stm32f4xx_hal_pcd.c **** #if defined(STM32F446xx) || defined(STM32F469xx) || defined(STM32F479xx) || defined(STM32F412Zx) ||
1260:Drivers/STM32F4xx_HAL_Driver/Src/stm32f4xx_hal_pcd.c ****     /* Handle LPM Interrupt */
1261:Drivers/STM32F4xx_HAL_Driver/Src/stm32f4xx_hal_pcd.c ****     if (__HAL_PCD_GET_FLAG(hpcd, USB_OTG_GINTSTS_LPMINT))
1262:Drivers/STM32F4xx_HAL_Driver/Src/stm32f4xx_hal_pcd.c ****     {
1263:Drivers/STM32F4xx_HAL_Driver/Src/stm32f4xx_hal_pcd.c ****       __HAL_PCD_CLEAR_FLAG(hpcd, USB_OTG_GINTSTS_LPMINT);
1264:Drivers/STM32F4xx_HAL_Driver/Src/stm32f4xx_hal_pcd.c **** 
1265:Drivers/STM32F4xx_HAL_Driver/Src/stm32f4xx_hal_pcd.c ****       if (hpcd->LPM_State == LPM_L0)
1266:Drivers/STM32F4xx_HAL_Driver/Src/stm32f4xx_hal_pcd.c ****       {
1267:Drivers/STM32F4xx_HAL_Driver/Src/stm32f4xx_hal_pcd.c ****         hpcd->LPM_State = LPM_L1;
1268:Drivers/STM32F4xx_HAL_Driver/Src/stm32f4xx_hal_pcd.c ****         hpcd->BESL = (hpcd->Instance->GLPMCFG & USB_OTG_GLPMCFG_BESL) >> 2U;
1269:Drivers/STM32F4xx_HAL_Driver/Src/stm32f4xx_hal_pcd.c **** 
1270:Drivers/STM32F4xx_HAL_Driver/Src/stm32f4xx_hal_pcd.c **** #if (USE_HAL_PCD_REGISTER_CALLBACKS == 1U)
1271:Drivers/STM32F4xx_HAL_Driver/Src/stm32f4xx_hal_pcd.c ****         hpcd->LPMCallback(hpcd, PCD_LPM_L1_ACTIVE);
1272:Drivers/STM32F4xx_HAL_Driver/Src/stm32f4xx_hal_pcd.c **** #else
1273:Drivers/STM32F4xx_HAL_Driver/Src/stm32f4xx_hal_pcd.c ****         HAL_PCDEx_LPM_Callback(hpcd, PCD_LPM_L1_ACTIVE);
1274:Drivers/STM32F4xx_HAL_Driver/Src/stm32f4xx_hal_pcd.c **** #endif /* USE_HAL_PCD_REGISTER_CALLBACKS */
1275:Drivers/STM32F4xx_HAL_Driver/Src/stm32f4xx_hal_pcd.c ****       }
1276:Drivers/STM32F4xx_HAL_Driver/Src/stm32f4xx_hal_pcd.c ****       else
1277:Drivers/STM32F4xx_HAL_Driver/Src/stm32f4xx_hal_pcd.c ****       {
1278:Drivers/STM32F4xx_HAL_Driver/Src/stm32f4xx_hal_pcd.c **** #if (USE_HAL_PCD_REGISTER_CALLBACKS == 1U)
1279:Drivers/STM32F4xx_HAL_Driver/Src/stm32f4xx_hal_pcd.c ****         hpcd->SuspendCallback(hpcd);
1280:Drivers/STM32F4xx_HAL_Driver/Src/stm32f4xx_hal_pcd.c **** #else
1281:Drivers/STM32F4xx_HAL_Driver/Src/stm32f4xx_hal_pcd.c ****         HAL_PCD_SuspendCallback(hpcd);
1282:Drivers/STM32F4xx_HAL_Driver/Src/stm32f4xx_hal_pcd.c **** #endif /* USE_HAL_PCD_REGISTER_CALLBACKS */
1283:Drivers/STM32F4xx_HAL_Driver/Src/stm32f4xx_hal_pcd.c ****       }
1284:Drivers/STM32F4xx_HAL_Driver/Src/stm32f4xx_hal_pcd.c ****     }
1285:Drivers/STM32F4xx_HAL_Driver/Src/stm32f4xx_hal_pcd.c **** #endif /* defined(STM32F446xx) || defined(STM32F469xx) || defined(STM32F479xx) || defined(STM32F412
1286:Drivers/STM32F4xx_HAL_Driver/Src/stm32f4xx_hal_pcd.c ****     /* Handle Reset Interrupt */
1287:Drivers/STM32F4xx_HAL_Driver/Src/stm32f4xx_hal_pcd.c ****     if (__HAL_PCD_GET_FLAG(hpcd, USB_OTG_GINTSTS_USBRST))
ARM GAS  /var/folders/vq/qt4vp3kd5rxf7v2b6_fdtdt80000gn/T//cc6xBrdC.s 			page 48


 1393              		.loc 1 1287 9
 1394 0456 7B68     		ldr	r3, [r7, #4]
 1395 0458 1B68     		ldr	r3, [r3]
 1396 045a 1846     		mov	r0, r3
 1397 045c FFF7FEFF 		bl	USB_ReadInterrupts
 1398 0460 0346     		mov	r3, r0
 1399 0462 03F48053 		and	r3, r3, #4096
 1400              		.loc 1 1287 8
 1401 0466 B3F5805F 		cmp	r3, #4096
 1402 046a 40F0C780 		bne	.L56
1288:Drivers/STM32F4xx_HAL_Driver/Src/stm32f4xx_hal_pcd.c ****     {
1289:Drivers/STM32F4xx_HAL_Driver/Src/stm32f4xx_hal_pcd.c ****       USBx_DEVICE->DCTL &= ~USB_OTG_DCTL_RWUSIG;
 1403              		.loc 1 1289 25
 1404 046e FB69     		ldr	r3, [r7, #28]
 1405 0470 03F50063 		add	r3, r3, #2048
 1406 0474 5B68     		ldr	r3, [r3, #4]
 1407 0476 FA69     		ldr	r2, [r7, #28]
 1408 0478 02F50062 		add	r2, r2, #2048
 1409 047c 23F00103 		bic	r3, r3, #1
 1410 0480 5360     		str	r3, [r2, #4]
1290:Drivers/STM32F4xx_HAL_Driver/Src/stm32f4xx_hal_pcd.c ****       (void)USB_FlushTxFifo(hpcd->Instance, 0x10U);
 1411              		.loc 1 1290 33
 1412 0482 7B68     		ldr	r3, [r7, #4]
 1413 0484 1B68     		ldr	r3, [r3]
 1414              		.loc 1 1290 13
 1415 0486 1021     		movs	r1, #16
 1416 0488 1846     		mov	r0, r3
 1417 048a FFF7FEFF 		bl	USB_FlushTxFifo
1291:Drivers/STM32F4xx_HAL_Driver/Src/stm32f4xx_hal_pcd.c **** 
1292:Drivers/STM32F4xx_HAL_Driver/Src/stm32f4xx_hal_pcd.c ****       for (i = 0U; i < hpcd->Init.dev_endpoints; i++)
 1418              		.loc 1 1292 14
 1419 048e 0023     		movs	r3, #0
 1420 0490 FB62     		str	r3, [r7, #44]
 1421              		.loc 1 1292 7
 1422 0492 56E0     		b	.L57
 1423              	.L58:
1293:Drivers/STM32F4xx_HAL_Driver/Src/stm32f4xx_hal_pcd.c ****       {
1294:Drivers/STM32F4xx_HAL_Driver/Src/stm32f4xx_hal_pcd.c ****         USBx_INEP(i)->DIEPINT = 0xFB7FU;
 1424              		.loc 1 1294 9 discriminator 3
 1425 0494 FB6A     		ldr	r3, [r7, #44]
 1426 0496 5A01     		lsls	r2, r3, #5
 1427 0498 FB69     		ldr	r3, [r7, #28]
 1428 049a 1344     		add	r3, r3, r2
 1429 049c 03F51063 		add	r3, r3, #2304
 1430 04a0 1A46     		mov	r2, r3
 1431              		.loc 1 1294 31 discriminator 3
 1432 04a2 4FF67F33 		movw	r3, #64383
 1433 04a6 9360     		str	r3, [r2, #8]
1295:Drivers/STM32F4xx_HAL_Driver/Src/stm32f4xx_hal_pcd.c ****         USBx_INEP(i)->DIEPCTL &= ~USB_OTG_DIEPCTL_STALL;
 1434              		.loc 1 1295 31 discriminator 3
 1435 04a8 FB6A     		ldr	r3, [r7, #44]
 1436 04aa 5A01     		lsls	r2, r3, #5
 1437 04ac FB69     		ldr	r3, [r7, #28]
 1438 04ae 1344     		add	r3, r3, r2
 1439 04b0 03F51063 		add	r3, r3, #2304
 1440 04b4 1B68     		ldr	r3, [r3]
 1441 04b6 FA6A     		ldr	r2, [r7, #44]
ARM GAS  /var/folders/vq/qt4vp3kd5rxf7v2b6_fdtdt80000gn/T//cc6xBrdC.s 			page 49


 1442 04b8 5101     		lsls	r1, r2, #5
 1443 04ba FA69     		ldr	r2, [r7, #28]
 1444 04bc 0A44     		add	r2, r2, r1
 1445 04be 02F51062 		add	r2, r2, #2304
 1446 04c2 23F40013 		bic	r3, r3, #2097152
 1447 04c6 1360     		str	r3, [r2]
1296:Drivers/STM32F4xx_HAL_Driver/Src/stm32f4xx_hal_pcd.c ****         USBx_INEP(i)->DIEPCTL |= USB_OTG_DIEPCTL_SNAK;
 1448              		.loc 1 1296 31 discriminator 3
 1449 04c8 FB6A     		ldr	r3, [r7, #44]
 1450 04ca 5A01     		lsls	r2, r3, #5
 1451 04cc FB69     		ldr	r3, [r7, #28]
 1452 04ce 1344     		add	r3, r3, r2
 1453 04d0 03F51063 		add	r3, r3, #2304
 1454 04d4 1B68     		ldr	r3, [r3]
 1455 04d6 FA6A     		ldr	r2, [r7, #44]
 1456 04d8 5101     		lsls	r1, r2, #5
 1457 04da FA69     		ldr	r2, [r7, #28]
 1458 04dc 0A44     		add	r2, r2, r1
 1459 04de 02F51062 		add	r2, r2, #2304
 1460 04e2 43F00063 		orr	r3, r3, #134217728
 1461 04e6 1360     		str	r3, [r2]
1297:Drivers/STM32F4xx_HAL_Driver/Src/stm32f4xx_hal_pcd.c ****         USBx_OUTEP(i)->DOEPINT = 0xFB7FU;
 1462              		.loc 1 1297 9 discriminator 3
 1463 04e8 FB6A     		ldr	r3, [r7, #44]
 1464 04ea 5A01     		lsls	r2, r3, #5
 1465 04ec FB69     		ldr	r3, [r7, #28]
 1466 04ee 1344     		add	r3, r3, r2
 1467 04f0 03F53063 		add	r3, r3, #2816
 1468 04f4 1A46     		mov	r2, r3
 1469              		.loc 1 1297 32 discriminator 3
 1470 04f6 4FF67F33 		movw	r3, #64383
 1471 04fa 9360     		str	r3, [r2, #8]
1298:Drivers/STM32F4xx_HAL_Driver/Src/stm32f4xx_hal_pcd.c ****         USBx_OUTEP(i)->DOEPCTL &= ~USB_OTG_DOEPCTL_STALL;
 1472              		.loc 1 1298 32 discriminator 3
 1473 04fc FB6A     		ldr	r3, [r7, #44]
 1474 04fe 5A01     		lsls	r2, r3, #5
 1475 0500 FB69     		ldr	r3, [r7, #28]
 1476 0502 1344     		add	r3, r3, r2
 1477 0504 03F53063 		add	r3, r3, #2816
 1478 0508 1B68     		ldr	r3, [r3]
 1479 050a FA6A     		ldr	r2, [r7, #44]
 1480 050c 5101     		lsls	r1, r2, #5
 1481 050e FA69     		ldr	r2, [r7, #28]
 1482 0510 0A44     		add	r2, r2, r1
 1483 0512 02F53062 		add	r2, r2, #2816
 1484 0516 23F40013 		bic	r3, r3, #2097152
 1485 051a 1360     		str	r3, [r2]
1299:Drivers/STM32F4xx_HAL_Driver/Src/stm32f4xx_hal_pcd.c ****         USBx_OUTEP(i)->DOEPCTL |= USB_OTG_DOEPCTL_SNAK;
 1486              		.loc 1 1299 32 discriminator 3
 1487 051c FB6A     		ldr	r3, [r7, #44]
 1488 051e 5A01     		lsls	r2, r3, #5
 1489 0520 FB69     		ldr	r3, [r7, #28]
 1490 0522 1344     		add	r3, r3, r2
 1491 0524 03F53063 		add	r3, r3, #2816
 1492 0528 1B68     		ldr	r3, [r3]
 1493 052a FA6A     		ldr	r2, [r7, #44]
 1494 052c 5101     		lsls	r1, r2, #5
ARM GAS  /var/folders/vq/qt4vp3kd5rxf7v2b6_fdtdt80000gn/T//cc6xBrdC.s 			page 50


 1495 052e FA69     		ldr	r2, [r7, #28]
 1496 0530 0A44     		add	r2, r2, r1
 1497 0532 02F53062 		add	r2, r2, #2816
 1498 0536 43F00063 		orr	r3, r3, #134217728
 1499 053a 1360     		str	r3, [r2]
1292:Drivers/STM32F4xx_HAL_Driver/Src/stm32f4xx_hal_pcd.c ****       {
 1500              		.loc 1 1292 51 discriminator 3
 1501 053c FB6A     		ldr	r3, [r7, #44]
 1502 053e 0133     		adds	r3, r3, #1
 1503 0540 FB62     		str	r3, [r7, #44]
 1504              	.L57:
1292:Drivers/STM32F4xx_HAL_Driver/Src/stm32f4xx_hal_pcd.c ****       {
 1505              		.loc 1 1292 34 discriminator 1
 1506 0542 7B68     		ldr	r3, [r7, #4]
 1507 0544 5B68     		ldr	r3, [r3, #4]
1292:Drivers/STM32F4xx_HAL_Driver/Src/stm32f4xx_hal_pcd.c ****       {
 1508              		.loc 1 1292 7 discriminator 1
 1509 0546 FA6A     		ldr	r2, [r7, #44]
 1510 0548 9A42     		cmp	r2, r3
 1511 054a A3D3     		bcc	.L58
1300:Drivers/STM32F4xx_HAL_Driver/Src/stm32f4xx_hal_pcd.c ****       }
1301:Drivers/STM32F4xx_HAL_Driver/Src/stm32f4xx_hal_pcd.c ****       USBx_DEVICE->DAINTMSK |= 0x10001U;
 1512              		.loc 1 1301 29
 1513 054c FB69     		ldr	r3, [r7, #28]
 1514 054e 03F50063 		add	r3, r3, #2048
 1515 0552 DB69     		ldr	r3, [r3, #28]
 1516 0554 FA69     		ldr	r2, [r7, #28]
 1517 0556 02F50062 		add	r2, r2, #2048
 1518 055a 43F00113 		orr	r3, r3, #65537
 1519 055e D361     		str	r3, [r2, #28]
1302:Drivers/STM32F4xx_HAL_Driver/Src/stm32f4xx_hal_pcd.c **** 
1303:Drivers/STM32F4xx_HAL_Driver/Src/stm32f4xx_hal_pcd.c ****       if (hpcd->Init.use_dedicated_ep1 != 0U)
 1520              		.loc 1 1303 21
 1521 0560 7B68     		ldr	r3, [r7, #4]
 1522 0562 1B6B     		ldr	r3, [r3, #48]
 1523              		.loc 1 1303 10
 1524 0564 002B     		cmp	r3, #0
 1525 0566 16D0     		beq	.L59
1304:Drivers/STM32F4xx_HAL_Driver/Src/stm32f4xx_hal_pcd.c ****       {
1305:Drivers/STM32F4xx_HAL_Driver/Src/stm32f4xx_hal_pcd.c ****         USBx_DEVICE->DOUTEP1MSK |= USB_OTG_DOEPMSK_STUPM |
 1526              		.loc 1 1305 33
 1527 0568 FB69     		ldr	r3, [r7, #28]
 1528 056a 03F50063 		add	r3, r3, #2048
 1529 056e D3F88430 		ldr	r3, [r3, #132]
 1530 0572 FA69     		ldr	r2, [r7, #28]
 1531 0574 02F50062 		add	r2, r2, #2048
 1532 0578 43F00B03 		orr	r3, r3, #11
 1533 057c C2F88430 		str	r3, [r2, #132]
1306:Drivers/STM32F4xx_HAL_Driver/Src/stm32f4xx_hal_pcd.c ****                                    USB_OTG_DOEPMSK_XFRCM |
1307:Drivers/STM32F4xx_HAL_Driver/Src/stm32f4xx_hal_pcd.c ****                                    USB_OTG_DOEPMSK_EPDM;
1308:Drivers/STM32F4xx_HAL_Driver/Src/stm32f4xx_hal_pcd.c **** 
1309:Drivers/STM32F4xx_HAL_Driver/Src/stm32f4xx_hal_pcd.c ****         USBx_DEVICE->DINEP1MSK |= USB_OTG_DIEPMSK_TOM |
 1534              		.loc 1 1309 32
 1535 0580 FB69     		ldr	r3, [r7, #28]
 1536 0582 03F50063 		add	r3, r3, #2048
 1537 0586 5B6C     		ldr	r3, [r3, #68]
 1538 0588 FA69     		ldr	r2, [r7, #28]
ARM GAS  /var/folders/vq/qt4vp3kd5rxf7v2b6_fdtdt80000gn/T//cc6xBrdC.s 			page 51


 1539 058a 02F50062 		add	r2, r2, #2048
 1540 058e 43F00B03 		orr	r3, r3, #11
 1541 0592 5364     		str	r3, [r2, #68]
 1542 0594 15E0     		b	.L60
 1543              	.L59:
1310:Drivers/STM32F4xx_HAL_Driver/Src/stm32f4xx_hal_pcd.c ****                                   USB_OTG_DIEPMSK_XFRCM |
1311:Drivers/STM32F4xx_HAL_Driver/Src/stm32f4xx_hal_pcd.c ****                                   USB_OTG_DIEPMSK_EPDM;
1312:Drivers/STM32F4xx_HAL_Driver/Src/stm32f4xx_hal_pcd.c ****       }
1313:Drivers/STM32F4xx_HAL_Driver/Src/stm32f4xx_hal_pcd.c ****       else
1314:Drivers/STM32F4xx_HAL_Driver/Src/stm32f4xx_hal_pcd.c ****       {
1315:Drivers/STM32F4xx_HAL_Driver/Src/stm32f4xx_hal_pcd.c ****         USBx_DEVICE->DOEPMSK |= USB_OTG_DOEPMSK_STUPM |
 1544              		.loc 1 1315 30
 1545 0596 FB69     		ldr	r3, [r7, #28]
 1546 0598 03F50063 		add	r3, r3, #2048
 1547 059c 5B69     		ldr	r3, [r3, #20]
 1548 059e FA69     		ldr	r2, [r7, #28]
 1549 05a0 02F50062 		add	r2, r2, #2048
 1550 05a4 43F40053 		orr	r3, r3, #8192
 1551 05a8 43F02B03 		orr	r3, r3, #43
 1552 05ac 5361     		str	r3, [r2, #20]
1316:Drivers/STM32F4xx_HAL_Driver/Src/stm32f4xx_hal_pcd.c ****                                 USB_OTG_DOEPMSK_XFRCM |
1317:Drivers/STM32F4xx_HAL_Driver/Src/stm32f4xx_hal_pcd.c ****                                 USB_OTG_DOEPMSK_EPDM |
1318:Drivers/STM32F4xx_HAL_Driver/Src/stm32f4xx_hal_pcd.c ****                                 USB_OTG_DOEPMSK_OTEPSPRM |
1319:Drivers/STM32F4xx_HAL_Driver/Src/stm32f4xx_hal_pcd.c ****                                 USB_OTG_DOEPMSK_NAKM;
1320:Drivers/STM32F4xx_HAL_Driver/Src/stm32f4xx_hal_pcd.c **** 
1321:Drivers/STM32F4xx_HAL_Driver/Src/stm32f4xx_hal_pcd.c ****         USBx_DEVICE->DIEPMSK |= USB_OTG_DIEPMSK_TOM |
 1553              		.loc 1 1321 30
 1554 05ae FB69     		ldr	r3, [r7, #28]
 1555 05b0 03F50063 		add	r3, r3, #2048
 1556 05b4 1B69     		ldr	r3, [r3, #16]
 1557 05b6 FA69     		ldr	r2, [r7, #28]
 1558 05b8 02F50062 		add	r2, r2, #2048
 1559 05bc 43F00B03 		orr	r3, r3, #11
 1560 05c0 1361     		str	r3, [r2, #16]
 1561              	.L60:
1322:Drivers/STM32F4xx_HAL_Driver/Src/stm32f4xx_hal_pcd.c ****                                 USB_OTG_DIEPMSK_XFRCM |
1323:Drivers/STM32F4xx_HAL_Driver/Src/stm32f4xx_hal_pcd.c ****                                 USB_OTG_DIEPMSK_EPDM;
1324:Drivers/STM32F4xx_HAL_Driver/Src/stm32f4xx_hal_pcd.c ****       }
1325:Drivers/STM32F4xx_HAL_Driver/Src/stm32f4xx_hal_pcd.c **** 
1326:Drivers/STM32F4xx_HAL_Driver/Src/stm32f4xx_hal_pcd.c ****       /* Set Default Address to 0 */
1327:Drivers/STM32F4xx_HAL_Driver/Src/stm32f4xx_hal_pcd.c ****       USBx_DEVICE->DCFG &= ~USB_OTG_DCFG_DAD;
 1562              		.loc 1 1327 25
 1563 05c2 FB69     		ldr	r3, [r7, #28]
 1564 05c4 03F50063 		add	r3, r3, #2048
 1565 05c8 1B68     		ldr	r3, [r3]
 1566 05ca FA69     		ldr	r2, [r7, #28]
 1567 05cc 02F50062 		add	r2, r2, #2048
 1568 05d0 23F4FE63 		bic	r3, r3, #2032
 1569 05d4 1360     		str	r3, [r2]
1328:Drivers/STM32F4xx_HAL_Driver/Src/stm32f4xx_hal_pcd.c **** 
1329:Drivers/STM32F4xx_HAL_Driver/Src/stm32f4xx_hal_pcd.c ****       /* setup EP0 to receive SETUP packets */
1330:Drivers/STM32F4xx_HAL_Driver/Src/stm32f4xx_hal_pcd.c ****       (void)USB_EP0_OutStart(hpcd->Instance, (uint8_t)hpcd->Init.dma_enable,
 1570              		.loc 1 1330 34
 1571 05d6 7B68     		ldr	r3, [r7, #4]
 1572 05d8 1868     		ldr	r0, [r3]
 1573              		.loc 1 1330 65
 1574 05da 7B68     		ldr	r3, [r7, #4]
ARM GAS  /var/folders/vq/qt4vp3kd5rxf7v2b6_fdtdt80000gn/T//cc6xBrdC.s 			page 52


 1575 05dc 1B69     		ldr	r3, [r3, #16]
 1576              		.loc 1 1330 13
 1577 05de D9B2     		uxtb	r1, r3
1331:Drivers/STM32F4xx_HAL_Driver/Src/stm32f4xx_hal_pcd.c ****                              (uint8_t *)hpcd->Setup);
 1578              		.loc 1 1331 41
 1579 05e0 7B68     		ldr	r3, [r7, #4]
 1580 05e2 03F57173 		add	r3, r3, #964
1330:Drivers/STM32F4xx_HAL_Driver/Src/stm32f4xx_hal_pcd.c ****                              (uint8_t *)hpcd->Setup);
 1581              		.loc 1 1330 13
 1582 05e6 1A46     		mov	r2, r3
 1583 05e8 FFF7FEFF 		bl	USB_EP0_OutStart
1332:Drivers/STM32F4xx_HAL_Driver/Src/stm32f4xx_hal_pcd.c **** 
1333:Drivers/STM32F4xx_HAL_Driver/Src/stm32f4xx_hal_pcd.c ****       __HAL_PCD_CLEAR_FLAG(hpcd, USB_OTG_GINTSTS_USBRST);
 1584              		.loc 1 1333 7
 1585 05ec 7B68     		ldr	r3, [r7, #4]
 1586 05ee 1B68     		ldr	r3, [r3]
 1587 05f0 5A69     		ldr	r2, [r3, #20]
 1588 05f2 7B68     		ldr	r3, [r7, #4]
 1589 05f4 1B68     		ldr	r3, [r3]
 1590 05f6 02F48052 		and	r2, r2, #4096
 1591 05fa 5A61     		str	r2, [r3, #20]
 1592              	.L56:
1334:Drivers/STM32F4xx_HAL_Driver/Src/stm32f4xx_hal_pcd.c ****     }
1335:Drivers/STM32F4xx_HAL_Driver/Src/stm32f4xx_hal_pcd.c **** 
1336:Drivers/STM32F4xx_HAL_Driver/Src/stm32f4xx_hal_pcd.c ****     /* Handle Enumeration done Interrupt */
1337:Drivers/STM32F4xx_HAL_Driver/Src/stm32f4xx_hal_pcd.c ****     if (__HAL_PCD_GET_FLAG(hpcd, USB_OTG_GINTSTS_ENUMDNE))
 1593              		.loc 1 1337 9
 1594 05fc 7B68     		ldr	r3, [r7, #4]
 1595 05fe 1B68     		ldr	r3, [r3]
 1596 0600 1846     		mov	r0, r3
 1597 0602 FFF7FEFF 		bl	USB_ReadInterrupts
 1598 0606 0346     		mov	r3, r0
 1599 0608 03F40053 		and	r3, r3, #8192
 1600              		.loc 1 1337 8
 1601 060c B3F5005F 		cmp	r3, #8192
 1602 0610 24D1     		bne	.L61
1338:Drivers/STM32F4xx_HAL_Driver/Src/stm32f4xx_hal_pcd.c ****     {
1339:Drivers/STM32F4xx_HAL_Driver/Src/stm32f4xx_hal_pcd.c ****       (void)USB_ActivateSetup(hpcd->Instance);
 1603              		.loc 1 1339 35
 1604 0612 7B68     		ldr	r3, [r7, #4]
 1605 0614 1B68     		ldr	r3, [r3]
 1606              		.loc 1 1339 13
 1607 0616 1846     		mov	r0, r3
 1608 0618 FFF7FEFF 		bl	USB_ActivateSetup
1340:Drivers/STM32F4xx_HAL_Driver/Src/stm32f4xx_hal_pcd.c ****       hpcd->Init.speed = USB_GetDevSpeed(hpcd->Instance);
 1609              		.loc 1 1340 46
 1610 061c 7B68     		ldr	r3, [r7, #4]
 1611 061e 1B68     		ldr	r3, [r3]
 1612              		.loc 1 1340 26
 1613 0620 1846     		mov	r0, r3
 1614 0622 FFF7FEFF 		bl	USB_GetDevSpeed
 1615 0626 0346     		mov	r3, r0
 1616 0628 1A46     		mov	r2, r3
 1617              		.loc 1 1340 24
 1618 062a 7B68     		ldr	r3, [r7, #4]
 1619 062c DA60     		str	r2, [r3, #12]
1341:Drivers/STM32F4xx_HAL_Driver/Src/stm32f4xx_hal_pcd.c **** 
ARM GAS  /var/folders/vq/qt4vp3kd5rxf7v2b6_fdtdt80000gn/T//cc6xBrdC.s 			page 53


1342:Drivers/STM32F4xx_HAL_Driver/Src/stm32f4xx_hal_pcd.c ****       /* Set USB Turnaround time */
1343:Drivers/STM32F4xx_HAL_Driver/Src/stm32f4xx_hal_pcd.c ****       (void)USB_SetTurnaroundTime(hpcd->Instance,
 1620              		.loc 1 1343 39
 1621 062e 7B68     		ldr	r3, [r7, #4]
 1622 0630 1C68     		ldr	r4, [r3]
 1623              		.loc 1 1343 13
 1624 0632 FFF7FEFF 		bl	HAL_RCC_GetHCLKFreq
 1625 0636 0146     		mov	r1, r0
1344:Drivers/STM32F4xx_HAL_Driver/Src/stm32f4xx_hal_pcd.c ****                                   HAL_RCC_GetHCLKFreq(),
1345:Drivers/STM32F4xx_HAL_Driver/Src/stm32f4xx_hal_pcd.c ****                                   (uint8_t)hpcd->Init.speed);
 1626              		.loc 1 1345 54
 1627 0638 7B68     		ldr	r3, [r7, #4]
 1628 063a DB68     		ldr	r3, [r3, #12]
1343:Drivers/STM32F4xx_HAL_Driver/Src/stm32f4xx_hal_pcd.c ****                                   HAL_RCC_GetHCLKFreq(),
 1629              		.loc 1 1343 13
 1630 063c DBB2     		uxtb	r3, r3
 1631 063e 1A46     		mov	r2, r3
 1632 0640 2046     		mov	r0, r4
 1633 0642 FFF7FEFF 		bl	USB_SetTurnaroundTime
1346:Drivers/STM32F4xx_HAL_Driver/Src/stm32f4xx_hal_pcd.c **** 
1347:Drivers/STM32F4xx_HAL_Driver/Src/stm32f4xx_hal_pcd.c **** #if (USE_HAL_PCD_REGISTER_CALLBACKS == 1U)
1348:Drivers/STM32F4xx_HAL_Driver/Src/stm32f4xx_hal_pcd.c ****       hpcd->ResetCallback(hpcd);
1349:Drivers/STM32F4xx_HAL_Driver/Src/stm32f4xx_hal_pcd.c **** #else
1350:Drivers/STM32F4xx_HAL_Driver/Src/stm32f4xx_hal_pcd.c ****       HAL_PCD_ResetCallback(hpcd);
 1634              		.loc 1 1350 7
 1635 0646 7868     		ldr	r0, [r7, #4]
 1636 0648 FFF7FEFF 		bl	HAL_PCD_ResetCallback
1351:Drivers/STM32F4xx_HAL_Driver/Src/stm32f4xx_hal_pcd.c **** #endif /* USE_HAL_PCD_REGISTER_CALLBACKS */
1352:Drivers/STM32F4xx_HAL_Driver/Src/stm32f4xx_hal_pcd.c **** 
1353:Drivers/STM32F4xx_HAL_Driver/Src/stm32f4xx_hal_pcd.c ****       __HAL_PCD_CLEAR_FLAG(hpcd, USB_OTG_GINTSTS_ENUMDNE);
 1637              		.loc 1 1353 7
 1638 064c 7B68     		ldr	r3, [r7, #4]
 1639 064e 1B68     		ldr	r3, [r3]
 1640 0650 5A69     		ldr	r2, [r3, #20]
 1641 0652 7B68     		ldr	r3, [r7, #4]
 1642 0654 1B68     		ldr	r3, [r3]
 1643 0656 02F40052 		and	r2, r2, #8192
 1644 065a 5A61     		str	r2, [r3, #20]
 1645              	.L61:
1354:Drivers/STM32F4xx_HAL_Driver/Src/stm32f4xx_hal_pcd.c ****     }
1355:Drivers/STM32F4xx_HAL_Driver/Src/stm32f4xx_hal_pcd.c **** 
1356:Drivers/STM32F4xx_HAL_Driver/Src/stm32f4xx_hal_pcd.c ****     /* Handle SOF Interrupt */
1357:Drivers/STM32F4xx_HAL_Driver/Src/stm32f4xx_hal_pcd.c ****     if (__HAL_PCD_GET_FLAG(hpcd, USB_OTG_GINTSTS_SOF))
 1646              		.loc 1 1357 9
 1647 065c 7B68     		ldr	r3, [r7, #4]
 1648 065e 1B68     		ldr	r3, [r3]
 1649 0660 1846     		mov	r0, r3
 1650 0662 FFF7FEFF 		bl	USB_ReadInterrupts
 1651 0666 0346     		mov	r3, r0
 1652 0668 03F00803 		and	r3, r3, #8
 1653              		.loc 1 1357 8
 1654 066c 082B     		cmp	r3, #8
 1655 066e 0AD1     		bne	.L62
1358:Drivers/STM32F4xx_HAL_Driver/Src/stm32f4xx_hal_pcd.c ****     {
1359:Drivers/STM32F4xx_HAL_Driver/Src/stm32f4xx_hal_pcd.c **** #if (USE_HAL_PCD_REGISTER_CALLBACKS == 1U)
1360:Drivers/STM32F4xx_HAL_Driver/Src/stm32f4xx_hal_pcd.c ****       hpcd->SOFCallback(hpcd);
1361:Drivers/STM32F4xx_HAL_Driver/Src/stm32f4xx_hal_pcd.c **** #else
ARM GAS  /var/folders/vq/qt4vp3kd5rxf7v2b6_fdtdt80000gn/T//cc6xBrdC.s 			page 54


1362:Drivers/STM32F4xx_HAL_Driver/Src/stm32f4xx_hal_pcd.c ****       HAL_PCD_SOFCallback(hpcd);
 1656              		.loc 1 1362 7
 1657 0670 7868     		ldr	r0, [r7, #4]
 1658 0672 FFF7FEFF 		bl	HAL_PCD_SOFCallback
1363:Drivers/STM32F4xx_HAL_Driver/Src/stm32f4xx_hal_pcd.c **** #endif /* USE_HAL_PCD_REGISTER_CALLBACKS */
1364:Drivers/STM32F4xx_HAL_Driver/Src/stm32f4xx_hal_pcd.c **** 
1365:Drivers/STM32F4xx_HAL_Driver/Src/stm32f4xx_hal_pcd.c ****       __HAL_PCD_CLEAR_FLAG(hpcd, USB_OTG_GINTSTS_SOF);
 1659              		.loc 1 1365 7
 1660 0676 7B68     		ldr	r3, [r7, #4]
 1661 0678 1B68     		ldr	r3, [r3]
 1662 067a 5A69     		ldr	r2, [r3, #20]
 1663 067c 7B68     		ldr	r3, [r7, #4]
 1664 067e 1B68     		ldr	r3, [r3]
 1665 0680 02F00802 		and	r2, r2, #8
 1666 0684 5A61     		str	r2, [r3, #20]
 1667              	.L62:
1366:Drivers/STM32F4xx_HAL_Driver/Src/stm32f4xx_hal_pcd.c ****     }
1367:Drivers/STM32F4xx_HAL_Driver/Src/stm32f4xx_hal_pcd.c **** 
1368:Drivers/STM32F4xx_HAL_Driver/Src/stm32f4xx_hal_pcd.c ****     /* Handle Incomplete ISO IN Interrupt */
1369:Drivers/STM32F4xx_HAL_Driver/Src/stm32f4xx_hal_pcd.c ****     if (__HAL_PCD_GET_FLAG(hpcd, USB_OTG_GINTSTS_IISOIXFR))
 1668              		.loc 1 1369 9
 1669 0686 7B68     		ldr	r3, [r7, #4]
 1670 0688 1B68     		ldr	r3, [r3]
 1671 068a 1846     		mov	r0, r3
 1672 068c FFF7FEFF 		bl	USB_ReadInterrupts
 1673 0690 0346     		mov	r3, r0
 1674 0692 03F48013 		and	r3, r3, #1048576
 1675              		.loc 1 1369 8
 1676 0696 B3F5801F 		cmp	r3, #1048576
 1677 069a 0FD1     		bne	.L63
1370:Drivers/STM32F4xx_HAL_Driver/Src/stm32f4xx_hal_pcd.c ****     {
1371:Drivers/STM32F4xx_HAL_Driver/Src/stm32f4xx_hal_pcd.c ****       /* Keep application checking the corresponding Iso IN endpoint
1372:Drivers/STM32F4xx_HAL_Driver/Src/stm32f4xx_hal_pcd.c ****       causing the incomplete Interrupt */
1373:Drivers/STM32F4xx_HAL_Driver/Src/stm32f4xx_hal_pcd.c ****       epnum = 0U;
 1678              		.loc 1 1373 13
 1679 069c 0023     		movs	r3, #0
 1680 069e 7B62     		str	r3, [r7, #36]
1374:Drivers/STM32F4xx_HAL_Driver/Src/stm32f4xx_hal_pcd.c **** 
1375:Drivers/STM32F4xx_HAL_Driver/Src/stm32f4xx_hal_pcd.c **** #if (USE_HAL_PCD_REGISTER_CALLBACKS == 1U)
1376:Drivers/STM32F4xx_HAL_Driver/Src/stm32f4xx_hal_pcd.c ****       hpcd->ISOINIncompleteCallback(hpcd, (uint8_t)epnum);
1377:Drivers/STM32F4xx_HAL_Driver/Src/stm32f4xx_hal_pcd.c **** #else
1378:Drivers/STM32F4xx_HAL_Driver/Src/stm32f4xx_hal_pcd.c ****       HAL_PCD_ISOINIncompleteCallback(hpcd, (uint8_t)epnum);
 1681              		.loc 1 1378 7
 1682 06a0 7B6A     		ldr	r3, [r7, #36]
 1683 06a2 DBB2     		uxtb	r3, r3
 1684 06a4 1946     		mov	r1, r3
 1685 06a6 7868     		ldr	r0, [r7, #4]
 1686 06a8 FFF7FEFF 		bl	HAL_PCD_ISOINIncompleteCallback
1379:Drivers/STM32F4xx_HAL_Driver/Src/stm32f4xx_hal_pcd.c **** #endif /* USE_HAL_PCD_REGISTER_CALLBACKS */
1380:Drivers/STM32F4xx_HAL_Driver/Src/stm32f4xx_hal_pcd.c **** 
1381:Drivers/STM32F4xx_HAL_Driver/Src/stm32f4xx_hal_pcd.c ****       __HAL_PCD_CLEAR_FLAG(hpcd, USB_OTG_GINTSTS_IISOIXFR);
 1687              		.loc 1 1381 7
 1688 06ac 7B68     		ldr	r3, [r7, #4]
 1689 06ae 1B68     		ldr	r3, [r3]
 1690 06b0 5A69     		ldr	r2, [r3, #20]
 1691 06b2 7B68     		ldr	r3, [r7, #4]
 1692 06b4 1B68     		ldr	r3, [r3]
ARM GAS  /var/folders/vq/qt4vp3kd5rxf7v2b6_fdtdt80000gn/T//cc6xBrdC.s 			page 55


 1693 06b6 02F48012 		and	r2, r2, #1048576
 1694 06ba 5A61     		str	r2, [r3, #20]
 1695              	.L63:
1382:Drivers/STM32F4xx_HAL_Driver/Src/stm32f4xx_hal_pcd.c ****     }
1383:Drivers/STM32F4xx_HAL_Driver/Src/stm32f4xx_hal_pcd.c **** 
1384:Drivers/STM32F4xx_HAL_Driver/Src/stm32f4xx_hal_pcd.c ****     /* Handle Incomplete ISO OUT Interrupt */
1385:Drivers/STM32F4xx_HAL_Driver/Src/stm32f4xx_hal_pcd.c ****     if (__HAL_PCD_GET_FLAG(hpcd, USB_OTG_GINTSTS_PXFR_INCOMPISOOUT))
 1696              		.loc 1 1385 9
 1697 06bc 7B68     		ldr	r3, [r7, #4]
 1698 06be 1B68     		ldr	r3, [r3]
 1699 06c0 1846     		mov	r0, r3
 1700 06c2 FFF7FEFF 		bl	USB_ReadInterrupts
 1701 06c6 0346     		mov	r3, r0
 1702 06c8 03F40013 		and	r3, r3, #2097152
 1703              		.loc 1 1385 8
 1704 06cc B3F5001F 		cmp	r3, #2097152
 1705 06d0 0FD1     		bne	.L64
1386:Drivers/STM32F4xx_HAL_Driver/Src/stm32f4xx_hal_pcd.c ****     {
1387:Drivers/STM32F4xx_HAL_Driver/Src/stm32f4xx_hal_pcd.c ****       /* Keep application checking the corresponding Iso OUT endpoint
1388:Drivers/STM32F4xx_HAL_Driver/Src/stm32f4xx_hal_pcd.c ****       causing the incomplete Interrupt */
1389:Drivers/STM32F4xx_HAL_Driver/Src/stm32f4xx_hal_pcd.c ****       epnum = 0U;
 1706              		.loc 1 1389 13
 1707 06d2 0023     		movs	r3, #0
 1708 06d4 7B62     		str	r3, [r7, #36]
1390:Drivers/STM32F4xx_HAL_Driver/Src/stm32f4xx_hal_pcd.c **** 
1391:Drivers/STM32F4xx_HAL_Driver/Src/stm32f4xx_hal_pcd.c **** #if (USE_HAL_PCD_REGISTER_CALLBACKS == 1U)
1392:Drivers/STM32F4xx_HAL_Driver/Src/stm32f4xx_hal_pcd.c ****       hpcd->ISOOUTIncompleteCallback(hpcd, (uint8_t)epnum);
1393:Drivers/STM32F4xx_HAL_Driver/Src/stm32f4xx_hal_pcd.c **** #else
1394:Drivers/STM32F4xx_HAL_Driver/Src/stm32f4xx_hal_pcd.c ****       HAL_PCD_ISOOUTIncompleteCallback(hpcd, (uint8_t)epnum);
 1709              		.loc 1 1394 7
 1710 06d6 7B6A     		ldr	r3, [r7, #36]
 1711 06d8 DBB2     		uxtb	r3, r3
 1712 06da 1946     		mov	r1, r3
 1713 06dc 7868     		ldr	r0, [r7, #4]
 1714 06de FFF7FEFF 		bl	HAL_PCD_ISOOUTIncompleteCallback
1395:Drivers/STM32F4xx_HAL_Driver/Src/stm32f4xx_hal_pcd.c **** #endif /* USE_HAL_PCD_REGISTER_CALLBACKS */
1396:Drivers/STM32F4xx_HAL_Driver/Src/stm32f4xx_hal_pcd.c **** 
1397:Drivers/STM32F4xx_HAL_Driver/Src/stm32f4xx_hal_pcd.c ****       __HAL_PCD_CLEAR_FLAG(hpcd, USB_OTG_GINTSTS_PXFR_INCOMPISOOUT);
 1715              		.loc 1 1397 7
 1716 06e2 7B68     		ldr	r3, [r7, #4]
 1717 06e4 1B68     		ldr	r3, [r3]
 1718 06e6 5A69     		ldr	r2, [r3, #20]
 1719 06e8 7B68     		ldr	r3, [r7, #4]
 1720 06ea 1B68     		ldr	r3, [r3]
 1721 06ec 02F40012 		and	r2, r2, #2097152
 1722 06f0 5A61     		str	r2, [r3, #20]
 1723              	.L64:
1398:Drivers/STM32F4xx_HAL_Driver/Src/stm32f4xx_hal_pcd.c ****     }
1399:Drivers/STM32F4xx_HAL_Driver/Src/stm32f4xx_hal_pcd.c **** 
1400:Drivers/STM32F4xx_HAL_Driver/Src/stm32f4xx_hal_pcd.c ****     /* Handle Connection event Interrupt */
1401:Drivers/STM32F4xx_HAL_Driver/Src/stm32f4xx_hal_pcd.c ****     if (__HAL_PCD_GET_FLAG(hpcd, USB_OTG_GINTSTS_SRQINT))
 1724              		.loc 1 1401 9
 1725 06f2 7B68     		ldr	r3, [r7, #4]
 1726 06f4 1B68     		ldr	r3, [r3]
 1727 06f6 1846     		mov	r0, r3
 1728 06f8 FFF7FEFF 		bl	USB_ReadInterrupts
 1729 06fc 0346     		mov	r3, r0
ARM GAS  /var/folders/vq/qt4vp3kd5rxf7v2b6_fdtdt80000gn/T//cc6xBrdC.s 			page 56


 1730 06fe 03F08043 		and	r3, r3, #1073741824
 1731              		.loc 1 1401 8
 1732 0702 B3F1804F 		cmp	r3, #1073741824
 1733 0706 0AD1     		bne	.L65
1402:Drivers/STM32F4xx_HAL_Driver/Src/stm32f4xx_hal_pcd.c ****     {
1403:Drivers/STM32F4xx_HAL_Driver/Src/stm32f4xx_hal_pcd.c **** #if (USE_HAL_PCD_REGISTER_CALLBACKS == 1U)
1404:Drivers/STM32F4xx_HAL_Driver/Src/stm32f4xx_hal_pcd.c ****       hpcd->ConnectCallback(hpcd);
1405:Drivers/STM32F4xx_HAL_Driver/Src/stm32f4xx_hal_pcd.c **** #else
1406:Drivers/STM32F4xx_HAL_Driver/Src/stm32f4xx_hal_pcd.c ****       HAL_PCD_ConnectCallback(hpcd);
 1734              		.loc 1 1406 7
 1735 0708 7868     		ldr	r0, [r7, #4]
 1736 070a FFF7FEFF 		bl	HAL_PCD_ConnectCallback
1407:Drivers/STM32F4xx_HAL_Driver/Src/stm32f4xx_hal_pcd.c **** #endif /* USE_HAL_PCD_REGISTER_CALLBACKS */
1408:Drivers/STM32F4xx_HAL_Driver/Src/stm32f4xx_hal_pcd.c **** 
1409:Drivers/STM32F4xx_HAL_Driver/Src/stm32f4xx_hal_pcd.c ****       __HAL_PCD_CLEAR_FLAG(hpcd, USB_OTG_GINTSTS_SRQINT);
 1737              		.loc 1 1409 7
 1738 070e 7B68     		ldr	r3, [r7, #4]
 1739 0710 1B68     		ldr	r3, [r3]
 1740 0712 5A69     		ldr	r2, [r3, #20]
 1741 0714 7B68     		ldr	r3, [r7, #4]
 1742 0716 1B68     		ldr	r3, [r3]
 1743 0718 02F08042 		and	r2, r2, #1073741824
 1744 071c 5A61     		str	r2, [r3, #20]
 1745              	.L65:
1410:Drivers/STM32F4xx_HAL_Driver/Src/stm32f4xx_hal_pcd.c ****     }
1411:Drivers/STM32F4xx_HAL_Driver/Src/stm32f4xx_hal_pcd.c **** 
1412:Drivers/STM32F4xx_HAL_Driver/Src/stm32f4xx_hal_pcd.c ****     /* Handle Disconnection event Interrupt */
1413:Drivers/STM32F4xx_HAL_Driver/Src/stm32f4xx_hal_pcd.c ****     if (__HAL_PCD_GET_FLAG(hpcd, USB_OTG_GINTSTS_OTGINT))
 1746              		.loc 1 1413 9
 1747 071e 7B68     		ldr	r3, [r7, #4]
 1748 0720 1B68     		ldr	r3, [r3]
 1749 0722 1846     		mov	r0, r3
 1750 0724 FFF7FEFF 		bl	USB_ReadInterrupts
 1751 0728 0346     		mov	r3, r0
 1752 072a 03F00403 		and	r3, r3, #4
 1753              		.loc 1 1413 8
 1754 072e 042B     		cmp	r3, #4
 1755 0730 15D1     		bne	.L26
1414:Drivers/STM32F4xx_HAL_Driver/Src/stm32f4xx_hal_pcd.c ****     {
1415:Drivers/STM32F4xx_HAL_Driver/Src/stm32f4xx_hal_pcd.c ****       temp = hpcd->Instance->GOTGINT;
 1756              		.loc 1 1415 18
 1757 0732 7B68     		ldr	r3, [r7, #4]
 1758 0734 1B68     		ldr	r3, [r3]
 1759              		.loc 1 1415 12
 1760 0736 5B68     		ldr	r3, [r3, #4]
 1761 0738 BB61     		str	r3, [r7, #24]
1416:Drivers/STM32F4xx_HAL_Driver/Src/stm32f4xx_hal_pcd.c **** 
1417:Drivers/STM32F4xx_HAL_Driver/Src/stm32f4xx_hal_pcd.c ****       if ((temp & USB_OTG_GOTGINT_SEDET) == USB_OTG_GOTGINT_SEDET)
 1762              		.loc 1 1417 17
 1763 073a BB69     		ldr	r3, [r7, #24]
 1764 073c 03F00403 		and	r3, r3, #4
 1765              		.loc 1 1417 10
 1766 0740 002B     		cmp	r3, #0
 1767 0742 02D0     		beq	.L66
1418:Drivers/STM32F4xx_HAL_Driver/Src/stm32f4xx_hal_pcd.c ****       {
1419:Drivers/STM32F4xx_HAL_Driver/Src/stm32f4xx_hal_pcd.c **** #if (USE_HAL_PCD_REGISTER_CALLBACKS == 1U)
1420:Drivers/STM32F4xx_HAL_Driver/Src/stm32f4xx_hal_pcd.c ****         hpcd->DisconnectCallback(hpcd);
ARM GAS  /var/folders/vq/qt4vp3kd5rxf7v2b6_fdtdt80000gn/T//cc6xBrdC.s 			page 57


1421:Drivers/STM32F4xx_HAL_Driver/Src/stm32f4xx_hal_pcd.c **** #else
1422:Drivers/STM32F4xx_HAL_Driver/Src/stm32f4xx_hal_pcd.c ****         HAL_PCD_DisconnectCallback(hpcd);
 1768              		.loc 1 1422 9
 1769 0744 7868     		ldr	r0, [r7, #4]
 1770 0746 FFF7FEFF 		bl	HAL_PCD_DisconnectCallback
 1771              	.L66:
1423:Drivers/STM32F4xx_HAL_Driver/Src/stm32f4xx_hal_pcd.c **** #endif /* USE_HAL_PCD_REGISTER_CALLBACKS */
1424:Drivers/STM32F4xx_HAL_Driver/Src/stm32f4xx_hal_pcd.c ****       }
1425:Drivers/STM32F4xx_HAL_Driver/Src/stm32f4xx_hal_pcd.c ****       hpcd->Instance->GOTGINT |= temp;
 1772              		.loc 1 1425 11
 1773 074a 7B68     		ldr	r3, [r7, #4]
 1774 074c 1B68     		ldr	r3, [r3]
 1775              		.loc 1 1425 31
 1776 074e 5968     		ldr	r1, [r3, #4]
 1777              		.loc 1 1425 11
 1778 0750 7B68     		ldr	r3, [r7, #4]
 1779 0752 1B68     		ldr	r3, [r3]
 1780              		.loc 1 1425 31
 1781 0754 BA69     		ldr	r2, [r7, #24]
 1782 0756 0A43     		orrs	r2, r2, r1
 1783 0758 5A60     		str	r2, [r3, #4]
 1784 075a 00E0     		b	.L26
 1785              	.L67:
1065:Drivers/STM32F4xx_HAL_Driver/Src/stm32f4xx_hal_pcd.c ****     }
 1786              		.loc 1 1065 7
 1787 075c 00BF     		nop
 1788              	.L26:
1426:Drivers/STM32F4xx_HAL_Driver/Src/stm32f4xx_hal_pcd.c ****     }
1427:Drivers/STM32F4xx_HAL_Driver/Src/stm32f4xx_hal_pcd.c ****   }
1428:Drivers/STM32F4xx_HAL_Driver/Src/stm32f4xx_hal_pcd.c **** }
 1789              		.loc 1 1428 1
 1790 075e 3437     		adds	r7, r7, #52
 1791              	.LCFI35:
 1792              		.cfi_def_cfa_offset 12
 1793 0760 BD46     		mov	sp, r7
 1794              	.LCFI36:
 1795              		.cfi_def_cfa_register 13
 1796              		@ sp needed
 1797 0762 90BD     		pop	{r4, r7, pc}
 1798              		.cfi_endproc
 1799              	.LFE136:
 1801              		.section	.text.HAL_PCD_WKUP_IRQHandler,"ax",%progbits
 1802              		.align	1
 1803              		.global	HAL_PCD_WKUP_IRQHandler
 1804              		.syntax unified
 1805              		.thumb
 1806              		.thumb_func
 1807              		.fpu fpv4-sp-d16
 1809              	HAL_PCD_WKUP_IRQHandler:
 1810              	.LFB137:
1429:Drivers/STM32F4xx_HAL_Driver/Src/stm32f4xx_hal_pcd.c **** 
1430:Drivers/STM32F4xx_HAL_Driver/Src/stm32f4xx_hal_pcd.c **** 
1431:Drivers/STM32F4xx_HAL_Driver/Src/stm32f4xx_hal_pcd.c **** /**
1432:Drivers/STM32F4xx_HAL_Driver/Src/stm32f4xx_hal_pcd.c ****   * @brief  Handles PCD Wakeup interrupt request.
1433:Drivers/STM32F4xx_HAL_Driver/Src/stm32f4xx_hal_pcd.c ****   * @param  hpcd PCD handle
1434:Drivers/STM32F4xx_HAL_Driver/Src/stm32f4xx_hal_pcd.c ****   * @retval HAL status
1435:Drivers/STM32F4xx_HAL_Driver/Src/stm32f4xx_hal_pcd.c ****   */
ARM GAS  /var/folders/vq/qt4vp3kd5rxf7v2b6_fdtdt80000gn/T//cc6xBrdC.s 			page 58


1436:Drivers/STM32F4xx_HAL_Driver/Src/stm32f4xx_hal_pcd.c **** void HAL_PCD_WKUP_IRQHandler(PCD_HandleTypeDef *hpcd)
1437:Drivers/STM32F4xx_HAL_Driver/Src/stm32f4xx_hal_pcd.c **** {
 1811              		.loc 1 1437 1
 1812              		.cfi_startproc
 1813              		@ args = 0, pretend = 0, frame = 16
 1814              		@ frame_needed = 1, uses_anonymous_args = 0
 1815              		@ link register save eliminated.
 1816 0000 80B4     		push	{r7}
 1817              	.LCFI37:
 1818              		.cfi_def_cfa_offset 4
 1819              		.cfi_offset 7, -4
 1820 0002 85B0     		sub	sp, sp, #20
 1821              	.LCFI38:
 1822              		.cfi_def_cfa_offset 24
 1823 0004 00AF     		add	r7, sp, #0
 1824              	.LCFI39:
 1825              		.cfi_def_cfa_register 7
 1826 0006 7860     		str	r0, [r7, #4]
1438:Drivers/STM32F4xx_HAL_Driver/Src/stm32f4xx_hal_pcd.c ****   USB_OTG_GlobalTypeDef *USBx;
1439:Drivers/STM32F4xx_HAL_Driver/Src/stm32f4xx_hal_pcd.c **** 
1440:Drivers/STM32F4xx_HAL_Driver/Src/stm32f4xx_hal_pcd.c ****   USBx = hpcd->Instance;
 1827              		.loc 1 1440 8
 1828 0008 7B68     		ldr	r3, [r7, #4]
 1829 000a 1B68     		ldr	r3, [r3]
 1830 000c FB60     		str	r3, [r7, #12]
1441:Drivers/STM32F4xx_HAL_Driver/Src/stm32f4xx_hal_pcd.c **** 
1442:Drivers/STM32F4xx_HAL_Driver/Src/stm32f4xx_hal_pcd.c ****   if ((USBx->CID & (0x1U << 8)) == 0U)
 1831              		.loc 1 1442 12
 1832 000e FB68     		ldr	r3, [r7, #12]
 1833 0010 DB6B     		ldr	r3, [r3, #60]
 1834              		.loc 1 1442 18
 1835 0012 03F48073 		and	r3, r3, #256
 1836              		.loc 1 1442 6
 1837 0016 002B     		cmp	r3, #0
 1838 0018 04D1     		bne	.L69
1443:Drivers/STM32F4xx_HAL_Driver/Src/stm32f4xx_hal_pcd.c ****   {
1444:Drivers/STM32F4xx_HAL_Driver/Src/stm32f4xx_hal_pcd.c ****     /* Clear EXTI pending Bit */
1445:Drivers/STM32F4xx_HAL_Driver/Src/stm32f4xx_hal_pcd.c ****     __HAL_USB_OTG_FS_WAKEUP_EXTI_CLEAR_FLAG();
 1839              		.loc 1 1445 5
 1840 001a 074B     		ldr	r3, .L72
 1841 001c 4FF48022 		mov	r2, #262144
 1842 0020 5A61     		str	r2, [r3, #20]
1446:Drivers/STM32F4xx_HAL_Driver/Src/stm32f4xx_hal_pcd.c ****   }
1447:Drivers/STM32F4xx_HAL_Driver/Src/stm32f4xx_hal_pcd.c ****   else
1448:Drivers/STM32F4xx_HAL_Driver/Src/stm32f4xx_hal_pcd.c ****   {
1449:Drivers/STM32F4xx_HAL_Driver/Src/stm32f4xx_hal_pcd.c ****     /* Clear EXTI pending Bit */
1450:Drivers/STM32F4xx_HAL_Driver/Src/stm32f4xx_hal_pcd.c ****     __HAL_USB_OTG_HS_WAKEUP_EXTI_CLEAR_FLAG();
1451:Drivers/STM32F4xx_HAL_Driver/Src/stm32f4xx_hal_pcd.c ****   }
1452:Drivers/STM32F4xx_HAL_Driver/Src/stm32f4xx_hal_pcd.c **** }
 1843              		.loc 1 1452 1
 1844 0022 03E0     		b	.L71
 1845              	.L69:
1450:Drivers/STM32F4xx_HAL_Driver/Src/stm32f4xx_hal_pcd.c ****   }
 1846              		.loc 1 1450 5
 1847 0024 044B     		ldr	r3, .L72
 1848 0026 4FF48012 		mov	r2, #1048576
 1849 002a 5A61     		str	r2, [r3, #20]
ARM GAS  /var/folders/vq/qt4vp3kd5rxf7v2b6_fdtdt80000gn/T//cc6xBrdC.s 			page 59


 1850              	.L71:
 1851              		.loc 1 1452 1
 1852 002c 00BF     		nop
 1853 002e 1437     		adds	r7, r7, #20
 1854              	.LCFI40:
 1855              		.cfi_def_cfa_offset 4
 1856 0030 BD46     		mov	sp, r7
 1857              	.LCFI41:
 1858              		.cfi_def_cfa_register 13
 1859              		@ sp needed
 1860 0032 5DF8047B 		ldr	r7, [sp], #4
 1861              	.LCFI42:
 1862              		.cfi_restore 7
 1863              		.cfi_def_cfa_offset 0
 1864 0036 7047     		bx	lr
 1865              	.L73:
 1866              		.align	2
 1867              	.L72:
 1868 0038 003C0140 		.word	1073822720
 1869              		.cfi_endproc
 1870              	.LFE137:
 1872              		.section	.text.HAL_PCD_DataOutStageCallback,"ax",%progbits
 1873              		.align	1
 1874              		.weak	HAL_PCD_DataOutStageCallback
 1875              		.syntax unified
 1876              		.thumb
 1877              		.thumb_func
 1878              		.fpu fpv4-sp-d16
 1880              	HAL_PCD_DataOutStageCallback:
 1881              	.LFB138:
1453:Drivers/STM32F4xx_HAL_Driver/Src/stm32f4xx_hal_pcd.c **** #endif /* defined (USB_OTG_FS) || defined (USB_OTG_HS) */
1454:Drivers/STM32F4xx_HAL_Driver/Src/stm32f4xx_hal_pcd.c **** 
1455:Drivers/STM32F4xx_HAL_Driver/Src/stm32f4xx_hal_pcd.c **** 
1456:Drivers/STM32F4xx_HAL_Driver/Src/stm32f4xx_hal_pcd.c **** /**
1457:Drivers/STM32F4xx_HAL_Driver/Src/stm32f4xx_hal_pcd.c ****   * @brief  Data OUT stage callback.
1458:Drivers/STM32F4xx_HAL_Driver/Src/stm32f4xx_hal_pcd.c ****   * @param  hpcd PCD handle
1459:Drivers/STM32F4xx_HAL_Driver/Src/stm32f4xx_hal_pcd.c ****   * @param  epnum endpoint number
1460:Drivers/STM32F4xx_HAL_Driver/Src/stm32f4xx_hal_pcd.c ****   * @retval None
1461:Drivers/STM32F4xx_HAL_Driver/Src/stm32f4xx_hal_pcd.c ****   */
1462:Drivers/STM32F4xx_HAL_Driver/Src/stm32f4xx_hal_pcd.c **** __weak void HAL_PCD_DataOutStageCallback(PCD_HandleTypeDef *hpcd, uint8_t epnum)
1463:Drivers/STM32F4xx_HAL_Driver/Src/stm32f4xx_hal_pcd.c **** {
 1882              		.loc 1 1463 1
 1883              		.cfi_startproc
 1884              		@ args = 0, pretend = 0, frame = 8
 1885              		@ frame_needed = 1, uses_anonymous_args = 0
 1886              		@ link register save eliminated.
 1887 0000 80B4     		push	{r7}
 1888              	.LCFI43:
 1889              		.cfi_def_cfa_offset 4
 1890              		.cfi_offset 7, -4
 1891 0002 83B0     		sub	sp, sp, #12
 1892              	.LCFI44:
 1893              		.cfi_def_cfa_offset 16
 1894 0004 00AF     		add	r7, sp, #0
 1895              	.LCFI45:
 1896              		.cfi_def_cfa_register 7
 1897 0006 7860     		str	r0, [r7, #4]
ARM GAS  /var/folders/vq/qt4vp3kd5rxf7v2b6_fdtdt80000gn/T//cc6xBrdC.s 			page 60


 1898 0008 0B46     		mov	r3, r1
 1899 000a FB70     		strb	r3, [r7, #3]
1464:Drivers/STM32F4xx_HAL_Driver/Src/stm32f4xx_hal_pcd.c ****   /* Prevent unused argument(s) compilation warning */
1465:Drivers/STM32F4xx_HAL_Driver/Src/stm32f4xx_hal_pcd.c ****   UNUSED(hpcd);
1466:Drivers/STM32F4xx_HAL_Driver/Src/stm32f4xx_hal_pcd.c ****   UNUSED(epnum);
1467:Drivers/STM32F4xx_HAL_Driver/Src/stm32f4xx_hal_pcd.c **** 
1468:Drivers/STM32F4xx_HAL_Driver/Src/stm32f4xx_hal_pcd.c ****   /* NOTE : This function should not be modified, when the callback is needed,
1469:Drivers/STM32F4xx_HAL_Driver/Src/stm32f4xx_hal_pcd.c ****             the HAL_PCD_DataOutStageCallback could be implemented in the user file
1470:Drivers/STM32F4xx_HAL_Driver/Src/stm32f4xx_hal_pcd.c ****    */
1471:Drivers/STM32F4xx_HAL_Driver/Src/stm32f4xx_hal_pcd.c **** }
 1900              		.loc 1 1471 1
 1901 000c 00BF     		nop
 1902 000e 0C37     		adds	r7, r7, #12
 1903              	.LCFI46:
 1904              		.cfi_def_cfa_offset 4
 1905 0010 BD46     		mov	sp, r7
 1906              	.LCFI47:
 1907              		.cfi_def_cfa_register 13
 1908              		@ sp needed
 1909 0012 5DF8047B 		ldr	r7, [sp], #4
 1910              	.LCFI48:
 1911              		.cfi_restore 7
 1912              		.cfi_def_cfa_offset 0
 1913 0016 7047     		bx	lr
 1914              		.cfi_endproc
 1915              	.LFE138:
 1917              		.section	.text.HAL_PCD_DataInStageCallback,"ax",%progbits
 1918              		.align	1
 1919              		.weak	HAL_PCD_DataInStageCallback
 1920              		.syntax unified
 1921              		.thumb
 1922              		.thumb_func
 1923              		.fpu fpv4-sp-d16
 1925              	HAL_PCD_DataInStageCallback:
 1926              	.LFB139:
1472:Drivers/STM32F4xx_HAL_Driver/Src/stm32f4xx_hal_pcd.c **** 
1473:Drivers/STM32F4xx_HAL_Driver/Src/stm32f4xx_hal_pcd.c **** /**
1474:Drivers/STM32F4xx_HAL_Driver/Src/stm32f4xx_hal_pcd.c ****   * @brief  Data IN stage callback
1475:Drivers/STM32F4xx_HAL_Driver/Src/stm32f4xx_hal_pcd.c ****   * @param  hpcd PCD handle
1476:Drivers/STM32F4xx_HAL_Driver/Src/stm32f4xx_hal_pcd.c ****   * @param  epnum endpoint number
1477:Drivers/STM32F4xx_HAL_Driver/Src/stm32f4xx_hal_pcd.c ****   * @retval None
1478:Drivers/STM32F4xx_HAL_Driver/Src/stm32f4xx_hal_pcd.c ****   */
1479:Drivers/STM32F4xx_HAL_Driver/Src/stm32f4xx_hal_pcd.c **** __weak void HAL_PCD_DataInStageCallback(PCD_HandleTypeDef *hpcd, uint8_t epnum)
1480:Drivers/STM32F4xx_HAL_Driver/Src/stm32f4xx_hal_pcd.c **** {
 1927              		.loc 1 1480 1
 1928              		.cfi_startproc
 1929              		@ args = 0, pretend = 0, frame = 8
 1930              		@ frame_needed = 1, uses_anonymous_args = 0
 1931              		@ link register save eliminated.
 1932 0000 80B4     		push	{r7}
 1933              	.LCFI49:
 1934              		.cfi_def_cfa_offset 4
 1935              		.cfi_offset 7, -4
 1936 0002 83B0     		sub	sp, sp, #12
 1937              	.LCFI50:
 1938              		.cfi_def_cfa_offset 16
 1939 0004 00AF     		add	r7, sp, #0
ARM GAS  /var/folders/vq/qt4vp3kd5rxf7v2b6_fdtdt80000gn/T//cc6xBrdC.s 			page 61


 1940              	.LCFI51:
 1941              		.cfi_def_cfa_register 7
 1942 0006 7860     		str	r0, [r7, #4]
 1943 0008 0B46     		mov	r3, r1
 1944 000a FB70     		strb	r3, [r7, #3]
1481:Drivers/STM32F4xx_HAL_Driver/Src/stm32f4xx_hal_pcd.c ****   /* Prevent unused argument(s) compilation warning */
1482:Drivers/STM32F4xx_HAL_Driver/Src/stm32f4xx_hal_pcd.c ****   UNUSED(hpcd);
1483:Drivers/STM32F4xx_HAL_Driver/Src/stm32f4xx_hal_pcd.c ****   UNUSED(epnum);
1484:Drivers/STM32F4xx_HAL_Driver/Src/stm32f4xx_hal_pcd.c **** 
1485:Drivers/STM32F4xx_HAL_Driver/Src/stm32f4xx_hal_pcd.c ****   /* NOTE : This function should not be modified, when the callback is needed,
1486:Drivers/STM32F4xx_HAL_Driver/Src/stm32f4xx_hal_pcd.c ****             the HAL_PCD_DataInStageCallback could be implemented in the user file
1487:Drivers/STM32F4xx_HAL_Driver/Src/stm32f4xx_hal_pcd.c ****    */
1488:Drivers/STM32F4xx_HAL_Driver/Src/stm32f4xx_hal_pcd.c **** }
 1945              		.loc 1 1488 1
 1946 000c 00BF     		nop
 1947 000e 0C37     		adds	r7, r7, #12
 1948              	.LCFI52:
 1949              		.cfi_def_cfa_offset 4
 1950 0010 BD46     		mov	sp, r7
 1951              	.LCFI53:
 1952              		.cfi_def_cfa_register 13
 1953              		@ sp needed
 1954 0012 5DF8047B 		ldr	r7, [sp], #4
 1955              	.LCFI54:
 1956              		.cfi_restore 7
 1957              		.cfi_def_cfa_offset 0
 1958 0016 7047     		bx	lr
 1959              		.cfi_endproc
 1960              	.LFE139:
 1962              		.section	.text.HAL_PCD_SetupStageCallback,"ax",%progbits
 1963              		.align	1
 1964              		.weak	HAL_PCD_SetupStageCallback
 1965              		.syntax unified
 1966              		.thumb
 1967              		.thumb_func
 1968              		.fpu fpv4-sp-d16
 1970              	HAL_PCD_SetupStageCallback:
 1971              	.LFB140:
1489:Drivers/STM32F4xx_HAL_Driver/Src/stm32f4xx_hal_pcd.c **** /**
1490:Drivers/STM32F4xx_HAL_Driver/Src/stm32f4xx_hal_pcd.c ****   * @brief  Setup stage callback
1491:Drivers/STM32F4xx_HAL_Driver/Src/stm32f4xx_hal_pcd.c ****   * @param  hpcd PCD handle
1492:Drivers/STM32F4xx_HAL_Driver/Src/stm32f4xx_hal_pcd.c ****   * @retval None
1493:Drivers/STM32F4xx_HAL_Driver/Src/stm32f4xx_hal_pcd.c ****   */
1494:Drivers/STM32F4xx_HAL_Driver/Src/stm32f4xx_hal_pcd.c **** __weak void HAL_PCD_SetupStageCallback(PCD_HandleTypeDef *hpcd)
1495:Drivers/STM32F4xx_HAL_Driver/Src/stm32f4xx_hal_pcd.c **** {
 1972              		.loc 1 1495 1
 1973              		.cfi_startproc
 1974              		@ args = 0, pretend = 0, frame = 8
 1975              		@ frame_needed = 1, uses_anonymous_args = 0
 1976              		@ link register save eliminated.
 1977 0000 80B4     		push	{r7}
 1978              	.LCFI55:
 1979              		.cfi_def_cfa_offset 4
 1980              		.cfi_offset 7, -4
 1981 0002 83B0     		sub	sp, sp, #12
 1982              	.LCFI56:
 1983              		.cfi_def_cfa_offset 16
ARM GAS  /var/folders/vq/qt4vp3kd5rxf7v2b6_fdtdt80000gn/T//cc6xBrdC.s 			page 62


 1984 0004 00AF     		add	r7, sp, #0
 1985              	.LCFI57:
 1986              		.cfi_def_cfa_register 7
 1987 0006 7860     		str	r0, [r7, #4]
1496:Drivers/STM32F4xx_HAL_Driver/Src/stm32f4xx_hal_pcd.c ****   /* Prevent unused argument(s) compilation warning */
1497:Drivers/STM32F4xx_HAL_Driver/Src/stm32f4xx_hal_pcd.c ****   UNUSED(hpcd);
1498:Drivers/STM32F4xx_HAL_Driver/Src/stm32f4xx_hal_pcd.c **** 
1499:Drivers/STM32F4xx_HAL_Driver/Src/stm32f4xx_hal_pcd.c ****   /* NOTE : This function should not be modified, when the callback is needed,
1500:Drivers/STM32F4xx_HAL_Driver/Src/stm32f4xx_hal_pcd.c ****             the HAL_PCD_SetupStageCallback could be implemented in the user file
1501:Drivers/STM32F4xx_HAL_Driver/Src/stm32f4xx_hal_pcd.c ****    */
1502:Drivers/STM32F4xx_HAL_Driver/Src/stm32f4xx_hal_pcd.c **** }
 1988              		.loc 1 1502 1
 1989 0008 00BF     		nop
 1990 000a 0C37     		adds	r7, r7, #12
 1991              	.LCFI58:
 1992              		.cfi_def_cfa_offset 4
 1993 000c BD46     		mov	sp, r7
 1994              	.LCFI59:
 1995              		.cfi_def_cfa_register 13
 1996              		@ sp needed
 1997 000e 5DF8047B 		ldr	r7, [sp], #4
 1998              	.LCFI60:
 1999              		.cfi_restore 7
 2000              		.cfi_def_cfa_offset 0
 2001 0012 7047     		bx	lr
 2002              		.cfi_endproc
 2003              	.LFE140:
 2005              		.section	.text.HAL_PCD_SOFCallback,"ax",%progbits
 2006              		.align	1
 2007              		.weak	HAL_PCD_SOFCallback
 2008              		.syntax unified
 2009              		.thumb
 2010              		.thumb_func
 2011              		.fpu fpv4-sp-d16
 2013              	HAL_PCD_SOFCallback:
 2014              	.LFB141:
1503:Drivers/STM32F4xx_HAL_Driver/Src/stm32f4xx_hal_pcd.c **** 
1504:Drivers/STM32F4xx_HAL_Driver/Src/stm32f4xx_hal_pcd.c **** /**
1505:Drivers/STM32F4xx_HAL_Driver/Src/stm32f4xx_hal_pcd.c ****   * @brief  USB Start Of Frame callback.
1506:Drivers/STM32F4xx_HAL_Driver/Src/stm32f4xx_hal_pcd.c ****   * @param  hpcd PCD handle
1507:Drivers/STM32F4xx_HAL_Driver/Src/stm32f4xx_hal_pcd.c ****   * @retval None
1508:Drivers/STM32F4xx_HAL_Driver/Src/stm32f4xx_hal_pcd.c ****   */
1509:Drivers/STM32F4xx_HAL_Driver/Src/stm32f4xx_hal_pcd.c **** __weak void HAL_PCD_SOFCallback(PCD_HandleTypeDef *hpcd)
1510:Drivers/STM32F4xx_HAL_Driver/Src/stm32f4xx_hal_pcd.c **** {
 2015              		.loc 1 1510 1
 2016              		.cfi_startproc
 2017              		@ args = 0, pretend = 0, frame = 8
 2018              		@ frame_needed = 1, uses_anonymous_args = 0
 2019              		@ link register save eliminated.
 2020 0000 80B4     		push	{r7}
 2021              	.LCFI61:
 2022              		.cfi_def_cfa_offset 4
 2023              		.cfi_offset 7, -4
 2024 0002 83B0     		sub	sp, sp, #12
 2025              	.LCFI62:
 2026              		.cfi_def_cfa_offset 16
 2027 0004 00AF     		add	r7, sp, #0
ARM GAS  /var/folders/vq/qt4vp3kd5rxf7v2b6_fdtdt80000gn/T//cc6xBrdC.s 			page 63


 2028              	.LCFI63:
 2029              		.cfi_def_cfa_register 7
 2030 0006 7860     		str	r0, [r7, #4]
1511:Drivers/STM32F4xx_HAL_Driver/Src/stm32f4xx_hal_pcd.c ****   /* Prevent unused argument(s) compilation warning */
1512:Drivers/STM32F4xx_HAL_Driver/Src/stm32f4xx_hal_pcd.c ****   UNUSED(hpcd);
1513:Drivers/STM32F4xx_HAL_Driver/Src/stm32f4xx_hal_pcd.c **** 
1514:Drivers/STM32F4xx_HAL_Driver/Src/stm32f4xx_hal_pcd.c ****   /* NOTE : This function should not be modified, when the callback is needed,
1515:Drivers/STM32F4xx_HAL_Driver/Src/stm32f4xx_hal_pcd.c ****             the HAL_PCD_SOFCallback could be implemented in the user file
1516:Drivers/STM32F4xx_HAL_Driver/Src/stm32f4xx_hal_pcd.c ****    */
1517:Drivers/STM32F4xx_HAL_Driver/Src/stm32f4xx_hal_pcd.c **** }
 2031              		.loc 1 1517 1
 2032 0008 00BF     		nop
 2033 000a 0C37     		adds	r7, r7, #12
 2034              	.LCFI64:
 2035              		.cfi_def_cfa_offset 4
 2036 000c BD46     		mov	sp, r7
 2037              	.LCFI65:
 2038              		.cfi_def_cfa_register 13
 2039              		@ sp needed
 2040 000e 5DF8047B 		ldr	r7, [sp], #4
 2041              	.LCFI66:
 2042              		.cfi_restore 7
 2043              		.cfi_def_cfa_offset 0
 2044 0012 7047     		bx	lr
 2045              		.cfi_endproc
 2046              	.LFE141:
 2048              		.section	.text.HAL_PCD_ResetCallback,"ax",%progbits
 2049              		.align	1
 2050              		.weak	HAL_PCD_ResetCallback
 2051              		.syntax unified
 2052              		.thumb
 2053              		.thumb_func
 2054              		.fpu fpv4-sp-d16
 2056              	HAL_PCD_ResetCallback:
 2057              	.LFB142:
1518:Drivers/STM32F4xx_HAL_Driver/Src/stm32f4xx_hal_pcd.c **** 
1519:Drivers/STM32F4xx_HAL_Driver/Src/stm32f4xx_hal_pcd.c **** /**
1520:Drivers/STM32F4xx_HAL_Driver/Src/stm32f4xx_hal_pcd.c ****   * @brief  USB Reset callback.
1521:Drivers/STM32F4xx_HAL_Driver/Src/stm32f4xx_hal_pcd.c ****   * @param  hpcd PCD handle
1522:Drivers/STM32F4xx_HAL_Driver/Src/stm32f4xx_hal_pcd.c ****   * @retval None
1523:Drivers/STM32F4xx_HAL_Driver/Src/stm32f4xx_hal_pcd.c ****   */
1524:Drivers/STM32F4xx_HAL_Driver/Src/stm32f4xx_hal_pcd.c **** __weak void HAL_PCD_ResetCallback(PCD_HandleTypeDef *hpcd)
1525:Drivers/STM32F4xx_HAL_Driver/Src/stm32f4xx_hal_pcd.c **** {
 2058              		.loc 1 1525 1
 2059              		.cfi_startproc
 2060              		@ args = 0, pretend = 0, frame = 8
 2061              		@ frame_needed = 1, uses_anonymous_args = 0
 2062              		@ link register save eliminated.
 2063 0000 80B4     		push	{r7}
 2064              	.LCFI67:
 2065              		.cfi_def_cfa_offset 4
 2066              		.cfi_offset 7, -4
 2067 0002 83B0     		sub	sp, sp, #12
 2068              	.LCFI68:
 2069              		.cfi_def_cfa_offset 16
 2070 0004 00AF     		add	r7, sp, #0
 2071              	.LCFI69:
ARM GAS  /var/folders/vq/qt4vp3kd5rxf7v2b6_fdtdt80000gn/T//cc6xBrdC.s 			page 64


 2072              		.cfi_def_cfa_register 7
 2073 0006 7860     		str	r0, [r7, #4]
1526:Drivers/STM32F4xx_HAL_Driver/Src/stm32f4xx_hal_pcd.c ****   /* Prevent unused argument(s) compilation warning */
1527:Drivers/STM32F4xx_HAL_Driver/Src/stm32f4xx_hal_pcd.c ****   UNUSED(hpcd);
1528:Drivers/STM32F4xx_HAL_Driver/Src/stm32f4xx_hal_pcd.c **** 
1529:Drivers/STM32F4xx_HAL_Driver/Src/stm32f4xx_hal_pcd.c ****   /* NOTE : This function should not be modified, when the callback is needed,
1530:Drivers/STM32F4xx_HAL_Driver/Src/stm32f4xx_hal_pcd.c ****             the HAL_PCD_ResetCallback could be implemented in the user file
1531:Drivers/STM32F4xx_HAL_Driver/Src/stm32f4xx_hal_pcd.c ****    */
1532:Drivers/STM32F4xx_HAL_Driver/Src/stm32f4xx_hal_pcd.c **** }
 2074              		.loc 1 1532 1
 2075 0008 00BF     		nop
 2076 000a 0C37     		adds	r7, r7, #12
 2077              	.LCFI70:
 2078              		.cfi_def_cfa_offset 4
 2079 000c BD46     		mov	sp, r7
 2080              	.LCFI71:
 2081              		.cfi_def_cfa_register 13
 2082              		@ sp needed
 2083 000e 5DF8047B 		ldr	r7, [sp], #4
 2084              	.LCFI72:
 2085              		.cfi_restore 7
 2086              		.cfi_def_cfa_offset 0
 2087 0012 7047     		bx	lr
 2088              		.cfi_endproc
 2089              	.LFE142:
 2091              		.section	.text.HAL_PCD_SuspendCallback,"ax",%progbits
 2092              		.align	1
 2093              		.weak	HAL_PCD_SuspendCallback
 2094              		.syntax unified
 2095              		.thumb
 2096              		.thumb_func
 2097              		.fpu fpv4-sp-d16
 2099              	HAL_PCD_SuspendCallback:
 2100              	.LFB143:
1533:Drivers/STM32F4xx_HAL_Driver/Src/stm32f4xx_hal_pcd.c **** 
1534:Drivers/STM32F4xx_HAL_Driver/Src/stm32f4xx_hal_pcd.c **** /**
1535:Drivers/STM32F4xx_HAL_Driver/Src/stm32f4xx_hal_pcd.c ****   * @brief  Suspend event callback.
1536:Drivers/STM32F4xx_HAL_Driver/Src/stm32f4xx_hal_pcd.c ****   * @param  hpcd PCD handle
1537:Drivers/STM32F4xx_HAL_Driver/Src/stm32f4xx_hal_pcd.c ****   * @retval None
1538:Drivers/STM32F4xx_HAL_Driver/Src/stm32f4xx_hal_pcd.c ****   */
1539:Drivers/STM32F4xx_HAL_Driver/Src/stm32f4xx_hal_pcd.c **** __weak void HAL_PCD_SuspendCallback(PCD_HandleTypeDef *hpcd)
1540:Drivers/STM32F4xx_HAL_Driver/Src/stm32f4xx_hal_pcd.c **** {
 2101              		.loc 1 1540 1
 2102              		.cfi_startproc
 2103              		@ args = 0, pretend = 0, frame = 8
 2104              		@ frame_needed = 1, uses_anonymous_args = 0
 2105              		@ link register save eliminated.
 2106 0000 80B4     		push	{r7}
 2107              	.LCFI73:
 2108              		.cfi_def_cfa_offset 4
 2109              		.cfi_offset 7, -4
 2110 0002 83B0     		sub	sp, sp, #12
 2111              	.LCFI74:
 2112              		.cfi_def_cfa_offset 16
 2113 0004 00AF     		add	r7, sp, #0
 2114              	.LCFI75:
 2115              		.cfi_def_cfa_register 7
ARM GAS  /var/folders/vq/qt4vp3kd5rxf7v2b6_fdtdt80000gn/T//cc6xBrdC.s 			page 65


 2116 0006 7860     		str	r0, [r7, #4]
1541:Drivers/STM32F4xx_HAL_Driver/Src/stm32f4xx_hal_pcd.c ****   /* Prevent unused argument(s) compilation warning */
1542:Drivers/STM32F4xx_HAL_Driver/Src/stm32f4xx_hal_pcd.c ****   UNUSED(hpcd);
1543:Drivers/STM32F4xx_HAL_Driver/Src/stm32f4xx_hal_pcd.c **** 
1544:Drivers/STM32F4xx_HAL_Driver/Src/stm32f4xx_hal_pcd.c ****   /* NOTE : This function should not be modified, when the callback is needed,
1545:Drivers/STM32F4xx_HAL_Driver/Src/stm32f4xx_hal_pcd.c ****             the HAL_PCD_SuspendCallback could be implemented in the user file
1546:Drivers/STM32F4xx_HAL_Driver/Src/stm32f4xx_hal_pcd.c ****    */
1547:Drivers/STM32F4xx_HAL_Driver/Src/stm32f4xx_hal_pcd.c **** }
 2117              		.loc 1 1547 1
 2118 0008 00BF     		nop
 2119 000a 0C37     		adds	r7, r7, #12
 2120              	.LCFI76:
 2121              		.cfi_def_cfa_offset 4
 2122 000c BD46     		mov	sp, r7
 2123              	.LCFI77:
 2124              		.cfi_def_cfa_register 13
 2125              		@ sp needed
 2126 000e 5DF8047B 		ldr	r7, [sp], #4
 2127              	.LCFI78:
 2128              		.cfi_restore 7
 2129              		.cfi_def_cfa_offset 0
 2130 0012 7047     		bx	lr
 2131              		.cfi_endproc
 2132              	.LFE143:
 2134              		.section	.text.HAL_PCD_ResumeCallback,"ax",%progbits
 2135              		.align	1
 2136              		.weak	HAL_PCD_ResumeCallback
 2137              		.syntax unified
 2138              		.thumb
 2139              		.thumb_func
 2140              		.fpu fpv4-sp-d16
 2142              	HAL_PCD_ResumeCallback:
 2143              	.LFB144:
1548:Drivers/STM32F4xx_HAL_Driver/Src/stm32f4xx_hal_pcd.c **** 
1549:Drivers/STM32F4xx_HAL_Driver/Src/stm32f4xx_hal_pcd.c **** /**
1550:Drivers/STM32F4xx_HAL_Driver/Src/stm32f4xx_hal_pcd.c ****   * @brief  Resume event callback.
1551:Drivers/STM32F4xx_HAL_Driver/Src/stm32f4xx_hal_pcd.c ****   * @param  hpcd PCD handle
1552:Drivers/STM32F4xx_HAL_Driver/Src/stm32f4xx_hal_pcd.c ****   * @retval None
1553:Drivers/STM32F4xx_HAL_Driver/Src/stm32f4xx_hal_pcd.c ****   */
1554:Drivers/STM32F4xx_HAL_Driver/Src/stm32f4xx_hal_pcd.c **** __weak void HAL_PCD_ResumeCallback(PCD_HandleTypeDef *hpcd)
1555:Drivers/STM32F4xx_HAL_Driver/Src/stm32f4xx_hal_pcd.c **** {
 2144              		.loc 1 1555 1
 2145              		.cfi_startproc
 2146              		@ args = 0, pretend = 0, frame = 8
 2147              		@ frame_needed = 1, uses_anonymous_args = 0
 2148              		@ link register save eliminated.
 2149 0000 80B4     		push	{r7}
 2150              	.LCFI79:
 2151              		.cfi_def_cfa_offset 4
 2152              		.cfi_offset 7, -4
 2153 0002 83B0     		sub	sp, sp, #12
 2154              	.LCFI80:
 2155              		.cfi_def_cfa_offset 16
 2156 0004 00AF     		add	r7, sp, #0
 2157              	.LCFI81:
 2158              		.cfi_def_cfa_register 7
 2159 0006 7860     		str	r0, [r7, #4]
ARM GAS  /var/folders/vq/qt4vp3kd5rxf7v2b6_fdtdt80000gn/T//cc6xBrdC.s 			page 66


1556:Drivers/STM32F4xx_HAL_Driver/Src/stm32f4xx_hal_pcd.c ****   /* Prevent unused argument(s) compilation warning */
1557:Drivers/STM32F4xx_HAL_Driver/Src/stm32f4xx_hal_pcd.c ****   UNUSED(hpcd);
1558:Drivers/STM32F4xx_HAL_Driver/Src/stm32f4xx_hal_pcd.c **** 
1559:Drivers/STM32F4xx_HAL_Driver/Src/stm32f4xx_hal_pcd.c ****   /* NOTE : This function should not be modified, when the callback is needed,
1560:Drivers/STM32F4xx_HAL_Driver/Src/stm32f4xx_hal_pcd.c ****             the HAL_PCD_ResumeCallback could be implemented in the user file
1561:Drivers/STM32F4xx_HAL_Driver/Src/stm32f4xx_hal_pcd.c ****    */
1562:Drivers/STM32F4xx_HAL_Driver/Src/stm32f4xx_hal_pcd.c **** }
 2160              		.loc 1 1562 1
 2161 0008 00BF     		nop
 2162 000a 0C37     		adds	r7, r7, #12
 2163              	.LCFI82:
 2164              		.cfi_def_cfa_offset 4
 2165 000c BD46     		mov	sp, r7
 2166              	.LCFI83:
 2167              		.cfi_def_cfa_register 13
 2168              		@ sp needed
 2169 000e 5DF8047B 		ldr	r7, [sp], #4
 2170              	.LCFI84:
 2171              		.cfi_restore 7
 2172              		.cfi_def_cfa_offset 0
 2173 0012 7047     		bx	lr
 2174              		.cfi_endproc
 2175              	.LFE144:
 2177              		.section	.text.HAL_PCD_ISOOUTIncompleteCallback,"ax",%progbits
 2178              		.align	1
 2179              		.weak	HAL_PCD_ISOOUTIncompleteCallback
 2180              		.syntax unified
 2181              		.thumb
 2182              		.thumb_func
 2183              		.fpu fpv4-sp-d16
 2185              	HAL_PCD_ISOOUTIncompleteCallback:
 2186              	.LFB145:
1563:Drivers/STM32F4xx_HAL_Driver/Src/stm32f4xx_hal_pcd.c **** 
1564:Drivers/STM32F4xx_HAL_Driver/Src/stm32f4xx_hal_pcd.c **** /**
1565:Drivers/STM32F4xx_HAL_Driver/Src/stm32f4xx_hal_pcd.c ****   * @brief  Incomplete ISO OUT callback.
1566:Drivers/STM32F4xx_HAL_Driver/Src/stm32f4xx_hal_pcd.c ****   * @param  hpcd PCD handle
1567:Drivers/STM32F4xx_HAL_Driver/Src/stm32f4xx_hal_pcd.c ****   * @param  epnum endpoint number
1568:Drivers/STM32F4xx_HAL_Driver/Src/stm32f4xx_hal_pcd.c ****   * @retval None
1569:Drivers/STM32F4xx_HAL_Driver/Src/stm32f4xx_hal_pcd.c ****   */
1570:Drivers/STM32F4xx_HAL_Driver/Src/stm32f4xx_hal_pcd.c **** __weak void HAL_PCD_ISOOUTIncompleteCallback(PCD_HandleTypeDef *hpcd, uint8_t epnum)
1571:Drivers/STM32F4xx_HAL_Driver/Src/stm32f4xx_hal_pcd.c **** {
 2187              		.loc 1 1571 1
 2188              		.cfi_startproc
 2189              		@ args = 0, pretend = 0, frame = 8
 2190              		@ frame_needed = 1, uses_anonymous_args = 0
 2191              		@ link register save eliminated.
 2192 0000 80B4     		push	{r7}
 2193              	.LCFI85:
 2194              		.cfi_def_cfa_offset 4
 2195              		.cfi_offset 7, -4
 2196 0002 83B0     		sub	sp, sp, #12
 2197              	.LCFI86:
 2198              		.cfi_def_cfa_offset 16
 2199 0004 00AF     		add	r7, sp, #0
 2200              	.LCFI87:
 2201              		.cfi_def_cfa_register 7
 2202 0006 7860     		str	r0, [r7, #4]
ARM GAS  /var/folders/vq/qt4vp3kd5rxf7v2b6_fdtdt80000gn/T//cc6xBrdC.s 			page 67


 2203 0008 0B46     		mov	r3, r1
 2204 000a FB70     		strb	r3, [r7, #3]
1572:Drivers/STM32F4xx_HAL_Driver/Src/stm32f4xx_hal_pcd.c ****   /* Prevent unused argument(s) compilation warning */
1573:Drivers/STM32F4xx_HAL_Driver/Src/stm32f4xx_hal_pcd.c ****   UNUSED(hpcd);
1574:Drivers/STM32F4xx_HAL_Driver/Src/stm32f4xx_hal_pcd.c ****   UNUSED(epnum);
1575:Drivers/STM32F4xx_HAL_Driver/Src/stm32f4xx_hal_pcd.c **** 
1576:Drivers/STM32F4xx_HAL_Driver/Src/stm32f4xx_hal_pcd.c ****   /* NOTE : This function should not be modified, when the callback is needed,
1577:Drivers/STM32F4xx_HAL_Driver/Src/stm32f4xx_hal_pcd.c ****             the HAL_PCD_ISOOUTIncompleteCallback could be implemented in the user file
1578:Drivers/STM32F4xx_HAL_Driver/Src/stm32f4xx_hal_pcd.c ****    */
1579:Drivers/STM32F4xx_HAL_Driver/Src/stm32f4xx_hal_pcd.c **** }
 2205              		.loc 1 1579 1
 2206 000c 00BF     		nop
 2207 000e 0C37     		adds	r7, r7, #12
 2208              	.LCFI88:
 2209              		.cfi_def_cfa_offset 4
 2210 0010 BD46     		mov	sp, r7
 2211              	.LCFI89:
 2212              		.cfi_def_cfa_register 13
 2213              		@ sp needed
 2214 0012 5DF8047B 		ldr	r7, [sp], #4
 2215              	.LCFI90:
 2216              		.cfi_restore 7
 2217              		.cfi_def_cfa_offset 0
 2218 0016 7047     		bx	lr
 2219              		.cfi_endproc
 2220              	.LFE145:
 2222              		.section	.text.HAL_PCD_ISOINIncompleteCallback,"ax",%progbits
 2223              		.align	1
 2224              		.weak	HAL_PCD_ISOINIncompleteCallback
 2225              		.syntax unified
 2226              		.thumb
 2227              		.thumb_func
 2228              		.fpu fpv4-sp-d16
 2230              	HAL_PCD_ISOINIncompleteCallback:
 2231              	.LFB146:
1580:Drivers/STM32F4xx_HAL_Driver/Src/stm32f4xx_hal_pcd.c **** 
1581:Drivers/STM32F4xx_HAL_Driver/Src/stm32f4xx_hal_pcd.c **** /**
1582:Drivers/STM32F4xx_HAL_Driver/Src/stm32f4xx_hal_pcd.c ****   * @brief  Incomplete ISO IN callback.
1583:Drivers/STM32F4xx_HAL_Driver/Src/stm32f4xx_hal_pcd.c ****   * @param  hpcd PCD handle
1584:Drivers/STM32F4xx_HAL_Driver/Src/stm32f4xx_hal_pcd.c ****   * @param  epnum endpoint number
1585:Drivers/STM32F4xx_HAL_Driver/Src/stm32f4xx_hal_pcd.c ****   * @retval None
1586:Drivers/STM32F4xx_HAL_Driver/Src/stm32f4xx_hal_pcd.c ****   */
1587:Drivers/STM32F4xx_HAL_Driver/Src/stm32f4xx_hal_pcd.c **** __weak void HAL_PCD_ISOINIncompleteCallback(PCD_HandleTypeDef *hpcd, uint8_t epnum)
1588:Drivers/STM32F4xx_HAL_Driver/Src/stm32f4xx_hal_pcd.c **** {
 2232              		.loc 1 1588 1
 2233              		.cfi_startproc
 2234              		@ args = 0, pretend = 0, frame = 8
 2235              		@ frame_needed = 1, uses_anonymous_args = 0
 2236              		@ link register save eliminated.
 2237 0000 80B4     		push	{r7}
 2238              	.LCFI91:
 2239              		.cfi_def_cfa_offset 4
 2240              		.cfi_offset 7, -4
 2241 0002 83B0     		sub	sp, sp, #12
 2242              	.LCFI92:
 2243              		.cfi_def_cfa_offset 16
 2244 0004 00AF     		add	r7, sp, #0
ARM GAS  /var/folders/vq/qt4vp3kd5rxf7v2b6_fdtdt80000gn/T//cc6xBrdC.s 			page 68


 2245              	.LCFI93:
 2246              		.cfi_def_cfa_register 7
 2247 0006 7860     		str	r0, [r7, #4]
 2248 0008 0B46     		mov	r3, r1
 2249 000a FB70     		strb	r3, [r7, #3]
1589:Drivers/STM32F4xx_HAL_Driver/Src/stm32f4xx_hal_pcd.c ****   /* Prevent unused argument(s) compilation warning */
1590:Drivers/STM32F4xx_HAL_Driver/Src/stm32f4xx_hal_pcd.c ****   UNUSED(hpcd);
1591:Drivers/STM32F4xx_HAL_Driver/Src/stm32f4xx_hal_pcd.c ****   UNUSED(epnum);
1592:Drivers/STM32F4xx_HAL_Driver/Src/stm32f4xx_hal_pcd.c **** 
1593:Drivers/STM32F4xx_HAL_Driver/Src/stm32f4xx_hal_pcd.c ****   /* NOTE : This function should not be modified, when the callback is needed,
1594:Drivers/STM32F4xx_HAL_Driver/Src/stm32f4xx_hal_pcd.c ****             the HAL_PCD_ISOINIncompleteCallback could be implemented in the user file
1595:Drivers/STM32F4xx_HAL_Driver/Src/stm32f4xx_hal_pcd.c ****    */
1596:Drivers/STM32F4xx_HAL_Driver/Src/stm32f4xx_hal_pcd.c **** }
 2250              		.loc 1 1596 1
 2251 000c 00BF     		nop
 2252 000e 0C37     		adds	r7, r7, #12
 2253              	.LCFI94:
 2254              		.cfi_def_cfa_offset 4
 2255 0010 BD46     		mov	sp, r7
 2256              	.LCFI95:
 2257              		.cfi_def_cfa_register 13
 2258              		@ sp needed
 2259 0012 5DF8047B 		ldr	r7, [sp], #4
 2260              	.LCFI96:
 2261              		.cfi_restore 7
 2262              		.cfi_def_cfa_offset 0
 2263 0016 7047     		bx	lr
 2264              		.cfi_endproc
 2265              	.LFE146:
 2267              		.section	.text.HAL_PCD_ConnectCallback,"ax",%progbits
 2268              		.align	1
 2269              		.weak	HAL_PCD_ConnectCallback
 2270              		.syntax unified
 2271              		.thumb
 2272              		.thumb_func
 2273              		.fpu fpv4-sp-d16
 2275              	HAL_PCD_ConnectCallback:
 2276              	.LFB147:
1597:Drivers/STM32F4xx_HAL_Driver/Src/stm32f4xx_hal_pcd.c **** 
1598:Drivers/STM32F4xx_HAL_Driver/Src/stm32f4xx_hal_pcd.c **** /**
1599:Drivers/STM32F4xx_HAL_Driver/Src/stm32f4xx_hal_pcd.c ****   * @brief  Connection event callback.
1600:Drivers/STM32F4xx_HAL_Driver/Src/stm32f4xx_hal_pcd.c ****   * @param  hpcd PCD handle
1601:Drivers/STM32F4xx_HAL_Driver/Src/stm32f4xx_hal_pcd.c ****   * @retval None
1602:Drivers/STM32F4xx_HAL_Driver/Src/stm32f4xx_hal_pcd.c ****   */
1603:Drivers/STM32F4xx_HAL_Driver/Src/stm32f4xx_hal_pcd.c **** __weak void HAL_PCD_ConnectCallback(PCD_HandleTypeDef *hpcd)
1604:Drivers/STM32F4xx_HAL_Driver/Src/stm32f4xx_hal_pcd.c **** {
 2277              		.loc 1 1604 1
 2278              		.cfi_startproc
 2279              		@ args = 0, pretend = 0, frame = 8
 2280              		@ frame_needed = 1, uses_anonymous_args = 0
 2281              		@ link register save eliminated.
 2282 0000 80B4     		push	{r7}
 2283              	.LCFI97:
 2284              		.cfi_def_cfa_offset 4
 2285              		.cfi_offset 7, -4
 2286 0002 83B0     		sub	sp, sp, #12
 2287              	.LCFI98:
ARM GAS  /var/folders/vq/qt4vp3kd5rxf7v2b6_fdtdt80000gn/T//cc6xBrdC.s 			page 69


 2288              		.cfi_def_cfa_offset 16
 2289 0004 00AF     		add	r7, sp, #0
 2290              	.LCFI99:
 2291              		.cfi_def_cfa_register 7
 2292 0006 7860     		str	r0, [r7, #4]
1605:Drivers/STM32F4xx_HAL_Driver/Src/stm32f4xx_hal_pcd.c ****   /* Prevent unused argument(s) compilation warning */
1606:Drivers/STM32F4xx_HAL_Driver/Src/stm32f4xx_hal_pcd.c ****   UNUSED(hpcd);
1607:Drivers/STM32F4xx_HAL_Driver/Src/stm32f4xx_hal_pcd.c **** 
1608:Drivers/STM32F4xx_HAL_Driver/Src/stm32f4xx_hal_pcd.c ****   /* NOTE : This function should not be modified, when the callback is needed,
1609:Drivers/STM32F4xx_HAL_Driver/Src/stm32f4xx_hal_pcd.c ****             the HAL_PCD_ConnectCallback could be implemented in the user file
1610:Drivers/STM32F4xx_HAL_Driver/Src/stm32f4xx_hal_pcd.c ****    */
1611:Drivers/STM32F4xx_HAL_Driver/Src/stm32f4xx_hal_pcd.c **** }
 2293              		.loc 1 1611 1
 2294 0008 00BF     		nop
 2295 000a 0C37     		adds	r7, r7, #12
 2296              	.LCFI100:
 2297              		.cfi_def_cfa_offset 4
 2298 000c BD46     		mov	sp, r7
 2299              	.LCFI101:
 2300              		.cfi_def_cfa_register 13
 2301              		@ sp needed
 2302 000e 5DF8047B 		ldr	r7, [sp], #4
 2303              	.LCFI102:
 2304              		.cfi_restore 7
 2305              		.cfi_def_cfa_offset 0
 2306 0012 7047     		bx	lr
 2307              		.cfi_endproc
 2308              	.LFE147:
 2310              		.section	.text.HAL_PCD_DisconnectCallback,"ax",%progbits
 2311              		.align	1
 2312              		.weak	HAL_PCD_DisconnectCallback
 2313              		.syntax unified
 2314              		.thumb
 2315              		.thumb_func
 2316              		.fpu fpv4-sp-d16
 2318              	HAL_PCD_DisconnectCallback:
 2319              	.LFB148:
1612:Drivers/STM32F4xx_HAL_Driver/Src/stm32f4xx_hal_pcd.c **** 
1613:Drivers/STM32F4xx_HAL_Driver/Src/stm32f4xx_hal_pcd.c **** /**
1614:Drivers/STM32F4xx_HAL_Driver/Src/stm32f4xx_hal_pcd.c ****   * @brief  Disconnection event callback.
1615:Drivers/STM32F4xx_HAL_Driver/Src/stm32f4xx_hal_pcd.c ****   * @param  hpcd PCD handle
1616:Drivers/STM32F4xx_HAL_Driver/Src/stm32f4xx_hal_pcd.c ****   * @retval None
1617:Drivers/STM32F4xx_HAL_Driver/Src/stm32f4xx_hal_pcd.c ****   */
1618:Drivers/STM32F4xx_HAL_Driver/Src/stm32f4xx_hal_pcd.c **** __weak void HAL_PCD_DisconnectCallback(PCD_HandleTypeDef *hpcd)
1619:Drivers/STM32F4xx_HAL_Driver/Src/stm32f4xx_hal_pcd.c **** {
 2320              		.loc 1 1619 1
 2321              		.cfi_startproc
 2322              		@ args = 0, pretend = 0, frame = 8
 2323              		@ frame_needed = 1, uses_anonymous_args = 0
 2324              		@ link register save eliminated.
 2325 0000 80B4     		push	{r7}
 2326              	.LCFI103:
 2327              		.cfi_def_cfa_offset 4
 2328              		.cfi_offset 7, -4
 2329 0002 83B0     		sub	sp, sp, #12
 2330              	.LCFI104:
 2331              		.cfi_def_cfa_offset 16
ARM GAS  /var/folders/vq/qt4vp3kd5rxf7v2b6_fdtdt80000gn/T//cc6xBrdC.s 			page 70


 2332 0004 00AF     		add	r7, sp, #0
 2333              	.LCFI105:
 2334              		.cfi_def_cfa_register 7
 2335 0006 7860     		str	r0, [r7, #4]
1620:Drivers/STM32F4xx_HAL_Driver/Src/stm32f4xx_hal_pcd.c ****   /* Prevent unused argument(s) compilation warning */
1621:Drivers/STM32F4xx_HAL_Driver/Src/stm32f4xx_hal_pcd.c ****   UNUSED(hpcd);
1622:Drivers/STM32F4xx_HAL_Driver/Src/stm32f4xx_hal_pcd.c **** 
1623:Drivers/STM32F4xx_HAL_Driver/Src/stm32f4xx_hal_pcd.c ****   /* NOTE : This function should not be modified, when the callback is needed,
1624:Drivers/STM32F4xx_HAL_Driver/Src/stm32f4xx_hal_pcd.c ****             the HAL_PCD_DisconnectCallback could be implemented in the user file
1625:Drivers/STM32F4xx_HAL_Driver/Src/stm32f4xx_hal_pcd.c ****    */
1626:Drivers/STM32F4xx_HAL_Driver/Src/stm32f4xx_hal_pcd.c **** }
 2336              		.loc 1 1626 1
 2337 0008 00BF     		nop
 2338 000a 0C37     		adds	r7, r7, #12
 2339              	.LCFI106:
 2340              		.cfi_def_cfa_offset 4
 2341 000c BD46     		mov	sp, r7
 2342              	.LCFI107:
 2343              		.cfi_def_cfa_register 13
 2344              		@ sp needed
 2345 000e 5DF8047B 		ldr	r7, [sp], #4
 2346              	.LCFI108:
 2347              		.cfi_restore 7
 2348              		.cfi_def_cfa_offset 0
 2349 0012 7047     		bx	lr
 2350              		.cfi_endproc
 2351              	.LFE148:
 2353              		.section	.text.HAL_PCD_DevConnect,"ax",%progbits
 2354              		.align	1
 2355              		.global	HAL_PCD_DevConnect
 2356              		.syntax unified
 2357              		.thumb
 2358              		.thumb_func
 2359              		.fpu fpv4-sp-d16
 2361              	HAL_PCD_DevConnect:
 2362              	.LFB149:
1627:Drivers/STM32F4xx_HAL_Driver/Src/stm32f4xx_hal_pcd.c **** 
1628:Drivers/STM32F4xx_HAL_Driver/Src/stm32f4xx_hal_pcd.c **** /**
1629:Drivers/STM32F4xx_HAL_Driver/Src/stm32f4xx_hal_pcd.c ****   * @}
1630:Drivers/STM32F4xx_HAL_Driver/Src/stm32f4xx_hal_pcd.c ****   */
1631:Drivers/STM32F4xx_HAL_Driver/Src/stm32f4xx_hal_pcd.c **** 
1632:Drivers/STM32F4xx_HAL_Driver/Src/stm32f4xx_hal_pcd.c **** /** @defgroup PCD_Exported_Functions_Group3 Peripheral Control functions
1633:Drivers/STM32F4xx_HAL_Driver/Src/stm32f4xx_hal_pcd.c ****   *  @brief   management functions
1634:Drivers/STM32F4xx_HAL_Driver/Src/stm32f4xx_hal_pcd.c ****   *
1635:Drivers/STM32F4xx_HAL_Driver/Src/stm32f4xx_hal_pcd.c **** @verbatim
1636:Drivers/STM32F4xx_HAL_Driver/Src/stm32f4xx_hal_pcd.c ****  ===============================================================================
1637:Drivers/STM32F4xx_HAL_Driver/Src/stm32f4xx_hal_pcd.c ****                       ##### Peripheral Control functions #####
1638:Drivers/STM32F4xx_HAL_Driver/Src/stm32f4xx_hal_pcd.c ****  ===============================================================================
1639:Drivers/STM32F4xx_HAL_Driver/Src/stm32f4xx_hal_pcd.c ****     [..]
1640:Drivers/STM32F4xx_HAL_Driver/Src/stm32f4xx_hal_pcd.c ****     This subsection provides a set of functions allowing to control the PCD data
1641:Drivers/STM32F4xx_HAL_Driver/Src/stm32f4xx_hal_pcd.c ****     transfers.
1642:Drivers/STM32F4xx_HAL_Driver/Src/stm32f4xx_hal_pcd.c **** 
1643:Drivers/STM32F4xx_HAL_Driver/Src/stm32f4xx_hal_pcd.c **** @endverbatim
1644:Drivers/STM32F4xx_HAL_Driver/Src/stm32f4xx_hal_pcd.c ****   * @{
1645:Drivers/STM32F4xx_HAL_Driver/Src/stm32f4xx_hal_pcd.c ****   */
1646:Drivers/STM32F4xx_HAL_Driver/Src/stm32f4xx_hal_pcd.c **** 
1647:Drivers/STM32F4xx_HAL_Driver/Src/stm32f4xx_hal_pcd.c **** /**
ARM GAS  /var/folders/vq/qt4vp3kd5rxf7v2b6_fdtdt80000gn/T//cc6xBrdC.s 			page 71


1648:Drivers/STM32F4xx_HAL_Driver/Src/stm32f4xx_hal_pcd.c ****   * @brief  Connect the USB device
1649:Drivers/STM32F4xx_HAL_Driver/Src/stm32f4xx_hal_pcd.c ****   * @param  hpcd PCD handle
1650:Drivers/STM32F4xx_HAL_Driver/Src/stm32f4xx_hal_pcd.c ****   * @retval HAL status
1651:Drivers/STM32F4xx_HAL_Driver/Src/stm32f4xx_hal_pcd.c ****   */
1652:Drivers/STM32F4xx_HAL_Driver/Src/stm32f4xx_hal_pcd.c **** HAL_StatusTypeDef HAL_PCD_DevConnect(PCD_HandleTypeDef *hpcd)
1653:Drivers/STM32F4xx_HAL_Driver/Src/stm32f4xx_hal_pcd.c **** {
 2363              		.loc 1 1653 1
 2364              		.cfi_startproc
 2365              		@ args = 0, pretend = 0, frame = 16
 2366              		@ frame_needed = 1, uses_anonymous_args = 0
 2367 0000 80B5     		push	{r7, lr}
 2368              	.LCFI109:
 2369              		.cfi_def_cfa_offset 8
 2370              		.cfi_offset 7, -8
 2371              		.cfi_offset 14, -4
 2372 0002 84B0     		sub	sp, sp, #16
 2373              	.LCFI110:
 2374              		.cfi_def_cfa_offset 24
 2375 0004 00AF     		add	r7, sp, #0
 2376              	.LCFI111:
 2377              		.cfi_def_cfa_register 7
 2378 0006 7860     		str	r0, [r7, #4]
1654:Drivers/STM32F4xx_HAL_Driver/Src/stm32f4xx_hal_pcd.c **** #if defined (USB_OTG_FS) || defined (USB_OTG_HS)
1655:Drivers/STM32F4xx_HAL_Driver/Src/stm32f4xx_hal_pcd.c ****   USB_OTG_GlobalTypeDef *USBx = hpcd->Instance;
 2379              		.loc 1 1655 26
 2380 0008 7B68     		ldr	r3, [r7, #4]
 2381 000a 1B68     		ldr	r3, [r3]
 2382 000c FB60     		str	r3, [r7, #12]
1656:Drivers/STM32F4xx_HAL_Driver/Src/stm32f4xx_hal_pcd.c **** #endif /* defined (USB_OTG_FS) || defined (USB_OTG_HS) */
1657:Drivers/STM32F4xx_HAL_Driver/Src/stm32f4xx_hal_pcd.c **** 
1658:Drivers/STM32F4xx_HAL_Driver/Src/stm32f4xx_hal_pcd.c ****   __HAL_LOCK(hpcd);
 2383              		.loc 1 1658 3
 2384 000e 7B68     		ldr	r3, [r7, #4]
 2385 0010 93F8BC33 		ldrb	r3, [r3, #956]	@ zero_extendqisi2
 2386 0014 012B     		cmp	r3, #1
 2387 0016 01D1     		bne	.L86
 2388              		.loc 1 1658 3 is_stmt 0 discriminator 1
 2389 0018 0223     		movs	r3, #2
 2390 001a 1BE0     		b	.L87
 2391              	.L86:
 2392              		.loc 1 1658 3 discriminator 2
 2393 001c 7B68     		ldr	r3, [r7, #4]
 2394 001e 0122     		movs	r2, #1
 2395 0020 83F8BC23 		strb	r2, [r3, #956]
1659:Drivers/STM32F4xx_HAL_Driver/Src/stm32f4xx_hal_pcd.c **** #if defined (USB_OTG_FS) || defined (USB_OTG_HS)
1660:Drivers/STM32F4xx_HAL_Driver/Src/stm32f4xx_hal_pcd.c ****   if ((hpcd->Init.battery_charging_enable == 1U) &&
 2396              		.loc 1 1660 18 is_stmt 1 discriminator 2
 2397 0024 7B68     		ldr	r3, [r7, #4]
 2398 0026 9B6A     		ldr	r3, [r3, #40]
 2399              		.loc 1 1660 6 discriminator 2
 2400 0028 012B     		cmp	r3, #1
 2401 002a 09D1     		bne	.L88
1661:Drivers/STM32F4xx_HAL_Driver/Src/stm32f4xx_hal_pcd.c ****       (hpcd->Init.phy_itface != USB_OTG_ULPI_PHY))
 2402              		.loc 1 1661 18 discriminator 1
 2403 002c 7B68     		ldr	r3, [r7, #4]
 2404 002e 9B69     		ldr	r3, [r3, #24]
1660:Drivers/STM32F4xx_HAL_Driver/Src/stm32f4xx_hal_pcd.c ****       (hpcd->Init.phy_itface != USB_OTG_ULPI_PHY))
ARM GAS  /var/folders/vq/qt4vp3kd5rxf7v2b6_fdtdt80000gn/T//cc6xBrdC.s 			page 72


 2405              		.loc 1 1660 50 discriminator 1
 2406 0030 012B     		cmp	r3, #1
 2407 0032 05D0     		beq	.L88
1662:Drivers/STM32F4xx_HAL_Driver/Src/stm32f4xx_hal_pcd.c ****   {
1663:Drivers/STM32F4xx_HAL_Driver/Src/stm32f4xx_hal_pcd.c ****     /* Enable USB Transceiver */
1664:Drivers/STM32F4xx_HAL_Driver/Src/stm32f4xx_hal_pcd.c ****     USBx->GCCFG |= USB_OTG_GCCFG_PWRDWN;
 2408              		.loc 1 1664 17
 2409 0034 FB68     		ldr	r3, [r7, #12]
 2410 0036 9B6B     		ldr	r3, [r3, #56]
 2411 0038 43F48032 		orr	r2, r3, #65536
 2412 003c FB68     		ldr	r3, [r7, #12]
 2413 003e 9A63     		str	r2, [r3, #56]
 2414              	.L88:
1665:Drivers/STM32F4xx_HAL_Driver/Src/stm32f4xx_hal_pcd.c ****   }
1666:Drivers/STM32F4xx_HAL_Driver/Src/stm32f4xx_hal_pcd.c **** #endif /* defined (USB_OTG_FS) || defined (USB_OTG_HS) */
1667:Drivers/STM32F4xx_HAL_Driver/Src/stm32f4xx_hal_pcd.c ****   (void)USB_DevConnect(hpcd->Instance);
 2415              		.loc 1 1667 28
 2416 0040 7B68     		ldr	r3, [r7, #4]
 2417 0042 1B68     		ldr	r3, [r3]
 2418              		.loc 1 1667 9
 2419 0044 1846     		mov	r0, r3
 2420 0046 FFF7FEFF 		bl	USB_DevConnect
1668:Drivers/STM32F4xx_HAL_Driver/Src/stm32f4xx_hal_pcd.c ****   __HAL_UNLOCK(hpcd);
 2421              		.loc 1 1668 3
 2422 004a 7B68     		ldr	r3, [r7, #4]
 2423 004c 0022     		movs	r2, #0
 2424 004e 83F8BC23 		strb	r2, [r3, #956]
1669:Drivers/STM32F4xx_HAL_Driver/Src/stm32f4xx_hal_pcd.c **** 
1670:Drivers/STM32F4xx_HAL_Driver/Src/stm32f4xx_hal_pcd.c ****   return HAL_OK;
 2425              		.loc 1 1670 10
 2426 0052 0023     		movs	r3, #0
 2427              	.L87:
1671:Drivers/STM32F4xx_HAL_Driver/Src/stm32f4xx_hal_pcd.c **** }
 2428              		.loc 1 1671 1
 2429 0054 1846     		mov	r0, r3
 2430 0056 1037     		adds	r7, r7, #16
 2431              	.LCFI112:
 2432              		.cfi_def_cfa_offset 8
 2433 0058 BD46     		mov	sp, r7
 2434              	.LCFI113:
 2435              		.cfi_def_cfa_register 13
 2436              		@ sp needed
 2437 005a 80BD     		pop	{r7, pc}
 2438              		.cfi_endproc
 2439              	.LFE149:
 2441              		.section	.text.HAL_PCD_DevDisconnect,"ax",%progbits
 2442              		.align	1
 2443              		.global	HAL_PCD_DevDisconnect
 2444              		.syntax unified
 2445              		.thumb
 2446              		.thumb_func
 2447              		.fpu fpv4-sp-d16
 2449              	HAL_PCD_DevDisconnect:
 2450              	.LFB150:
1672:Drivers/STM32F4xx_HAL_Driver/Src/stm32f4xx_hal_pcd.c **** 
1673:Drivers/STM32F4xx_HAL_Driver/Src/stm32f4xx_hal_pcd.c **** /**
1674:Drivers/STM32F4xx_HAL_Driver/Src/stm32f4xx_hal_pcd.c ****   * @brief  Disconnect the USB device.
ARM GAS  /var/folders/vq/qt4vp3kd5rxf7v2b6_fdtdt80000gn/T//cc6xBrdC.s 			page 73


1675:Drivers/STM32F4xx_HAL_Driver/Src/stm32f4xx_hal_pcd.c ****   * @param  hpcd PCD handle
