ARM GAS  /var/folders/vq/qt4vp3kd5rxf7v2b6_fdtdt80000gn/T//ccjOke0W.s 			page 1


   1              		.cpu cortex-m4
   2              		.eabi_attribute 27, 1
   3              		.eabi_attribute 20, 1
   4              		.eabi_attribute 21, 1
   5              		.eabi_attribute 23, 3
   6              		.eabi_attribute 24, 1
   7              		.eabi_attribute 25, 1
   8              		.eabi_attribute 26, 1
   9              		.eabi_attribute 30, 6
  10              		.eabi_attribute 34, 1
  11              		.eabi_attribute 18, 4
  12              		.file	"stm32f4xx_ll_usb.c"
  13              		.text
  14              	.Ltext0:
  15              		.cfi_sections	.debug_frame
  16              		.section	.text.USB_CoreInit,"ax",%progbits
  17              		.align	1
  18              		.global	USB_CoreInit
  19              		.arch armv7e-m
  20              		.syntax unified
  21              		.thumb
  22              		.thumb_func
  23              		.fpu fpv4-sp-d16
  25              	USB_CoreInit:
  26              	.LFB130:
  27              		.file 1 "Drivers/STM32F4xx_HAL_Driver/Src/stm32f4xx_ll_usb.c"
   1:Drivers/STM32F4xx_HAL_Driver/Src/stm32f4xx_ll_usb.c **** /**
   2:Drivers/STM32F4xx_HAL_Driver/Src/stm32f4xx_ll_usb.c ****   ******************************************************************************
   3:Drivers/STM32F4xx_HAL_Driver/Src/stm32f4xx_ll_usb.c ****   * @file    stm32f4xx_ll_usb.c
   4:Drivers/STM32F4xx_HAL_Driver/Src/stm32f4xx_ll_usb.c ****   * @author  MCD Application Team
   5:Drivers/STM32F4xx_HAL_Driver/Src/stm32f4xx_ll_usb.c ****   * @brief   USB Low Layer HAL module driver.
   6:Drivers/STM32F4xx_HAL_Driver/Src/stm32f4xx_ll_usb.c ****   *
   7:Drivers/STM32F4xx_HAL_Driver/Src/stm32f4xx_ll_usb.c ****   *          This file provides firmware functions to manage the following
   8:Drivers/STM32F4xx_HAL_Driver/Src/stm32f4xx_ll_usb.c ****   *          functionalities of the USB Peripheral Controller:
   9:Drivers/STM32F4xx_HAL_Driver/Src/stm32f4xx_ll_usb.c ****   *           + Initialization/de-initialization functions
  10:Drivers/STM32F4xx_HAL_Driver/Src/stm32f4xx_ll_usb.c ****   *           + I/O operation functions
  11:Drivers/STM32F4xx_HAL_Driver/Src/stm32f4xx_ll_usb.c ****   *           + Peripheral Control functions
  12:Drivers/STM32F4xx_HAL_Driver/Src/stm32f4xx_ll_usb.c ****   *           + Peripheral State functions
  13:Drivers/STM32F4xx_HAL_Driver/Src/stm32f4xx_ll_usb.c ****   *
  14:Drivers/STM32F4xx_HAL_Driver/Src/stm32f4xx_ll_usb.c ****   @verbatim
  15:Drivers/STM32F4xx_HAL_Driver/Src/stm32f4xx_ll_usb.c ****   ==============================================================================
  16:Drivers/STM32F4xx_HAL_Driver/Src/stm32f4xx_ll_usb.c ****                     ##### How to use this driver #####
  17:Drivers/STM32F4xx_HAL_Driver/Src/stm32f4xx_ll_usb.c ****   ==============================================================================
  18:Drivers/STM32F4xx_HAL_Driver/Src/stm32f4xx_ll_usb.c ****     [..]
  19:Drivers/STM32F4xx_HAL_Driver/Src/stm32f4xx_ll_usb.c ****       (#) Fill parameters of Init structure in USB_OTG_CfgTypeDef structure.
  20:Drivers/STM32F4xx_HAL_Driver/Src/stm32f4xx_ll_usb.c **** 
  21:Drivers/STM32F4xx_HAL_Driver/Src/stm32f4xx_ll_usb.c ****       (#) Call USB_CoreInit() API to initialize the USB Core peripheral.
  22:Drivers/STM32F4xx_HAL_Driver/Src/stm32f4xx_ll_usb.c **** 
  23:Drivers/STM32F4xx_HAL_Driver/Src/stm32f4xx_ll_usb.c ****       (#) The upper HAL HCD/PCD driver will call the right routines for its internal processes.
  24:Drivers/STM32F4xx_HAL_Driver/Src/stm32f4xx_ll_usb.c **** 
  25:Drivers/STM32F4xx_HAL_Driver/Src/stm32f4xx_ll_usb.c ****   @endverbatim
  26:Drivers/STM32F4xx_HAL_Driver/Src/stm32f4xx_ll_usb.c ****   ******************************************************************************
  27:Drivers/STM32F4xx_HAL_Driver/Src/stm32f4xx_ll_usb.c ****   * @attention
  28:Drivers/STM32F4xx_HAL_Driver/Src/stm32f4xx_ll_usb.c ****   *
  29:Drivers/STM32F4xx_HAL_Driver/Src/stm32f4xx_ll_usb.c ****   * <h2><center>&copy; Copyright (c) 2016 STMicroelectronics.
  30:Drivers/STM32F4xx_HAL_Driver/Src/stm32f4xx_ll_usb.c ****   * All rights reserved.</center></h2>
  31:Drivers/STM32F4xx_HAL_Driver/Src/stm32f4xx_ll_usb.c ****   *
ARM GAS  /var/folders/vq/qt4vp3kd5rxf7v2b6_fdtdt80000gn/T//ccjOke0W.s 			page 2


  32:Drivers/STM32F4xx_HAL_Driver/Src/stm32f4xx_ll_usb.c ****   * This software component is licensed by ST under BSD 3-Clause license,
  33:Drivers/STM32F4xx_HAL_Driver/Src/stm32f4xx_ll_usb.c ****   * the "License"; You may not use this file except in compliance with the
  34:Drivers/STM32F4xx_HAL_Driver/Src/stm32f4xx_ll_usb.c ****   * License. You may obtain a copy of the License at:
  35:Drivers/STM32F4xx_HAL_Driver/Src/stm32f4xx_ll_usb.c ****   *                        opensource.org/licenses/BSD-3-Clause
  36:Drivers/STM32F4xx_HAL_Driver/Src/stm32f4xx_ll_usb.c ****   *
  37:Drivers/STM32F4xx_HAL_Driver/Src/stm32f4xx_ll_usb.c ****   ******************************************************************************
  38:Drivers/STM32F4xx_HAL_Driver/Src/stm32f4xx_ll_usb.c ****   */
  39:Drivers/STM32F4xx_HAL_Driver/Src/stm32f4xx_ll_usb.c **** 
  40:Drivers/STM32F4xx_HAL_Driver/Src/stm32f4xx_ll_usb.c **** /* Includes ------------------------------------------------------------------*/
  41:Drivers/STM32F4xx_HAL_Driver/Src/stm32f4xx_ll_usb.c **** #include "stm32f4xx_hal.h"
  42:Drivers/STM32F4xx_HAL_Driver/Src/stm32f4xx_ll_usb.c **** 
  43:Drivers/STM32F4xx_HAL_Driver/Src/stm32f4xx_ll_usb.c **** /** @addtogroup STM32F4xx_LL_USB_DRIVER
  44:Drivers/STM32F4xx_HAL_Driver/Src/stm32f4xx_ll_usb.c ****   * @{
  45:Drivers/STM32F4xx_HAL_Driver/Src/stm32f4xx_ll_usb.c ****   */
  46:Drivers/STM32F4xx_HAL_Driver/Src/stm32f4xx_ll_usb.c **** 
  47:Drivers/STM32F4xx_HAL_Driver/Src/stm32f4xx_ll_usb.c **** #if defined (HAL_PCD_MODULE_ENABLED) || defined (HAL_HCD_MODULE_ENABLED)
  48:Drivers/STM32F4xx_HAL_Driver/Src/stm32f4xx_ll_usb.c **** #if defined (USB_OTG_FS) || defined (USB_OTG_HS)
  49:Drivers/STM32F4xx_HAL_Driver/Src/stm32f4xx_ll_usb.c **** /* Private typedef -----------------------------------------------------------*/
  50:Drivers/STM32F4xx_HAL_Driver/Src/stm32f4xx_ll_usb.c **** /* Private define ------------------------------------------------------------*/
  51:Drivers/STM32F4xx_HAL_Driver/Src/stm32f4xx_ll_usb.c **** /* Private macro -------------------------------------------------------------*/
  52:Drivers/STM32F4xx_HAL_Driver/Src/stm32f4xx_ll_usb.c **** /* Private variables ---------------------------------------------------------*/
  53:Drivers/STM32F4xx_HAL_Driver/Src/stm32f4xx_ll_usb.c **** /* Private function prototypes -----------------------------------------------*/
  54:Drivers/STM32F4xx_HAL_Driver/Src/stm32f4xx_ll_usb.c **** /* Private functions ---------------------------------------------------------*/
  55:Drivers/STM32F4xx_HAL_Driver/Src/stm32f4xx_ll_usb.c **** #if defined (USB_OTG_FS) || defined (USB_OTG_HS)
  56:Drivers/STM32F4xx_HAL_Driver/Src/stm32f4xx_ll_usb.c **** static HAL_StatusTypeDef USB_CoreReset(USB_OTG_GlobalTypeDef *USBx);
  57:Drivers/STM32F4xx_HAL_Driver/Src/stm32f4xx_ll_usb.c **** 
  58:Drivers/STM32F4xx_HAL_Driver/Src/stm32f4xx_ll_usb.c **** /* Exported functions --------------------------------------------------------*/
  59:Drivers/STM32F4xx_HAL_Driver/Src/stm32f4xx_ll_usb.c **** /** @defgroup USB_LL_Exported_Functions USB Low Layer Exported Functions
  60:Drivers/STM32F4xx_HAL_Driver/Src/stm32f4xx_ll_usb.c ****   * @{
  61:Drivers/STM32F4xx_HAL_Driver/Src/stm32f4xx_ll_usb.c ****   */
  62:Drivers/STM32F4xx_HAL_Driver/Src/stm32f4xx_ll_usb.c **** 
  63:Drivers/STM32F4xx_HAL_Driver/Src/stm32f4xx_ll_usb.c **** /** @defgroup USB_LL_Exported_Functions_Group1 Initialization/de-initialization functions
  64:Drivers/STM32F4xx_HAL_Driver/Src/stm32f4xx_ll_usb.c ****   *  @brief    Initialization and Configuration functions
  65:Drivers/STM32F4xx_HAL_Driver/Src/stm32f4xx_ll_usb.c ****   *
  66:Drivers/STM32F4xx_HAL_Driver/Src/stm32f4xx_ll_usb.c **** @verbatim
  67:Drivers/STM32F4xx_HAL_Driver/Src/stm32f4xx_ll_usb.c ****  ===============================================================================
  68:Drivers/STM32F4xx_HAL_Driver/Src/stm32f4xx_ll_usb.c ****                       ##### Initialization/de-initialization functions #####
  69:Drivers/STM32F4xx_HAL_Driver/Src/stm32f4xx_ll_usb.c ****  ===============================================================================
  70:Drivers/STM32F4xx_HAL_Driver/Src/stm32f4xx_ll_usb.c **** 
  71:Drivers/STM32F4xx_HAL_Driver/Src/stm32f4xx_ll_usb.c **** @endverbatim
  72:Drivers/STM32F4xx_HAL_Driver/Src/stm32f4xx_ll_usb.c ****   * @{
  73:Drivers/STM32F4xx_HAL_Driver/Src/stm32f4xx_ll_usb.c ****   */
  74:Drivers/STM32F4xx_HAL_Driver/Src/stm32f4xx_ll_usb.c **** 
  75:Drivers/STM32F4xx_HAL_Driver/Src/stm32f4xx_ll_usb.c **** /**
  76:Drivers/STM32F4xx_HAL_Driver/Src/stm32f4xx_ll_usb.c ****   * @brief  Initializes the USB Core
  77:Drivers/STM32F4xx_HAL_Driver/Src/stm32f4xx_ll_usb.c ****   * @param  USBx USB Instance
  78:Drivers/STM32F4xx_HAL_Driver/Src/stm32f4xx_ll_usb.c ****   * @param  cfg pointer to a USB_OTG_CfgTypeDef structure that contains
  79:Drivers/STM32F4xx_HAL_Driver/Src/stm32f4xx_ll_usb.c ****   *         the configuration information for the specified USBx peripheral.
  80:Drivers/STM32F4xx_HAL_Driver/Src/stm32f4xx_ll_usb.c ****   * @retval HAL status
  81:Drivers/STM32F4xx_HAL_Driver/Src/stm32f4xx_ll_usb.c ****   */
  82:Drivers/STM32F4xx_HAL_Driver/Src/stm32f4xx_ll_usb.c **** HAL_StatusTypeDef USB_CoreInit(USB_OTG_GlobalTypeDef *USBx, USB_OTG_CfgTypeDef cfg)
  83:Drivers/STM32F4xx_HAL_Driver/Src/stm32f4xx_ll_usb.c **** {
  28              		.loc 1 83 1
  29              		.cfi_startproc
  30              		@ args = 56, pretend = 16, frame = 16
  31              		@ frame_needed = 1, uses_anonymous_args = 0
  32 0000 84B0     		sub	sp, sp, #16
ARM GAS  /var/folders/vq/qt4vp3kd5rxf7v2b6_fdtdt80000gn/T//ccjOke0W.s 			page 3


  33              	.LCFI0:
  34              		.cfi_def_cfa_offset 16
  35 0002 80B5     		push	{r7, lr}
  36              	.LCFI1:
  37              		.cfi_def_cfa_offset 24
  38              		.cfi_offset 7, -24
  39              		.cfi_offset 14, -20
  40 0004 84B0     		sub	sp, sp, #16
  41              	.LCFI2:
  42              		.cfi_def_cfa_offset 40
  43 0006 00AF     		add	r7, sp, #0
  44              	.LCFI3:
  45              		.cfi_def_cfa_register 7
  46 0008 7860     		str	r0, [r7, #4]
  47 000a 07F11C00 		add	r0, r7, #28
  48 000e 80E80E00 		stm	r0, {r1, r2, r3}
  84:Drivers/STM32F4xx_HAL_Driver/Src/stm32f4xx_ll_usb.c ****   HAL_StatusTypeDef ret;
  85:Drivers/STM32F4xx_HAL_Driver/Src/stm32f4xx_ll_usb.c **** 
  86:Drivers/STM32F4xx_HAL_Driver/Src/stm32f4xx_ll_usb.c ****   if (cfg.phy_itface == USB_OTG_ULPI_PHY)
  49              		.loc 1 86 10
  50 0012 3B6B     		ldr	r3, [r7, #48]
  51              		.loc 1 86 6
  52 0014 012B     		cmp	r3, #1
  53 0016 22D1     		bne	.L2
  87:Drivers/STM32F4xx_HAL_Driver/Src/stm32f4xx_ll_usb.c ****   {
  88:Drivers/STM32F4xx_HAL_Driver/Src/stm32f4xx_ll_usb.c ****     USBx->GCCFG &= ~(USB_OTG_GCCFG_PWRDWN);
  54              		.loc 1 88 17
  55 0018 7B68     		ldr	r3, [r7, #4]
  56 001a 9B6B     		ldr	r3, [r3, #56]
  57 001c 23F48032 		bic	r2, r3, #65536
  58 0020 7B68     		ldr	r3, [r7, #4]
  59 0022 9A63     		str	r2, [r3, #56]
  89:Drivers/STM32F4xx_HAL_Driver/Src/stm32f4xx_ll_usb.c **** 
  90:Drivers/STM32F4xx_HAL_Driver/Src/stm32f4xx_ll_usb.c ****     /* Init The ULPI Interface */
  91:Drivers/STM32F4xx_HAL_Driver/Src/stm32f4xx_ll_usb.c ****     USBx->GUSBCFG &= ~(USB_OTG_GUSBCFG_TSDPS | USB_OTG_GUSBCFG_ULPIFSLS | USB_OTG_GUSBCFG_PHYSEL);
  60              		.loc 1 91 19
  61 0024 7B68     		ldr	r3, [r7, #4]
  62 0026 DB68     		ldr	r3, [r3, #12]
  63 0028 23F48403 		bic	r3, r3, #4325376
  64 002c 23F04003 		bic	r3, r3, #64
  65 0030 7A68     		ldr	r2, [r7, #4]
  66 0032 D360     		str	r3, [r2, #12]
  92:Drivers/STM32F4xx_HAL_Driver/Src/stm32f4xx_ll_usb.c **** 
  93:Drivers/STM32F4xx_HAL_Driver/Src/stm32f4xx_ll_usb.c ****     /* Select vbus source */
  94:Drivers/STM32F4xx_HAL_Driver/Src/stm32f4xx_ll_usb.c ****     USBx->GUSBCFG &= ~(USB_OTG_GUSBCFG_ULPIEVBUSD | USB_OTG_GUSBCFG_ULPIEVBUSI);
  67              		.loc 1 94 19
  68 0034 7B68     		ldr	r3, [r7, #4]
  69 0036 DB68     		ldr	r3, [r3, #12]
  70 0038 23F44012 		bic	r2, r3, #3145728
  71 003c 7B68     		ldr	r3, [r7, #4]
  72 003e DA60     		str	r2, [r3, #12]
  95:Drivers/STM32F4xx_HAL_Driver/Src/stm32f4xx_ll_usb.c ****     if (cfg.use_external_vbus == 1U)
  73              		.loc 1 95 12
  74 0040 FB6C     		ldr	r3, [r7, #76]
  75              		.loc 1 95 8
  76 0042 012B     		cmp	r3, #1
  77 0044 05D1     		bne	.L3
ARM GAS  /var/folders/vq/qt4vp3kd5rxf7v2b6_fdtdt80000gn/T//ccjOke0W.s 			page 4


  96:Drivers/STM32F4xx_HAL_Driver/Src/stm32f4xx_ll_usb.c ****     {
  97:Drivers/STM32F4xx_HAL_Driver/Src/stm32f4xx_ll_usb.c ****       USBx->GUSBCFG |= USB_OTG_GUSBCFG_ULPIEVBUSD;
  78              		.loc 1 97 21
  79 0046 7B68     		ldr	r3, [r7, #4]
  80 0048 DB68     		ldr	r3, [r3, #12]
  81 004a 43F48012 		orr	r2, r3, #1048576
  82 004e 7B68     		ldr	r3, [r7, #4]
  83 0050 DA60     		str	r2, [r3, #12]
  84              	.L3:
  98:Drivers/STM32F4xx_HAL_Driver/Src/stm32f4xx_ll_usb.c ****     }
  99:Drivers/STM32F4xx_HAL_Driver/Src/stm32f4xx_ll_usb.c ****     /* Reset after a PHY select  */
 100:Drivers/STM32F4xx_HAL_Driver/Src/stm32f4xx_ll_usb.c ****     ret = USB_CoreReset(USBx);
  85              		.loc 1 100 11
  86 0052 7868     		ldr	r0, [r7, #4]
  87 0054 FFF7FEFF 		bl	USB_CoreReset
  88 0058 0346     		mov	r3, r0
  89 005a FB73     		strb	r3, [r7, #15]
  90 005c 1AE0     		b	.L4
  91              	.L2:
 101:Drivers/STM32F4xx_HAL_Driver/Src/stm32f4xx_ll_usb.c ****   }
 102:Drivers/STM32F4xx_HAL_Driver/Src/stm32f4xx_ll_usb.c ****   else /* FS interface (embedded Phy) */
 103:Drivers/STM32F4xx_HAL_Driver/Src/stm32f4xx_ll_usb.c ****   {
 104:Drivers/STM32F4xx_HAL_Driver/Src/stm32f4xx_ll_usb.c ****     /* Select FS Embedded PHY */
 105:Drivers/STM32F4xx_HAL_Driver/Src/stm32f4xx_ll_usb.c ****     USBx->GUSBCFG |= USB_OTG_GUSBCFG_PHYSEL;
  92              		.loc 1 105 19
  93 005e 7B68     		ldr	r3, [r7, #4]
  94 0060 DB68     		ldr	r3, [r3, #12]
  95 0062 43F04002 		orr	r2, r3, #64
  96 0066 7B68     		ldr	r3, [r7, #4]
  97 0068 DA60     		str	r2, [r3, #12]
 106:Drivers/STM32F4xx_HAL_Driver/Src/stm32f4xx_ll_usb.c **** 
 107:Drivers/STM32F4xx_HAL_Driver/Src/stm32f4xx_ll_usb.c ****     /* Reset after a PHY select */
 108:Drivers/STM32F4xx_HAL_Driver/Src/stm32f4xx_ll_usb.c ****     ret = USB_CoreReset(USBx);
  98              		.loc 1 108 11
  99 006a 7868     		ldr	r0, [r7, #4]
 100 006c FFF7FEFF 		bl	USB_CoreReset
 101 0070 0346     		mov	r3, r0
 102 0072 FB73     		strb	r3, [r7, #15]
 109:Drivers/STM32F4xx_HAL_Driver/Src/stm32f4xx_ll_usb.c **** 
 110:Drivers/STM32F4xx_HAL_Driver/Src/stm32f4xx_ll_usb.c ****     if (cfg.battery_charging_enable == 0U)
 103              		.loc 1 110 12
 104 0074 3B6C     		ldr	r3, [r7, #64]
 105              		.loc 1 110 8
 106 0076 002B     		cmp	r3, #0
 107 0078 06D1     		bne	.L5
 111:Drivers/STM32F4xx_HAL_Driver/Src/stm32f4xx_ll_usb.c ****     {
 112:Drivers/STM32F4xx_HAL_Driver/Src/stm32f4xx_ll_usb.c ****       /* Activate the USB Transceiver */
 113:Drivers/STM32F4xx_HAL_Driver/Src/stm32f4xx_ll_usb.c ****       USBx->GCCFG |= USB_OTG_GCCFG_PWRDWN;
 108              		.loc 1 113 19
 109 007a 7B68     		ldr	r3, [r7, #4]
 110 007c 9B6B     		ldr	r3, [r3, #56]
 111 007e 43F48032 		orr	r2, r3, #65536
 112 0082 7B68     		ldr	r3, [r7, #4]
 113 0084 9A63     		str	r2, [r3, #56]
 114 0086 05E0     		b	.L4
 115              	.L5:
 114:Drivers/STM32F4xx_HAL_Driver/Src/stm32f4xx_ll_usb.c ****     }
ARM GAS  /var/folders/vq/qt4vp3kd5rxf7v2b6_fdtdt80000gn/T//ccjOke0W.s 			page 5


 115:Drivers/STM32F4xx_HAL_Driver/Src/stm32f4xx_ll_usb.c ****     else
 116:Drivers/STM32F4xx_HAL_Driver/Src/stm32f4xx_ll_usb.c ****     {
 117:Drivers/STM32F4xx_HAL_Driver/Src/stm32f4xx_ll_usb.c ****       /* Deactivate the USB Transceiver */
 118:Drivers/STM32F4xx_HAL_Driver/Src/stm32f4xx_ll_usb.c ****       USBx->GCCFG &= ~(USB_OTG_GCCFG_PWRDWN);
 116              		.loc 1 118 19
 117 0088 7B68     		ldr	r3, [r7, #4]
 118 008a 9B6B     		ldr	r3, [r3, #56]
 119 008c 23F48032 		bic	r2, r3, #65536
 120 0090 7B68     		ldr	r3, [r7, #4]
 121 0092 9A63     		str	r2, [r3, #56]
 122              	.L4:
 119:Drivers/STM32F4xx_HAL_Driver/Src/stm32f4xx_ll_usb.c ****     }
 120:Drivers/STM32F4xx_HAL_Driver/Src/stm32f4xx_ll_usb.c ****   }
 121:Drivers/STM32F4xx_HAL_Driver/Src/stm32f4xx_ll_usb.c **** 
 122:Drivers/STM32F4xx_HAL_Driver/Src/stm32f4xx_ll_usb.c ****   if (cfg.dma_enable == 1U)
 123              		.loc 1 122 10
 124 0094 BB6A     		ldr	r3, [r7, #40]
 125              		.loc 1 122 6
 126 0096 012B     		cmp	r3, #1
 127 0098 0BD1     		bne	.L6
 123:Drivers/STM32F4xx_HAL_Driver/Src/stm32f4xx_ll_usb.c ****   {
 124:Drivers/STM32F4xx_HAL_Driver/Src/stm32f4xx_ll_usb.c ****     USBx->GAHBCFG |= USB_OTG_GAHBCFG_HBSTLEN_2;
 128              		.loc 1 124 19
 129 009a 7B68     		ldr	r3, [r7, #4]
 130 009c 9B68     		ldr	r3, [r3, #8]
 131 009e 43F00602 		orr	r2, r3, #6
 132 00a2 7B68     		ldr	r3, [r7, #4]
 133 00a4 9A60     		str	r2, [r3, #8]
 125:Drivers/STM32F4xx_HAL_Driver/Src/stm32f4xx_ll_usb.c ****     USBx->GAHBCFG |= USB_OTG_GAHBCFG_DMAEN;
 134              		.loc 1 125 19
 135 00a6 7B68     		ldr	r3, [r7, #4]
 136 00a8 9B68     		ldr	r3, [r3, #8]
 137 00aa 43F02002 		orr	r2, r3, #32
 138 00ae 7B68     		ldr	r3, [r7, #4]
 139 00b0 9A60     		str	r2, [r3, #8]
 140              	.L6:
 126:Drivers/STM32F4xx_HAL_Driver/Src/stm32f4xx_ll_usb.c ****   }
 127:Drivers/STM32F4xx_HAL_Driver/Src/stm32f4xx_ll_usb.c **** 
 128:Drivers/STM32F4xx_HAL_Driver/Src/stm32f4xx_ll_usb.c ****   return ret;
 141              		.loc 1 128 10
 142 00b2 FB7B     		ldrb	r3, [r7, #15]	@ zero_extendqisi2
 129:Drivers/STM32F4xx_HAL_Driver/Src/stm32f4xx_ll_usb.c **** }
 143              		.loc 1 129 1
 144 00b4 1846     		mov	r0, r3
 145 00b6 1037     		adds	r7, r7, #16
 146              	.LCFI4:
 147              		.cfi_def_cfa_offset 24
 148 00b8 BD46     		mov	sp, r7
 149              	.LCFI5:
 150              		.cfi_def_cfa_register 13
 151              		@ sp needed
 152 00ba BDE88040 		pop	{r7, lr}
 153              	.LCFI6:
 154              		.cfi_restore 14
 155              		.cfi_restore 7
 156              		.cfi_def_cfa_offset 16
 157 00be 04B0     		add	sp, sp, #16
ARM GAS  /var/folders/vq/qt4vp3kd5rxf7v2b6_fdtdt80000gn/T//ccjOke0W.s 			page 6


 158              	.LCFI7:
 159              		.cfi_def_cfa_offset 0
 160 00c0 7047     		bx	lr
 161              		.cfi_endproc
 162              	.LFE130:
 164              		.section	.text.USB_SetTurnaroundTime,"ax",%progbits
 165              		.align	1
 166              		.global	USB_SetTurnaroundTime
 167              		.syntax unified
 168              		.thumb
 169              		.thumb_func
 170              		.fpu fpv4-sp-d16
 172              	USB_SetTurnaroundTime:
 173              	.LFB131:
 130:Drivers/STM32F4xx_HAL_Driver/Src/stm32f4xx_ll_usb.c **** 
 131:Drivers/STM32F4xx_HAL_Driver/Src/stm32f4xx_ll_usb.c **** 
 132:Drivers/STM32F4xx_HAL_Driver/Src/stm32f4xx_ll_usb.c **** /**
 133:Drivers/STM32F4xx_HAL_Driver/Src/stm32f4xx_ll_usb.c ****   * @brief  Set the USB turnaround time
 134:Drivers/STM32F4xx_HAL_Driver/Src/stm32f4xx_ll_usb.c ****   * @param  USBx USB Instance
 135:Drivers/STM32F4xx_HAL_Driver/Src/stm32f4xx_ll_usb.c ****   * @param  hclk: AHB clock frequency
 136:Drivers/STM32F4xx_HAL_Driver/Src/stm32f4xx_ll_usb.c ****   * @retval USB turnaround time In PHY Clocks number
 137:Drivers/STM32F4xx_HAL_Driver/Src/stm32f4xx_ll_usb.c ****   */
 138:Drivers/STM32F4xx_HAL_Driver/Src/stm32f4xx_ll_usb.c **** HAL_StatusTypeDef USB_SetTurnaroundTime(USB_OTG_GlobalTypeDef *USBx,
 139:Drivers/STM32F4xx_HAL_Driver/Src/stm32f4xx_ll_usb.c ****                                         uint32_t hclk, uint8_t speed)
 140:Drivers/STM32F4xx_HAL_Driver/Src/stm32f4xx_ll_usb.c **** {
 174              		.loc 1 140 1
 175              		.cfi_startproc
 176              		@ args = 0, pretend = 0, frame = 24
 177              		@ frame_needed = 1, uses_anonymous_args = 0
 178              		@ link register save eliminated.
 179 0000 80B4     		push	{r7}
 180              	.LCFI8:
 181              		.cfi_def_cfa_offset 4
 182              		.cfi_offset 7, -4
 183 0002 87B0     		sub	sp, sp, #28
 184              	.LCFI9:
 185              		.cfi_def_cfa_offset 32
 186 0004 00AF     		add	r7, sp, #0
 187              	.LCFI10:
 188              		.cfi_def_cfa_register 7
 189 0006 F860     		str	r0, [r7, #12]
 190 0008 B960     		str	r1, [r7, #8]
 191 000a 1346     		mov	r3, r2
 192 000c FB71     		strb	r3, [r7, #7]
 141:Drivers/STM32F4xx_HAL_Driver/Src/stm32f4xx_ll_usb.c ****   uint32_t UsbTrd;
 142:Drivers/STM32F4xx_HAL_Driver/Src/stm32f4xx_ll_usb.c **** 
 143:Drivers/STM32F4xx_HAL_Driver/Src/stm32f4xx_ll_usb.c ****   /* The USBTRD is configured according to the tables below, depending on AHB frequency
 144:Drivers/STM32F4xx_HAL_Driver/Src/stm32f4xx_ll_usb.c ****   used by application. In the low AHB frequency range it is used to stretch enough the USB response
 145:Drivers/STM32F4xx_HAL_Driver/Src/stm32f4xx_ll_usb.c ****   time to IN tokens, the USB turnaround time, so to compensate for the longer AHB read access
 146:Drivers/STM32F4xx_HAL_Driver/Src/stm32f4xx_ll_usb.c ****   latency to the Data FIFO */
 147:Drivers/STM32F4xx_HAL_Driver/Src/stm32f4xx_ll_usb.c ****   if (speed == USBD_FS_SPEED)
 193              		.loc 1 147 6
 194 000e FB79     		ldrb	r3, [r7, #7]	@ zero_extendqisi2
 195 0010 022B     		cmp	r3, #2
 196 0012 65D1     		bne	.L9
 148:Drivers/STM32F4xx_HAL_Driver/Src/stm32f4xx_ll_usb.c ****   {
 149:Drivers/STM32F4xx_HAL_Driver/Src/stm32f4xx_ll_usb.c ****     if ((hclk >= 14200000U) && (hclk < 15000000U))
ARM GAS  /var/folders/vq/qt4vp3kd5rxf7v2b6_fdtdt80000gn/T//ccjOke0W.s 			page 7


 197              		.loc 1 149 8
 198 0014 BB68     		ldr	r3, [r7, #8]
 199 0016 414A     		ldr	r2, .L23
 200 0018 9342     		cmp	r3, r2
 201 001a 06D9     		bls	.L10
 202              		.loc 1 149 29 discriminator 1
 203 001c BB68     		ldr	r3, [r7, #8]
 204 001e 404A     		ldr	r2, .L23+4
 205 0020 9342     		cmp	r3, r2
 206 0022 02D2     		bcs	.L10
 150:Drivers/STM32F4xx_HAL_Driver/Src/stm32f4xx_ll_usb.c ****     {
 151:Drivers/STM32F4xx_HAL_Driver/Src/stm32f4xx_ll_usb.c ****       /* hclk Clock Range between 14.2-15 MHz */
 152:Drivers/STM32F4xx_HAL_Driver/Src/stm32f4xx_ll_usb.c ****       UsbTrd = 0xFU;
 207              		.loc 1 152 14
 208 0024 0F23     		movs	r3, #15
 209 0026 7B61     		str	r3, [r7, #20]
 210 0028 62E0     		b	.L20
 211              	.L10:
 153:Drivers/STM32F4xx_HAL_Driver/Src/stm32f4xx_ll_usb.c ****     }
 154:Drivers/STM32F4xx_HAL_Driver/Src/stm32f4xx_ll_usb.c ****     else if ((hclk >= 15000000U) && (hclk < 16000000U))
 212              		.loc 1 154 13
 213 002a BB68     		ldr	r3, [r7, #8]
 214 002c 3C4A     		ldr	r2, .L23+4
 215 002e 9342     		cmp	r3, r2
 216 0030 06D3     		bcc	.L12
 217              		.loc 1 154 34 discriminator 1
 218 0032 BB68     		ldr	r3, [r7, #8]
 219 0034 3B4A     		ldr	r2, .L23+8
 220 0036 9342     		cmp	r3, r2
 221 0038 02D2     		bcs	.L12
 155:Drivers/STM32F4xx_HAL_Driver/Src/stm32f4xx_ll_usb.c ****     {
 156:Drivers/STM32F4xx_HAL_Driver/Src/stm32f4xx_ll_usb.c ****       /* hclk Clock Range between 15-16 MHz */
 157:Drivers/STM32F4xx_HAL_Driver/Src/stm32f4xx_ll_usb.c ****       UsbTrd = 0xEU;
 222              		.loc 1 157 14
 223 003a 0E23     		movs	r3, #14
 224 003c 7B61     		str	r3, [r7, #20]
 225 003e 57E0     		b	.L20
 226              	.L12:
 158:Drivers/STM32F4xx_HAL_Driver/Src/stm32f4xx_ll_usb.c ****     }
 159:Drivers/STM32F4xx_HAL_Driver/Src/stm32f4xx_ll_usb.c ****     else if ((hclk >= 16000000U) && (hclk < 17200000U))
 227              		.loc 1 159 13
 228 0040 BB68     		ldr	r3, [r7, #8]
 229 0042 384A     		ldr	r2, .L23+8
 230 0044 9342     		cmp	r3, r2
 231 0046 06D3     		bcc	.L13
 232              		.loc 1 159 34 discriminator 1
 233 0048 BB68     		ldr	r3, [r7, #8]
 234 004a 374A     		ldr	r2, .L23+12
 235 004c 9342     		cmp	r3, r2
 236 004e 02D2     		bcs	.L13
 160:Drivers/STM32F4xx_HAL_Driver/Src/stm32f4xx_ll_usb.c ****     {
 161:Drivers/STM32F4xx_HAL_Driver/Src/stm32f4xx_ll_usb.c ****       /* hclk Clock Range between 16-17.2 MHz */
 162:Drivers/STM32F4xx_HAL_Driver/Src/stm32f4xx_ll_usb.c ****       UsbTrd = 0xDU;
 237              		.loc 1 162 14
 238 0050 0D23     		movs	r3, #13
 239 0052 7B61     		str	r3, [r7, #20]
 240 0054 4CE0     		b	.L20
ARM GAS  /var/folders/vq/qt4vp3kd5rxf7v2b6_fdtdt80000gn/T//ccjOke0W.s 			page 8


 241              	.L13:
 163:Drivers/STM32F4xx_HAL_Driver/Src/stm32f4xx_ll_usb.c ****     }
 164:Drivers/STM32F4xx_HAL_Driver/Src/stm32f4xx_ll_usb.c ****     else if ((hclk >= 17200000U) && (hclk < 18500000U))
 242              		.loc 1 164 13
 243 0056 BB68     		ldr	r3, [r7, #8]
 244 0058 334A     		ldr	r2, .L23+12
 245 005a 9342     		cmp	r3, r2
 246 005c 06D3     		bcc	.L14
 247              		.loc 1 164 34 discriminator 1
 248 005e BB68     		ldr	r3, [r7, #8]
 249 0060 324A     		ldr	r2, .L23+16
 250 0062 9342     		cmp	r3, r2
 251 0064 02D8     		bhi	.L14
 165:Drivers/STM32F4xx_HAL_Driver/Src/stm32f4xx_ll_usb.c ****     {
 166:Drivers/STM32F4xx_HAL_Driver/Src/stm32f4xx_ll_usb.c ****       /* hclk Clock Range between 17.2-18.5 MHz */
 167:Drivers/STM32F4xx_HAL_Driver/Src/stm32f4xx_ll_usb.c ****       UsbTrd = 0xCU;
 252              		.loc 1 167 14
 253 0066 0C23     		movs	r3, #12
 254 0068 7B61     		str	r3, [r7, #20]
 255 006a 41E0     		b	.L20
 256              	.L14:
 168:Drivers/STM32F4xx_HAL_Driver/Src/stm32f4xx_ll_usb.c ****     }
 169:Drivers/STM32F4xx_HAL_Driver/Src/stm32f4xx_ll_usb.c ****     else if ((hclk >= 18500000U) && (hclk < 20000000U))
 257              		.loc 1 169 13
 258 006c BB68     		ldr	r3, [r7, #8]
 259 006e 2F4A     		ldr	r2, .L23+16
 260 0070 9342     		cmp	r3, r2
 261 0072 06D9     		bls	.L15
 262              		.loc 1 169 34 discriminator 1
 263 0074 BB68     		ldr	r3, [r7, #8]
 264 0076 2E4A     		ldr	r2, .L23+20
 265 0078 9342     		cmp	r3, r2
 266 007a 02D8     		bhi	.L15
 170:Drivers/STM32F4xx_HAL_Driver/Src/stm32f4xx_ll_usb.c ****     {
 171:Drivers/STM32F4xx_HAL_Driver/Src/stm32f4xx_ll_usb.c ****       /* hclk Clock Range between 18.5-20 MHz */
 172:Drivers/STM32F4xx_HAL_Driver/Src/stm32f4xx_ll_usb.c ****       UsbTrd = 0xBU;
 267              		.loc 1 172 14
 268 007c 0B23     		movs	r3, #11
 269 007e 7B61     		str	r3, [r7, #20]
 270 0080 36E0     		b	.L20
 271              	.L15:
 173:Drivers/STM32F4xx_HAL_Driver/Src/stm32f4xx_ll_usb.c ****     }
 174:Drivers/STM32F4xx_HAL_Driver/Src/stm32f4xx_ll_usb.c ****     else if ((hclk >= 20000000U) && (hclk < 21800000U))
 272              		.loc 1 174 13
 273 0082 BB68     		ldr	r3, [r7, #8]
 274 0084 2A4A     		ldr	r2, .L23+20
 275 0086 9342     		cmp	r3, r2
 276 0088 06D9     		bls	.L16
 277              		.loc 1 174 34 discriminator 1
 278 008a BB68     		ldr	r3, [r7, #8]
 279 008c 294A     		ldr	r2, .L23+24
 280 008e 9342     		cmp	r3, r2
 281 0090 02D8     		bhi	.L16
 175:Drivers/STM32F4xx_HAL_Driver/Src/stm32f4xx_ll_usb.c ****     {
 176:Drivers/STM32F4xx_HAL_Driver/Src/stm32f4xx_ll_usb.c ****       /* hclk Clock Range between 20-21.8 MHz */
 177:Drivers/STM32F4xx_HAL_Driver/Src/stm32f4xx_ll_usb.c ****       UsbTrd = 0xAU;
 282              		.loc 1 177 14
ARM GAS  /var/folders/vq/qt4vp3kd5rxf7v2b6_fdtdt80000gn/T//ccjOke0W.s 			page 9


 283 0092 0A23     		movs	r3, #10
 284 0094 7B61     		str	r3, [r7, #20]
 285 0096 2BE0     		b	.L20
 286              	.L16:
 178:Drivers/STM32F4xx_HAL_Driver/Src/stm32f4xx_ll_usb.c ****     }
 179:Drivers/STM32F4xx_HAL_Driver/Src/stm32f4xx_ll_usb.c ****     else if ((hclk >= 21800000U) && (hclk < 24000000U))
 287              		.loc 1 179 13
 288 0098 BB68     		ldr	r3, [r7, #8]
 289 009a 264A     		ldr	r2, .L23+24
 290 009c 9342     		cmp	r3, r2
 291 009e 06D9     		bls	.L17
 292              		.loc 1 179 34 discriminator 1
 293 00a0 BB68     		ldr	r3, [r7, #8]
 294 00a2 254A     		ldr	r2, .L23+28
 295 00a4 9342     		cmp	r3, r2
 296 00a6 02D2     		bcs	.L17
 180:Drivers/STM32F4xx_HAL_Driver/Src/stm32f4xx_ll_usb.c ****     {
 181:Drivers/STM32F4xx_HAL_Driver/Src/stm32f4xx_ll_usb.c ****       /* hclk Clock Range between 21.8-24 MHz */
 182:Drivers/STM32F4xx_HAL_Driver/Src/stm32f4xx_ll_usb.c ****       UsbTrd = 0x9U;
 297              		.loc 1 182 14
 298 00a8 0923     		movs	r3, #9
 299 00aa 7B61     		str	r3, [r7, #20]
 300 00ac 20E0     		b	.L20
 301              	.L17:
 183:Drivers/STM32F4xx_HAL_Driver/Src/stm32f4xx_ll_usb.c ****     }
 184:Drivers/STM32F4xx_HAL_Driver/Src/stm32f4xx_ll_usb.c ****     else if ((hclk >= 24000000U) && (hclk < 27700000U))
 302              		.loc 1 184 13
 303 00ae BB68     		ldr	r3, [r7, #8]
 304 00b0 214A     		ldr	r2, .L23+28
 305 00b2 9342     		cmp	r3, r2
 306 00b4 06D3     		bcc	.L18
 307              		.loc 1 184 34 discriminator 1
 308 00b6 BB68     		ldr	r3, [r7, #8]
 309 00b8 204A     		ldr	r2, .L23+32
 310 00ba 9342     		cmp	r3, r2
 311 00bc 02D8     		bhi	.L18
 185:Drivers/STM32F4xx_HAL_Driver/Src/stm32f4xx_ll_usb.c ****     {
 186:Drivers/STM32F4xx_HAL_Driver/Src/stm32f4xx_ll_usb.c ****       /* hclk Clock Range between 24-27.7 MHz */
 187:Drivers/STM32F4xx_HAL_Driver/Src/stm32f4xx_ll_usb.c ****       UsbTrd = 0x8U;
 312              		.loc 1 187 14
 313 00be 0823     		movs	r3, #8
 314 00c0 7B61     		str	r3, [r7, #20]
 315 00c2 15E0     		b	.L20
 316              	.L18:
 188:Drivers/STM32F4xx_HAL_Driver/Src/stm32f4xx_ll_usb.c ****     }
 189:Drivers/STM32F4xx_HAL_Driver/Src/stm32f4xx_ll_usb.c ****     else if ((hclk >= 27700000U) && (hclk < 32000000U))
 317              		.loc 1 189 13
 318 00c4 BB68     		ldr	r3, [r7, #8]
 319 00c6 1D4A     		ldr	r2, .L23+32
 320 00c8 9342     		cmp	r3, r2
 321 00ca 06D9     		bls	.L19
 322              		.loc 1 189 34 discriminator 1
 323 00cc BB68     		ldr	r3, [r7, #8]
 324 00ce 1C4A     		ldr	r2, .L23+36
 325 00d0 9342     		cmp	r3, r2
 326 00d2 02D2     		bcs	.L19
 190:Drivers/STM32F4xx_HAL_Driver/Src/stm32f4xx_ll_usb.c ****     {
ARM GAS  /var/folders/vq/qt4vp3kd5rxf7v2b6_fdtdt80000gn/T//ccjOke0W.s 			page 10


 191:Drivers/STM32F4xx_HAL_Driver/Src/stm32f4xx_ll_usb.c ****       /* hclk Clock Range between 27.7-32 MHz */
 192:Drivers/STM32F4xx_HAL_Driver/Src/stm32f4xx_ll_usb.c ****       UsbTrd = 0x7U;
 327              		.loc 1 192 14
 328 00d4 0723     		movs	r3, #7
 329 00d6 7B61     		str	r3, [r7, #20]
 330 00d8 0AE0     		b	.L20
 331              	.L19:
 193:Drivers/STM32F4xx_HAL_Driver/Src/stm32f4xx_ll_usb.c ****     }
 194:Drivers/STM32F4xx_HAL_Driver/Src/stm32f4xx_ll_usb.c ****     else /* if(hclk >= 32000000) */
 195:Drivers/STM32F4xx_HAL_Driver/Src/stm32f4xx_ll_usb.c ****     {
 196:Drivers/STM32F4xx_HAL_Driver/Src/stm32f4xx_ll_usb.c ****       /* hclk Clock Range between 32-200 MHz */
 197:Drivers/STM32F4xx_HAL_Driver/Src/stm32f4xx_ll_usb.c ****       UsbTrd = 0x6U;
 332              		.loc 1 197 14
 333 00da 0623     		movs	r3, #6
 334 00dc 7B61     		str	r3, [r7, #20]
 335 00de 07E0     		b	.L20
 336              	.L9:
 198:Drivers/STM32F4xx_HAL_Driver/Src/stm32f4xx_ll_usb.c ****     }
 199:Drivers/STM32F4xx_HAL_Driver/Src/stm32f4xx_ll_usb.c ****   }
 200:Drivers/STM32F4xx_HAL_Driver/Src/stm32f4xx_ll_usb.c ****   else if (speed == USBD_HS_SPEED)
 337              		.loc 1 200 11
 338 00e0 FB79     		ldrb	r3, [r7, #7]	@ zero_extendqisi2
 339 00e2 002B     		cmp	r3, #0
 340 00e4 02D1     		bne	.L21
 201:Drivers/STM32F4xx_HAL_Driver/Src/stm32f4xx_ll_usb.c ****   {
 202:Drivers/STM32F4xx_HAL_Driver/Src/stm32f4xx_ll_usb.c ****     UsbTrd = USBD_HS_TRDT_VALUE;
 341              		.loc 1 202 12
 342 00e6 0923     		movs	r3, #9
 343 00e8 7B61     		str	r3, [r7, #20]
 344 00ea 01E0     		b	.L20
 345              	.L21:
 203:Drivers/STM32F4xx_HAL_Driver/Src/stm32f4xx_ll_usb.c ****   }
 204:Drivers/STM32F4xx_HAL_Driver/Src/stm32f4xx_ll_usb.c ****   else
 205:Drivers/STM32F4xx_HAL_Driver/Src/stm32f4xx_ll_usb.c ****   {
 206:Drivers/STM32F4xx_HAL_Driver/Src/stm32f4xx_ll_usb.c ****     UsbTrd = USBD_DEFAULT_TRDT_VALUE;
 346              		.loc 1 206 12
 347 00ec 0923     		movs	r3, #9
 348 00ee 7B61     		str	r3, [r7, #20]
 349              	.L20:
 207:Drivers/STM32F4xx_HAL_Driver/Src/stm32f4xx_ll_usb.c ****   }
 208:Drivers/STM32F4xx_HAL_Driver/Src/stm32f4xx_ll_usb.c **** 
 209:Drivers/STM32F4xx_HAL_Driver/Src/stm32f4xx_ll_usb.c ****   USBx->GUSBCFG &= ~USB_OTG_GUSBCFG_TRDT;
 350              		.loc 1 209 17
 351 00f0 FB68     		ldr	r3, [r7, #12]
 352 00f2 DB68     		ldr	r3, [r3, #12]
 353 00f4 23F47052 		bic	r2, r3, #15360
 354 00f8 FB68     		ldr	r3, [r7, #12]
 355 00fa DA60     		str	r2, [r3, #12]
 210:Drivers/STM32F4xx_HAL_Driver/Src/stm32f4xx_ll_usb.c ****   USBx->GUSBCFG |= (uint32_t)((UsbTrd << 10) & USB_OTG_GUSBCFG_TRDT);
 356              		.loc 1 210 17
 357 00fc FB68     		ldr	r3, [r7, #12]
 358 00fe DA68     		ldr	r2, [r3, #12]
 359              		.loc 1 210 39
 360 0100 7B69     		ldr	r3, [r7, #20]
 361 0102 9B02     		lsls	r3, r3, #10
 362              		.loc 1 210 20
 363 0104 03F47053 		and	r3, r3, #15360
ARM GAS  /var/folders/vq/qt4vp3kd5rxf7v2b6_fdtdt80000gn/T//ccjOke0W.s 			page 11


 364              		.loc 1 210 17
 365 0108 1A43     		orrs	r2, r2, r3
 366 010a FB68     		ldr	r3, [r7, #12]
 367 010c DA60     		str	r2, [r3, #12]
 211:Drivers/STM32F4xx_HAL_Driver/Src/stm32f4xx_ll_usb.c **** 
 212:Drivers/STM32F4xx_HAL_Driver/Src/stm32f4xx_ll_usb.c ****   return HAL_OK;
 368              		.loc 1 212 10
 369 010e 0023     		movs	r3, #0
 213:Drivers/STM32F4xx_HAL_Driver/Src/stm32f4xx_ll_usb.c **** }
 370              		.loc 1 213 1
 371 0110 1846     		mov	r0, r3
 372 0112 1C37     		adds	r7, r7, #28
 373              	.LCFI11:
 374              		.cfi_def_cfa_offset 4
 375 0114 BD46     		mov	sp, r7
 376              	.LCFI12:
 377              		.cfi_def_cfa_register 13
 378              		@ sp needed
 379 0116 5DF8047B 		ldr	r7, [sp], #4
 380              	.LCFI13:
 381              		.cfi_restore 7
 382              		.cfi_def_cfa_offset 0
 383 011a 7047     		bx	lr
 384              	.L24:
 385              		.align	2
 386              	.L23:
 387 011c BFACD800 		.word	14199999
 388 0120 C0E1E400 		.word	15000000
 389 0124 0024F400 		.word	16000000
 390 0128 80730601 		.word	17200000
 391 012c 9F491A01 		.word	18499999
 392 0130 FF2C3101 		.word	19999999
 393 0134 3FA44C01 		.word	21799999
 394 0138 00366E01 		.word	24000000
 395 013c 1FABA601 		.word	27699999
 396 0140 0048E801 		.word	32000000
 397              		.cfi_endproc
 398              	.LFE131:
 400              		.section	.text.USB_EnableGlobalInt,"ax",%progbits
 401              		.align	1
 402              		.global	USB_EnableGlobalInt
 403              		.syntax unified
 404              		.thumb
 405              		.thumb_func
 406              		.fpu fpv4-sp-d16
 408              	USB_EnableGlobalInt:
 409              	.LFB132:
 214:Drivers/STM32F4xx_HAL_Driver/Src/stm32f4xx_ll_usb.c **** 
 215:Drivers/STM32F4xx_HAL_Driver/Src/stm32f4xx_ll_usb.c **** /**
 216:Drivers/STM32F4xx_HAL_Driver/Src/stm32f4xx_ll_usb.c ****   * @brief  USB_EnableGlobalInt
 217:Drivers/STM32F4xx_HAL_Driver/Src/stm32f4xx_ll_usb.c ****   *         Enables the controller's Global Int in the AHB Config reg
 218:Drivers/STM32F4xx_HAL_Driver/Src/stm32f4xx_ll_usb.c ****   * @param  USBx  Selected device
 219:Drivers/STM32F4xx_HAL_Driver/Src/stm32f4xx_ll_usb.c ****   * @retval HAL status
 220:Drivers/STM32F4xx_HAL_Driver/Src/stm32f4xx_ll_usb.c ****   */
 221:Drivers/STM32F4xx_HAL_Driver/Src/stm32f4xx_ll_usb.c **** HAL_StatusTypeDef USB_EnableGlobalInt(USB_OTG_GlobalTypeDef *USBx)
 222:Drivers/STM32F4xx_HAL_Driver/Src/stm32f4xx_ll_usb.c **** {
 410              		.loc 1 222 1
ARM GAS  /var/folders/vq/qt4vp3kd5rxf7v2b6_fdtdt80000gn/T//ccjOke0W.s 			page 12


 411              		.cfi_startproc
 412              		@ args = 0, pretend = 0, frame = 8
 413              		@ frame_needed = 1, uses_anonymous_args = 0
 414              		@ link register save eliminated.
 415 0000 80B4     		push	{r7}
 416              	.LCFI14:
 417              		.cfi_def_cfa_offset 4
 418              		.cfi_offset 7, -4
 419 0002 83B0     		sub	sp, sp, #12
 420              	.LCFI15:
 421              		.cfi_def_cfa_offset 16
 422 0004 00AF     		add	r7, sp, #0
 423              	.LCFI16:
 424              		.cfi_def_cfa_register 7
 425 0006 7860     		str	r0, [r7, #4]
 223:Drivers/STM32F4xx_HAL_Driver/Src/stm32f4xx_ll_usb.c ****   USBx->GAHBCFG |= USB_OTG_GAHBCFG_GINT;
 426              		.loc 1 223 17
 427 0008 7B68     		ldr	r3, [r7, #4]
 428 000a 9B68     		ldr	r3, [r3, #8]
 429 000c 43F00102 		orr	r2, r3, #1
 430 0010 7B68     		ldr	r3, [r7, #4]
 431 0012 9A60     		str	r2, [r3, #8]
 224:Drivers/STM32F4xx_HAL_Driver/Src/stm32f4xx_ll_usb.c ****   return HAL_OK;
 432              		.loc 1 224 10
 433 0014 0023     		movs	r3, #0
 225:Drivers/STM32F4xx_HAL_Driver/Src/stm32f4xx_ll_usb.c **** }
 434              		.loc 1 225 1
 435 0016 1846     		mov	r0, r3
 436 0018 0C37     		adds	r7, r7, #12
 437              	.LCFI17:
 438              		.cfi_def_cfa_offset 4
 439 001a BD46     		mov	sp, r7
 440              	.LCFI18:
 441              		.cfi_def_cfa_register 13
 442              		@ sp needed
 443 001c 5DF8047B 		ldr	r7, [sp], #4
 444              	.LCFI19:
 445              		.cfi_restore 7
 446              		.cfi_def_cfa_offset 0
 447 0020 7047     		bx	lr
 448              		.cfi_endproc
 449              	.LFE132:
 451              		.section	.text.USB_DisableGlobalInt,"ax",%progbits
 452              		.align	1
 453              		.global	USB_DisableGlobalInt
 454              		.syntax unified
 455              		.thumb
 456              		.thumb_func
 457              		.fpu fpv4-sp-d16
 459              	USB_DisableGlobalInt:
 460              	.LFB133:
 226:Drivers/STM32F4xx_HAL_Driver/Src/stm32f4xx_ll_usb.c **** 
 227:Drivers/STM32F4xx_HAL_Driver/Src/stm32f4xx_ll_usb.c **** /**
 228:Drivers/STM32F4xx_HAL_Driver/Src/stm32f4xx_ll_usb.c ****   * @brief  USB_DisableGlobalInt
 229:Drivers/STM32F4xx_HAL_Driver/Src/stm32f4xx_ll_usb.c ****   *         Disable the controller's Global Int in the AHB Config reg
 230:Drivers/STM32F4xx_HAL_Driver/Src/stm32f4xx_ll_usb.c ****   * @param  USBx  Selected device
 231:Drivers/STM32F4xx_HAL_Driver/Src/stm32f4xx_ll_usb.c ****   * @retval HAL status
ARM GAS  /var/folders/vq/qt4vp3kd5rxf7v2b6_fdtdt80000gn/T//ccjOke0W.s 			page 13


 232:Drivers/STM32F4xx_HAL_Driver/Src/stm32f4xx_ll_usb.c ****   */
 233:Drivers/STM32F4xx_HAL_Driver/Src/stm32f4xx_ll_usb.c **** HAL_StatusTypeDef USB_DisableGlobalInt(USB_OTG_GlobalTypeDef *USBx)
 234:Drivers/STM32F4xx_HAL_Driver/Src/stm32f4xx_ll_usb.c **** {
 461              		.loc 1 234 1
 462              		.cfi_startproc
 463              		@ args = 0, pretend = 0, frame = 8
 464              		@ frame_needed = 1, uses_anonymous_args = 0
 465              		@ link register save eliminated.
 466 0000 80B4     		push	{r7}
 467              	.LCFI20:
 468              		.cfi_def_cfa_offset 4
 469              		.cfi_offset 7, -4
 470 0002 83B0     		sub	sp, sp, #12
 471              	.LCFI21:
 472              		.cfi_def_cfa_offset 16
 473 0004 00AF     		add	r7, sp, #0
 474              	.LCFI22:
 475              		.cfi_def_cfa_register 7
 476 0006 7860     		str	r0, [r7, #4]
 235:Drivers/STM32F4xx_HAL_Driver/Src/stm32f4xx_ll_usb.c ****   USBx->GAHBCFG &= ~USB_OTG_GAHBCFG_GINT;
 477              		.loc 1 235 17
 478 0008 7B68     		ldr	r3, [r7, #4]
 479 000a 9B68     		ldr	r3, [r3, #8]
 480 000c 23F00102 		bic	r2, r3, #1
 481 0010 7B68     		ldr	r3, [r7, #4]
 482 0012 9A60     		str	r2, [r3, #8]
 236:Drivers/STM32F4xx_HAL_Driver/Src/stm32f4xx_ll_usb.c ****   return HAL_OK;
 483              		.loc 1 236 10
 484 0014 0023     		movs	r3, #0
 237:Drivers/STM32F4xx_HAL_Driver/Src/stm32f4xx_ll_usb.c **** }
 485              		.loc 1 237 1
 486 0016 1846     		mov	r0, r3
 487 0018 0C37     		adds	r7, r7, #12
 488              	.LCFI23:
 489              		.cfi_def_cfa_offset 4
 490 001a BD46     		mov	sp, r7
 491              	.LCFI24:
 492              		.cfi_def_cfa_register 13
 493              		@ sp needed
 494 001c 5DF8047B 		ldr	r7, [sp], #4
 495              	.LCFI25:
 496              		.cfi_restore 7
 497              		.cfi_def_cfa_offset 0
 498 0020 7047     		bx	lr
 499              		.cfi_endproc
 500              	.LFE133:
 502              		.section	.text.USB_SetCurrentMode,"ax",%progbits
 503              		.align	1
 504              		.global	USB_SetCurrentMode
 505              		.syntax unified
 506              		.thumb
 507              		.thumb_func
 508              		.fpu fpv4-sp-d16
 510              	USB_SetCurrentMode:
 511              	.LFB134:
 238:Drivers/STM32F4xx_HAL_Driver/Src/stm32f4xx_ll_usb.c **** 
 239:Drivers/STM32F4xx_HAL_Driver/Src/stm32f4xx_ll_usb.c **** /**
ARM GAS  /var/folders/vq/qt4vp3kd5rxf7v2b6_fdtdt80000gn/T//ccjOke0W.s 			page 14


 240:Drivers/STM32F4xx_HAL_Driver/Src/stm32f4xx_ll_usb.c ****   * @brief  USB_SetCurrentMode Set functional mode
 241:Drivers/STM32F4xx_HAL_Driver/Src/stm32f4xx_ll_usb.c ****   * @param  USBx  Selected device
 242:Drivers/STM32F4xx_HAL_Driver/Src/stm32f4xx_ll_usb.c ****   * @param  mode  current core mode
 243:Drivers/STM32F4xx_HAL_Driver/Src/stm32f4xx_ll_usb.c ****   *          This parameter can be one of these values:
 244:Drivers/STM32F4xx_HAL_Driver/Src/stm32f4xx_ll_usb.c ****   *            @arg USB_DEVICE_MODE Peripheral mode
 245:Drivers/STM32F4xx_HAL_Driver/Src/stm32f4xx_ll_usb.c ****   *            @arg USB_HOST_MODE Host mode
 246:Drivers/STM32F4xx_HAL_Driver/Src/stm32f4xx_ll_usb.c ****   * @retval HAL status
 247:Drivers/STM32F4xx_HAL_Driver/Src/stm32f4xx_ll_usb.c ****   */
 248:Drivers/STM32F4xx_HAL_Driver/Src/stm32f4xx_ll_usb.c **** HAL_StatusTypeDef USB_SetCurrentMode(USB_OTG_GlobalTypeDef *USBx, USB_OTG_ModeTypeDef mode)
 249:Drivers/STM32F4xx_HAL_Driver/Src/stm32f4xx_ll_usb.c **** {
 512              		.loc 1 249 1
 513              		.cfi_startproc
 514              		@ args = 0, pretend = 0, frame = 8
 515              		@ frame_needed = 1, uses_anonymous_args = 0
 516 0000 80B5     		push	{r7, lr}
 517              	.LCFI26:
 518              		.cfi_def_cfa_offset 8
 519              		.cfi_offset 7, -8
 520              		.cfi_offset 14, -4
 521 0002 82B0     		sub	sp, sp, #8
 522              	.LCFI27:
 523              		.cfi_def_cfa_offset 16
 524 0004 00AF     		add	r7, sp, #0
 525              	.LCFI28:
 526              		.cfi_def_cfa_register 7
 527 0006 7860     		str	r0, [r7, #4]
 528 0008 0B46     		mov	r3, r1
 529 000a FB70     		strb	r3, [r7, #3]
 250:Drivers/STM32F4xx_HAL_Driver/Src/stm32f4xx_ll_usb.c ****   USBx->GUSBCFG &= ~(USB_OTG_GUSBCFG_FHMOD | USB_OTG_GUSBCFG_FDMOD);
 530              		.loc 1 250 17
 531 000c 7B68     		ldr	r3, [r7, #4]
 532 000e DB68     		ldr	r3, [r3, #12]
 533 0010 23F0C042 		bic	r2, r3, #1610612736
 534 0014 7B68     		ldr	r3, [r7, #4]
 535 0016 DA60     		str	r2, [r3, #12]
 251:Drivers/STM32F4xx_HAL_Driver/Src/stm32f4xx_ll_usb.c **** 
 252:Drivers/STM32F4xx_HAL_Driver/Src/stm32f4xx_ll_usb.c ****   if (mode == USB_HOST_MODE)
 536              		.loc 1 252 6
 537 0018 FB78     		ldrb	r3, [r7, #3]	@ zero_extendqisi2
 538 001a 012B     		cmp	r3, #1
 539 001c 06D1     		bne	.L30
 253:Drivers/STM32F4xx_HAL_Driver/Src/stm32f4xx_ll_usb.c ****   {
 254:Drivers/STM32F4xx_HAL_Driver/Src/stm32f4xx_ll_usb.c ****     USBx->GUSBCFG |= USB_OTG_GUSBCFG_FHMOD;
 540              		.loc 1 254 19
 541 001e 7B68     		ldr	r3, [r7, #4]
 542 0020 DB68     		ldr	r3, [r3, #12]
 543 0022 43F00052 		orr	r2, r3, #536870912
 544 0026 7B68     		ldr	r3, [r7, #4]
 545 0028 DA60     		str	r2, [r3, #12]
 546 002a 0BE0     		b	.L31
 547              	.L30:
 255:Drivers/STM32F4xx_HAL_Driver/Src/stm32f4xx_ll_usb.c ****   }
 256:Drivers/STM32F4xx_HAL_Driver/Src/stm32f4xx_ll_usb.c ****   else if (mode == USB_DEVICE_MODE)
 548              		.loc 1 256 11
 549 002c FB78     		ldrb	r3, [r7, #3]	@ zero_extendqisi2
 550 002e 002B     		cmp	r3, #0
 551 0030 06D1     		bne	.L32
ARM GAS  /var/folders/vq/qt4vp3kd5rxf7v2b6_fdtdt80000gn/T//ccjOke0W.s 			page 15


 257:Drivers/STM32F4xx_HAL_Driver/Src/stm32f4xx_ll_usb.c ****   {
 258:Drivers/STM32F4xx_HAL_Driver/Src/stm32f4xx_ll_usb.c ****     USBx->GUSBCFG |= USB_OTG_GUSBCFG_FDMOD;
 552              		.loc 1 258 19
 553 0032 7B68     		ldr	r3, [r7, #4]
 554 0034 DB68     		ldr	r3, [r3, #12]
 555 0036 43F08042 		orr	r2, r3, #1073741824
 556 003a 7B68     		ldr	r3, [r7, #4]
 557 003c DA60     		str	r2, [r3, #12]
 558 003e 01E0     		b	.L31
 559              	.L32:
 259:Drivers/STM32F4xx_HAL_Driver/Src/stm32f4xx_ll_usb.c ****   }
 260:Drivers/STM32F4xx_HAL_Driver/Src/stm32f4xx_ll_usb.c ****   else
 261:Drivers/STM32F4xx_HAL_Driver/Src/stm32f4xx_ll_usb.c ****   {
 262:Drivers/STM32F4xx_HAL_Driver/Src/stm32f4xx_ll_usb.c ****     return HAL_ERROR;
 560              		.loc 1 262 12
 561 0040 0123     		movs	r3, #1
 562 0042 03E0     		b	.L33
 563              	.L31:
 263:Drivers/STM32F4xx_HAL_Driver/Src/stm32f4xx_ll_usb.c ****   }
 264:Drivers/STM32F4xx_HAL_Driver/Src/stm32f4xx_ll_usb.c ****   HAL_Delay(50U);
 564              		.loc 1 264 3
 565 0044 3220     		movs	r0, #50
 566 0046 FFF7FEFF 		bl	HAL_Delay
 265:Drivers/STM32F4xx_HAL_Driver/Src/stm32f4xx_ll_usb.c **** 
 266:Drivers/STM32F4xx_HAL_Driver/Src/stm32f4xx_ll_usb.c ****   return HAL_OK;
 567              		.loc 1 266 10
 568 004a 0023     		movs	r3, #0
 569              	.L33:
 267:Drivers/STM32F4xx_HAL_Driver/Src/stm32f4xx_ll_usb.c **** }
 570              		.loc 1 267 1
 571 004c 1846     		mov	r0, r3
 572 004e 0837     		adds	r7, r7, #8
 573              	.LCFI29:
 574              		.cfi_def_cfa_offset 8
 575 0050 BD46     		mov	sp, r7
 576              	.LCFI30:
 577              		.cfi_def_cfa_register 13
 578              		@ sp needed
 579 0052 80BD     		pop	{r7, pc}
 580              		.cfi_endproc
 581              	.LFE134:
 583              		.section	.text.USB_DevInit,"ax",%progbits
 584              		.align	1
 585              		.global	USB_DevInit
 586              		.syntax unified
 587              		.thumb
 588              		.thumb_func
 589              		.fpu fpv4-sp-d16
 591              	USB_DevInit:
 592              	.LFB135:
 268:Drivers/STM32F4xx_HAL_Driver/Src/stm32f4xx_ll_usb.c **** 
 269:Drivers/STM32F4xx_HAL_Driver/Src/stm32f4xx_ll_usb.c **** /**
 270:Drivers/STM32F4xx_HAL_Driver/Src/stm32f4xx_ll_usb.c ****   * @brief  USB_DevInit Initializes the USB_OTG controller registers
 271:Drivers/STM32F4xx_HAL_Driver/Src/stm32f4xx_ll_usb.c ****   *         for device mode
 272:Drivers/STM32F4xx_HAL_Driver/Src/stm32f4xx_ll_usb.c ****   * @param  USBx  Selected device
 273:Drivers/STM32F4xx_HAL_Driver/Src/stm32f4xx_ll_usb.c ****   * @param  cfg   pointer to a USB_OTG_CfgTypeDef structure that contains
 274:Drivers/STM32F4xx_HAL_Driver/Src/stm32f4xx_ll_usb.c ****   *         the configuration information for the specified USBx peripheral.
ARM GAS  /var/folders/vq/qt4vp3kd5rxf7v2b6_fdtdt80000gn/T//ccjOke0W.s 			page 16


 275:Drivers/STM32F4xx_HAL_Driver/Src/stm32f4xx_ll_usb.c ****   * @retval HAL status
 276:Drivers/STM32F4xx_HAL_Driver/Src/stm32f4xx_ll_usb.c ****   */
 277:Drivers/STM32F4xx_HAL_Driver/Src/stm32f4xx_ll_usb.c **** HAL_StatusTypeDef USB_DevInit(USB_OTG_GlobalTypeDef *USBx, USB_OTG_CfgTypeDef cfg)
 278:Drivers/STM32F4xx_HAL_Driver/Src/stm32f4xx_ll_usb.c **** {
 593              		.loc 1 278 1
 594              		.cfi_startproc
 595              		@ args = 56, pretend = 16, frame = 24
 596              		@ frame_needed = 1, uses_anonymous_args = 0
 597 0000 84B0     		sub	sp, sp, #16
 598              	.LCFI31:
 599              		.cfi_def_cfa_offset 16
 600 0002 80B5     		push	{r7, lr}
 601              	.LCFI32:
 602              		.cfi_def_cfa_offset 24
 603              		.cfi_offset 7, -24
 604              		.cfi_offset 14, -20
 605 0004 86B0     		sub	sp, sp, #24
 606              	.LCFI33:
 607              		.cfi_def_cfa_offset 48
 608 0006 00AF     		add	r7, sp, #0
 609              	.LCFI34:
 610              		.cfi_def_cfa_register 7
 611 0008 7860     		str	r0, [r7, #4]
 612 000a 07F12400 		add	r0, r7, #36
 613 000e 80E80E00 		stm	r0, {r1, r2, r3}
 279:Drivers/STM32F4xx_HAL_Driver/Src/stm32f4xx_ll_usb.c ****   HAL_StatusTypeDef ret = HAL_OK;
 614              		.loc 1 279 21
 615 0012 0023     		movs	r3, #0
 616 0014 FB75     		strb	r3, [r7, #23]
 280:Drivers/STM32F4xx_HAL_Driver/Src/stm32f4xx_ll_usb.c ****   uint32_t USBx_BASE = (uint32_t)USBx;
 617              		.loc 1 280 12
 618 0016 7B68     		ldr	r3, [r7, #4]
 619 0018 FB60     		str	r3, [r7, #12]
 281:Drivers/STM32F4xx_HAL_Driver/Src/stm32f4xx_ll_usb.c ****   uint32_t i;
 282:Drivers/STM32F4xx_HAL_Driver/Src/stm32f4xx_ll_usb.c **** 
 283:Drivers/STM32F4xx_HAL_Driver/Src/stm32f4xx_ll_usb.c ****   for (i = 0U; i < 15U; i++)
 620              		.loc 1 283 10
 621 001a 0023     		movs	r3, #0
 622 001c 3B61     		str	r3, [r7, #16]
 623              		.loc 1 283 3
 624 001e 09E0     		b	.L35
 625              	.L36:
 284:Drivers/STM32F4xx_HAL_Driver/Src/stm32f4xx_ll_usb.c ****   {
 285:Drivers/STM32F4xx_HAL_Driver/Src/stm32f4xx_ll_usb.c ****     USBx->DIEPTXF[i] = 0U;
 626              		.loc 1 285 22 discriminator 3
 627 0020 7A68     		ldr	r2, [r7, #4]
 628 0022 3B69     		ldr	r3, [r7, #16]
 629 0024 4033     		adds	r3, r3, #64
 630 0026 9B00     		lsls	r3, r3, #2
 631 0028 1344     		add	r3, r3, r2
 632 002a 0022     		movs	r2, #0
 633 002c 5A60     		str	r2, [r3, #4]
 283:Drivers/STM32F4xx_HAL_Driver/Src/stm32f4xx_ll_usb.c ****   {
 634              		.loc 1 283 26 discriminator 3
 635 002e 3B69     		ldr	r3, [r7, #16]
 636 0030 0133     		adds	r3, r3, #1
 637 0032 3B61     		str	r3, [r7, #16]
ARM GAS  /var/folders/vq/qt4vp3kd5rxf7v2b6_fdtdt80000gn/T//ccjOke0W.s 			page 17


 638              	.L35:
 283:Drivers/STM32F4xx_HAL_Driver/Src/stm32f4xx_ll_usb.c ****   {
 639              		.loc 1 283 3 discriminator 1
 640 0034 3B69     		ldr	r3, [r7, #16]
 641 0036 0E2B     		cmp	r3, #14
 642 0038 F2D9     		bls	.L36
 286:Drivers/STM32F4xx_HAL_Driver/Src/stm32f4xx_ll_usb.c ****   }
 287:Drivers/STM32F4xx_HAL_Driver/Src/stm32f4xx_ll_usb.c **** 
 288:Drivers/STM32F4xx_HAL_Driver/Src/stm32f4xx_ll_usb.c **** #if defined(STM32F446xx) || defined(STM32F469xx) || defined(STM32F479xx) || defined(STM32F412Zx) ||
 289:Drivers/STM32F4xx_HAL_Driver/Src/stm32f4xx_ll_usb.c ****   /* VBUS Sensing setup */
 290:Drivers/STM32F4xx_HAL_Driver/Src/stm32f4xx_ll_usb.c ****   if (cfg.vbus_sensing_enable == 0U)
 291:Drivers/STM32F4xx_HAL_Driver/Src/stm32f4xx_ll_usb.c ****   {
 292:Drivers/STM32F4xx_HAL_Driver/Src/stm32f4xx_ll_usb.c ****     USBx_DEVICE->DCTL |= USB_OTG_DCTL_SDIS;
 293:Drivers/STM32F4xx_HAL_Driver/Src/stm32f4xx_ll_usb.c **** 
 294:Drivers/STM32F4xx_HAL_Driver/Src/stm32f4xx_ll_usb.c ****     /* Deactivate VBUS Sensing B */
 295:Drivers/STM32F4xx_HAL_Driver/Src/stm32f4xx_ll_usb.c ****     USBx->GCCFG &= ~USB_OTG_GCCFG_VBDEN;
 296:Drivers/STM32F4xx_HAL_Driver/Src/stm32f4xx_ll_usb.c **** 
 297:Drivers/STM32F4xx_HAL_Driver/Src/stm32f4xx_ll_usb.c ****     /* B-peripheral session valid override enable */
 298:Drivers/STM32F4xx_HAL_Driver/Src/stm32f4xx_ll_usb.c ****     USBx->GOTGCTL |= USB_OTG_GOTGCTL_BVALOEN;
 299:Drivers/STM32F4xx_HAL_Driver/Src/stm32f4xx_ll_usb.c ****     USBx->GOTGCTL |= USB_OTG_GOTGCTL_BVALOVAL;
 300:Drivers/STM32F4xx_HAL_Driver/Src/stm32f4xx_ll_usb.c ****   }
 301:Drivers/STM32F4xx_HAL_Driver/Src/stm32f4xx_ll_usb.c ****   else
 302:Drivers/STM32F4xx_HAL_Driver/Src/stm32f4xx_ll_usb.c ****   {
 303:Drivers/STM32F4xx_HAL_Driver/Src/stm32f4xx_ll_usb.c ****     /* Enable HW VBUS sensing */
 304:Drivers/STM32F4xx_HAL_Driver/Src/stm32f4xx_ll_usb.c ****     USBx->GCCFG |= USB_OTG_GCCFG_VBDEN;
 305:Drivers/STM32F4xx_HAL_Driver/Src/stm32f4xx_ll_usb.c ****   }
 306:Drivers/STM32F4xx_HAL_Driver/Src/stm32f4xx_ll_usb.c **** #else
 307:Drivers/STM32F4xx_HAL_Driver/Src/stm32f4xx_ll_usb.c ****   /* VBUS Sensing setup */
 308:Drivers/STM32F4xx_HAL_Driver/Src/stm32f4xx_ll_usb.c ****   if (cfg.vbus_sensing_enable == 0U)
 643              		.loc 1 308 10
 644 003a FB6C     		ldr	r3, [r7, #76]
 645              		.loc 1 308 6
 646 003c 002B     		cmp	r3, #0
 647 003e 1CD1     		bne	.L37
 309:Drivers/STM32F4xx_HAL_Driver/Src/stm32f4xx_ll_usb.c ****   {
 310:Drivers/STM32F4xx_HAL_Driver/Src/stm32f4xx_ll_usb.c ****     /*
 311:Drivers/STM32F4xx_HAL_Driver/Src/stm32f4xx_ll_usb.c ****      * Disable HW VBUS sensing. VBUS is internally considered to be always
 312:Drivers/STM32F4xx_HAL_Driver/Src/stm32f4xx_ll_usb.c ****      * at VBUS-Valid level (5V).
 313:Drivers/STM32F4xx_HAL_Driver/Src/stm32f4xx_ll_usb.c ****      */
 314:Drivers/STM32F4xx_HAL_Driver/Src/stm32f4xx_ll_usb.c ****     USBx_DEVICE->DCTL |= USB_OTG_DCTL_SDIS;
 648              		.loc 1 314 23
 649 0040 FB68     		ldr	r3, [r7, #12]
 650 0042 03F50063 		add	r3, r3, #2048
 651 0046 5B68     		ldr	r3, [r3, #4]
 652 0048 FA68     		ldr	r2, [r7, #12]
 653 004a 02F50062 		add	r2, r2, #2048
 654 004e 43F00203 		orr	r3, r3, #2
 655 0052 5360     		str	r3, [r2, #4]
 315:Drivers/STM32F4xx_HAL_Driver/Src/stm32f4xx_ll_usb.c ****     USBx->GCCFG |= USB_OTG_GCCFG_NOVBUSSENS;
 656              		.loc 1 315 17
 657 0054 7B68     		ldr	r3, [r7, #4]
 658 0056 9B6B     		ldr	r3, [r3, #56]
 659 0058 43F40012 		orr	r2, r3, #2097152
 660 005c 7B68     		ldr	r3, [r7, #4]
 661 005e 9A63     		str	r2, [r3, #56]
 316:Drivers/STM32F4xx_HAL_Driver/Src/stm32f4xx_ll_usb.c ****     USBx->GCCFG &= ~USB_OTG_GCCFG_VBUSBSEN;
 662              		.loc 1 316 17
ARM GAS  /var/folders/vq/qt4vp3kd5rxf7v2b6_fdtdt80000gn/T//ccjOke0W.s 			page 18


 663 0060 7B68     		ldr	r3, [r7, #4]
 664 0062 9B6B     		ldr	r3, [r3, #56]
 665 0064 23F40022 		bic	r2, r3, #524288
 666 0068 7B68     		ldr	r3, [r7, #4]
 667 006a 9A63     		str	r2, [r3, #56]
 317:Drivers/STM32F4xx_HAL_Driver/Src/stm32f4xx_ll_usb.c ****     USBx->GCCFG &= ~USB_OTG_GCCFG_VBUSASEN;
 668              		.loc 1 317 17
 669 006c 7B68     		ldr	r3, [r7, #4]
 670 006e 9B6B     		ldr	r3, [r3, #56]
 671 0070 23F48022 		bic	r2, r3, #262144
 672 0074 7B68     		ldr	r3, [r7, #4]
 673 0076 9A63     		str	r2, [r3, #56]
 674 0078 0BE0     		b	.L38
 675              	.L37:
 318:Drivers/STM32F4xx_HAL_Driver/Src/stm32f4xx_ll_usb.c ****   }
 319:Drivers/STM32F4xx_HAL_Driver/Src/stm32f4xx_ll_usb.c ****   else
 320:Drivers/STM32F4xx_HAL_Driver/Src/stm32f4xx_ll_usb.c ****   {
 321:Drivers/STM32F4xx_HAL_Driver/Src/stm32f4xx_ll_usb.c ****     /* Enable HW VBUS sensing */
 322:Drivers/STM32F4xx_HAL_Driver/Src/stm32f4xx_ll_usb.c ****     USBx->GCCFG &= ~USB_OTG_GCCFG_NOVBUSSENS;
 676              		.loc 1 322 17
 677 007a 7B68     		ldr	r3, [r7, #4]
 678 007c 9B6B     		ldr	r3, [r3, #56]
 679 007e 23F40012 		bic	r2, r3, #2097152
 680 0082 7B68     		ldr	r3, [r7, #4]
 681 0084 9A63     		str	r2, [r3, #56]
 323:Drivers/STM32F4xx_HAL_Driver/Src/stm32f4xx_ll_usb.c ****     USBx->GCCFG |= USB_OTG_GCCFG_VBUSBSEN;
 682              		.loc 1 323 17
 683 0086 7B68     		ldr	r3, [r7, #4]
 684 0088 9B6B     		ldr	r3, [r3, #56]
 685 008a 43F40022 		orr	r2, r3, #524288
 686 008e 7B68     		ldr	r3, [r7, #4]
 687 0090 9A63     		str	r2, [r3, #56]
 688              	.L38:
 324:Drivers/STM32F4xx_HAL_Driver/Src/stm32f4xx_ll_usb.c ****   }
 325:Drivers/STM32F4xx_HAL_Driver/Src/stm32f4xx_ll_usb.c **** #endif /* defined(STM32F446xx) || defined(STM32F469xx) || defined(STM32F479xx) || defined(STM32F412
 326:Drivers/STM32F4xx_HAL_Driver/Src/stm32f4xx_ll_usb.c **** 
 327:Drivers/STM32F4xx_HAL_Driver/Src/stm32f4xx_ll_usb.c ****   /* Restart the Phy Clock */
 328:Drivers/STM32F4xx_HAL_Driver/Src/stm32f4xx_ll_usb.c ****   USBx_PCGCCTL = 0U;
 689              		.loc 1 328 3
 690 0092 FB68     		ldr	r3, [r7, #12]
 691 0094 03F56063 		add	r3, r3, #3584
 692 0098 1A46     		mov	r2, r3
 693              		.loc 1 328 16
 694 009a 0023     		movs	r3, #0
 695 009c 1360     		str	r3, [r2]
 329:Drivers/STM32F4xx_HAL_Driver/Src/stm32f4xx_ll_usb.c **** 
 330:Drivers/STM32F4xx_HAL_Driver/Src/stm32f4xx_ll_usb.c ****   /* Device mode configuration */
 331:Drivers/STM32F4xx_HAL_Driver/Src/stm32f4xx_ll_usb.c ****   USBx_DEVICE->DCFG |= DCFG_FRAME_INTERVAL_80;
 696              		.loc 1 331 21
 697 009e FB68     		ldr	r3, [r7, #12]
 698 00a0 03F50063 		add	r3, r3, #2048
 699 00a4 1946     		mov	r1, r3
 700 00a6 FB68     		ldr	r3, [r7, #12]
 701 00a8 03F50063 		add	r3, r3, #2048
 702 00ac 1A46     		mov	r2, r3
 703 00ae 0B68     		ldr	r3, [r1]
 704 00b0 1360     		str	r3, [r2]
ARM GAS  /var/folders/vq/qt4vp3kd5rxf7v2b6_fdtdt80000gn/T//ccjOke0W.s 			page 19


 332:Drivers/STM32F4xx_HAL_Driver/Src/stm32f4xx_ll_usb.c **** 
 333:Drivers/STM32F4xx_HAL_Driver/Src/stm32f4xx_ll_usb.c ****   if (cfg.phy_itface == USB_OTG_ULPI_PHY)
 705              		.loc 1 333 10
 706 00b2 BB6B     		ldr	r3, [r7, #56]
 707              		.loc 1 333 6
 708 00b4 012B     		cmp	r3, #1
 709 00b6 0CD1     		bne	.L39
 334:Drivers/STM32F4xx_HAL_Driver/Src/stm32f4xx_ll_usb.c ****   {
 335:Drivers/STM32F4xx_HAL_Driver/Src/stm32f4xx_ll_usb.c ****     if (cfg.speed == USBD_HS_SPEED)
 710              		.loc 1 335 12
 711 00b8 FB6A     		ldr	r3, [r7, #44]
 712              		.loc 1 335 8
 713 00ba 002B     		cmp	r3, #0
 714 00bc 04D1     		bne	.L40
 336:Drivers/STM32F4xx_HAL_Driver/Src/stm32f4xx_ll_usb.c ****     {
 337:Drivers/STM32F4xx_HAL_Driver/Src/stm32f4xx_ll_usb.c ****       /* Set Core speed to High speed mode */
 338:Drivers/STM32F4xx_HAL_Driver/Src/stm32f4xx_ll_usb.c ****       (void)USB_SetDevSpeed(USBx, USB_OTG_SPEED_HIGH);
 715              		.loc 1 338 13
 716 00be 0021     		movs	r1, #0
 717 00c0 7868     		ldr	r0, [r7, #4]
 718 00c2 FFF7FEFF 		bl	USB_SetDevSpeed
 719 00c6 08E0     		b	.L41
 720              	.L40:
 339:Drivers/STM32F4xx_HAL_Driver/Src/stm32f4xx_ll_usb.c ****     }
 340:Drivers/STM32F4xx_HAL_Driver/Src/stm32f4xx_ll_usb.c ****     else
 341:Drivers/STM32F4xx_HAL_Driver/Src/stm32f4xx_ll_usb.c ****     {
 342:Drivers/STM32F4xx_HAL_Driver/Src/stm32f4xx_ll_usb.c ****       /* Set Core speed to Full speed mode */
 343:Drivers/STM32F4xx_HAL_Driver/Src/stm32f4xx_ll_usb.c ****       (void)USB_SetDevSpeed(USBx, USB_OTG_SPEED_HIGH_IN_FULL);
 721              		.loc 1 343 13
 722 00c8 0121     		movs	r1, #1
 723 00ca 7868     		ldr	r0, [r7, #4]
 724 00cc FFF7FEFF 		bl	USB_SetDevSpeed
 725 00d0 03E0     		b	.L41
 726              	.L39:
 344:Drivers/STM32F4xx_HAL_Driver/Src/stm32f4xx_ll_usb.c ****     }
 345:Drivers/STM32F4xx_HAL_Driver/Src/stm32f4xx_ll_usb.c ****   }
 346:Drivers/STM32F4xx_HAL_Driver/Src/stm32f4xx_ll_usb.c ****   else
 347:Drivers/STM32F4xx_HAL_Driver/Src/stm32f4xx_ll_usb.c ****   {
 348:Drivers/STM32F4xx_HAL_Driver/Src/stm32f4xx_ll_usb.c ****     /* Set Core speed to Full speed mode */
 349:Drivers/STM32F4xx_HAL_Driver/Src/stm32f4xx_ll_usb.c ****     (void)USB_SetDevSpeed(USBx, USB_OTG_SPEED_FULL);
 727              		.loc 1 349 11
 728 00d2 0321     		movs	r1, #3
 729 00d4 7868     		ldr	r0, [r7, #4]
 730 00d6 FFF7FEFF 		bl	USB_SetDevSpeed
 731              	.L41:
 350:Drivers/STM32F4xx_HAL_Driver/Src/stm32f4xx_ll_usb.c ****   }
 351:Drivers/STM32F4xx_HAL_Driver/Src/stm32f4xx_ll_usb.c **** 
 352:Drivers/STM32F4xx_HAL_Driver/Src/stm32f4xx_ll_usb.c ****   /* Flush the FIFOs */
 353:Drivers/STM32F4xx_HAL_Driver/Src/stm32f4xx_ll_usb.c ****   if (USB_FlushTxFifo(USBx, 0x10U) != HAL_OK) /* all Tx FIFOs */
 732              		.loc 1 353 7
 733 00da 1021     		movs	r1, #16
 734 00dc 7868     		ldr	r0, [r7, #4]
 735 00de FFF7FEFF 		bl	USB_FlushTxFifo
 736 00e2 0346     		mov	r3, r0
 737              		.loc 1 353 6
 738 00e4 002B     		cmp	r3, #0
 739 00e6 01D0     		beq	.L42
ARM GAS  /var/folders/vq/qt4vp3kd5rxf7v2b6_fdtdt80000gn/T//ccjOke0W.s 			page 20


 354:Drivers/STM32F4xx_HAL_Driver/Src/stm32f4xx_ll_usb.c ****   {
 355:Drivers/STM32F4xx_HAL_Driver/Src/stm32f4xx_ll_usb.c ****     ret = HAL_ERROR;
 740              		.loc 1 355 9
 741 00e8 0123     		movs	r3, #1
 742 00ea FB75     		strb	r3, [r7, #23]
 743              	.L42:
 356:Drivers/STM32F4xx_HAL_Driver/Src/stm32f4xx_ll_usb.c ****   }
 357:Drivers/STM32F4xx_HAL_Driver/Src/stm32f4xx_ll_usb.c **** 
 358:Drivers/STM32F4xx_HAL_Driver/Src/stm32f4xx_ll_usb.c ****   if (USB_FlushRxFifo(USBx) != HAL_OK)
 744              		.loc 1 358 7
 745 00ec 7868     		ldr	r0, [r7, #4]
 746 00ee FFF7FEFF 		bl	USB_FlushRxFifo
 747 00f2 0346     		mov	r3, r0
 748              		.loc 1 358 6
 749 00f4 002B     		cmp	r3, #0
 750 00f6 01D0     		beq	.L43
 359:Drivers/STM32F4xx_HAL_Driver/Src/stm32f4xx_ll_usb.c ****   {
 360:Drivers/STM32F4xx_HAL_Driver/Src/stm32f4xx_ll_usb.c ****     ret = HAL_ERROR;
 751              		.loc 1 360 9
 752 00f8 0123     		movs	r3, #1
 753 00fa FB75     		strb	r3, [r7, #23]
 754              	.L43:
 361:Drivers/STM32F4xx_HAL_Driver/Src/stm32f4xx_ll_usb.c ****   }
 362:Drivers/STM32F4xx_HAL_Driver/Src/stm32f4xx_ll_usb.c **** 
 363:Drivers/STM32F4xx_HAL_Driver/Src/stm32f4xx_ll_usb.c ****   /* Clear all pending Device Interrupts */
 364:Drivers/STM32F4xx_HAL_Driver/Src/stm32f4xx_ll_usb.c ****   USBx_DEVICE->DIEPMSK = 0U;
 755              		.loc 1 364 3
 756 00fc FB68     		ldr	r3, [r7, #12]
 757 00fe 03F50063 		add	r3, r3, #2048
 758 0102 1A46     		mov	r2, r3
 759              		.loc 1 364 24
 760 0104 0023     		movs	r3, #0
 761 0106 1361     		str	r3, [r2, #16]
 365:Drivers/STM32F4xx_HAL_Driver/Src/stm32f4xx_ll_usb.c ****   USBx_DEVICE->DOEPMSK = 0U;
 762              		.loc 1 365 3
 763 0108 FB68     		ldr	r3, [r7, #12]
 764 010a 03F50063 		add	r3, r3, #2048
 765 010e 1A46     		mov	r2, r3
 766              		.loc 1 365 24
 767 0110 0023     		movs	r3, #0
 768 0112 5361     		str	r3, [r2, #20]
 366:Drivers/STM32F4xx_HAL_Driver/Src/stm32f4xx_ll_usb.c ****   USBx_DEVICE->DAINTMSK = 0U;
 769              		.loc 1 366 3
 770 0114 FB68     		ldr	r3, [r7, #12]
 771 0116 03F50063 		add	r3, r3, #2048
 772 011a 1A46     		mov	r2, r3
 773              		.loc 1 366 25
 774 011c 0023     		movs	r3, #0
 775 011e D361     		str	r3, [r2, #28]
 367:Drivers/STM32F4xx_HAL_Driver/Src/stm32f4xx_ll_usb.c **** 
 368:Drivers/STM32F4xx_HAL_Driver/Src/stm32f4xx_ll_usb.c ****   for (i = 0U; i < cfg.dev_endpoints; i++)
 776              		.loc 1 368 10
 777 0120 0023     		movs	r3, #0
 778 0122 3B61     		str	r3, [r7, #16]
 779              		.loc 1 368 3
 780 0124 43E0     		b	.L44
 781              	.L48:
ARM GAS  /var/folders/vq/qt4vp3kd5rxf7v2b6_fdtdt80000gn/T//ccjOke0W.s 			page 21


 369:Drivers/STM32F4xx_HAL_Driver/Src/stm32f4xx_ll_usb.c ****   {
 370:Drivers/STM32F4xx_HAL_Driver/Src/stm32f4xx_ll_usb.c ****     if ((USBx_INEP(i)->DIEPCTL & USB_OTG_DIEPCTL_EPENA) == USB_OTG_DIEPCTL_EPENA)
 782              		.loc 1 370 10
 783 0126 3B69     		ldr	r3, [r7, #16]
 784 0128 5A01     		lsls	r2, r3, #5
 785 012a FB68     		ldr	r3, [r7, #12]
 786 012c 1344     		add	r3, r3, r2
 787 012e 03F51063 		add	r3, r3, #2304
 788              		.loc 1 370 22
 789 0132 1B68     		ldr	r3, [r3]
 790              		.loc 1 370 32
 791 0134 03F00043 		and	r3, r3, #-2147483648
 792              		.loc 1 370 8
 793 0138 B3F1004F 		cmp	r3, #-2147483648
 794 013c 18D1     		bne	.L45
 371:Drivers/STM32F4xx_HAL_Driver/Src/stm32f4xx_ll_usb.c ****     {
 372:Drivers/STM32F4xx_HAL_Driver/Src/stm32f4xx_ll_usb.c ****       if (i == 0U)
 795              		.loc 1 372 10
 796 013e 3B69     		ldr	r3, [r7, #16]
 797 0140 002B     		cmp	r3, #0
 798 0142 0AD1     		bne	.L46
 373:Drivers/STM32F4xx_HAL_Driver/Src/stm32f4xx_ll_usb.c ****       {
 374:Drivers/STM32F4xx_HAL_Driver/Src/stm32f4xx_ll_usb.c ****         USBx_INEP(i)->DIEPCTL = USB_OTG_DIEPCTL_SNAK;
 799              		.loc 1 374 9
 800 0144 3B69     		ldr	r3, [r7, #16]
 801 0146 5A01     		lsls	r2, r3, #5
 802 0148 FB68     		ldr	r3, [r7, #12]
 803 014a 1344     		add	r3, r3, r2
 804 014c 03F51063 		add	r3, r3, #2304
 805 0150 1A46     		mov	r2, r3
 806              		.loc 1 374 31
 807 0152 4FF00063 		mov	r3, #134217728
 808 0156 1360     		str	r3, [r2]
 809 0158 13E0     		b	.L47
 810              	.L46:
 375:Drivers/STM32F4xx_HAL_Driver/Src/stm32f4xx_ll_usb.c ****       }
 376:Drivers/STM32F4xx_HAL_Driver/Src/stm32f4xx_ll_usb.c ****       else
 377:Drivers/STM32F4xx_HAL_Driver/Src/stm32f4xx_ll_usb.c ****       {
 378:Drivers/STM32F4xx_HAL_Driver/Src/stm32f4xx_ll_usb.c ****         USBx_INEP(i)->DIEPCTL = USB_OTG_DIEPCTL_EPDIS | USB_OTG_DIEPCTL_SNAK;
 811              		.loc 1 378 9
 812 015a 3B69     		ldr	r3, [r7, #16]
 813 015c 5A01     		lsls	r2, r3, #5
 814 015e FB68     		ldr	r3, [r7, #12]
 815 0160 1344     		add	r3, r3, r2
 816 0162 03F51063 		add	r3, r3, #2304
 817 0166 1A46     		mov	r2, r3
 818              		.loc 1 378 31
 819 0168 4FF09043 		mov	r3, #1207959552
 820 016c 1360     		str	r3, [r2]
 821 016e 08E0     		b	.L47
 822              	.L45:
 379:Drivers/STM32F4xx_HAL_Driver/Src/stm32f4xx_ll_usb.c ****       }
 380:Drivers/STM32F4xx_HAL_Driver/Src/stm32f4xx_ll_usb.c ****     }
 381:Drivers/STM32F4xx_HAL_Driver/Src/stm32f4xx_ll_usb.c ****     else
 382:Drivers/STM32F4xx_HAL_Driver/Src/stm32f4xx_ll_usb.c ****     {
 383:Drivers/STM32F4xx_HAL_Driver/Src/stm32f4xx_ll_usb.c ****       USBx_INEP(i)->DIEPCTL = 0U;
 823              		.loc 1 383 7
ARM GAS  /var/folders/vq/qt4vp3kd5rxf7v2b6_fdtdt80000gn/T//ccjOke0W.s 			page 22


 824 0170 3B69     		ldr	r3, [r7, #16]
 825 0172 5A01     		lsls	r2, r3, #5
 826 0174 FB68     		ldr	r3, [r7, #12]
 827 0176 1344     		add	r3, r3, r2
 828 0178 03F51063 		add	r3, r3, #2304
 829 017c 1A46     		mov	r2, r3
 830              		.loc 1 383 29
 831 017e 0023     		movs	r3, #0
 832 0180 1360     		str	r3, [r2]
 833              	.L47:
 384:Drivers/STM32F4xx_HAL_Driver/Src/stm32f4xx_ll_usb.c ****     }
 385:Drivers/STM32F4xx_HAL_Driver/Src/stm32f4xx_ll_usb.c **** 
 386:Drivers/STM32F4xx_HAL_Driver/Src/stm32f4xx_ll_usb.c ****     USBx_INEP(i)->DIEPTSIZ = 0U;
 834              		.loc 1 386 5 discriminator 2
 835 0182 3B69     		ldr	r3, [r7, #16]
 836 0184 5A01     		lsls	r2, r3, #5
 837 0186 FB68     		ldr	r3, [r7, #12]
 838 0188 1344     		add	r3, r3, r2
 839 018a 03F51063 		add	r3, r3, #2304
 840 018e 1A46     		mov	r2, r3
 841              		.loc 1 386 28 discriminator 2
 842 0190 0023     		movs	r3, #0
 843 0192 1361     		str	r3, [r2, #16]
 387:Drivers/STM32F4xx_HAL_Driver/Src/stm32f4xx_ll_usb.c ****     USBx_INEP(i)->DIEPINT  = 0xFB7FU;
 844              		.loc 1 387 5 discriminator 2
 845 0194 3B69     		ldr	r3, [r7, #16]
 846 0196 5A01     		lsls	r2, r3, #5
 847 0198 FB68     		ldr	r3, [r7, #12]
 848 019a 1344     		add	r3, r3, r2
 849 019c 03F51063 		add	r3, r3, #2304
 850 01a0 1A46     		mov	r2, r3
 851              		.loc 1 387 28 discriminator 2
 852 01a2 4FF67F33 		movw	r3, #64383
 853 01a6 9360     		str	r3, [r2, #8]
 368:Drivers/STM32F4xx_HAL_Driver/Src/stm32f4xx_ll_usb.c ****   {
 854              		.loc 1 368 40 discriminator 2
 855 01a8 3B69     		ldr	r3, [r7, #16]
 856 01aa 0133     		adds	r3, r3, #1
 857 01ac 3B61     		str	r3, [r7, #16]
 858              	.L44:
 368:Drivers/STM32F4xx_HAL_Driver/Src/stm32f4xx_ll_usb.c ****   {
 859              		.loc 1 368 23 discriminator 1
 860 01ae 7B6A     		ldr	r3, [r7, #36]
 368:Drivers/STM32F4xx_HAL_Driver/Src/stm32f4xx_ll_usb.c ****   {
 861              		.loc 1 368 3 discriminator 1
 862 01b0 3A69     		ldr	r2, [r7, #16]
 863 01b2 9A42     		cmp	r2, r3
 864 01b4 B7D3     		bcc	.L48
 388:Drivers/STM32F4xx_HAL_Driver/Src/stm32f4xx_ll_usb.c ****   }
 389:Drivers/STM32F4xx_HAL_Driver/Src/stm32f4xx_ll_usb.c **** 
 390:Drivers/STM32F4xx_HAL_Driver/Src/stm32f4xx_ll_usb.c ****   for (i = 0U; i < cfg.dev_endpoints; i++)
 865              		.loc 1 390 10
 866 01b6 0023     		movs	r3, #0
 867 01b8 3B61     		str	r3, [r7, #16]
 868              		.loc 1 390 3
 869 01ba 43E0     		b	.L49
 870              	.L53:
ARM GAS  /var/folders/vq/qt4vp3kd5rxf7v2b6_fdtdt80000gn/T//ccjOke0W.s 			page 23


 391:Drivers/STM32F4xx_HAL_Driver/Src/stm32f4xx_ll_usb.c ****   {
 392:Drivers/STM32F4xx_HAL_Driver/Src/stm32f4xx_ll_usb.c ****     if ((USBx_OUTEP(i)->DOEPCTL & USB_OTG_DOEPCTL_EPENA) == USB_OTG_DOEPCTL_EPENA)
 871              		.loc 1 392 10
 872 01bc 3B69     		ldr	r3, [r7, #16]
 873 01be 5A01     		lsls	r2, r3, #5
 874 01c0 FB68     		ldr	r3, [r7, #12]
 875 01c2 1344     		add	r3, r3, r2
 876 01c4 03F53063 		add	r3, r3, #2816
 877              		.loc 1 392 23
 878 01c8 1B68     		ldr	r3, [r3]
 879              		.loc 1 392 33
 880 01ca 03F00043 		and	r3, r3, #-2147483648
 881              		.loc 1 392 8
 882 01ce B3F1004F 		cmp	r3, #-2147483648
 883 01d2 18D1     		bne	.L50
 393:Drivers/STM32F4xx_HAL_Driver/Src/stm32f4xx_ll_usb.c ****     {
 394:Drivers/STM32F4xx_HAL_Driver/Src/stm32f4xx_ll_usb.c ****       if (i == 0U)
 884              		.loc 1 394 10
 885 01d4 3B69     		ldr	r3, [r7, #16]
 886 01d6 002B     		cmp	r3, #0
 887 01d8 0AD1     		bne	.L51
 395:Drivers/STM32F4xx_HAL_Driver/Src/stm32f4xx_ll_usb.c ****       {
 396:Drivers/STM32F4xx_HAL_Driver/Src/stm32f4xx_ll_usb.c ****         USBx_OUTEP(i)->DOEPCTL = USB_OTG_DOEPCTL_SNAK;
 888              		.loc 1 396 9
 889 01da 3B69     		ldr	r3, [r7, #16]
 890 01dc 5A01     		lsls	r2, r3, #5
 891 01de FB68     		ldr	r3, [r7, #12]
 892 01e0 1344     		add	r3, r3, r2
 893 01e2 03F53063 		add	r3, r3, #2816
 894 01e6 1A46     		mov	r2, r3
 895              		.loc 1 396 32
 896 01e8 4FF00063 		mov	r3, #134217728
 897 01ec 1360     		str	r3, [r2]
 898 01ee 13E0     		b	.L52
 899              	.L51:
 397:Drivers/STM32F4xx_HAL_Driver/Src/stm32f4xx_ll_usb.c ****       }
 398:Drivers/STM32F4xx_HAL_Driver/Src/stm32f4xx_ll_usb.c ****       else
 399:Drivers/STM32F4xx_HAL_Driver/Src/stm32f4xx_ll_usb.c ****       {
 400:Drivers/STM32F4xx_HAL_Driver/Src/stm32f4xx_ll_usb.c ****         USBx_OUTEP(i)->DOEPCTL = USB_OTG_DOEPCTL_EPDIS | USB_OTG_DOEPCTL_SNAK;
 900              		.loc 1 400 9
 901 01f0 3B69     		ldr	r3, [r7, #16]
 902 01f2 5A01     		lsls	r2, r3, #5
 903 01f4 FB68     		ldr	r3, [r7, #12]
 904 01f6 1344     		add	r3, r3, r2
 905 01f8 03F53063 		add	r3, r3, #2816
 906 01fc 1A46     		mov	r2, r3
 907              		.loc 1 400 32
 908 01fe 4FF09043 		mov	r3, #1207959552
 909 0202 1360     		str	r3, [r2]
 910 0204 08E0     		b	.L52
 911              	.L50:
 401:Drivers/STM32F4xx_HAL_Driver/Src/stm32f4xx_ll_usb.c ****       }
 402:Drivers/STM32F4xx_HAL_Driver/Src/stm32f4xx_ll_usb.c ****     }
 403:Drivers/STM32F4xx_HAL_Driver/Src/stm32f4xx_ll_usb.c ****     else
 404:Drivers/STM32F4xx_HAL_Driver/Src/stm32f4xx_ll_usb.c ****     {
 405:Drivers/STM32F4xx_HAL_Driver/Src/stm32f4xx_ll_usb.c ****       USBx_OUTEP(i)->DOEPCTL = 0U;
 912              		.loc 1 405 7
ARM GAS  /var/folders/vq/qt4vp3kd5rxf7v2b6_fdtdt80000gn/T//ccjOke0W.s 			page 24


 913 0206 3B69     		ldr	r3, [r7, #16]
 914 0208 5A01     		lsls	r2, r3, #5
 915 020a FB68     		ldr	r3, [r7, #12]
 916 020c 1344     		add	r3, r3, r2
 917 020e 03F53063 		add	r3, r3, #2816
 918 0212 1A46     		mov	r2, r3
 919              		.loc 1 405 30
 920 0214 0023     		movs	r3, #0
 921 0216 1360     		str	r3, [r2]
 922              	.L52:
 406:Drivers/STM32F4xx_HAL_Driver/Src/stm32f4xx_ll_usb.c ****     }
 407:Drivers/STM32F4xx_HAL_Driver/Src/stm32f4xx_ll_usb.c **** 
 408:Drivers/STM32F4xx_HAL_Driver/Src/stm32f4xx_ll_usb.c ****     USBx_OUTEP(i)->DOEPTSIZ = 0U;
 923              		.loc 1 408 5 discriminator 2
 924 0218 3B69     		ldr	r3, [r7, #16]
 925 021a 5A01     		lsls	r2, r3, #5
 926 021c FB68     		ldr	r3, [r7, #12]
 927 021e 1344     		add	r3, r3, r2
 928 0220 03F53063 		add	r3, r3, #2816
 929 0224 1A46     		mov	r2, r3
 930              		.loc 1 408 29 discriminator 2
 931 0226 0023     		movs	r3, #0
 932 0228 1361     		str	r3, [r2, #16]
 409:Drivers/STM32F4xx_HAL_Driver/Src/stm32f4xx_ll_usb.c ****     USBx_OUTEP(i)->DOEPINT  = 0xFB7FU;
 933              		.loc 1 409 5 discriminator 2
 934 022a 3B69     		ldr	r3, [r7, #16]
 935 022c 5A01     		lsls	r2, r3, #5
 936 022e FB68     		ldr	r3, [r7, #12]
 937 0230 1344     		add	r3, r3, r2
 938 0232 03F53063 		add	r3, r3, #2816
 939 0236 1A46     		mov	r2, r3
 940              		.loc 1 409 29 discriminator 2
 941 0238 4FF67F33 		movw	r3, #64383
 942 023c 9360     		str	r3, [r2, #8]
 390:Drivers/STM32F4xx_HAL_Driver/Src/stm32f4xx_ll_usb.c ****   {
 943              		.loc 1 390 40 discriminator 2
 944 023e 3B69     		ldr	r3, [r7, #16]
 945 0240 0133     		adds	r3, r3, #1
 946 0242 3B61     		str	r3, [r7, #16]
 947              	.L49:
 390:Drivers/STM32F4xx_HAL_Driver/Src/stm32f4xx_ll_usb.c ****   {
 948              		.loc 1 390 23 discriminator 1
 949 0244 7B6A     		ldr	r3, [r7, #36]
 390:Drivers/STM32F4xx_HAL_Driver/Src/stm32f4xx_ll_usb.c ****   {
 950              		.loc 1 390 3 discriminator 1
 951 0246 3A69     		ldr	r2, [r7, #16]
 952 0248 9A42     		cmp	r2, r3
 953 024a B7D3     		bcc	.L53
 410:Drivers/STM32F4xx_HAL_Driver/Src/stm32f4xx_ll_usb.c ****   }
 411:Drivers/STM32F4xx_HAL_Driver/Src/stm32f4xx_ll_usb.c **** 
 412:Drivers/STM32F4xx_HAL_Driver/Src/stm32f4xx_ll_usb.c ****   USBx_DEVICE->DIEPMSK &= ~(USB_OTG_DIEPMSK_TXFURM);
 954              		.loc 1 412 24
 955 024c FB68     		ldr	r3, [r7, #12]
 956 024e 03F50063 		add	r3, r3, #2048
 957 0252 1B69     		ldr	r3, [r3, #16]
 958 0254 FA68     		ldr	r2, [r7, #12]
 959 0256 02F50062 		add	r2, r2, #2048
ARM GAS  /var/folders/vq/qt4vp3kd5rxf7v2b6_fdtdt80000gn/T//ccjOke0W.s 			page 25


 960 025a 23F48073 		bic	r3, r3, #256
 961 025e 1361     		str	r3, [r2, #16]
 413:Drivers/STM32F4xx_HAL_Driver/Src/stm32f4xx_ll_usb.c **** 
 414:Drivers/STM32F4xx_HAL_Driver/Src/stm32f4xx_ll_usb.c ****   /* Disable all interrupts. */
 415:Drivers/STM32F4xx_HAL_Driver/Src/stm32f4xx_ll_usb.c ****   USBx->GINTMSK = 0U;
 962              		.loc 1 415 17
 963 0260 7B68     		ldr	r3, [r7, #4]
 964 0262 0022     		movs	r2, #0
 965 0264 9A61     		str	r2, [r3, #24]
 416:Drivers/STM32F4xx_HAL_Driver/Src/stm32f4xx_ll_usb.c **** 
 417:Drivers/STM32F4xx_HAL_Driver/Src/stm32f4xx_ll_usb.c ****   /* Clear any pending interrupts */
 418:Drivers/STM32F4xx_HAL_Driver/Src/stm32f4xx_ll_usb.c ****   USBx->GINTSTS = 0xBFFFFFFFU;
 966              		.loc 1 418 17
 967 0266 7B68     		ldr	r3, [r7, #4]
 968 0268 6FF08042 		mvn	r2, #1073741824
 969 026c 5A61     		str	r2, [r3, #20]
 419:Drivers/STM32F4xx_HAL_Driver/Src/stm32f4xx_ll_usb.c **** 
 420:Drivers/STM32F4xx_HAL_Driver/Src/stm32f4xx_ll_usb.c ****   /* Enable the common interrupts */
 421:Drivers/STM32F4xx_HAL_Driver/Src/stm32f4xx_ll_usb.c ****   if (cfg.dma_enable == 0U)
 970              		.loc 1 421 10
 971 026e 3B6B     		ldr	r3, [r7, #48]
 972              		.loc 1 421 6
 973 0270 002B     		cmp	r3, #0
 974 0272 05D1     		bne	.L54
 422:Drivers/STM32F4xx_HAL_Driver/Src/stm32f4xx_ll_usb.c ****   {
 423:Drivers/STM32F4xx_HAL_Driver/Src/stm32f4xx_ll_usb.c ****     USBx->GINTMSK |= USB_OTG_GINTMSK_RXFLVLM;
 975              		.loc 1 423 19
 976 0274 7B68     		ldr	r3, [r7, #4]
 977 0276 9B69     		ldr	r3, [r3, #24]
 978 0278 43F01002 		orr	r2, r3, #16
 979 027c 7B68     		ldr	r3, [r7, #4]
 980 027e 9A61     		str	r2, [r3, #24]
 981              	.L54:
 424:Drivers/STM32F4xx_HAL_Driver/Src/stm32f4xx_ll_usb.c ****   }
 425:Drivers/STM32F4xx_HAL_Driver/Src/stm32f4xx_ll_usb.c **** 
 426:Drivers/STM32F4xx_HAL_Driver/Src/stm32f4xx_ll_usb.c ****   /* Enable interrupts matching to the Device mode ONLY */
 427:Drivers/STM32F4xx_HAL_Driver/Src/stm32f4xx_ll_usb.c ****   USBx->GINTMSK |= USB_OTG_GINTMSK_USBSUSPM | USB_OTG_GINTMSK_USBRST |
 982              		.loc 1 427 17
 983 0280 7B68     		ldr	r3, [r7, #4]
 984 0282 9A69     		ldr	r2, [r3, #24]
 985 0284 0F4B     		ldr	r3, .L58
 986 0286 1343     		orrs	r3, r3, r2
 987 0288 7A68     		ldr	r2, [r7, #4]
 988 028a 9361     		str	r3, [r2, #24]
 428:Drivers/STM32F4xx_HAL_Driver/Src/stm32f4xx_ll_usb.c ****                    USB_OTG_GINTMSK_ENUMDNEM | USB_OTG_GINTMSK_IEPINT |
 429:Drivers/STM32F4xx_HAL_Driver/Src/stm32f4xx_ll_usb.c ****                    USB_OTG_GINTMSK_OEPINT   | USB_OTG_GINTMSK_IISOIXFRM |
 430:Drivers/STM32F4xx_HAL_Driver/Src/stm32f4xx_ll_usb.c ****                    USB_OTG_GINTMSK_PXFRM_IISOOXFRM | USB_OTG_GINTMSK_WUIM;
 431:Drivers/STM32F4xx_HAL_Driver/Src/stm32f4xx_ll_usb.c **** 
 432:Drivers/STM32F4xx_HAL_Driver/Src/stm32f4xx_ll_usb.c ****   if (cfg.Sof_enable != 0U)
 989              		.loc 1 432 10
 990 028c FB6B     		ldr	r3, [r7, #60]
 991              		.loc 1 432 6
 992 028e 002B     		cmp	r3, #0
 993 0290 05D0     		beq	.L55
 433:Drivers/STM32F4xx_HAL_Driver/Src/stm32f4xx_ll_usb.c ****   {
 434:Drivers/STM32F4xx_HAL_Driver/Src/stm32f4xx_ll_usb.c ****     USBx->GINTMSK |= USB_OTG_GINTMSK_SOFM;
 994              		.loc 1 434 19
ARM GAS  /var/folders/vq/qt4vp3kd5rxf7v2b6_fdtdt80000gn/T//ccjOke0W.s 			page 26


 995 0292 7B68     		ldr	r3, [r7, #4]
 996 0294 9B69     		ldr	r3, [r3, #24]
 997 0296 43F00802 		orr	r2, r3, #8
 998 029a 7B68     		ldr	r3, [r7, #4]
 999 029c 9A61     		str	r2, [r3, #24]
 1000              	.L55:
 435:Drivers/STM32F4xx_HAL_Driver/Src/stm32f4xx_ll_usb.c ****   }
 436:Drivers/STM32F4xx_HAL_Driver/Src/stm32f4xx_ll_usb.c **** 
 437:Drivers/STM32F4xx_HAL_Driver/Src/stm32f4xx_ll_usb.c ****   if (cfg.vbus_sensing_enable == 1U)
 1001              		.loc 1 437 10
 1002 029e FB6C     		ldr	r3, [r7, #76]
 1003              		.loc 1 437 6
 1004 02a0 012B     		cmp	r3, #1
 1005 02a2 07D1     		bne	.L56
 438:Drivers/STM32F4xx_HAL_Driver/Src/stm32f4xx_ll_usb.c ****   {
 439:Drivers/STM32F4xx_HAL_Driver/Src/stm32f4xx_ll_usb.c ****     USBx->GINTMSK |= (USB_OTG_GINTMSK_SRQIM | USB_OTG_GINTMSK_OTGINT);
 1006              		.loc 1 439 19
 1007 02a4 7B68     		ldr	r3, [r7, #4]
 1008 02a6 9B69     		ldr	r3, [r3, #24]
 1009 02a8 43F08043 		orr	r3, r3, #1073741824
 1010 02ac 43F00403 		orr	r3, r3, #4
 1011 02b0 7A68     		ldr	r2, [r7, #4]
 1012 02b2 9361     		str	r3, [r2, #24]
 1013              	.L56:
 440:Drivers/STM32F4xx_HAL_Driver/Src/stm32f4xx_ll_usb.c ****   }
 441:Drivers/STM32F4xx_HAL_Driver/Src/stm32f4xx_ll_usb.c **** 
 442:Drivers/STM32F4xx_HAL_Driver/Src/stm32f4xx_ll_usb.c ****   return ret;
 1014              		.loc 1 442 10
 1015 02b4 FB7D     		ldrb	r3, [r7, #23]	@ zero_extendqisi2
 443:Drivers/STM32F4xx_HAL_Driver/Src/stm32f4xx_ll_usb.c **** }
 1016              		.loc 1 443 1
 1017 02b6 1846     		mov	r0, r3
 1018 02b8 1837     		adds	r7, r7, #24
 1019              	.LCFI35:
 1020              		.cfi_def_cfa_offset 24
 1021 02ba BD46     		mov	sp, r7
 1022              	.LCFI36:
 1023              		.cfi_def_cfa_register 13
 1024              		@ sp needed
 1025 02bc BDE88040 		pop	{r7, lr}
 1026              	.LCFI37:
 1027              		.cfi_restore 14
 1028              		.cfi_restore 7
 1029              		.cfi_def_cfa_offset 16
 1030 02c0 04B0     		add	sp, sp, #16
 1031              	.LCFI38:
 1032              		.cfi_def_cfa_offset 0
 1033 02c2 7047     		bx	lr
 1034              	.L59:
 1035              		.align	2
 1036              	.L58:
 1037 02c4 00383C80 		.word	-2143537152
 1038              		.cfi_endproc
 1039              	.LFE135:
 1041              		.section	.text.USB_FlushTxFifo,"ax",%progbits
 1042              		.align	1
 1043              		.global	USB_FlushTxFifo
ARM GAS  /var/folders/vq/qt4vp3kd5rxf7v2b6_fdtdt80000gn/T//ccjOke0W.s 			page 27


 1044              		.syntax unified
 1045              		.thumb
 1046              		.thumb_func
 1047              		.fpu fpv4-sp-d16
 1049              	USB_FlushTxFifo:
 1050              	.LFB136:
 444:Drivers/STM32F4xx_HAL_Driver/Src/stm32f4xx_ll_usb.c **** 
 445:Drivers/STM32F4xx_HAL_Driver/Src/stm32f4xx_ll_usb.c **** /**
 446:Drivers/STM32F4xx_HAL_Driver/Src/stm32f4xx_ll_usb.c ****   * @brief  USB_OTG_FlushTxFifo : Flush a Tx FIFO
 447:Drivers/STM32F4xx_HAL_Driver/Src/stm32f4xx_ll_usb.c ****   * @param  USBx  Selected device
 448:Drivers/STM32F4xx_HAL_Driver/Src/stm32f4xx_ll_usb.c ****   * @param  num  FIFO number
 449:Drivers/STM32F4xx_HAL_Driver/Src/stm32f4xx_ll_usb.c ****   *         This parameter can be a value from 1 to 15
 450:Drivers/STM32F4xx_HAL_Driver/Src/stm32f4xx_ll_usb.c ****             15 means Flush all Tx FIFOs
 451:Drivers/STM32F4xx_HAL_Driver/Src/stm32f4xx_ll_usb.c ****   * @retval HAL status
 452:Drivers/STM32F4xx_HAL_Driver/Src/stm32f4xx_ll_usb.c ****   */
 453:Drivers/STM32F4xx_HAL_Driver/Src/stm32f4xx_ll_usb.c **** HAL_StatusTypeDef USB_FlushTxFifo(USB_OTG_GlobalTypeDef *USBx, uint32_t num)
 454:Drivers/STM32F4xx_HAL_Driver/Src/stm32f4xx_ll_usb.c **** {
 1051              		.loc 1 454 1
 1052              		.cfi_startproc
 1053              		@ args = 0, pretend = 0, frame = 16
 1054              		@ frame_needed = 1, uses_anonymous_args = 0
 1055              		@ link register save eliminated.
 1056 0000 80B4     		push	{r7}
 1057              	.LCFI39:
 1058              		.cfi_def_cfa_offset 4
 1059              		.cfi_offset 7, -4
 1060 0002 85B0     		sub	sp, sp, #20
 1061              	.LCFI40:
 1062              		.cfi_def_cfa_offset 24
 1063 0004 00AF     		add	r7, sp, #0
 1064              	.LCFI41:
 1065              		.cfi_def_cfa_register 7
 1066 0006 7860     		str	r0, [r7, #4]
 1067 0008 3960     		str	r1, [r7]
 455:Drivers/STM32F4xx_HAL_Driver/Src/stm32f4xx_ll_usb.c ****   uint32_t count = 0U;
 1068              		.loc 1 455 12
 1069 000a 0023     		movs	r3, #0
 1070 000c FB60     		str	r3, [r7, #12]
 456:Drivers/STM32F4xx_HAL_Driver/Src/stm32f4xx_ll_usb.c **** 
 457:Drivers/STM32F4xx_HAL_Driver/Src/stm32f4xx_ll_usb.c ****   USBx->GRSTCTL = (USB_OTG_GRSTCTL_TXFFLSH | (num << 6));
 1071              		.loc 1 457 51
 1072 000e 3B68     		ldr	r3, [r7]
 1073 0010 9B01     		lsls	r3, r3, #6
 1074              		.loc 1 457 44
 1075 0012 43F02002 		orr	r2, r3, #32
 1076              		.loc 1 457 17
 1077 0016 7B68     		ldr	r3, [r7, #4]
 1078 0018 1A61     		str	r2, [r3, #16]
 1079              	.L63:
 458:Drivers/STM32F4xx_HAL_Driver/Src/stm32f4xx_ll_usb.c **** 
 459:Drivers/STM32F4xx_HAL_Driver/Src/stm32f4xx_ll_usb.c ****   do
 460:Drivers/STM32F4xx_HAL_Driver/Src/stm32f4xx_ll_usb.c ****   {
 461:Drivers/STM32F4xx_HAL_Driver/Src/stm32f4xx_ll_usb.c ****     if (++count > 200000U)
 1080              		.loc 1 461 8
 1081 001a FB68     		ldr	r3, [r7, #12]
 1082 001c 0133     		adds	r3, r3, #1
 1083 001e FB60     		str	r3, [r7, #12]
ARM GAS  /var/folders/vq/qt4vp3kd5rxf7v2b6_fdtdt80000gn/T//ccjOke0W.s 			page 28


 1084 0020 FB68     		ldr	r3, [r7, #12]
 1085 0022 094A     		ldr	r2, .L64
 1086 0024 9342     		cmp	r3, r2
 1087 0026 01D9     		bls	.L61
 462:Drivers/STM32F4xx_HAL_Driver/Src/stm32f4xx_ll_usb.c ****     {
 463:Drivers/STM32F4xx_HAL_Driver/Src/stm32f4xx_ll_usb.c ****       return HAL_TIMEOUT;
 1088              		.loc 1 463 14
 1089 0028 0323     		movs	r3, #3
 1090 002a 06E0     		b	.L62
 1091              	.L61:
 464:Drivers/STM32F4xx_HAL_Driver/Src/stm32f4xx_ll_usb.c ****     }
 465:Drivers/STM32F4xx_HAL_Driver/Src/stm32f4xx_ll_usb.c ****   } while ((USBx->GRSTCTL & USB_OTG_GRSTCTL_TXFFLSH) == USB_OTG_GRSTCTL_TXFFLSH);
 1092              		.loc 1 465 17
 1093 002c 7B68     		ldr	r3, [r7, #4]
 1094 002e 1B69     		ldr	r3, [r3, #16]
 1095              		.loc 1 465 27
 1096 0030 03F02003 		and	r3, r3, #32
 1097              		.loc 1 465 3
 1098 0034 202B     		cmp	r3, #32
 1099 0036 F0D0     		beq	.L63
 466:Drivers/STM32F4xx_HAL_Driver/Src/stm32f4xx_ll_usb.c **** 
 467:Drivers/STM32F4xx_HAL_Driver/Src/stm32f4xx_ll_usb.c ****   return HAL_OK;
 1100              		.loc 1 467 10
 1101 0038 0023     		movs	r3, #0
 1102              	.L62:
 468:Drivers/STM32F4xx_HAL_Driver/Src/stm32f4xx_ll_usb.c **** }
 1103              		.loc 1 468 1
 1104 003a 1846     		mov	r0, r3
 1105 003c 1437     		adds	r7, r7, #20
 1106              	.LCFI42:
 1107              		.cfi_def_cfa_offset 4
 1108 003e BD46     		mov	sp, r7
 1109              	.LCFI43:
 1110              		.cfi_def_cfa_register 13
 1111              		@ sp needed
 1112 0040 5DF8047B 		ldr	r7, [sp], #4
 1113              	.LCFI44:
 1114              		.cfi_restore 7
 1115              		.cfi_def_cfa_offset 0
 1116 0044 7047     		bx	lr
 1117              	.L65:
 1118 0046 00BF     		.align	2
 1119              	.L64:
 1120 0048 400D0300 		.word	200000
 1121              		.cfi_endproc
 1122              	.LFE136:
 1124              		.section	.text.USB_FlushRxFifo,"ax",%progbits
 1125              		.align	1
 1126              		.global	USB_FlushRxFifo
 1127              		.syntax unified
 1128              		.thumb
 1129              		.thumb_func
 1130              		.fpu fpv4-sp-d16
 1132              	USB_FlushRxFifo:
 1133              	.LFB137:
 469:Drivers/STM32F4xx_HAL_Driver/Src/stm32f4xx_ll_usb.c **** 
 470:Drivers/STM32F4xx_HAL_Driver/Src/stm32f4xx_ll_usb.c **** /**
ARM GAS  /var/folders/vq/qt4vp3kd5rxf7v2b6_fdtdt80000gn/T//ccjOke0W.s 			page 29


 471:Drivers/STM32F4xx_HAL_Driver/Src/stm32f4xx_ll_usb.c ****   * @brief  USB_FlushRxFifo : Flush Rx FIFO
 472:Drivers/STM32F4xx_HAL_Driver/Src/stm32f4xx_ll_usb.c ****   * @param  USBx  Selected device
 473:Drivers/STM32F4xx_HAL_Driver/Src/stm32f4xx_ll_usb.c ****   * @retval HAL status
 474:Drivers/STM32F4xx_HAL_Driver/Src/stm32f4xx_ll_usb.c ****   */
 475:Drivers/STM32F4xx_HAL_Driver/Src/stm32f4xx_ll_usb.c **** HAL_StatusTypeDef USB_FlushRxFifo(USB_OTG_GlobalTypeDef *USBx)
 476:Drivers/STM32F4xx_HAL_Driver/Src/stm32f4xx_ll_usb.c **** {
 1134              		.loc 1 476 1
 1135              		.cfi_startproc
 1136              		@ args = 0, pretend = 0, frame = 16
 1137              		@ frame_needed = 1, uses_anonymous_args = 0
 1138              		@ link register save eliminated.
 1139 0000 80B4     		push	{r7}
 1140              	.LCFI45:
 1141              		.cfi_def_cfa_offset 4
 1142              		.cfi_offset 7, -4
 1143 0002 85B0     		sub	sp, sp, #20
 1144              	.LCFI46:
 1145              		.cfi_def_cfa_offset 24
 1146 0004 00AF     		add	r7, sp, #0
 1147              	.LCFI47:
 1148              		.cfi_def_cfa_register 7
 1149 0006 7860     		str	r0, [r7, #4]
 477:Drivers/STM32F4xx_HAL_Driver/Src/stm32f4xx_ll_usb.c ****   uint32_t count = 0;
 1150              		.loc 1 477 12
 1151 0008 0023     		movs	r3, #0
 1152 000a FB60     		str	r3, [r7, #12]
 478:Drivers/STM32F4xx_HAL_Driver/Src/stm32f4xx_ll_usb.c **** 
 479:Drivers/STM32F4xx_HAL_Driver/Src/stm32f4xx_ll_usb.c ****   USBx->GRSTCTL = USB_OTG_GRSTCTL_RXFFLSH;
 1153              		.loc 1 479 17
 1154 000c 7B68     		ldr	r3, [r7, #4]
 1155 000e 1022     		movs	r2, #16
 1156 0010 1A61     		str	r2, [r3, #16]
 1157              	.L69:
 480:Drivers/STM32F4xx_HAL_Driver/Src/stm32f4xx_ll_usb.c **** 
 481:Drivers/STM32F4xx_HAL_Driver/Src/stm32f4xx_ll_usb.c ****   do
 482:Drivers/STM32F4xx_HAL_Driver/Src/stm32f4xx_ll_usb.c ****   {
 483:Drivers/STM32F4xx_HAL_Driver/Src/stm32f4xx_ll_usb.c ****     if (++count > 200000U)
 1158              		.loc 1 483 8
 1159 0012 FB68     		ldr	r3, [r7, #12]
 1160 0014 0133     		adds	r3, r3, #1
 1161 0016 FB60     		str	r3, [r7, #12]
 1162 0018 FB68     		ldr	r3, [r7, #12]
 1163 001a 094A     		ldr	r2, .L70
 1164 001c 9342     		cmp	r3, r2
 1165 001e 01D9     		bls	.L67
 484:Drivers/STM32F4xx_HAL_Driver/Src/stm32f4xx_ll_usb.c ****     {
 485:Drivers/STM32F4xx_HAL_Driver/Src/stm32f4xx_ll_usb.c ****       return HAL_TIMEOUT;
 1166              		.loc 1 485 14
 1167 0020 0323     		movs	r3, #3
 1168 0022 06E0     		b	.L68
 1169              	.L67:
 486:Drivers/STM32F4xx_HAL_Driver/Src/stm32f4xx_ll_usb.c ****     }
 487:Drivers/STM32F4xx_HAL_Driver/Src/stm32f4xx_ll_usb.c ****   } while ((USBx->GRSTCTL & USB_OTG_GRSTCTL_RXFFLSH) == USB_OTG_GRSTCTL_RXFFLSH);
 1170              		.loc 1 487 17
 1171 0024 7B68     		ldr	r3, [r7, #4]
 1172 0026 1B69     		ldr	r3, [r3, #16]
 1173              		.loc 1 487 27
ARM GAS  /var/folders/vq/qt4vp3kd5rxf7v2b6_fdtdt80000gn/T//ccjOke0W.s 			page 30


 1174 0028 03F01003 		and	r3, r3, #16
 1175              		.loc 1 487 3
 1176 002c 102B     		cmp	r3, #16
 1177 002e F0D0     		beq	.L69
 488:Drivers/STM32F4xx_HAL_Driver/Src/stm32f4xx_ll_usb.c **** 
 489:Drivers/STM32F4xx_HAL_Driver/Src/stm32f4xx_ll_usb.c ****   return HAL_OK;
 1178              		.loc 1 489 10
 1179 0030 0023     		movs	r3, #0
 1180              	.L68:
 490:Drivers/STM32F4xx_HAL_Driver/Src/stm32f4xx_ll_usb.c **** }
 1181              		.loc 1 490 1
 1182 0032 1846     		mov	r0, r3
 1183 0034 1437     		adds	r7, r7, #20
 1184              	.LCFI48:
 1185              		.cfi_def_cfa_offset 4
 1186 0036 BD46     		mov	sp, r7
 1187              	.LCFI49:
 1188              		.cfi_def_cfa_register 13
 1189              		@ sp needed
 1190 0038 5DF8047B 		ldr	r7, [sp], #4
 1191              	.LCFI50:
 1192              		.cfi_restore 7
 1193              		.cfi_def_cfa_offset 0
 1194 003c 7047     		bx	lr
 1195              	.L71:
 1196 003e 00BF     		.align	2
 1197              	.L70:
 1198 0040 400D0300 		.word	200000
 1199              		.cfi_endproc
 1200              	.LFE137:
 1202              		.section	.text.USB_SetDevSpeed,"ax",%progbits
 1203              		.align	1
 1204              		.global	USB_SetDevSpeed
 1205              		.syntax unified
 1206              		.thumb
 1207              		.thumb_func
 1208              		.fpu fpv4-sp-d16
 1210              	USB_SetDevSpeed:
 1211              	.LFB138:
 491:Drivers/STM32F4xx_HAL_Driver/Src/stm32f4xx_ll_usb.c **** 
 492:Drivers/STM32F4xx_HAL_Driver/Src/stm32f4xx_ll_usb.c **** /**
 493:Drivers/STM32F4xx_HAL_Driver/Src/stm32f4xx_ll_usb.c ****   * @brief  USB_SetDevSpeed  Initializes the DevSpd field of DCFG register
 494:Drivers/STM32F4xx_HAL_Driver/Src/stm32f4xx_ll_usb.c ****   *         depending the PHY type and the enumeration speed of the device.
 495:Drivers/STM32F4xx_HAL_Driver/Src/stm32f4xx_ll_usb.c ****   * @param  USBx  Selected device
 496:Drivers/STM32F4xx_HAL_Driver/Src/stm32f4xx_ll_usb.c ****   * @param  speed  device speed
 497:Drivers/STM32F4xx_HAL_Driver/Src/stm32f4xx_ll_usb.c ****   *          This parameter can be one of these values:
 498:Drivers/STM32F4xx_HAL_Driver/Src/stm32f4xx_ll_usb.c ****   *            @arg USB_OTG_SPEED_HIGH: High speed mode
 499:Drivers/STM32F4xx_HAL_Driver/Src/stm32f4xx_ll_usb.c ****   *            @arg USB_OTG_SPEED_HIGH_IN_FULL: High speed core in Full Speed mode
 500:Drivers/STM32F4xx_HAL_Driver/Src/stm32f4xx_ll_usb.c ****   *            @arg USB_OTG_SPEED_FULL: Full speed mode
 501:Drivers/STM32F4xx_HAL_Driver/Src/stm32f4xx_ll_usb.c ****   * @retval  Hal status
 502:Drivers/STM32F4xx_HAL_Driver/Src/stm32f4xx_ll_usb.c ****   */
 503:Drivers/STM32F4xx_HAL_Driver/Src/stm32f4xx_ll_usb.c **** HAL_StatusTypeDef USB_SetDevSpeed(USB_OTG_GlobalTypeDef *USBx, uint8_t speed)
 504:Drivers/STM32F4xx_HAL_Driver/Src/stm32f4xx_ll_usb.c **** {
 1212              		.loc 1 504 1
 1213              		.cfi_startproc
 1214              		@ args = 0, pretend = 0, frame = 16
 1215              		@ frame_needed = 1, uses_anonymous_args = 0
ARM GAS  /var/folders/vq/qt4vp3kd5rxf7v2b6_fdtdt80000gn/T//ccjOke0W.s 			page 31


 1216              		@ link register save eliminated.
 1217 0000 80B4     		push	{r7}
 1218              	.LCFI51:
 1219              		.cfi_def_cfa_offset 4
 1220              		.cfi_offset 7, -4
 1221 0002 85B0     		sub	sp, sp, #20
 1222              	.LCFI52:
 1223              		.cfi_def_cfa_offset 24
 1224 0004 00AF     		add	r7, sp, #0
 1225              	.LCFI53:
 1226              		.cfi_def_cfa_register 7
 1227 0006 7860     		str	r0, [r7, #4]
 1228 0008 0B46     		mov	r3, r1
 1229 000a FB70     		strb	r3, [r7, #3]
 505:Drivers/STM32F4xx_HAL_Driver/Src/stm32f4xx_ll_usb.c ****   uint32_t USBx_BASE = (uint32_t)USBx;
 1230              		.loc 1 505 12
 1231 000c 7B68     		ldr	r3, [r7, #4]
 1232 000e FB60     		str	r3, [r7, #12]
 506:Drivers/STM32F4xx_HAL_Driver/Src/stm32f4xx_ll_usb.c **** 
 507:Drivers/STM32F4xx_HAL_Driver/Src/stm32f4xx_ll_usb.c ****   USBx_DEVICE->DCFG |= speed;
 1233              		.loc 1 507 21
 1234 0010 FB68     		ldr	r3, [r7, #12]
 1235 0012 03F50063 		add	r3, r3, #2048
 1236 0016 1A68     		ldr	r2, [r3]
 1237 0018 FB78     		ldrb	r3, [r7, #3]	@ zero_extendqisi2
 1238 001a F968     		ldr	r1, [r7, #12]
 1239 001c 01F50061 		add	r1, r1, #2048
 1240 0020 1343     		orrs	r3, r3, r2
 1241 0022 0B60     		str	r3, [r1]
 508:Drivers/STM32F4xx_HAL_Driver/Src/stm32f4xx_ll_usb.c ****   return HAL_OK;
 1242              		.loc 1 508 10
 1243 0024 0023     		movs	r3, #0
 509:Drivers/STM32F4xx_HAL_Driver/Src/stm32f4xx_ll_usb.c **** }
 1244              		.loc 1 509 1
 1245 0026 1846     		mov	r0, r3
 1246 0028 1437     		adds	r7, r7, #20
 1247              	.LCFI54:
 1248              		.cfi_def_cfa_offset 4
 1249 002a BD46     		mov	sp, r7
 1250              	.LCFI55:
 1251              		.cfi_def_cfa_register 13
 1252              		@ sp needed
 1253 002c 5DF8047B 		ldr	r7, [sp], #4
 1254              	.LCFI56:
 1255              		.cfi_restore 7
 1256              		.cfi_def_cfa_offset 0
 1257 0030 7047     		bx	lr
 1258              		.cfi_endproc
 1259              	.LFE138:
 1261              		.section	.text.USB_GetDevSpeed,"ax",%progbits
 1262              		.align	1
 1263              		.global	USB_GetDevSpeed
 1264              		.syntax unified
 1265              		.thumb
 1266              		.thumb_func
 1267              		.fpu fpv4-sp-d16
 1269              	USB_GetDevSpeed:
ARM GAS  /var/folders/vq/qt4vp3kd5rxf7v2b6_fdtdt80000gn/T//ccjOke0W.s 			page 32


 1270              	.LFB139:
 510:Drivers/STM32F4xx_HAL_Driver/Src/stm32f4xx_ll_usb.c **** 
 511:Drivers/STM32F4xx_HAL_Driver/Src/stm32f4xx_ll_usb.c **** /**
 512:Drivers/STM32F4xx_HAL_Driver/Src/stm32f4xx_ll_usb.c ****   * @brief  USB_GetDevSpeed  Return the Dev Speed
 513:Drivers/STM32F4xx_HAL_Driver/Src/stm32f4xx_ll_usb.c ****   * @param  USBx  Selected device
 514:Drivers/STM32F4xx_HAL_Driver/Src/stm32f4xx_ll_usb.c ****   * @retval speed  device speed
 515:Drivers/STM32F4xx_HAL_Driver/Src/stm32f4xx_ll_usb.c ****   *          This parameter can be one of these values:
 516:Drivers/STM32F4xx_HAL_Driver/Src/stm32f4xx_ll_usb.c ****   *            @arg USBD_HS_SPEED: High speed mode
 517:Drivers/STM32F4xx_HAL_Driver/Src/stm32f4xx_ll_usb.c ****   *            @arg USBD_FS_SPEED: Full speed mode
 518:Drivers/STM32F4xx_HAL_Driver/Src/stm32f4xx_ll_usb.c ****   */
 519:Drivers/STM32F4xx_HAL_Driver/Src/stm32f4xx_ll_usb.c **** uint8_t USB_GetDevSpeed(USB_OTG_GlobalTypeDef *USBx)
 520:Drivers/STM32F4xx_HAL_Driver/Src/stm32f4xx_ll_usb.c **** {
 1271              		.loc 1 520 1
 1272              		.cfi_startproc
 1273              		@ args = 0, pretend = 0, frame = 24
 1274              		@ frame_needed = 1, uses_anonymous_args = 0
 1275              		@ link register save eliminated.
 1276 0000 80B4     		push	{r7}
 1277              	.LCFI57:
 1278              		.cfi_def_cfa_offset 4
 1279              		.cfi_offset 7, -4
 1280 0002 87B0     		sub	sp, sp, #28
 1281              	.LCFI58:
 1282              		.cfi_def_cfa_offset 32
 1283 0004 00AF     		add	r7, sp, #0
 1284              	.LCFI59:
 1285              		.cfi_def_cfa_register 7
 1286 0006 7860     		str	r0, [r7, #4]
 521:Drivers/STM32F4xx_HAL_Driver/Src/stm32f4xx_ll_usb.c ****   uint32_t USBx_BASE = (uint32_t)USBx;
 1287              		.loc 1 521 12
 1288 0008 7B68     		ldr	r3, [r7, #4]
 1289 000a 3B61     		str	r3, [r7, #16]
 522:Drivers/STM32F4xx_HAL_Driver/Src/stm32f4xx_ll_usb.c ****   uint8_t speed;
 523:Drivers/STM32F4xx_HAL_Driver/Src/stm32f4xx_ll_usb.c ****   uint32_t DevEnumSpeed = USBx_DEVICE->DSTS & USB_OTG_DSTS_ENUMSPD;
 1290              		.loc 1 523 27
 1291 000c 3B69     		ldr	r3, [r7, #16]
 1292 000e 03F50063 		add	r3, r3, #2048
 1293              		.loc 1 523 38
 1294 0012 9B68     		ldr	r3, [r3, #8]
 1295              		.loc 1 523 12
 1296 0014 03F00603 		and	r3, r3, #6
 1297 0018 FB60     		str	r3, [r7, #12]
 524:Drivers/STM32F4xx_HAL_Driver/Src/stm32f4xx_ll_usb.c **** 
 525:Drivers/STM32F4xx_HAL_Driver/Src/stm32f4xx_ll_usb.c ****   if (DevEnumSpeed == DSTS_ENUMSPD_HS_PHY_30MHZ_OR_60MHZ)
 1298              		.loc 1 525 6
 1299 001a FB68     		ldr	r3, [r7, #12]
 1300 001c 002B     		cmp	r3, #0
 1301 001e 02D1     		bne	.L75
 526:Drivers/STM32F4xx_HAL_Driver/Src/stm32f4xx_ll_usb.c ****   {
 527:Drivers/STM32F4xx_HAL_Driver/Src/stm32f4xx_ll_usb.c ****     speed = USBD_HS_SPEED;
 1302              		.loc 1 527 11
 1303 0020 0023     		movs	r3, #0
 1304 0022 FB75     		strb	r3, [r7, #23]
 1305 0024 0AE0     		b	.L76
 1306              	.L75:
 528:Drivers/STM32F4xx_HAL_Driver/Src/stm32f4xx_ll_usb.c ****   }
 529:Drivers/STM32F4xx_HAL_Driver/Src/stm32f4xx_ll_usb.c ****   else if ((DevEnumSpeed == DSTS_ENUMSPD_FS_PHY_30MHZ_OR_60MHZ) ||
ARM GAS  /var/folders/vq/qt4vp3kd5rxf7v2b6_fdtdt80000gn/T//ccjOke0W.s 			page 33


 1307              		.loc 1 529 11
 1308 0026 FB68     		ldr	r3, [r7, #12]
 1309 0028 022B     		cmp	r3, #2
 1310 002a 02D0     		beq	.L77
 1311              		.loc 1 529 65 discriminator 1
 1312 002c FB68     		ldr	r3, [r7, #12]
 1313 002e 062B     		cmp	r3, #6
 1314 0030 02D1     		bne	.L78
 1315              	.L77:
 530:Drivers/STM32F4xx_HAL_Driver/Src/stm32f4xx_ll_usb.c ****            (DevEnumSpeed == DSTS_ENUMSPD_FS_PHY_48MHZ))
 531:Drivers/STM32F4xx_HAL_Driver/Src/stm32f4xx_ll_usb.c ****   {
 532:Drivers/STM32F4xx_HAL_Driver/Src/stm32f4xx_ll_usb.c ****     speed = USBD_FS_SPEED;
 1316              		.loc 1 532 11
 1317 0032 0223     		movs	r3, #2
 1318 0034 FB75     		strb	r3, [r7, #23]
 1319 0036 01E0     		b	.L76
 1320              	.L78:
 533:Drivers/STM32F4xx_HAL_Driver/Src/stm32f4xx_ll_usb.c ****   }
 534:Drivers/STM32F4xx_HAL_Driver/Src/stm32f4xx_ll_usb.c ****   else
 535:Drivers/STM32F4xx_HAL_Driver/Src/stm32f4xx_ll_usb.c ****   {
 536:Drivers/STM32F4xx_HAL_Driver/Src/stm32f4xx_ll_usb.c ****     speed = 0xFU;
 1321              		.loc 1 536 11
 1322 0038 0F23     		movs	r3, #15
 1323 003a FB75     		strb	r3, [r7, #23]
 1324              	.L76:
 537:Drivers/STM32F4xx_HAL_Driver/Src/stm32f4xx_ll_usb.c ****   }
 538:Drivers/STM32F4xx_HAL_Driver/Src/stm32f4xx_ll_usb.c **** 
 539:Drivers/STM32F4xx_HAL_Driver/Src/stm32f4xx_ll_usb.c ****   return speed;
 1325              		.loc 1 539 10
 1326 003c FB7D     		ldrb	r3, [r7, #23]	@ zero_extendqisi2
 540:Drivers/STM32F4xx_HAL_Driver/Src/stm32f4xx_ll_usb.c **** }
 1327              		.loc 1 540 1
 1328 003e 1846     		mov	r0, r3
 1329 0040 1C37     		adds	r7, r7, #28
 1330              	.LCFI60:
 1331              		.cfi_def_cfa_offset 4
 1332 0042 BD46     		mov	sp, r7
 1333              	.LCFI61:
 1334              		.cfi_def_cfa_register 13
 1335              		@ sp needed
 1336 0044 5DF8047B 		ldr	r7, [sp], #4
 1337              	.LCFI62:
 1338              		.cfi_restore 7
 1339              		.cfi_def_cfa_offset 0
 1340 0048 7047     		bx	lr
 1341              		.cfi_endproc
 1342              	.LFE139:
 1344              		.section	.text.USB_ActivateEndpoint,"ax",%progbits
 1345              		.align	1
 1346              		.global	USB_ActivateEndpoint
 1347              		.syntax unified
 1348              		.thumb
 1349              		.thumb_func
 1350              		.fpu fpv4-sp-d16
 1352              	USB_ActivateEndpoint:
 1353              	.LFB140:
 541:Drivers/STM32F4xx_HAL_Driver/Src/stm32f4xx_ll_usb.c **** 
ARM GAS  /var/folders/vq/qt4vp3kd5rxf7v2b6_fdtdt80000gn/T//ccjOke0W.s 			page 34


 542:Drivers/STM32F4xx_HAL_Driver/Src/stm32f4xx_ll_usb.c **** /**
 543:Drivers/STM32F4xx_HAL_Driver/Src/stm32f4xx_ll_usb.c ****   * @brief  Activate and configure an endpoint
 544:Drivers/STM32F4xx_HAL_Driver/Src/stm32f4xx_ll_usb.c ****   * @param  USBx  Selected device
 545:Drivers/STM32F4xx_HAL_Driver/Src/stm32f4xx_ll_usb.c ****   * @param  ep pointer to endpoint structure
 546:Drivers/STM32F4xx_HAL_Driver/Src/stm32f4xx_ll_usb.c ****   * @retval HAL status
 547:Drivers/STM32F4xx_HAL_Driver/Src/stm32f4xx_ll_usb.c ****   */
 548:Drivers/STM32F4xx_HAL_Driver/Src/stm32f4xx_ll_usb.c **** HAL_StatusTypeDef USB_ActivateEndpoint(USB_OTG_GlobalTypeDef *USBx, USB_OTG_EPTypeDef *ep)
 549:Drivers/STM32F4xx_HAL_Driver/Src/stm32f4xx_ll_usb.c **** {
 1354              		.loc 1 549 1
 1355              		.cfi_startproc
 1356              		@ args = 0, pretend = 0, frame = 16
 1357              		@ frame_needed = 1, uses_anonymous_args = 0
 1358              		@ link register save eliminated.
 1359 0000 80B4     		push	{r7}
 1360              	.LCFI63:
 1361              		.cfi_def_cfa_offset 4
 1362              		.cfi_offset 7, -4
 1363 0002 85B0     		sub	sp, sp, #20
 1364              	.LCFI64:
 1365              		.cfi_def_cfa_offset 24
 1366 0004 00AF     		add	r7, sp, #0
 1367              	.LCFI65:
 1368              		.cfi_def_cfa_register 7
 1369 0006 7860     		str	r0, [r7, #4]
 1370 0008 3960     		str	r1, [r7]
 550:Drivers/STM32F4xx_HAL_Driver/Src/stm32f4xx_ll_usb.c ****   uint32_t USBx_BASE = (uint32_t)USBx;
 1371              		.loc 1 550 12
 1372 000a 7B68     		ldr	r3, [r7, #4]
 1373 000c FB60     		str	r3, [r7, #12]
 551:Drivers/STM32F4xx_HAL_Driver/Src/stm32f4xx_ll_usb.c ****   uint32_t epnum = (uint32_t)ep->num;
 1374              		.loc 1 551 32
 1375 000e 3B68     		ldr	r3, [r7]
 1376 0010 1B78     		ldrb	r3, [r3]	@ zero_extendqisi2
 1377              		.loc 1 551 12
 1378 0012 BB60     		str	r3, [r7, #8]
 552:Drivers/STM32F4xx_HAL_Driver/Src/stm32f4xx_ll_usb.c **** 
 553:Drivers/STM32F4xx_HAL_Driver/Src/stm32f4xx_ll_usb.c ****   if (ep->is_in == 1U)
 1379              		.loc 1 553 9
 1380 0014 3B68     		ldr	r3, [r7]
 1381 0016 5B78     		ldrb	r3, [r3, #1]	@ zero_extendqisi2
 1382              		.loc 1 553 6
 1383 0018 012B     		cmp	r3, #1
 1384 001a 3AD1     		bne	.L81
 554:Drivers/STM32F4xx_HAL_Driver/Src/stm32f4xx_ll_usb.c ****   {
 555:Drivers/STM32F4xx_HAL_Driver/Src/stm32f4xx_ll_usb.c ****     USBx_DEVICE->DAINTMSK |= USB_OTG_DAINTMSK_IEPM & (uint32_t)(1UL << (ep->num & EP_ADDR_MSK));
 1385              		.loc 1 555 27
 1386 001c FB68     		ldr	r3, [r7, #12]
 1387 001e 03F50063 		add	r3, r3, #2048
 1388 0022 DA69     		ldr	r2, [r3, #28]
 1389              		.loc 1 555 75
 1390 0024 3B68     		ldr	r3, [r7]
 1391 0026 1B78     		ldrb	r3, [r3]	@ zero_extendqisi2
 1392              		.loc 1 555 81
 1393 0028 03F00F03 		and	r3, r3, #15
 1394              		.loc 1 555 54
 1395 002c 0121     		movs	r1, #1
 1396 002e 01FA03F3 		lsl	r3, r1, r3
ARM GAS  /var/folders/vq/qt4vp3kd5rxf7v2b6_fdtdt80000gn/T//ccjOke0W.s 			page 35


 1397              		.loc 1 555 52
 1398 0032 9BB2     		uxth	r3, r3
 1399              		.loc 1 555 27
 1400 0034 F968     		ldr	r1, [r7, #12]
 1401 0036 01F50061 		add	r1, r1, #2048
 1402 003a 1343     		orrs	r3, r3, r2
 1403 003c CB61     		str	r3, [r1, #28]
 556:Drivers/STM32F4xx_HAL_Driver/Src/stm32f4xx_ll_usb.c **** 
 557:Drivers/STM32F4xx_HAL_Driver/Src/stm32f4xx_ll_usb.c ****     if ((USBx_INEP(epnum)->DIEPCTL & USB_OTG_DIEPCTL_USBAEP) == 0U)
 1404              		.loc 1 557 10
 1405 003e BB68     		ldr	r3, [r7, #8]
 1406 0040 5A01     		lsls	r2, r3, #5
 1407 0042 FB68     		ldr	r3, [r7, #12]
 1408 0044 1344     		add	r3, r3, r2
 1409 0046 03F51063 		add	r3, r3, #2304
 1410              		.loc 1 557 26
 1411 004a 1B68     		ldr	r3, [r3]
 1412              		.loc 1 557 36
 1413 004c 03F40043 		and	r3, r3, #32768
 1414              		.loc 1 557 8
 1415 0050 002B     		cmp	r3, #0
 1416 0052 55D1     		bne	.L82
 558:Drivers/STM32F4xx_HAL_Driver/Src/stm32f4xx_ll_usb.c ****     {
 559:Drivers/STM32F4xx_HAL_Driver/Src/stm32f4xx_ll_usb.c ****       USBx_INEP(epnum)->DIEPCTL |= (ep->maxpacket & USB_OTG_DIEPCTL_MPSIZ) |
 1417              		.loc 1 559 33
 1418 0054 BB68     		ldr	r3, [r7, #8]
 1419 0056 5A01     		lsls	r2, r3, #5
 1420 0058 FB68     		ldr	r3, [r7, #12]
 1421 005a 1344     		add	r3, r3, r2
 1422 005c 03F51063 		add	r3, r3, #2304
 1423 0060 1A68     		ldr	r2, [r3]
 1424              		.loc 1 559 39
 1425 0062 3B68     		ldr	r3, [r7]
 1426 0064 9B68     		ldr	r3, [r3, #8]
 1427              		.loc 1 559 51
 1428 0066 C3F30A01 		ubfx	r1, r3, #0, #11
 560:Drivers/STM32F4xx_HAL_Driver/Src/stm32f4xx_ll_usb.c ****                                    ((uint32_t)ep->type << 18) | (epnum << 22) |
 1429              		.loc 1 560 49
 1430 006a 3B68     		ldr	r3, [r7]
 1431 006c DB78     		ldrb	r3, [r3, #3]	@ zero_extendqisi2
 1432              		.loc 1 560 56
 1433 006e 9B04     		lsls	r3, r3, #18
 559:Drivers/STM32F4xx_HAL_Driver/Src/stm32f4xx_ll_usb.c ****                                    ((uint32_t)ep->type << 18) | (epnum << 22) |
 1434              		.loc 1 559 76
 1435 0070 1943     		orrs	r1, r1, r3
 1436              		.loc 1 560 72
 1437 0072 BB68     		ldr	r3, [r7, #8]
 1438 0074 9B05     		lsls	r3, r3, #22
 1439              		.loc 1 560 63
 1440 0076 0B43     		orrs	r3, r3, r1
 559:Drivers/STM32F4xx_HAL_Driver/Src/stm32f4xx_ll_usb.c ****                                    ((uint32_t)ep->type << 18) | (epnum << 22) |
 1441              		.loc 1 559 33
 1442 0078 1343     		orrs	r3, r3, r2
 1443 007a BA68     		ldr	r2, [r7, #8]
 1444 007c 5101     		lsls	r1, r2, #5
 1445 007e FA68     		ldr	r2, [r7, #12]
 1446 0080 0A44     		add	r2, r2, r1
ARM GAS  /var/folders/vq/qt4vp3kd5rxf7v2b6_fdtdt80000gn/T//ccjOke0W.s 			page 36


 1447 0082 02F51062 		add	r2, r2, #2304
 1448 0086 43F08053 		orr	r3, r3, #268435456
 1449 008a 43F40043 		orr	r3, r3, #32768
 1450 008e 1360     		str	r3, [r2]
 1451 0090 36E0     		b	.L82
 1452              	.L81:
 561:Drivers/STM32F4xx_HAL_Driver/Src/stm32f4xx_ll_usb.c ****                                    USB_OTG_DIEPCTL_SD0PID_SEVNFRM |
 562:Drivers/STM32F4xx_HAL_Driver/Src/stm32f4xx_ll_usb.c ****                                    USB_OTG_DIEPCTL_USBAEP;
 563:Drivers/STM32F4xx_HAL_Driver/Src/stm32f4xx_ll_usb.c ****     }
 564:Drivers/STM32F4xx_HAL_Driver/Src/stm32f4xx_ll_usb.c ****   }
 565:Drivers/STM32F4xx_HAL_Driver/Src/stm32f4xx_ll_usb.c ****   else
 566:Drivers/STM32F4xx_HAL_Driver/Src/stm32f4xx_ll_usb.c ****   {
 567:Drivers/STM32F4xx_HAL_Driver/Src/stm32f4xx_ll_usb.c ****     USBx_DEVICE->DAINTMSK |= USB_OTG_DAINTMSK_OEPM & ((uint32_t)(1UL << (ep->num & EP_ADDR_MSK)) <<
 1453              		.loc 1 567 27
 1454 0092 FB68     		ldr	r3, [r7, #12]
 1455 0094 03F50063 		add	r3, r3, #2048
 1456 0098 DA69     		ldr	r2, [r3, #28]
 1457              		.loc 1 567 76
 1458 009a 3B68     		ldr	r3, [r7]
 1459 009c 1B78     		ldrb	r3, [r3]	@ zero_extendqisi2
 1460              		.loc 1 567 82
 1461 009e 03F00F03 		and	r3, r3, #15
 1462              		.loc 1 567 55
 1463 00a2 0121     		movs	r1, #1
 1464 00a4 01FA03F3 		lsl	r3, r1, r3
 1465              		.loc 1 567 52
 1466 00a8 1B04     		lsls	r3, r3, #16
 1467              		.loc 1 567 27
 1468 00aa F968     		ldr	r1, [r7, #12]
 1469 00ac 01F50061 		add	r1, r1, #2048
 1470 00b0 1343     		orrs	r3, r3, r2
 1471 00b2 CB61     		str	r3, [r1, #28]
 568:Drivers/STM32F4xx_HAL_Driver/Src/stm32f4xx_ll_usb.c **** 
 569:Drivers/STM32F4xx_HAL_Driver/Src/stm32f4xx_ll_usb.c ****     if (((USBx_OUTEP(epnum)->DOEPCTL) & USB_OTG_DOEPCTL_USBAEP) == 0U)
 1472              		.loc 1 569 11
 1473 00b4 BB68     		ldr	r3, [r7, #8]
 1474 00b6 5A01     		lsls	r2, r3, #5
 1475 00b8 FB68     		ldr	r3, [r7, #12]
 1476 00ba 1344     		add	r3, r3, r2
 1477 00bc 03F53063 		add	r3, r3, #2816
 1478              		.loc 1 569 28
 1479 00c0 1B68     		ldr	r3, [r3]
 1480              		.loc 1 569 39
 1481 00c2 03F40043 		and	r3, r3, #32768
 1482              		.loc 1 569 8
 1483 00c6 002B     		cmp	r3, #0
 1484 00c8 1AD1     		bne	.L82
 570:Drivers/STM32F4xx_HAL_Driver/Src/stm32f4xx_ll_usb.c ****     {
 571:Drivers/STM32F4xx_HAL_Driver/Src/stm32f4xx_ll_usb.c ****       USBx_OUTEP(epnum)->DOEPCTL |= (ep->maxpacket & USB_OTG_DOEPCTL_MPSIZ) |
 1485              		.loc 1 571 34
 1486 00ca BB68     		ldr	r3, [r7, #8]
 1487 00cc 5A01     		lsls	r2, r3, #5
 1488 00ce FB68     		ldr	r3, [r7, #12]
 1489 00d0 1344     		add	r3, r3, r2
 1490 00d2 03F53063 		add	r3, r3, #2816
 1491 00d6 1A68     		ldr	r2, [r3]
 1492              		.loc 1 571 40
ARM GAS  /var/folders/vq/qt4vp3kd5rxf7v2b6_fdtdt80000gn/T//ccjOke0W.s 			page 37


 1493 00d8 3B68     		ldr	r3, [r7]
 1494 00da 9B68     		ldr	r3, [r3, #8]
 1495              		.loc 1 571 52
 1496 00dc C3F30A01 		ubfx	r1, r3, #0, #11
 572:Drivers/STM32F4xx_HAL_Driver/Src/stm32f4xx_ll_usb.c ****                                     ((uint32_t)ep->type << 18) |
 1497              		.loc 1 572 50
 1498 00e0 3B68     		ldr	r3, [r7]
 1499 00e2 DB78     		ldrb	r3, [r3, #3]	@ zero_extendqisi2
 1500              		.loc 1 572 57
 1501 00e4 9B04     		lsls	r3, r3, #18
 571:Drivers/STM32F4xx_HAL_Driver/Src/stm32f4xx_ll_usb.c ****                                     ((uint32_t)ep->type << 18) |
 1502              		.loc 1 571 77
 1503 00e6 0B43     		orrs	r3, r3, r1
 571:Drivers/STM32F4xx_HAL_Driver/Src/stm32f4xx_ll_usb.c ****                                     ((uint32_t)ep->type << 18) |
 1504              		.loc 1 571 34
 1505 00e8 1343     		orrs	r3, r3, r2
 1506 00ea BA68     		ldr	r2, [r7, #8]
 1507 00ec 5101     		lsls	r1, r2, #5
 1508 00ee FA68     		ldr	r2, [r7, #12]
 1509 00f0 0A44     		add	r2, r2, r1
 1510 00f2 02F53062 		add	r2, r2, #2816
 1511 00f6 43F08053 		orr	r3, r3, #268435456
 1512 00fa 43F40043 		orr	r3, r3, #32768
 1513 00fe 1360     		str	r3, [r2]
 1514              	.L82:
 573:Drivers/STM32F4xx_HAL_Driver/Src/stm32f4xx_ll_usb.c ****                                     USB_OTG_DIEPCTL_SD0PID_SEVNFRM |
 574:Drivers/STM32F4xx_HAL_Driver/Src/stm32f4xx_ll_usb.c ****                                     USB_OTG_DOEPCTL_USBAEP;
 575:Drivers/STM32F4xx_HAL_Driver/Src/stm32f4xx_ll_usb.c ****     }
 576:Drivers/STM32F4xx_HAL_Driver/Src/stm32f4xx_ll_usb.c ****   }
 577:Drivers/STM32F4xx_HAL_Driver/Src/stm32f4xx_ll_usb.c ****   return HAL_OK;
 1515              		.loc 1 577 10
 1516 0100 0023     		movs	r3, #0
 578:Drivers/STM32F4xx_HAL_Driver/Src/stm32f4xx_ll_usb.c **** }
 1517              		.loc 1 578 1
 1518 0102 1846     		mov	r0, r3
 1519 0104 1437     		adds	r7, r7, #20
 1520              	.LCFI66:
 1521              		.cfi_def_cfa_offset 4
 1522 0106 BD46     		mov	sp, r7
 1523              	.LCFI67:
 1524              		.cfi_def_cfa_register 13
 1525              		@ sp needed
 1526 0108 5DF8047B 		ldr	r7, [sp], #4
 1527              	.LCFI68:
 1528              		.cfi_restore 7
 1529              		.cfi_def_cfa_offset 0
 1530 010c 7047     		bx	lr
 1531              		.cfi_endproc
 1532              	.LFE140:
 1534              		.section	.text.USB_ActivateDedicatedEndpoint,"ax",%progbits
 1535              		.align	1
 1536              		.global	USB_ActivateDedicatedEndpoint
 1537              		.syntax unified
 1538              		.thumb
 1539              		.thumb_func
 1540              		.fpu fpv4-sp-d16
 1542              	USB_ActivateDedicatedEndpoint:
ARM GAS  /var/folders/vq/qt4vp3kd5rxf7v2b6_fdtdt80000gn/T//ccjOke0W.s 			page 38


 1543              	.LFB141:
 579:Drivers/STM32F4xx_HAL_Driver/Src/stm32f4xx_ll_usb.c **** 
 580:Drivers/STM32F4xx_HAL_Driver/Src/stm32f4xx_ll_usb.c **** /**
 581:Drivers/STM32F4xx_HAL_Driver/Src/stm32f4xx_ll_usb.c ****   * @brief  Activate and configure a dedicated endpoint
 582:Drivers/STM32F4xx_HAL_Driver/Src/stm32f4xx_ll_usb.c ****   * @param  USBx  Selected device
 583:Drivers/STM32F4xx_HAL_Driver/Src/stm32f4xx_ll_usb.c ****   * @param  ep pointer to endpoint structure
 584:Drivers/STM32F4xx_HAL_Driver/Src/stm32f4xx_ll_usb.c ****   * @retval HAL status
 585:Drivers/STM32F4xx_HAL_Driver/Src/stm32f4xx_ll_usb.c ****   */
 586:Drivers/STM32F4xx_HAL_Driver/Src/stm32f4xx_ll_usb.c **** HAL_StatusTypeDef USB_ActivateDedicatedEndpoint(USB_OTG_GlobalTypeDef *USBx, USB_OTG_EPTypeDef *ep)
 587:Drivers/STM32F4xx_HAL_Driver/Src/stm32f4xx_ll_usb.c **** {
 1544              		.loc 1 587 1
 1545              		.cfi_startproc
 1546              		@ args = 0, pretend = 0, frame = 16
 1547              		@ frame_needed = 1, uses_anonymous_args = 0
 1548              		@ link register save eliminated.
 1549 0000 80B4     		push	{r7}
 1550              	.LCFI69:
 1551              		.cfi_def_cfa_offset 4
 1552              		.cfi_offset 7, -4
 1553 0002 85B0     		sub	sp, sp, #20
 1554              	.LCFI70:
 1555              		.cfi_def_cfa_offset 24
 1556 0004 00AF     		add	r7, sp, #0
 1557              	.LCFI71:
 1558              		.cfi_def_cfa_register 7
 1559 0006 7860     		str	r0, [r7, #4]
 1560 0008 3960     		str	r1, [r7]
 588:Drivers/STM32F4xx_HAL_Driver/Src/stm32f4xx_ll_usb.c ****   uint32_t USBx_BASE = (uint32_t)USBx;
 1561              		.loc 1 588 12
 1562 000a 7B68     		ldr	r3, [r7, #4]
 1563 000c FB60     		str	r3, [r7, #12]
 589:Drivers/STM32F4xx_HAL_Driver/Src/stm32f4xx_ll_usb.c ****   uint32_t epnum = (uint32_t)ep->num;
 1564              		.loc 1 589 32
 1565 000e 3B68     		ldr	r3, [r7]
 1566 0010 1B78     		ldrb	r3, [r3]	@ zero_extendqisi2
 1567              		.loc 1 589 12
 1568 0012 BB60     		str	r3, [r7, #8]
 590:Drivers/STM32F4xx_HAL_Driver/Src/stm32f4xx_ll_usb.c **** 
 591:Drivers/STM32F4xx_HAL_Driver/Src/stm32f4xx_ll_usb.c ****   /* Read DEPCTLn register */
 592:Drivers/STM32F4xx_HAL_Driver/Src/stm32f4xx_ll_usb.c ****   if (ep->is_in == 1U)
 1569              		.loc 1 592 9
 1570 0014 3B68     		ldr	r3, [r7]
 1571 0016 5B78     		ldrb	r3, [r3, #1]	@ zero_extendqisi2
 1572              		.loc 1 592 6
 1573 0018 012B     		cmp	r3, #1
 1574 001a 3AD1     		bne	.L85
 593:Drivers/STM32F4xx_HAL_Driver/Src/stm32f4xx_ll_usb.c ****   {
 594:Drivers/STM32F4xx_HAL_Driver/Src/stm32f4xx_ll_usb.c ****     if (((USBx_INEP(epnum)->DIEPCTL) & USB_OTG_DIEPCTL_USBAEP) == 0U)
 1575              		.loc 1 594 11
 1576 001c BB68     		ldr	r3, [r7, #8]
 1577 001e 5A01     		lsls	r2, r3, #5
 1578 0020 FB68     		ldr	r3, [r7, #12]
 1579 0022 1344     		add	r3, r3, r2
 1580 0024 03F51063 		add	r3, r3, #2304
 1581              		.loc 1 594 27
 1582 0028 1B68     		ldr	r3, [r3]
 1583              		.loc 1 594 38
ARM GAS  /var/folders/vq/qt4vp3kd5rxf7v2b6_fdtdt80000gn/T//ccjOke0W.s 			page 39


 1584 002a 03F40043 		and	r3, r3, #32768
 1585              		.loc 1 594 8
 1586 002e 002B     		cmp	r3, #0
 1587 0030 1DD1     		bne	.L86
 595:Drivers/STM32F4xx_HAL_Driver/Src/stm32f4xx_ll_usb.c ****     {
 596:Drivers/STM32F4xx_HAL_Driver/Src/stm32f4xx_ll_usb.c ****       USBx_INEP(epnum)->DIEPCTL |= (ep->maxpacket & USB_OTG_DIEPCTL_MPSIZ) |
 1588              		.loc 1 596 33
 1589 0032 BB68     		ldr	r3, [r7, #8]
 1590 0034 5A01     		lsls	r2, r3, #5
 1591 0036 FB68     		ldr	r3, [r7, #12]
 1592 0038 1344     		add	r3, r3, r2
 1593 003a 03F51063 		add	r3, r3, #2304
 1594 003e 1A68     		ldr	r2, [r3]
 1595              		.loc 1 596 39
 1596 0040 3B68     		ldr	r3, [r7]
 1597 0042 9B68     		ldr	r3, [r3, #8]
 1598              		.loc 1 596 51
 1599 0044 C3F30A01 		ubfx	r1, r3, #0, #11
 597:Drivers/STM32F4xx_HAL_Driver/Src/stm32f4xx_ll_usb.c ****                                    ((uint32_t)ep->type << 18) | (epnum << 22) |
 1600              		.loc 1 597 49
 1601 0048 3B68     		ldr	r3, [r7]
 1602 004a DB78     		ldrb	r3, [r3, #3]	@ zero_extendqisi2
 1603              		.loc 1 597 56
 1604 004c 9B04     		lsls	r3, r3, #18
 596:Drivers/STM32F4xx_HAL_Driver/Src/stm32f4xx_ll_usb.c ****                                    ((uint32_t)ep->type << 18) | (epnum << 22) |
 1605              		.loc 1 596 76
 1606 004e 1943     		orrs	r1, r1, r3
 1607              		.loc 1 597 72
 1608 0050 BB68     		ldr	r3, [r7, #8]
 1609 0052 9B05     		lsls	r3, r3, #22
 1610              		.loc 1 597 63
 1611 0054 0B43     		orrs	r3, r3, r1
 596:Drivers/STM32F4xx_HAL_Driver/Src/stm32f4xx_ll_usb.c ****                                    ((uint32_t)ep->type << 18) | (epnum << 22) |
 1612              		.loc 1 596 33
 1613 0056 1343     		orrs	r3, r3, r2
 1614 0058 BA68     		ldr	r2, [r7, #8]
 1615 005a 5101     		lsls	r1, r2, #5
 1616 005c FA68     		ldr	r2, [r7, #12]
 1617 005e 0A44     		add	r2, r2, r1
 1618 0060 02F51062 		add	r2, r2, #2304
 1619 0064 43F08053 		orr	r3, r3, #268435456
 1620 0068 43F40043 		orr	r3, r3, #32768
 1621 006c 1360     		str	r3, [r2]
 1622              	.L86:
 598:Drivers/STM32F4xx_HAL_Driver/Src/stm32f4xx_ll_usb.c ****                                    USB_OTG_DIEPCTL_SD0PID_SEVNFRM |
 599:Drivers/STM32F4xx_HAL_Driver/Src/stm32f4xx_ll_usb.c ****                                    USB_OTG_DIEPCTL_USBAEP;
 600:Drivers/STM32F4xx_HAL_Driver/Src/stm32f4xx_ll_usb.c ****     }
 601:Drivers/STM32F4xx_HAL_Driver/Src/stm32f4xx_ll_usb.c **** 
 602:Drivers/STM32F4xx_HAL_Driver/Src/stm32f4xx_ll_usb.c ****     USBx_DEVICE->DEACHMSK |= USB_OTG_DAINTMSK_IEPM & (uint32_t)(1UL << (ep->num & EP_ADDR_MSK));
 1623              		.loc 1 602 27
 1624 006e FB68     		ldr	r3, [r7, #12]
 1625 0070 03F50063 		add	r3, r3, #2048
 1626 0074 DA6B     		ldr	r2, [r3, #60]
 1627              		.loc 1 602 75
 1628 0076 3B68     		ldr	r3, [r7]
 1629 0078 1B78     		ldrb	r3, [r3]	@ zero_extendqisi2
 1630              		.loc 1 602 81
ARM GAS  /var/folders/vq/qt4vp3kd5rxf7v2b6_fdtdt80000gn/T//ccjOke0W.s 			page 40


 1631 007a 03F00F03 		and	r3, r3, #15
 1632              		.loc 1 602 54
 1633 007e 0121     		movs	r1, #1
 1634 0080 01FA03F3 		lsl	r3, r1, r3
 1635              		.loc 1 602 52
 1636 0084 9BB2     		uxth	r3, r3
 1637              		.loc 1 602 27
 1638 0086 F968     		ldr	r1, [r7, #12]
 1639 0088 01F50061 		add	r1, r1, #2048
 1640 008c 1343     		orrs	r3, r3, r2
 1641 008e CB63     		str	r3, [r1, #60]
 1642 0090 37E0     		b	.L87
 1643              	.L85:
 603:Drivers/STM32F4xx_HAL_Driver/Src/stm32f4xx_ll_usb.c ****   }
 604:Drivers/STM32F4xx_HAL_Driver/Src/stm32f4xx_ll_usb.c ****   else
 605:Drivers/STM32F4xx_HAL_Driver/Src/stm32f4xx_ll_usb.c ****   {
 606:Drivers/STM32F4xx_HAL_Driver/Src/stm32f4xx_ll_usb.c ****     if (((USBx_OUTEP(epnum)->DOEPCTL) & USB_OTG_DOEPCTL_USBAEP) == 0U)
 1644              		.loc 1 606 11
 1645 0092 BB68     		ldr	r3, [r7, #8]
 1646 0094 5A01     		lsls	r2, r3, #5
 1647 0096 FB68     		ldr	r3, [r7, #12]
 1648 0098 1344     		add	r3, r3, r2
 1649 009a 03F53063 		add	r3, r3, #2816
 1650              		.loc 1 606 28
 1651 009e 1B68     		ldr	r3, [r3]
 1652              		.loc 1 606 39
 1653 00a0 03F40043 		and	r3, r3, #32768
 1654              		.loc 1 606 8
 1655 00a4 002B     		cmp	r3, #0
 1656 00a6 1BD1     		bne	.L88
 607:Drivers/STM32F4xx_HAL_Driver/Src/stm32f4xx_ll_usb.c ****     {
 608:Drivers/STM32F4xx_HAL_Driver/Src/stm32f4xx_ll_usb.c ****       USBx_OUTEP(epnum)->DOEPCTL |= (ep->maxpacket & USB_OTG_DOEPCTL_MPSIZ) |
 1657              		.loc 1 608 34
 1658 00a8 BB68     		ldr	r3, [r7, #8]
 1659 00aa 5A01     		lsls	r2, r3, #5
 1660 00ac FB68     		ldr	r3, [r7, #12]
 1661 00ae 1344     		add	r3, r3, r2
 1662 00b0 03F53063 		add	r3, r3, #2816
 1663 00b4 1A68     		ldr	r2, [r3]
 1664              		.loc 1 608 40
 1665 00b6 3B68     		ldr	r3, [r7]
 1666 00b8 9B68     		ldr	r3, [r3, #8]
 1667              		.loc 1 608 52
 1668 00ba C3F30A01 		ubfx	r1, r3, #0, #11
 609:Drivers/STM32F4xx_HAL_Driver/Src/stm32f4xx_ll_usb.c ****                                     ((uint32_t)ep->type << 18) | (epnum << 22) |
 1669              		.loc 1 609 50
 1670 00be 3B68     		ldr	r3, [r7]
 1671 00c0 DB78     		ldrb	r3, [r3, #3]	@ zero_extendqisi2
 1672              		.loc 1 609 57
 1673 00c2 9B04     		lsls	r3, r3, #18
 608:Drivers/STM32F4xx_HAL_Driver/Src/stm32f4xx_ll_usb.c ****                                     ((uint32_t)ep->type << 18) | (epnum << 22) |
 1674              		.loc 1 608 77
 1675 00c4 1943     		orrs	r1, r1, r3
 1676              		.loc 1 609 73
 1677 00c6 BB68     		ldr	r3, [r7, #8]
 1678 00c8 9B05     		lsls	r3, r3, #22
 1679              		.loc 1 609 64
ARM GAS  /var/folders/vq/qt4vp3kd5rxf7v2b6_fdtdt80000gn/T//ccjOke0W.s 			page 41


 1680 00ca 0B43     		orrs	r3, r3, r1
 608:Drivers/STM32F4xx_HAL_Driver/Src/stm32f4xx_ll_usb.c ****                                     ((uint32_t)ep->type << 18) | (epnum << 22) |
 1681              		.loc 1 608 34
 1682 00cc 1343     		orrs	r3, r3, r2
 1683 00ce BA68     		ldr	r2, [r7, #8]
 1684 00d0 5101     		lsls	r1, r2, #5
 1685 00d2 FA68     		ldr	r2, [r7, #12]
 1686 00d4 0A44     		add	r2, r2, r1
 1687 00d6 02F53062 		add	r2, r2, #2816
 1688 00da 43F40043 		orr	r3, r3, #32768
 1689 00de 1360     		str	r3, [r2]
 1690              	.L88:
 610:Drivers/STM32F4xx_HAL_Driver/Src/stm32f4xx_ll_usb.c ****                                     USB_OTG_DOEPCTL_USBAEP;
 611:Drivers/STM32F4xx_HAL_Driver/Src/stm32f4xx_ll_usb.c ****     }
 612:Drivers/STM32F4xx_HAL_Driver/Src/stm32f4xx_ll_usb.c **** 
 613:Drivers/STM32F4xx_HAL_Driver/Src/stm32f4xx_ll_usb.c ****     USBx_DEVICE->DEACHMSK |= USB_OTG_DAINTMSK_OEPM & ((uint32_t)(1UL << (ep->num & EP_ADDR_MSK)) <<
 1691              		.loc 1 613 27
 1692 00e0 FB68     		ldr	r3, [r7, #12]
 1693 00e2 03F50063 		add	r3, r3, #2048
 1694 00e6 DA6B     		ldr	r2, [r3, #60]
 1695              		.loc 1 613 76
 1696 00e8 3B68     		ldr	r3, [r7]
 1697 00ea 1B78     		ldrb	r3, [r3]	@ zero_extendqisi2
 1698              		.loc 1 613 82
 1699 00ec 03F00F03 		and	r3, r3, #15
 1700              		.loc 1 613 55
 1701 00f0 0121     		movs	r1, #1
 1702 00f2 01FA03F3 		lsl	r3, r1, r3
 1703              		.loc 1 613 52
 1704 00f6 1B04     		lsls	r3, r3, #16
 1705              		.loc 1 613 27
 1706 00f8 F968     		ldr	r1, [r7, #12]
 1707 00fa 01F50061 		add	r1, r1, #2048
 1708 00fe 1343     		orrs	r3, r3, r2
 1709 0100 CB63     		str	r3, [r1, #60]
 1710              	.L87:
 614:Drivers/STM32F4xx_HAL_Driver/Src/stm32f4xx_ll_usb.c ****   }
 615:Drivers/STM32F4xx_HAL_Driver/Src/stm32f4xx_ll_usb.c **** 
 616:Drivers/STM32F4xx_HAL_Driver/Src/stm32f4xx_ll_usb.c ****   return HAL_OK;
 1711              		.loc 1 616 10
 1712 0102 0023     		movs	r3, #0
 617:Drivers/STM32F4xx_HAL_Driver/Src/stm32f4xx_ll_usb.c **** }
 1713              		.loc 1 617 1
 1714 0104 1846     		mov	r0, r3
 1715 0106 1437     		adds	r7, r7, #20
 1716              	.LCFI72:
 1717              		.cfi_def_cfa_offset 4
 1718 0108 BD46     		mov	sp, r7
 1719              	.LCFI73:
 1720              		.cfi_def_cfa_register 13
 1721              		@ sp needed
 1722 010a 5DF8047B 		ldr	r7, [sp], #4
 1723              	.LCFI74:
 1724              		.cfi_restore 7
 1725              		.cfi_def_cfa_offset 0
 1726 010e 7047     		bx	lr
 1727              		.cfi_endproc
ARM GAS  /var/folders/vq/qt4vp3kd5rxf7v2b6_fdtdt80000gn/T//ccjOke0W.s 			page 42


 1728              	.LFE141:
 1730              		.section	.text.USB_DeactivateEndpoint,"ax",%progbits
 1731              		.align	1
 1732              		.global	USB_DeactivateEndpoint
 1733              		.syntax unified
 1734              		.thumb
 1735              		.thumb_func
 1736              		.fpu fpv4-sp-d16
 1738              	USB_DeactivateEndpoint:
 1739              	.LFB142:
 618:Drivers/STM32F4xx_HAL_Driver/Src/stm32f4xx_ll_usb.c **** 
 619:Drivers/STM32F4xx_HAL_Driver/Src/stm32f4xx_ll_usb.c **** /**
 620:Drivers/STM32F4xx_HAL_Driver/Src/stm32f4xx_ll_usb.c ****   * @brief  De-activate and de-initialize an endpoint
 621:Drivers/STM32F4xx_HAL_Driver/Src/stm32f4xx_ll_usb.c ****   * @param  USBx  Selected device
 622:Drivers/STM32F4xx_HAL_Driver/Src/stm32f4xx_ll_usb.c ****   * @param  ep pointer to endpoint structure
 623:Drivers/STM32F4xx_HAL_Driver/Src/stm32f4xx_ll_usb.c ****   * @retval HAL status
 624:Drivers/STM32F4xx_HAL_Driver/Src/stm32f4xx_ll_usb.c ****   */
 625:Drivers/STM32F4xx_HAL_Driver/Src/stm32f4xx_ll_usb.c **** HAL_StatusTypeDef USB_DeactivateEndpoint(USB_OTG_GlobalTypeDef *USBx, USB_OTG_EPTypeDef *ep)
 626:Drivers/STM32F4xx_HAL_Driver/Src/stm32f4xx_ll_usb.c **** {
 1740              		.loc 1 626 1
 1741              		.cfi_startproc
 1742              		@ args = 0, pretend = 0, frame = 16
 1743              		@ frame_needed = 1, uses_anonymous_args = 0
 1744              		@ link register save eliminated.
 1745 0000 80B4     		push	{r7}
 1746              	.LCFI75:
 1747              		.cfi_def_cfa_offset 4
 1748              		.cfi_offset 7, -4
 1749 0002 85B0     		sub	sp, sp, #20
 1750              	.LCFI76:
 1751              		.cfi_def_cfa_offset 24
 1752 0004 00AF     		add	r7, sp, #0
 1753              	.LCFI77:
 1754              		.cfi_def_cfa_register 7
 1755 0006 7860     		str	r0, [r7, #4]
 1756 0008 3960     		str	r1, [r7]
 627:Drivers/STM32F4xx_HAL_Driver/Src/stm32f4xx_ll_usb.c ****   uint32_t USBx_BASE = (uint32_t)USBx;
 1757              		.loc 1 627 12
 1758 000a 7B68     		ldr	r3, [r7, #4]
 1759 000c FB60     		str	r3, [r7, #12]
 628:Drivers/STM32F4xx_HAL_Driver/Src/stm32f4xx_ll_usb.c ****   uint32_t epnum = (uint32_t)ep->num;
 1760              		.loc 1 628 32
 1761 000e 3B68     		ldr	r3, [r7]
 1762 0010 1B78     		ldrb	r3, [r3]	@ zero_extendqisi2
 1763              		.loc 1 628 12
 1764 0012 BB60     		str	r3, [r7, #8]
 629:Drivers/STM32F4xx_HAL_Driver/Src/stm32f4xx_ll_usb.c **** 
 630:Drivers/STM32F4xx_HAL_Driver/Src/stm32f4xx_ll_usb.c ****   /* Read DEPCTLn register */
 631:Drivers/STM32F4xx_HAL_Driver/Src/stm32f4xx_ll_usb.c ****   if (ep->is_in == 1U)
 1765              		.loc 1 631 9
 1766 0014 3B68     		ldr	r3, [r7]
 1767 0016 5B78     		ldrb	r3, [r3, #1]	@ zero_extendqisi2
 1768              		.loc 1 631 6
 1769 0018 012B     		cmp	r3, #1
 1770 001a 61D1     		bne	.L91
 632:Drivers/STM32F4xx_HAL_Driver/Src/stm32f4xx_ll_usb.c ****   {
 633:Drivers/STM32F4xx_HAL_Driver/Src/stm32f4xx_ll_usb.c ****     if ((USBx_INEP(epnum)->DIEPCTL & USB_OTG_DIEPCTL_EPENA) == USB_OTG_DIEPCTL_EPENA)
ARM GAS  /var/folders/vq/qt4vp3kd5rxf7v2b6_fdtdt80000gn/T//ccjOke0W.s 			page 43


 1771              		.loc 1 633 10
 1772 001c BB68     		ldr	r3, [r7, #8]
 1773 001e 5A01     		lsls	r2, r3, #5
 1774 0020 FB68     		ldr	r3, [r7, #12]
 1775 0022 1344     		add	r3, r3, r2
 1776 0024 03F51063 		add	r3, r3, #2304
 1777              		.loc 1 633 26
 1778 0028 1B68     		ldr	r3, [r3]
 1779              		.loc 1 633 36
 1780 002a 03F00043 		and	r3, r3, #-2147483648
 1781              		.loc 1 633 8
 1782 002e B3F1004F 		cmp	r3, #-2147483648
 1783 0032 1FD1     		bne	.L92
 634:Drivers/STM32F4xx_HAL_Driver/Src/stm32f4xx_ll_usb.c ****     {
 635:Drivers/STM32F4xx_HAL_Driver/Src/stm32f4xx_ll_usb.c ****       USBx_INEP(epnum)->DIEPCTL |= USB_OTG_DIEPCTL_SNAK;
 1784              		.loc 1 635 33
 1785 0034 BB68     		ldr	r3, [r7, #8]
 1786 0036 5A01     		lsls	r2, r3, #5
 1787 0038 FB68     		ldr	r3, [r7, #12]
 1788 003a 1344     		add	r3, r3, r2
 1789 003c 03F51063 		add	r3, r3, #2304
 1790 0040 1B68     		ldr	r3, [r3]
 1791 0042 BA68     		ldr	r2, [r7, #8]
 1792 0044 5101     		lsls	r1, r2, #5
 1793 0046 FA68     		ldr	r2, [r7, #12]
 1794 0048 0A44     		add	r2, r2, r1
 1795 004a 02F51062 		add	r2, r2, #2304
 1796 004e 43F00063 		orr	r3, r3, #134217728
 1797 0052 1360     		str	r3, [r2]
 636:Drivers/STM32F4xx_HAL_Driver/Src/stm32f4xx_ll_usb.c ****       USBx_INEP(epnum)->DIEPCTL |= USB_OTG_DIEPCTL_EPDIS;
 1798              		.loc 1 636 33
 1799 0054 BB68     		ldr	r3, [r7, #8]
 1800 0056 5A01     		lsls	r2, r3, #5
 1801 0058 FB68     		ldr	r3, [r7, #12]
 1802 005a 1344     		add	r3, r3, r2
 1803 005c 03F51063 		add	r3, r3, #2304
 1804 0060 1B68     		ldr	r3, [r3]
 1805 0062 BA68     		ldr	r2, [r7, #8]
 1806 0064 5101     		lsls	r1, r2, #5
 1807 0066 FA68     		ldr	r2, [r7, #12]
 1808 0068 0A44     		add	r2, r2, r1
 1809 006a 02F51062 		add	r2, r2, #2304
 1810 006e 43F08043 		orr	r3, r3, #1073741824
 1811 0072 1360     		str	r3, [r2]
 1812              	.L92:
 637:Drivers/STM32F4xx_HAL_Driver/Src/stm32f4xx_ll_usb.c ****     }
 638:Drivers/STM32F4xx_HAL_Driver/Src/stm32f4xx_ll_usb.c **** 
 639:Drivers/STM32F4xx_HAL_Driver/Src/stm32f4xx_ll_usb.c ****     USBx_DEVICE->DEACHMSK &= ~(USB_OTG_DAINTMSK_IEPM & (uint32_t)(1UL << (ep->num & EP_ADDR_MSK)));
 1813              		.loc 1 639 27
 1814 0074 FB68     		ldr	r3, [r7, #12]
 1815 0076 03F50063 		add	r3, r3, #2048
 1816 007a DA6B     		ldr	r2, [r3, #60]
 1817              		.loc 1 639 77
 1818 007c 3B68     		ldr	r3, [r7]
 1819 007e 1B78     		ldrb	r3, [r3]	@ zero_extendqisi2
 1820              		.loc 1 639 83
 1821 0080 03F00F03 		and	r3, r3, #15
ARM GAS  /var/folders/vq/qt4vp3kd5rxf7v2b6_fdtdt80000gn/T//ccjOke0W.s 			page 44


 1822              		.loc 1 639 56
 1823 0084 0121     		movs	r1, #1
 1824 0086 01FA03F3 		lsl	r3, r1, r3
 1825              		.loc 1 639 54
 1826 008a 9BB2     		uxth	r3, r3
 1827              		.loc 1 639 30
 1828 008c DB43     		mvns	r3, r3
 1829              		.loc 1 639 27
 1830 008e F968     		ldr	r1, [r7, #12]
 1831 0090 01F50061 		add	r1, r1, #2048
 1832 0094 1340     		ands	r3, r3, r2
 1833 0096 CB63     		str	r3, [r1, #60]
 640:Drivers/STM32F4xx_HAL_Driver/Src/stm32f4xx_ll_usb.c ****     USBx_DEVICE->DAINTMSK &= ~(USB_OTG_DAINTMSK_IEPM & (uint32_t)(1UL << (ep->num & EP_ADDR_MSK)));
 1834              		.loc 1 640 27
 1835 0098 FB68     		ldr	r3, [r7, #12]
 1836 009a 03F50063 		add	r3, r3, #2048
 1837 009e DA69     		ldr	r2, [r3, #28]
 1838              		.loc 1 640 77
 1839 00a0 3B68     		ldr	r3, [r7]
 1840 00a2 1B78     		ldrb	r3, [r3]	@ zero_extendqisi2
 1841              		.loc 1 640 83
 1842 00a4 03F00F03 		and	r3, r3, #15
 1843              		.loc 1 640 56
 1844 00a8 0121     		movs	r1, #1
 1845 00aa 01FA03F3 		lsl	r3, r1, r3
 1846              		.loc 1 640 54
 1847 00ae 9BB2     		uxth	r3, r3
 1848              		.loc 1 640 30
 1849 00b0 DB43     		mvns	r3, r3
 1850              		.loc 1 640 27
 1851 00b2 F968     		ldr	r1, [r7, #12]
 1852 00b4 01F50061 		add	r1, r1, #2048
 1853 00b8 1340     		ands	r3, r3, r2
 1854 00ba CB61     		str	r3, [r1, #28]
 641:Drivers/STM32F4xx_HAL_Driver/Src/stm32f4xx_ll_usb.c ****     USBx_INEP(epnum)->DIEPCTL &= ~(USB_OTG_DIEPCTL_USBAEP |
 1855              		.loc 1 641 31
 1856 00bc BB68     		ldr	r3, [r7, #8]
 1857 00be 5A01     		lsls	r2, r3, #5
 1858 00c0 FB68     		ldr	r3, [r7, #12]
 1859 00c2 1344     		add	r3, r3, r2
 1860 00c4 03F51063 		add	r3, r3, #2304
 1861 00c8 1A68     		ldr	r2, [r3]
 1862 00ca BB68     		ldr	r3, [r7, #8]
 1863 00cc 5901     		lsls	r1, r3, #5
 1864 00ce FB68     		ldr	r3, [r7, #12]
 1865 00d0 0B44     		add	r3, r3, r1
 1866 00d2 03F51063 		add	r3, r3, #2304
 1867 00d6 1946     		mov	r1, r3
 1868 00d8 354B     		ldr	r3, .L96
 1869 00da 1340     		ands	r3, r3, r2
 1870 00dc 0B60     		str	r3, [r1]
 1871 00de 60E0     		b	.L93
 1872              	.L91:
 642:Drivers/STM32F4xx_HAL_Driver/Src/stm32f4xx_ll_usb.c ****                                    USB_OTG_DIEPCTL_MPSIZ |
 643:Drivers/STM32F4xx_HAL_Driver/Src/stm32f4xx_ll_usb.c ****                                    USB_OTG_DIEPCTL_TXFNUM |
 644:Drivers/STM32F4xx_HAL_Driver/Src/stm32f4xx_ll_usb.c ****                                    USB_OTG_DIEPCTL_SD0PID_SEVNFRM |
 645:Drivers/STM32F4xx_HAL_Driver/Src/stm32f4xx_ll_usb.c ****                                    USB_OTG_DIEPCTL_EPTYP);
ARM GAS  /var/folders/vq/qt4vp3kd5rxf7v2b6_fdtdt80000gn/T//ccjOke0W.s 			page 45


 646:Drivers/STM32F4xx_HAL_Driver/Src/stm32f4xx_ll_usb.c ****   }
 647:Drivers/STM32F4xx_HAL_Driver/Src/stm32f4xx_ll_usb.c ****   else
 648:Drivers/STM32F4xx_HAL_Driver/Src/stm32f4xx_ll_usb.c ****   {
 649:Drivers/STM32F4xx_HAL_Driver/Src/stm32f4xx_ll_usb.c ****     if ((USBx_OUTEP(epnum)->DOEPCTL & USB_OTG_DOEPCTL_EPENA) == USB_OTG_DOEPCTL_EPENA)
 1873              		.loc 1 649 10
 1874 00e0 BB68     		ldr	r3, [r7, #8]
 1875 00e2 5A01     		lsls	r2, r3, #5
 1876 00e4 FB68     		ldr	r3, [r7, #12]
 1877 00e6 1344     		add	r3, r3, r2
 1878 00e8 03F53063 		add	r3, r3, #2816
 1879              		.loc 1 649 27
 1880 00ec 1B68     		ldr	r3, [r3]
 1881              		.loc 1 649 37
 1882 00ee 03F00043 		and	r3, r3, #-2147483648
 1883              		.loc 1 649 8
 1884 00f2 B3F1004F 		cmp	r3, #-2147483648
 1885 00f6 1FD1     		bne	.L94
 650:Drivers/STM32F4xx_HAL_Driver/Src/stm32f4xx_ll_usb.c ****     {
 651:Drivers/STM32F4xx_HAL_Driver/Src/stm32f4xx_ll_usb.c ****       USBx_OUTEP(epnum)->DOEPCTL |= USB_OTG_DOEPCTL_SNAK;
 1886              		.loc 1 651 34
 1887 00f8 BB68     		ldr	r3, [r7, #8]
 1888 00fa 5A01     		lsls	r2, r3, #5
 1889 00fc FB68     		ldr	r3, [r7, #12]
 1890 00fe 1344     		add	r3, r3, r2
 1891 0100 03F53063 		add	r3, r3, #2816
 1892 0104 1B68     		ldr	r3, [r3]
 1893 0106 BA68     		ldr	r2, [r7, #8]
 1894 0108 5101     		lsls	r1, r2, #5
 1895 010a FA68     		ldr	r2, [r7, #12]
 1896 010c 0A44     		add	r2, r2, r1
 1897 010e 02F53062 		add	r2, r2, #2816
 1898 0112 43F00063 		orr	r3, r3, #134217728
 1899 0116 1360     		str	r3, [r2]
 652:Drivers/STM32F4xx_HAL_Driver/Src/stm32f4xx_ll_usb.c ****       USBx_OUTEP(epnum)->DOEPCTL |= USB_OTG_DOEPCTL_EPDIS;
 1900              		.loc 1 652 34
 1901 0118 BB68     		ldr	r3, [r7, #8]
 1902 011a 5A01     		lsls	r2, r3, #5
 1903 011c FB68     		ldr	r3, [r7, #12]
 1904 011e 1344     		add	r3, r3, r2
 1905 0120 03F53063 		add	r3, r3, #2816
 1906 0124 1B68     		ldr	r3, [r3]
 1907 0126 BA68     		ldr	r2, [r7, #8]
 1908 0128 5101     		lsls	r1, r2, #5
 1909 012a FA68     		ldr	r2, [r7, #12]
 1910 012c 0A44     		add	r2, r2, r1
 1911 012e 02F53062 		add	r2, r2, #2816
 1912 0132 43F08043 		orr	r3, r3, #1073741824
 1913 0136 1360     		str	r3, [r2]
 1914              	.L94:
 653:Drivers/STM32F4xx_HAL_Driver/Src/stm32f4xx_ll_usb.c ****     }
 654:Drivers/STM32F4xx_HAL_Driver/Src/stm32f4xx_ll_usb.c **** 
 655:Drivers/STM32F4xx_HAL_Driver/Src/stm32f4xx_ll_usb.c ****     USBx_DEVICE->DEACHMSK &= ~(USB_OTG_DAINTMSK_OEPM & ((uint32_t)(1UL << (ep->num & EP_ADDR_MSK)) 
 1915              		.loc 1 655 27
 1916 0138 FB68     		ldr	r3, [r7, #12]
 1917 013a 03F50063 		add	r3, r3, #2048
 1918 013e DA6B     		ldr	r2, [r3, #60]
 1919              		.loc 1 655 78
ARM GAS  /var/folders/vq/qt4vp3kd5rxf7v2b6_fdtdt80000gn/T//ccjOke0W.s 			page 46


 1920 0140 3B68     		ldr	r3, [r7]
 1921 0142 1B78     		ldrb	r3, [r3]	@ zero_extendqisi2
 1922              		.loc 1 655 84
 1923 0144 03F00F03 		and	r3, r3, #15
 1924              		.loc 1 655 57
 1925 0148 0121     		movs	r1, #1
 1926 014a 01FA03F3 		lsl	r3, r1, r3
 1927              		.loc 1 655 54
 1928 014e 1B04     		lsls	r3, r3, #16
 1929              		.loc 1 655 30
 1930 0150 DB43     		mvns	r3, r3
 1931              		.loc 1 655 27
 1932 0152 F968     		ldr	r1, [r7, #12]
 1933 0154 01F50061 		add	r1, r1, #2048
 1934 0158 1340     		ands	r3, r3, r2
 1935 015a CB63     		str	r3, [r1, #60]
 656:Drivers/STM32F4xx_HAL_Driver/Src/stm32f4xx_ll_usb.c ****     USBx_DEVICE->DAINTMSK &= ~(USB_OTG_DAINTMSK_OEPM & ((uint32_t)(1UL << (ep->num & EP_ADDR_MSK)) 
 1936              		.loc 1 656 27
 1937 015c FB68     		ldr	r3, [r7, #12]
 1938 015e 03F50063 		add	r3, r3, #2048
 1939 0162 DA69     		ldr	r2, [r3, #28]
 1940              		.loc 1 656 78
 1941 0164 3B68     		ldr	r3, [r7]
 1942 0166 1B78     		ldrb	r3, [r3]	@ zero_extendqisi2
 1943              		.loc 1 656 84
 1944 0168 03F00F03 		and	r3, r3, #15
 1945              		.loc 1 656 57
 1946 016c 0121     		movs	r1, #1
 1947 016e 01FA03F3 		lsl	r3, r1, r3
 1948              		.loc 1 656 54
 1949 0172 1B04     		lsls	r3, r3, #16
 1950              		.loc 1 656 30
 1951 0174 DB43     		mvns	r3, r3
 1952              		.loc 1 656 27
 1953 0176 F968     		ldr	r1, [r7, #12]
 1954 0178 01F50061 		add	r1, r1, #2048
 1955 017c 1340     		ands	r3, r3, r2
 1956 017e CB61     		str	r3, [r1, #28]
 657:Drivers/STM32F4xx_HAL_Driver/Src/stm32f4xx_ll_usb.c ****     USBx_OUTEP(epnum)->DOEPCTL &= ~(USB_OTG_DOEPCTL_USBAEP |
 1957              		.loc 1 657 32
 1958 0180 BB68     		ldr	r3, [r7, #8]
 1959 0182 5A01     		lsls	r2, r3, #5
 1960 0184 FB68     		ldr	r3, [r7, #12]
 1961 0186 1344     		add	r3, r3, r2
 1962 0188 03F53063 		add	r3, r3, #2816
 1963 018c 1A68     		ldr	r2, [r3]
 1964 018e BB68     		ldr	r3, [r7, #8]
 1965 0190 5901     		lsls	r1, r3, #5
 1966 0192 FB68     		ldr	r3, [r7, #12]
 1967 0194 0B44     		add	r3, r3, r1
 1968 0196 03F53063 		add	r3, r3, #2816
 1969 019a 1946     		mov	r1, r3
 1970 019c 054B     		ldr	r3, .L96+4
 1971 019e 1340     		ands	r3, r3, r2
 1972 01a0 0B60     		str	r3, [r1]
 1973              	.L93:
 658:Drivers/STM32F4xx_HAL_Driver/Src/stm32f4xx_ll_usb.c ****                                     USB_OTG_DOEPCTL_MPSIZ |
ARM GAS  /var/folders/vq/qt4vp3kd5rxf7v2b6_fdtdt80000gn/T//ccjOke0W.s 			page 47


 659:Drivers/STM32F4xx_HAL_Driver/Src/stm32f4xx_ll_usb.c ****                                     USB_OTG_DOEPCTL_SD0PID_SEVNFRM |
 660:Drivers/STM32F4xx_HAL_Driver/Src/stm32f4xx_ll_usb.c ****                                     USB_OTG_DOEPCTL_EPTYP);
 661:Drivers/STM32F4xx_HAL_Driver/Src/stm32f4xx_ll_usb.c ****   }
 662:Drivers/STM32F4xx_HAL_Driver/Src/stm32f4xx_ll_usb.c **** 
 663:Drivers/STM32F4xx_HAL_Driver/Src/stm32f4xx_ll_usb.c ****   return HAL_OK;
 1974              		.loc 1 663 10
 1975 01a2 0023     		movs	r3, #0
 664:Drivers/STM32F4xx_HAL_Driver/Src/stm32f4xx_ll_usb.c **** }
 1976              		.loc 1 664 1
 1977 01a4 1846     		mov	r0, r3
 1978 01a6 1437     		adds	r7, r7, #20
 1979              	.LCFI78:
 1980              		.cfi_def_cfa_offset 4
 1981 01a8 BD46     		mov	sp, r7
 1982              	.LCFI79:
 1983              		.cfi_def_cfa_register 13
 1984              		@ sp needed
 1985 01aa 5DF8047B 		ldr	r7, [sp], #4
 1986              	.LCFI80:
 1987              		.cfi_restore 7
 1988              		.cfi_def_cfa_offset 0
 1989 01ae 7047     		bx	lr
 1990              	.L97:
 1991              		.align	2
 1992              	.L96:
 1993 01b0 007833EC 		.word	-332171264
 1994 01b4 0078F3EF 		.word	-269256704
 1995              		.cfi_endproc
 1996              	.LFE142:
 1998              		.section	.text.USB_DeactivateDedicatedEndpoint,"ax",%progbits
 1999              		.align	1
 2000              		.global	USB_DeactivateDedicatedEndpoint
 2001              		.syntax unified
 2002              		.thumb
 2003              		.thumb_func
 2004              		.fpu fpv4-sp-d16
 2006              	USB_DeactivateDedicatedEndpoint:
 2007              	.LFB143:
 665:Drivers/STM32F4xx_HAL_Driver/Src/stm32f4xx_ll_usb.c **** 
 666:Drivers/STM32F4xx_HAL_Driver/Src/stm32f4xx_ll_usb.c **** /**
 667:Drivers/STM32F4xx_HAL_Driver/Src/stm32f4xx_ll_usb.c ****   * @brief  De-activate and de-initialize a dedicated endpoint
 668:Drivers/STM32F4xx_HAL_Driver/Src/stm32f4xx_ll_usb.c ****   * @param  USBx  Selected device
 669:Drivers/STM32F4xx_HAL_Driver/Src/stm32f4xx_ll_usb.c ****   * @param  ep pointer to endpoint structure
 670:Drivers/STM32F4xx_HAL_Driver/Src/stm32f4xx_ll_usb.c ****   * @retval HAL status
 671:Drivers/STM32F4xx_HAL_Driver/Src/stm32f4xx_ll_usb.c ****   */
 672:Drivers/STM32F4xx_HAL_Driver/Src/stm32f4xx_ll_usb.c **** HAL_StatusTypeDef USB_DeactivateDedicatedEndpoint(USB_OTG_GlobalTypeDef *USBx, USB_OTG_EPTypeDef *e
 673:Drivers/STM32F4xx_HAL_Driver/Src/stm32f4xx_ll_usb.c **** {
 2008              		.loc 1 673 1
 2009              		.cfi_startproc
 2010              		@ args = 0, pretend = 0, frame = 16
 2011              		@ frame_needed = 1, uses_anonymous_args = 0
 2012              		@ link register save eliminated.
 2013 0000 80B4     		push	{r7}
 2014              	.LCFI81:
 2015              		.cfi_def_cfa_offset 4
 2016              		.cfi_offset 7, -4
 2017 0002 85B0     		sub	sp, sp, #20
ARM GAS  /var/folders/vq/qt4vp3kd5rxf7v2b6_fdtdt80000gn/T//ccjOke0W.s 			page 48


 2018              	.LCFI82:
 2019              		.cfi_def_cfa_offset 24
 2020 0004 00AF     		add	r7, sp, #0
 2021              	.LCFI83:
 2022              		.cfi_def_cfa_register 7
 2023 0006 7860     		str	r0, [r7, #4]
 2024 0008 3960     		str	r1, [r7]
 674:Drivers/STM32F4xx_HAL_Driver/Src/stm32f4xx_ll_usb.c ****   uint32_t USBx_BASE = (uint32_t)USBx;
 2025              		.loc 1 674 12
 2026 000a 7B68     		ldr	r3, [r7, #4]
 2027 000c FB60     		str	r3, [r7, #12]
 675:Drivers/STM32F4xx_HAL_Driver/Src/stm32f4xx_ll_usb.c ****   uint32_t epnum = (uint32_t)ep->num;
 2028              		.loc 1 675 32
 2029 000e 3B68     		ldr	r3, [r7]
 2030 0010 1B78     		ldrb	r3, [r3]	@ zero_extendqisi2
 2031              		.loc 1 675 12
 2032 0012 BB60     		str	r3, [r7, #8]
 676:Drivers/STM32F4xx_HAL_Driver/Src/stm32f4xx_ll_usb.c **** 
 677:Drivers/STM32F4xx_HAL_Driver/Src/stm32f4xx_ll_usb.c ****   /* Read DEPCTLn register */
 678:Drivers/STM32F4xx_HAL_Driver/Src/stm32f4xx_ll_usb.c ****   if (ep->is_in == 1U)
 2033              		.loc 1 678 9
 2034 0014 3B68     		ldr	r3, [r7]
 2035 0016 5B78     		ldrb	r3, [r3, #1]	@ zero_extendqisi2
 2036              		.loc 1 678 6
 2037 0018 012B     		cmp	r3, #1
 2038 001a 4ED1     		bne	.L99
 679:Drivers/STM32F4xx_HAL_Driver/Src/stm32f4xx_ll_usb.c ****   {
 680:Drivers/STM32F4xx_HAL_Driver/Src/stm32f4xx_ll_usb.c ****     if ((USBx_INEP(epnum)->DIEPCTL & USB_OTG_DIEPCTL_EPENA) == USB_OTG_DIEPCTL_EPENA)
 2039              		.loc 1 680 10
 2040 001c BB68     		ldr	r3, [r7, #8]
 2041 001e 5A01     		lsls	r2, r3, #5
 2042 0020 FB68     		ldr	r3, [r7, #12]
 2043 0022 1344     		add	r3, r3, r2
 2044 0024 03F51063 		add	r3, r3, #2304
 2045              		.loc 1 680 26
 2046 0028 1B68     		ldr	r3, [r3]
 2047              		.loc 1 680 36
 2048 002a 03F00043 		and	r3, r3, #-2147483648
 2049              		.loc 1 680 8
 2050 002e B3F1004F 		cmp	r3, #-2147483648
 2051 0032 1FD1     		bne	.L100
 681:Drivers/STM32F4xx_HAL_Driver/Src/stm32f4xx_ll_usb.c ****     {
 682:Drivers/STM32F4xx_HAL_Driver/Src/stm32f4xx_ll_usb.c ****       USBx_INEP(epnum)->DIEPCTL  |= USB_OTG_DIEPCTL_SNAK;
 2052              		.loc 1 682 34
 2053 0034 BB68     		ldr	r3, [r7, #8]
 2054 0036 5A01     		lsls	r2, r3, #5
 2055 0038 FB68     		ldr	r3, [r7, #12]
 2056 003a 1344     		add	r3, r3, r2
 2057 003c 03F51063 		add	r3, r3, #2304
 2058 0040 1B68     		ldr	r3, [r3]
 2059 0042 BA68     		ldr	r2, [r7, #8]
 2060 0044 5101     		lsls	r1, r2, #5
 2061 0046 FA68     		ldr	r2, [r7, #12]
 2062 0048 0A44     		add	r2, r2, r1
 2063 004a 02F51062 		add	r2, r2, #2304
 2064 004e 43F00063 		orr	r3, r3, #134217728
 2065 0052 1360     		str	r3, [r2]
ARM GAS  /var/folders/vq/qt4vp3kd5rxf7v2b6_fdtdt80000gn/T//ccjOke0W.s 			page 49


 683:Drivers/STM32F4xx_HAL_Driver/Src/stm32f4xx_ll_usb.c ****       USBx_INEP(epnum)->DIEPCTL  |= USB_OTG_DIEPCTL_EPDIS;
 2066              		.loc 1 683 34
 2067 0054 BB68     		ldr	r3, [r7, #8]
 2068 0056 5A01     		lsls	r2, r3, #5
 2069 0058 FB68     		ldr	r3, [r7, #12]
 2070 005a 1344     		add	r3, r3, r2
 2071 005c 03F51063 		add	r3, r3, #2304
 2072 0060 1B68     		ldr	r3, [r3]
 2073 0062 BA68     		ldr	r2, [r7, #8]
 2074 0064 5101     		lsls	r1, r2, #5
 2075 0066 FA68     		ldr	r2, [r7, #12]
 2076 0068 0A44     		add	r2, r2, r1
 2077 006a 02F51062 		add	r2, r2, #2304
 2078 006e 43F08043 		orr	r3, r3, #1073741824
 2079 0072 1360     		str	r3, [r2]
 2080              	.L100:
 684:Drivers/STM32F4xx_HAL_Driver/Src/stm32f4xx_ll_usb.c ****     }
 685:Drivers/STM32F4xx_HAL_Driver/Src/stm32f4xx_ll_usb.c **** 
 686:Drivers/STM32F4xx_HAL_Driver/Src/stm32f4xx_ll_usb.c ****     USBx_INEP(epnum)->DIEPCTL &= ~ USB_OTG_DIEPCTL_USBAEP;
 2081              		.loc 1 686 31
 2082 0074 BB68     		ldr	r3, [r7, #8]
 2083 0076 5A01     		lsls	r2, r3, #5
 2084 0078 FB68     		ldr	r3, [r7, #12]
 2085 007a 1344     		add	r3, r3, r2
 2086 007c 03F51063 		add	r3, r3, #2304
 2087 0080 1B68     		ldr	r3, [r3]
 2088 0082 BA68     		ldr	r2, [r7, #8]
 2089 0084 5101     		lsls	r1, r2, #5
 2090 0086 FA68     		ldr	r2, [r7, #12]
 2091 0088 0A44     		add	r2, r2, r1
 2092 008a 02F51062 		add	r2, r2, #2304
 2093 008e 23F40043 		bic	r3, r3, #32768
 2094 0092 1360     		str	r3, [r2]
 687:Drivers/STM32F4xx_HAL_Driver/Src/stm32f4xx_ll_usb.c ****     USBx_DEVICE->DAINTMSK &= ~(USB_OTG_DAINTMSK_IEPM & (uint32_t)(1UL << (ep->num & EP_ADDR_MSK)));
 2095              		.loc 1 687 27
 2096 0094 FB68     		ldr	r3, [r7, #12]
 2097 0096 03F50063 		add	r3, r3, #2048
 2098 009a DA69     		ldr	r2, [r3, #28]
 2099              		.loc 1 687 77
 2100 009c 3B68     		ldr	r3, [r7]
 2101 009e 1B78     		ldrb	r3, [r3]	@ zero_extendqisi2
 2102              		.loc 1 687 83
 2103 00a0 03F00F03 		and	r3, r3, #15
 2104              		.loc 1 687 56
 2105 00a4 0121     		movs	r1, #1
 2106 00a6 01FA03F3 		lsl	r3, r1, r3
 2107              		.loc 1 687 54
 2108 00aa 9BB2     		uxth	r3, r3
 2109              		.loc 1 687 30
 2110 00ac DB43     		mvns	r3, r3
 2111              		.loc 1 687 27
 2112 00ae F968     		ldr	r1, [r7, #12]
 2113 00b0 01F50061 		add	r1, r1, #2048
 2114 00b4 1340     		ands	r3, r3, r2
 2115 00b6 CB61     		str	r3, [r1, #28]
 2116 00b8 4DE0     		b	.L101
 2117              	.L99:
ARM GAS  /var/folders/vq/qt4vp3kd5rxf7v2b6_fdtdt80000gn/T//ccjOke0W.s 			page 50


 688:Drivers/STM32F4xx_HAL_Driver/Src/stm32f4xx_ll_usb.c ****   }
 689:Drivers/STM32F4xx_HAL_Driver/Src/stm32f4xx_ll_usb.c ****   else
 690:Drivers/STM32F4xx_HAL_Driver/Src/stm32f4xx_ll_usb.c ****   {
 691:Drivers/STM32F4xx_HAL_Driver/Src/stm32f4xx_ll_usb.c ****     if ((USBx_OUTEP(epnum)->DOEPCTL & USB_OTG_DOEPCTL_EPENA) == USB_OTG_DOEPCTL_EPENA)
 2118              		.loc 1 691 10
 2119 00ba BB68     		ldr	r3, [r7, #8]
 2120 00bc 5A01     		lsls	r2, r3, #5
 2121 00be FB68     		ldr	r3, [r7, #12]
 2122 00c0 1344     		add	r3, r3, r2
 2123 00c2 03F53063 		add	r3, r3, #2816
 2124              		.loc 1 691 27
 2125 00c6 1B68     		ldr	r3, [r3]
 2126              		.loc 1 691 37
 2127 00c8 03F00043 		and	r3, r3, #-2147483648
 2128              		.loc 1 691 8
 2129 00cc B3F1004F 		cmp	r3, #-2147483648
 2130 00d0 1FD1     		bne	.L102
 692:Drivers/STM32F4xx_HAL_Driver/Src/stm32f4xx_ll_usb.c ****     {
 693:Drivers/STM32F4xx_HAL_Driver/Src/stm32f4xx_ll_usb.c ****       USBx_OUTEP(epnum)->DOEPCTL  |= USB_OTG_DOEPCTL_SNAK;
 2131              		.loc 1 693 35
 2132 00d2 BB68     		ldr	r3, [r7, #8]
 2133 00d4 5A01     		lsls	r2, r3, #5
 2134 00d6 FB68     		ldr	r3, [r7, #12]
 2135 00d8 1344     		add	r3, r3, r2
 2136 00da 03F53063 		add	r3, r3, #2816
 2137 00de 1B68     		ldr	r3, [r3]
 2138 00e0 BA68     		ldr	r2, [r7, #8]
 2139 00e2 5101     		lsls	r1, r2, #5
 2140 00e4 FA68     		ldr	r2, [r7, #12]
 2141 00e6 0A44     		add	r2, r2, r1
 2142 00e8 02F53062 		add	r2, r2, #2816
 2143 00ec 43F00063 		orr	r3, r3, #134217728
 2144 00f0 1360     		str	r3, [r2]
 694:Drivers/STM32F4xx_HAL_Driver/Src/stm32f4xx_ll_usb.c ****       USBx_OUTEP(epnum)->DOEPCTL  |= USB_OTG_DOEPCTL_EPDIS;
 2145              		.loc 1 694 35
 2146 00f2 BB68     		ldr	r3, [r7, #8]
 2147 00f4 5A01     		lsls	r2, r3, #5
 2148 00f6 FB68     		ldr	r3, [r7, #12]
 2149 00f8 1344     		add	r3, r3, r2
 2150 00fa 03F53063 		add	r3, r3, #2816
 2151 00fe 1B68     		ldr	r3, [r3]
 2152 0100 BA68     		ldr	r2, [r7, #8]
 2153 0102 5101     		lsls	r1, r2, #5
 2154 0104 FA68     		ldr	r2, [r7, #12]
 2155 0106 0A44     		add	r2, r2, r1
 2156 0108 02F53062 		add	r2, r2, #2816
 2157 010c 43F08043 		orr	r3, r3, #1073741824
 2158 0110 1360     		str	r3, [r2]
 2159              	.L102:
 695:Drivers/STM32F4xx_HAL_Driver/Src/stm32f4xx_ll_usb.c ****     }
 696:Drivers/STM32F4xx_HAL_Driver/Src/stm32f4xx_ll_usb.c **** 
 697:Drivers/STM32F4xx_HAL_Driver/Src/stm32f4xx_ll_usb.c ****     USBx_OUTEP(epnum)->DOEPCTL &= ~USB_OTG_DOEPCTL_USBAEP;
 2160              		.loc 1 697 32
 2161 0112 BB68     		ldr	r3, [r7, #8]
 2162 0114 5A01     		lsls	r2, r3, #5
 2163 0116 FB68     		ldr	r3, [r7, #12]
 2164 0118 1344     		add	r3, r3, r2
ARM GAS  /var/folders/vq/qt4vp3kd5rxf7v2b6_fdtdt80000gn/T//ccjOke0W.s 			page 51


 2165 011a 03F53063 		add	r3, r3, #2816
 2166 011e 1B68     		ldr	r3, [r3]
 2167 0120 BA68     		ldr	r2, [r7, #8]
 2168 0122 5101     		lsls	r1, r2, #5
 2169 0124 FA68     		ldr	r2, [r7, #12]
 2170 0126 0A44     		add	r2, r2, r1
 2171 0128 02F53062 		add	r2, r2, #2816
 2172 012c 23F40043 		bic	r3, r3, #32768
 2173 0130 1360     		str	r3, [r2]
 698:Drivers/STM32F4xx_HAL_Driver/Src/stm32f4xx_ll_usb.c ****     USBx_DEVICE->DAINTMSK &= ~(USB_OTG_DAINTMSK_OEPM & ((uint32_t)(1UL << (ep->num & EP_ADDR_MSK)) 
 2174              		.loc 1 698 27
 2175 0132 FB68     		ldr	r3, [r7, #12]
 2176 0134 03F50063 		add	r3, r3, #2048
 2177 0138 DA69     		ldr	r2, [r3, #28]
 2178              		.loc 1 698 78
 2179 013a 3B68     		ldr	r3, [r7]
 2180 013c 1B78     		ldrb	r3, [r3]	@ zero_extendqisi2
 2181              		.loc 1 698 84
 2182 013e 03F00F03 		and	r3, r3, #15
 2183              		.loc 1 698 57
 2184 0142 0121     		movs	r1, #1
 2185 0144 01FA03F3 		lsl	r3, r1, r3
 2186              		.loc 1 698 54
 2187 0148 1B04     		lsls	r3, r3, #16
 2188              		.loc 1 698 30
 2189 014a DB43     		mvns	r3, r3
 2190              		.loc 1 698 27
 2191 014c F968     		ldr	r1, [r7, #12]
 2192 014e 01F50061 		add	r1, r1, #2048
 2193 0152 1340     		ands	r3, r3, r2
 2194 0154 CB61     		str	r3, [r1, #28]
 2195              	.L101:
 699:Drivers/STM32F4xx_HAL_Driver/Src/stm32f4xx_ll_usb.c ****   }
 700:Drivers/STM32F4xx_HAL_Driver/Src/stm32f4xx_ll_usb.c **** 
 701:Drivers/STM32F4xx_HAL_Driver/Src/stm32f4xx_ll_usb.c ****   return HAL_OK;
 2196              		.loc 1 701 10
 2197 0156 0023     		movs	r3, #0
 702:Drivers/STM32F4xx_HAL_Driver/Src/stm32f4xx_ll_usb.c **** }
 2198              		.loc 1 702 1
 2199 0158 1846     		mov	r0, r3
 2200 015a 1437     		adds	r7, r7, #20
 2201              	.LCFI84:
 2202              		.cfi_def_cfa_offset 4
 2203 015c BD46     		mov	sp, r7
 2204              	.LCFI85:
 2205              		.cfi_def_cfa_register 13
 2206              		@ sp needed
 2207 015e 5DF8047B 		ldr	r7, [sp], #4
 2208              	.LCFI86:
 2209              		.cfi_restore 7
 2210              		.cfi_def_cfa_offset 0
 2211 0162 7047     		bx	lr
 2212              		.cfi_endproc
 2213              	.LFE143:
 2215              		.section	.text.USB_EPStartXfer,"ax",%progbits
 2216              		.align	1
 2217              		.global	USB_EPStartXfer
ARM GAS  /var/folders/vq/qt4vp3kd5rxf7v2b6_fdtdt80000gn/T//ccjOke0W.s 			page 52


 2218              		.syntax unified
 2219              		.thumb
 2220              		.thumb_func
 2221              		.fpu fpv4-sp-d16
 2223              	USB_EPStartXfer:
 2224              	.LFB144:
 703:Drivers/STM32F4xx_HAL_Driver/Src/stm32f4xx_ll_usb.c **** 
 704:Drivers/STM32F4xx_HAL_Driver/Src/stm32f4xx_ll_usb.c **** /**
 705:Drivers/STM32F4xx_HAL_Driver/Src/stm32f4xx_ll_usb.c ****   * @brief  USB_EPStartXfer : setup and starts a transfer over an EP
 706:Drivers/STM32F4xx_HAL_Driver/Src/stm32f4xx_ll_usb.c ****   * @param  USBx  Selected device
 707:Drivers/STM32F4xx_HAL_Driver/Src/stm32f4xx_ll_usb.c ****   * @param  ep pointer to endpoint structure
 708:Drivers/STM32F4xx_HAL_Driver/Src/stm32f4xx_ll_usb.c ****   * @param  dma USB dma enabled or disabled
 709:Drivers/STM32F4xx_HAL_Driver/Src/stm32f4xx_ll_usb.c ****   *          This parameter can be one of these values:
 710:Drivers/STM32F4xx_HAL_Driver/Src/stm32f4xx_ll_usb.c ****   *           0 : DMA feature not used
 711:Drivers/STM32F4xx_HAL_Driver/Src/stm32f4xx_ll_usb.c ****   *           1 : DMA feature used
 712:Drivers/STM32F4xx_HAL_Driver/Src/stm32f4xx_ll_usb.c ****   * @retval HAL status
 713:Drivers/STM32F4xx_HAL_Driver/Src/stm32f4xx_ll_usb.c ****   */
 714:Drivers/STM32F4xx_HAL_Driver/Src/stm32f4xx_ll_usb.c **** HAL_StatusTypeDef USB_EPStartXfer(USB_OTG_GlobalTypeDef *USBx, USB_OTG_EPTypeDef *ep, uint8_t dma)
 715:Drivers/STM32F4xx_HAL_Driver/Src/stm32f4xx_ll_usb.c **** {
 2225              		.loc 1 715 1
 2226              		.cfi_startproc
 2227              		@ args = 0, pretend = 0, frame = 32
 2228              		@ frame_needed = 1, uses_anonymous_args = 0
 2229 0000 80B5     		push	{r7, lr}
 2230              	.LCFI87:
 2231              		.cfi_def_cfa_offset 8
 2232              		.cfi_offset 7, -8
 2233              		.cfi_offset 14, -4
 2234 0002 8AB0     		sub	sp, sp, #40
 2235              	.LCFI88:
 2236              		.cfi_def_cfa_offset 48
 2237 0004 02AF     		add	r7, sp, #8
 2238              	.LCFI89:
 2239              		.cfi_def_cfa 7, 40
 2240 0006 F860     		str	r0, [r7, #12]
 2241 0008 B960     		str	r1, [r7, #8]
 2242 000a 1346     		mov	r3, r2
 2243 000c FB71     		strb	r3, [r7, #7]
 716:Drivers/STM32F4xx_HAL_Driver/Src/stm32f4xx_ll_usb.c ****   uint32_t USBx_BASE = (uint32_t)USBx;
 2244              		.loc 1 716 12
 2245 000e FB68     		ldr	r3, [r7, #12]
 2246 0010 FB61     		str	r3, [r7, #28]
 717:Drivers/STM32F4xx_HAL_Driver/Src/stm32f4xx_ll_usb.c ****   uint32_t epnum = (uint32_t)ep->num;
 2247              		.loc 1 717 32
 2248 0012 BB68     		ldr	r3, [r7, #8]
 2249 0014 1B78     		ldrb	r3, [r3]	@ zero_extendqisi2
 2250              		.loc 1 717 12
 2251 0016 BB61     		str	r3, [r7, #24]
 718:Drivers/STM32F4xx_HAL_Driver/Src/stm32f4xx_ll_usb.c ****   uint16_t pktcnt;
 719:Drivers/STM32F4xx_HAL_Driver/Src/stm32f4xx_ll_usb.c **** 
 720:Drivers/STM32F4xx_HAL_Driver/Src/stm32f4xx_ll_usb.c ****   /* IN endpoint */
 721:Drivers/STM32F4xx_HAL_Driver/Src/stm32f4xx_ll_usb.c ****   if (ep->is_in == 1U)
 2252              		.loc 1 721 9
 2253 0018 BB68     		ldr	r3, [r7, #8]
 2254 001a 5B78     		ldrb	r3, [r3, #1]	@ zero_extendqisi2
 2255              		.loc 1 721 6
 2256 001c 012B     		cmp	r3, #1
ARM GAS  /var/folders/vq/qt4vp3kd5rxf7v2b6_fdtdt80000gn/T//ccjOke0W.s 			page 53


 2257 001e 40F05C81 		bne	.L105
 722:Drivers/STM32F4xx_HAL_Driver/Src/stm32f4xx_ll_usb.c ****   {
 723:Drivers/STM32F4xx_HAL_Driver/Src/stm32f4xx_ll_usb.c ****     /* Zero Length Packet? */
 724:Drivers/STM32F4xx_HAL_Driver/Src/stm32f4xx_ll_usb.c ****     if (ep->xfer_len == 0U)
 2258              		.loc 1 724 11
 2259 0022 BB68     		ldr	r3, [r7, #8]
 2260 0024 5B69     		ldr	r3, [r3, #20]
 2261              		.loc 1 724 8
 2262 0026 002B     		cmp	r3, #0
 2263 0028 32D1     		bne	.L106
 725:Drivers/STM32F4xx_HAL_Driver/Src/stm32f4xx_ll_usb.c ****     {
 726:Drivers/STM32F4xx_HAL_Driver/Src/stm32f4xx_ll_usb.c ****       USBx_INEP(epnum)->DIEPTSIZ &= ~(USB_OTG_DIEPTSIZ_PKTCNT);
 2264              		.loc 1 726 34
 2265 002a BB69     		ldr	r3, [r7, #24]
 2266 002c 5A01     		lsls	r2, r3, #5
 2267 002e FB69     		ldr	r3, [r7, #28]
 2268 0030 1344     		add	r3, r3, r2
 2269 0032 03F51063 		add	r3, r3, #2304
 2270 0036 1B69     		ldr	r3, [r3, #16]
 2271 0038 BA69     		ldr	r2, [r7, #24]
 2272 003a 5101     		lsls	r1, r2, #5
 2273 003c FA69     		ldr	r2, [r7, #28]
 2274 003e 0A44     		add	r2, r2, r1
 2275 0040 02F51062 		add	r2, r2, #2304
 2276 0044 23F0FF53 		bic	r3, r3, #534773760
 2277 0048 23F4C013 		bic	r3, r3, #1572864
 2278 004c 1361     		str	r3, [r2, #16]
 727:Drivers/STM32F4xx_HAL_Driver/Src/stm32f4xx_ll_usb.c ****       USBx_INEP(epnum)->DIEPTSIZ |= (USB_OTG_DIEPTSIZ_PKTCNT & (1U << 19));
 2279              		.loc 1 727 34
 2280 004e BB69     		ldr	r3, [r7, #24]
 2281 0050 5A01     		lsls	r2, r3, #5
 2282 0052 FB69     		ldr	r3, [r7, #28]
 2283 0054 1344     		add	r3, r3, r2
 2284 0056 03F51063 		add	r3, r3, #2304
 2285 005a 1B69     		ldr	r3, [r3, #16]
 2286 005c BA69     		ldr	r2, [r7, #24]
 2287 005e 5101     		lsls	r1, r2, #5
 2288 0060 FA69     		ldr	r2, [r7, #28]
 2289 0062 0A44     		add	r2, r2, r1
 2290 0064 02F51062 		add	r2, r2, #2304
 2291 0068 43F40023 		orr	r3, r3, #524288
 2292 006c 1361     		str	r3, [r2, #16]
 728:Drivers/STM32F4xx_HAL_Driver/Src/stm32f4xx_ll_usb.c ****       USBx_INEP(epnum)->DIEPTSIZ &= ~(USB_OTG_DIEPTSIZ_XFRSIZ);
 2293              		.loc 1 728 34
 2294 006e BB69     		ldr	r3, [r7, #24]
 2295 0070 5A01     		lsls	r2, r3, #5
 2296 0072 FB69     		ldr	r3, [r7, #28]
 2297 0074 1344     		add	r3, r3, r2
 2298 0076 03F51063 		add	r3, r3, #2304
 2299 007a 1B69     		ldr	r3, [r3, #16]
 2300 007c BA69     		ldr	r2, [r7, #24]
 2301 007e 5101     		lsls	r1, r2, #5
 2302 0080 FA69     		ldr	r2, [r7, #28]
 2303 0082 0A44     		add	r2, r2, r1
 2304 0084 02F51062 		add	r2, r2, #2304
 2305 0088 DB0C     		lsrs	r3, r3, #19
 2306 008a DB04     		lsls	r3, r3, #19
ARM GAS  /var/folders/vq/qt4vp3kd5rxf7v2b6_fdtdt80000gn/T//ccjOke0W.s 			page 54


 2307 008c 1361     		str	r3, [r2, #16]
 2308 008e 74E0     		b	.L107
 2309              	.L106:
 729:Drivers/STM32F4xx_HAL_Driver/Src/stm32f4xx_ll_usb.c ****     }
 730:Drivers/STM32F4xx_HAL_Driver/Src/stm32f4xx_ll_usb.c ****     else
 731:Drivers/STM32F4xx_HAL_Driver/Src/stm32f4xx_ll_usb.c ****     {
 732:Drivers/STM32F4xx_HAL_Driver/Src/stm32f4xx_ll_usb.c ****       /* Program the transfer size and packet count
 733:Drivers/STM32F4xx_HAL_Driver/Src/stm32f4xx_ll_usb.c ****       * as follows: xfersize = N * maxpacket +
 734:Drivers/STM32F4xx_HAL_Driver/Src/stm32f4xx_ll_usb.c ****       * short_packet pktcnt = N + (short_packet
 735:Drivers/STM32F4xx_HAL_Driver/Src/stm32f4xx_ll_usb.c ****       * exist ? 1 : 0)
 736:Drivers/STM32F4xx_HAL_Driver/Src/stm32f4xx_ll_usb.c ****       */
 737:Drivers/STM32F4xx_HAL_Driver/Src/stm32f4xx_ll_usb.c ****       USBx_INEP(epnum)->DIEPTSIZ &= ~(USB_OTG_DIEPTSIZ_XFRSIZ);
 2310              		.loc 1 737 34
 2311 0090 BB69     		ldr	r3, [r7, #24]
 2312 0092 5A01     		lsls	r2, r3, #5
 2313 0094 FB69     		ldr	r3, [r7, #28]
 2314 0096 1344     		add	r3, r3, r2
 2315 0098 03F51063 		add	r3, r3, #2304
 2316 009c 1B69     		ldr	r3, [r3, #16]
 2317 009e BA69     		ldr	r2, [r7, #24]
 2318 00a0 5101     		lsls	r1, r2, #5
 2319 00a2 FA69     		ldr	r2, [r7, #28]
 2320 00a4 0A44     		add	r2, r2, r1
 2321 00a6 02F51062 		add	r2, r2, #2304
 2322 00aa DB0C     		lsrs	r3, r3, #19
 2323 00ac DB04     		lsls	r3, r3, #19
 2324 00ae 1361     		str	r3, [r2, #16]
 738:Drivers/STM32F4xx_HAL_Driver/Src/stm32f4xx_ll_usb.c ****       USBx_INEP(epnum)->DIEPTSIZ &= ~(USB_OTG_DIEPTSIZ_PKTCNT);
 2325              		.loc 1 738 34
 2326 00b0 BB69     		ldr	r3, [r7, #24]
 2327 00b2 5A01     		lsls	r2, r3, #5
 2328 00b4 FB69     		ldr	r3, [r7, #28]
 2329 00b6 1344     		add	r3, r3, r2
 2330 00b8 03F51063 		add	r3, r3, #2304
 2331 00bc 1B69     		ldr	r3, [r3, #16]
 2332 00be BA69     		ldr	r2, [r7, #24]
 2333 00c0 5101     		lsls	r1, r2, #5
 2334 00c2 FA69     		ldr	r2, [r7, #28]
 2335 00c4 0A44     		add	r2, r2, r1
 2336 00c6 02F51062 		add	r2, r2, #2304
 2337 00ca 23F0FF53 		bic	r3, r3, #534773760
 2338 00ce 23F4C013 		bic	r3, r3, #1572864
 2339 00d2 1361     		str	r3, [r2, #16]
 739:Drivers/STM32F4xx_HAL_Driver/Src/stm32f4xx_ll_usb.c ****       USBx_INEP(epnum)->DIEPTSIZ |= (USB_OTG_DIEPTSIZ_PKTCNT & (((ep->xfer_len + ep->maxpacket - 1U
 2340              		.loc 1 739 34
 2341 00d4 BB69     		ldr	r3, [r7, #24]
 2342 00d6 5A01     		lsls	r2, r3, #5
 2343 00d8 FB69     		ldr	r3, [r7, #28]
 2344 00da 1344     		add	r3, r3, r2
 2345 00dc 03F51063 		add	r3, r3, #2304
 2346 00e0 1A69     		ldr	r2, [r3, #16]
 2347              		.loc 1 739 69
 2348 00e2 BB68     		ldr	r3, [r7, #8]
 2349 00e4 5969     		ldr	r1, [r3, #20]
 2350              		.loc 1 739 84
 2351 00e6 BB68     		ldr	r3, [r7, #8]
 2352 00e8 9B68     		ldr	r3, [r3, #8]
ARM GAS  /var/folders/vq/qt4vp3kd5rxf7v2b6_fdtdt80000gn/T//ccjOke0W.s 			page 55


 2353              		.loc 1 739 80
 2354 00ea 0B44     		add	r3, r3, r1
 2355              		.loc 1 739 96
 2356 00ec 591E     		subs	r1, r3, #1
 2357              		.loc 1 739 106
 2358 00ee BB68     		ldr	r3, [r7, #8]
 2359 00f0 9B68     		ldr	r3, [r3, #8]
 2360              		.loc 1 739 102
 2361 00f2 B1FBF3F3 		udiv	r3, r1, r3
 2362              		.loc 1 739 119
 2363 00f6 D904     		lsls	r1, r3, #19
 2364              		.loc 1 739 62
 2365 00f8 9D4B     		ldr	r3, .L122
 2366 00fa 0B40     		ands	r3, r3, r1
 2367              		.loc 1 739 34
 2368 00fc B969     		ldr	r1, [r7, #24]
 2369 00fe 4801     		lsls	r0, r1, #5
 2370 0100 F969     		ldr	r1, [r7, #28]
 2371 0102 0144     		add	r1, r1, r0
 2372 0104 01F51061 		add	r1, r1, #2304
 2373 0108 1343     		orrs	r3, r3, r2
 2374 010a 0B61     		str	r3, [r1, #16]
 740:Drivers/STM32F4xx_HAL_Driver/Src/stm32f4xx_ll_usb.c ****       USBx_INEP(epnum)->DIEPTSIZ |= (USB_OTG_DIEPTSIZ_XFRSIZ & ep->xfer_len);
 2375              		.loc 1 740 34
 2376 010c BB69     		ldr	r3, [r7, #24]
 2377 010e 5A01     		lsls	r2, r3, #5
 2378 0110 FB69     		ldr	r3, [r7, #28]
 2379 0112 1344     		add	r3, r3, r2
 2380 0114 03F51063 		add	r3, r3, #2304
 2381 0118 1A69     		ldr	r2, [r3, #16]
 2382              		.loc 1 740 66
 2383 011a BB68     		ldr	r3, [r7, #8]
 2384 011c 5B69     		ldr	r3, [r3, #20]
 2385              		.loc 1 740 62
 2386 011e C3F31203 		ubfx	r3, r3, #0, #19
 2387              		.loc 1 740 34
 2388 0122 B969     		ldr	r1, [r7, #24]
 2389 0124 4801     		lsls	r0, r1, #5
 2390 0126 F969     		ldr	r1, [r7, #28]
 2391 0128 0144     		add	r1, r1, r0
 2392 012a 01F51061 		add	r1, r1, #2304
 2393 012e 1343     		orrs	r3, r3, r2
 2394 0130 0B61     		str	r3, [r1, #16]
 741:Drivers/STM32F4xx_HAL_Driver/Src/stm32f4xx_ll_usb.c **** 
 742:Drivers/STM32F4xx_HAL_Driver/Src/stm32f4xx_ll_usb.c ****       if (ep->type == EP_TYPE_ISOC)
 2395              		.loc 1 742 13
 2396 0132 BB68     		ldr	r3, [r7, #8]
 2397 0134 DB78     		ldrb	r3, [r3, #3]	@ zero_extendqisi2
 2398              		.loc 1 742 10
 2399 0136 012B     		cmp	r3, #1
 2400 0138 1FD1     		bne	.L107
 743:Drivers/STM32F4xx_HAL_Driver/Src/stm32f4xx_ll_usb.c ****       {
 744:Drivers/STM32F4xx_HAL_Driver/Src/stm32f4xx_ll_usb.c ****         USBx_INEP(epnum)->DIEPTSIZ &= ~(USB_OTG_DIEPTSIZ_MULCNT);
 2401              		.loc 1 744 36
 2402 013a BB69     		ldr	r3, [r7, #24]
 2403 013c 5A01     		lsls	r2, r3, #5
 2404 013e FB69     		ldr	r3, [r7, #28]
ARM GAS  /var/folders/vq/qt4vp3kd5rxf7v2b6_fdtdt80000gn/T//ccjOke0W.s 			page 56


 2405 0140 1344     		add	r3, r3, r2
 2406 0142 03F51063 		add	r3, r3, #2304
 2407 0146 1B69     		ldr	r3, [r3, #16]
 2408 0148 BA69     		ldr	r2, [r7, #24]
 2409 014a 5101     		lsls	r1, r2, #5
 2410 014c FA69     		ldr	r2, [r7, #28]
 2411 014e 0A44     		add	r2, r2, r1
 2412 0150 02F51062 		add	r2, r2, #2304
 2413 0154 23F0C043 		bic	r3, r3, #1610612736
 2414 0158 1361     		str	r3, [r2, #16]
 745:Drivers/STM32F4xx_HAL_Driver/Src/stm32f4xx_ll_usb.c ****         USBx_INEP(epnum)->DIEPTSIZ |= (USB_OTG_DIEPTSIZ_MULCNT & (1U << 29));
 2415              		.loc 1 745 36
 2416 015a BB69     		ldr	r3, [r7, #24]
 2417 015c 5A01     		lsls	r2, r3, #5
 2418 015e FB69     		ldr	r3, [r7, #28]
 2419 0160 1344     		add	r3, r3, r2
 2420 0162 03F51063 		add	r3, r3, #2304
 2421 0166 1B69     		ldr	r3, [r3, #16]
 2422 0168 BA69     		ldr	r2, [r7, #24]
 2423 016a 5101     		lsls	r1, r2, #5
 2424 016c FA69     		ldr	r2, [r7, #28]
 2425 016e 0A44     		add	r2, r2, r1
 2426 0170 02F51062 		add	r2, r2, #2304
 2427 0174 43F00053 		orr	r3, r3, #536870912
 2428 0178 1361     		str	r3, [r2, #16]
 2429              	.L107:
 746:Drivers/STM32F4xx_HAL_Driver/Src/stm32f4xx_ll_usb.c ****       }
 747:Drivers/STM32F4xx_HAL_Driver/Src/stm32f4xx_ll_usb.c ****     }
 748:Drivers/STM32F4xx_HAL_Driver/Src/stm32f4xx_ll_usb.c **** 
 749:Drivers/STM32F4xx_HAL_Driver/Src/stm32f4xx_ll_usb.c ****     if (dma == 1U)
 2430              		.loc 1 749 8
 2431 017a FB79     		ldrb	r3, [r7, #7]	@ zero_extendqisi2
 2432 017c 012B     		cmp	r3, #1
 2433 017e 4BD1     		bne	.L108
 750:Drivers/STM32F4xx_HAL_Driver/Src/stm32f4xx_ll_usb.c ****     {
 751:Drivers/STM32F4xx_HAL_Driver/Src/stm32f4xx_ll_usb.c ****       if ((uint32_t)ep->dma_addr != 0U)
 2434              		.loc 1 751 23
 2435 0180 BB68     		ldr	r3, [r7, #8]
 2436 0182 1B69     		ldr	r3, [r3, #16]
 2437              		.loc 1 751 10
 2438 0184 002B     		cmp	r3, #0
 2439 0186 09D0     		beq	.L109
 752:Drivers/STM32F4xx_HAL_Driver/Src/stm32f4xx_ll_usb.c ****       {
 753:Drivers/STM32F4xx_HAL_Driver/Src/stm32f4xx_ll_usb.c ****         USBx_INEP(epnum)->DIEPDMA = (uint32_t)(ep->dma_addr);
 2440              		.loc 1 753 9
 2441 0188 BB69     		ldr	r3, [r7, #24]
 2442 018a 5A01     		lsls	r2, r3, #5
 2443 018c FB69     		ldr	r3, [r7, #28]
 2444 018e 1344     		add	r3, r3, r2
 2445 0190 03F51063 		add	r3, r3, #2304
 2446 0194 1A46     		mov	r2, r3
 2447              		.loc 1 753 50
 2448 0196 BB68     		ldr	r3, [r7, #8]
 2449 0198 1B69     		ldr	r3, [r3, #16]
 2450              		.loc 1 753 35
 2451 019a 5361     		str	r3, [r2, #20]
 2452              	.L109:
ARM GAS  /var/folders/vq/qt4vp3kd5rxf7v2b6_fdtdt80000gn/T//ccjOke0W.s 			page 57


 754:Drivers/STM32F4xx_HAL_Driver/Src/stm32f4xx_ll_usb.c ****       }
 755:Drivers/STM32F4xx_HAL_Driver/Src/stm32f4xx_ll_usb.c **** 
 756:Drivers/STM32F4xx_HAL_Driver/Src/stm32f4xx_ll_usb.c ****       if (ep->type == EP_TYPE_ISOC)
 2453              		.loc 1 756 13
 2454 019c BB68     		ldr	r3, [r7, #8]
 2455 019e DB78     		ldrb	r3, [r3, #3]	@ zero_extendqisi2
 2456              		.loc 1 756 10
 2457 01a0 012B     		cmp	r3, #1
 2458 01a2 28D1     		bne	.L110
 757:Drivers/STM32F4xx_HAL_Driver/Src/stm32f4xx_ll_usb.c ****       {
 758:Drivers/STM32F4xx_HAL_Driver/Src/stm32f4xx_ll_usb.c ****         if ((USBx_DEVICE->DSTS & (1U << 8)) == 0U)
 2459              		.loc 1 758 14
 2460 01a4 FB69     		ldr	r3, [r7, #28]
 2461 01a6 03F50063 		add	r3, r3, #2048
 2462              		.loc 1 758 25
 2463 01aa 9B68     		ldr	r3, [r3, #8]
 2464              		.loc 1 758 32
 2465 01ac 03F48073 		and	r3, r3, #256
 2466              		.loc 1 758 12
 2467 01b0 002B     		cmp	r3, #0
 2468 01b2 10D1     		bne	.L111
 759:Drivers/STM32F4xx_HAL_Driver/Src/stm32f4xx_ll_usb.c ****         {
 760:Drivers/STM32F4xx_HAL_Driver/Src/stm32f4xx_ll_usb.c ****           USBx_INEP(epnum)->DIEPCTL |= USB_OTG_DIEPCTL_SODDFRM;
 2469              		.loc 1 760 37
 2470 01b4 BB69     		ldr	r3, [r7, #24]
 2471 01b6 5A01     		lsls	r2, r3, #5
 2472 01b8 FB69     		ldr	r3, [r7, #28]
 2473 01ba 1344     		add	r3, r3, r2
 2474 01bc 03F51063 		add	r3, r3, #2304
 2475 01c0 1B68     		ldr	r3, [r3]
 2476 01c2 BA69     		ldr	r2, [r7, #24]
 2477 01c4 5101     		lsls	r1, r2, #5
 2478 01c6 FA69     		ldr	r2, [r7, #28]
 2479 01c8 0A44     		add	r2, r2, r1
 2480 01ca 02F51062 		add	r2, r2, #2304
 2481 01ce 43F00053 		orr	r3, r3, #536870912
 2482 01d2 1360     		str	r3, [r2]
 2483 01d4 0FE0     		b	.L110
 2484              	.L111:
 761:Drivers/STM32F4xx_HAL_Driver/Src/stm32f4xx_ll_usb.c ****         }
 762:Drivers/STM32F4xx_HAL_Driver/Src/stm32f4xx_ll_usb.c ****         else
 763:Drivers/STM32F4xx_HAL_Driver/Src/stm32f4xx_ll_usb.c ****         {
 764:Drivers/STM32F4xx_HAL_Driver/Src/stm32f4xx_ll_usb.c ****           USBx_INEP(epnum)->DIEPCTL |= USB_OTG_DIEPCTL_SD0PID_SEVNFRM;
 2485              		.loc 1 764 37
 2486 01d6 BB69     		ldr	r3, [r7, #24]
 2487 01d8 5A01     		lsls	r2, r3, #5
 2488 01da FB69     		ldr	r3, [r7, #28]
 2489 01dc 1344     		add	r3, r3, r2
 2490 01de 03F51063 		add	r3, r3, #2304
 2491 01e2 1B68     		ldr	r3, [r3]
 2492 01e4 BA69     		ldr	r2, [r7, #24]
 2493 01e6 5101     		lsls	r1, r2, #5
 2494 01e8 FA69     		ldr	r2, [r7, #28]
 2495 01ea 0A44     		add	r2, r2, r1
 2496 01ec 02F51062 		add	r2, r2, #2304
 2497 01f0 43F08053 		orr	r3, r3, #268435456
 2498 01f4 1360     		str	r3, [r2]
ARM GAS  /var/folders/vq/qt4vp3kd5rxf7v2b6_fdtdt80000gn/T//ccjOke0W.s 			page 58


 2499              	.L110:
 765:Drivers/STM32F4xx_HAL_Driver/Src/stm32f4xx_ll_usb.c ****         }
 766:Drivers/STM32F4xx_HAL_Driver/Src/stm32f4xx_ll_usb.c ****       }
 767:Drivers/STM32F4xx_HAL_Driver/Src/stm32f4xx_ll_usb.c **** 
 768:Drivers/STM32F4xx_HAL_Driver/Src/stm32f4xx_ll_usb.c ****       /* EP enable, IN data in FIFO */
 769:Drivers/STM32F4xx_HAL_Driver/Src/stm32f4xx_ll_usb.c ****       USBx_INEP(epnum)->DIEPCTL |= (USB_OTG_DIEPCTL_CNAK | USB_OTG_DIEPCTL_EPENA);
 2500              		.loc 1 769 33
 2501 01f6 BB69     		ldr	r3, [r7, #24]
 2502 01f8 5A01     		lsls	r2, r3, #5
 2503 01fa FB69     		ldr	r3, [r7, #28]
 2504 01fc 1344     		add	r3, r3, r2
 2505 01fe 03F51063 		add	r3, r3, #2304
 2506 0202 1B68     		ldr	r3, [r3]
 2507 0204 BA69     		ldr	r2, [r7, #24]
 2508 0206 5101     		lsls	r1, r2, #5
 2509 0208 FA69     		ldr	r2, [r7, #28]
 2510 020a 0A44     		add	r2, r2, r1
 2511 020c 02F51062 		add	r2, r2, #2304
 2512 0210 43F00443 		orr	r3, r3, #-2080374784
 2513 0214 1360     		str	r3, [r2]
 2514 0216 2FE1     		b	.L112
 2515              	.L108:
 770:Drivers/STM32F4xx_HAL_Driver/Src/stm32f4xx_ll_usb.c ****     }
 771:Drivers/STM32F4xx_HAL_Driver/Src/stm32f4xx_ll_usb.c ****     else
 772:Drivers/STM32F4xx_HAL_Driver/Src/stm32f4xx_ll_usb.c ****     {
 773:Drivers/STM32F4xx_HAL_Driver/Src/stm32f4xx_ll_usb.c ****       /* EP enable, IN data in FIFO */
 774:Drivers/STM32F4xx_HAL_Driver/Src/stm32f4xx_ll_usb.c ****       USBx_INEP(epnum)->DIEPCTL |= (USB_OTG_DIEPCTL_CNAK | USB_OTG_DIEPCTL_EPENA);
 2516              		.loc 1 774 33
 2517 0218 BB69     		ldr	r3, [r7, #24]
 2518 021a 5A01     		lsls	r2, r3, #5
 2519 021c FB69     		ldr	r3, [r7, #28]
 2520 021e 1344     		add	r3, r3, r2
 2521 0220 03F51063 		add	r3, r3, #2304
 2522 0224 1B68     		ldr	r3, [r3]
 2523 0226 BA69     		ldr	r2, [r7, #24]
 2524 0228 5101     		lsls	r1, r2, #5
 2525 022a FA69     		ldr	r2, [r7, #28]
 2526 022c 0A44     		add	r2, r2, r1
 2527 022e 02F51062 		add	r2, r2, #2304
 2528 0232 43F00443 		orr	r3, r3, #-2080374784
 2529 0236 1360     		str	r3, [r2]
 775:Drivers/STM32F4xx_HAL_Driver/Src/stm32f4xx_ll_usb.c **** 
 776:Drivers/STM32F4xx_HAL_Driver/Src/stm32f4xx_ll_usb.c ****       if (ep->type != EP_TYPE_ISOC)
 2530              		.loc 1 776 13
 2531 0238 BB68     		ldr	r3, [r7, #8]
 2532 023a DB78     		ldrb	r3, [r3, #3]	@ zero_extendqisi2
 2533              		.loc 1 776 10
 2534 023c 012B     		cmp	r3, #1
 2535 023e 15D0     		beq	.L113
 777:Drivers/STM32F4xx_HAL_Driver/Src/stm32f4xx_ll_usb.c ****       {
 778:Drivers/STM32F4xx_HAL_Driver/Src/stm32f4xx_ll_usb.c ****         /* Enable the Tx FIFO Empty Interrupt for this EP */
 779:Drivers/STM32F4xx_HAL_Driver/Src/stm32f4xx_ll_usb.c ****         if (ep->xfer_len > 0U)
 2536              		.loc 1 779 15
 2537 0240 BB68     		ldr	r3, [r7, #8]
 2538 0242 5B69     		ldr	r3, [r3, #20]
 2539              		.loc 1 779 12
 2540 0244 002B     		cmp	r3, #0
ARM GAS  /var/folders/vq/qt4vp3kd5rxf7v2b6_fdtdt80000gn/T//ccjOke0W.s 			page 59


 2541 0246 00F01781 		beq	.L112
 780:Drivers/STM32F4xx_HAL_Driver/Src/stm32f4xx_ll_usb.c ****         {
 781:Drivers/STM32F4xx_HAL_Driver/Src/stm32f4xx_ll_usb.c ****           USBx_DEVICE->DIEPEMPMSK |= 1UL << (ep->num & EP_ADDR_MSK);
 2542              		.loc 1 781 35
 2543 024a FB69     		ldr	r3, [r7, #28]
 2544 024c 03F50063 		add	r3, r3, #2048
 2545 0250 5A6B     		ldr	r2, [r3, #52]
 2546              		.loc 1 781 48
 2547 0252 BB68     		ldr	r3, [r7, #8]
 2548 0254 1B78     		ldrb	r3, [r3]	@ zero_extendqisi2
 2549              		.loc 1 781 54
 2550 0256 03F00F03 		and	r3, r3, #15
 2551              		.loc 1 781 42
 2552 025a 0121     		movs	r1, #1
 2553 025c 01FA03F3 		lsl	r3, r1, r3
 2554              		.loc 1 781 35
 2555 0260 F969     		ldr	r1, [r7, #28]
 2556 0262 01F50061 		add	r1, r1, #2048
 2557 0266 1343     		orrs	r3, r3, r2
 2558 0268 4B63     		str	r3, [r1, #52]
 2559 026a 05E1     		b	.L112
 2560              	.L113:
 782:Drivers/STM32F4xx_HAL_Driver/Src/stm32f4xx_ll_usb.c ****         }
 783:Drivers/STM32F4xx_HAL_Driver/Src/stm32f4xx_ll_usb.c ****       }
 784:Drivers/STM32F4xx_HAL_Driver/Src/stm32f4xx_ll_usb.c ****       else
 785:Drivers/STM32F4xx_HAL_Driver/Src/stm32f4xx_ll_usb.c ****       {
 786:Drivers/STM32F4xx_HAL_Driver/Src/stm32f4xx_ll_usb.c ****         if ((USBx_DEVICE->DSTS & (1U << 8)) == 0U)
 2561              		.loc 1 786 14
 2562 026c FB69     		ldr	r3, [r7, #28]
 2563 026e 03F50063 		add	r3, r3, #2048
 2564              		.loc 1 786 25
 2565 0272 9B68     		ldr	r3, [r3, #8]
 2566              		.loc 1 786 32
 2567 0274 03F48073 		and	r3, r3, #256
 2568              		.loc 1 786 12
 2569 0278 002B     		cmp	r3, #0
 2570 027a 10D1     		bne	.L114
 787:Drivers/STM32F4xx_HAL_Driver/Src/stm32f4xx_ll_usb.c ****         {
 788:Drivers/STM32F4xx_HAL_Driver/Src/stm32f4xx_ll_usb.c ****           USBx_INEP(epnum)->DIEPCTL |= USB_OTG_DIEPCTL_SODDFRM;
 2571              		.loc 1 788 37
 2572 027c BB69     		ldr	r3, [r7, #24]
 2573 027e 5A01     		lsls	r2, r3, #5
 2574 0280 FB69     		ldr	r3, [r7, #28]
 2575 0282 1344     		add	r3, r3, r2
 2576 0284 03F51063 		add	r3, r3, #2304
 2577 0288 1B68     		ldr	r3, [r3]
 2578 028a BA69     		ldr	r2, [r7, #24]
 2579 028c 5101     		lsls	r1, r2, #5
 2580 028e FA69     		ldr	r2, [r7, #28]
 2581 0290 0A44     		add	r2, r2, r1
 2582 0292 02F51062 		add	r2, r2, #2304
 2583 0296 43F00053 		orr	r3, r3, #536870912
 2584 029a 1360     		str	r3, [r2]
 2585 029c 0FE0     		b	.L115
 2586              	.L114:
 789:Drivers/STM32F4xx_HAL_Driver/Src/stm32f4xx_ll_usb.c ****         }
 790:Drivers/STM32F4xx_HAL_Driver/Src/stm32f4xx_ll_usb.c ****         else
ARM GAS  /var/folders/vq/qt4vp3kd5rxf7v2b6_fdtdt80000gn/T//ccjOke0W.s 			page 60


 791:Drivers/STM32F4xx_HAL_Driver/Src/stm32f4xx_ll_usb.c ****         {
 792:Drivers/STM32F4xx_HAL_Driver/Src/stm32f4xx_ll_usb.c ****           USBx_INEP(epnum)->DIEPCTL |= USB_OTG_DIEPCTL_SD0PID_SEVNFRM;
 2587              		.loc 1 792 37
 2588 029e BB69     		ldr	r3, [r7, #24]
 2589 02a0 5A01     		lsls	r2, r3, #5
 2590 02a2 FB69     		ldr	r3, [r7, #28]
 2591 02a4 1344     		add	r3, r3, r2
 2592 02a6 03F51063 		add	r3, r3, #2304
 2593 02aa 1B68     		ldr	r3, [r3]
 2594 02ac BA69     		ldr	r2, [r7, #24]
 2595 02ae 5101     		lsls	r1, r2, #5
 2596 02b0 FA69     		ldr	r2, [r7, #28]
 2597 02b2 0A44     		add	r2, r2, r1
 2598 02b4 02F51062 		add	r2, r2, #2304
 2599 02b8 43F08053 		orr	r3, r3, #268435456
 2600 02bc 1360     		str	r3, [r2]
 2601              	.L115:
 793:Drivers/STM32F4xx_HAL_Driver/Src/stm32f4xx_ll_usb.c ****         }
 794:Drivers/STM32F4xx_HAL_Driver/Src/stm32f4xx_ll_usb.c **** 
 795:Drivers/STM32F4xx_HAL_Driver/Src/stm32f4xx_ll_usb.c ****         (void)USB_WritePacket(USBx, ep->xfer_buff, ep->num, (uint16_t)ep->xfer_len, dma);
 2602              		.loc 1 795 15
 2603 02be BB68     		ldr	r3, [r7, #8]
 2604 02c0 D968     		ldr	r1, [r3, #12]
 2605 02c2 BB68     		ldr	r3, [r7, #8]
 2606 02c4 1A78     		ldrb	r2, [r3]	@ zero_extendqisi2
 2607              		.loc 1 795 73
 2608 02c6 BB68     		ldr	r3, [r7, #8]
 2609 02c8 5B69     		ldr	r3, [r3, #20]
 2610              		.loc 1 795 15
 2611 02ca 98B2     		uxth	r0, r3
 2612 02cc FB79     		ldrb	r3, [r7, #7]	@ zero_extendqisi2
 2613 02ce 0093     		str	r3, [sp]
 2614 02d0 0346     		mov	r3, r0
 2615 02d2 F868     		ldr	r0, [r7, #12]
 2616 02d4 FFF7FEFF 		bl	USB_WritePacket
 2617 02d8 CEE0     		b	.L112
 2618              	.L105:
 796:Drivers/STM32F4xx_HAL_Driver/Src/stm32f4xx_ll_usb.c ****       }
 797:Drivers/STM32F4xx_HAL_Driver/Src/stm32f4xx_ll_usb.c ****     }
 798:Drivers/STM32F4xx_HAL_Driver/Src/stm32f4xx_ll_usb.c ****   }
 799:Drivers/STM32F4xx_HAL_Driver/Src/stm32f4xx_ll_usb.c ****   else /* OUT endpoint */
 800:Drivers/STM32F4xx_HAL_Driver/Src/stm32f4xx_ll_usb.c ****   {
 801:Drivers/STM32F4xx_HAL_Driver/Src/stm32f4xx_ll_usb.c ****     /* Program the transfer size and packet count as follows:
 802:Drivers/STM32F4xx_HAL_Driver/Src/stm32f4xx_ll_usb.c ****     * pktcnt = N
 803:Drivers/STM32F4xx_HAL_Driver/Src/stm32f4xx_ll_usb.c ****     * xfersize = N * maxpacket
 804:Drivers/STM32F4xx_HAL_Driver/Src/stm32f4xx_ll_usb.c ****     */
 805:Drivers/STM32F4xx_HAL_Driver/Src/stm32f4xx_ll_usb.c ****     USBx_OUTEP(epnum)->DOEPTSIZ &= ~(USB_OTG_DOEPTSIZ_XFRSIZ);
 2619              		.loc 1 805 33
 2620 02da BB69     		ldr	r3, [r7, #24]
 2621 02dc 5A01     		lsls	r2, r3, #5
 2622 02de FB69     		ldr	r3, [r7, #28]
 2623 02e0 1344     		add	r3, r3, r2
 2624 02e2 03F53063 		add	r3, r3, #2816
 2625 02e6 1B69     		ldr	r3, [r3, #16]
 2626 02e8 BA69     		ldr	r2, [r7, #24]
 2627 02ea 5101     		lsls	r1, r2, #5
 2628 02ec FA69     		ldr	r2, [r7, #28]
ARM GAS  /var/folders/vq/qt4vp3kd5rxf7v2b6_fdtdt80000gn/T//ccjOke0W.s 			page 61


 2629 02ee 0A44     		add	r2, r2, r1
 2630 02f0 02F53062 		add	r2, r2, #2816
 2631 02f4 DB0C     		lsrs	r3, r3, #19
 2632 02f6 DB04     		lsls	r3, r3, #19
 2633 02f8 1361     		str	r3, [r2, #16]
 806:Drivers/STM32F4xx_HAL_Driver/Src/stm32f4xx_ll_usb.c ****     USBx_OUTEP(epnum)->DOEPTSIZ &= ~(USB_OTG_DOEPTSIZ_PKTCNT);
 2634              		.loc 1 806 33
 2635 02fa BB69     		ldr	r3, [r7, #24]
 2636 02fc 5A01     		lsls	r2, r3, #5
 2637 02fe FB69     		ldr	r3, [r7, #28]
 2638 0300 1344     		add	r3, r3, r2
 2639 0302 03F53063 		add	r3, r3, #2816
 2640 0306 1B69     		ldr	r3, [r3, #16]
 2641 0308 BA69     		ldr	r2, [r7, #24]
 2642 030a 5101     		lsls	r1, r2, #5
 2643 030c FA69     		ldr	r2, [r7, #28]
 2644 030e 0A44     		add	r2, r2, r1
 2645 0310 02F53062 		add	r2, r2, #2816
 2646 0314 23F0FF53 		bic	r3, r3, #534773760
 2647 0318 23F4C013 		bic	r3, r3, #1572864
 2648 031c 1361     		str	r3, [r2, #16]
 807:Drivers/STM32F4xx_HAL_Driver/Src/stm32f4xx_ll_usb.c **** 
 808:Drivers/STM32F4xx_HAL_Driver/Src/stm32f4xx_ll_usb.c ****     if (ep->xfer_len == 0U)
 2649              		.loc 1 808 11
 2650 031e BB68     		ldr	r3, [r7, #8]
 2651 0320 5B69     		ldr	r3, [r3, #20]
 2652              		.loc 1 808 8
 2653 0322 002B     		cmp	r3, #0
 2654 0324 26D1     		bne	.L116
 809:Drivers/STM32F4xx_HAL_Driver/Src/stm32f4xx_ll_usb.c ****     {
 810:Drivers/STM32F4xx_HAL_Driver/Src/stm32f4xx_ll_usb.c ****       USBx_OUTEP(epnum)->DOEPTSIZ |= (USB_OTG_DOEPTSIZ_XFRSIZ & ep->maxpacket);
 2655              		.loc 1 810 35
 2656 0326 BB69     		ldr	r3, [r7, #24]
 2657 0328 5A01     		lsls	r2, r3, #5
 2658 032a FB69     		ldr	r3, [r7, #28]
 2659 032c 1344     		add	r3, r3, r2
 2660 032e 03F53063 		add	r3, r3, #2816
 2661 0332 1A69     		ldr	r2, [r3, #16]
 2662              		.loc 1 810 67
 2663 0334 BB68     		ldr	r3, [r7, #8]
 2664 0336 9B68     		ldr	r3, [r3, #8]
 2665              		.loc 1 810 63
 2666 0338 C3F31203 		ubfx	r3, r3, #0, #19
 2667              		.loc 1 810 35
 2668 033c B969     		ldr	r1, [r7, #24]
 2669 033e 4801     		lsls	r0, r1, #5
 2670 0340 F969     		ldr	r1, [r7, #28]
 2671 0342 0144     		add	r1, r1, r0
 2672 0344 01F53061 		add	r1, r1, #2816
 2673 0348 1343     		orrs	r3, r3, r2
 2674 034a 0B61     		str	r3, [r1, #16]
 811:Drivers/STM32F4xx_HAL_Driver/Src/stm32f4xx_ll_usb.c ****       USBx_OUTEP(epnum)->DOEPTSIZ |= (USB_OTG_DOEPTSIZ_PKTCNT & (1U << 19));
 2675              		.loc 1 811 35
 2676 034c BB69     		ldr	r3, [r7, #24]
 2677 034e 5A01     		lsls	r2, r3, #5
 2678 0350 FB69     		ldr	r3, [r7, #28]
 2679 0352 1344     		add	r3, r3, r2
ARM GAS  /var/folders/vq/qt4vp3kd5rxf7v2b6_fdtdt80000gn/T//ccjOke0W.s 			page 62


 2680 0354 03F53063 		add	r3, r3, #2816
 2681 0358 1B69     		ldr	r3, [r3, #16]
 2682 035a BA69     		ldr	r2, [r7, #24]
 2683 035c 5101     		lsls	r1, r2, #5
 2684 035e FA69     		ldr	r2, [r7, #28]
 2685 0360 0A44     		add	r2, r2, r1
 2686 0362 02F53062 		add	r2, r2, #2816
 2687 0366 43F40023 		orr	r3, r3, #524288
 2688 036a 1361     		str	r3, [r2, #16]
 2689 036c 36E0     		b	.L117
 2690              	.L123:
 2691 036e 00BF     		.align	2
 2692              	.L122:
 2693 0370 0000F81F 		.word	536346624
 2694              	.L116:
 812:Drivers/STM32F4xx_HAL_Driver/Src/stm32f4xx_ll_usb.c ****     }
 813:Drivers/STM32F4xx_HAL_Driver/Src/stm32f4xx_ll_usb.c ****     else
 814:Drivers/STM32F4xx_HAL_Driver/Src/stm32f4xx_ll_usb.c ****     {
 815:Drivers/STM32F4xx_HAL_Driver/Src/stm32f4xx_ll_usb.c ****       pktcnt = (uint16_t)((ep->xfer_len + ep->maxpacket - 1U) / ep->maxpacket);
 2695              		.loc 1 815 30
 2696 0374 BB68     		ldr	r3, [r7, #8]
 2697 0376 5A69     		ldr	r2, [r3, #20]
 2698              		.loc 1 815 45
 2699 0378 BB68     		ldr	r3, [r7, #8]
 2700 037a 9B68     		ldr	r3, [r3, #8]
 2701              		.loc 1 815 41
 2702 037c 1344     		add	r3, r3, r2
 2703              		.loc 1 815 57
 2704 037e 5A1E     		subs	r2, r3, #1
 2705              		.loc 1 815 67
 2706 0380 BB68     		ldr	r3, [r7, #8]
 2707 0382 9B68     		ldr	r3, [r3, #8]
 2708              		.loc 1 815 63
 2709 0384 B2FBF3F3 		udiv	r3, r2, r3
 2710              		.loc 1 815 14
 2711 0388 FB82     		strh	r3, [r7, #22]	@ movhi
 816:Drivers/STM32F4xx_HAL_Driver/Src/stm32f4xx_ll_usb.c ****       USBx_OUTEP(epnum)->DOEPTSIZ |= USB_OTG_DOEPTSIZ_PKTCNT & ((uint32_t)pktcnt << 19);
 2712              		.loc 1 816 35
 2713 038a BB69     		ldr	r3, [r7, #24]
 2714 038c 5A01     		lsls	r2, r3, #5
 2715 038e FB69     		ldr	r3, [r7, #28]
 2716 0390 1344     		add	r3, r3, r2
 2717 0392 03F53063 		add	r3, r3, #2816
 2718 0396 1A69     		ldr	r2, [r3, #16]
 2719              		.loc 1 816 65
 2720 0398 FB8A     		ldrh	r3, [r7, #22]
 2721              		.loc 1 816 82
 2722 039a D904     		lsls	r1, r3, #19
 2723              		.loc 1 816 62
 2724 039c 394B     		ldr	r3, .L124
 2725 039e 0B40     		ands	r3, r3, r1
 2726              		.loc 1 816 35
 2727 03a0 B969     		ldr	r1, [r7, #24]
 2728 03a2 4801     		lsls	r0, r1, #5
 2729 03a4 F969     		ldr	r1, [r7, #28]
 2730 03a6 0144     		add	r1, r1, r0
 2731 03a8 01F53061 		add	r1, r1, #2816
ARM GAS  /var/folders/vq/qt4vp3kd5rxf7v2b6_fdtdt80000gn/T//ccjOke0W.s 			page 63


 2732 03ac 1343     		orrs	r3, r3, r2
 2733 03ae 0B61     		str	r3, [r1, #16]
 817:Drivers/STM32F4xx_HAL_Driver/Src/stm32f4xx_ll_usb.c ****       USBx_OUTEP(epnum)->DOEPTSIZ |= USB_OTG_DOEPTSIZ_XFRSIZ & (ep->maxpacket * pktcnt);
 2734              		.loc 1 817 35
 2735 03b0 BB69     		ldr	r3, [r7, #24]
 2736 03b2 5A01     		lsls	r2, r3, #5
 2737 03b4 FB69     		ldr	r3, [r7, #28]
 2738 03b6 1344     		add	r3, r3, r2
 2739 03b8 03F53063 		add	r3, r3, #2816
 2740 03bc 1A69     		ldr	r2, [r3, #16]
 2741              		.loc 1 817 67
 2742 03be BB68     		ldr	r3, [r7, #8]
 2743 03c0 9B68     		ldr	r3, [r3, #8]
 2744              		.loc 1 817 79
 2745 03c2 F98A     		ldrh	r1, [r7, #22]
 2746 03c4 01FB03F3 		mul	r3, r1, r3
 2747              		.loc 1 817 62
 2748 03c8 C3F31203 		ubfx	r3, r3, #0, #19
 2749              		.loc 1 817 35
 2750 03cc B969     		ldr	r1, [r7, #24]
 2751 03ce 4801     		lsls	r0, r1, #5
 2752 03d0 F969     		ldr	r1, [r7, #28]
 2753 03d2 0144     		add	r1, r1, r0
 2754 03d4 01F53061 		add	r1, r1, #2816
 2755 03d8 1343     		orrs	r3, r3, r2
 2756 03da 0B61     		str	r3, [r1, #16]
 2757              	.L117:
 818:Drivers/STM32F4xx_HAL_Driver/Src/stm32f4xx_ll_usb.c ****     }
 819:Drivers/STM32F4xx_HAL_Driver/Src/stm32f4xx_ll_usb.c **** 
 820:Drivers/STM32F4xx_HAL_Driver/Src/stm32f4xx_ll_usb.c ****     if (dma == 1U)
 2758              		.loc 1 820 8
 2759 03dc FB79     		ldrb	r3, [r7, #7]	@ zero_extendqisi2
 2760 03de 012B     		cmp	r3, #1
 2761 03e0 0DD1     		bne	.L118
 821:Drivers/STM32F4xx_HAL_Driver/Src/stm32f4xx_ll_usb.c ****     {
 822:Drivers/STM32F4xx_HAL_Driver/Src/stm32f4xx_ll_usb.c ****       if ((uint32_t)ep->xfer_buff != 0U)
 2762              		.loc 1 822 23
 2763 03e2 BB68     		ldr	r3, [r7, #8]
 2764 03e4 DB68     		ldr	r3, [r3, #12]
 2765              		.loc 1 822 10
 2766 03e6 002B     		cmp	r3, #0
 2767 03e8 09D0     		beq	.L118
 823:Drivers/STM32F4xx_HAL_Driver/Src/stm32f4xx_ll_usb.c ****       {
 824:Drivers/STM32F4xx_HAL_Driver/Src/stm32f4xx_ll_usb.c ****         USBx_OUTEP(epnum)->DOEPDMA = (uint32_t)(ep->xfer_buff);
 2768              		.loc 1 824 51
 2769 03ea BB68     		ldr	r3, [r7, #8]
 2770 03ec D968     		ldr	r1, [r3, #12]
 2771              		.loc 1 824 9
 2772 03ee BB69     		ldr	r3, [r7, #24]
 2773 03f0 5A01     		lsls	r2, r3, #5
 2774 03f2 FB69     		ldr	r3, [r7, #28]
 2775 03f4 1344     		add	r3, r3, r2
 2776 03f6 03F53063 		add	r3, r3, #2816
 2777              		.loc 1 824 38
 2778 03fa 0A46     		mov	r2, r1
 2779              		.loc 1 824 36
 2780 03fc 5A61     		str	r2, [r3, #20]
ARM GAS  /var/folders/vq/qt4vp3kd5rxf7v2b6_fdtdt80000gn/T//ccjOke0W.s 			page 64


 2781              	.L118:
 825:Drivers/STM32F4xx_HAL_Driver/Src/stm32f4xx_ll_usb.c ****       }
 826:Drivers/STM32F4xx_HAL_Driver/Src/stm32f4xx_ll_usb.c ****     }
 827:Drivers/STM32F4xx_HAL_Driver/Src/stm32f4xx_ll_usb.c **** 
 828:Drivers/STM32F4xx_HAL_Driver/Src/stm32f4xx_ll_usb.c ****     if (ep->type == EP_TYPE_ISOC)
 2782              		.loc 1 828 11
 2783 03fe BB68     		ldr	r3, [r7, #8]
 2784 0400 DB78     		ldrb	r3, [r3, #3]	@ zero_extendqisi2
 2785              		.loc 1 828 8
 2786 0402 012B     		cmp	r3, #1
 2787 0404 28D1     		bne	.L119
 829:Drivers/STM32F4xx_HAL_Driver/Src/stm32f4xx_ll_usb.c ****     {
 830:Drivers/STM32F4xx_HAL_Driver/Src/stm32f4xx_ll_usb.c ****       if ((USBx_DEVICE->DSTS & (1U << 8)) == 0U)
 2788              		.loc 1 830 12
 2789 0406 FB69     		ldr	r3, [r7, #28]
 2790 0408 03F50063 		add	r3, r3, #2048
 2791              		.loc 1 830 23
 2792 040c 9B68     		ldr	r3, [r3, #8]
 2793              		.loc 1 830 30
 2794 040e 03F48073 		and	r3, r3, #256
 2795              		.loc 1 830 10
 2796 0412 002B     		cmp	r3, #0
 2797 0414 10D1     		bne	.L120
 831:Drivers/STM32F4xx_HAL_Driver/Src/stm32f4xx_ll_usb.c ****       {
 832:Drivers/STM32F4xx_HAL_Driver/Src/stm32f4xx_ll_usb.c ****         USBx_OUTEP(epnum)->DOEPCTL |= USB_OTG_DOEPCTL_SODDFRM;
 2798              		.loc 1 832 36
 2799 0416 BB69     		ldr	r3, [r7, #24]
 2800 0418 5A01     		lsls	r2, r3, #5
 2801 041a FB69     		ldr	r3, [r7, #28]
 2802 041c 1344     		add	r3, r3, r2
 2803 041e 03F53063 		add	r3, r3, #2816
 2804 0422 1B68     		ldr	r3, [r3]
 2805 0424 BA69     		ldr	r2, [r7, #24]
 2806 0426 5101     		lsls	r1, r2, #5
 2807 0428 FA69     		ldr	r2, [r7, #28]
 2808 042a 0A44     		add	r2, r2, r1
 2809 042c 02F53062 		add	r2, r2, #2816
 2810 0430 43F00053 		orr	r3, r3, #536870912
 2811 0434 1360     		str	r3, [r2]
 2812 0436 0FE0     		b	.L119
 2813              	.L120:
 833:Drivers/STM32F4xx_HAL_Driver/Src/stm32f4xx_ll_usb.c ****       }
 834:Drivers/STM32F4xx_HAL_Driver/Src/stm32f4xx_ll_usb.c ****       else
 835:Drivers/STM32F4xx_HAL_Driver/Src/stm32f4xx_ll_usb.c ****       {
 836:Drivers/STM32F4xx_HAL_Driver/Src/stm32f4xx_ll_usb.c ****         USBx_OUTEP(epnum)->DOEPCTL |= USB_OTG_DOEPCTL_SD0PID_SEVNFRM;
 2814              		.loc 1 836 36
 2815 0438 BB69     		ldr	r3, [r7, #24]
 2816 043a 5A01     		lsls	r2, r3, #5
 2817 043c FB69     		ldr	r3, [r7, #28]
 2818 043e 1344     		add	r3, r3, r2
 2819 0440 03F53063 		add	r3, r3, #2816
 2820 0444 1B68     		ldr	r3, [r3]
 2821 0446 BA69     		ldr	r2, [r7, #24]
 2822 0448 5101     		lsls	r1, r2, #5
 2823 044a FA69     		ldr	r2, [r7, #28]
 2824 044c 0A44     		add	r2, r2, r1
 2825 044e 02F53062 		add	r2, r2, #2816
ARM GAS  /var/folders/vq/qt4vp3kd5rxf7v2b6_fdtdt80000gn/T//ccjOke0W.s 			page 65


 2826 0452 43F08053 		orr	r3, r3, #268435456
 2827 0456 1360     		str	r3, [r2]
 2828              	.L119:
 837:Drivers/STM32F4xx_HAL_Driver/Src/stm32f4xx_ll_usb.c ****       }
 838:Drivers/STM32F4xx_HAL_Driver/Src/stm32f4xx_ll_usb.c ****     }
 839:Drivers/STM32F4xx_HAL_Driver/Src/stm32f4xx_ll_usb.c ****     /* EP enable */
 840:Drivers/STM32F4xx_HAL_Driver/Src/stm32f4xx_ll_usb.c ****     USBx_OUTEP(epnum)->DOEPCTL |= (USB_OTG_DOEPCTL_CNAK | USB_OTG_DOEPCTL_EPENA);
 2829              		.loc 1 840 32
 2830 0458 BB69     		ldr	r3, [r7, #24]
 2831 045a 5A01     		lsls	r2, r3, #5
 2832 045c FB69     		ldr	r3, [r7, #28]
 2833 045e 1344     		add	r3, r3, r2
 2834 0460 03F53063 		add	r3, r3, #2816
 2835 0464 1B68     		ldr	r3, [r3]
 2836 0466 BA69     		ldr	r2, [r7, #24]
 2837 0468 5101     		lsls	r1, r2, #5
 2838 046a FA69     		ldr	r2, [r7, #28]
 2839 046c 0A44     		add	r2, r2, r1
 2840 046e 02F53062 		add	r2, r2, #2816
 2841 0472 43F00443 		orr	r3, r3, #-2080374784
 2842 0476 1360     		str	r3, [r2]
 2843              	.L112:
 841:Drivers/STM32F4xx_HAL_Driver/Src/stm32f4xx_ll_usb.c ****   }
 842:Drivers/STM32F4xx_HAL_Driver/Src/stm32f4xx_ll_usb.c **** 
 843:Drivers/STM32F4xx_HAL_Driver/Src/stm32f4xx_ll_usb.c ****   return HAL_OK;
 2844              		.loc 1 843 10
 2845 0478 0023     		movs	r3, #0
 844:Drivers/STM32F4xx_HAL_Driver/Src/stm32f4xx_ll_usb.c **** }
 2846              		.loc 1 844 1
 2847 047a 1846     		mov	r0, r3
 2848 047c 2037     		adds	r7, r7, #32
 2849              	.LCFI90:
 2850              		.cfi_def_cfa_offset 8
 2851 047e BD46     		mov	sp, r7
 2852              	.LCFI91:
 2853              		.cfi_def_cfa_register 13
 2854              		@ sp needed
 2855 0480 80BD     		pop	{r7, pc}
 2856              	.L125:
 2857 0482 00BF     		.align	2
 2858              	.L124:
 2859 0484 0000F81F 		.word	536346624
 2860              		.cfi_endproc
 2861              	.LFE144:
 2863              		.section	.text.USB_EP0StartXfer,"ax",%progbits
 2864              		.align	1
 2865              		.global	USB_EP0StartXfer
 2866              		.syntax unified
 2867              		.thumb
 2868              		.thumb_func
 2869              		.fpu fpv4-sp-d16
 2871              	USB_EP0StartXfer:
 2872              	.LFB145:
 845:Drivers/STM32F4xx_HAL_Driver/Src/stm32f4xx_ll_usb.c **** 
 846:Drivers/STM32F4xx_HAL_Driver/Src/stm32f4xx_ll_usb.c **** /**
 847:Drivers/STM32F4xx_HAL_Driver/Src/stm32f4xx_ll_usb.c ****   * @brief  USB_EP0StartXfer : setup and starts a transfer over the EP  0
 848:Drivers/STM32F4xx_HAL_Driver/Src/stm32f4xx_ll_usb.c ****   * @param  USBx  Selected device
ARM GAS  /var/folders/vq/qt4vp3kd5rxf7v2b6_fdtdt80000gn/T//ccjOke0W.s 			page 66


 849:Drivers/STM32F4xx_HAL_Driver/Src/stm32f4xx_ll_usb.c ****   * @param  ep pointer to endpoint structure
 850:Drivers/STM32F4xx_HAL_Driver/Src/stm32f4xx_ll_usb.c ****   * @param  dma USB dma enabled or disabled
 851:Drivers/STM32F4xx_HAL_Driver/Src/stm32f4xx_ll_usb.c ****   *          This parameter can be one of these values:
 852:Drivers/STM32F4xx_HAL_Driver/Src/stm32f4xx_ll_usb.c ****   *           0 : DMA feature not used
 853:Drivers/STM32F4xx_HAL_Driver/Src/stm32f4xx_ll_usb.c ****   *           1 : DMA feature used
 854:Drivers/STM32F4xx_HAL_Driver/Src/stm32f4xx_ll_usb.c ****   * @retval HAL status
 855:Drivers/STM32F4xx_HAL_Driver/Src/stm32f4xx_ll_usb.c ****   */
 856:Drivers/STM32F4xx_HAL_Driver/Src/stm32f4xx_ll_usb.c **** HAL_StatusTypeDef USB_EP0StartXfer(USB_OTG_GlobalTypeDef *USBx, USB_OTG_EPTypeDef *ep, uint8_t dma)
 857:Drivers/STM32F4xx_HAL_Driver/Src/stm32f4xx_ll_usb.c **** {
 2873              		.loc 1 857 1
 2874              		.cfi_startproc
 2875              		@ args = 0, pretend = 0, frame = 24
 2876              		@ frame_needed = 1, uses_anonymous_args = 0
 2877              		@ link register save eliminated.
 2878 0000 80B4     		push	{r7}
 2879              	.LCFI92:
 2880              		.cfi_def_cfa_offset 4
 2881              		.cfi_offset 7, -4
 2882 0002 87B0     		sub	sp, sp, #28
 2883              	.LCFI93:
 2884              		.cfi_def_cfa_offset 32
 2885 0004 00AF     		add	r7, sp, #0
 2886              	.LCFI94:
 2887              		.cfi_def_cfa_register 7
 2888 0006 F860     		str	r0, [r7, #12]
 2889 0008 B960     		str	r1, [r7, #8]
 2890 000a 1346     		mov	r3, r2
 2891 000c FB71     		strb	r3, [r7, #7]
 858:Drivers/STM32F4xx_HAL_Driver/Src/stm32f4xx_ll_usb.c ****   uint32_t USBx_BASE = (uint32_t)USBx;
 2892              		.loc 1 858 12
 2893 000e FB68     		ldr	r3, [r7, #12]
 2894 0010 7B61     		str	r3, [r7, #20]
 859:Drivers/STM32F4xx_HAL_Driver/Src/stm32f4xx_ll_usb.c ****   uint32_t epnum = (uint32_t)ep->num;
 2895              		.loc 1 859 32
 2896 0012 BB68     		ldr	r3, [r7, #8]
 2897 0014 1B78     		ldrb	r3, [r3]	@ zero_extendqisi2
 2898              		.loc 1 859 12
 2899 0016 3B61     		str	r3, [r7, #16]
 860:Drivers/STM32F4xx_HAL_Driver/Src/stm32f4xx_ll_usb.c **** 
 861:Drivers/STM32F4xx_HAL_Driver/Src/stm32f4xx_ll_usb.c ****   /* IN endpoint */
 862:Drivers/STM32F4xx_HAL_Driver/Src/stm32f4xx_ll_usb.c ****   if (ep->is_in == 1U)
 2900              		.loc 1 862 9
 2901 0018 BB68     		ldr	r3, [r7, #8]
 2902 001a 5B78     		ldrb	r3, [r3, #1]	@ zero_extendqisi2
 2903              		.loc 1 862 6
 2904 001c 012B     		cmp	r3, #1
 2905 001e 40F0CD80 		bne	.L127
 863:Drivers/STM32F4xx_HAL_Driver/Src/stm32f4xx_ll_usb.c ****   {
 864:Drivers/STM32F4xx_HAL_Driver/Src/stm32f4xx_ll_usb.c ****     /* Zero Length Packet? */
 865:Drivers/STM32F4xx_HAL_Driver/Src/stm32f4xx_ll_usb.c ****     if (ep->xfer_len == 0U)
 2906              		.loc 1 865 11
 2907 0022 BB68     		ldr	r3, [r7, #8]
 2908 0024 5B69     		ldr	r3, [r3, #20]
 2909              		.loc 1 865 8
 2910 0026 002B     		cmp	r3, #0
 2911 0028 32D1     		bne	.L128
 866:Drivers/STM32F4xx_HAL_Driver/Src/stm32f4xx_ll_usb.c ****     {
ARM GAS  /var/folders/vq/qt4vp3kd5rxf7v2b6_fdtdt80000gn/T//ccjOke0W.s 			page 67


 867:Drivers/STM32F4xx_HAL_Driver/Src/stm32f4xx_ll_usb.c ****       USBx_INEP(epnum)->DIEPTSIZ &= ~(USB_OTG_DIEPTSIZ_PKTCNT);
 2912              		.loc 1 867 34
 2913 002a 3B69     		ldr	r3, [r7, #16]
 2914 002c 5A01     		lsls	r2, r3, #5
 2915 002e 7B69     		ldr	r3, [r7, #20]
 2916 0030 1344     		add	r3, r3, r2
 2917 0032 03F51063 		add	r3, r3, #2304
 2918 0036 1B69     		ldr	r3, [r3, #16]
 2919 0038 3A69     		ldr	r2, [r7, #16]
 2920 003a 5101     		lsls	r1, r2, #5
 2921 003c 7A69     		ldr	r2, [r7, #20]
 2922 003e 0A44     		add	r2, r2, r1
 2923 0040 02F51062 		add	r2, r2, #2304
 2924 0044 23F0FF53 		bic	r3, r3, #534773760
 2925 0048 23F4C013 		bic	r3, r3, #1572864
 2926 004c 1361     		str	r3, [r2, #16]
 868:Drivers/STM32F4xx_HAL_Driver/Src/stm32f4xx_ll_usb.c ****       USBx_INEP(epnum)->DIEPTSIZ |= (USB_OTG_DIEPTSIZ_PKTCNT & (1U << 19));
 2927              		.loc 1 868 34
 2928 004e 3B69     		ldr	r3, [r7, #16]
 2929 0050 5A01     		lsls	r2, r3, #5
 2930 0052 7B69     		ldr	r3, [r7, #20]
 2931 0054 1344     		add	r3, r3, r2
 2932 0056 03F51063 		add	r3, r3, #2304
 2933 005a 1B69     		ldr	r3, [r3, #16]
 2934 005c 3A69     		ldr	r2, [r7, #16]
 2935 005e 5101     		lsls	r1, r2, #5
 2936 0060 7A69     		ldr	r2, [r7, #20]
 2937 0062 0A44     		add	r2, r2, r1
 2938 0064 02F51062 		add	r2, r2, #2304
 2939 0068 43F40023 		orr	r3, r3, #524288
 2940 006c 1361     		str	r3, [r2, #16]
 869:Drivers/STM32F4xx_HAL_Driver/Src/stm32f4xx_ll_usb.c ****       USBx_INEP(epnum)->DIEPTSIZ &= ~(USB_OTG_DIEPTSIZ_XFRSIZ);
 2941              		.loc 1 869 34
 2942 006e 3B69     		ldr	r3, [r7, #16]
 2943 0070 5A01     		lsls	r2, r3, #5
 2944 0072 7B69     		ldr	r3, [r7, #20]
 2945 0074 1344     		add	r3, r3, r2
 2946 0076 03F51063 		add	r3, r3, #2304
 2947 007a 1B69     		ldr	r3, [r3, #16]
 2948 007c 3A69     		ldr	r2, [r7, #16]
 2949 007e 5101     		lsls	r1, r2, #5
 2950 0080 7A69     		ldr	r2, [r7, #20]
 2951 0082 0A44     		add	r2, r2, r1
 2952 0084 02F51062 		add	r2, r2, #2304
 2953 0088 DB0C     		lsrs	r3, r3, #19
 2954 008a DB04     		lsls	r3, r3, #19
 2955 008c 1361     		str	r3, [r2, #16]
 2956 008e 4EE0     		b	.L129
 2957              	.L128:
 870:Drivers/STM32F4xx_HAL_Driver/Src/stm32f4xx_ll_usb.c ****     }
 871:Drivers/STM32F4xx_HAL_Driver/Src/stm32f4xx_ll_usb.c ****     else
 872:Drivers/STM32F4xx_HAL_Driver/Src/stm32f4xx_ll_usb.c ****     {
 873:Drivers/STM32F4xx_HAL_Driver/Src/stm32f4xx_ll_usb.c ****       /* Program the transfer size and packet count
 874:Drivers/STM32F4xx_HAL_Driver/Src/stm32f4xx_ll_usb.c ****       * as follows: xfersize = N * maxpacket +
 875:Drivers/STM32F4xx_HAL_Driver/Src/stm32f4xx_ll_usb.c ****       * short_packet pktcnt = N + (short_packet
 876:Drivers/STM32F4xx_HAL_Driver/Src/stm32f4xx_ll_usb.c ****       * exist ? 1 : 0)
 877:Drivers/STM32F4xx_HAL_Driver/Src/stm32f4xx_ll_usb.c ****       */
ARM GAS  /var/folders/vq/qt4vp3kd5rxf7v2b6_fdtdt80000gn/T//ccjOke0W.s 			page 68


 878:Drivers/STM32F4xx_HAL_Driver/Src/stm32f4xx_ll_usb.c ****       USBx_INEP(epnum)->DIEPTSIZ &= ~(USB_OTG_DIEPTSIZ_XFRSIZ);
 2958              		.loc 1 878 34
 2959 0090 3B69     		ldr	r3, [r7, #16]
 2960 0092 5A01     		lsls	r2, r3, #5
 2961 0094 7B69     		ldr	r3, [r7, #20]
 2962 0096 1344     		add	r3, r3, r2
 2963 0098 03F51063 		add	r3, r3, #2304
 2964 009c 1B69     		ldr	r3, [r3, #16]
 2965 009e 3A69     		ldr	r2, [r7, #16]
 2966 00a0 5101     		lsls	r1, r2, #5
 2967 00a2 7A69     		ldr	r2, [r7, #20]
 2968 00a4 0A44     		add	r2, r2, r1
 2969 00a6 02F51062 		add	r2, r2, #2304
 2970 00aa DB0C     		lsrs	r3, r3, #19
 2971 00ac DB04     		lsls	r3, r3, #19
 2972 00ae 1361     		str	r3, [r2, #16]
 879:Drivers/STM32F4xx_HAL_Driver/Src/stm32f4xx_ll_usb.c ****       USBx_INEP(epnum)->DIEPTSIZ &= ~(USB_OTG_DIEPTSIZ_PKTCNT);
 2973              		.loc 1 879 34
 2974 00b0 3B69     		ldr	r3, [r7, #16]
 2975 00b2 5A01     		lsls	r2, r3, #5
 2976 00b4 7B69     		ldr	r3, [r7, #20]
 2977 00b6 1344     		add	r3, r3, r2
 2978 00b8 03F51063 		add	r3, r3, #2304
 2979 00bc 1B69     		ldr	r3, [r3, #16]
 2980 00be 3A69     		ldr	r2, [r7, #16]
 2981 00c0 5101     		lsls	r1, r2, #5
 2982 00c2 7A69     		ldr	r2, [r7, #20]
 2983 00c4 0A44     		add	r2, r2, r1
 2984 00c6 02F51062 		add	r2, r2, #2304
 2985 00ca 23F0FF53 		bic	r3, r3, #534773760
 2986 00ce 23F4C013 		bic	r3, r3, #1572864
 2987 00d2 1361     		str	r3, [r2, #16]
 880:Drivers/STM32F4xx_HAL_Driver/Src/stm32f4xx_ll_usb.c **** 
 881:Drivers/STM32F4xx_HAL_Driver/Src/stm32f4xx_ll_usb.c ****       if (ep->xfer_len > ep->maxpacket)
 2988              		.loc 1 881 13
 2989 00d4 BB68     		ldr	r3, [r7, #8]
 2990 00d6 5A69     		ldr	r2, [r3, #20]
 2991              		.loc 1 881 28
 2992 00d8 BB68     		ldr	r3, [r7, #8]
 2993 00da 9B68     		ldr	r3, [r3, #8]
 2994              		.loc 1 881 10
 2995 00dc 9A42     		cmp	r2, r3
 2996 00de 03D9     		bls	.L130
 882:Drivers/STM32F4xx_HAL_Driver/Src/stm32f4xx_ll_usb.c ****       {
 883:Drivers/STM32F4xx_HAL_Driver/Src/stm32f4xx_ll_usb.c ****         ep->xfer_len = ep->maxpacket;
 2997              		.loc 1 883 26
 2998 00e0 BB68     		ldr	r3, [r7, #8]
 2999 00e2 9A68     		ldr	r2, [r3, #8]
 3000              		.loc 1 883 22
 3001 00e4 BB68     		ldr	r3, [r7, #8]
 3002 00e6 5A61     		str	r2, [r3, #20]
 3003              	.L130:
 884:Drivers/STM32F4xx_HAL_Driver/Src/stm32f4xx_ll_usb.c ****       }
 885:Drivers/STM32F4xx_HAL_Driver/Src/stm32f4xx_ll_usb.c ****       USBx_INEP(epnum)->DIEPTSIZ |= (USB_OTG_DIEPTSIZ_PKTCNT & (1U << 19));
 3004              		.loc 1 885 34
 3005 00e8 3B69     		ldr	r3, [r7, #16]
 3006 00ea 5A01     		lsls	r2, r3, #5
ARM GAS  /var/folders/vq/qt4vp3kd5rxf7v2b6_fdtdt80000gn/T//ccjOke0W.s 			page 69


 3007 00ec 7B69     		ldr	r3, [r7, #20]
 3008 00ee 1344     		add	r3, r3, r2
 3009 00f0 03F51063 		add	r3, r3, #2304
 3010 00f4 1B69     		ldr	r3, [r3, #16]
 3011 00f6 3A69     		ldr	r2, [r7, #16]
 3012 00f8 5101     		lsls	r1, r2, #5
 3013 00fa 7A69     		ldr	r2, [r7, #20]
 3014 00fc 0A44     		add	r2, r2, r1
 3015 00fe 02F51062 		add	r2, r2, #2304
 3016 0102 43F40023 		orr	r3, r3, #524288
 3017 0106 1361     		str	r3, [r2, #16]
 886:Drivers/STM32F4xx_HAL_Driver/Src/stm32f4xx_ll_usb.c ****       USBx_INEP(epnum)->DIEPTSIZ |= (USB_OTG_DIEPTSIZ_XFRSIZ & ep->xfer_len);
 3018              		.loc 1 886 34
 3019 0108 3B69     		ldr	r3, [r7, #16]
 3020 010a 5A01     		lsls	r2, r3, #5
 3021 010c 7B69     		ldr	r3, [r7, #20]
 3022 010e 1344     		add	r3, r3, r2
 3023 0110 03F51063 		add	r3, r3, #2304
 3024 0114 1A69     		ldr	r2, [r3, #16]
 3025              		.loc 1 886 66
 3026 0116 BB68     		ldr	r3, [r7, #8]
 3027 0118 5B69     		ldr	r3, [r3, #20]
 3028              		.loc 1 886 62
 3029 011a C3F31203 		ubfx	r3, r3, #0, #19
 3030              		.loc 1 886 34
 3031 011e 3969     		ldr	r1, [r7, #16]
 3032 0120 4801     		lsls	r0, r1, #5
 3033 0122 7969     		ldr	r1, [r7, #20]
 3034 0124 0144     		add	r1, r1, r0
 3035 0126 01F51061 		add	r1, r1, #2304
 3036 012a 1343     		orrs	r3, r3, r2
 3037 012c 0B61     		str	r3, [r1, #16]
 3038              	.L129:
 887:Drivers/STM32F4xx_HAL_Driver/Src/stm32f4xx_ll_usb.c ****     }
 888:Drivers/STM32F4xx_HAL_Driver/Src/stm32f4xx_ll_usb.c **** 
 889:Drivers/STM32F4xx_HAL_Driver/Src/stm32f4xx_ll_usb.c ****     if (dma == 1U)
 3039              		.loc 1 889 8
 3040 012e FB79     		ldrb	r3, [r7, #7]	@ zero_extendqisi2
 3041 0130 012B     		cmp	r3, #1
 3042 0132 1ED1     		bne	.L131
 890:Drivers/STM32F4xx_HAL_Driver/Src/stm32f4xx_ll_usb.c ****     {
 891:Drivers/STM32F4xx_HAL_Driver/Src/stm32f4xx_ll_usb.c ****       if ((uint32_t)ep->dma_addr != 0U)
 3043              		.loc 1 891 23
 3044 0134 BB68     		ldr	r3, [r7, #8]
 3045 0136 1B69     		ldr	r3, [r3, #16]
 3046              		.loc 1 891 10
 3047 0138 002B     		cmp	r3, #0
 3048 013a 09D0     		beq	.L132
 892:Drivers/STM32F4xx_HAL_Driver/Src/stm32f4xx_ll_usb.c ****       {
 893:Drivers/STM32F4xx_HAL_Driver/Src/stm32f4xx_ll_usb.c ****         USBx_INEP(epnum)->DIEPDMA = (uint32_t)(ep->dma_addr);
 3049              		.loc 1 893 9
 3050 013c 3B69     		ldr	r3, [r7, #16]
 3051 013e 5A01     		lsls	r2, r3, #5
 3052 0140 7B69     		ldr	r3, [r7, #20]
 3053 0142 1344     		add	r3, r3, r2
 3054 0144 03F51063 		add	r3, r3, #2304
 3055 0148 1A46     		mov	r2, r3
ARM GAS  /var/folders/vq/qt4vp3kd5rxf7v2b6_fdtdt80000gn/T//ccjOke0W.s 			page 70


 3056              		.loc 1 893 50
 3057 014a BB68     		ldr	r3, [r7, #8]
 3058 014c 1B69     		ldr	r3, [r3, #16]
 3059              		.loc 1 893 35
 3060 014e 5361     		str	r3, [r2, #20]
 3061              	.L132:
 894:Drivers/STM32F4xx_HAL_Driver/Src/stm32f4xx_ll_usb.c ****       }
 895:Drivers/STM32F4xx_HAL_Driver/Src/stm32f4xx_ll_usb.c **** 
 896:Drivers/STM32F4xx_HAL_Driver/Src/stm32f4xx_ll_usb.c ****       /* EP enable, IN data in FIFO */
 897:Drivers/STM32F4xx_HAL_Driver/Src/stm32f4xx_ll_usb.c ****       USBx_INEP(epnum)->DIEPCTL |= (USB_OTG_DIEPCTL_CNAK | USB_OTG_DIEPCTL_EPENA);
 3062              		.loc 1 897 33
 3063 0150 3B69     		ldr	r3, [r7, #16]
 3064 0152 5A01     		lsls	r2, r3, #5
 3065 0154 7B69     		ldr	r3, [r7, #20]
 3066 0156 1344     		add	r3, r3, r2
 3067 0158 03F51063 		add	r3, r3, #2304
 3068 015c 1B68     		ldr	r3, [r3]
 3069 015e 3A69     		ldr	r2, [r7, #16]
 3070 0160 5101     		lsls	r1, r2, #5
 3071 0162 7A69     		ldr	r2, [r7, #20]
 3072 0164 0A44     		add	r2, r2, r1
 3073 0166 02F51062 		add	r2, r2, #2304
 3074 016a 43F00443 		orr	r3, r3, #-2080374784
 3075 016e 1360     		str	r3, [r2]
 3076 0170 92E0     		b	.L133
 3077              	.L131:
 898:Drivers/STM32F4xx_HAL_Driver/Src/stm32f4xx_ll_usb.c ****     }
 899:Drivers/STM32F4xx_HAL_Driver/Src/stm32f4xx_ll_usb.c ****     else
 900:Drivers/STM32F4xx_HAL_Driver/Src/stm32f4xx_ll_usb.c ****     {
 901:Drivers/STM32F4xx_HAL_Driver/Src/stm32f4xx_ll_usb.c ****       /* EP enable, IN data in FIFO */
 902:Drivers/STM32F4xx_HAL_Driver/Src/stm32f4xx_ll_usb.c ****       USBx_INEP(epnum)->DIEPCTL |= (USB_OTG_DIEPCTL_CNAK | USB_OTG_DIEPCTL_EPENA);
 3078              		.loc 1 902 33
 3079 0172 3B69     		ldr	r3, [r7, #16]
 3080 0174 5A01     		lsls	r2, r3, #5
 3081 0176 7B69     		ldr	r3, [r7, #20]
 3082 0178 1344     		add	r3, r3, r2
 3083 017a 03F51063 		add	r3, r3, #2304
 3084 017e 1B68     		ldr	r3, [r3]
 3085 0180 3A69     		ldr	r2, [r7, #16]
 3086 0182 5101     		lsls	r1, r2, #5
 3087 0184 7A69     		ldr	r2, [r7, #20]
 3088 0186 0A44     		add	r2, r2, r1
 3089 0188 02F51062 		add	r2, r2, #2304
 3090 018c 43F00443 		orr	r3, r3, #-2080374784
 3091 0190 1360     		str	r3, [r2]
 903:Drivers/STM32F4xx_HAL_Driver/Src/stm32f4xx_ll_usb.c **** 
 904:Drivers/STM32F4xx_HAL_Driver/Src/stm32f4xx_ll_usb.c ****       /* Enable the Tx FIFO Empty Interrupt for this EP */
 905:Drivers/STM32F4xx_HAL_Driver/Src/stm32f4xx_ll_usb.c ****       if (ep->xfer_len > 0U)
 3092              		.loc 1 905 13
 3093 0192 BB68     		ldr	r3, [r7, #8]
 3094 0194 5B69     		ldr	r3, [r3, #20]
 3095              		.loc 1 905 10
 3096 0196 002B     		cmp	r3, #0
 3097 0198 7ED0     		beq	.L133
 906:Drivers/STM32F4xx_HAL_Driver/Src/stm32f4xx_ll_usb.c ****       {
 907:Drivers/STM32F4xx_HAL_Driver/Src/stm32f4xx_ll_usb.c ****         USBx_DEVICE->DIEPEMPMSK |= 1UL << (ep->num & EP_ADDR_MSK);
 3098              		.loc 1 907 33
ARM GAS  /var/folders/vq/qt4vp3kd5rxf7v2b6_fdtdt80000gn/T//ccjOke0W.s 			page 71


 3099 019a 7B69     		ldr	r3, [r7, #20]
 3100 019c 03F50063 		add	r3, r3, #2048
 3101 01a0 5A6B     		ldr	r2, [r3, #52]
 3102              		.loc 1 907 46
 3103 01a2 BB68     		ldr	r3, [r7, #8]
 3104 01a4 1B78     		ldrb	r3, [r3]	@ zero_extendqisi2
 3105              		.loc 1 907 52
 3106 01a6 03F00F03 		and	r3, r3, #15
 3107              		.loc 1 907 40
 3108 01aa 0121     		movs	r1, #1
 3109 01ac 01FA03F3 		lsl	r3, r1, r3
 3110              		.loc 1 907 33
 3111 01b0 7969     		ldr	r1, [r7, #20]
 3112 01b2 01F50061 		add	r1, r1, #2048
 3113 01b6 1343     		orrs	r3, r3, r2
 3114 01b8 4B63     		str	r3, [r1, #52]
 3115 01ba 6DE0     		b	.L133
 3116              	.L127:
 908:Drivers/STM32F4xx_HAL_Driver/Src/stm32f4xx_ll_usb.c ****       }
 909:Drivers/STM32F4xx_HAL_Driver/Src/stm32f4xx_ll_usb.c ****     }
 910:Drivers/STM32F4xx_HAL_Driver/Src/stm32f4xx_ll_usb.c ****   }
 911:Drivers/STM32F4xx_HAL_Driver/Src/stm32f4xx_ll_usb.c ****   else /* OUT endpoint */
 912:Drivers/STM32F4xx_HAL_Driver/Src/stm32f4xx_ll_usb.c ****   {
 913:Drivers/STM32F4xx_HAL_Driver/Src/stm32f4xx_ll_usb.c ****     /* Program the transfer size and packet count as follows:
 914:Drivers/STM32F4xx_HAL_Driver/Src/stm32f4xx_ll_usb.c ****     * pktcnt = N
 915:Drivers/STM32F4xx_HAL_Driver/Src/stm32f4xx_ll_usb.c ****     * xfersize = N * maxpacket
 916:Drivers/STM32F4xx_HAL_Driver/Src/stm32f4xx_ll_usb.c ****     */
 917:Drivers/STM32F4xx_HAL_Driver/Src/stm32f4xx_ll_usb.c ****     USBx_OUTEP(epnum)->DOEPTSIZ &= ~(USB_OTG_DOEPTSIZ_XFRSIZ);
 3117              		.loc 1 917 33
 3118 01bc 3B69     		ldr	r3, [r7, #16]
 3119 01be 5A01     		lsls	r2, r3, #5
 3120 01c0 7B69     		ldr	r3, [r7, #20]
 3121 01c2 1344     		add	r3, r3, r2
 3122 01c4 03F53063 		add	r3, r3, #2816
 3123 01c8 1B69     		ldr	r3, [r3, #16]
 3124 01ca 3A69     		ldr	r2, [r7, #16]
 3125 01cc 5101     		lsls	r1, r2, #5
 3126 01ce 7A69     		ldr	r2, [r7, #20]
 3127 01d0 0A44     		add	r2, r2, r1
 3128 01d2 02F53062 		add	r2, r2, #2816
 3129 01d6 DB0C     		lsrs	r3, r3, #19
 3130 01d8 DB04     		lsls	r3, r3, #19
 3131 01da 1361     		str	r3, [r2, #16]
 918:Drivers/STM32F4xx_HAL_Driver/Src/stm32f4xx_ll_usb.c ****     USBx_OUTEP(epnum)->DOEPTSIZ &= ~(USB_OTG_DOEPTSIZ_PKTCNT);
 3132              		.loc 1 918 33
 3133 01dc 3B69     		ldr	r3, [r7, #16]
 3134 01de 5A01     		lsls	r2, r3, #5
 3135 01e0 7B69     		ldr	r3, [r7, #20]
 3136 01e2 1344     		add	r3, r3, r2
 3137 01e4 03F53063 		add	r3, r3, #2816
 3138 01e8 1B69     		ldr	r3, [r3, #16]
 3139 01ea 3A69     		ldr	r2, [r7, #16]
 3140 01ec 5101     		lsls	r1, r2, #5
 3141 01ee 7A69     		ldr	r2, [r7, #20]
 3142 01f0 0A44     		add	r2, r2, r1
 3143 01f2 02F53062 		add	r2, r2, #2816
 3144 01f6 23F0FF53 		bic	r3, r3, #534773760
ARM GAS  /var/folders/vq/qt4vp3kd5rxf7v2b6_fdtdt80000gn/T//ccjOke0W.s 			page 72


 3145 01fa 23F4C013 		bic	r3, r3, #1572864
 3146 01fe 1361     		str	r3, [r2, #16]
 919:Drivers/STM32F4xx_HAL_Driver/Src/stm32f4xx_ll_usb.c **** 
 920:Drivers/STM32F4xx_HAL_Driver/Src/stm32f4xx_ll_usb.c ****     if (ep->xfer_len > 0U)
 3147              		.loc 1 920 11
 3148 0200 BB68     		ldr	r3, [r7, #8]
 3149 0202 5B69     		ldr	r3, [r3, #20]
 3150              		.loc 1 920 8
 3151 0204 002B     		cmp	r3, #0
 3152 0206 03D0     		beq	.L134
 921:Drivers/STM32F4xx_HAL_Driver/Src/stm32f4xx_ll_usb.c ****     {
 922:Drivers/STM32F4xx_HAL_Driver/Src/stm32f4xx_ll_usb.c ****       ep->xfer_len = ep->maxpacket;
 3153              		.loc 1 922 24
 3154 0208 BB68     		ldr	r3, [r7, #8]
 3155 020a 9A68     		ldr	r2, [r3, #8]
 3156              		.loc 1 922 20
 3157 020c BB68     		ldr	r3, [r7, #8]
 3158 020e 5A61     		str	r2, [r3, #20]
 3159              	.L134:
 923:Drivers/STM32F4xx_HAL_Driver/Src/stm32f4xx_ll_usb.c ****     }
 924:Drivers/STM32F4xx_HAL_Driver/Src/stm32f4xx_ll_usb.c **** 
 925:Drivers/STM32F4xx_HAL_Driver/Src/stm32f4xx_ll_usb.c ****     USBx_OUTEP(epnum)->DOEPTSIZ |= (USB_OTG_DOEPTSIZ_PKTCNT & (1U << 19));
 3160              		.loc 1 925 33
 3161 0210 3B69     		ldr	r3, [r7, #16]
 3162 0212 5A01     		lsls	r2, r3, #5
 3163 0214 7B69     		ldr	r3, [r7, #20]
 3164 0216 1344     		add	r3, r3, r2
 3165 0218 03F53063 		add	r3, r3, #2816
 3166 021c 1B69     		ldr	r3, [r3, #16]
 3167 021e 3A69     		ldr	r2, [r7, #16]
 3168 0220 5101     		lsls	r1, r2, #5
 3169 0222 7A69     		ldr	r2, [r7, #20]
 3170 0224 0A44     		add	r2, r2, r1
 3171 0226 02F53062 		add	r2, r2, #2816
 3172 022a 43F40023 		orr	r3, r3, #524288
 3173 022e 1361     		str	r3, [r2, #16]
 926:Drivers/STM32F4xx_HAL_Driver/Src/stm32f4xx_ll_usb.c ****     USBx_OUTEP(epnum)->DOEPTSIZ |= (USB_OTG_DOEPTSIZ_XFRSIZ & (ep->maxpacket));
 3174              		.loc 1 926 33
 3175 0230 3B69     		ldr	r3, [r7, #16]
 3176 0232 5A01     		lsls	r2, r3, #5
 3177 0234 7B69     		ldr	r3, [r7, #20]
 3178 0236 1344     		add	r3, r3, r2
 3179 0238 03F53063 		add	r3, r3, #2816
 3180 023c 1A69     		ldr	r2, [r3, #16]
 3181              		.loc 1 926 66
 3182 023e BB68     		ldr	r3, [r7, #8]
 3183 0240 9B68     		ldr	r3, [r3, #8]
 3184              		.loc 1 926 61
 3185 0242 C3F31203 		ubfx	r3, r3, #0, #19
 3186              		.loc 1 926 33
 3187 0246 3969     		ldr	r1, [r7, #16]
 3188 0248 4801     		lsls	r0, r1, #5
 3189 024a 7969     		ldr	r1, [r7, #20]
 3190 024c 0144     		add	r1, r1, r0
 3191 024e 01F53061 		add	r1, r1, #2816
 3192 0252 1343     		orrs	r3, r3, r2
 3193 0254 0B61     		str	r3, [r1, #16]
ARM GAS  /var/folders/vq/qt4vp3kd5rxf7v2b6_fdtdt80000gn/T//ccjOke0W.s 			page 73


 927:Drivers/STM32F4xx_HAL_Driver/Src/stm32f4xx_ll_usb.c **** 
 928:Drivers/STM32F4xx_HAL_Driver/Src/stm32f4xx_ll_usb.c ****     if (dma == 1U)
 3194              		.loc 1 928 8
 3195 0256 FB79     		ldrb	r3, [r7, #7]	@ zero_extendqisi2
 3196 0258 012B     		cmp	r3, #1
 3197 025a 0DD1     		bne	.L135
 929:Drivers/STM32F4xx_HAL_Driver/Src/stm32f4xx_ll_usb.c ****     {
 930:Drivers/STM32F4xx_HAL_Driver/Src/stm32f4xx_ll_usb.c ****       if ((uint32_t)ep->xfer_buff != 0U)
 3198              		.loc 1 930 23
 3199 025c BB68     		ldr	r3, [r7, #8]
 3200 025e DB68     		ldr	r3, [r3, #12]
 3201              		.loc 1 930 10
 3202 0260 002B     		cmp	r3, #0
 3203 0262 09D0     		beq	.L135
 931:Drivers/STM32F4xx_HAL_Driver/Src/stm32f4xx_ll_usb.c ****       {
 932:Drivers/STM32F4xx_HAL_Driver/Src/stm32f4xx_ll_usb.c ****         USBx_OUTEP(epnum)->DOEPDMA = (uint32_t)(ep->xfer_buff);
 3204              		.loc 1 932 51
 3205 0264 BB68     		ldr	r3, [r7, #8]
 3206 0266 D968     		ldr	r1, [r3, #12]
 3207              		.loc 1 932 9
 3208 0268 3B69     		ldr	r3, [r7, #16]
 3209 026a 5A01     		lsls	r2, r3, #5
 3210 026c 7B69     		ldr	r3, [r7, #20]
 3211 026e 1344     		add	r3, r3, r2
 3212 0270 03F53063 		add	r3, r3, #2816
 3213              		.loc 1 932 38
 3214 0274 0A46     		mov	r2, r1
 3215              		.loc 1 932 36
 3216 0276 5A61     		str	r2, [r3, #20]
 3217              	.L135:
 933:Drivers/STM32F4xx_HAL_Driver/Src/stm32f4xx_ll_usb.c ****       }
 934:Drivers/STM32F4xx_HAL_Driver/Src/stm32f4xx_ll_usb.c ****     }
 935:Drivers/STM32F4xx_HAL_Driver/Src/stm32f4xx_ll_usb.c **** 
 936:Drivers/STM32F4xx_HAL_Driver/Src/stm32f4xx_ll_usb.c ****     /* EP enable */
 937:Drivers/STM32F4xx_HAL_Driver/Src/stm32f4xx_ll_usb.c ****     USBx_OUTEP(epnum)->DOEPCTL |= (USB_OTG_DOEPCTL_CNAK | USB_OTG_DOEPCTL_EPENA);
 3218              		.loc 1 937 32
 3219 0278 3B69     		ldr	r3, [r7, #16]
 3220 027a 5A01     		lsls	r2, r3, #5
 3221 027c 7B69     		ldr	r3, [r7, #20]
 3222 027e 1344     		add	r3, r3, r2
 3223 0280 03F53063 		add	r3, r3, #2816
 3224 0284 1B68     		ldr	r3, [r3]
 3225 0286 3A69     		ldr	r2, [r7, #16]
 3226 0288 5101     		lsls	r1, r2, #5
 3227 028a 7A69     		ldr	r2, [r7, #20]
 3228 028c 0A44     		add	r2, r2, r1
 3229 028e 02F53062 		add	r2, r2, #2816
 3230 0292 43F00443 		orr	r3, r3, #-2080374784
 3231 0296 1360     		str	r3, [r2]
 3232              	.L133:
 938:Drivers/STM32F4xx_HAL_Driver/Src/stm32f4xx_ll_usb.c ****   }
 939:Drivers/STM32F4xx_HAL_Driver/Src/stm32f4xx_ll_usb.c **** 
 940:Drivers/STM32F4xx_HAL_Driver/Src/stm32f4xx_ll_usb.c ****   return HAL_OK;
 3233              		.loc 1 940 10
 3234 0298 0023     		movs	r3, #0
 941:Drivers/STM32F4xx_HAL_Driver/Src/stm32f4xx_ll_usb.c **** }
 3235              		.loc 1 941 1
ARM GAS  /var/folders/vq/qt4vp3kd5rxf7v2b6_fdtdt80000gn/T//ccjOke0W.s 			page 74


 3236 029a 1846     		mov	r0, r3
 3237 029c 1C37     		adds	r7, r7, #28
 3238              	.LCFI95:
 3239              		.cfi_def_cfa_offset 4
 3240 029e BD46     		mov	sp, r7
 3241              	.LCFI96:
 3242              		.cfi_def_cfa_register 13
 3243              		@ sp needed
 3244 02a0 5DF8047B 		ldr	r7, [sp], #4
 3245              	.LCFI97:
 3246              		.cfi_restore 7
 3247              		.cfi_def_cfa_offset 0
 3248 02a4 7047     		bx	lr
 3249              		.cfi_endproc
 3250              	.LFE145:
 3252              		.section	.text.USB_WritePacket,"ax",%progbits
 3253              		.align	1
 3254              		.global	USB_WritePacket
 3255              		.syntax unified
 3256              		.thumb
 3257              		.thumb_func
 3258              		.fpu fpv4-sp-d16
 3260              	USB_WritePacket:
 3261              	.LFB146:
 942:Drivers/STM32F4xx_HAL_Driver/Src/stm32f4xx_ll_usb.c **** 
 943:Drivers/STM32F4xx_HAL_Driver/Src/stm32f4xx_ll_usb.c **** /**
 944:Drivers/STM32F4xx_HAL_Driver/Src/stm32f4xx_ll_usb.c ****   * @brief  USB_WritePacket : Writes a packet into the Tx FIFO associated
 945:Drivers/STM32F4xx_HAL_Driver/Src/stm32f4xx_ll_usb.c ****   *         with the EP/channel
 946:Drivers/STM32F4xx_HAL_Driver/Src/stm32f4xx_ll_usb.c ****   * @param  USBx  Selected device
 947:Drivers/STM32F4xx_HAL_Driver/Src/stm32f4xx_ll_usb.c ****   * @param  src   pointer to source buffer
 948:Drivers/STM32F4xx_HAL_Driver/Src/stm32f4xx_ll_usb.c ****   * @param  ch_ep_num  endpoint or host channel number
 949:Drivers/STM32F4xx_HAL_Driver/Src/stm32f4xx_ll_usb.c ****   * @param  len  Number of bytes to write
 950:Drivers/STM32F4xx_HAL_Driver/Src/stm32f4xx_ll_usb.c ****   * @param  dma USB dma enabled or disabled
 951:Drivers/STM32F4xx_HAL_Driver/Src/stm32f4xx_ll_usb.c ****   *          This parameter can be one of these values:
 952:Drivers/STM32F4xx_HAL_Driver/Src/stm32f4xx_ll_usb.c ****   *           0 : DMA feature not used
 953:Drivers/STM32F4xx_HAL_Driver/Src/stm32f4xx_ll_usb.c ****   *           1 : DMA feature used
 954:Drivers/STM32F4xx_HAL_Driver/Src/stm32f4xx_ll_usb.c ****   * @retval HAL status
 955:Drivers/STM32F4xx_HAL_Driver/Src/stm32f4xx_ll_usb.c ****   */
 956:Drivers/STM32F4xx_HAL_Driver/Src/stm32f4xx_ll_usb.c **** HAL_StatusTypeDef USB_WritePacket(USB_OTG_GlobalTypeDef *USBx, uint8_t *src,
 957:Drivers/STM32F4xx_HAL_Driver/Src/stm32f4xx_ll_usb.c ****                                   uint8_t ch_ep_num, uint16_t len, uint8_t dma)
 958:Drivers/STM32F4xx_HAL_Driver/Src/stm32f4xx_ll_usb.c **** {
 3262              		.loc 1 958 1
 3263              		.cfi_startproc
 3264              		@ args = 4, pretend = 0, frame = 32
 3265              		@ frame_needed = 1, uses_anonymous_args = 0
 3266              		@ link register save eliminated.
 3267 0000 80B4     		push	{r7}
 3268              	.LCFI98:
 3269              		.cfi_def_cfa_offset 4
 3270              		.cfi_offset 7, -4
 3271 0002 89B0     		sub	sp, sp, #36
 3272              	.LCFI99:
 3273              		.cfi_def_cfa_offset 40
 3274 0004 00AF     		add	r7, sp, #0
 3275              	.LCFI100:
 3276              		.cfi_def_cfa_register 7
 3277 0006 F860     		str	r0, [r7, #12]
ARM GAS  /var/folders/vq/qt4vp3kd5rxf7v2b6_fdtdt80000gn/T//ccjOke0W.s 			page 75


 3278 0008 B960     		str	r1, [r7, #8]
 3279 000a 1146     		mov	r1, r2
 3280 000c 1A46     		mov	r2, r3
 3281 000e 0B46     		mov	r3, r1
 3282 0010 FB71     		strb	r3, [r7, #7]
 3283 0012 1346     		mov	r3, r2	@ movhi
 3284 0014 BB80     		strh	r3, [r7, #4]	@ movhi
 959:Drivers/STM32F4xx_HAL_Driver/Src/stm32f4xx_ll_usb.c ****   uint32_t USBx_BASE = (uint32_t)USBx;
 3285              		.loc 1 959 12
 3286 0016 FB68     		ldr	r3, [r7, #12]
 3287 0018 7B61     		str	r3, [r7, #20]
 960:Drivers/STM32F4xx_HAL_Driver/Src/stm32f4xx_ll_usb.c ****   uint32_t *pSrc = (uint32_t *)src;
 3288              		.loc 1 960 13
 3289 001a BB68     		ldr	r3, [r7, #8]
 3290 001c FB61     		str	r3, [r7, #28]
 961:Drivers/STM32F4xx_HAL_Driver/Src/stm32f4xx_ll_usb.c ****   uint32_t count32b, i;
 962:Drivers/STM32F4xx_HAL_Driver/Src/stm32f4xx_ll_usb.c **** 
 963:Drivers/STM32F4xx_HAL_Driver/Src/stm32f4xx_ll_usb.c ****   if (dma == 0U)
 3291              		.loc 1 963 6
 3292 001e 97F82830 		ldrb	r3, [r7, #40]	@ zero_extendqisi2
 3293 0022 002B     		cmp	r3, #0
 3294 0024 1AD1     		bne	.L138
 964:Drivers/STM32F4xx_HAL_Driver/Src/stm32f4xx_ll_usb.c ****   {
 965:Drivers/STM32F4xx_HAL_Driver/Src/stm32f4xx_ll_usb.c ****     count32b = ((uint32_t)len + 3U) / 4U;
 3295              		.loc 1 965 17
 3296 0026 BB88     		ldrh	r3, [r7, #4]
 3297              		.loc 1 965 31
 3298 0028 0333     		adds	r3, r3, #3
 3299              		.loc 1 965 14
 3300 002a 9B08     		lsrs	r3, r3, #2
 3301 002c 3B61     		str	r3, [r7, #16]
 966:Drivers/STM32F4xx_HAL_Driver/Src/stm32f4xx_ll_usb.c ****     for (i = 0U; i < count32b; i++)
 3302              		.loc 1 966 12
 3303 002e 0023     		movs	r3, #0
 3304 0030 BB61     		str	r3, [r7, #24]
 3305              		.loc 1 966 5
 3306 0032 0FE0     		b	.L139
 3307              	.L140:
 967:Drivers/STM32F4xx_HAL_Driver/Src/stm32f4xx_ll_usb.c ****     {
 968:Drivers/STM32F4xx_HAL_Driver/Src/stm32f4xx_ll_usb.c ****       USBx_DFIFO((uint32_t)ch_ep_num) = __UNALIGNED_UINT32_READ(pSrc);
 3308              		.loc 1 968 7 discriminator 3
 3309 0034 FB79     		ldrb	r3, [r7, #7]	@ zero_extendqisi2
 3310 0036 1A03     		lsls	r2, r3, #12
 3311 0038 7B69     		ldr	r3, [r7, #20]
 3312 003a 1344     		add	r3, r3, r2
 3313 003c 03F58053 		add	r3, r3, #4096
 3314 0040 1A46     		mov	r2, r3
 3315              		.loc 1 968 41 discriminator 3
 3316 0042 FB69     		ldr	r3, [r7, #28]
 3317 0044 1B68     		ldr	r3, [r3]	@ unaligned
 3318              		.loc 1 968 39 discriminator 3
 3319 0046 1360     		str	r3, [r2]
 969:Drivers/STM32F4xx_HAL_Driver/Src/stm32f4xx_ll_usb.c ****       pSrc++;
 3320              		.loc 1 969 11 discriminator 3
 3321 0048 FB69     		ldr	r3, [r7, #28]
 3322 004a 0433     		adds	r3, r3, #4
 3323 004c FB61     		str	r3, [r7, #28]
ARM GAS  /var/folders/vq/qt4vp3kd5rxf7v2b6_fdtdt80000gn/T//ccjOke0W.s 			page 76


 966:Drivers/STM32F4xx_HAL_Driver/Src/stm32f4xx_ll_usb.c ****     for (i = 0U; i < count32b; i++)
 3324              		.loc 1 966 33 discriminator 3
 3325 004e BB69     		ldr	r3, [r7, #24]
 3326 0050 0133     		adds	r3, r3, #1
 3327 0052 BB61     		str	r3, [r7, #24]
 3328              	.L139:
 966:Drivers/STM32F4xx_HAL_Driver/Src/stm32f4xx_ll_usb.c ****     for (i = 0U; i < count32b; i++)
 3329              		.loc 1 966 5 discriminator 1
 3330 0054 BA69     		ldr	r2, [r7, #24]
 3331 0056 3B69     		ldr	r3, [r7, #16]
 3332 0058 9A42     		cmp	r2, r3
 3333 005a EBD3     		bcc	.L140
 3334              	.L138:
 970:Drivers/STM32F4xx_HAL_Driver/Src/stm32f4xx_ll_usb.c ****     }
 971:Drivers/STM32F4xx_HAL_Driver/Src/stm32f4xx_ll_usb.c ****   }
 972:Drivers/STM32F4xx_HAL_Driver/Src/stm32f4xx_ll_usb.c **** 
 973:Drivers/STM32F4xx_HAL_Driver/Src/stm32f4xx_ll_usb.c ****   return HAL_OK;
 3335              		.loc 1 973 10
 3336 005c 0023     		movs	r3, #0
 974:Drivers/STM32F4xx_HAL_Driver/Src/stm32f4xx_ll_usb.c **** }
 3337              		.loc 1 974 1
 3338 005e 1846     		mov	r0, r3
 3339 0060 2437     		adds	r7, r7, #36
 3340              	.LCFI101:
 3341              		.cfi_def_cfa_offset 4
 3342 0062 BD46     		mov	sp, r7
 3343              	.LCFI102:
 3344              		.cfi_def_cfa_register 13
 3345              		@ sp needed
 3346 0064 5DF8047B 		ldr	r7, [sp], #4
 3347              	.LCFI103:
 3348              		.cfi_restore 7
 3349              		.cfi_def_cfa_offset 0
 3350 0068 7047     		bx	lr
 3351              		.cfi_endproc
 3352              	.LFE146:
 3354              		.section	.text.USB_ReadPacket,"ax",%progbits
 3355              		.align	1
 3356              		.global	USB_ReadPacket
 3357              		.syntax unified
 3358              		.thumb
 3359              		.thumb_func
 3360              		.fpu fpv4-sp-d16
 3362              	USB_ReadPacket:
 3363              	.LFB147:
 975:Drivers/STM32F4xx_HAL_Driver/Src/stm32f4xx_ll_usb.c **** 
 976:Drivers/STM32F4xx_HAL_Driver/Src/stm32f4xx_ll_usb.c **** /**
 977:Drivers/STM32F4xx_HAL_Driver/Src/stm32f4xx_ll_usb.c ****   * @brief  USB_ReadPacket : read a packet from the RX FIFO
 978:Drivers/STM32F4xx_HAL_Driver/Src/stm32f4xx_ll_usb.c ****   * @param  USBx  Selected device
 979:Drivers/STM32F4xx_HAL_Driver/Src/stm32f4xx_ll_usb.c ****   * @param  dest  source pointer
 980:Drivers/STM32F4xx_HAL_Driver/Src/stm32f4xx_ll_usb.c ****   * @param  len  Number of bytes to read
 981:Drivers/STM32F4xx_HAL_Driver/Src/stm32f4xx_ll_usb.c ****   * @retval pointer to destination buffer
 982:Drivers/STM32F4xx_HAL_Driver/Src/stm32f4xx_ll_usb.c ****   */
 983:Drivers/STM32F4xx_HAL_Driver/Src/stm32f4xx_ll_usb.c **** void *USB_ReadPacket(USB_OTG_GlobalTypeDef *USBx, uint8_t *dest, uint16_t len)
 984:Drivers/STM32F4xx_HAL_Driver/Src/stm32f4xx_ll_usb.c **** {
 3364              		.loc 1 984 1
 3365              		.cfi_startproc
ARM GAS  /var/folders/vq/qt4vp3kd5rxf7v2b6_fdtdt80000gn/T//ccjOke0W.s 			page 77


 3366              		@ args = 0, pretend = 0, frame = 32
 3367              		@ frame_needed = 1, uses_anonymous_args = 0
 3368              		@ link register save eliminated.
 3369 0000 80B4     		push	{r7}
 3370              	.LCFI104:
 3371              		.cfi_def_cfa_offset 4
 3372              		.cfi_offset 7, -4
 3373 0002 89B0     		sub	sp, sp, #36
 3374              	.LCFI105:
 3375              		.cfi_def_cfa_offset 40
 3376 0004 00AF     		add	r7, sp, #0
 3377              	.LCFI106:
 3378              		.cfi_def_cfa_register 7
 3379 0006 F860     		str	r0, [r7, #12]
 3380 0008 B960     		str	r1, [r7, #8]
 3381 000a 1346     		mov	r3, r2
 3382 000c FB80     		strh	r3, [r7, #6]	@ movhi
 985:Drivers/STM32F4xx_HAL_Driver/Src/stm32f4xx_ll_usb.c ****   uint32_t USBx_BASE = (uint32_t)USBx;
 3383              		.loc 1 985 12
 3384 000e FB68     		ldr	r3, [r7, #12]
 3385 0010 7B61     		str	r3, [r7, #20]
 986:Drivers/STM32F4xx_HAL_Driver/Src/stm32f4xx_ll_usb.c ****   uint32_t *pDest = (uint32_t *)dest;
 3386              		.loc 1 986 13
 3387 0012 BB68     		ldr	r3, [r7, #8]
 3388 0014 FB61     		str	r3, [r7, #28]
 987:Drivers/STM32F4xx_HAL_Driver/Src/stm32f4xx_ll_usb.c ****   uint32_t i;
 988:Drivers/STM32F4xx_HAL_Driver/Src/stm32f4xx_ll_usb.c ****   uint32_t count32b = ((uint32_t)len + 3U) / 4U;
 3389              		.loc 1 988 24
 3390 0016 FB88     		ldrh	r3, [r7, #6]
 3391              		.loc 1 988 38
 3392 0018 0333     		adds	r3, r3, #3
 3393              		.loc 1 988 12
 3394 001a 9B08     		lsrs	r3, r3, #2
 3395 001c 3B61     		str	r3, [r7, #16]
 989:Drivers/STM32F4xx_HAL_Driver/Src/stm32f4xx_ll_usb.c **** 
 990:Drivers/STM32F4xx_HAL_Driver/Src/stm32f4xx_ll_usb.c ****   for (i = 0U; i < count32b; i++)
 3396              		.loc 1 990 10
 3397 001e 0023     		movs	r3, #0
 3398 0020 BB61     		str	r3, [r7, #24]
 3399              		.loc 1 990 3
 3400 0022 0BE0     		b	.L143
 3401              	.L144:
 991:Drivers/STM32F4xx_HAL_Driver/Src/stm32f4xx_ll_usb.c ****   {
 992:Drivers/STM32F4xx_HAL_Driver/Src/stm32f4xx_ll_usb.c ****     __UNALIGNED_UINT32_WRITE(pDest, USBx_DFIFO(0U));
 3402              		.loc 1 992 5 discriminator 3
 3403 0024 7B69     		ldr	r3, [r7, #20]
 3404 0026 03F58053 		add	r3, r3, #4096
 3405 002a 1A68     		ldr	r2, [r3]
 3406 002c FB69     		ldr	r3, [r7, #28]
 3407 002e 1A60     		str	r2, [r3]	@ unaligned
 993:Drivers/STM32F4xx_HAL_Driver/Src/stm32f4xx_ll_usb.c ****     pDest++;
 3408              		.loc 1 993 10 discriminator 3
 3409 0030 FB69     		ldr	r3, [r7, #28]
 3410 0032 0433     		adds	r3, r3, #4
 3411 0034 FB61     		str	r3, [r7, #28]
 990:Drivers/STM32F4xx_HAL_Driver/Src/stm32f4xx_ll_usb.c ****   {
 3412              		.loc 1 990 31 discriminator 3
ARM GAS  /var/folders/vq/qt4vp3kd5rxf7v2b6_fdtdt80000gn/T//ccjOke0W.s 			page 78


 3413 0036 BB69     		ldr	r3, [r7, #24]
 3414 0038 0133     		adds	r3, r3, #1
 3415 003a BB61     		str	r3, [r7, #24]
 3416              	.L143:
 990:Drivers/STM32F4xx_HAL_Driver/Src/stm32f4xx_ll_usb.c ****   {
 3417              		.loc 1 990 3 discriminator 1
 3418 003c BA69     		ldr	r2, [r7, #24]
 3419 003e 3B69     		ldr	r3, [r7, #16]
 3420 0040 9A42     		cmp	r2, r3
 3421 0042 EFD3     		bcc	.L144
 994:Drivers/STM32F4xx_HAL_Driver/Src/stm32f4xx_ll_usb.c ****   }
 995:Drivers/STM32F4xx_HAL_Driver/Src/stm32f4xx_ll_usb.c **** 
 996:Drivers/STM32F4xx_HAL_Driver/Src/stm32f4xx_ll_usb.c ****   return ((void *)pDest);
 3422              		.loc 1 996 11
 3423 0044 FB69     		ldr	r3, [r7, #28]
 997:Drivers/STM32F4xx_HAL_Driver/Src/stm32f4xx_ll_usb.c **** }
 3424              		.loc 1 997 1
 3425 0046 1846     		mov	r0, r3
 3426 0048 2437     		adds	r7, r7, #36
 3427              	.LCFI107:
 3428              		.cfi_def_cfa_offset 4
 3429 004a BD46     		mov	sp, r7
 3430              	.LCFI108:
 3431              		.cfi_def_cfa_register 13
 3432              		@ sp needed
 3433 004c 5DF8047B 		ldr	r7, [sp], #4
 3434              	.LCFI109:
 3435              		.cfi_restore 7
 3436              		.cfi_def_cfa_offset 0
 3437 0050 7047     		bx	lr
 3438              		.cfi_endproc
 3439              	.LFE147:
 3441              		.section	.text.USB_EPSetStall,"ax",%progbits
 3442              		.align	1
 3443              		.global	USB_EPSetStall
 3444              		.syntax unified
 3445              		.thumb
 3446              		.thumb_func
 3447              		.fpu fpv4-sp-d16
 3449              	USB_EPSetStall:
 3450              	.LFB148:
 998:Drivers/STM32F4xx_HAL_Driver/Src/stm32f4xx_ll_usb.c **** 
 999:Drivers/STM32F4xx_HAL_Driver/Src/stm32f4xx_ll_usb.c **** /**
1000:Drivers/STM32F4xx_HAL_Driver/Src/stm32f4xx_ll_usb.c ****   * @brief  USB_EPSetStall : set a stall condition over an EP
1001:Drivers/STM32F4xx_HAL_Driver/Src/stm32f4xx_ll_usb.c ****   * @param  USBx  Selected device
1002:Drivers/STM32F4xx_HAL_Driver/Src/stm32f4xx_ll_usb.c ****   * @param  ep pointer to endpoint structure
1003:Drivers/STM32F4xx_HAL_Driver/Src/stm32f4xx_ll_usb.c ****   * @retval HAL status
1004:Drivers/STM32F4xx_HAL_Driver/Src/stm32f4xx_ll_usb.c ****   */
1005:Drivers/STM32F4xx_HAL_Driver/Src/stm32f4xx_ll_usb.c **** HAL_StatusTypeDef USB_EPSetStall(USB_OTG_GlobalTypeDef *USBx, USB_OTG_EPTypeDef *ep)
1006:Drivers/STM32F4xx_HAL_Driver/Src/stm32f4xx_ll_usb.c **** {
 3451              		.loc 1 1006 1
 3452              		.cfi_startproc
 3453              		@ args = 0, pretend = 0, frame = 16
 3454              		@ frame_needed = 1, uses_anonymous_args = 0
 3455              		@ link register save eliminated.
 3456 0000 80B4     		push	{r7}
 3457              	.LCFI110:
ARM GAS  /var/folders/vq/qt4vp3kd5rxf7v2b6_fdtdt80000gn/T//ccjOke0W.s 			page 79


 3458              		.cfi_def_cfa_offset 4
 3459              		.cfi_offset 7, -4
 3460 0002 85B0     		sub	sp, sp, #20
 3461              	.LCFI111:
 3462              		.cfi_def_cfa_offset 24
 3463 0004 00AF     		add	r7, sp, #0
 3464              	.LCFI112:
 3465              		.cfi_def_cfa_register 7
 3466 0006 7860     		str	r0, [r7, #4]
 3467 0008 3960     		str	r1, [r7]
1007:Drivers/STM32F4xx_HAL_Driver/Src/stm32f4xx_ll_usb.c ****   uint32_t USBx_BASE = (uint32_t)USBx;
 3468              		.loc 1 1007 12
 3469 000a 7B68     		ldr	r3, [r7, #4]
 3470 000c FB60     		str	r3, [r7, #12]
1008:Drivers/STM32F4xx_HAL_Driver/Src/stm32f4xx_ll_usb.c ****   uint32_t epnum = (uint32_t)ep->num;
 3471              		.loc 1 1008 32
 3472 000e 3B68     		ldr	r3, [r7]
 3473 0010 1B78     		ldrb	r3, [r3]	@ zero_extendqisi2
 3474              		.loc 1 1008 12
 3475 0012 BB60     		str	r3, [r7, #8]
1009:Drivers/STM32F4xx_HAL_Driver/Src/stm32f4xx_ll_usb.c **** 
1010:Drivers/STM32F4xx_HAL_Driver/Src/stm32f4xx_ll_usb.c ****   if (ep->is_in == 1U)
 3476              		.loc 1 1010 9
 3477 0014 3B68     		ldr	r3, [r7]
 3478 0016 5B78     		ldrb	r3, [r3, #1]	@ zero_extendqisi2
 3479              		.loc 1 1010 6
 3480 0018 012B     		cmp	r3, #1
 3481 001a 2CD1     		bne	.L147
1011:Drivers/STM32F4xx_HAL_Driver/Src/stm32f4xx_ll_usb.c ****   {
1012:Drivers/STM32F4xx_HAL_Driver/Src/stm32f4xx_ll_usb.c ****     if (((USBx_INEP(epnum)->DIEPCTL & USB_OTG_DIEPCTL_EPENA) == 0U) && (epnum != 0U))
 3482              		.loc 1 1012 11
 3483 001c BB68     		ldr	r3, [r7, #8]
 3484 001e 5A01     		lsls	r2, r3, #5
 3485 0020 FB68     		ldr	r3, [r7, #12]
 3486 0022 1344     		add	r3, r3, r2
 3487 0024 03F51063 		add	r3, r3, #2304
 3488              		.loc 1 1012 27
 3489 0028 1B68     		ldr	r3, [r3]
 3490              		.loc 1 1012 8
 3491 002a 002B     		cmp	r3, #0
 3492 002c 12DB     		blt	.L148
 3493              		.loc 1 1012 69 discriminator 1
 3494 002e BB68     		ldr	r3, [r7, #8]
 3495 0030 002B     		cmp	r3, #0
 3496 0032 0FD0     		beq	.L148
1013:Drivers/STM32F4xx_HAL_Driver/Src/stm32f4xx_ll_usb.c ****     {
1014:Drivers/STM32F4xx_HAL_Driver/Src/stm32f4xx_ll_usb.c ****       USBx_INEP(epnum)->DIEPCTL &= ~(USB_OTG_DIEPCTL_EPDIS);
 3497              		.loc 1 1014 33
 3498 0034 BB68     		ldr	r3, [r7, #8]
 3499 0036 5A01     		lsls	r2, r3, #5
 3500 0038 FB68     		ldr	r3, [r7, #12]
 3501 003a 1344     		add	r3, r3, r2
 3502 003c 03F51063 		add	r3, r3, #2304
 3503 0040 1B68     		ldr	r3, [r3]
 3504 0042 BA68     		ldr	r2, [r7, #8]
 3505 0044 5101     		lsls	r1, r2, #5
 3506 0046 FA68     		ldr	r2, [r7, #12]
ARM GAS  /var/folders/vq/qt4vp3kd5rxf7v2b6_fdtdt80000gn/T//ccjOke0W.s 			page 80


 3507 0048 0A44     		add	r2, r2, r1
 3508 004a 02F51062 		add	r2, r2, #2304
 3509 004e 23F08043 		bic	r3, r3, #1073741824
 3510 0052 1360     		str	r3, [r2]
 3511              	.L148:
1015:Drivers/STM32F4xx_HAL_Driver/Src/stm32f4xx_ll_usb.c ****     }
1016:Drivers/STM32F4xx_HAL_Driver/Src/stm32f4xx_ll_usb.c ****     USBx_INEP(epnum)->DIEPCTL |= USB_OTG_DIEPCTL_STALL;
 3512              		.loc 1 1016 31
 3513 0054 BB68     		ldr	r3, [r7, #8]
 3514 0056 5A01     		lsls	r2, r3, #5
 3515 0058 FB68     		ldr	r3, [r7, #12]
 3516 005a 1344     		add	r3, r3, r2
 3517 005c 03F51063 		add	r3, r3, #2304
 3518 0060 1B68     		ldr	r3, [r3]
 3519 0062 BA68     		ldr	r2, [r7, #8]
 3520 0064 5101     		lsls	r1, r2, #5
 3521 0066 FA68     		ldr	r2, [r7, #12]
 3522 0068 0A44     		add	r2, r2, r1
 3523 006a 02F51062 		add	r2, r2, #2304
 3524 006e 43F40013 		orr	r3, r3, #2097152
 3525 0072 1360     		str	r3, [r2]
 3526 0074 2BE0     		b	.L149
 3527              	.L147:
1017:Drivers/STM32F4xx_HAL_Driver/Src/stm32f4xx_ll_usb.c ****   }
1018:Drivers/STM32F4xx_HAL_Driver/Src/stm32f4xx_ll_usb.c ****   else
1019:Drivers/STM32F4xx_HAL_Driver/Src/stm32f4xx_ll_usb.c ****   {
1020:Drivers/STM32F4xx_HAL_Driver/Src/stm32f4xx_ll_usb.c ****     if (((USBx_OUTEP(epnum)->DOEPCTL & USB_OTG_DOEPCTL_EPENA) == 0U) && (epnum != 0U))
 3528              		.loc 1 1020 11
 3529 0076 BB68     		ldr	r3, [r7, #8]
 3530 0078 5A01     		lsls	r2, r3, #5
 3531 007a FB68     		ldr	r3, [r7, #12]
 3532 007c 1344     		add	r3, r3, r2
 3533 007e 03F53063 		add	r3, r3, #2816
 3534              		.loc 1 1020 28
 3535 0082 1B68     		ldr	r3, [r3]
 3536              		.loc 1 1020 8
 3537 0084 002B     		cmp	r3, #0
 3538 0086 12DB     		blt	.L150
 3539              		.loc 1 1020 70 discriminator 1
 3540 0088 BB68     		ldr	r3, [r7, #8]
 3541 008a 002B     		cmp	r3, #0
 3542 008c 0FD0     		beq	.L150
1021:Drivers/STM32F4xx_HAL_Driver/Src/stm32f4xx_ll_usb.c ****     {
1022:Drivers/STM32F4xx_HAL_Driver/Src/stm32f4xx_ll_usb.c ****       USBx_OUTEP(epnum)->DOEPCTL &= ~(USB_OTG_DOEPCTL_EPDIS);
 3543              		.loc 1 1022 34
 3544 008e BB68     		ldr	r3, [r7, #8]
 3545 0090 5A01     		lsls	r2, r3, #5
 3546 0092 FB68     		ldr	r3, [r7, #12]
 3547 0094 1344     		add	r3, r3, r2
 3548 0096 03F53063 		add	r3, r3, #2816
 3549 009a 1B68     		ldr	r3, [r3]
 3550 009c BA68     		ldr	r2, [r7, #8]
 3551 009e 5101     		lsls	r1, r2, #5
 3552 00a0 FA68     		ldr	r2, [r7, #12]
 3553 00a2 0A44     		add	r2, r2, r1
 3554 00a4 02F53062 		add	r2, r2, #2816
 3555 00a8 23F08043 		bic	r3, r3, #1073741824
ARM GAS  /var/folders/vq/qt4vp3kd5rxf7v2b6_fdtdt80000gn/T//ccjOke0W.s 			page 81


 3556 00ac 1360     		str	r3, [r2]
 3557              	.L150:
1023:Drivers/STM32F4xx_HAL_Driver/Src/stm32f4xx_ll_usb.c ****     }
1024:Drivers/STM32F4xx_HAL_Driver/Src/stm32f4xx_ll_usb.c ****     USBx_OUTEP(epnum)->DOEPCTL |= USB_OTG_DOEPCTL_STALL;
 3558              		.loc 1 1024 32
 3559 00ae BB68     		ldr	r3, [r7, #8]
 3560 00b0 5A01     		lsls	r2, r3, #5
 3561 00b2 FB68     		ldr	r3, [r7, #12]
 3562 00b4 1344     		add	r3, r3, r2
 3563 00b6 03F53063 		add	r3, r3, #2816
 3564 00ba 1B68     		ldr	r3, [r3]
 3565 00bc BA68     		ldr	r2, [r7, #8]
 3566 00be 5101     		lsls	r1, r2, #5
 3567 00c0 FA68     		ldr	r2, [r7, #12]
 3568 00c2 0A44     		add	r2, r2, r1
 3569 00c4 02F53062 		add	r2, r2, #2816
 3570 00c8 43F40013 		orr	r3, r3, #2097152
 3571 00cc 1360     		str	r3, [r2]
 3572              	.L149:
1025:Drivers/STM32F4xx_HAL_Driver/Src/stm32f4xx_ll_usb.c ****   }
1026:Drivers/STM32F4xx_HAL_Driver/Src/stm32f4xx_ll_usb.c **** 
1027:Drivers/STM32F4xx_HAL_Driver/Src/stm32f4xx_ll_usb.c ****   return HAL_OK;
 3573              		.loc 1 1027 10
 3574 00ce 0023     		movs	r3, #0
1028:Drivers/STM32F4xx_HAL_Driver/Src/stm32f4xx_ll_usb.c **** }
 3575              		.loc 1 1028 1
 3576 00d0 1846     		mov	r0, r3
 3577 00d2 1437     		adds	r7, r7, #20
 3578              	.LCFI113:
 3579              		.cfi_def_cfa_offset 4
 3580 00d4 BD46     		mov	sp, r7
 3581              	.LCFI114:
 3582              		.cfi_def_cfa_register 13
 3583              		@ sp needed
 3584 00d6 5DF8047B 		ldr	r7, [sp], #4
 3585              	.LCFI115:
 3586              		.cfi_restore 7
 3587              		.cfi_def_cfa_offset 0
 3588 00da 7047     		bx	lr
 3589              		.cfi_endproc
 3590              	.LFE148:
 3592              		.section	.text.USB_EPClearStall,"ax",%progbits
 3593              		.align	1
 3594              		.global	USB_EPClearStall
 3595              		.syntax unified
 3596              		.thumb
 3597              		.thumb_func
 3598              		.fpu fpv4-sp-d16
 3600              	USB_EPClearStall:
 3601              	.LFB149:
1029:Drivers/STM32F4xx_HAL_Driver/Src/stm32f4xx_ll_usb.c **** 
1030:Drivers/STM32F4xx_HAL_Driver/Src/stm32f4xx_ll_usb.c **** /**
1031:Drivers/STM32F4xx_HAL_Driver/Src/stm32f4xx_ll_usb.c ****   * @brief  USB_EPClearStall : Clear a stall condition over an EP
1032:Drivers/STM32F4xx_HAL_Driver/Src/stm32f4xx_ll_usb.c ****   * @param  USBx  Selected device
1033:Drivers/STM32F4xx_HAL_Driver/Src/stm32f4xx_ll_usb.c ****   * @param  ep pointer to endpoint structure
1034:Drivers/STM32F4xx_HAL_Driver/Src/stm32f4xx_ll_usb.c ****   * @retval HAL status
1035:Drivers/STM32F4xx_HAL_Driver/Src/stm32f4xx_ll_usb.c ****   */
ARM GAS  /var/folders/vq/qt4vp3kd5rxf7v2b6_fdtdt80000gn/T//ccjOke0W.s 			page 82


1036:Drivers/STM32F4xx_HAL_Driver/Src/stm32f4xx_ll_usb.c **** HAL_StatusTypeDef USB_EPClearStall(USB_OTG_GlobalTypeDef *USBx, USB_OTG_EPTypeDef *ep)
1037:Drivers/STM32F4xx_HAL_Driver/Src/stm32f4xx_ll_usb.c **** {
 3602              		.loc 1 1037 1
 3603              		.cfi_startproc
 3604              		@ args = 0, pretend = 0, frame = 16
 3605              		@ frame_needed = 1, uses_anonymous_args = 0
 3606              		@ link register save eliminated.
 3607 0000 80B4     		push	{r7}
 3608              	.LCFI116:
 3609              		.cfi_def_cfa_offset 4
 3610              		.cfi_offset 7, -4
 3611 0002 85B0     		sub	sp, sp, #20
 3612              	.LCFI117:
 3613              		.cfi_def_cfa_offset 24
 3614 0004 00AF     		add	r7, sp, #0
 3615              	.LCFI118:
 3616              		.cfi_def_cfa_register 7
 3617 0006 7860     		str	r0, [r7, #4]
 3618 0008 3960     		str	r1, [r7]
1038:Drivers/STM32F4xx_HAL_Driver/Src/stm32f4xx_ll_usb.c ****   uint32_t USBx_BASE = (uint32_t)USBx;
 3619              		.loc 1 1038 12
 3620 000a 7B68     		ldr	r3, [r7, #4]
 3621 000c FB60     		str	r3, [r7, #12]
1039:Drivers/STM32F4xx_HAL_Driver/Src/stm32f4xx_ll_usb.c ****   uint32_t epnum = (uint32_t)ep->num;
 3622              		.loc 1 1039 32
 3623 000e 3B68     		ldr	r3, [r7]
 3624 0010 1B78     		ldrb	r3, [r3]	@ zero_extendqisi2
 3625              		.loc 1 1039 12
 3626 0012 BB60     		str	r3, [r7, #8]
1040:Drivers/STM32F4xx_HAL_Driver/Src/stm32f4xx_ll_usb.c **** 
1041:Drivers/STM32F4xx_HAL_Driver/Src/stm32f4xx_ll_usb.c ****   if (ep->is_in == 1U)
 3627              		.loc 1 1041 9
 3628 0014 3B68     		ldr	r3, [r7]
 3629 0016 5B78     		ldrb	r3, [r3, #1]	@ zero_extendqisi2
 3630              		.loc 1 1041 6
 3631 0018 012B     		cmp	r3, #1
 3632 001a 28D1     		bne	.L153
1042:Drivers/STM32F4xx_HAL_Driver/Src/stm32f4xx_ll_usb.c ****   {
1043:Drivers/STM32F4xx_HAL_Driver/Src/stm32f4xx_ll_usb.c ****     USBx_INEP(epnum)->DIEPCTL &= ~USB_OTG_DIEPCTL_STALL;
 3633              		.loc 1 1043 31
 3634 001c BB68     		ldr	r3, [r7, #8]
 3635 001e 5A01     		lsls	r2, r3, #5
 3636 0020 FB68     		ldr	r3, [r7, #12]
 3637 0022 1344     		add	r3, r3, r2
 3638 0024 03F51063 		add	r3, r3, #2304
 3639 0028 1B68     		ldr	r3, [r3]
 3640 002a BA68     		ldr	r2, [r7, #8]
 3641 002c 5101     		lsls	r1, r2, #5
 3642 002e FA68     		ldr	r2, [r7, #12]
 3643 0030 0A44     		add	r2, r2, r1
 3644 0032 02F51062 		add	r2, r2, #2304
 3645 0036 23F40013 		bic	r3, r3, #2097152
 3646 003a 1360     		str	r3, [r2]
1044:Drivers/STM32F4xx_HAL_Driver/Src/stm32f4xx_ll_usb.c ****     if ((ep->type == EP_TYPE_INTR) || (ep->type == EP_TYPE_BULK))
 3647              		.loc 1 1044 12
 3648 003c 3B68     		ldr	r3, [r7]
 3649 003e DB78     		ldrb	r3, [r3, #3]	@ zero_extendqisi2
ARM GAS  /var/folders/vq/qt4vp3kd5rxf7v2b6_fdtdt80000gn/T//ccjOke0W.s 			page 83


 3650              		.loc 1 1044 8
 3651 0040 032B     		cmp	r3, #3
 3652 0042 03D0     		beq	.L154
 3653              		.loc 1 1044 42 discriminator 1
 3654 0044 3B68     		ldr	r3, [r7]
 3655 0046 DB78     		ldrb	r3, [r3, #3]	@ zero_extendqisi2
 3656              		.loc 1 1044 36 discriminator 1
 3657 0048 022B     		cmp	r3, #2
 3658 004a 38D1     		bne	.L155
 3659              	.L154:
1045:Drivers/STM32F4xx_HAL_Driver/Src/stm32f4xx_ll_usb.c ****     {
1046:Drivers/STM32F4xx_HAL_Driver/Src/stm32f4xx_ll_usb.c ****       USBx_INEP(epnum)->DIEPCTL |= USB_OTG_DIEPCTL_SD0PID_SEVNFRM; /* DATA0 */
 3660              		.loc 1 1046 33
 3661 004c BB68     		ldr	r3, [r7, #8]
 3662 004e 5A01     		lsls	r2, r3, #5
 3663 0050 FB68     		ldr	r3, [r7, #12]
 3664 0052 1344     		add	r3, r3, r2
 3665 0054 03F51063 		add	r3, r3, #2304
 3666 0058 1B68     		ldr	r3, [r3]
 3667 005a BA68     		ldr	r2, [r7, #8]
 3668 005c 5101     		lsls	r1, r2, #5
 3669 005e FA68     		ldr	r2, [r7, #12]
 3670 0060 0A44     		add	r2, r2, r1
 3671 0062 02F51062 		add	r2, r2, #2304
 3672 0066 43F08053 		orr	r3, r3, #268435456
 3673 006a 1360     		str	r3, [r2]
 3674 006c 27E0     		b	.L155
 3675              	.L153:
1047:Drivers/STM32F4xx_HAL_Driver/Src/stm32f4xx_ll_usb.c ****     }
1048:Drivers/STM32F4xx_HAL_Driver/Src/stm32f4xx_ll_usb.c ****   }
1049:Drivers/STM32F4xx_HAL_Driver/Src/stm32f4xx_ll_usb.c ****   else
1050:Drivers/STM32F4xx_HAL_Driver/Src/stm32f4xx_ll_usb.c ****   {
1051:Drivers/STM32F4xx_HAL_Driver/Src/stm32f4xx_ll_usb.c ****     USBx_OUTEP(epnum)->DOEPCTL &= ~USB_OTG_DOEPCTL_STALL;
 3676              		.loc 1 1051 32
 3677 006e BB68     		ldr	r3, [r7, #8]
 3678 0070 5A01     		lsls	r2, r3, #5
 3679 0072 FB68     		ldr	r3, [r7, #12]
 3680 0074 1344     		add	r3, r3, r2
 3681 0076 03F53063 		add	r3, r3, #2816
 3682 007a 1B68     		ldr	r3, [r3]
 3683 007c BA68     		ldr	r2, [r7, #8]
 3684 007e 5101     		lsls	r1, r2, #5
 3685 0080 FA68     		ldr	r2, [r7, #12]
 3686 0082 0A44     		add	r2, r2, r1
 3687 0084 02F53062 		add	r2, r2, #2816
 3688 0088 23F40013 		bic	r3, r3, #2097152
 3689 008c 1360     		str	r3, [r2]
1052:Drivers/STM32F4xx_HAL_Driver/Src/stm32f4xx_ll_usb.c ****     if ((ep->type == EP_TYPE_INTR) || (ep->type == EP_TYPE_BULK))
 3690              		.loc 1 1052 12
 3691 008e 3B68     		ldr	r3, [r7]
 3692 0090 DB78     		ldrb	r3, [r3, #3]	@ zero_extendqisi2
 3693              		.loc 1 1052 8
 3694 0092 032B     		cmp	r3, #3
 3695 0094 03D0     		beq	.L156
 3696              		.loc 1 1052 42 discriminator 1
 3697 0096 3B68     		ldr	r3, [r7]
 3698 0098 DB78     		ldrb	r3, [r3, #3]	@ zero_extendqisi2
ARM GAS  /var/folders/vq/qt4vp3kd5rxf7v2b6_fdtdt80000gn/T//ccjOke0W.s 			page 84


 3699              		.loc 1 1052 36 discriminator 1
 3700 009a 022B     		cmp	r3, #2
 3701 009c 0FD1     		bne	.L155
 3702              	.L156:
1053:Drivers/STM32F4xx_HAL_Driver/Src/stm32f4xx_ll_usb.c ****     {
1054:Drivers/STM32F4xx_HAL_Driver/Src/stm32f4xx_ll_usb.c ****       USBx_OUTEP(epnum)->DOEPCTL |= USB_OTG_DOEPCTL_SD0PID_SEVNFRM; /* DATA0 */
 3703              		.loc 1 1054 34
 3704 009e BB68     		ldr	r3, [r7, #8]
 3705 00a0 5A01     		lsls	r2, r3, #5
 3706 00a2 FB68     		ldr	r3, [r7, #12]
 3707 00a4 1344     		add	r3, r3, r2
 3708 00a6 03F53063 		add	r3, r3, #2816
 3709 00aa 1B68     		ldr	r3, [r3]
 3710 00ac BA68     		ldr	r2, [r7, #8]
 3711 00ae 5101     		lsls	r1, r2, #5
 3712 00b0 FA68     		ldr	r2, [r7, #12]
 3713 00b2 0A44     		add	r2, r2, r1
 3714 00b4 02F53062 		add	r2, r2, #2816
 3715 00b8 43F08053 		orr	r3, r3, #268435456
 3716 00bc 1360     		str	r3, [r2]
 3717              	.L155:
1055:Drivers/STM32F4xx_HAL_Driver/Src/stm32f4xx_ll_usb.c ****     }
1056:Drivers/STM32F4xx_HAL_Driver/Src/stm32f4xx_ll_usb.c ****   }
1057:Drivers/STM32F4xx_HAL_Driver/Src/stm32f4xx_ll_usb.c ****   return HAL_OK;
 3718              		.loc 1 1057 10
 3719 00be 0023     		movs	r3, #0
1058:Drivers/STM32F4xx_HAL_Driver/Src/stm32f4xx_ll_usb.c **** }
 3720              		.loc 1 1058 1
 3721 00c0 1846     		mov	r0, r3
 3722 00c2 1437     		adds	r7, r7, #20
 3723              	.LCFI119:
 3724              		.cfi_def_cfa_offset 4
 3725 00c4 BD46     		mov	sp, r7
 3726              	.LCFI120:
 3727              		.cfi_def_cfa_register 13
 3728              		@ sp needed
 3729 00c6 5DF8047B 		ldr	r7, [sp], #4
 3730              	.LCFI121:
 3731              		.cfi_restore 7
 3732              		.cfi_def_cfa_offset 0
 3733 00ca 7047     		bx	lr
 3734              		.cfi_endproc
 3735              	.LFE149:
 3737              		.section	.text.USB_StopDevice,"ax",%progbits
 3738              		.align	1
 3739              		.global	USB_StopDevice
 3740              		.syntax unified
 3741              		.thumb
 3742              		.thumb_func
 3743              		.fpu fpv4-sp-d16
 3745              	USB_StopDevice:
 3746              	.LFB150:
1059:Drivers/STM32F4xx_HAL_Driver/Src/stm32f4xx_ll_usb.c **** 
1060:Drivers/STM32F4xx_HAL_Driver/Src/stm32f4xx_ll_usb.c **** /**
1061:Drivers/STM32F4xx_HAL_Driver/Src/stm32f4xx_ll_usb.c ****   * @brief  USB_StopDevice : Stop the usb device mode
1062:Drivers/STM32F4xx_HAL_Driver/Src/stm32f4xx_ll_usb.c ****   * @param  USBx  Selected device
1063:Drivers/STM32F4xx_HAL_Driver/Src/stm32f4xx_ll_usb.c ****   * @retval HAL status
ARM GAS  /var/folders/vq/qt4vp3kd5rxf7v2b6_fdtdt80000gn/T//ccjOke0W.s 			page 85


1064:Drivers/STM32F4xx_HAL_Driver/Src/stm32f4xx_ll_usb.c ****   */
1065:Drivers/STM32F4xx_HAL_Driver/Src/stm32f4xx_ll_usb.c **** HAL_StatusTypeDef USB_StopDevice(USB_OTG_GlobalTypeDef *USBx)
1066:Drivers/STM32F4xx_HAL_Driver/Src/stm32f4xx_ll_usb.c **** {
 3747              		.loc 1 1066 1
 3748              		.cfi_startproc
 3749              		@ args = 0, pretend = 0, frame = 24
 3750              		@ frame_needed = 1, uses_anonymous_args = 0
 3751 0000 80B5     		push	{r7, lr}
 3752              	.LCFI122:
 3753              		.cfi_def_cfa_offset 8
 3754              		.cfi_offset 7, -8
 3755              		.cfi_offset 14, -4
 3756 0002 86B0     		sub	sp, sp, #24
 3757              	.LCFI123:
 3758              		.cfi_def_cfa_offset 32
 3759 0004 00AF     		add	r7, sp, #0
 3760              	.LCFI124:
 3761              		.cfi_def_cfa_register 7
 3762 0006 7860     		str	r0, [r7, #4]
1067:Drivers/STM32F4xx_HAL_Driver/Src/stm32f4xx_ll_usb.c ****   HAL_StatusTypeDef ret;
1068:Drivers/STM32F4xx_HAL_Driver/Src/stm32f4xx_ll_usb.c ****   uint32_t USBx_BASE = (uint32_t)USBx;
 3763              		.loc 1 1068 12
 3764 0008 7B68     		ldr	r3, [r7, #4]
 3765 000a 3B61     		str	r3, [r7, #16]
1069:Drivers/STM32F4xx_HAL_Driver/Src/stm32f4xx_ll_usb.c ****   uint32_t i;
1070:Drivers/STM32F4xx_HAL_Driver/Src/stm32f4xx_ll_usb.c **** 
1071:Drivers/STM32F4xx_HAL_Driver/Src/stm32f4xx_ll_usb.c ****   /* Clear Pending interrupt */
1072:Drivers/STM32F4xx_HAL_Driver/Src/stm32f4xx_ll_usb.c ****   for (i = 0U; i < 15U; i++)
 3766              		.loc 1 1072 10
 3767 000c 0023     		movs	r3, #0
 3768 000e 7B61     		str	r3, [r7, #20]
 3769              		.loc 1 1072 3
 3770 0010 16E0     		b	.L159
 3771              	.L160:
1073:Drivers/STM32F4xx_HAL_Driver/Src/stm32f4xx_ll_usb.c ****   {
1074:Drivers/STM32F4xx_HAL_Driver/Src/stm32f4xx_ll_usb.c ****     USBx_INEP(i)->DIEPINT = 0xFB7FU;
 3772              		.loc 1 1074 5 discriminator 3
 3773 0012 7B69     		ldr	r3, [r7, #20]
 3774 0014 5A01     		lsls	r2, r3, #5
 3775 0016 3B69     		ldr	r3, [r7, #16]
 3776 0018 1344     		add	r3, r3, r2
 3777 001a 03F51063 		add	r3, r3, #2304
 3778 001e 1A46     		mov	r2, r3
 3779              		.loc 1 1074 27 discriminator 3
 3780 0020 4FF67F33 		movw	r3, #64383
 3781 0024 9360     		str	r3, [r2, #8]
1075:Drivers/STM32F4xx_HAL_Driver/Src/stm32f4xx_ll_usb.c ****     USBx_OUTEP(i)->DOEPINT = 0xFB7FU;
 3782              		.loc 1 1075 5 discriminator 3
 3783 0026 7B69     		ldr	r3, [r7, #20]
 3784 0028 5A01     		lsls	r2, r3, #5
 3785 002a 3B69     		ldr	r3, [r7, #16]
 3786 002c 1344     		add	r3, r3, r2
 3787 002e 03F53063 		add	r3, r3, #2816
 3788 0032 1A46     		mov	r2, r3
 3789              		.loc 1 1075 28 discriminator 3
 3790 0034 4FF67F33 		movw	r3, #64383
 3791 0038 9360     		str	r3, [r2, #8]
ARM GAS  /var/folders/vq/qt4vp3kd5rxf7v2b6_fdtdt80000gn/T//ccjOke0W.s 			page 86


1072:Drivers/STM32F4xx_HAL_Driver/Src/stm32f4xx_ll_usb.c ****   {
 3792              		.loc 1 1072 26 discriminator 3
 3793 003a 7B69     		ldr	r3, [r7, #20]
 3794 003c 0133     		adds	r3, r3, #1
 3795 003e 7B61     		str	r3, [r7, #20]
 3796              	.L159:
1072:Drivers/STM32F4xx_HAL_Driver/Src/stm32f4xx_ll_usb.c ****   {
 3797              		.loc 1 1072 3 discriminator 1
 3798 0040 7B69     		ldr	r3, [r7, #20]
 3799 0042 0E2B     		cmp	r3, #14
 3800 0044 E5D9     		bls	.L160
1076:Drivers/STM32F4xx_HAL_Driver/Src/stm32f4xx_ll_usb.c ****   }
1077:Drivers/STM32F4xx_HAL_Driver/Src/stm32f4xx_ll_usb.c **** 
1078:Drivers/STM32F4xx_HAL_Driver/Src/stm32f4xx_ll_usb.c ****   /* Clear interrupt masks */
1079:Drivers/STM32F4xx_HAL_Driver/Src/stm32f4xx_ll_usb.c ****   USBx_DEVICE->DIEPMSK  = 0U;
 3801              		.loc 1 1079 3
 3802 0046 3B69     		ldr	r3, [r7, #16]
 3803 0048 03F50063 		add	r3, r3, #2048
 3804 004c 1A46     		mov	r2, r3
 3805              		.loc 1 1079 25
 3806 004e 0023     		movs	r3, #0
 3807 0050 1361     		str	r3, [r2, #16]
1080:Drivers/STM32F4xx_HAL_Driver/Src/stm32f4xx_ll_usb.c ****   USBx_DEVICE->DOEPMSK  = 0U;
 3808              		.loc 1 1080 3
 3809 0052 3B69     		ldr	r3, [r7, #16]
 3810 0054 03F50063 		add	r3, r3, #2048
 3811 0058 1A46     		mov	r2, r3
 3812              		.loc 1 1080 25
 3813 005a 0023     		movs	r3, #0
 3814 005c 5361     		str	r3, [r2, #20]
1081:Drivers/STM32F4xx_HAL_Driver/Src/stm32f4xx_ll_usb.c ****   USBx_DEVICE->DAINTMSK = 0U;
 3815              		.loc 1 1081 3
 3816 005e 3B69     		ldr	r3, [r7, #16]
 3817 0060 03F50063 		add	r3, r3, #2048
 3818 0064 1A46     		mov	r2, r3
 3819              		.loc 1 1081 25
 3820 0066 0023     		movs	r3, #0
 3821 0068 D361     		str	r3, [r2, #28]
1082:Drivers/STM32F4xx_HAL_Driver/Src/stm32f4xx_ll_usb.c **** 
1083:Drivers/STM32F4xx_HAL_Driver/Src/stm32f4xx_ll_usb.c ****   /* Flush the FIFO */
1084:Drivers/STM32F4xx_HAL_Driver/Src/stm32f4xx_ll_usb.c ****   ret = USB_FlushRxFifo(USBx);
 3822              		.loc 1 1084 9
 3823 006a 7868     		ldr	r0, [r7, #4]
 3824 006c FFF7FEFF 		bl	USB_FlushRxFifo
 3825 0070 0346     		mov	r3, r0
 3826 0072 FB73     		strb	r3, [r7, #15]
1085:Drivers/STM32F4xx_HAL_Driver/Src/stm32f4xx_ll_usb.c ****   if (ret != HAL_OK)
 3827              		.loc 1 1085 6
 3828 0074 FB7B     		ldrb	r3, [r7, #15]	@ zero_extendqisi2
 3829 0076 002B     		cmp	r3, #0
 3830 0078 01D0     		beq	.L161
1086:Drivers/STM32F4xx_HAL_Driver/Src/stm32f4xx_ll_usb.c ****   {
1087:Drivers/STM32F4xx_HAL_Driver/Src/stm32f4xx_ll_usb.c ****     return ret;
 3831              		.loc 1 1087 12
 3832 007a FB7B     		ldrb	r3, [r7, #15]	@ zero_extendqisi2
 3833 007c 0BE0     		b	.L162
 3834              	.L161:
ARM GAS  /var/folders/vq/qt4vp3kd5rxf7v2b6_fdtdt80000gn/T//ccjOke0W.s 			page 87


1088:Drivers/STM32F4xx_HAL_Driver/Src/stm32f4xx_ll_usb.c ****   }
1089:Drivers/STM32F4xx_HAL_Driver/Src/stm32f4xx_ll_usb.c **** 
