ARM GAS  /var/folders/vq/qt4vp3kd5rxf7v2b6_fdtdt80000gn/T//cc8V800z.s 			page 1


   1              		.cpu cortex-m4
   2              		.eabi_attribute 27, 1
   3              		.eabi_attribute 20, 1
   4              		.eabi_attribute 21, 1
   5              		.eabi_attribute 23, 3
   6              		.eabi_attribute 24, 1
   7              		.eabi_attribute 25, 1
   8              		.eabi_attribute 26, 1
   9              		.eabi_attribute 30, 6
  10              		.eabi_attribute 34, 1
  11              		.eabi_attribute 18, 4
  12              		.file	"stm32f4xx_hal_dma.c"
  13              		.text
  14              	.Ltext0:
  15              		.cfi_sections	.debug_frame
  16              		.section	.text.HAL_DMA_Init,"ax",%progbits
  17              		.align	1
  18              		.global	HAL_DMA_Init
  19              		.arch armv7e-m
  20              		.syntax unified
  21              		.thumb
  22              		.thumb_func
  23              		.fpu fpv4-sp-d16
  25              	HAL_DMA_Init:
  26              	.LFB130:
  27              		.file 1 "Drivers/STM32F4xx_HAL_Driver/Src/stm32f4xx_hal_dma.c"
   1:Drivers/STM32F4xx_HAL_Driver/Src/stm32f4xx_hal_dma.c **** /**
   2:Drivers/STM32F4xx_HAL_Driver/Src/stm32f4xx_hal_dma.c ****   ******************************************************************************
   3:Drivers/STM32F4xx_HAL_Driver/Src/stm32f4xx_hal_dma.c ****   * @file    stm32f4xx_hal_dma.c
   4:Drivers/STM32F4xx_HAL_Driver/Src/stm32f4xx_hal_dma.c ****   * @author  MCD Application Team
   5:Drivers/STM32F4xx_HAL_Driver/Src/stm32f4xx_hal_dma.c ****   * @brief   DMA HAL module driver.
   6:Drivers/STM32F4xx_HAL_Driver/Src/stm32f4xx_hal_dma.c ****   *    
   7:Drivers/STM32F4xx_HAL_Driver/Src/stm32f4xx_hal_dma.c ****   *          This file provides firmware functions to manage the following 
   8:Drivers/STM32F4xx_HAL_Driver/Src/stm32f4xx_hal_dma.c ****   *          functionalities of the Direct Memory Access (DMA) peripheral:
   9:Drivers/STM32F4xx_HAL_Driver/Src/stm32f4xx_hal_dma.c ****   *           + Initialization and de-initialization functions
  10:Drivers/STM32F4xx_HAL_Driver/Src/stm32f4xx_hal_dma.c ****   *           + IO operation functions
  11:Drivers/STM32F4xx_HAL_Driver/Src/stm32f4xx_hal_dma.c ****   *           + Peripheral State and errors functions
  12:Drivers/STM32F4xx_HAL_Driver/Src/stm32f4xx_hal_dma.c ****   @verbatim     
  13:Drivers/STM32F4xx_HAL_Driver/Src/stm32f4xx_hal_dma.c ****   ==============================================================================
  14:Drivers/STM32F4xx_HAL_Driver/Src/stm32f4xx_hal_dma.c ****                         ##### How to use this driver #####
  15:Drivers/STM32F4xx_HAL_Driver/Src/stm32f4xx_hal_dma.c ****   ==============================================================================
  16:Drivers/STM32F4xx_HAL_Driver/Src/stm32f4xx_hal_dma.c ****   [..]
  17:Drivers/STM32F4xx_HAL_Driver/Src/stm32f4xx_hal_dma.c ****    (#) Enable and configure the peripheral to be connected to the DMA Stream
  18:Drivers/STM32F4xx_HAL_Driver/Src/stm32f4xx_hal_dma.c ****        (except for internal SRAM/FLASH memories: no initialization is 
  19:Drivers/STM32F4xx_HAL_Driver/Src/stm32f4xx_hal_dma.c ****        necessary) please refer to Reference manual for connection between peripherals
  20:Drivers/STM32F4xx_HAL_Driver/Src/stm32f4xx_hal_dma.c ****        and DMA requests.
  21:Drivers/STM32F4xx_HAL_Driver/Src/stm32f4xx_hal_dma.c **** 
  22:Drivers/STM32F4xx_HAL_Driver/Src/stm32f4xx_hal_dma.c ****    (#) For a given Stream, program the required configuration through the following parameters:
  23:Drivers/STM32F4xx_HAL_Driver/Src/stm32f4xx_hal_dma.c ****        Transfer Direction, Source and Destination data formats, 
  24:Drivers/STM32F4xx_HAL_Driver/Src/stm32f4xx_hal_dma.c ****        Circular, Normal or peripheral flow control mode, Stream Priority level, 
  25:Drivers/STM32F4xx_HAL_Driver/Src/stm32f4xx_hal_dma.c ****        Source and Destination Increment mode, FIFO mode and its Threshold (if needed), 
  26:Drivers/STM32F4xx_HAL_Driver/Src/stm32f4xx_hal_dma.c ****        Burst mode for Source and/or Destination (if needed) using HAL_DMA_Init() function.
  27:Drivers/STM32F4xx_HAL_Driver/Src/stm32f4xx_hal_dma.c **** 
  28:Drivers/STM32F4xx_HAL_Driver/Src/stm32f4xx_hal_dma.c ****    -@-   Prior to HAL_DMA_Init() the clock must be enabled for DMA through the following macros:
  29:Drivers/STM32F4xx_HAL_Driver/Src/stm32f4xx_hal_dma.c ****          __HAL_RCC_DMA1_CLK_ENABLE() or __HAL_RCC_DMA2_CLK_ENABLE().
  30:Drivers/STM32F4xx_HAL_Driver/Src/stm32f4xx_hal_dma.c **** 
  31:Drivers/STM32F4xx_HAL_Driver/Src/stm32f4xx_hal_dma.c ****      *** Polling mode IO operation ***
ARM GAS  /var/folders/vq/qt4vp3kd5rxf7v2b6_fdtdt80000gn/T//cc8V800z.s 			page 2


  32:Drivers/STM32F4xx_HAL_Driver/Src/stm32f4xx_hal_dma.c ****      =================================
  33:Drivers/STM32F4xx_HAL_Driver/Src/stm32f4xx_hal_dma.c ****     [..]
  34:Drivers/STM32F4xx_HAL_Driver/Src/stm32f4xx_hal_dma.c ****           (+) Use HAL_DMA_Start() to start DMA transfer after the configuration of Source 
  35:Drivers/STM32F4xx_HAL_Driver/Src/stm32f4xx_hal_dma.c ****               address and destination address and the Length of data to be transferred.
  36:Drivers/STM32F4xx_HAL_Driver/Src/stm32f4xx_hal_dma.c ****           (+) Use HAL_DMA_PollForTransfer() to poll for the end of current transfer, in this  
  37:Drivers/STM32F4xx_HAL_Driver/Src/stm32f4xx_hal_dma.c ****               case a fixed Timeout can be configured by User depending from his application.
  38:Drivers/STM32F4xx_HAL_Driver/Src/stm32f4xx_hal_dma.c ****           (+) Use HAL_DMA_Abort() function to abort the current transfer.
  39:Drivers/STM32F4xx_HAL_Driver/Src/stm32f4xx_hal_dma.c **** 
  40:Drivers/STM32F4xx_HAL_Driver/Src/stm32f4xx_hal_dma.c ****      *** Interrupt mode IO operation ***
  41:Drivers/STM32F4xx_HAL_Driver/Src/stm32f4xx_hal_dma.c ****      ===================================
  42:Drivers/STM32F4xx_HAL_Driver/Src/stm32f4xx_hal_dma.c ****     [..]
  43:Drivers/STM32F4xx_HAL_Driver/Src/stm32f4xx_hal_dma.c ****           (+) Configure the DMA interrupt priority using HAL_NVIC_SetPriority()
  44:Drivers/STM32F4xx_HAL_Driver/Src/stm32f4xx_hal_dma.c ****           (+) Enable the DMA IRQ handler using HAL_NVIC_EnableIRQ() 
  45:Drivers/STM32F4xx_HAL_Driver/Src/stm32f4xx_hal_dma.c ****           (+) Use HAL_DMA_Start_IT() to start DMA transfer after the configuration of  
  46:Drivers/STM32F4xx_HAL_Driver/Src/stm32f4xx_hal_dma.c ****               Source address and destination address and the Length of data to be transferred. In t
  47:Drivers/STM32F4xx_HAL_Driver/Src/stm32f4xx_hal_dma.c ****               case the DMA interrupt is configured 
  48:Drivers/STM32F4xx_HAL_Driver/Src/stm32f4xx_hal_dma.c ****           (+) Use HAL_DMA_IRQHandler() called under DMA_IRQHandler() Interrupt subroutine
  49:Drivers/STM32F4xx_HAL_Driver/Src/stm32f4xx_hal_dma.c ****           (+) At the end of data transfer HAL_DMA_IRQHandler() function is executed and user can 
  50:Drivers/STM32F4xx_HAL_Driver/Src/stm32f4xx_hal_dma.c ****               add his own function by customization of function pointer XferCpltCallback and 
  51:Drivers/STM32F4xx_HAL_Driver/Src/stm32f4xx_hal_dma.c ****               XferErrorCallback (i.e a member of DMA handle structure).
  52:Drivers/STM32F4xx_HAL_Driver/Src/stm32f4xx_hal_dma.c ****     [..]
  53:Drivers/STM32F4xx_HAL_Driver/Src/stm32f4xx_hal_dma.c ****      (#) Use HAL_DMA_GetState() function to return the DMA state and HAL_DMA_GetError() in case of 
  54:Drivers/STM32F4xx_HAL_Driver/Src/stm32f4xx_hal_dma.c ****          detection.
  55:Drivers/STM32F4xx_HAL_Driver/Src/stm32f4xx_hal_dma.c **** 
  56:Drivers/STM32F4xx_HAL_Driver/Src/stm32f4xx_hal_dma.c ****      (#) Use HAL_DMA_Abort_IT() function to abort the current transfer
  57:Drivers/STM32F4xx_HAL_Driver/Src/stm32f4xx_hal_dma.c **** 
  58:Drivers/STM32F4xx_HAL_Driver/Src/stm32f4xx_hal_dma.c ****      -@-   In Memory-to-Memory transfer mode, Circular mode is not allowed.
  59:Drivers/STM32F4xx_HAL_Driver/Src/stm32f4xx_hal_dma.c **** 
  60:Drivers/STM32F4xx_HAL_Driver/Src/stm32f4xx_hal_dma.c ****      -@-   The FIFO is used mainly to reduce bus usage and to allow data packing/unpacking: it is
  61:Drivers/STM32F4xx_HAL_Driver/Src/stm32f4xx_hal_dma.c ****            possible to set different Data Sizes for the Peripheral and the Memory (ie. you can set
  62:Drivers/STM32F4xx_HAL_Driver/Src/stm32f4xx_hal_dma.c ****            Half-Word data size for the peripheral to access its data register and set Word data siz
  63:Drivers/STM32F4xx_HAL_Driver/Src/stm32f4xx_hal_dma.c ****            for the Memory to gain in access time. Each two half words will be packed and written in
  64:Drivers/STM32F4xx_HAL_Driver/Src/stm32f4xx_hal_dma.c ****            a single access to a Word in the Memory).
  65:Drivers/STM32F4xx_HAL_Driver/Src/stm32f4xx_hal_dma.c **** 
  66:Drivers/STM32F4xx_HAL_Driver/Src/stm32f4xx_hal_dma.c ****      -@-   When FIFO is disabled, it is not allowed to configure different Data Sizes for Source
  67:Drivers/STM32F4xx_HAL_Driver/Src/stm32f4xx_hal_dma.c ****            and Destination. In this case the Peripheral Data Size will be applied to both Source
  68:Drivers/STM32F4xx_HAL_Driver/Src/stm32f4xx_hal_dma.c ****            and Destination.
  69:Drivers/STM32F4xx_HAL_Driver/Src/stm32f4xx_hal_dma.c **** 
  70:Drivers/STM32F4xx_HAL_Driver/Src/stm32f4xx_hal_dma.c ****      *** DMA HAL driver macros list ***
  71:Drivers/STM32F4xx_HAL_Driver/Src/stm32f4xx_hal_dma.c ****      =============================================
  72:Drivers/STM32F4xx_HAL_Driver/Src/stm32f4xx_hal_dma.c ****      [..]
  73:Drivers/STM32F4xx_HAL_Driver/Src/stm32f4xx_hal_dma.c ****        Below the list of most used macros in DMA HAL driver.
  74:Drivers/STM32F4xx_HAL_Driver/Src/stm32f4xx_hal_dma.c ****        
  75:Drivers/STM32F4xx_HAL_Driver/Src/stm32f4xx_hal_dma.c ****       (+) __HAL_DMA_ENABLE: Enable the specified DMA Stream.
  76:Drivers/STM32F4xx_HAL_Driver/Src/stm32f4xx_hal_dma.c ****       (+) __HAL_DMA_DISABLE: Disable the specified DMA Stream.
  77:Drivers/STM32F4xx_HAL_Driver/Src/stm32f4xx_hal_dma.c ****       (+) __HAL_DMA_GET_IT_SOURCE: Check whether the specified DMA Stream interrupt has occurred or
  78:Drivers/STM32F4xx_HAL_Driver/Src/stm32f4xx_hal_dma.c **** 
  79:Drivers/STM32F4xx_HAL_Driver/Src/stm32f4xx_hal_dma.c ****      [..]
  80:Drivers/STM32F4xx_HAL_Driver/Src/stm32f4xx_hal_dma.c ****       (@) You can refer to the DMA HAL driver header file for more useful macros
  81:Drivers/STM32F4xx_HAL_Driver/Src/stm32f4xx_hal_dma.c **** 
  82:Drivers/STM32F4xx_HAL_Driver/Src/stm32f4xx_hal_dma.c ****   @endverbatim
  83:Drivers/STM32F4xx_HAL_Driver/Src/stm32f4xx_hal_dma.c ****   ******************************************************************************
  84:Drivers/STM32F4xx_HAL_Driver/Src/stm32f4xx_hal_dma.c ****   * @attention
  85:Drivers/STM32F4xx_HAL_Driver/Src/stm32f4xx_hal_dma.c ****   *
  86:Drivers/STM32F4xx_HAL_Driver/Src/stm32f4xx_hal_dma.c ****   * <h2><center>&copy; Copyright (c) 2017 STMicroelectronics.
  87:Drivers/STM32F4xx_HAL_Driver/Src/stm32f4xx_hal_dma.c ****   * All rights reserved.</center></h2>
  88:Drivers/STM32F4xx_HAL_Driver/Src/stm32f4xx_hal_dma.c ****   *
ARM GAS  /var/folders/vq/qt4vp3kd5rxf7v2b6_fdtdt80000gn/T//cc8V800z.s 			page 3


  89:Drivers/STM32F4xx_HAL_Driver/Src/stm32f4xx_hal_dma.c ****   * This software component is licensed by ST under BSD 3-Clause license,
  90:Drivers/STM32F4xx_HAL_Driver/Src/stm32f4xx_hal_dma.c ****   * the "License"; You may not use this file except in compliance with the
  91:Drivers/STM32F4xx_HAL_Driver/Src/stm32f4xx_hal_dma.c ****   * License. You may obtain a copy of the License at:
  92:Drivers/STM32F4xx_HAL_Driver/Src/stm32f4xx_hal_dma.c ****   *                        opensource.org/licenses/BSD-3-Clause
  93:Drivers/STM32F4xx_HAL_Driver/Src/stm32f4xx_hal_dma.c ****   *
  94:Drivers/STM32F4xx_HAL_Driver/Src/stm32f4xx_hal_dma.c ****   ******************************************************************************
  95:Drivers/STM32F4xx_HAL_Driver/Src/stm32f4xx_hal_dma.c ****   */ 
  96:Drivers/STM32F4xx_HAL_Driver/Src/stm32f4xx_hal_dma.c **** 
  97:Drivers/STM32F4xx_HAL_Driver/Src/stm32f4xx_hal_dma.c **** /* Includes ------------------------------------------------------------------*/
  98:Drivers/STM32F4xx_HAL_Driver/Src/stm32f4xx_hal_dma.c **** #include "stm32f4xx_hal.h"
  99:Drivers/STM32F4xx_HAL_Driver/Src/stm32f4xx_hal_dma.c **** 
 100:Drivers/STM32F4xx_HAL_Driver/Src/stm32f4xx_hal_dma.c **** /** @addtogroup STM32F4xx_HAL_Driver
 101:Drivers/STM32F4xx_HAL_Driver/Src/stm32f4xx_hal_dma.c ****   * @{
 102:Drivers/STM32F4xx_HAL_Driver/Src/stm32f4xx_hal_dma.c ****   */
 103:Drivers/STM32F4xx_HAL_Driver/Src/stm32f4xx_hal_dma.c **** 
 104:Drivers/STM32F4xx_HAL_Driver/Src/stm32f4xx_hal_dma.c **** /** @defgroup DMA DMA
 105:Drivers/STM32F4xx_HAL_Driver/Src/stm32f4xx_hal_dma.c ****   * @brief DMA HAL module driver
 106:Drivers/STM32F4xx_HAL_Driver/Src/stm32f4xx_hal_dma.c ****   * @{
 107:Drivers/STM32F4xx_HAL_Driver/Src/stm32f4xx_hal_dma.c ****   */
 108:Drivers/STM32F4xx_HAL_Driver/Src/stm32f4xx_hal_dma.c **** 
 109:Drivers/STM32F4xx_HAL_Driver/Src/stm32f4xx_hal_dma.c **** #ifdef HAL_DMA_MODULE_ENABLED
 110:Drivers/STM32F4xx_HAL_Driver/Src/stm32f4xx_hal_dma.c **** 
 111:Drivers/STM32F4xx_HAL_Driver/Src/stm32f4xx_hal_dma.c **** /* Private types -------------------------------------------------------------*/
 112:Drivers/STM32F4xx_HAL_Driver/Src/stm32f4xx_hal_dma.c **** typedef struct
 113:Drivers/STM32F4xx_HAL_Driver/Src/stm32f4xx_hal_dma.c **** {
 114:Drivers/STM32F4xx_HAL_Driver/Src/stm32f4xx_hal_dma.c ****   __IO uint32_t ISR;   /*!< DMA interrupt status register */
 115:Drivers/STM32F4xx_HAL_Driver/Src/stm32f4xx_hal_dma.c ****   __IO uint32_t Reserved0;
 116:Drivers/STM32F4xx_HAL_Driver/Src/stm32f4xx_hal_dma.c ****   __IO uint32_t IFCR;  /*!< DMA interrupt flag clear register */
 117:Drivers/STM32F4xx_HAL_Driver/Src/stm32f4xx_hal_dma.c **** } DMA_Base_Registers;
 118:Drivers/STM32F4xx_HAL_Driver/Src/stm32f4xx_hal_dma.c **** 
 119:Drivers/STM32F4xx_HAL_Driver/Src/stm32f4xx_hal_dma.c **** /* Private variables ---------------------------------------------------------*/
 120:Drivers/STM32F4xx_HAL_Driver/Src/stm32f4xx_hal_dma.c **** /* Private constants ---------------------------------------------------------*/
 121:Drivers/STM32F4xx_HAL_Driver/Src/stm32f4xx_hal_dma.c **** /** @addtogroup DMA_Private_Constants
 122:Drivers/STM32F4xx_HAL_Driver/Src/stm32f4xx_hal_dma.c ****  * @{
 123:Drivers/STM32F4xx_HAL_Driver/Src/stm32f4xx_hal_dma.c ****  */
 124:Drivers/STM32F4xx_HAL_Driver/Src/stm32f4xx_hal_dma.c ****  #define HAL_TIMEOUT_DMA_ABORT    5U  /* 5 ms */
 125:Drivers/STM32F4xx_HAL_Driver/Src/stm32f4xx_hal_dma.c **** /**
 126:Drivers/STM32F4xx_HAL_Driver/Src/stm32f4xx_hal_dma.c ****   * @}
 127:Drivers/STM32F4xx_HAL_Driver/Src/stm32f4xx_hal_dma.c ****   */
 128:Drivers/STM32F4xx_HAL_Driver/Src/stm32f4xx_hal_dma.c **** /* Private macros ------------------------------------------------------------*/
 129:Drivers/STM32F4xx_HAL_Driver/Src/stm32f4xx_hal_dma.c **** /* Private functions ---------------------------------------------------------*/
 130:Drivers/STM32F4xx_HAL_Driver/Src/stm32f4xx_hal_dma.c **** /** @addtogroup DMA_Private_Functions
 131:Drivers/STM32F4xx_HAL_Driver/Src/stm32f4xx_hal_dma.c ****   * @{
 132:Drivers/STM32F4xx_HAL_Driver/Src/stm32f4xx_hal_dma.c ****   */
 133:Drivers/STM32F4xx_HAL_Driver/Src/stm32f4xx_hal_dma.c **** static void DMA_SetConfig(DMA_HandleTypeDef *hdma, uint32_t SrcAddress, uint32_t DstAddress, uint32
 134:Drivers/STM32F4xx_HAL_Driver/Src/stm32f4xx_hal_dma.c **** static uint32_t DMA_CalcBaseAndBitshift(DMA_HandleTypeDef *hdma);
 135:Drivers/STM32F4xx_HAL_Driver/Src/stm32f4xx_hal_dma.c **** static HAL_StatusTypeDef DMA_CheckFifoParam(DMA_HandleTypeDef *hdma);
 136:Drivers/STM32F4xx_HAL_Driver/Src/stm32f4xx_hal_dma.c **** 
 137:Drivers/STM32F4xx_HAL_Driver/Src/stm32f4xx_hal_dma.c **** /**
 138:Drivers/STM32F4xx_HAL_Driver/Src/stm32f4xx_hal_dma.c ****   * @}
 139:Drivers/STM32F4xx_HAL_Driver/Src/stm32f4xx_hal_dma.c ****   */  
 140:Drivers/STM32F4xx_HAL_Driver/Src/stm32f4xx_hal_dma.c **** 
 141:Drivers/STM32F4xx_HAL_Driver/Src/stm32f4xx_hal_dma.c **** /* Exported functions ---------------------------------------------------------*/
 142:Drivers/STM32F4xx_HAL_Driver/Src/stm32f4xx_hal_dma.c **** /** @addtogroup DMA_Exported_Functions
 143:Drivers/STM32F4xx_HAL_Driver/Src/stm32f4xx_hal_dma.c ****   * @{
 144:Drivers/STM32F4xx_HAL_Driver/Src/stm32f4xx_hal_dma.c ****   */
 145:Drivers/STM32F4xx_HAL_Driver/Src/stm32f4xx_hal_dma.c **** 
ARM GAS  /var/folders/vq/qt4vp3kd5rxf7v2b6_fdtdt80000gn/T//cc8V800z.s 			page 4


 146:Drivers/STM32F4xx_HAL_Driver/Src/stm32f4xx_hal_dma.c **** /** @addtogroup DMA_Exported_Functions_Group1
 147:Drivers/STM32F4xx_HAL_Driver/Src/stm32f4xx_hal_dma.c ****   *
 148:Drivers/STM32F4xx_HAL_Driver/Src/stm32f4xx_hal_dma.c **** @verbatim
 149:Drivers/STM32F4xx_HAL_Driver/Src/stm32f4xx_hal_dma.c ****  ===============================================================================
 150:Drivers/STM32F4xx_HAL_Driver/Src/stm32f4xx_hal_dma.c ****              ##### Initialization and de-initialization functions  #####
 151:Drivers/STM32F4xx_HAL_Driver/Src/stm32f4xx_hal_dma.c ****  ===============================================================================
 152:Drivers/STM32F4xx_HAL_Driver/Src/stm32f4xx_hal_dma.c ****     [..]
 153:Drivers/STM32F4xx_HAL_Driver/Src/stm32f4xx_hal_dma.c ****     This section provides functions allowing to initialize the DMA Stream source
 154:Drivers/STM32F4xx_HAL_Driver/Src/stm32f4xx_hal_dma.c ****     and destination addresses, incrementation and data sizes, transfer direction, 
 155:Drivers/STM32F4xx_HAL_Driver/Src/stm32f4xx_hal_dma.c ****     circular/normal mode selection, memory-to-memory mode selection and Stream priority value.
 156:Drivers/STM32F4xx_HAL_Driver/Src/stm32f4xx_hal_dma.c ****     [..]
 157:Drivers/STM32F4xx_HAL_Driver/Src/stm32f4xx_hal_dma.c ****     The HAL_DMA_Init() function follows the DMA configuration procedures as described in
 158:Drivers/STM32F4xx_HAL_Driver/Src/stm32f4xx_hal_dma.c ****     reference manual.
 159:Drivers/STM32F4xx_HAL_Driver/Src/stm32f4xx_hal_dma.c **** 
 160:Drivers/STM32F4xx_HAL_Driver/Src/stm32f4xx_hal_dma.c **** @endverbatim
 161:Drivers/STM32F4xx_HAL_Driver/Src/stm32f4xx_hal_dma.c ****   * @{
 162:Drivers/STM32F4xx_HAL_Driver/Src/stm32f4xx_hal_dma.c ****   */
 163:Drivers/STM32F4xx_HAL_Driver/Src/stm32f4xx_hal_dma.c ****   
 164:Drivers/STM32F4xx_HAL_Driver/Src/stm32f4xx_hal_dma.c **** /**
 165:Drivers/STM32F4xx_HAL_Driver/Src/stm32f4xx_hal_dma.c ****   * @brief  Initialize the DMA according to the specified
 166:Drivers/STM32F4xx_HAL_Driver/Src/stm32f4xx_hal_dma.c ****   *         parameters in the DMA_InitTypeDef and create the associated handle.
 167:Drivers/STM32F4xx_HAL_Driver/Src/stm32f4xx_hal_dma.c ****   * @param  hdma Pointer to a DMA_HandleTypeDef structure that contains
 168:Drivers/STM32F4xx_HAL_Driver/Src/stm32f4xx_hal_dma.c ****   *               the configuration information for the specified DMA Stream.  
 169:Drivers/STM32F4xx_HAL_Driver/Src/stm32f4xx_hal_dma.c ****   * @retval HAL status
 170:Drivers/STM32F4xx_HAL_Driver/Src/stm32f4xx_hal_dma.c ****   */
 171:Drivers/STM32F4xx_HAL_Driver/Src/stm32f4xx_hal_dma.c **** HAL_StatusTypeDef HAL_DMA_Init(DMA_HandleTypeDef *hdma)
 172:Drivers/STM32F4xx_HAL_Driver/Src/stm32f4xx_hal_dma.c **** {
  28              		.loc 1 172 1
  29              		.cfi_startproc
  30              		@ args = 0, pretend = 0, frame = 24
  31              		@ frame_needed = 1, uses_anonymous_args = 0
  32 0000 80B5     		push	{r7, lr}
  33              	.LCFI0:
  34              		.cfi_def_cfa_offset 8
  35              		.cfi_offset 7, -8
  36              		.cfi_offset 14, -4
  37 0002 86B0     		sub	sp, sp, #24
  38              	.LCFI1:
  39              		.cfi_def_cfa_offset 32
  40 0004 00AF     		add	r7, sp, #0
  41              	.LCFI2:
  42              		.cfi_def_cfa_register 7
  43 0006 7860     		str	r0, [r7, #4]
 173:Drivers/STM32F4xx_HAL_Driver/Src/stm32f4xx_hal_dma.c ****   uint32_t tmp = 0U;
  44              		.loc 1 173 12
  45 0008 0023     		movs	r3, #0
  46 000a 7B61     		str	r3, [r7, #20]
 174:Drivers/STM32F4xx_HAL_Driver/Src/stm32f4xx_hal_dma.c ****   uint32_t tickstart = HAL_GetTick();
  47              		.loc 1 174 24
  48 000c FFF7FEFF 		bl	HAL_GetTick
  49 0010 3861     		str	r0, [r7, #16]
 175:Drivers/STM32F4xx_HAL_Driver/Src/stm32f4xx_hal_dma.c ****   DMA_Base_Registers *regs;
 176:Drivers/STM32F4xx_HAL_Driver/Src/stm32f4xx_hal_dma.c **** 
 177:Drivers/STM32F4xx_HAL_Driver/Src/stm32f4xx_hal_dma.c ****   /* Check the DMA peripheral state */
 178:Drivers/STM32F4xx_HAL_Driver/Src/stm32f4xx_hal_dma.c ****   if(hdma == NULL)
  50              		.loc 1 178 5
  51 0012 7B68     		ldr	r3, [r7, #4]
ARM GAS  /var/folders/vq/qt4vp3kd5rxf7v2b6_fdtdt80000gn/T//cc8V800z.s 			page 5


  52 0014 002B     		cmp	r3, #0
  53 0016 01D1     		bne	.L2
 179:Drivers/STM32F4xx_HAL_Driver/Src/stm32f4xx_hal_dma.c ****   {
 180:Drivers/STM32F4xx_HAL_Driver/Src/stm32f4xx_hal_dma.c ****     return HAL_ERROR;
  54              		.loc 1 180 12
  55 0018 0123     		movs	r3, #1
  56 001a 99E0     		b	.L3
  57              	.L2:
 181:Drivers/STM32F4xx_HAL_Driver/Src/stm32f4xx_hal_dma.c ****   }
 182:Drivers/STM32F4xx_HAL_Driver/Src/stm32f4xx_hal_dma.c **** 
 183:Drivers/STM32F4xx_HAL_Driver/Src/stm32f4xx_hal_dma.c ****   /* Check the parameters */
 184:Drivers/STM32F4xx_HAL_Driver/Src/stm32f4xx_hal_dma.c ****   assert_param(IS_DMA_STREAM_ALL_INSTANCE(hdma->Instance));
 185:Drivers/STM32F4xx_HAL_Driver/Src/stm32f4xx_hal_dma.c ****   assert_param(IS_DMA_CHANNEL(hdma->Init.Channel));
 186:Drivers/STM32F4xx_HAL_Driver/Src/stm32f4xx_hal_dma.c ****   assert_param(IS_DMA_DIRECTION(hdma->Init.Direction));
 187:Drivers/STM32F4xx_HAL_Driver/Src/stm32f4xx_hal_dma.c ****   assert_param(IS_DMA_PERIPHERAL_INC_STATE(hdma->Init.PeriphInc));
 188:Drivers/STM32F4xx_HAL_Driver/Src/stm32f4xx_hal_dma.c ****   assert_param(IS_DMA_MEMORY_INC_STATE(hdma->Init.MemInc));
 189:Drivers/STM32F4xx_HAL_Driver/Src/stm32f4xx_hal_dma.c ****   assert_param(IS_DMA_PERIPHERAL_DATA_SIZE(hdma->Init.PeriphDataAlignment));
 190:Drivers/STM32F4xx_HAL_Driver/Src/stm32f4xx_hal_dma.c ****   assert_param(IS_DMA_MEMORY_DATA_SIZE(hdma->Init.MemDataAlignment));
 191:Drivers/STM32F4xx_HAL_Driver/Src/stm32f4xx_hal_dma.c ****   assert_param(IS_DMA_MODE(hdma->Init.Mode));
 192:Drivers/STM32F4xx_HAL_Driver/Src/stm32f4xx_hal_dma.c ****   assert_param(IS_DMA_PRIORITY(hdma->Init.Priority));
 193:Drivers/STM32F4xx_HAL_Driver/Src/stm32f4xx_hal_dma.c ****   assert_param(IS_DMA_FIFO_MODE_STATE(hdma->Init.FIFOMode));
 194:Drivers/STM32F4xx_HAL_Driver/Src/stm32f4xx_hal_dma.c ****   /* Check the memory burst, peripheral burst and FIFO threshold parameters only
 195:Drivers/STM32F4xx_HAL_Driver/Src/stm32f4xx_hal_dma.c ****      when FIFO mode is enabled */
 196:Drivers/STM32F4xx_HAL_Driver/Src/stm32f4xx_hal_dma.c ****   if(hdma->Init.FIFOMode != DMA_FIFOMODE_DISABLE)
 197:Drivers/STM32F4xx_HAL_Driver/Src/stm32f4xx_hal_dma.c ****   {
 198:Drivers/STM32F4xx_HAL_Driver/Src/stm32f4xx_hal_dma.c ****     assert_param(IS_DMA_FIFO_THRESHOLD(hdma->Init.FIFOThreshold));
 199:Drivers/STM32F4xx_HAL_Driver/Src/stm32f4xx_hal_dma.c ****     assert_param(IS_DMA_MEMORY_BURST(hdma->Init.MemBurst));
 200:Drivers/STM32F4xx_HAL_Driver/Src/stm32f4xx_hal_dma.c ****     assert_param(IS_DMA_PERIPHERAL_BURST(hdma->Init.PeriphBurst));
 201:Drivers/STM32F4xx_HAL_Driver/Src/stm32f4xx_hal_dma.c ****   }
 202:Drivers/STM32F4xx_HAL_Driver/Src/stm32f4xx_hal_dma.c ****   
 203:Drivers/STM32F4xx_HAL_Driver/Src/stm32f4xx_hal_dma.c ****   /* Allocate lock resource */
 204:Drivers/STM32F4xx_HAL_Driver/Src/stm32f4xx_hal_dma.c ****   __HAL_UNLOCK(hdma);
  58              		.loc 1 204 3
  59 001c 7B68     		ldr	r3, [r7, #4]
  60 001e 0022     		movs	r2, #0
  61 0020 83F83420 		strb	r2, [r3, #52]
 205:Drivers/STM32F4xx_HAL_Driver/Src/stm32f4xx_hal_dma.c **** 
 206:Drivers/STM32F4xx_HAL_Driver/Src/stm32f4xx_hal_dma.c ****   /* Change DMA peripheral state */
 207:Drivers/STM32F4xx_HAL_Driver/Src/stm32f4xx_hal_dma.c ****   hdma->State = HAL_DMA_STATE_BUSY;
  62              		.loc 1 207 15
  63 0024 7B68     		ldr	r3, [r7, #4]
  64 0026 0222     		movs	r2, #2
  65 0028 83F83520 		strb	r2, [r3, #53]
 208:Drivers/STM32F4xx_HAL_Driver/Src/stm32f4xx_hal_dma.c ****   
 209:Drivers/STM32F4xx_HAL_Driver/Src/stm32f4xx_hal_dma.c ****   /* Disable the peripheral */
 210:Drivers/STM32F4xx_HAL_Driver/Src/stm32f4xx_hal_dma.c ****   __HAL_DMA_DISABLE(hdma);
  66              		.loc 1 210 3
  67 002c 7B68     		ldr	r3, [r7, #4]
  68 002e 1B68     		ldr	r3, [r3]
  69 0030 1A68     		ldr	r2, [r3]
  70 0032 7B68     		ldr	r3, [r7, #4]
  71 0034 1B68     		ldr	r3, [r3]
  72 0036 22F00102 		bic	r2, r2, #1
  73 003a 1A60     		str	r2, [r3]
 211:Drivers/STM32F4xx_HAL_Driver/Src/stm32f4xx_hal_dma.c ****   
 212:Drivers/STM32F4xx_HAL_Driver/Src/stm32f4xx_hal_dma.c ****   /* Check if the DMA Stream is effectively disabled */
 213:Drivers/STM32F4xx_HAL_Driver/Src/stm32f4xx_hal_dma.c ****   while((hdma->Instance->CR & DMA_SxCR_EN) != RESET)
ARM GAS  /var/folders/vq/qt4vp3kd5rxf7v2b6_fdtdt80000gn/T//cc8V800z.s 			page 6


  74              		.loc 1 213 8
  75 003c 0FE0     		b	.L4
  76              	.L5:
 214:Drivers/STM32F4xx_HAL_Driver/Src/stm32f4xx_hal_dma.c ****   {
 215:Drivers/STM32F4xx_HAL_Driver/Src/stm32f4xx_hal_dma.c ****     /* Check for the Timeout */
 216:Drivers/STM32F4xx_HAL_Driver/Src/stm32f4xx_hal_dma.c ****     if((HAL_GetTick() - tickstart ) > HAL_TIMEOUT_DMA_ABORT)
  77              		.loc 1 216 9
  78 003e FFF7FEFF 		bl	HAL_GetTick
  79 0042 0246     		mov	r2, r0
  80              		.loc 1 216 23
  81 0044 3B69     		ldr	r3, [r7, #16]
  82 0046 D31A     		subs	r3, r2, r3
  83              		.loc 1 216 7
  84 0048 052B     		cmp	r3, #5
  85 004a 08D9     		bls	.L4
 217:Drivers/STM32F4xx_HAL_Driver/Src/stm32f4xx_hal_dma.c ****     {
 218:Drivers/STM32F4xx_HAL_Driver/Src/stm32f4xx_hal_dma.c ****       /* Update error code */
 219:Drivers/STM32F4xx_HAL_Driver/Src/stm32f4xx_hal_dma.c ****       hdma->ErrorCode = HAL_DMA_ERROR_TIMEOUT;
  86              		.loc 1 219 23
  87 004c 7B68     		ldr	r3, [r7, #4]
  88 004e 2022     		movs	r2, #32
  89 0050 5A65     		str	r2, [r3, #84]
 220:Drivers/STM32F4xx_HAL_Driver/Src/stm32f4xx_hal_dma.c ****       
 221:Drivers/STM32F4xx_HAL_Driver/Src/stm32f4xx_hal_dma.c ****       /* Change the DMA state */
 222:Drivers/STM32F4xx_HAL_Driver/Src/stm32f4xx_hal_dma.c ****       hdma->State = HAL_DMA_STATE_TIMEOUT;
  90              		.loc 1 222 19
  91 0052 7B68     		ldr	r3, [r7, #4]
  92 0054 0322     		movs	r2, #3
  93 0056 83F83520 		strb	r2, [r3, #53]
 223:Drivers/STM32F4xx_HAL_Driver/Src/stm32f4xx_hal_dma.c ****       
 224:Drivers/STM32F4xx_HAL_Driver/Src/stm32f4xx_hal_dma.c ****       return HAL_TIMEOUT;
  94              		.loc 1 224 14
  95 005a 0323     		movs	r3, #3
  96 005c 78E0     		b	.L3
  97              	.L4:
 213:Drivers/STM32F4xx_HAL_Driver/Src/stm32f4xx_hal_dma.c ****   {
  98              		.loc 1 213 14
  99 005e 7B68     		ldr	r3, [r7, #4]
 100 0060 1B68     		ldr	r3, [r3]
 213:Drivers/STM32F4xx_HAL_Driver/Src/stm32f4xx_hal_dma.c ****   {
 101              		.loc 1 213 24
 102 0062 1B68     		ldr	r3, [r3]
 213:Drivers/STM32F4xx_HAL_Driver/Src/stm32f4xx_hal_dma.c ****   {
 103              		.loc 1 213 29
 104 0064 03F00103 		and	r3, r3, #1
 213:Drivers/STM32F4xx_HAL_Driver/Src/stm32f4xx_hal_dma.c ****   {
 105              		.loc 1 213 8
 106 0068 002B     		cmp	r3, #0
 107 006a E8D1     		bne	.L5
 225:Drivers/STM32F4xx_HAL_Driver/Src/stm32f4xx_hal_dma.c ****     }
 226:Drivers/STM32F4xx_HAL_Driver/Src/stm32f4xx_hal_dma.c ****   }
 227:Drivers/STM32F4xx_HAL_Driver/Src/stm32f4xx_hal_dma.c ****   
 228:Drivers/STM32F4xx_HAL_Driver/Src/stm32f4xx_hal_dma.c ****   /* Get the CR register value */
 229:Drivers/STM32F4xx_HAL_Driver/Src/stm32f4xx_hal_dma.c ****   tmp = hdma->Instance->CR;
 108              		.loc 1 229 13
 109 006c 7B68     		ldr	r3, [r7, #4]
 110 006e 1B68     		ldr	r3, [r3]
ARM GAS  /var/folders/vq/qt4vp3kd5rxf7v2b6_fdtdt80000gn/T//cc8V800z.s 			page 7


 111              		.loc 1 229 7
 112 0070 1B68     		ldr	r3, [r3]
 113 0072 7B61     		str	r3, [r7, #20]
 230:Drivers/STM32F4xx_HAL_Driver/Src/stm32f4xx_hal_dma.c **** 
 231:Drivers/STM32F4xx_HAL_Driver/Src/stm32f4xx_hal_dma.c ****   /* Clear CHSEL, MBURST, PBURST, PL, MSIZE, PSIZE, MINC, PINC, CIRC, DIR, CT and DBM bits */
 232:Drivers/STM32F4xx_HAL_Driver/Src/stm32f4xx_hal_dma.c ****   tmp &= ((uint32_t)~(DMA_SxCR_CHSEL | DMA_SxCR_MBURST | DMA_SxCR_PBURST | \
 114              		.loc 1 232 7
 115 0074 7A69     		ldr	r2, [r7, #20]
 116 0076 384B     		ldr	r3, .L8
 117 0078 1340     		ands	r3, r3, r2
 118 007a 7B61     		str	r3, [r7, #20]
 233:Drivers/STM32F4xx_HAL_Driver/Src/stm32f4xx_hal_dma.c ****                       DMA_SxCR_PL    | DMA_SxCR_MSIZE  | DMA_SxCR_PSIZE  | \
 234:Drivers/STM32F4xx_HAL_Driver/Src/stm32f4xx_hal_dma.c ****                       DMA_SxCR_MINC  | DMA_SxCR_PINC   | DMA_SxCR_CIRC   | \
 235:Drivers/STM32F4xx_HAL_Driver/Src/stm32f4xx_hal_dma.c ****                       DMA_SxCR_DIR   | DMA_SxCR_CT     | DMA_SxCR_DBM));
 236:Drivers/STM32F4xx_HAL_Driver/Src/stm32f4xx_hal_dma.c **** 
 237:Drivers/STM32F4xx_HAL_Driver/Src/stm32f4xx_hal_dma.c ****   /* Prepare the DMA Stream configuration */
 238:Drivers/STM32F4xx_HAL_Driver/Src/stm32f4xx_hal_dma.c ****   tmp |=  hdma->Init.Channel             | hdma->Init.Direction        |
 119              		.loc 1 238 21
 120 007c 7B68     		ldr	r3, [r7, #4]
 121 007e 5A68     		ldr	r2, [r3, #4]
 122              		.loc 1 238 54
 123 0080 7B68     		ldr	r3, [r7, #4]
 124 0082 9B68     		ldr	r3, [r3, #8]
 125              		.loc 1 238 42
 126 0084 1A43     		orrs	r2, r2, r3
 239:Drivers/STM32F4xx_HAL_Driver/Src/stm32f4xx_hal_dma.c ****           hdma->Init.PeriphInc           | hdma->Init.MemInc           |
 127              		.loc 1 239 21
 128 0086 7B68     		ldr	r3, [r7, #4]
 129 0088 DB68     		ldr	r3, [r3, #12]
 238:Drivers/STM32F4xx_HAL_Driver/Src/stm32f4xx_hal_dma.c ****           hdma->Init.PeriphInc           | hdma->Init.MemInc           |
 130              		.loc 1 238 72
 131 008a 1A43     		orrs	r2, r2, r3
 132              		.loc 1 239 54
 133 008c 7B68     		ldr	r3, [r7, #4]
 134 008e 1B69     		ldr	r3, [r3, #16]
 135              		.loc 1 239 42
 136 0090 1A43     		orrs	r2, r2, r3
 240:Drivers/STM32F4xx_HAL_Driver/Src/stm32f4xx_hal_dma.c ****           hdma->Init.PeriphDataAlignment | hdma->Init.MemDataAlignment |
 137              		.loc 1 240 21
 138 0092 7B68     		ldr	r3, [r7, #4]
 139 0094 5B69     		ldr	r3, [r3, #20]
 239:Drivers/STM32F4xx_HAL_Driver/Src/stm32f4xx_hal_dma.c ****           hdma->Init.PeriphInc           | hdma->Init.MemInc           |
 140              		.loc 1 239 72
 141 0096 1A43     		orrs	r2, r2, r3
 142              		.loc 1 240 54
 143 0098 7B68     		ldr	r3, [r7, #4]
 144 009a 9B69     		ldr	r3, [r3, #24]
 145              		.loc 1 240 42
 146 009c 1A43     		orrs	r2, r2, r3
 241:Drivers/STM32F4xx_HAL_Driver/Src/stm32f4xx_hal_dma.c ****           hdma->Init.Mode                | hdma->Init.Priority;
 147              		.loc 1 241 21
 148 009e 7B68     		ldr	r3, [r7, #4]
 149 00a0 DB69     		ldr	r3, [r3, #28]
 240:Drivers/STM32F4xx_HAL_Driver/Src/stm32f4xx_hal_dma.c ****           hdma->Init.PeriphDataAlignment | hdma->Init.MemDataAlignment |
 150              		.loc 1 240 72
 151 00a2 1A43     		orrs	r2, r2, r3
 152              		.loc 1 241 54
ARM GAS  /var/folders/vq/qt4vp3kd5rxf7v2b6_fdtdt80000gn/T//cc8V800z.s 			page 8


 153 00a4 7B68     		ldr	r3, [r7, #4]
 154 00a6 1B6A     		ldr	r3, [r3, #32]
 155              		.loc 1 241 42
 156 00a8 1343     		orrs	r3, r3, r2
 238:Drivers/STM32F4xx_HAL_Driver/Src/stm32f4xx_hal_dma.c ****           hdma->Init.PeriphInc           | hdma->Init.MemInc           |
 157              		.loc 1 238 7
 158 00aa 7A69     		ldr	r2, [r7, #20]
 159 00ac 1343     		orrs	r3, r3, r2
 160 00ae 7B61     		str	r3, [r7, #20]
 242:Drivers/STM32F4xx_HAL_Driver/Src/stm32f4xx_hal_dma.c **** 
 243:Drivers/STM32F4xx_HAL_Driver/Src/stm32f4xx_hal_dma.c ****   /* the Memory burst and peripheral burst are not used when the FIFO is disabled */
 244:Drivers/STM32F4xx_HAL_Driver/Src/stm32f4xx_hal_dma.c ****   if(hdma->Init.FIFOMode == DMA_FIFOMODE_ENABLE)
 161              		.loc 1 244 16
 162 00b0 7B68     		ldr	r3, [r7, #4]
 163 00b2 5B6A     		ldr	r3, [r3, #36]
 164              		.loc 1 244 5
 165 00b4 042B     		cmp	r3, #4
 166 00b6 07D1     		bne	.L6
 245:Drivers/STM32F4xx_HAL_Driver/Src/stm32f4xx_hal_dma.c ****   {
 246:Drivers/STM32F4xx_HAL_Driver/Src/stm32f4xx_hal_dma.c ****     /* Get memory burst and peripheral burst */
 247:Drivers/STM32F4xx_HAL_Driver/Src/stm32f4xx_hal_dma.c ****     tmp |=  hdma->Init.MemBurst | hdma->Init.PeriphBurst;
 167              		.loc 1 247 23
 168 00b8 7B68     		ldr	r3, [r7, #4]
 169 00ba DA6A     		ldr	r2, [r3, #44]
 170              		.loc 1 247 45
 171 00bc 7B68     		ldr	r3, [r7, #4]
 172 00be 1B6B     		ldr	r3, [r3, #48]
 173              		.loc 1 247 33
 174 00c0 1343     		orrs	r3, r3, r2
 175              		.loc 1 247 9
 176 00c2 7A69     		ldr	r2, [r7, #20]
 177 00c4 1343     		orrs	r3, r3, r2
 178 00c6 7B61     		str	r3, [r7, #20]
 179              	.L6:
 248:Drivers/STM32F4xx_HAL_Driver/Src/stm32f4xx_hal_dma.c ****   }
 249:Drivers/STM32F4xx_HAL_Driver/Src/stm32f4xx_hal_dma.c ****   
 250:Drivers/STM32F4xx_HAL_Driver/Src/stm32f4xx_hal_dma.c ****   /* Write to DMA Stream CR register */
 251:Drivers/STM32F4xx_HAL_Driver/Src/stm32f4xx_hal_dma.c ****   hdma->Instance->CR = tmp;  
 180              		.loc 1 251 7
 181 00c8 7B68     		ldr	r3, [r7, #4]
 182 00ca 1B68     		ldr	r3, [r3]
 183              		.loc 1 251 22
 184 00cc 7A69     		ldr	r2, [r7, #20]
 185 00ce 1A60     		str	r2, [r3]
 252:Drivers/STM32F4xx_HAL_Driver/Src/stm32f4xx_hal_dma.c **** 
 253:Drivers/STM32F4xx_HAL_Driver/Src/stm32f4xx_hal_dma.c ****   /* Get the FCR register value */
 254:Drivers/STM32F4xx_HAL_Driver/Src/stm32f4xx_hal_dma.c ****   tmp = hdma->Instance->FCR;
 186              		.loc 1 254 13
 187 00d0 7B68     		ldr	r3, [r7, #4]
 188 00d2 1B68     		ldr	r3, [r3]
 189              		.loc 1 254 7
 190 00d4 5B69     		ldr	r3, [r3, #20]
 191 00d6 7B61     		str	r3, [r7, #20]
 255:Drivers/STM32F4xx_HAL_Driver/Src/stm32f4xx_hal_dma.c **** 
 256:Drivers/STM32F4xx_HAL_Driver/Src/stm32f4xx_hal_dma.c ****   /* Clear Direct mode and FIFO threshold bits */
 257:Drivers/STM32F4xx_HAL_Driver/Src/stm32f4xx_hal_dma.c ****   tmp &= (uint32_t)~(DMA_SxFCR_DMDIS | DMA_SxFCR_FTH);
 192              		.loc 1 257 7
ARM GAS  /var/folders/vq/qt4vp3kd5rxf7v2b6_fdtdt80000gn/T//cc8V800z.s 			page 9


 193 00d8 7B69     		ldr	r3, [r7, #20]
 194 00da 23F00703 		bic	r3, r3, #7
 195 00de 7B61     		str	r3, [r7, #20]
 258:Drivers/STM32F4xx_HAL_Driver/Src/stm32f4xx_hal_dma.c **** 
 259:Drivers/STM32F4xx_HAL_Driver/Src/stm32f4xx_hal_dma.c ****   /* Prepare the DMA Stream FIFO configuration */
 260:Drivers/STM32F4xx_HAL_Driver/Src/stm32f4xx_hal_dma.c ****   tmp |= hdma->Init.FIFOMode;
 196              		.loc 1 260 20
 197 00e0 7B68     		ldr	r3, [r7, #4]
 198 00e2 5B6A     		ldr	r3, [r3, #36]
 199              		.loc 1 260 7
 200 00e4 7A69     		ldr	r2, [r7, #20]
 201 00e6 1343     		orrs	r3, r3, r2
 202 00e8 7B61     		str	r3, [r7, #20]
 261:Drivers/STM32F4xx_HAL_Driver/Src/stm32f4xx_hal_dma.c **** 
 262:Drivers/STM32F4xx_HAL_Driver/Src/stm32f4xx_hal_dma.c ****   /* The FIFO threshold is not used when the FIFO mode is disabled */
 263:Drivers/STM32F4xx_HAL_Driver/Src/stm32f4xx_hal_dma.c ****   if(hdma->Init.FIFOMode == DMA_FIFOMODE_ENABLE)
 203              		.loc 1 263 16
 204 00ea 7B68     		ldr	r3, [r7, #4]
 205 00ec 5B6A     		ldr	r3, [r3, #36]
 206              		.loc 1 263 5
 207 00ee 042B     		cmp	r3, #4
 208 00f0 17D1     		bne	.L7
 264:Drivers/STM32F4xx_HAL_Driver/Src/stm32f4xx_hal_dma.c ****   {
 265:Drivers/STM32F4xx_HAL_Driver/Src/stm32f4xx_hal_dma.c ****     /* Get the FIFO threshold */
 266:Drivers/STM32F4xx_HAL_Driver/Src/stm32f4xx_hal_dma.c ****     tmp |= hdma->Init.FIFOThreshold;
 209              		.loc 1 266 22
 210 00f2 7B68     		ldr	r3, [r7, #4]
 211 00f4 9B6A     		ldr	r3, [r3, #40]
 212              		.loc 1 266 9
 213 00f6 7A69     		ldr	r2, [r7, #20]
 214 00f8 1343     		orrs	r3, r3, r2
 215 00fa 7B61     		str	r3, [r7, #20]
 267:Drivers/STM32F4xx_HAL_Driver/Src/stm32f4xx_hal_dma.c ****     
 268:Drivers/STM32F4xx_HAL_Driver/Src/stm32f4xx_hal_dma.c ****     /* Check compatibility between FIFO threshold level and size of the memory burst */
 269:Drivers/STM32F4xx_HAL_Driver/Src/stm32f4xx_hal_dma.c ****     /* for INCR4, INCR8, INCR16 bursts */
 270:Drivers/STM32F4xx_HAL_Driver/Src/stm32f4xx_hal_dma.c ****     if (hdma->Init.MemBurst != DMA_MBURST_SINGLE)
 216              		.loc 1 270 19
 217 00fc 7B68     		ldr	r3, [r7, #4]
 218 00fe DB6A     		ldr	r3, [r3, #44]
 219              		.loc 1 270 8
 220 0100 002B     		cmp	r3, #0
 221 0102 0ED0     		beq	.L7
 271:Drivers/STM32F4xx_HAL_Driver/Src/stm32f4xx_hal_dma.c ****     {
 272:Drivers/STM32F4xx_HAL_Driver/Src/stm32f4xx_hal_dma.c ****       if (DMA_CheckFifoParam(hdma) != HAL_OK)
 222              		.loc 1 272 11
 223 0104 7868     		ldr	r0, [r7, #4]
 224 0106 FFF7FEFF 		bl	DMA_CheckFifoParam
 225 010a 0346     		mov	r3, r0
 226              		.loc 1 272 10
 227 010c 002B     		cmp	r3, #0
 228 010e 08D0     		beq	.L7
 273:Drivers/STM32F4xx_HAL_Driver/Src/stm32f4xx_hal_dma.c ****       {
 274:Drivers/STM32F4xx_HAL_Driver/Src/stm32f4xx_hal_dma.c ****         /* Update error code */
 275:Drivers/STM32F4xx_HAL_Driver/Src/stm32f4xx_hal_dma.c ****         hdma->ErrorCode = HAL_DMA_ERROR_PARAM;
 229              		.loc 1 275 25
 230 0110 7B68     		ldr	r3, [r7, #4]
 231 0112 4022     		movs	r2, #64
ARM GAS  /var/folders/vq/qt4vp3kd5rxf7v2b6_fdtdt80000gn/T//cc8V800z.s 			page 10


 232 0114 5A65     		str	r2, [r3, #84]
 276:Drivers/STM32F4xx_HAL_Driver/Src/stm32f4xx_hal_dma.c ****         
 277:Drivers/STM32F4xx_HAL_Driver/Src/stm32f4xx_hal_dma.c ****         /* Change the DMA state */
 278:Drivers/STM32F4xx_HAL_Driver/Src/stm32f4xx_hal_dma.c ****         hdma->State = HAL_DMA_STATE_READY;
 233              		.loc 1 278 21
 234 0116 7B68     		ldr	r3, [r7, #4]
 235 0118 0122     		movs	r2, #1
 236 011a 83F83520 		strb	r2, [r3, #53]
 279:Drivers/STM32F4xx_HAL_Driver/Src/stm32f4xx_hal_dma.c ****         
 280:Drivers/STM32F4xx_HAL_Driver/Src/stm32f4xx_hal_dma.c ****         return HAL_ERROR; 
 237              		.loc 1 280 16
 238 011e 0123     		movs	r3, #1
 239 0120 16E0     		b	.L3
 240              	.L7:
 281:Drivers/STM32F4xx_HAL_Driver/Src/stm32f4xx_hal_dma.c ****       }
 282:Drivers/STM32F4xx_HAL_Driver/Src/stm32f4xx_hal_dma.c ****     }
 283:Drivers/STM32F4xx_HAL_Driver/Src/stm32f4xx_hal_dma.c ****   }
 284:Drivers/STM32F4xx_HAL_Driver/Src/stm32f4xx_hal_dma.c ****   
 285:Drivers/STM32F4xx_HAL_Driver/Src/stm32f4xx_hal_dma.c ****   /* Write to DMA Stream FCR */
 286:Drivers/STM32F4xx_HAL_Driver/Src/stm32f4xx_hal_dma.c ****   hdma->Instance->FCR = tmp;
 241              		.loc 1 286 7
 242 0122 7B68     		ldr	r3, [r7, #4]
 243 0124 1B68     		ldr	r3, [r3]
 244              		.loc 1 286 23
 245 0126 7A69     		ldr	r2, [r7, #20]
 246 0128 5A61     		str	r2, [r3, #20]
 287:Drivers/STM32F4xx_HAL_Driver/Src/stm32f4xx_hal_dma.c **** 
 288:Drivers/STM32F4xx_HAL_Driver/Src/stm32f4xx_hal_dma.c ****   /* Initialize StreamBaseAddress and StreamIndex parameters to be used to calculate
 289:Drivers/STM32F4xx_HAL_Driver/Src/stm32f4xx_hal_dma.c ****      DMA steam Base Address needed by HAL_DMA_IRQHandler() and HAL_DMA_PollForTransfer() */
 290:Drivers/STM32F4xx_HAL_Driver/Src/stm32f4xx_hal_dma.c ****   regs = (DMA_Base_Registers *)DMA_CalcBaseAndBitshift(hdma);
 247              		.loc 1 290 32
 248 012a 7868     		ldr	r0, [r7, #4]
 249 012c FFF7FEFF 		bl	DMA_CalcBaseAndBitshift
 250 0130 0346     		mov	r3, r0
 251              		.loc 1 290 8
 252 0132 FB60     		str	r3, [r7, #12]
 291:Drivers/STM32F4xx_HAL_Driver/Src/stm32f4xx_hal_dma.c ****   
 292:Drivers/STM32F4xx_HAL_Driver/Src/stm32f4xx_hal_dma.c ****   /* Clear all interrupt flags */
 293:Drivers/STM32F4xx_HAL_Driver/Src/stm32f4xx_hal_dma.c ****   regs->IFCR = 0x3FU << hdma->StreamIndex;
 253              		.loc 1 293 29
 254 0134 7B68     		ldr	r3, [r7, #4]
 255 0136 DB6D     		ldr	r3, [r3, #92]
 256              		.loc 1 293 22
 257 0138 3F22     		movs	r2, #63
 258 013a 9A40     		lsls	r2, r2, r3
 259              		.loc 1 293 14
 260 013c FB68     		ldr	r3, [r7, #12]
 261 013e 9A60     		str	r2, [r3, #8]
 294:Drivers/STM32F4xx_HAL_Driver/Src/stm32f4xx_hal_dma.c **** 
 295:Drivers/STM32F4xx_HAL_Driver/Src/stm32f4xx_hal_dma.c ****   /* Initialize the error code */
 296:Drivers/STM32F4xx_HAL_Driver/Src/stm32f4xx_hal_dma.c ****   hdma->ErrorCode = HAL_DMA_ERROR_NONE;
 262              		.loc 1 296 19
 263 0140 7B68     		ldr	r3, [r7, #4]
 264 0142 0022     		movs	r2, #0
 265 0144 5A65     		str	r2, [r3, #84]
 297:Drivers/STM32F4xx_HAL_Driver/Src/stm32f4xx_hal_dma.c ****                                                                                      
 298:Drivers/STM32F4xx_HAL_Driver/Src/stm32f4xx_hal_dma.c ****   /* Initialize the DMA state */
ARM GAS  /var/folders/vq/qt4vp3kd5rxf7v2b6_fdtdt80000gn/T//cc8V800z.s 			page 11


 299:Drivers/STM32F4xx_HAL_Driver/Src/stm32f4xx_hal_dma.c ****   hdma->State = HAL_DMA_STATE_READY;
 266              		.loc 1 299 15
 267 0146 7B68     		ldr	r3, [r7, #4]
 268 0148 0122     		movs	r2, #1
 269 014a 83F83520 		strb	r2, [r3, #53]
 300:Drivers/STM32F4xx_HAL_Driver/Src/stm32f4xx_hal_dma.c **** 
 301:Drivers/STM32F4xx_HAL_Driver/Src/stm32f4xx_hal_dma.c ****   return HAL_OK;
 270              		.loc 1 301 10
 271 014e 0023     		movs	r3, #0
 272              	.L3:
 302:Drivers/STM32F4xx_HAL_Driver/Src/stm32f4xx_hal_dma.c **** }
 273              		.loc 1 302 1
 274 0150 1846     		mov	r0, r3
 275 0152 1837     		adds	r7, r7, #24
 276              	.LCFI3:
 277              		.cfi_def_cfa_offset 8
 278 0154 BD46     		mov	sp, r7
 279              	.LCFI4:
 280              		.cfi_def_cfa_register 13
 281              		@ sp needed
 282 0156 80BD     		pop	{r7, pc}
 283              	.L9:
 284              		.align	2
 285              	.L8:
 286 0158 3F8010F0 		.word	-267354049
 287              		.cfi_endproc
 288              	.LFE130:
 290              		.section	.text.HAL_DMA_DeInit,"ax",%progbits
 291              		.align	1
 292              		.global	HAL_DMA_DeInit
 293              		.syntax unified
 294              		.thumb
 295              		.thumb_func
 296              		.fpu fpv4-sp-d16
 298              	HAL_DMA_DeInit:
 299              	.LFB131:
 303:Drivers/STM32F4xx_HAL_Driver/Src/stm32f4xx_hal_dma.c **** 
 304:Drivers/STM32F4xx_HAL_Driver/Src/stm32f4xx_hal_dma.c **** /**
 305:Drivers/STM32F4xx_HAL_Driver/Src/stm32f4xx_hal_dma.c ****   * @brief  DeInitializes the DMA peripheral 
 306:Drivers/STM32F4xx_HAL_Driver/Src/stm32f4xx_hal_dma.c ****   * @param  hdma pointer to a DMA_HandleTypeDef structure that contains
 307:Drivers/STM32F4xx_HAL_Driver/Src/stm32f4xx_hal_dma.c ****   *               the configuration information for the specified DMA Stream.  
 308:Drivers/STM32F4xx_HAL_Driver/Src/stm32f4xx_hal_dma.c ****   * @retval HAL status
 309:Drivers/STM32F4xx_HAL_Driver/Src/stm32f4xx_hal_dma.c ****   */
 310:Drivers/STM32F4xx_HAL_Driver/Src/stm32f4xx_hal_dma.c **** HAL_StatusTypeDef HAL_DMA_DeInit(DMA_HandleTypeDef *hdma)
 311:Drivers/STM32F4xx_HAL_Driver/Src/stm32f4xx_hal_dma.c **** {
 300              		.loc 1 311 1
 301              		.cfi_startproc
 302              		@ args = 0, pretend = 0, frame = 16
 303              		@ frame_needed = 1, uses_anonymous_args = 0
 304 0000 80B5     		push	{r7, lr}
 305              	.LCFI5:
 306              		.cfi_def_cfa_offset 8
 307              		.cfi_offset 7, -8
 308              		.cfi_offset 14, -4
 309 0002 84B0     		sub	sp, sp, #16
 310              	.LCFI6:
 311              		.cfi_def_cfa_offset 24
ARM GAS  /var/folders/vq/qt4vp3kd5rxf7v2b6_fdtdt80000gn/T//cc8V800z.s 			page 12


 312 0004 00AF     		add	r7, sp, #0
 313              	.LCFI7:
 314              		.cfi_def_cfa_register 7
 315 0006 7860     		str	r0, [r7, #4]
 312:Drivers/STM32F4xx_HAL_Driver/Src/stm32f4xx_hal_dma.c ****   DMA_Base_Registers *regs;
 313:Drivers/STM32F4xx_HAL_Driver/Src/stm32f4xx_hal_dma.c **** 
 314:Drivers/STM32F4xx_HAL_Driver/Src/stm32f4xx_hal_dma.c ****   /* Check the DMA peripheral state */
 315:Drivers/STM32F4xx_HAL_Driver/Src/stm32f4xx_hal_dma.c ****   if(hdma == NULL)
 316              		.loc 1 315 5
 317 0008 7B68     		ldr	r3, [r7, #4]
 318 000a 002B     		cmp	r3, #0
 319 000c 01D1     		bne	.L11
 316:Drivers/STM32F4xx_HAL_Driver/Src/stm32f4xx_hal_dma.c ****   {
 317:Drivers/STM32F4xx_HAL_Driver/Src/stm32f4xx_hal_dma.c ****     return HAL_ERROR;
 320              		.loc 1 317 12
 321 000e 0123     		movs	r3, #1
 322 0010 50E0     		b	.L12
 323              	.L11:
 318:Drivers/STM32F4xx_HAL_Driver/Src/stm32f4xx_hal_dma.c ****   }
 319:Drivers/STM32F4xx_HAL_Driver/Src/stm32f4xx_hal_dma.c ****   
 320:Drivers/STM32F4xx_HAL_Driver/Src/stm32f4xx_hal_dma.c ****   /* Check the DMA peripheral state */
 321:Drivers/STM32F4xx_HAL_Driver/Src/stm32f4xx_hal_dma.c ****   if(hdma->State == HAL_DMA_STATE_BUSY)
 324              		.loc 1 321 10
 325 0012 7B68     		ldr	r3, [r7, #4]
 326 0014 93F83530 		ldrb	r3, [r3, #53]
 327 0018 DBB2     		uxtb	r3, r3
 328              		.loc 1 321 5
 329 001a 022B     		cmp	r3, #2
 330 001c 01D1     		bne	.L13
 322:Drivers/STM32F4xx_HAL_Driver/Src/stm32f4xx_hal_dma.c ****   {
 323:Drivers/STM32F4xx_HAL_Driver/Src/stm32f4xx_hal_dma.c ****     /* Return error status */
 324:Drivers/STM32F4xx_HAL_Driver/Src/stm32f4xx_hal_dma.c ****     return HAL_BUSY;
 331              		.loc 1 324 12
 332 001e 0223     		movs	r3, #2
 333 0020 48E0     		b	.L12
 334              	.L13:
 325:Drivers/STM32F4xx_HAL_Driver/Src/stm32f4xx_hal_dma.c ****   }
 326:Drivers/STM32F4xx_HAL_Driver/Src/stm32f4xx_hal_dma.c **** 
 327:Drivers/STM32F4xx_HAL_Driver/Src/stm32f4xx_hal_dma.c ****   /* Check the parameters */
 328:Drivers/STM32F4xx_HAL_Driver/Src/stm32f4xx_hal_dma.c ****   assert_param(IS_DMA_STREAM_ALL_INSTANCE(hdma->Instance));
 329:Drivers/STM32F4xx_HAL_Driver/Src/stm32f4xx_hal_dma.c **** 
 330:Drivers/STM32F4xx_HAL_Driver/Src/stm32f4xx_hal_dma.c ****   /* Disable the selected DMA Streamx */
 331:Drivers/STM32F4xx_HAL_Driver/Src/stm32f4xx_hal_dma.c ****   __HAL_DMA_DISABLE(hdma);
 335              		.loc 1 331 3
 336 0022 7B68     		ldr	r3, [r7, #4]
 337 0024 1B68     		ldr	r3, [r3]
 338 0026 1A68     		ldr	r2, [r3]
 339 0028 7B68     		ldr	r3, [r7, #4]
 340 002a 1B68     		ldr	r3, [r3]
 341 002c 22F00102 		bic	r2, r2, #1
 342 0030 1A60     		str	r2, [r3]
 332:Drivers/STM32F4xx_HAL_Driver/Src/stm32f4xx_hal_dma.c **** 
 333:Drivers/STM32F4xx_HAL_Driver/Src/stm32f4xx_hal_dma.c ****   /* Reset DMA Streamx control register */
 334:Drivers/STM32F4xx_HAL_Driver/Src/stm32f4xx_hal_dma.c ****   hdma->Instance->CR   = 0U;
 343              		.loc 1 334 7
 344 0032 7B68     		ldr	r3, [r7, #4]
 345 0034 1B68     		ldr	r3, [r3]
ARM GAS  /var/folders/vq/qt4vp3kd5rxf7v2b6_fdtdt80000gn/T//cc8V800z.s 			page 13


 346              		.loc 1 334 24
 347 0036 0022     		movs	r2, #0
 348 0038 1A60     		str	r2, [r3]
 335:Drivers/STM32F4xx_HAL_Driver/Src/stm32f4xx_hal_dma.c **** 
 336:Drivers/STM32F4xx_HAL_Driver/Src/stm32f4xx_hal_dma.c ****   /* Reset DMA Streamx number of data to transfer register */
 337:Drivers/STM32F4xx_HAL_Driver/Src/stm32f4xx_hal_dma.c ****   hdma->Instance->NDTR = 0U;
 349              		.loc 1 337 7
 350 003a 7B68     		ldr	r3, [r7, #4]
 351 003c 1B68     		ldr	r3, [r3]
 352              		.loc 1 337 24
 353 003e 0022     		movs	r2, #0
 354 0040 5A60     		str	r2, [r3, #4]
 338:Drivers/STM32F4xx_HAL_Driver/Src/stm32f4xx_hal_dma.c **** 
 339:Drivers/STM32F4xx_HAL_Driver/Src/stm32f4xx_hal_dma.c ****   /* Reset DMA Streamx peripheral address register */
 340:Drivers/STM32F4xx_HAL_Driver/Src/stm32f4xx_hal_dma.c ****   hdma->Instance->PAR  = 0U;
 355              		.loc 1 340 7
 356 0042 7B68     		ldr	r3, [r7, #4]
 357 0044 1B68     		ldr	r3, [r3]
 358              		.loc 1 340 24
 359 0046 0022     		movs	r2, #0
 360 0048 9A60     		str	r2, [r3, #8]
 341:Drivers/STM32F4xx_HAL_Driver/Src/stm32f4xx_hal_dma.c **** 
 342:Drivers/STM32F4xx_HAL_Driver/Src/stm32f4xx_hal_dma.c ****   /* Reset DMA Streamx memory 0 address register */
 343:Drivers/STM32F4xx_HAL_Driver/Src/stm32f4xx_hal_dma.c ****   hdma->Instance->M0AR = 0U;
 361              		.loc 1 343 7
 362 004a 7B68     		ldr	r3, [r7, #4]
 363 004c 1B68     		ldr	r3, [r3]
 364              		.loc 1 343 24
 365 004e 0022     		movs	r2, #0
 366 0050 DA60     		str	r2, [r3, #12]
 344:Drivers/STM32F4xx_HAL_Driver/Src/stm32f4xx_hal_dma.c ****   
 345:Drivers/STM32F4xx_HAL_Driver/Src/stm32f4xx_hal_dma.c ****   /* Reset DMA Streamx memory 1 address register */
 346:Drivers/STM32F4xx_HAL_Driver/Src/stm32f4xx_hal_dma.c ****   hdma->Instance->M1AR = 0U;
 367              		.loc 1 346 7
 368 0052 7B68     		ldr	r3, [r7, #4]
 369 0054 1B68     		ldr	r3, [r3]
 370              		.loc 1 346 24
 371 0056 0022     		movs	r2, #0
 372 0058 1A61     		str	r2, [r3, #16]
 347:Drivers/STM32F4xx_HAL_Driver/Src/stm32f4xx_hal_dma.c ****   
 348:Drivers/STM32F4xx_HAL_Driver/Src/stm32f4xx_hal_dma.c ****   /* Reset DMA Streamx FIFO control register */
 349:Drivers/STM32F4xx_HAL_Driver/Src/stm32f4xx_hal_dma.c ****   hdma->Instance->FCR  = 0x00000021U;
 373              		.loc 1 349 7
 374 005a 7B68     		ldr	r3, [r7, #4]
 375 005c 1B68     		ldr	r3, [r3]
 376              		.loc 1 349 24
 377 005e 2122     		movs	r2, #33
 378 0060 5A61     		str	r2, [r3, #20]
 350:Drivers/STM32F4xx_HAL_Driver/Src/stm32f4xx_hal_dma.c ****   
 351:Drivers/STM32F4xx_HAL_Driver/Src/stm32f4xx_hal_dma.c ****   /* Get DMA steam Base Address */  
 352:Drivers/STM32F4xx_HAL_Driver/Src/stm32f4xx_hal_dma.c ****   regs = (DMA_Base_Registers *)DMA_CalcBaseAndBitshift(hdma);
 379              		.loc 1 352 32
 380 0062 7868     		ldr	r0, [r7, #4]
 381 0064 FFF7FEFF 		bl	DMA_CalcBaseAndBitshift
 382 0068 0346     		mov	r3, r0
 383              		.loc 1 352 8
 384 006a FB60     		str	r3, [r7, #12]
ARM GAS  /var/folders/vq/qt4vp3kd5rxf7v2b6_fdtdt80000gn/T//cc8V800z.s 			page 14


 353:Drivers/STM32F4xx_HAL_Driver/Src/stm32f4xx_hal_dma.c ****   
 354:Drivers/STM32F4xx_HAL_Driver/Src/stm32f4xx_hal_dma.c ****   /* Clean all callbacks */
 355:Drivers/STM32F4xx_HAL_Driver/Src/stm32f4xx_hal_dma.c ****   hdma->XferCpltCallback = NULL;
 385              		.loc 1 355 26
 386 006c 7B68     		ldr	r3, [r7, #4]
 387 006e 0022     		movs	r2, #0
 388 0070 DA63     		str	r2, [r3, #60]
 356:Drivers/STM32F4xx_HAL_Driver/Src/stm32f4xx_hal_dma.c ****   hdma->XferHalfCpltCallback = NULL;
 389              		.loc 1 356 30
 390 0072 7B68     		ldr	r3, [r7, #4]
 391 0074 0022     		movs	r2, #0
 392 0076 1A64     		str	r2, [r3, #64]
 357:Drivers/STM32F4xx_HAL_Driver/Src/stm32f4xx_hal_dma.c ****   hdma->XferM1CpltCallback = NULL;
 393              		.loc 1 357 28
 394 0078 7B68     		ldr	r3, [r7, #4]
 395 007a 0022     		movs	r2, #0
 396 007c 5A64     		str	r2, [r3, #68]
 358:Drivers/STM32F4xx_HAL_Driver/Src/stm32f4xx_hal_dma.c ****   hdma->XferM1HalfCpltCallback = NULL;
 397              		.loc 1 358 32
 398 007e 7B68     		ldr	r3, [r7, #4]
 399 0080 0022     		movs	r2, #0
 400 0082 9A64     		str	r2, [r3, #72]
 359:Drivers/STM32F4xx_HAL_Driver/Src/stm32f4xx_hal_dma.c ****   hdma->XferErrorCallback = NULL;
 401              		.loc 1 359 27
 402 0084 7B68     		ldr	r3, [r7, #4]
 403 0086 0022     		movs	r2, #0
 404 0088 DA64     		str	r2, [r3, #76]
 360:Drivers/STM32F4xx_HAL_Driver/Src/stm32f4xx_hal_dma.c ****   hdma->XferAbortCallback = NULL;
 405              		.loc 1 360 27
 406 008a 7B68     		ldr	r3, [r7, #4]
 407 008c 0022     		movs	r2, #0
 408 008e 1A65     		str	r2, [r3, #80]
 361:Drivers/STM32F4xx_HAL_Driver/Src/stm32f4xx_hal_dma.c **** 
 362:Drivers/STM32F4xx_HAL_Driver/Src/stm32f4xx_hal_dma.c ****   /* Clear all interrupt flags at correct offset within the register */
 363:Drivers/STM32F4xx_HAL_Driver/Src/stm32f4xx_hal_dma.c ****   regs->IFCR = 0x3FU << hdma->StreamIndex;
 409              		.loc 1 363 29
 410 0090 7B68     		ldr	r3, [r7, #4]
 411 0092 DB6D     		ldr	r3, [r3, #92]
 412              		.loc 1 363 22
 413 0094 3F22     		movs	r2, #63
 414 0096 9A40     		lsls	r2, r2, r3
 415              		.loc 1 363 14
 416 0098 FB68     		ldr	r3, [r7, #12]
 417 009a 9A60     		str	r2, [r3, #8]
 364:Drivers/STM32F4xx_HAL_Driver/Src/stm32f4xx_hal_dma.c **** 
 365:Drivers/STM32F4xx_HAL_Driver/Src/stm32f4xx_hal_dma.c ****   /* Reset the error code */
 366:Drivers/STM32F4xx_HAL_Driver/Src/stm32f4xx_hal_dma.c ****   hdma->ErrorCode = HAL_DMA_ERROR_NONE;
 418              		.loc 1 366 19
 419 009c 7B68     		ldr	r3, [r7, #4]
 420 009e 0022     		movs	r2, #0
 421 00a0 5A65     		str	r2, [r3, #84]
 367:Drivers/STM32F4xx_HAL_Driver/Src/stm32f4xx_hal_dma.c **** 
 368:Drivers/STM32F4xx_HAL_Driver/Src/stm32f4xx_hal_dma.c ****   /* Reset the DMA state */
 369:Drivers/STM32F4xx_HAL_Driver/Src/stm32f4xx_hal_dma.c ****   hdma->State = HAL_DMA_STATE_RESET;
 422              		.loc 1 369 15
 423 00a2 7B68     		ldr	r3, [r7, #4]
 424 00a4 0022     		movs	r2, #0
ARM GAS  /var/folders/vq/qt4vp3kd5rxf7v2b6_fdtdt80000gn/T//cc8V800z.s 			page 15


 425 00a6 83F83520 		strb	r2, [r3, #53]
 370:Drivers/STM32F4xx_HAL_Driver/Src/stm32f4xx_hal_dma.c **** 
 371:Drivers/STM32F4xx_HAL_Driver/Src/stm32f4xx_hal_dma.c ****   /* Release Lock */
 372:Drivers/STM32F4xx_HAL_Driver/Src/stm32f4xx_hal_dma.c ****   __HAL_UNLOCK(hdma);
 426              		.loc 1 372 3
 427 00aa 7B68     		ldr	r3, [r7, #4]
 428 00ac 0022     		movs	r2, #0
 429 00ae 83F83420 		strb	r2, [r3, #52]
 373:Drivers/STM32F4xx_HAL_Driver/Src/stm32f4xx_hal_dma.c **** 
 374:Drivers/STM32F4xx_HAL_Driver/Src/stm32f4xx_hal_dma.c ****   return HAL_OK;
 430              		.loc 1 374 10
 431 00b2 0023     		movs	r3, #0
 432              	.L12:
 375:Drivers/STM32F4xx_HAL_Driver/Src/stm32f4xx_hal_dma.c **** }
 433              		.loc 1 375 1
 434 00b4 1846     		mov	r0, r3
 435 00b6 1037     		adds	r7, r7, #16
 436              	.LCFI8:
 437              		.cfi_def_cfa_offset 8
 438 00b8 BD46     		mov	sp, r7
 439              	.LCFI9:
 440              		.cfi_def_cfa_register 13
 441              		@ sp needed
 442 00ba 80BD     		pop	{r7, pc}
 443              		.cfi_endproc
 444              	.LFE131:
 446              		.section	.text.HAL_DMA_Start,"ax",%progbits
 447              		.align	1
 448              		.global	HAL_DMA_Start
 449              		.syntax unified
 450              		.thumb
 451              		.thumb_func
 452              		.fpu fpv4-sp-d16
 454              	HAL_DMA_Start:
 455              	.LFB132:
 376:Drivers/STM32F4xx_HAL_Driver/Src/stm32f4xx_hal_dma.c **** 
 377:Drivers/STM32F4xx_HAL_Driver/Src/stm32f4xx_hal_dma.c **** /**
 378:Drivers/STM32F4xx_HAL_Driver/Src/stm32f4xx_hal_dma.c ****   * @}
 379:Drivers/STM32F4xx_HAL_Driver/Src/stm32f4xx_hal_dma.c ****   */
 380:Drivers/STM32F4xx_HAL_Driver/Src/stm32f4xx_hal_dma.c **** 
 381:Drivers/STM32F4xx_HAL_Driver/Src/stm32f4xx_hal_dma.c **** /** @addtogroup DMA_Exported_Functions_Group2
 382:Drivers/STM32F4xx_HAL_Driver/Src/stm32f4xx_hal_dma.c ****   *
 383:Drivers/STM32F4xx_HAL_Driver/Src/stm32f4xx_hal_dma.c **** @verbatim   
 384:Drivers/STM32F4xx_HAL_Driver/Src/stm32f4xx_hal_dma.c ****  ===============================================================================
 385:Drivers/STM32F4xx_HAL_Driver/Src/stm32f4xx_hal_dma.c ****                       #####  IO operation functions  #####
 386:Drivers/STM32F4xx_HAL_Driver/Src/stm32f4xx_hal_dma.c ****  ===============================================================================
 387:Drivers/STM32F4xx_HAL_Driver/Src/stm32f4xx_hal_dma.c ****     [..]  This section provides functions allowing to:
 388:Drivers/STM32F4xx_HAL_Driver/Src/stm32f4xx_hal_dma.c ****       (+) Configure the source, destination address and data length and Start DMA transfer
 389:Drivers/STM32F4xx_HAL_Driver/Src/stm32f4xx_hal_dma.c ****       (+) Configure the source, destination address and data length and 
 390:Drivers/STM32F4xx_HAL_Driver/Src/stm32f4xx_hal_dma.c ****           Start DMA transfer with interrupt
 391:Drivers/STM32F4xx_HAL_Driver/Src/stm32f4xx_hal_dma.c ****       (+) Abort DMA transfer
 392:Drivers/STM32F4xx_HAL_Driver/Src/stm32f4xx_hal_dma.c ****       (+) Poll for transfer complete
 393:Drivers/STM32F4xx_HAL_Driver/Src/stm32f4xx_hal_dma.c ****       (+) Handle DMA interrupt request  
 394:Drivers/STM32F4xx_HAL_Driver/Src/stm32f4xx_hal_dma.c **** 
 395:Drivers/STM32F4xx_HAL_Driver/Src/stm32f4xx_hal_dma.c **** @endverbatim
 396:Drivers/STM32F4xx_HAL_Driver/Src/stm32f4xx_hal_dma.c ****   * @{
 397:Drivers/STM32F4xx_HAL_Driver/Src/stm32f4xx_hal_dma.c ****   */
ARM GAS  /var/folders/vq/qt4vp3kd5rxf7v2b6_fdtdt80000gn/T//cc8V800z.s 			page 16


 398:Drivers/STM32F4xx_HAL_Driver/Src/stm32f4xx_hal_dma.c **** 
 399:Drivers/STM32F4xx_HAL_Driver/Src/stm32f4xx_hal_dma.c **** /**
 400:Drivers/STM32F4xx_HAL_Driver/Src/stm32f4xx_hal_dma.c ****   * @brief  Starts the DMA Transfer.
 401:Drivers/STM32F4xx_HAL_Driver/Src/stm32f4xx_hal_dma.c ****   * @param  hdma       pointer to a DMA_HandleTypeDef structure that contains
 402:Drivers/STM32F4xx_HAL_Driver/Src/stm32f4xx_hal_dma.c ****   *                     the configuration information for the specified DMA Stream.
 403:Drivers/STM32F4xx_HAL_Driver/Src/stm32f4xx_hal_dma.c ****   * @param  SrcAddress The source memory Buffer address
 404:Drivers/STM32F4xx_HAL_Driver/Src/stm32f4xx_hal_dma.c ****   * @param  DstAddress The destination memory Buffer address
 405:Drivers/STM32F4xx_HAL_Driver/Src/stm32f4xx_hal_dma.c ****   * @param  DataLength The length of data to be transferred from source to destination
 406:Drivers/STM32F4xx_HAL_Driver/Src/stm32f4xx_hal_dma.c ****   * @retval HAL status
 407:Drivers/STM32F4xx_HAL_Driver/Src/stm32f4xx_hal_dma.c ****   */
 408:Drivers/STM32F4xx_HAL_Driver/Src/stm32f4xx_hal_dma.c **** HAL_StatusTypeDef HAL_DMA_Start(DMA_HandleTypeDef *hdma, uint32_t SrcAddress, uint32_t DstAddress, 
 409:Drivers/STM32F4xx_HAL_Driver/Src/stm32f4xx_hal_dma.c **** {
 456              		.loc 1 409 1
 457              		.cfi_startproc
 458              		@ args = 0, pretend = 0, frame = 24
 459              		@ frame_needed = 1, uses_anonymous_args = 0
 460 0000 80B5     		push	{r7, lr}
 461              	.LCFI10:
 462              		.cfi_def_cfa_offset 8
 463              		.cfi_offset 7, -8
 464              		.cfi_offset 14, -4
 465 0002 86B0     		sub	sp, sp, #24
 466              	.LCFI11:
 467              		.cfi_def_cfa_offset 32
 468 0004 00AF     		add	r7, sp, #0
 469              	.LCFI12:
 470              		.cfi_def_cfa_register 7
 471 0006 F860     		str	r0, [r7, #12]
 472 0008 B960     		str	r1, [r7, #8]
 473 000a 7A60     		str	r2, [r7, #4]
 474 000c 3B60     		str	r3, [r7]
 410:Drivers/STM32F4xx_HAL_Driver/Src/stm32f4xx_hal_dma.c ****   HAL_StatusTypeDef status = HAL_OK;
 475              		.loc 1 410 21
 476 000e 0023     		movs	r3, #0
 477 0010 FB75     		strb	r3, [r7, #23]
 411:Drivers/STM32F4xx_HAL_Driver/Src/stm32f4xx_hal_dma.c ****   
 412:Drivers/STM32F4xx_HAL_Driver/Src/stm32f4xx_hal_dma.c ****   /* Check the parameters */
 413:Drivers/STM32F4xx_HAL_Driver/Src/stm32f4xx_hal_dma.c ****   assert_param(IS_DMA_BUFFER_SIZE(DataLength));
 414:Drivers/STM32F4xx_HAL_Driver/Src/stm32f4xx_hal_dma.c **** 
 415:Drivers/STM32F4xx_HAL_Driver/Src/stm32f4xx_hal_dma.c ****   /* Process locked */
 416:Drivers/STM32F4xx_HAL_Driver/Src/stm32f4xx_hal_dma.c ****   __HAL_LOCK(hdma);
 478              		.loc 1 416 3
 479 0012 FB68     		ldr	r3, [r7, #12]
 480 0014 93F83430 		ldrb	r3, [r3, #52]	@ zero_extendqisi2
 481 0018 012B     		cmp	r3, #1
 482 001a 01D1     		bne	.L15
 483              		.loc 1 416 3 is_stmt 0 discriminator 1
 484 001c 0223     		movs	r3, #2
 485 001e 26E0     		b	.L16
 486              	.L15:
 487              		.loc 1 416 3 discriminator 2
 488 0020 FB68     		ldr	r3, [r7, #12]
 489 0022 0122     		movs	r2, #1
 490 0024 83F83420 		strb	r2, [r3, #52]
 417:Drivers/STM32F4xx_HAL_Driver/Src/stm32f4xx_hal_dma.c **** 
 418:Drivers/STM32F4xx_HAL_Driver/Src/stm32f4xx_hal_dma.c ****   if(HAL_DMA_STATE_READY == hdma->State)
 491              		.loc 1 418 33 is_stmt 1 discriminator 2
ARM GAS  /var/folders/vq/qt4vp3kd5rxf7v2b6_fdtdt80000gn/T//cc8V800z.s 			page 17


 492 0028 FB68     		ldr	r3, [r7, #12]
 493 002a 93F83530 		ldrb	r3, [r3, #53]
 494 002e DBB2     		uxtb	r3, r3
 495              		.loc 1 418 5 discriminator 2
 496 0030 012B     		cmp	r3, #1
 497 0032 15D1     		bne	.L17
 419:Drivers/STM32F4xx_HAL_Driver/Src/stm32f4xx_hal_dma.c ****   {
 420:Drivers/STM32F4xx_HAL_Driver/Src/stm32f4xx_hal_dma.c ****     /* Change DMA peripheral state */
 421:Drivers/STM32F4xx_HAL_Driver/Src/stm32f4xx_hal_dma.c ****     hdma->State = HAL_DMA_STATE_BUSY;
 498              		.loc 1 421 17
 499 0034 FB68     		ldr	r3, [r7, #12]
 500 0036 0222     		movs	r2, #2
 501 0038 83F83520 		strb	r2, [r3, #53]
 422:Drivers/STM32F4xx_HAL_Driver/Src/stm32f4xx_hal_dma.c ****     
 423:Drivers/STM32F4xx_HAL_Driver/Src/stm32f4xx_hal_dma.c ****     /* Initialize the error code */
 424:Drivers/STM32F4xx_HAL_Driver/Src/stm32f4xx_hal_dma.c ****     hdma->ErrorCode = HAL_DMA_ERROR_NONE;
 502              		.loc 1 424 21
 503 003c FB68     		ldr	r3, [r7, #12]
 504 003e 0022     		movs	r2, #0
 505 0040 5A65     		str	r2, [r3, #84]
 425:Drivers/STM32F4xx_HAL_Driver/Src/stm32f4xx_hal_dma.c ****     
 426:Drivers/STM32F4xx_HAL_Driver/Src/stm32f4xx_hal_dma.c ****     /* Configure the source, destination address and the data length */
 427:Drivers/STM32F4xx_HAL_Driver/Src/stm32f4xx_hal_dma.c ****     DMA_SetConfig(hdma, SrcAddress, DstAddress, DataLength);
 506              		.loc 1 427 5
 507 0042 3B68     		ldr	r3, [r7]
 508 0044 7A68     		ldr	r2, [r7, #4]
 509 0046 B968     		ldr	r1, [r7, #8]
 510 0048 F868     		ldr	r0, [r7, #12]
 511 004a FFF7FEFF 		bl	DMA_SetConfig
 428:Drivers/STM32F4xx_HAL_Driver/Src/stm32f4xx_hal_dma.c **** 
 429:Drivers/STM32F4xx_HAL_Driver/Src/stm32f4xx_hal_dma.c ****     /* Enable the Peripheral */
 430:Drivers/STM32F4xx_HAL_Driver/Src/stm32f4xx_hal_dma.c ****     __HAL_DMA_ENABLE(hdma);
 512              		.loc 1 430 5
 513 004e FB68     		ldr	r3, [r7, #12]
 514 0050 1B68     		ldr	r3, [r3]
 515 0052 1A68     		ldr	r2, [r3]
 516 0054 FB68     		ldr	r3, [r7, #12]
 517 0056 1B68     		ldr	r3, [r3]
 518 0058 42F00102 		orr	r2, r2, #1
 519 005c 1A60     		str	r2, [r3]
 520 005e 05E0     		b	.L18
 521              	.L17:
 431:Drivers/STM32F4xx_HAL_Driver/Src/stm32f4xx_hal_dma.c ****   }
 432:Drivers/STM32F4xx_HAL_Driver/Src/stm32f4xx_hal_dma.c ****   else
 433:Drivers/STM32F4xx_HAL_Driver/Src/stm32f4xx_hal_dma.c ****   {
 434:Drivers/STM32F4xx_HAL_Driver/Src/stm32f4xx_hal_dma.c ****     /* Process unlocked */
 435:Drivers/STM32F4xx_HAL_Driver/Src/stm32f4xx_hal_dma.c ****     __HAL_UNLOCK(hdma);
 522              		.loc 1 435 5
 523 0060 FB68     		ldr	r3, [r7, #12]
 524 0062 0022     		movs	r2, #0
 525 0064 83F83420 		strb	r2, [r3, #52]
 436:Drivers/STM32F4xx_HAL_Driver/Src/stm32f4xx_hal_dma.c ****     
 437:Drivers/STM32F4xx_HAL_Driver/Src/stm32f4xx_hal_dma.c ****     /* Return error status */
 438:Drivers/STM32F4xx_HAL_Driver/Src/stm32f4xx_hal_dma.c ****     status = HAL_BUSY;
 526              		.loc 1 438 12
 527 0068 0223     		movs	r3, #2
 528 006a FB75     		strb	r3, [r7, #23]
ARM GAS  /var/folders/vq/qt4vp3kd5rxf7v2b6_fdtdt80000gn/T//cc8V800z.s 			page 18


 529              	.L18:
 439:Drivers/STM32F4xx_HAL_Driver/Src/stm32f4xx_hal_dma.c ****   } 
 440:Drivers/STM32F4xx_HAL_Driver/Src/stm32f4xx_hal_dma.c ****   return status; 
 530              		.loc 1 440 10
 531 006c FB7D     		ldrb	r3, [r7, #23]	@ zero_extendqisi2
 532              	.L16:
 441:Drivers/STM32F4xx_HAL_Driver/Src/stm32f4xx_hal_dma.c **** }
 533              		.loc 1 441 1
 534 006e 1846     		mov	r0, r3
 535 0070 1837     		adds	r7, r7, #24
 536              	.LCFI13:
 537              		.cfi_def_cfa_offset 8
 538 0072 BD46     		mov	sp, r7
 539              	.LCFI14:
 540              		.cfi_def_cfa_register 13
 541              		@ sp needed
 542 0074 80BD     		pop	{r7, pc}
 543              		.cfi_endproc
 544              	.LFE132:
 546              		.section	.text.HAL_DMA_Start_IT,"ax",%progbits
 547              		.align	1
 548              		.global	HAL_DMA_Start_IT
 549              		.syntax unified
 550              		.thumb
 551              		.thumb_func
 552              		.fpu fpv4-sp-d16
 554              	HAL_DMA_Start_IT:
 555              	.LFB133:
 442:Drivers/STM32F4xx_HAL_Driver/Src/stm32f4xx_hal_dma.c **** 
 443:Drivers/STM32F4xx_HAL_Driver/Src/stm32f4xx_hal_dma.c **** /**
 444:Drivers/STM32F4xx_HAL_Driver/Src/stm32f4xx_hal_dma.c ****   * @brief  Start the DMA Transfer with interrupt enabled.
 445:Drivers/STM32F4xx_HAL_Driver/Src/stm32f4xx_hal_dma.c ****   * @param  hdma       pointer to a DMA_HandleTypeDef structure that contains
 446:Drivers/STM32F4xx_HAL_Driver/Src/stm32f4xx_hal_dma.c ****   *                     the configuration information for the specified DMA Stream.  
 447:Drivers/STM32F4xx_HAL_Driver/Src/stm32f4xx_hal_dma.c ****   * @param  SrcAddress The source memory Buffer address
 448:Drivers/STM32F4xx_HAL_Driver/Src/stm32f4xx_hal_dma.c ****   * @param  DstAddress The destination memory Buffer address
 449:Drivers/STM32F4xx_HAL_Driver/Src/stm32f4xx_hal_dma.c ****   * @param  DataLength The length of data to be transferred from source to destination
 450:Drivers/STM32F4xx_HAL_Driver/Src/stm32f4xx_hal_dma.c ****   * @retval HAL status
 451:Drivers/STM32F4xx_HAL_Driver/Src/stm32f4xx_hal_dma.c ****   */
 452:Drivers/STM32F4xx_HAL_Driver/Src/stm32f4xx_hal_dma.c **** HAL_StatusTypeDef HAL_DMA_Start_IT(DMA_HandleTypeDef *hdma, uint32_t SrcAddress, uint32_t DstAddres
 453:Drivers/STM32F4xx_HAL_Driver/Src/stm32f4xx_hal_dma.c **** {
 556              		.loc 1 453 1
 557              		.cfi_startproc
 558              		@ args = 0, pretend = 0, frame = 24
 559              		@ frame_needed = 1, uses_anonymous_args = 0
 560 0000 80B5     		push	{r7, lr}
 561              	.LCFI15:
 562              		.cfi_def_cfa_offset 8
 563              		.cfi_offset 7, -8
 564              		.cfi_offset 14, -4
 565 0002 86B0     		sub	sp, sp, #24
 566              	.LCFI16:
 567              		.cfi_def_cfa_offset 32
 568 0004 00AF     		add	r7, sp, #0
 569              	.LCFI17:
 570              		.cfi_def_cfa_register 7
 571 0006 F860     		str	r0, [r7, #12]
 572 0008 B960     		str	r1, [r7, #8]
ARM GAS  /var/folders/vq/qt4vp3kd5rxf7v2b6_fdtdt80000gn/T//cc8V800z.s 			page 19


 573 000a 7A60     		str	r2, [r7, #4]
 574 000c 3B60     		str	r3, [r7]
 454:Drivers/STM32F4xx_HAL_Driver/Src/stm32f4xx_hal_dma.c ****   HAL_StatusTypeDef status = HAL_OK;
 575              		.loc 1 454 21
 576 000e 0023     		movs	r3, #0
 577 0010 FB75     		strb	r3, [r7, #23]
 455:Drivers/STM32F4xx_HAL_Driver/Src/stm32f4xx_hal_dma.c **** 
 456:Drivers/STM32F4xx_HAL_Driver/Src/stm32f4xx_hal_dma.c ****   /* calculate DMA base and stream number */
 457:Drivers/STM32F4xx_HAL_Driver/Src/stm32f4xx_hal_dma.c ****   DMA_Base_Registers *regs = (DMA_Base_Registers *)hdma->StreamBaseAddress;
 578              		.loc 1 457 56
 579 0012 FB68     		ldr	r3, [r7, #12]
 580 0014 9B6D     		ldr	r3, [r3, #88]
 581              		.loc 1 457 23
 582 0016 3B61     		str	r3, [r7, #16]
 458:Drivers/STM32F4xx_HAL_Driver/Src/stm32f4xx_hal_dma.c ****   
 459:Drivers/STM32F4xx_HAL_Driver/Src/stm32f4xx_hal_dma.c ****   /* Check the parameters */
 460:Drivers/STM32F4xx_HAL_Driver/Src/stm32f4xx_hal_dma.c ****   assert_param(IS_DMA_BUFFER_SIZE(DataLength));
 461:Drivers/STM32F4xx_HAL_Driver/Src/stm32f4xx_hal_dma.c ****  
 462:Drivers/STM32F4xx_HAL_Driver/Src/stm32f4xx_hal_dma.c ****   /* Process locked */
 463:Drivers/STM32F4xx_HAL_Driver/Src/stm32f4xx_hal_dma.c ****   __HAL_LOCK(hdma);
 583              		.loc 1 463 3
 584 0018 FB68     		ldr	r3, [r7, #12]
 585 001a 93F83430 		ldrb	r3, [r3, #52]	@ zero_extendqisi2
 586 001e 012B     		cmp	r3, #1
 587 0020 01D1     		bne	.L20
 588              		.loc 1 463 3 is_stmt 0 discriminator 1
 589 0022 0223     		movs	r3, #2
 590 0024 40E0     		b	.L21
 591              	.L20:
 592              		.loc 1 463 3 discriminator 2
 593 0026 FB68     		ldr	r3, [r7, #12]
 594 0028 0122     		movs	r2, #1
 595 002a 83F83420 		strb	r2, [r3, #52]
 464:Drivers/STM32F4xx_HAL_Driver/Src/stm32f4xx_hal_dma.c ****   
 465:Drivers/STM32F4xx_HAL_Driver/Src/stm32f4xx_hal_dma.c ****   if(HAL_DMA_STATE_READY == hdma->State)
 596              		.loc 1 465 33 is_stmt 1 discriminator 2
 597 002e FB68     		ldr	r3, [r7, #12]
 598 0030 93F83530 		ldrb	r3, [r3, #53]
 599 0034 DBB2     		uxtb	r3, r3
 600              		.loc 1 465 5 discriminator 2
 601 0036 012B     		cmp	r3, #1
 602 0038 2FD1     		bne	.L22
 466:Drivers/STM32F4xx_HAL_Driver/Src/stm32f4xx_hal_dma.c ****   {
 467:Drivers/STM32F4xx_HAL_Driver/Src/stm32f4xx_hal_dma.c ****     /* Change DMA peripheral state */
 468:Drivers/STM32F4xx_HAL_Driver/Src/stm32f4xx_hal_dma.c ****     hdma->State = HAL_DMA_STATE_BUSY;
 603              		.loc 1 468 17
 604 003a FB68     		ldr	r3, [r7, #12]
 605 003c 0222     		movs	r2, #2
 606 003e 83F83520 		strb	r2, [r3, #53]
 469:Drivers/STM32F4xx_HAL_Driver/Src/stm32f4xx_hal_dma.c ****     
 470:Drivers/STM32F4xx_HAL_Driver/Src/stm32f4xx_hal_dma.c ****     /* Initialize the error code */
 471:Drivers/STM32F4xx_HAL_Driver/Src/stm32f4xx_hal_dma.c ****     hdma->ErrorCode = HAL_DMA_ERROR_NONE;
 607              		.loc 1 471 21
 608 0042 FB68     		ldr	r3, [r7, #12]
 609 0044 0022     		movs	r2, #0
 610 0046 5A65     		str	r2, [r3, #84]
 472:Drivers/STM32F4xx_HAL_Driver/Src/stm32f4xx_hal_dma.c ****     
ARM GAS  /var/folders/vq/qt4vp3kd5rxf7v2b6_fdtdt80000gn/T//cc8V800z.s 			page 20


 473:Drivers/STM32F4xx_HAL_Driver/Src/stm32f4xx_hal_dma.c ****     /* Configure the source, destination address and the data length */
 474:Drivers/STM32F4xx_HAL_Driver/Src/stm32f4xx_hal_dma.c ****     DMA_SetConfig(hdma, SrcAddress, DstAddress, DataLength);
 611              		.loc 1 474 5
 612 0048 3B68     		ldr	r3, [r7]
 613 004a 7A68     		ldr	r2, [r7, #4]
 614 004c B968     		ldr	r1, [r7, #8]
 615 004e F868     		ldr	r0, [r7, #12]
 616 0050 FFF7FEFF 		bl	DMA_SetConfig
 475:Drivers/STM32F4xx_HAL_Driver/Src/stm32f4xx_hal_dma.c ****     
 476:Drivers/STM32F4xx_HAL_Driver/Src/stm32f4xx_hal_dma.c ****     /* Clear all interrupt flags at correct offset within the register */
 477:Drivers/STM32F4xx_HAL_Driver/Src/stm32f4xx_hal_dma.c ****     regs->IFCR = 0x3FU << hdma->StreamIndex;
 617              		.loc 1 477 31
 618 0054 FB68     		ldr	r3, [r7, #12]
 619 0056 DB6D     		ldr	r3, [r3, #92]
 620              		.loc 1 477 24
 621 0058 3F22     		movs	r2, #63
 622 005a 9A40     		lsls	r2, r2, r3
 623              		.loc 1 477 16
 624 005c 3B69     		ldr	r3, [r7, #16]
 625 005e 9A60     		str	r2, [r3, #8]
 478:Drivers/STM32F4xx_HAL_Driver/Src/stm32f4xx_hal_dma.c ****     
 479:Drivers/STM32F4xx_HAL_Driver/Src/stm32f4xx_hal_dma.c ****     /* Enable Common interrupts*/
 480:Drivers/STM32F4xx_HAL_Driver/Src/stm32f4xx_hal_dma.c ****     hdma->Instance->CR  |= DMA_IT_TC | DMA_IT_TE | DMA_IT_DME;
 626              		.loc 1 480 9
 627 0060 FB68     		ldr	r3, [r7, #12]
 628 0062 1B68     		ldr	r3, [r3]
 629              		.loc 1 480 25
 630 0064 1A68     		ldr	r2, [r3]
 631              		.loc 1 480 9
 632 0066 FB68     		ldr	r3, [r7, #12]
 633 0068 1B68     		ldr	r3, [r3]
 634              		.loc 1 480 25
 635 006a 42F01602 		orr	r2, r2, #22
 636 006e 1A60     		str	r2, [r3]
 481:Drivers/STM32F4xx_HAL_Driver/Src/stm32f4xx_hal_dma.c ****     
 482:Drivers/STM32F4xx_HAL_Driver/Src/stm32f4xx_hal_dma.c ****     if(hdma->XferHalfCpltCallback != NULL)
 637              		.loc 1 482 12
 638 0070 FB68     		ldr	r3, [r7, #12]
 639 0072 1B6C     		ldr	r3, [r3, #64]
 640              		.loc 1 482 7
 641 0074 002B     		cmp	r3, #0
 642 0076 07D0     		beq	.L23
 483:Drivers/STM32F4xx_HAL_Driver/Src/stm32f4xx_hal_dma.c ****     {
 484:Drivers/STM32F4xx_HAL_Driver/Src/stm32f4xx_hal_dma.c ****       hdma->Instance->CR  |= DMA_IT_HT;
 643              		.loc 1 484 11
 644 0078 FB68     		ldr	r3, [r7, #12]
 645 007a 1B68     		ldr	r3, [r3]
 646              		.loc 1 484 27
 647 007c 1A68     		ldr	r2, [r3]
 648              		.loc 1 484 11
 649 007e FB68     		ldr	r3, [r7, #12]
 650 0080 1B68     		ldr	r3, [r3]
 651              		.loc 1 484 27
 652 0082 42F00802 		orr	r2, r2, #8
 653 0086 1A60     		str	r2, [r3]
 654              	.L23:
 485:Drivers/STM32F4xx_HAL_Driver/Src/stm32f4xx_hal_dma.c ****     }
ARM GAS  /var/folders/vq/qt4vp3kd5rxf7v2b6_fdtdt80000gn/T//cc8V800z.s 			page 21


 486:Drivers/STM32F4xx_HAL_Driver/Src/stm32f4xx_hal_dma.c ****     
 487:Drivers/STM32F4xx_HAL_Driver/Src/stm32f4xx_hal_dma.c ****     /* Enable the Peripheral */
 488:Drivers/STM32F4xx_HAL_Driver/Src/stm32f4xx_hal_dma.c ****     __HAL_DMA_ENABLE(hdma);
 655              		.loc 1 488 5
 656 0088 FB68     		ldr	r3, [r7, #12]
 657 008a 1B68     		ldr	r3, [r3]
 658 008c 1A68     		ldr	r2, [r3]
 659 008e FB68     		ldr	r3, [r7, #12]
 660 0090 1B68     		ldr	r3, [r3]
 661 0092 42F00102 		orr	r2, r2, #1
 662 0096 1A60     		str	r2, [r3]
 663 0098 05E0     		b	.L24
 664              	.L22:
 489:Drivers/STM32F4xx_HAL_Driver/Src/stm32f4xx_hal_dma.c ****   }
 490:Drivers/STM32F4xx_HAL_Driver/Src/stm32f4xx_hal_dma.c ****   else
 491:Drivers/STM32F4xx_HAL_Driver/Src/stm32f4xx_hal_dma.c ****   {
 492:Drivers/STM32F4xx_HAL_Driver/Src/stm32f4xx_hal_dma.c ****     /* Process unlocked */
 493:Drivers/STM32F4xx_HAL_Driver/Src/stm32f4xx_hal_dma.c ****     __HAL_UNLOCK(hdma);	  
 665              		.loc 1 493 5
 666 009a FB68     		ldr	r3, [r7, #12]
 667 009c 0022     		movs	r2, #0
 668 009e 83F83420 		strb	r2, [r3, #52]
 494:Drivers/STM32F4xx_HAL_Driver/Src/stm32f4xx_hal_dma.c ****     
 495:Drivers/STM32F4xx_HAL_Driver/Src/stm32f4xx_hal_dma.c ****     /* Return error status */
 496:Drivers/STM32F4xx_HAL_Driver/Src/stm32f4xx_hal_dma.c ****     status = HAL_BUSY;
 669              		.loc 1 496 12
 670 00a2 0223     		movs	r3, #2
 671 00a4 FB75     		strb	r3, [r7, #23]
 672              	.L24:
 497:Drivers/STM32F4xx_HAL_Driver/Src/stm32f4xx_hal_dma.c ****   }
 498:Drivers/STM32F4xx_HAL_Driver/Src/stm32f4xx_hal_dma.c ****   
 499:Drivers/STM32F4xx_HAL_Driver/Src/stm32f4xx_hal_dma.c ****   return status;
 673              		.loc 1 499 10
 674 00a6 FB7D     		ldrb	r3, [r7, #23]	@ zero_extendqisi2
 675              	.L21:
 500:Drivers/STM32F4xx_HAL_Driver/Src/stm32f4xx_hal_dma.c **** }
 676              		.loc 1 500 1
 677 00a8 1846     		mov	r0, r3
 678 00aa 1837     		adds	r7, r7, #24
 679              	.LCFI18:
 680              		.cfi_def_cfa_offset 8
 681 00ac BD46     		mov	sp, r7
 682              	.LCFI19:
 683              		.cfi_def_cfa_register 13
 684              		@ sp needed
 685 00ae 80BD     		pop	{r7, pc}
 686              		.cfi_endproc
 687              	.LFE133:
 689              		.section	.text.HAL_DMA_Abort,"ax",%progbits
 690              		.align	1
 691              		.global	HAL_DMA_Abort
 692              		.syntax unified
 693              		.thumb
 694              		.thumb_func
 695              		.fpu fpv4-sp-d16
 697              	HAL_DMA_Abort:
 698              	.LFB134:
ARM GAS  /var/folders/vq/qt4vp3kd5rxf7v2b6_fdtdt80000gn/T//cc8V800z.s 			page 22


 501:Drivers/STM32F4xx_HAL_Driver/Src/stm32f4xx_hal_dma.c **** 
 502:Drivers/STM32F4xx_HAL_Driver/Src/stm32f4xx_hal_dma.c **** /**
 503:Drivers/STM32F4xx_HAL_Driver/Src/stm32f4xx_hal_dma.c ****   * @brief  Aborts the DMA Transfer.
 504:Drivers/STM32F4xx_HAL_Driver/Src/stm32f4xx_hal_dma.c ****   * @param  hdma   pointer to a DMA_HandleTypeDef structure that contains
 505:Drivers/STM32F4xx_HAL_Driver/Src/stm32f4xx_hal_dma.c ****   *                 the configuration information for the specified DMA Stream.
 506:Drivers/STM32F4xx_HAL_Driver/Src/stm32f4xx_hal_dma.c ****   *                   
 507:Drivers/STM32F4xx_HAL_Driver/Src/stm32f4xx_hal_dma.c ****   * @note  After disabling a DMA Stream, a check for wait until the DMA Stream is 
 508:Drivers/STM32F4xx_HAL_Driver/Src/stm32f4xx_hal_dma.c ****   *        effectively disabled is added. If a Stream is disabled 
 509:Drivers/STM32F4xx_HAL_Driver/Src/stm32f4xx_hal_dma.c ****   *        while a data transfer is ongoing, the current data will be transferred
 510:Drivers/STM32F4xx_HAL_Driver/Src/stm32f4xx_hal_dma.c ****   *        and the Stream will be effectively disabled only after the transfer of
 511:Drivers/STM32F4xx_HAL_Driver/Src/stm32f4xx_hal_dma.c ****   *        this single data is finished.  
 512:Drivers/STM32F4xx_HAL_Driver/Src/stm32f4xx_hal_dma.c ****   * @retval HAL status
 513:Drivers/STM32F4xx_HAL_Driver/Src/stm32f4xx_hal_dma.c ****   */
 514:Drivers/STM32F4xx_HAL_Driver/Src/stm32f4xx_hal_dma.c **** HAL_StatusTypeDef HAL_DMA_Abort(DMA_HandleTypeDef *hdma)
 515:Drivers/STM32F4xx_HAL_Driver/Src/stm32f4xx_hal_dma.c **** {
 699              		.loc 1 515 1
 700              		.cfi_startproc
 701              		@ args = 0, pretend = 0, frame = 16
 702              		@ frame_needed = 1, uses_anonymous_args = 0
 703 0000 80B5     		push	{r7, lr}
 704              	.LCFI20:
 705              		.cfi_def_cfa_offset 8
 706              		.cfi_offset 7, -8
 707              		.cfi_offset 14, -4
 708 0002 84B0     		sub	sp, sp, #16
 709              	.LCFI21:
 710              		.cfi_def_cfa_offset 24
 711 0004 00AF     		add	r7, sp, #0
 712              	.LCFI22:
 713              		.cfi_def_cfa_register 7
 714 0006 7860     		str	r0, [r7, #4]
 516:Drivers/STM32F4xx_HAL_Driver/Src/stm32f4xx_hal_dma.c ****   /* calculate DMA base and stream number */
 517:Drivers/STM32F4xx_HAL_Driver/Src/stm32f4xx_hal_dma.c ****   DMA_Base_Registers *regs = (DMA_Base_Registers *)hdma->StreamBaseAddress;
 715              		.loc 1 517 56
 716 0008 7B68     		ldr	r3, [r7, #4]
 717 000a 9B6D     		ldr	r3, [r3, #88]
 718              		.loc 1 517 23
 719 000c FB60     		str	r3, [r7, #12]
 518:Drivers/STM32F4xx_HAL_Driver/Src/stm32f4xx_hal_dma.c ****   
 519:Drivers/STM32F4xx_HAL_Driver/Src/stm32f4xx_hal_dma.c ****   uint32_t tickstart = HAL_GetTick();
 720              		.loc 1 519 24
 721 000e FFF7FEFF 		bl	HAL_GetTick
 722 0012 B860     		str	r0, [r7, #8]
 520:Drivers/STM32F4xx_HAL_Driver/Src/stm32f4xx_hal_dma.c ****   
 521:Drivers/STM32F4xx_HAL_Driver/Src/stm32f4xx_hal_dma.c ****   if(hdma->State != HAL_DMA_STATE_BUSY)
 723              		.loc 1 521 10
 724 0014 7B68     		ldr	r3, [r7, #4]
 725 0016 93F83530 		ldrb	r3, [r3, #53]
 726 001a DBB2     		uxtb	r3, r3
 727              		.loc 1 521 5
 728 001c 022B     		cmp	r3, #2
 729 001e 08D0     		beq	.L26
 522:Drivers/STM32F4xx_HAL_Driver/Src/stm32f4xx_hal_dma.c ****   {
 523:Drivers/STM32F4xx_HAL_Driver/Src/stm32f4xx_hal_dma.c ****     hdma->ErrorCode = HAL_DMA_ERROR_NO_XFER;
 730              		.loc 1 523 21
 731 0020 7B68     		ldr	r3, [r7, #4]
 732 0022 8022     		movs	r2, #128
ARM GAS  /var/folders/vq/qt4vp3kd5rxf7v2b6_fdtdt80000gn/T//cc8V800z.s 			page 23


 733 0024 5A65     		str	r2, [r3, #84]
 524:Drivers/STM32F4xx_HAL_Driver/Src/stm32f4xx_hal_dma.c ****     
 525:Drivers/STM32F4xx_HAL_Driver/Src/stm32f4xx_hal_dma.c ****     /* Process Unlocked */
 526:Drivers/STM32F4xx_HAL_Driver/Src/stm32f4xx_hal_dma.c ****     __HAL_UNLOCK(hdma);
 734              		.loc 1 526 5
 735 0026 7B68     		ldr	r3, [r7, #4]
 736 0028 0022     		movs	r2, #0
 737 002a 83F83420 		strb	r2, [r3, #52]
 527:Drivers/STM32F4xx_HAL_Driver/Src/stm32f4xx_hal_dma.c ****     
 528:Drivers/STM32F4xx_HAL_Driver/Src/stm32f4xx_hal_dma.c ****     return HAL_ERROR;
 738              		.loc 1 528 12
 739 002e 0123     		movs	r3, #1
 740 0030 52E0     		b	.L27
 741              	.L26:
 529:Drivers/STM32F4xx_HAL_Driver/Src/stm32f4xx_hal_dma.c ****   }
 530:Drivers/STM32F4xx_HAL_Driver/Src/stm32f4xx_hal_dma.c ****   else
 531:Drivers/STM32F4xx_HAL_Driver/Src/stm32f4xx_hal_dma.c ****   {
 532:Drivers/STM32F4xx_HAL_Driver/Src/stm32f4xx_hal_dma.c ****     /* Disable all the transfer interrupts */
 533:Drivers/STM32F4xx_HAL_Driver/Src/stm32f4xx_hal_dma.c ****     hdma->Instance->CR  &= ~(DMA_IT_TC | DMA_IT_TE | DMA_IT_DME);
 742              		.loc 1 533 9
 743 0032 7B68     		ldr	r3, [r7, #4]
 744 0034 1B68     		ldr	r3, [r3]
 745              		.loc 1 533 25
 746 0036 1A68     		ldr	r2, [r3]
 747              		.loc 1 533 9
 748 0038 7B68     		ldr	r3, [r7, #4]
 749 003a 1B68     		ldr	r3, [r3]
 750              		.loc 1 533 25
 751 003c 22F01602 		bic	r2, r2, #22
 752 0040 1A60     		str	r2, [r3]
 534:Drivers/STM32F4xx_HAL_Driver/Src/stm32f4xx_hal_dma.c ****     hdma->Instance->FCR &= ~(DMA_IT_FE);
 753              		.loc 1 534 9
 754 0042 7B68     		ldr	r3, [r7, #4]
 755 0044 1B68     		ldr	r3, [r3]
 756              		.loc 1 534 25
 757 0046 5A69     		ldr	r2, [r3, #20]
 758              		.loc 1 534 9
 759 0048 7B68     		ldr	r3, [r7, #4]
 760 004a 1B68     		ldr	r3, [r3]
 761              		.loc 1 534 25
 762 004c 22F08002 		bic	r2, r2, #128
 763 0050 5A61     		str	r2, [r3, #20]
 535:Drivers/STM32F4xx_HAL_Driver/Src/stm32f4xx_hal_dma.c ****     
 536:Drivers/STM32F4xx_HAL_Driver/Src/stm32f4xx_hal_dma.c ****     if((hdma->XferHalfCpltCallback != NULL) || (hdma->XferM1HalfCpltCallback != NULL))
 764              		.loc 1 536 13
 765 0052 7B68     		ldr	r3, [r7, #4]
 766 0054 1B6C     		ldr	r3, [r3, #64]
 767              		.loc 1 536 7
 768 0056 002B     		cmp	r3, #0
 769 0058 03D1     		bne	.L28
 770              		.loc 1 536 53 discriminator 1
 771 005a 7B68     		ldr	r3, [r7, #4]
 772 005c 9B6C     		ldr	r3, [r3, #72]
 773              		.loc 1 536 45 discriminator 1
 774 005e 002B     		cmp	r3, #0
 775 0060 07D0     		beq	.L29
 776              	.L28:
ARM GAS  /var/folders/vq/qt4vp3kd5rxf7v2b6_fdtdt80000gn/T//cc8V800z.s 			page 24


 537:Drivers/STM32F4xx_HAL_Driver/Src/stm32f4xx_hal_dma.c ****     {
 538:Drivers/STM32F4xx_HAL_Driver/Src/stm32f4xx_hal_dma.c ****       hdma->Instance->CR  &= ~(DMA_IT_HT);
 777              		.loc 1 538 11
 778 0062 7B68     		ldr	r3, [r7, #4]
 779 0064 1B68     		ldr	r3, [r3]
 780              		.loc 1 538 27
 781 0066 1A68     		ldr	r2, [r3]
 782              		.loc 1 538 11
 783 0068 7B68     		ldr	r3, [r7, #4]
 784 006a 1B68     		ldr	r3, [r3]
 785              		.loc 1 538 27
 786 006c 22F00802 		bic	r2, r2, #8
 787 0070 1A60     		str	r2, [r3]
 788              	.L29:
 539:Drivers/STM32F4xx_HAL_Driver/Src/stm32f4xx_hal_dma.c ****     }
 540:Drivers/STM32F4xx_HAL_Driver/Src/stm32f4xx_hal_dma.c ****     
 541:Drivers/STM32F4xx_HAL_Driver/Src/stm32f4xx_hal_dma.c ****     /* Disable the stream */
 542:Drivers/STM32F4xx_HAL_Driver/Src/stm32f4xx_hal_dma.c ****     __HAL_DMA_DISABLE(hdma);
 789              		.loc 1 542 5
 790 0072 7B68     		ldr	r3, [r7, #4]
 791 0074 1B68     		ldr	r3, [r3]
 792 0076 1A68     		ldr	r2, [r3]
 793 0078 7B68     		ldr	r3, [r7, #4]
 794 007a 1B68     		ldr	r3, [r3]
 795 007c 22F00102 		bic	r2, r2, #1
 796 0080 1A60     		str	r2, [r3]
 543:Drivers/STM32F4xx_HAL_Driver/Src/stm32f4xx_hal_dma.c ****     
 544:Drivers/STM32F4xx_HAL_Driver/Src/stm32f4xx_hal_dma.c ****     /* Check if the DMA Stream is effectively disabled */
 545:Drivers/STM32F4xx_HAL_Driver/Src/stm32f4xx_hal_dma.c ****     while((hdma->Instance->CR & DMA_SxCR_EN) != RESET)
 797              		.loc 1 545 10
 798 0082 13E0     		b	.L30
 799              	.L31:
 546:Drivers/STM32F4xx_HAL_Driver/Src/stm32f4xx_hal_dma.c ****     {
 547:Drivers/STM32F4xx_HAL_Driver/Src/stm32f4xx_hal_dma.c ****       /* Check for the Timeout */
 548:Drivers/STM32F4xx_HAL_Driver/Src/stm32f4xx_hal_dma.c ****       if((HAL_GetTick() - tickstart ) > HAL_TIMEOUT_DMA_ABORT)
 800              		.loc 1 548 11
 801 0084 FFF7FEFF 		bl	HAL_GetTick
 802 0088 0246     		mov	r2, r0
 803              		.loc 1 548 25
 804 008a BB68     		ldr	r3, [r7, #8]
 805 008c D31A     		subs	r3, r2, r3
 806              		.loc 1 548 9
 807 008e 052B     		cmp	r3, #5
 808 0090 0CD9     		bls	.L30
 549:Drivers/STM32F4xx_HAL_Driver/Src/stm32f4xx_hal_dma.c ****       {
 550:Drivers/STM32F4xx_HAL_Driver/Src/stm32f4xx_hal_dma.c ****         /* Update error code */
 551:Drivers/STM32F4xx_HAL_Driver/Src/stm32f4xx_hal_dma.c ****         hdma->ErrorCode = HAL_DMA_ERROR_TIMEOUT;
 809              		.loc 1 551 25
 810 0092 7B68     		ldr	r3, [r7, #4]
 811 0094 2022     		movs	r2, #32
 812 0096 5A65     		str	r2, [r3, #84]
 552:Drivers/STM32F4xx_HAL_Driver/Src/stm32f4xx_hal_dma.c ****         
 553:Drivers/STM32F4xx_HAL_Driver/Src/stm32f4xx_hal_dma.c ****         /* Process Unlocked */
 554:Drivers/STM32F4xx_HAL_Driver/Src/stm32f4xx_hal_dma.c ****         __HAL_UNLOCK(hdma);
 813              		.loc 1 554 9
 814 0098 7B68     		ldr	r3, [r7, #4]
 815 009a 0022     		movs	r2, #0
ARM GAS  /var/folders/vq/qt4vp3kd5rxf7v2b6_fdtdt80000gn/T//cc8V800z.s 			page 25


 816 009c 83F83420 		strb	r2, [r3, #52]
 555:Drivers/STM32F4xx_HAL_Driver/Src/stm32f4xx_hal_dma.c ****         
 556:Drivers/STM32F4xx_HAL_Driver/Src/stm32f4xx_hal_dma.c ****         /* Change the DMA state */
 557:Drivers/STM32F4xx_HAL_Driver/Src/stm32f4xx_hal_dma.c ****         hdma->State = HAL_DMA_STATE_TIMEOUT;
 817              		.loc 1 557 21
 818 00a0 7B68     		ldr	r3, [r7, #4]
 819 00a2 0322     		movs	r2, #3
 820 00a4 83F83520 		strb	r2, [r3, #53]
 558:Drivers/STM32F4xx_HAL_Driver/Src/stm32f4xx_hal_dma.c ****         
 559:Drivers/STM32F4xx_HAL_Driver/Src/stm32f4xx_hal_dma.c ****         return HAL_TIMEOUT;
 821              		.loc 1 559 16
 822 00a8 0323     		movs	r3, #3
 823 00aa 15E0     		b	.L27
 824              	.L30:
 545:Drivers/STM32F4xx_HAL_Driver/Src/stm32f4xx_hal_dma.c ****     {
 825              		.loc 1 545 16
 826 00ac 7B68     		ldr	r3, [r7, #4]
 827 00ae 1B68     		ldr	r3, [r3]
 545:Drivers/STM32F4xx_HAL_Driver/Src/stm32f4xx_hal_dma.c ****     {
 828              		.loc 1 545 26
 829 00b0 1B68     		ldr	r3, [r3]
 545:Drivers/STM32F4xx_HAL_Driver/Src/stm32f4xx_hal_dma.c ****     {
 830              		.loc 1 545 31
 831 00b2 03F00103 		and	r3, r3, #1
 545:Drivers/STM32F4xx_HAL_Driver/Src/stm32f4xx_hal_dma.c ****     {
 832              		.loc 1 545 10
 833 00b6 002B     		cmp	r3, #0
 834 00b8 E4D1     		bne	.L31
 560:Drivers/STM32F4xx_HAL_Driver/Src/stm32f4xx_hal_dma.c ****       }
 561:Drivers/STM32F4xx_HAL_Driver/Src/stm32f4xx_hal_dma.c ****     }
 562:Drivers/STM32F4xx_HAL_Driver/Src/stm32f4xx_hal_dma.c ****     
 563:Drivers/STM32F4xx_HAL_Driver/Src/stm32f4xx_hal_dma.c ****     /* Clear all interrupt flags at correct offset within the register */
 564:Drivers/STM32F4xx_HAL_Driver/Src/stm32f4xx_hal_dma.c ****     regs->IFCR = 0x3FU << hdma->StreamIndex;
 835              		.loc 1 564 31
 836 00ba 7B68     		ldr	r3, [r7, #4]
 837 00bc DB6D     		ldr	r3, [r3, #92]
 838              		.loc 1 564 24
 839 00be 3F22     		movs	r2, #63
 840 00c0 9A40     		lsls	r2, r2, r3
 841              		.loc 1 564 16
 842 00c2 FB68     		ldr	r3, [r7, #12]
 843 00c4 9A60     		str	r2, [r3, #8]
 565:Drivers/STM32F4xx_HAL_Driver/Src/stm32f4xx_hal_dma.c ****     
 566:Drivers/STM32F4xx_HAL_Driver/Src/stm32f4xx_hal_dma.c ****     /* Process Unlocked */
 567:Drivers/STM32F4xx_HAL_Driver/Src/stm32f4xx_hal_dma.c ****     __HAL_UNLOCK(hdma);
 844              		.loc 1 567 5
 845 00c6 7B68     		ldr	r3, [r7, #4]
 846 00c8 0022     		movs	r2, #0
 847 00ca 83F83420 		strb	r2, [r3, #52]
 568:Drivers/STM32F4xx_HAL_Driver/Src/stm32f4xx_hal_dma.c ****     
 569:Drivers/STM32F4xx_HAL_Driver/Src/stm32f4xx_hal_dma.c ****     /* Change the DMA state*/
 570:Drivers/STM32F4xx_HAL_Driver/Src/stm32f4xx_hal_dma.c ****     hdma->State = HAL_DMA_STATE_READY;
 848              		.loc 1 570 17
 849 00ce 7B68     		ldr	r3, [r7, #4]
 850 00d0 0122     		movs	r2, #1
 851 00d2 83F83520 		strb	r2, [r3, #53]
 571:Drivers/STM32F4xx_HAL_Driver/Src/stm32f4xx_hal_dma.c ****   }
ARM GAS  /var/folders/vq/qt4vp3kd5rxf7v2b6_fdtdt80000gn/T//cc8V800z.s 			page 26


 572:Drivers/STM32F4xx_HAL_Driver/Src/stm32f4xx_hal_dma.c ****   return HAL_OK;
 852              		.loc 1 572 10
 853 00d6 0023     		movs	r3, #0
 854              	.L27:
 573:Drivers/STM32F4xx_HAL_Driver/Src/stm32f4xx_hal_dma.c **** }
 855              		.loc 1 573 1
 856 00d8 1846     		mov	r0, r3
 857 00da 1037     		adds	r7, r7, #16
 858              	.LCFI23:
 859              		.cfi_def_cfa_offset 8
 860 00dc BD46     		mov	sp, r7
 861              	.LCFI24:
 862              		.cfi_def_cfa_register 13
 863              		@ sp needed
 864 00de 80BD     		pop	{r7, pc}
 865              		.cfi_endproc
 866              	.LFE134:
 868              		.section	.text.HAL_DMA_Abort_IT,"ax",%progbits
 869              		.align	1
 870              		.global	HAL_DMA_Abort_IT
 871              		.syntax unified
 872              		.thumb
 873              		.thumb_func
 874              		.fpu fpv4-sp-d16
 876              	HAL_DMA_Abort_IT:
 877              	.LFB135:
 574:Drivers/STM32F4xx_HAL_Driver/Src/stm32f4xx_hal_dma.c **** 
 575:Drivers/STM32F4xx_HAL_Driver/Src/stm32f4xx_hal_dma.c **** /**
 576:Drivers/STM32F4xx_HAL_Driver/Src/stm32f4xx_hal_dma.c ****   * @brief  Aborts the DMA Transfer in Interrupt mode.
 577:Drivers/STM32F4xx_HAL_Driver/Src/stm32f4xx_hal_dma.c ****   * @param  hdma   pointer to a DMA_HandleTypeDef structure that contains
 578:Drivers/STM32F4xx_HAL_Driver/Src/stm32f4xx_hal_dma.c ****   *                 the configuration information for the specified DMA Stream.
 579:Drivers/STM32F4xx_HAL_Driver/Src/stm32f4xx_hal_dma.c ****   * @retval HAL status
 580:Drivers/STM32F4xx_HAL_Driver/Src/stm32f4xx_hal_dma.c ****   */
 581:Drivers/STM32F4xx_HAL_Driver/Src/stm32f4xx_hal_dma.c **** HAL_StatusTypeDef HAL_DMA_Abort_IT(DMA_HandleTypeDef *hdma)
 582:Drivers/STM32F4xx_HAL_Driver/Src/stm32f4xx_hal_dma.c **** {
 878              		.loc 1 582 1
 879              		.cfi_startproc
 880              		@ args = 0, pretend = 0, frame = 8
 881              		@ frame_needed = 1, uses_anonymous_args = 0
 882              		@ link register save eliminated.
 883 0000 80B4     		push	{r7}
 884              	.LCFI25:
 885              		.cfi_def_cfa_offset 4
 886              		.cfi_offset 7, -4
 887 0002 83B0     		sub	sp, sp, #12
 888              	.LCFI26:
 889              		.cfi_def_cfa_offset 16
 890 0004 00AF     		add	r7, sp, #0
 891              	.LCFI27:
 892              		.cfi_def_cfa_register 7
 893 0006 7860     		str	r0, [r7, #4]
 583:Drivers/STM32F4xx_HAL_Driver/Src/stm32f4xx_hal_dma.c ****   if(hdma->State != HAL_DMA_STATE_BUSY)
 894              		.loc 1 583 10
 895 0008 7B68     		ldr	r3, [r7, #4]
 896 000a 93F83530 		ldrb	r3, [r3, #53]
 897 000e DBB2     		uxtb	r3, r3
 898              		.loc 1 583 5
ARM GAS  /var/folders/vq/qt4vp3kd5rxf7v2b6_fdtdt80000gn/T//cc8V800z.s 			page 27


 899 0010 022B     		cmp	r3, #2
 900 0012 04D0     		beq	.L33
 584:Drivers/STM32F4xx_HAL_Driver/Src/stm32f4xx_hal_dma.c ****   {
 585:Drivers/STM32F4xx_HAL_Driver/Src/stm32f4xx_hal_dma.c ****     hdma->ErrorCode = HAL_DMA_ERROR_NO_XFER;
 901              		.loc 1 585 21
 902 0014 7B68     		ldr	r3, [r7, #4]
 903 0016 8022     		movs	r2, #128
 904 0018 5A65     		str	r2, [r3, #84]
 586:Drivers/STM32F4xx_HAL_Driver/Src/stm32f4xx_hal_dma.c ****     return HAL_ERROR;
 905              		.loc 1 586 12
 906 001a 0123     		movs	r3, #1
 907 001c 0CE0     		b	.L34
 908              	.L33:
 587:Drivers/STM32F4xx_HAL_Driver/Src/stm32f4xx_hal_dma.c ****   }
 588:Drivers/STM32F4xx_HAL_Driver/Src/stm32f4xx_hal_dma.c ****   else
 589:Drivers/STM32F4xx_HAL_Driver/Src/stm32f4xx_hal_dma.c ****   {
 590:Drivers/STM32F4xx_HAL_Driver/Src/stm32f4xx_hal_dma.c ****     /* Set Abort State  */
 591:Drivers/STM32F4xx_HAL_Driver/Src/stm32f4xx_hal_dma.c ****     hdma->State = HAL_DMA_STATE_ABORT;
 909              		.loc 1 591 17
 910 001e 7B68     		ldr	r3, [r7, #4]
 911 0020 0522     		movs	r2, #5
 912 0022 83F83520 		strb	r2, [r3, #53]
 592:Drivers/STM32F4xx_HAL_Driver/Src/stm32f4xx_hal_dma.c ****     
 593:Drivers/STM32F4xx_HAL_Driver/Src/stm32f4xx_hal_dma.c ****     /* Disable the stream */
 594:Drivers/STM32F4xx_HAL_Driver/Src/stm32f4xx_hal_dma.c ****     __HAL_DMA_DISABLE(hdma);
 913              		.loc 1 594 5
 914 0026 7B68     		ldr	r3, [r7, #4]
 915 0028 1B68     		ldr	r3, [r3]
 916 002a 1A68     		ldr	r2, [r3]
 917 002c 7B68     		ldr	r3, [r7, #4]
 918 002e 1B68     		ldr	r3, [r3]
 919 0030 22F00102 		bic	r2, r2, #1
 920 0034 1A60     		str	r2, [r3]
 595:Drivers/STM32F4xx_HAL_Driver/Src/stm32f4xx_hal_dma.c ****   }
 596:Drivers/STM32F4xx_HAL_Driver/Src/stm32f4xx_hal_dma.c **** 
 597:Drivers/STM32F4xx_HAL_Driver/Src/stm32f4xx_hal_dma.c ****   return HAL_OK;
 921              		.loc 1 597 10
 922 0036 0023     		movs	r3, #0
 923              	.L34:
 598:Drivers/STM32F4xx_HAL_Driver/Src/stm32f4xx_hal_dma.c **** }
 924              		.loc 1 598 1
 925 0038 1846     		mov	r0, r3
 926 003a 0C37     		adds	r7, r7, #12
 927              	.LCFI28:
 928              		.cfi_def_cfa_offset 4
 929 003c BD46     		mov	sp, r7
 930              	.LCFI29:
 931              		.cfi_def_cfa_register 13
 932              		@ sp needed
 933 003e 5DF8047B 		ldr	r7, [sp], #4
 934              	.LCFI30:
 935              		.cfi_restore 7
 936              		.cfi_def_cfa_offset 0
 937 0042 7047     		bx	lr
 938              		.cfi_endproc
 939              	.LFE135:
 941              		.section	.text.HAL_DMA_PollForTransfer,"ax",%progbits
ARM GAS  /var/folders/vq/qt4vp3kd5rxf7v2b6_fdtdt80000gn/T//cc8V800z.s 			page 28


 942              		.align	1
 943              		.global	HAL_DMA_PollForTransfer
 944              		.syntax unified
 945              		.thumb
 946              		.thumb_func
 947              		.fpu fpv4-sp-d16
 949              	HAL_DMA_PollForTransfer:
 950              	.LFB136:
 599:Drivers/STM32F4xx_HAL_Driver/Src/stm32f4xx_hal_dma.c **** 
 600:Drivers/STM32F4xx_HAL_Driver/Src/stm32f4xx_hal_dma.c **** /**
 601:Drivers/STM32F4xx_HAL_Driver/Src/stm32f4xx_hal_dma.c ****   * @brief  Polling for transfer complete.
 602:Drivers/STM32F4xx_HAL_Driver/Src/stm32f4xx_hal_dma.c ****   * @param  hdma          pointer to a DMA_HandleTypeDef structure that contains
 603:Drivers/STM32F4xx_HAL_Driver/Src/stm32f4xx_hal_dma.c ****   *                        the configuration information for the specified DMA Stream.
 604:Drivers/STM32F4xx_HAL_Driver/Src/stm32f4xx_hal_dma.c ****   * @param  CompleteLevel Specifies the DMA level complete.
 605:Drivers/STM32F4xx_HAL_Driver/Src/stm32f4xx_hal_dma.c ****   * @note   The polling mode is kept in this version for legacy. it is recommanded to use the IT mo
 606:Drivers/STM32F4xx_HAL_Driver/Src/stm32f4xx_hal_dma.c ****   *         This model could be used for debug purpose.
 607:Drivers/STM32F4xx_HAL_Driver/Src/stm32f4xx_hal_dma.c ****   * @note   The HAL_DMA_PollForTransfer API cannot be used in circular and double buffering mode (a
 608:Drivers/STM32F4xx_HAL_Driver/Src/stm32f4xx_hal_dma.c ****   * @param  Timeout       Timeout duration.
 609:Drivers/STM32F4xx_HAL_Driver/Src/stm32f4xx_hal_dma.c ****   * @retval HAL status
 610:Drivers/STM32F4xx_HAL_Driver/Src/stm32f4xx_hal_dma.c ****   */
 611:Drivers/STM32F4xx_HAL_Driver/Src/stm32f4xx_hal_dma.c **** HAL_StatusTypeDef HAL_DMA_PollForTransfer(DMA_HandleTypeDef *hdma, HAL_DMA_LevelCompleteTypeDef Com
 612:Drivers/STM32F4xx_HAL_Driver/Src/stm32f4xx_hal_dma.c **** {
 951              		.loc 1 612 1
 952              		.cfi_startproc
 953              		@ args = 0, pretend = 0, frame = 40
 954              		@ frame_needed = 1, uses_anonymous_args = 0
 955 0000 80B5     		push	{r7, lr}
 956              	.LCFI31:
 957              		.cfi_def_cfa_offset 8
 958              		.cfi_offset 7, -8
 959              		.cfi_offset 14, -4
 960 0002 8AB0     		sub	sp, sp, #40
 961              	.LCFI32:
 962              		.cfi_def_cfa_offset 48
 963 0004 00AF     		add	r7, sp, #0
 964              	.LCFI33:
 965              		.cfi_def_cfa_register 7
 966 0006 F860     		str	r0, [r7, #12]
 967 0008 0B46     		mov	r3, r1
 968 000a 7A60     		str	r2, [r7, #4]
 969 000c FB72     		strb	r3, [r7, #11]
 613:Drivers/STM32F4xx_HAL_Driver/Src/stm32f4xx_hal_dma.c ****   HAL_StatusTypeDef status = HAL_OK; 
 970              		.loc 1 613 21
 971 000e 0023     		movs	r3, #0
 972 0010 FB77     		strb	r3, [r7, #31]
 614:Drivers/STM32F4xx_HAL_Driver/Src/stm32f4xx_hal_dma.c ****   uint32_t mask_cpltlevel;
 615:Drivers/STM32F4xx_HAL_Driver/Src/stm32f4xx_hal_dma.c ****   uint32_t tickstart = HAL_GetTick(); 
 973              		.loc 1 615 24
 974 0012 FFF7FEFF 		bl	HAL_GetTick
 975 0016 B861     		str	r0, [r7, #24]
 616:Drivers/STM32F4xx_HAL_Driver/Src/stm32f4xx_hal_dma.c ****   uint32_t tmpisr;
 617:Drivers/STM32F4xx_HAL_Driver/Src/stm32f4xx_hal_dma.c ****   
 618:Drivers/STM32F4xx_HAL_Driver/Src/stm32f4xx_hal_dma.c ****   /* calculate DMA base and stream number */
 619:Drivers/STM32F4xx_HAL_Driver/Src/stm32f4xx_hal_dma.c ****   DMA_Base_Registers *regs;
 620:Drivers/STM32F4xx_HAL_Driver/Src/stm32f4xx_hal_dma.c **** 
 621:Drivers/STM32F4xx_HAL_Driver/Src/stm32f4xx_hal_dma.c ****   if(HAL_DMA_STATE_BUSY != hdma->State)
 976              		.loc 1 621 32
ARM GAS  /var/folders/vq/qt4vp3kd5rxf7v2b6_fdtdt80000gn/T//cc8V800z.s 			page 29


 977 0018 FB68     		ldr	r3, [r7, #12]
 978 001a 93F83530 		ldrb	r3, [r3, #53]
 979 001e DBB2     		uxtb	r3, r3
 980              		.loc 1 621 5
 981 0020 022B     		cmp	r3, #2
 982 0022 08D0     		beq	.L36
 622:Drivers/STM32F4xx_HAL_Driver/Src/stm32f4xx_hal_dma.c ****   {
 623:Drivers/STM32F4xx_HAL_Driver/Src/stm32f4xx_hal_dma.c ****     /* No transfer ongoing */
 624:Drivers/STM32F4xx_HAL_Driver/Src/stm32f4xx_hal_dma.c ****     hdma->ErrorCode = HAL_DMA_ERROR_NO_XFER;
 983              		.loc 1 624 21
 984 0024 FB68     		ldr	r3, [r7, #12]
 985 0026 8022     		movs	r2, #128
 986 0028 5A65     		str	r2, [r3, #84]
 625:Drivers/STM32F4xx_HAL_Driver/Src/stm32f4xx_hal_dma.c ****     __HAL_UNLOCK(hdma);
 987              		.loc 1 625 5
 988 002a FB68     		ldr	r3, [r7, #12]
 989 002c 0022     		movs	r2, #0
 990 002e 83F83420 		strb	r2, [r3, #52]
 626:Drivers/STM32F4xx_HAL_Driver/Src/stm32f4xx_hal_dma.c ****     return HAL_ERROR;
 991              		.loc 1 626 12
 992 0032 0123     		movs	r3, #1
 993 0034 BFE0     		b	.L37
 994              	.L36:
 627:Drivers/STM32F4xx_HAL_Driver/Src/stm32f4xx_hal_dma.c ****   }
 628:Drivers/STM32F4xx_HAL_Driver/Src/stm32f4xx_hal_dma.c **** 
 629:Drivers/STM32F4xx_HAL_Driver/Src/stm32f4xx_hal_dma.c ****   /* Polling mode not supported in circular mode and double buffering mode */
 630:Drivers/STM32F4xx_HAL_Driver/Src/stm32f4xx_hal_dma.c ****   if ((hdma->Instance->CR & DMA_SxCR_CIRC) != RESET)
 995              		.loc 1 630 12
 996 0036 FB68     		ldr	r3, [r7, #12]
 997 0038 1B68     		ldr	r3, [r3]
 998              		.loc 1 630 22
 999 003a 1B68     		ldr	r3, [r3]
 1000              		.loc 1 630 27
 1001 003c 03F48073 		and	r3, r3, #256
 1002              		.loc 1 630 6
 1003 0040 002B     		cmp	r3, #0
 1004 0042 05D0     		beq	.L38
 631:Drivers/STM32F4xx_HAL_Driver/Src/stm32f4xx_hal_dma.c ****   {
 632:Drivers/STM32F4xx_HAL_Driver/Src/stm32f4xx_hal_dma.c ****     hdma->ErrorCode = HAL_DMA_ERROR_NOT_SUPPORTED;
 1005              		.loc 1 632 21
 1006 0044 FB68     		ldr	r3, [r7, #12]
 1007 0046 4FF48072 		mov	r2, #256
 1008 004a 5A65     		str	r2, [r3, #84]
 633:Drivers/STM32F4xx_HAL_Driver/Src/stm32f4xx_hal_dma.c ****     return HAL_ERROR;
 1009              		.loc 1 633 12
 1010 004c 0123     		movs	r3, #1
 1011 004e B2E0     		b	.L37
 1012              	.L38:
 634:Drivers/STM32F4xx_HAL_Driver/Src/stm32f4xx_hal_dma.c ****   }
 635:Drivers/STM32F4xx_HAL_Driver/Src/stm32f4xx_hal_dma.c ****   
 636:Drivers/STM32F4xx_HAL_Driver/Src/stm32f4xx_hal_dma.c ****   /* Get the level transfer complete flag */
 637:Drivers/STM32F4xx_HAL_Driver/Src/stm32f4xx_hal_dma.c ****   if(CompleteLevel == HAL_DMA_FULL_TRANSFER)
 1013              		.loc 1 637 5
 1014 0050 FB7A     		ldrb	r3, [r7, #11]	@ zero_extendqisi2
 1015 0052 002B     		cmp	r3, #0
 1016 0054 06D1     		bne	.L39
 638:Drivers/STM32F4xx_HAL_Driver/Src/stm32f4xx_hal_dma.c ****   {
ARM GAS  /var/folders/vq/qt4vp3kd5rxf7v2b6_fdtdt80000gn/T//cc8V800z.s 			page 30


 639:Drivers/STM32F4xx_HAL_Driver/Src/stm32f4xx_hal_dma.c ****     /* Transfer Complete flag */
 640:Drivers/STM32F4xx_HAL_Driver/Src/stm32f4xx_hal_dma.c ****     mask_cpltlevel = DMA_FLAG_TCIF0_4 << hdma->StreamIndex;
 1017              		.loc 1 640 46
 1018 0056 FB68     		ldr	r3, [r7, #12]
 1019 0058 DB6D     		ldr	r3, [r3, #92]
 1020              		.loc 1 640 20
 1021 005a 2022     		movs	r2, #32
 1022 005c 02FA03F3 		lsl	r3, r2, r3
 1023 0060 7B62     		str	r3, [r7, #36]
 1024 0062 05E0     		b	.L40
 1025              	.L39:
 641:Drivers/STM32F4xx_HAL_Driver/Src/stm32f4xx_hal_dma.c ****   }
 642:Drivers/STM32F4xx_HAL_Driver/Src/stm32f4xx_hal_dma.c ****   else
 643:Drivers/STM32F4xx_HAL_Driver/Src/stm32f4xx_hal_dma.c ****   {
 644:Drivers/STM32F4xx_HAL_Driver/Src/stm32f4xx_hal_dma.c ****     /* Half Transfer Complete flag */
 645:Drivers/STM32F4xx_HAL_Driver/Src/stm32f4xx_hal_dma.c ****     mask_cpltlevel = DMA_FLAG_HTIF0_4 << hdma->StreamIndex;
 1026              		.loc 1 645 46
 1027 0064 FB68     		ldr	r3, [r7, #12]
 1028 0066 DB6D     		ldr	r3, [r3, #92]
 1029              		.loc 1 645 20
 1030 0068 1022     		movs	r2, #16
 1031 006a 02FA03F3 		lsl	r3, r2, r3
 1032 006e 7B62     		str	r3, [r7, #36]
 1033              	.L40:
 646:Drivers/STM32F4xx_HAL_Driver/Src/stm32f4xx_hal_dma.c ****   }
 647:Drivers/STM32F4xx_HAL_Driver/Src/stm32f4xx_hal_dma.c ****   
 648:Drivers/STM32F4xx_HAL_Driver/Src/stm32f4xx_hal_dma.c ****   regs = (DMA_Base_Registers *)hdma->StreamBaseAddress;
 1034              		.loc 1 648 36
 1035 0070 FB68     		ldr	r3, [r7, #12]
 1036 0072 9B6D     		ldr	r3, [r3, #88]
 1037              		.loc 1 648 8
 1038 0074 7B61     		str	r3, [r7, #20]
 649:Drivers/STM32F4xx_HAL_Driver/Src/stm32f4xx_hal_dma.c ****   tmpisr = regs->ISR;
 1039              		.loc 1 649 10
 1040 0076 7B69     		ldr	r3, [r7, #20]
 1041 0078 1B68     		ldr	r3, [r3]
 1042 007a 3B62     		str	r3, [r7, #32]
 650:Drivers/STM32F4xx_HAL_Driver/Src/stm32f4xx_hal_dma.c ****   
 651:Drivers/STM32F4xx_HAL_Driver/Src/stm32f4xx_hal_dma.c ****   while(((tmpisr & mask_cpltlevel) == RESET) && ((hdma->ErrorCode & HAL_DMA_ERROR_TE) == RESET))
 1043              		.loc 1 651 8
 1044 007c 5AE0     		b	.L41
 1045              	.L47:
 652:Drivers/STM32F4xx_HAL_Driver/Src/stm32f4xx_hal_dma.c ****   {
 653:Drivers/STM32F4xx_HAL_Driver/Src/stm32f4xx_hal_dma.c ****     /* Check for the Timeout (Not applicable in circular mode)*/
 654:Drivers/STM32F4xx_HAL_Driver/Src/stm32f4xx_hal_dma.c ****     if(Timeout != HAL_MAX_DELAY)
 1046              		.loc 1 654 7
 1047 007e 7B68     		ldr	r3, [r7, #4]
 1048 0080 B3F1FF3F 		cmp	r3, #-1
 1049 0084 17D0     		beq	.L42
 655:Drivers/STM32F4xx_HAL_Driver/Src/stm32f4xx_hal_dma.c ****     {
 656:Drivers/STM32F4xx_HAL_Driver/Src/stm32f4xx_hal_dma.c ****       if((Timeout == 0U)||((HAL_GetTick() - tickstart ) > Timeout))
 1050              		.loc 1 656 9
 1051 0086 7B68     		ldr	r3, [r7, #4]
 1052 0088 002B     		cmp	r3, #0
 1053 008a 07D0     		beq	.L43
 1054              		.loc 1 656 29 discriminator 1
 1055 008c FFF7FEFF 		bl	HAL_GetTick
ARM GAS  /var/folders/vq/qt4vp3kd5rxf7v2b6_fdtdt80000gn/T//cc8V800z.s 			page 31


 1056 0090 0246     		mov	r2, r0
 1057              		.loc 1 656 43 discriminator 1
 1058 0092 BB69     		ldr	r3, [r7, #24]
 1059 0094 D31A     		subs	r3, r2, r3
 1060              		.loc 1 656 25 discriminator 1
 1061 0096 7A68     		ldr	r2, [r7, #4]
 1062 0098 9A42     		cmp	r2, r3
 1063 009a 0CD2     		bcs	.L42
 1064              	.L43:
 657:Drivers/STM32F4xx_HAL_Driver/Src/stm32f4xx_hal_dma.c ****       {
 658:Drivers/STM32F4xx_HAL_Driver/Src/stm32f4xx_hal_dma.c ****         /* Update error code */
 659:Drivers/STM32F4xx_HAL_Driver/Src/stm32f4xx_hal_dma.c ****         hdma->ErrorCode = HAL_DMA_ERROR_TIMEOUT;
 1065              		.loc 1 659 25
 1066 009c FB68     		ldr	r3, [r7, #12]
 1067 009e 2022     		movs	r2, #32
 1068 00a0 5A65     		str	r2, [r3, #84]
 660:Drivers/STM32F4xx_HAL_Driver/Src/stm32f4xx_hal_dma.c **** 
 661:Drivers/STM32F4xx_HAL_Driver/Src/stm32f4xx_hal_dma.c ****         /* Process Unlocked */
 662:Drivers/STM32F4xx_HAL_Driver/Src/stm32f4xx_hal_dma.c ****         __HAL_UNLOCK(hdma);
 1069              		.loc 1 662 9
 1070 00a2 FB68     		ldr	r3, [r7, #12]
 1071 00a4 0022     		movs	r2, #0
 1072 00a6 83F83420 		strb	r2, [r3, #52]
 663:Drivers/STM32F4xx_HAL_Driver/Src/stm32f4xx_hal_dma.c ****         
 664:Drivers/STM32F4xx_HAL_Driver/Src/stm32f4xx_hal_dma.c ****         /* Change the DMA state */
 665:Drivers/STM32F4xx_HAL_Driver/Src/stm32f4xx_hal_dma.c ****         hdma->State = HAL_DMA_STATE_READY;
 1073              		.loc 1 665 21
 1074 00aa FB68     		ldr	r3, [r7, #12]
 1075 00ac 0122     		movs	r2, #1
 1076 00ae 83F83520 		strb	r2, [r3, #53]
 666:Drivers/STM32F4xx_HAL_Driver/Src/stm32f4xx_hal_dma.c ****         
 667:Drivers/STM32F4xx_HAL_Driver/Src/stm32f4xx_hal_dma.c ****         return HAL_TIMEOUT;
 1077              		.loc 1 667 16
 1078 00b2 0323     		movs	r3, #3
 1079 00b4 7FE0     		b	.L37
 1080              	.L42:
 668:Drivers/STM32F4xx_HAL_Driver/Src/stm32f4xx_hal_dma.c ****       }
 669:Drivers/STM32F4xx_HAL_Driver/Src/stm32f4xx_hal_dma.c ****     }
 670:Drivers/STM32F4xx_HAL_Driver/Src/stm32f4xx_hal_dma.c **** 
 671:Drivers/STM32F4xx_HAL_Driver/Src/stm32f4xx_hal_dma.c ****     /* Get the ISR register value */
 672:Drivers/STM32F4xx_HAL_Driver/Src/stm32f4xx_hal_dma.c ****     tmpisr = regs->ISR;
 1081              		.loc 1 672 12
 1082 00b6 7B69     		ldr	r3, [r7, #20]
 1083 00b8 1B68     		ldr	r3, [r3]
 1084 00ba 3B62     		str	r3, [r7, #32]
 673:Drivers/STM32F4xx_HAL_Driver/Src/stm32f4xx_hal_dma.c **** 
 674:Drivers/STM32F4xx_HAL_Driver/Src/stm32f4xx_hal_dma.c ****     if((tmpisr & (DMA_FLAG_TEIF0_4 << hdma->StreamIndex)) != RESET)
 1085              		.loc 1 674 43
 1086 00bc FB68     		ldr	r3, [r7, #12]
 1087 00be DB6D     		ldr	r3, [r3, #92]
 1088              		.loc 1 674 36
 1089 00c0 0822     		movs	r2, #8
 1090 00c2 9A40     		lsls	r2, r2, r3
 1091              		.loc 1 674 16
 1092 00c4 3B6A     		ldr	r3, [r7, #32]
 1093 00c6 1340     		ands	r3, r3, r2
 1094              		.loc 1 674 7
ARM GAS  /var/folders/vq/qt4vp3kd5rxf7v2b6_fdtdt80000gn/T//cc8V800z.s 			page 32


 1095 00c8 002B     		cmp	r3, #0
 1096 00ca 0BD0     		beq	.L44
 675:Drivers/STM32F4xx_HAL_Driver/Src/stm32f4xx_hal_dma.c ****     {
 676:Drivers/STM32F4xx_HAL_Driver/Src/stm32f4xx_hal_dma.c ****       /* Update error code */
 677:Drivers/STM32F4xx_HAL_Driver/Src/stm32f4xx_hal_dma.c ****       hdma->ErrorCode |= HAL_DMA_ERROR_TE;
 1097              		.loc 1 677 23
 1098 00cc FB68     		ldr	r3, [r7, #12]
 1099 00ce 5B6D     		ldr	r3, [r3, #84]
 1100 00d0 43F00102 		orr	r2, r3, #1
 1101 00d4 FB68     		ldr	r3, [r7, #12]
 1102 00d6 5A65     		str	r2, [r3, #84]
 678:Drivers/STM32F4xx_HAL_Driver/Src/stm32f4xx_hal_dma.c ****       
 679:Drivers/STM32F4xx_HAL_Driver/Src/stm32f4xx_hal_dma.c ****       /* Clear the transfer error flag */
 680:Drivers/STM32F4xx_HAL_Driver/Src/stm32f4xx_hal_dma.c ****       regs->IFCR = DMA_FLAG_TEIF0_4 << hdma->StreamIndex;
 1103              		.loc 1 680 44
 1104 00d8 FB68     		ldr	r3, [r7, #12]
 1105 00da DB6D     		ldr	r3, [r3, #92]
 1106              		.loc 1 680 37
 1107 00dc 0822     		movs	r2, #8
 1108 00de 9A40     		lsls	r2, r2, r3
 1109              		.loc 1 680 18
 1110 00e0 7B69     		ldr	r3, [r7, #20]
 1111 00e2 9A60     		str	r2, [r3, #8]
 1112              	.L44:
 681:Drivers/STM32F4xx_HAL_Driver/Src/stm32f4xx_hal_dma.c ****     }
 682:Drivers/STM32F4xx_HAL_Driver/Src/stm32f4xx_hal_dma.c ****     
 683:Drivers/STM32F4xx_HAL_Driver/Src/stm32f4xx_hal_dma.c ****     if((tmpisr & (DMA_FLAG_FEIF0_4 << hdma->StreamIndex)) != RESET)
 1113              		.loc 1 683 43
 1114 00e4 FB68     		ldr	r3, [r7, #12]
 1115 00e6 DB6D     		ldr	r3, [r3, #92]
 1116              		.loc 1 683 36
 1117 00e8 0122     		movs	r2, #1
 1118 00ea 9A40     		lsls	r2, r2, r3
 1119              		.loc 1 683 16
 1120 00ec 3B6A     		ldr	r3, [r7, #32]
 1121 00ee 1340     		ands	r3, r3, r2
 1122              		.loc 1 683 7
 1123 00f0 002B     		cmp	r3, #0
 1124 00f2 0BD0     		beq	.L45
 684:Drivers/STM32F4xx_HAL_Driver/Src/stm32f4xx_hal_dma.c ****     {
 685:Drivers/STM32F4xx_HAL_Driver/Src/stm32f4xx_hal_dma.c ****       /* Update error code */
 686:Drivers/STM32F4xx_HAL_Driver/Src/stm32f4xx_hal_dma.c ****       hdma->ErrorCode |= HAL_DMA_ERROR_FE;
 1125              		.loc 1 686 23
 1126 00f4 FB68     		ldr	r3, [r7, #12]
 1127 00f6 5B6D     		ldr	r3, [r3, #84]
 1128 00f8 43F00202 		orr	r2, r3, #2
 1129 00fc FB68     		ldr	r3, [r7, #12]
 1130 00fe 5A65     		str	r2, [r3, #84]
 687:Drivers/STM32F4xx_HAL_Driver/Src/stm32f4xx_hal_dma.c ****       
 688:Drivers/STM32F4xx_HAL_Driver/Src/stm32f4xx_hal_dma.c ****       /* Clear the FIFO error flag */
 689:Drivers/STM32F4xx_HAL_Driver/Src/stm32f4xx_hal_dma.c ****       regs->IFCR = DMA_FLAG_FEIF0_4 << hdma->StreamIndex;
 1131              		.loc 1 689 44
 1132 0100 FB68     		ldr	r3, [r7, #12]
 1133 0102 DB6D     		ldr	r3, [r3, #92]
 1134              		.loc 1 689 37
 1135 0104 0122     		movs	r2, #1
 1136 0106 9A40     		lsls	r2, r2, r3
ARM GAS  /var/folders/vq/qt4vp3kd5rxf7v2b6_fdtdt80000gn/T//cc8V800z.s 			page 33


 1137              		.loc 1 689 18
 1138 0108 7B69     		ldr	r3, [r7, #20]
 1139 010a 9A60     		str	r2, [r3, #8]
 1140              	.L45:
 690:Drivers/STM32F4xx_HAL_Driver/Src/stm32f4xx_hal_dma.c ****     }
 691:Drivers/STM32F4xx_HAL_Driver/Src/stm32f4xx_hal_dma.c ****     
 692:Drivers/STM32F4xx_HAL_Driver/Src/stm32f4xx_hal_dma.c ****     if((tmpisr & (DMA_FLAG_DMEIF0_4 << hdma->StreamIndex)) != RESET)
 1141              		.loc 1 692 44
 1142 010c FB68     		ldr	r3, [r7, #12]
 1143 010e DB6D     		ldr	r3, [r3, #92]
 1144              		.loc 1 692 37
 1145 0110 0422     		movs	r2, #4
 1146 0112 9A40     		lsls	r2, r2, r3
 1147              		.loc 1 692 16
 1148 0114 3B6A     		ldr	r3, [r7, #32]
 1149 0116 1340     		ands	r3, r3, r2
 1150              		.loc 1 692 7
 1151 0118 002B     		cmp	r3, #0
 1152 011a 0BD0     		beq	.L41
 693:Drivers/STM32F4xx_HAL_Driver/Src/stm32f4xx_hal_dma.c ****     {
 694:Drivers/STM32F4xx_HAL_Driver/Src/stm32f4xx_hal_dma.c ****       /* Update error code */
 695:Drivers/STM32F4xx_HAL_Driver/Src/stm32f4xx_hal_dma.c ****       hdma->ErrorCode |= HAL_DMA_ERROR_DME;
 1153              		.loc 1 695 23
 1154 011c FB68     		ldr	r3, [r7, #12]
 1155 011e 5B6D     		ldr	r3, [r3, #84]
 1156 0120 43F00402 		orr	r2, r3, #4
 1157 0124 FB68     		ldr	r3, [r7, #12]
 1158 0126 5A65     		str	r2, [r3, #84]
 696:Drivers/STM32F4xx_HAL_Driver/Src/stm32f4xx_hal_dma.c ****       
 697:Drivers/STM32F4xx_HAL_Driver/Src/stm32f4xx_hal_dma.c ****       /* Clear the Direct Mode error flag */
 698:Drivers/STM32F4xx_HAL_Driver/Src/stm32f4xx_hal_dma.c ****       regs->IFCR = DMA_FLAG_DMEIF0_4 << hdma->StreamIndex;
 1159              		.loc 1 698 45
 1160 0128 FB68     		ldr	r3, [r7, #12]
 1161 012a DB6D     		ldr	r3, [r3, #92]
 1162              		.loc 1 698 38
 1163 012c 0422     		movs	r2, #4
 1164 012e 9A40     		lsls	r2, r2, r3
 1165              		.loc 1 698 18
 1166 0130 7B69     		ldr	r3, [r7, #20]
 1167 0132 9A60     		str	r2, [r3, #8]
 1168              	.L41:
 651:Drivers/STM32F4xx_HAL_Driver/Src/stm32f4xx_hal_dma.c ****   {
 1169              		.loc 1 651 18
 1170 0134 3A6A     		ldr	r2, [r7, #32]
 1171 0136 7B6A     		ldr	r3, [r7, #36]
 1172 0138 1340     		ands	r3, r3, r2
 651:Drivers/STM32F4xx_HAL_Driver/Src/stm32f4xx_hal_dma.c ****   {
 1173              		.loc 1 651 8
 1174 013a 002B     		cmp	r3, #0
 1175 013c 05D1     		bne	.L46
 651:Drivers/STM32F4xx_HAL_Driver/Src/stm32f4xx_hal_dma.c ****   {
 1176              		.loc 1 651 55 discriminator 1
 1177 013e FB68     		ldr	r3, [r7, #12]
 1178 0140 5B6D     		ldr	r3, [r3, #84]
 651:Drivers/STM32F4xx_HAL_Driver/Src/stm32f4xx_hal_dma.c ****   {
 1179              		.loc 1 651 67 discriminator 1
 1180 0142 03F00103 		and	r3, r3, #1
ARM GAS  /var/folders/vq/qt4vp3kd5rxf7v2b6_fdtdt80000gn/T//cc8V800z.s 			page 34


 651:Drivers/STM32F4xx_HAL_Driver/Src/stm32f4xx_hal_dma.c ****   {
 1181              		.loc 1 651 46 discriminator 1
 1182 0146 002B     		cmp	r3, #0
 1183 0148 99D0     		beq	.L47
 1184              	.L46:
 699:Drivers/STM32F4xx_HAL_Driver/Src/stm32f4xx_hal_dma.c ****     }
 700:Drivers/STM32F4xx_HAL_Driver/Src/stm32f4xx_hal_dma.c ****   }
 701:Drivers/STM32F4xx_HAL_Driver/Src/stm32f4xx_hal_dma.c ****   
 702:Drivers/STM32F4xx_HAL_Driver/Src/stm32f4xx_hal_dma.c ****   if(hdma->ErrorCode != HAL_DMA_ERROR_NONE)
 1185              		.loc 1 702 10
 1186 014a FB68     		ldr	r3, [r7, #12]
 1187 014c 5B6D     		ldr	r3, [r3, #84]
 1188              		.loc 1 702 5
 1189 014e 002B     		cmp	r3, #0
 1190 0150 18D0     		beq	.L48
 703:Drivers/STM32F4xx_HAL_Driver/Src/stm32f4xx_hal_dma.c ****   {
 704:Drivers/STM32F4xx_HAL_Driver/Src/stm32f4xx_hal_dma.c ****     if((hdma->ErrorCode & HAL_DMA_ERROR_TE) != RESET)
 1191              		.loc 1 704 13
 1192 0152 FB68     		ldr	r3, [r7, #12]
 1193 0154 5B6D     		ldr	r3, [r3, #84]
 1194              		.loc 1 704 25
 1195 0156 03F00103 		and	r3, r3, #1
 1196              		.loc 1 704 7
 1197 015a 002B     		cmp	r3, #0
 1198 015c 12D0     		beq	.L48
 705:Drivers/STM32F4xx_HAL_Driver/Src/stm32f4xx_hal_dma.c ****     {
 706:Drivers/STM32F4xx_HAL_Driver/Src/stm32f4xx_hal_dma.c ****       HAL_DMA_Abort(hdma);
 1199              		.loc 1 706 7
 1200 015e F868     		ldr	r0, [r7, #12]
 1201 0160 FFF7FEFF 		bl	HAL_DMA_Abort
 707:Drivers/STM32F4xx_HAL_Driver/Src/stm32f4xx_hal_dma.c ****     
 708:Drivers/STM32F4xx_HAL_Driver/Src/stm32f4xx_hal_dma.c ****       /* Clear the half transfer and transfer complete flags */
 709:Drivers/STM32F4xx_HAL_Driver/Src/stm32f4xx_hal_dma.c ****       regs->IFCR = (DMA_FLAG_HTIF0_4 | DMA_FLAG_TCIF0_4) << hdma->StreamIndex;
 1202              		.loc 1 709 65
 1203 0164 FB68     		ldr	r3, [r7, #12]
 1204 0166 DB6D     		ldr	r3, [r3, #92]
 1205              		.loc 1 709 58
 1206 0168 3022     		movs	r2, #48
 1207 016a 9A40     		lsls	r2, r2, r3
 1208              		.loc 1 709 18
 1209 016c 7B69     		ldr	r3, [r7, #20]
 1210 016e 9A60     		str	r2, [r3, #8]
 710:Drivers/STM32F4xx_HAL_Driver/Src/stm32f4xx_hal_dma.c ****     
 711:Drivers/STM32F4xx_HAL_Driver/Src/stm32f4xx_hal_dma.c ****       /* Process Unlocked */
 712:Drivers/STM32F4xx_HAL_Driver/Src/stm32f4xx_hal_dma.c ****       __HAL_UNLOCK(hdma);
 1211              		.loc 1 712 7
 1212 0170 FB68     		ldr	r3, [r7, #12]
 1213 0172 0022     		movs	r2, #0
 1214 0174 83F83420 		strb	r2, [r3, #52]
 713:Drivers/STM32F4xx_HAL_Driver/Src/stm32f4xx_hal_dma.c **** 
 714:Drivers/STM32F4xx_HAL_Driver/Src/stm32f4xx_hal_dma.c ****       /* Change the DMA state */
 715:Drivers/STM32F4xx_HAL_Driver/Src/stm32f4xx_hal_dma.c ****       hdma->State= HAL_DMA_STATE_READY;
 1215              		.loc 1 715 18
 1216 0178 FB68     		ldr	r3, [r7, #12]
 1217 017a 0122     		movs	r2, #1
 1218 017c 83F83520 		strb	r2, [r3, #53]
 716:Drivers/STM32F4xx_HAL_Driver/Src/stm32f4xx_hal_dma.c **** 
ARM GAS  /var/folders/vq/qt4vp3kd5rxf7v2b6_fdtdt80000gn/T//cc8V800z.s 			page 35


 717:Drivers/STM32F4xx_HAL_Driver/Src/stm32f4xx_hal_dma.c ****       return HAL_ERROR;
 1219              		.loc 1 717 14
 1220 0180 0123     		movs	r3, #1
 1221 0182 18E0     		b	.L37
 1222              	.L48:
 718:Drivers/STM32F4xx_HAL_Driver/Src/stm32f4xx_hal_dma.c ****    }
 719:Drivers/STM32F4xx_HAL_Driver/Src/stm32f4xx_hal_dma.c ****   }
 720:Drivers/STM32F4xx_HAL_Driver/Src/stm32f4xx_hal_dma.c ****   
 721:Drivers/STM32F4xx_HAL_Driver/Src/stm32f4xx_hal_dma.c ****   /* Get the level transfer complete flag */
 722:Drivers/STM32F4xx_HAL_Driver/Src/stm32f4xx_hal_dma.c ****   if(CompleteLevel == HAL_DMA_FULL_TRANSFER)
 1223              		.loc 1 722 5
 1224 0184 FB7A     		ldrb	r3, [r7, #11]	@ zero_extendqisi2
 1225 0186 002B     		cmp	r3, #0
 1226 0188 0ED1     		bne	.L49
 723:Drivers/STM32F4xx_HAL_Driver/Src/stm32f4xx_hal_dma.c ****   {
 724:Drivers/STM32F4xx_HAL_Driver/Src/stm32f4xx_hal_dma.c ****     /* Clear the half transfer and transfer complete flags */
 725:Drivers/STM32F4xx_HAL_Driver/Src/stm32f4xx_hal_dma.c ****     regs->IFCR = (DMA_FLAG_HTIF0_4 | DMA_FLAG_TCIF0_4) << hdma->StreamIndex;
 1227              		.loc 1 725 63
 1228 018a FB68     		ldr	r3, [r7, #12]
 1229 018c DB6D     		ldr	r3, [r3, #92]
 1230              		.loc 1 725 56
 1231 018e 3022     		movs	r2, #48
 1232 0190 9A40     		lsls	r2, r2, r3
 1233              		.loc 1 725 16
 1234 0192 7B69     		ldr	r3, [r7, #20]
 1235 0194 9A60     		str	r2, [r3, #8]
 726:Drivers/STM32F4xx_HAL_Driver/Src/stm32f4xx_hal_dma.c ****     
 727:Drivers/STM32F4xx_HAL_Driver/Src/stm32f4xx_hal_dma.c ****     /* Process Unlocked */
 728:Drivers/STM32F4xx_HAL_Driver/Src/stm32f4xx_hal_dma.c ****     __HAL_UNLOCK(hdma);
 1236              		.loc 1 728 5
 1237 0196 FB68     		ldr	r3, [r7, #12]
 1238 0198 0022     		movs	r2, #0
 1239 019a 83F83420 		strb	r2, [r3, #52]
 729:Drivers/STM32F4xx_HAL_Driver/Src/stm32f4xx_hal_dma.c **** 
 730:Drivers/STM32F4xx_HAL_Driver/Src/stm32f4xx_hal_dma.c ****     hdma->State = HAL_DMA_STATE_READY;
 1240              		.loc 1 730 17
 1241 019e FB68     		ldr	r3, [r7, #12]
 1242 01a0 0122     		movs	r2, #1
 1243 01a2 83F83520 		strb	r2, [r3, #53]
 1244 01a6 05E0     		b	.L50
 1245              	.L49:
 731:Drivers/STM32F4xx_HAL_Driver/Src/stm32f4xx_hal_dma.c ****   }
 732:Drivers/STM32F4xx_HAL_Driver/Src/stm32f4xx_hal_dma.c ****   else
 733:Drivers/STM32F4xx_HAL_Driver/Src/stm32f4xx_hal_dma.c ****   {
 734:Drivers/STM32F4xx_HAL_Driver/Src/stm32f4xx_hal_dma.c ****     /* Clear the half transfer and transfer complete flags */
 735:Drivers/STM32F4xx_HAL_Driver/Src/stm32f4xx_hal_dma.c ****     regs->IFCR = (DMA_FLAG_HTIF0_4) << hdma->StreamIndex;
 1246              		.loc 1 735 44
 1247 01a8 FB68     		ldr	r3, [r7, #12]
 1248 01aa DB6D     		ldr	r3, [r3, #92]
 1249              		.loc 1 735 37
 1250 01ac 1022     		movs	r2, #16
 1251 01ae 9A40     		lsls	r2, r2, r3
 1252              		.loc 1 735 16
 1253 01b0 7B69     		ldr	r3, [r7, #20]
 1254 01b2 9A60     		str	r2, [r3, #8]
 1255              	.L50:
 736:Drivers/STM32F4xx_HAL_Driver/Src/stm32f4xx_hal_dma.c ****   }
ARM GAS  /var/folders/vq/qt4vp3kd5rxf7v2b6_fdtdt80000gn/T//cc8V800z.s 			page 36


 737:Drivers/STM32F4xx_HAL_Driver/Src/stm32f4xx_hal_dma.c ****   
 738:Drivers/STM32F4xx_HAL_Driver/Src/stm32f4xx_hal_dma.c ****   return status;
 1256              		.loc 1 738 10
 1257 01b4 FB7F     		ldrb	r3, [r7, #31]	@ zero_extendqisi2
 1258              	.L37:
 739:Drivers/STM32F4xx_HAL_Driver/Src/stm32f4xx_hal_dma.c **** }
 1259              		.loc 1 739 1
 1260 01b6 1846     		mov	r0, r3
 1261 01b8 2837     		adds	r7, r7, #40
 1262              	.LCFI34:
 1263              		.cfi_def_cfa_offset 8
 1264 01ba BD46     		mov	sp, r7
 1265              	.LCFI35:
 1266              		.cfi_def_cfa_register 13
 1267              		@ sp needed
 1268 01bc 80BD     		pop	{r7, pc}
 1269              		.cfi_endproc
 1270              	.LFE136:
 1272              		.section	.text.HAL_DMA_IRQHandler,"ax",%progbits
 1273              		.align	1
 1274              		.global	HAL_DMA_IRQHandler
 1275              		.syntax unified
 1276              		.thumb
 1277              		.thumb_func
 1278              		.fpu fpv4-sp-d16
 1280              	HAL_DMA_IRQHandler:
 1281              	.LFB137:
 740:Drivers/STM32F4xx_HAL_Driver/Src/stm32f4xx_hal_dma.c **** 
 741:Drivers/STM32F4xx_HAL_Driver/Src/stm32f4xx_hal_dma.c **** /**
 742:Drivers/STM32F4xx_HAL_Driver/Src/stm32f4xx_hal_dma.c ****   * @brief  Handles DMA interrupt request.
 743:Drivers/STM32F4xx_HAL_Driver/Src/stm32f4xx_hal_dma.c ****   * @param  hdma pointer to a DMA_HandleTypeDef structure that contains
 744:Drivers/STM32F4xx_HAL_Driver/Src/stm32f4xx_hal_dma.c ****   *               the configuration information for the specified DMA Stream.  
 745:Drivers/STM32F4xx_HAL_Driver/Src/stm32f4xx_hal_dma.c ****   * @retval None
 746:Drivers/STM32F4xx_HAL_Driver/Src/stm32f4xx_hal_dma.c ****   */
 747:Drivers/STM32F4xx_HAL_Driver/Src/stm32f4xx_hal_dma.c **** void HAL_DMA_IRQHandler(DMA_HandleTypeDef *hdma)
 748:Drivers/STM32F4xx_HAL_Driver/Src/stm32f4xx_hal_dma.c **** {
 1282              		.loc 1 748 1
 1283              		.cfi_startproc
 1284              		@ args = 0, pretend = 0, frame = 24
 1285              		@ frame_needed = 1, uses_anonymous_args = 0
 1286 0000 80B5     		push	{r7, lr}
 1287              	.LCFI36:
 1288              		.cfi_def_cfa_offset 8
 1289              		.cfi_offset 7, -8
 1290              		.cfi_offset 14, -4
 1291 0002 86B0     		sub	sp, sp, #24
 1292              	.LCFI37:
 1293              		.cfi_def_cfa_offset 32
 1294 0004 00AF     		add	r7, sp, #0
 1295              	.LCFI38:
 1296              		.cfi_def_cfa_register 7
 1297 0006 7860     		str	r0, [r7, #4]
 749:Drivers/STM32F4xx_HAL_Driver/Src/stm32f4xx_hal_dma.c ****   uint32_t tmpisr;
 750:Drivers/STM32F4xx_HAL_Driver/Src/stm32f4xx_hal_dma.c ****   __IO uint32_t count = 0U;
 1298              		.loc 1 750 17
 1299 0008 0023     		movs	r3, #0
 1300 000a BB60     		str	r3, [r7, #8]
ARM GAS  /var/folders/vq/qt4vp3kd5rxf7v2b6_fdtdt80000gn/T//cc8V800z.s 			page 37


 751:Drivers/STM32F4xx_HAL_Driver/Src/stm32f4xx_hal_dma.c ****   uint32_t timeout = SystemCoreClock / 9600U;
 1301              		.loc 1 751 38
 1302 000c 924B     		ldr	r3, .L74
 1303 000e 1B68     		ldr	r3, [r3]
 1304              		.loc 1 751 12
 1305 0010 924A     		ldr	r2, .L74+4
 1306 0012 A2FB0323 		umull	r2, r3, r2, r3
 1307 0016 9B0A     		lsrs	r3, r3, #10
 1308 0018 7B61     		str	r3, [r7, #20]
 752:Drivers/STM32F4xx_HAL_Driver/Src/stm32f4xx_hal_dma.c **** 
 753:Drivers/STM32F4xx_HAL_Driver/Src/stm32f4xx_hal_dma.c ****   /* calculate DMA base and stream number */
 754:Drivers/STM32F4xx_HAL_Driver/Src/stm32f4xx_hal_dma.c ****   DMA_Base_Registers *regs = (DMA_Base_Registers *)hdma->StreamBaseAddress;
 1309              		.loc 1 754 56
 1310 001a 7B68     		ldr	r3, [r7, #4]
 1311 001c 9B6D     		ldr	r3, [r3, #88]
 1312              		.loc 1 754 23
 1313 001e 3B61     		str	r3, [r7, #16]
 755:Drivers/STM32F4xx_HAL_Driver/Src/stm32f4xx_hal_dma.c **** 
 756:Drivers/STM32F4xx_HAL_Driver/Src/stm32f4xx_hal_dma.c ****   tmpisr = regs->ISR;
 1314              		.loc 1 756 10
 1315 0020 3B69     		ldr	r3, [r7, #16]
 1316 0022 1B68     		ldr	r3, [r3]
 1317 0024 FB60     		str	r3, [r7, #12]
 757:Drivers/STM32F4xx_HAL_Driver/Src/stm32f4xx_hal_dma.c **** 
 758:Drivers/STM32F4xx_HAL_Driver/Src/stm32f4xx_hal_dma.c ****   /* Transfer Error Interrupt management ***************************************/
 759:Drivers/STM32F4xx_HAL_Driver/Src/stm32f4xx_hal_dma.c ****   if ((tmpisr & (DMA_FLAG_TEIF0_4 << hdma->StreamIndex)) != RESET)
 1318              		.loc 1 759 42
 1319 0026 7B68     		ldr	r3, [r7, #4]
 1320 0028 DB6D     		ldr	r3, [r3, #92]
 1321              		.loc 1 759 35
 1322 002a 0822     		movs	r2, #8
 1323 002c 9A40     		lsls	r2, r2, r3
 1324              		.loc 1 759 15
 1325 002e FB68     		ldr	r3, [r7, #12]
 1326 0030 1340     		ands	r3, r3, r2
 1327              		.loc 1 759 6
 1328 0032 002B     		cmp	r3, #0
 1329 0034 1AD0     		beq	.L52
 760:Drivers/STM32F4xx_HAL_Driver/Src/stm32f4xx_hal_dma.c ****   {
 761:Drivers/STM32F4xx_HAL_Driver/Src/stm32f4xx_hal_dma.c ****     if(__HAL_DMA_GET_IT_SOURCE(hdma, DMA_IT_TE) != RESET)
 1330              		.loc 1 761 8
 1331 0036 7B68     		ldr	r3, [r7, #4]
 1332 0038 1B68     		ldr	r3, [r3]
 1333 003a 1B68     		ldr	r3, [r3]
 1334 003c 03F00403 		and	r3, r3, #4
 1335              		.loc 1 761 7
 1336 0040 002B     		cmp	r3, #0
 1337 0042 13D0     		beq	.L52
 762:Drivers/STM32F4xx_HAL_Driver/Src/stm32f4xx_hal_dma.c ****     {
 763:Drivers/STM32F4xx_HAL_Driver/Src/stm32f4xx_hal_dma.c ****       /* Disable the transfer error interrupt */
 764:Drivers/STM32F4xx_HAL_Driver/Src/stm32f4xx_hal_dma.c ****       hdma->Instance->CR  &= ~(DMA_IT_TE);
 1338              		.loc 1 764 11
 1339 0044 7B68     		ldr	r3, [r7, #4]
 1340 0046 1B68     		ldr	r3, [r3]
 1341              		.loc 1 764 27
 1342 0048 1A68     		ldr	r2, [r3]
 1343              		.loc 1 764 11
ARM GAS  /var/folders/vq/qt4vp3kd5rxf7v2b6_fdtdt80000gn/T//cc8V800z.s 			page 38


 1344 004a 7B68     		ldr	r3, [r7, #4]
 1345 004c 1B68     		ldr	r3, [r3]
 1346              		.loc 1 764 27
 1347 004e 22F00402 		bic	r2, r2, #4
 1348 0052 1A60     		str	r2, [r3]
 765:Drivers/STM32F4xx_HAL_Driver/Src/stm32f4xx_hal_dma.c ****       
 766:Drivers/STM32F4xx_HAL_Driver/Src/stm32f4xx_hal_dma.c ****       /* Clear the transfer error flag */
 767:Drivers/STM32F4xx_HAL_Driver/Src/stm32f4xx_hal_dma.c ****       regs->IFCR = DMA_FLAG_TEIF0_4 << hdma->StreamIndex;
 1349              		.loc 1 767 44
 1350 0054 7B68     		ldr	r3, [r7, #4]
 1351 0056 DB6D     		ldr	r3, [r3, #92]
 1352              		.loc 1 767 37
 1353 0058 0822     		movs	r2, #8
 1354 005a 9A40     		lsls	r2, r2, r3
 1355              		.loc 1 767 18
 1356 005c 3B69     		ldr	r3, [r7, #16]
 1357 005e 9A60     		str	r2, [r3, #8]
 768:Drivers/STM32F4xx_HAL_Driver/Src/stm32f4xx_hal_dma.c ****       
 769:Drivers/STM32F4xx_HAL_Driver/Src/stm32f4xx_hal_dma.c ****       /* Update error code */
 770:Drivers/STM32F4xx_HAL_Driver/Src/stm32f4xx_hal_dma.c ****       hdma->ErrorCode |= HAL_DMA_ERROR_TE;
 1358              		.loc 1 770 23
 1359 0060 7B68     		ldr	r3, [r7, #4]
 1360 0062 5B6D     		ldr	r3, [r3, #84]
 1361 0064 43F00102 		orr	r2, r3, #1
 1362 0068 7B68     		ldr	r3, [r7, #4]
 1363 006a 5A65     		str	r2, [r3, #84]
 1364              	.L52:
 771:Drivers/STM32F4xx_HAL_Driver/Src/stm32f4xx_hal_dma.c ****     }
 772:Drivers/STM32F4xx_HAL_Driver/Src/stm32f4xx_hal_dma.c ****   }
 773:Drivers/STM32F4xx_HAL_Driver/Src/stm32f4xx_hal_dma.c ****   /* FIFO Error Interrupt management ******************************************/
 774:Drivers/STM32F4xx_HAL_Driver/Src/stm32f4xx_hal_dma.c ****   if ((tmpisr & (DMA_FLAG_FEIF0_4 << hdma->StreamIndex)) != RESET)
 1365              		.loc 1 774 42
 1366 006c 7B68     		ldr	r3, [r7, #4]
 1367 006e DB6D     		ldr	r3, [r3, #92]
 1368              		.loc 1 774 35
 1369 0070 0122     		movs	r2, #1
 1370 0072 9A40     		lsls	r2, r2, r3
 1371              		.loc 1 774 15
 1372 0074 FB68     		ldr	r3, [r7, #12]
 1373 0076 1340     		ands	r3, r3, r2
 1374              		.loc 1 774 6
 1375 0078 002B     		cmp	r3, #0
 1376 007a 12D0     		beq	.L53
 775:Drivers/STM32F4xx_HAL_Driver/Src/stm32f4xx_hal_dma.c ****   {
 776:Drivers/STM32F4xx_HAL_Driver/Src/stm32f4xx_hal_dma.c ****     if(__HAL_DMA_GET_IT_SOURCE(hdma, DMA_IT_FE) != RESET)
 1377              		.loc 1 776 8
 1378 007c 7B68     		ldr	r3, [r7, #4]
 1379 007e 1B68     		ldr	r3, [r3]
 1380 0080 5B69     		ldr	r3, [r3, #20]
 1381 0082 03F08003 		and	r3, r3, #128
 1382              		.loc 1 776 7
 1383 0086 002B     		cmp	r3, #0
 1384 0088 0BD0     		beq	.L53
 777:Drivers/STM32F4xx_HAL_Driver/Src/stm32f4xx_hal_dma.c ****     {
 778:Drivers/STM32F4xx_HAL_Driver/Src/stm32f4xx_hal_dma.c ****       /* Clear the FIFO error flag */
 779:Drivers/STM32F4xx_HAL_Driver/Src/stm32f4xx_hal_dma.c ****       regs->IFCR = DMA_FLAG_FEIF0_4 << hdma->StreamIndex;
 1385              		.loc 1 779 44
ARM GAS  /var/folders/vq/qt4vp3kd5rxf7v2b6_fdtdt80000gn/T//cc8V800z.s 			page 39


 1386 008a 7B68     		ldr	r3, [r7, #4]
 1387 008c DB6D     		ldr	r3, [r3, #92]
 1388              		.loc 1 779 37
 1389 008e 0122     		movs	r2, #1
 1390 0090 9A40     		lsls	r2, r2, r3
 1391              		.loc 1 779 18
 1392 0092 3B69     		ldr	r3, [r7, #16]
 1393 0094 9A60     		str	r2, [r3, #8]
 780:Drivers/STM32F4xx_HAL_Driver/Src/stm32f4xx_hal_dma.c **** 
 781:Drivers/STM32F4xx_HAL_Driver/Src/stm32f4xx_hal_dma.c ****       /* Update error code */
 782:Drivers/STM32F4xx_HAL_Driver/Src/stm32f4xx_hal_dma.c ****       hdma->ErrorCode |= HAL_DMA_ERROR_FE;
 1394              		.loc 1 782 23
 1395 0096 7B68     		ldr	r3, [r7, #4]
 1396 0098 5B6D     		ldr	r3, [r3, #84]
 1397 009a 43F00202 		orr	r2, r3, #2
 1398 009e 7B68     		ldr	r3, [r7, #4]
 1399 00a0 5A65     		str	r2, [r3, #84]
 1400              	.L53:
 783:Drivers/STM32F4xx_HAL_Driver/Src/stm32f4xx_hal_dma.c ****     }
 784:Drivers/STM32F4xx_HAL_Driver/Src/stm32f4xx_hal_dma.c ****   }
 785:Drivers/STM32F4xx_HAL_Driver/Src/stm32f4xx_hal_dma.c ****   /* Direct Mode Error Interrupt management ***********************************/
 786:Drivers/STM32F4xx_HAL_Driver/Src/stm32f4xx_hal_dma.c ****   if ((tmpisr & (DMA_FLAG_DMEIF0_4 << hdma->StreamIndex)) != RESET)
 1401              		.loc 1 786 43
 1402 00a2 7B68     		ldr	r3, [r7, #4]
 1403 00a4 DB6D     		ldr	r3, [r3, #92]
 1404              		.loc 1 786 36
 1405 00a6 0422     		movs	r2, #4
 1406 00a8 9A40     		lsls	r2, r2, r3
 1407              		.loc 1 786 15
 1408 00aa FB68     		ldr	r3, [r7, #12]
 1409 00ac 1340     		ands	r3, r3, r2
 1410              		.loc 1 786 6
 1411 00ae 002B     		cmp	r3, #0
 1412 00b0 12D0     		beq	.L54
 787:Drivers/STM32F4xx_HAL_Driver/Src/stm32f4xx_hal_dma.c ****   {
 788:Drivers/STM32F4xx_HAL_Driver/Src/stm32f4xx_hal_dma.c ****     if(__HAL_DMA_GET_IT_SOURCE(hdma, DMA_IT_DME) != RESET)
 1413              		.loc 1 788 8
 1414 00b2 7B68     		ldr	r3, [r7, #4]
 1415 00b4 1B68     		ldr	r3, [r3]
 1416 00b6 1B68     		ldr	r3, [r3]
 1417 00b8 03F00203 		and	r3, r3, #2
 1418              		.loc 1 788 7
 1419 00bc 002B     		cmp	r3, #0
 1420 00be 0BD0     		beq	.L54
 789:Drivers/STM32F4xx_HAL_Driver/Src/stm32f4xx_hal_dma.c ****     {
 790:Drivers/STM32F4xx_HAL_Driver/Src/stm32f4xx_hal_dma.c ****       /* Clear the direct mode error flag */
 791:Drivers/STM32F4xx_HAL_Driver/Src/stm32f4xx_hal_dma.c ****       regs->IFCR = DMA_FLAG_DMEIF0_4 << hdma->StreamIndex;
 1421              		.loc 1 791 45
 1422 00c0 7B68     		ldr	r3, [r7, #4]
 1423 00c2 DB6D     		ldr	r3, [r3, #92]
 1424              		.loc 1 791 38
 1425 00c4 0422     		movs	r2, #4
 1426 00c6 9A40     		lsls	r2, r2, r3
 1427              		.loc 1 791 18
 1428 00c8 3B69     		ldr	r3, [r7, #16]
 1429 00ca 9A60     		str	r2, [r3, #8]
 792:Drivers/STM32F4xx_HAL_Driver/Src/stm32f4xx_hal_dma.c **** 
ARM GAS  /var/folders/vq/qt4vp3kd5rxf7v2b6_fdtdt80000gn/T//cc8V800z.s 			page 40


 793:Drivers/STM32F4xx_HAL_Driver/Src/stm32f4xx_hal_dma.c ****       /* Update error code */
 794:Drivers/STM32F4xx_HAL_Driver/Src/stm32f4xx_hal_dma.c ****       hdma->ErrorCode |= HAL_DMA_ERROR_DME;
 1430              		.loc 1 794 23
 1431 00cc 7B68     		ldr	r3, [r7, #4]
 1432 00ce 5B6D     		ldr	r3, [r3, #84]
 1433 00d0 43F00402 		orr	r2, r3, #4
 1434 00d4 7B68     		ldr	r3, [r7, #4]
 1435 00d6 5A65     		str	r2, [r3, #84]
 1436              	.L54:
 795:Drivers/STM32F4xx_HAL_Driver/Src/stm32f4xx_hal_dma.c ****     }
 796:Drivers/STM32F4xx_HAL_Driver/Src/stm32f4xx_hal_dma.c ****   }
 797:Drivers/STM32F4xx_HAL_Driver/Src/stm32f4xx_hal_dma.c ****   /* Half Transfer Complete Interrupt management ******************************/
 798:Drivers/STM32F4xx_HAL_Driver/Src/stm32f4xx_hal_dma.c ****   if ((tmpisr & (DMA_FLAG_HTIF0_4 << hdma->StreamIndex)) != RESET)
 1437              		.loc 1 798 42
 1438 00d8 7B68     		ldr	r3, [r7, #4]
 1439 00da DB6D     		ldr	r3, [r3, #92]
 1440              		.loc 1 798 35
 1441 00dc 1022     		movs	r2, #16
 1442 00de 9A40     		lsls	r2, r2, r3
 1443              		.loc 1 798 15
 1444 00e0 FB68     		ldr	r3, [r7, #12]
 1445 00e2 1340     		ands	r3, r3, r2
 1446              		.loc 1 798 6
 1447 00e4 002B     		cmp	r3, #0
 1448 00e6 43D0     		beq	.L55
 799:Drivers/STM32F4xx_HAL_Driver/Src/stm32f4xx_hal_dma.c ****   {
 800:Drivers/STM32F4xx_HAL_Driver/Src/stm32f4xx_hal_dma.c ****     if(__HAL_DMA_GET_IT_SOURCE(hdma, DMA_IT_HT) != RESET)
 1449              		.loc 1 800 8
 1450 00e8 7B68     		ldr	r3, [r7, #4]
 1451 00ea 1B68     		ldr	r3, [r3]
 1452 00ec 1B68     		ldr	r3, [r3]
 1453 00ee 03F00803 		and	r3, r3, #8
 1454              		.loc 1 800 7
 1455 00f2 002B     		cmp	r3, #0
 1456 00f4 3CD0     		beq	.L55
 801:Drivers/STM32F4xx_HAL_Driver/Src/stm32f4xx_hal_dma.c ****     {
 802:Drivers/STM32F4xx_HAL_Driver/Src/stm32f4xx_hal_dma.c ****       /* Clear the half transfer complete flag */
 803:Drivers/STM32F4xx_HAL_Driver/Src/stm32f4xx_hal_dma.c ****       regs->IFCR = DMA_FLAG_HTIF0_4 << hdma->StreamIndex;
 1457              		.loc 1 803 44
 1458 00f6 7B68     		ldr	r3, [r7, #4]
 1459 00f8 DB6D     		ldr	r3, [r3, #92]
 1460              		.loc 1 803 37
 1461 00fa 1022     		movs	r2, #16
 1462 00fc 9A40     		lsls	r2, r2, r3
 1463              		.loc 1 803 18
 1464 00fe 3B69     		ldr	r3, [r7, #16]
 1465 0100 9A60     		str	r2, [r3, #8]
 804:Drivers/STM32F4xx_HAL_Driver/Src/stm32f4xx_hal_dma.c ****       
 805:Drivers/STM32F4xx_HAL_Driver/Src/stm32f4xx_hal_dma.c ****       /* Multi_Buffering mode enabled */
 806:Drivers/STM32F4xx_HAL_Driver/Src/stm32f4xx_hal_dma.c ****       if(((hdma->Instance->CR) & (uint32_t)(DMA_SxCR_DBM)) != RESET)
 1466              		.loc 1 806 16
 1467 0102 7B68     		ldr	r3, [r7, #4]
 1468 0104 1B68     		ldr	r3, [r3]
 1469              		.loc 1 806 26
 1470 0106 1B68     		ldr	r3, [r3]
 1471              		.loc 1 806 32
 1472 0108 03F48023 		and	r3, r3, #262144
ARM GAS  /var/folders/vq/qt4vp3kd5rxf7v2b6_fdtdt80000gn/T//cc8V800z.s 			page 41


 1473              		.loc 1 806 9
 1474 010c 002B     		cmp	r3, #0
 1475 010e 18D0     		beq	.L56
 807:Drivers/STM32F4xx_HAL_Driver/Src/stm32f4xx_hal_dma.c ****       {
 808:Drivers/STM32F4xx_HAL_Driver/Src/stm32f4xx_hal_dma.c ****         /* Current memory buffer used is Memory 0 */
 809:Drivers/STM32F4xx_HAL_Driver/Src/stm32f4xx_hal_dma.c ****         if((hdma->Instance->CR & DMA_SxCR_CT) == RESET)
 1476              		.loc 1 809 17
 1477 0110 7B68     		ldr	r3, [r7, #4]
 1478 0112 1B68     		ldr	r3, [r3]
 1479              		.loc 1 809 27
 1480 0114 1B68     		ldr	r3, [r3]
 1481              		.loc 1 809 32
 1482 0116 03F40023 		and	r3, r3, #524288
 1483              		.loc 1 809 11
 1484 011a 002B     		cmp	r3, #0
 1485 011c 08D1     		bne	.L57
 810:Drivers/STM32F4xx_HAL_Driver/Src/stm32f4xx_hal_dma.c ****         {
 811:Drivers/STM32F4xx_HAL_Driver/Src/stm32f4xx_hal_dma.c ****           if(hdma->XferHalfCpltCallback != NULL)
 1486              		.loc 1 811 18
 1487 011e 7B68     		ldr	r3, [r7, #4]
 1488 0120 1B6C     		ldr	r3, [r3, #64]
 1489              		.loc 1 811 13
 1490 0122 002B     		cmp	r3, #0
 1491 0124 24D0     		beq	.L55
 812:Drivers/STM32F4xx_HAL_Driver/Src/stm32f4xx_hal_dma.c ****           {
 813:Drivers/STM32F4xx_HAL_Driver/Src/stm32f4xx_hal_dma.c ****             /* Half transfer callback */
 814:Drivers/STM32F4xx_HAL_Driver/Src/stm32f4xx_hal_dma.c ****             hdma->XferHalfCpltCallback(hdma);
 1492              		.loc 1 814 17
 1493 0126 7B68     		ldr	r3, [r7, #4]
 1494 0128 1B6C     		ldr	r3, [r3, #64]
 1495              		.loc 1 814 13
 1496 012a 7868     		ldr	r0, [r7, #4]
 1497 012c 9847     		blx	r3
 1498              	.LVL0:
 1499 012e 1FE0     		b	.L55
 1500              	.L57:
 815:Drivers/STM32F4xx_HAL_Driver/Src/stm32f4xx_hal_dma.c ****           }
 816:Drivers/STM32F4xx_HAL_Driver/Src/stm32f4xx_hal_dma.c ****         }
 817:Drivers/STM32F4xx_HAL_Driver/Src/stm32f4xx_hal_dma.c ****         /* Current memory buffer used is Memory 1 */
 818:Drivers/STM32F4xx_HAL_Driver/Src/stm32f4xx_hal_dma.c ****         else
 819:Drivers/STM32F4xx_HAL_Driver/Src/stm32f4xx_hal_dma.c ****         {
 820:Drivers/STM32F4xx_HAL_Driver/Src/stm32f4xx_hal_dma.c ****           if(hdma->XferM1HalfCpltCallback != NULL)
 1501              		.loc 1 820 18
 1502 0130 7B68     		ldr	r3, [r7, #4]
 1503 0132 9B6C     		ldr	r3, [r3, #72]
 1504              		.loc 1 820 13
 1505 0134 002B     		cmp	r3, #0
 1506 0136 1BD0     		beq	.L55
 821:Drivers/STM32F4xx_HAL_Driver/Src/stm32f4xx_hal_dma.c ****           {
 822:Drivers/STM32F4xx_HAL_Driver/Src/stm32f4xx_hal_dma.c ****             /* Half transfer callback */
 823:Drivers/STM32F4xx_HAL_Driver/Src/stm32f4xx_hal_dma.c ****             hdma->XferM1HalfCpltCallback(hdma);
 1507              		.loc 1 823 17
 1508 0138 7B68     		ldr	r3, [r7, #4]
 1509 013a 9B6C     		ldr	r3, [r3, #72]
 1510              		.loc 1 823 13
 1511 013c 7868     		ldr	r0, [r7, #4]
 1512 013e 9847     		blx	r3
ARM GAS  /var/folders/vq/qt4vp3kd5rxf7v2b6_fdtdt80000gn/T//cc8V800z.s 			page 42


 1513              	.LVL1:
 1514 0140 16E0     		b	.L55
 1515              	.L56:
 824:Drivers/STM32F4xx_HAL_Driver/Src/stm32f4xx_hal_dma.c ****           }
 825:Drivers/STM32F4xx_HAL_Driver/Src/stm32f4xx_hal_dma.c ****         }
 826:Drivers/STM32F4xx_HAL_Driver/Src/stm32f4xx_hal_dma.c ****       }
 827:Drivers/STM32F4xx_HAL_Driver/Src/stm32f4xx_hal_dma.c ****       else
 828:Drivers/STM32F4xx_HAL_Driver/Src/stm32f4xx_hal_dma.c ****       {
 829:Drivers/STM32F4xx_HAL_Driver/Src/stm32f4xx_hal_dma.c ****         /* Disable the half transfer interrupt if the DMA mode is not CIRCULAR */
 830:Drivers/STM32F4xx_HAL_Driver/Src/stm32f4xx_hal_dma.c ****         if((hdma->Instance->CR & DMA_SxCR_CIRC) == RESET)
 1516              		.loc 1 830 17
 1517 0142 7B68     		ldr	r3, [r7, #4]
 1518 0144 1B68     		ldr	r3, [r3]
 1519              		.loc 1 830 27
 1520 0146 1B68     		ldr	r3, [r3]
 1521              		.loc 1 830 32
 1522 0148 03F48073 		and	r3, r3, #256
 1523              		.loc 1 830 11
 1524 014c 002B     		cmp	r3, #0
 1525 014e 07D1     		bne	.L58
 831:Drivers/STM32F4xx_HAL_Driver/Src/stm32f4xx_hal_dma.c ****         {
 832:Drivers/STM32F4xx_HAL_Driver/Src/stm32f4xx_hal_dma.c ****           /* Disable the half transfer interrupt */
 833:Drivers/STM32F4xx_HAL_Driver/Src/stm32f4xx_hal_dma.c ****           hdma->Instance->CR  &= ~(DMA_IT_HT);
 1526              		.loc 1 833 15
 1527 0150 7B68     		ldr	r3, [r7, #4]
 1528 0152 1B68     		ldr	r3, [r3]
 1529              		.loc 1 833 31
 1530 0154 1A68     		ldr	r2, [r3]
 1531              		.loc 1 833 15
 1532 0156 7B68     		ldr	r3, [r7, #4]
 1533 0158 1B68     		ldr	r3, [r3]
 1534              		.loc 1 833 31
 1535 015a 22F00802 		bic	r2, r2, #8
 1536 015e 1A60     		str	r2, [r3]
 1537              	.L58:
 834:Drivers/STM32F4xx_HAL_Driver/Src/stm32f4xx_hal_dma.c ****         }
 835:Drivers/STM32F4xx_HAL_Driver/Src/stm32f4xx_hal_dma.c ****         
 836:Drivers/STM32F4xx_HAL_Driver/Src/stm32f4xx_hal_dma.c ****         if(hdma->XferHalfCpltCallback != NULL)
 1538              		.loc 1 836 16
 1539 0160 7B68     		ldr	r3, [r7, #4]
 1540 0162 1B6C     		ldr	r3, [r3, #64]
 1541              		.loc 1 836 11
 1542 0164 002B     		cmp	r3, #0
 1543 0166 03D0     		beq	.L55
 837:Drivers/STM32F4xx_HAL_Driver/Src/stm32f4xx_hal_dma.c ****         {
 838:Drivers/STM32F4xx_HAL_Driver/Src/stm32f4xx_hal_dma.c ****           /* Half transfer callback */
 839:Drivers/STM32F4xx_HAL_Driver/Src/stm32f4xx_hal_dma.c ****           hdma->XferHalfCpltCallback(hdma);
 1544              		.loc 1 839 15
 1545 0168 7B68     		ldr	r3, [r7, #4]
 1546 016a 1B6C     		ldr	r3, [r3, #64]
 1547              		.loc 1 839 11
 1548 016c 7868     		ldr	r0, [r7, #4]
 1549 016e 9847     		blx	r3
 1550              	.LVL2:
 1551              	.L55:
 840:Drivers/STM32F4xx_HAL_Driver/Src/stm32f4xx_hal_dma.c ****         }
 841:Drivers/STM32F4xx_HAL_Driver/Src/stm32f4xx_hal_dma.c ****       }
ARM GAS  /var/folders/vq/qt4vp3kd5rxf7v2b6_fdtdt80000gn/T//cc8V800z.s 			page 43


 842:Drivers/STM32F4xx_HAL_Driver/Src/stm32f4xx_hal_dma.c ****     }
 843:Drivers/STM32F4xx_HAL_Driver/Src/stm32f4xx_hal_dma.c ****   }
 844:Drivers/STM32F4xx_HAL_Driver/Src/stm32f4xx_hal_dma.c ****   /* Transfer Complete Interrupt management ***********************************/
 845:Drivers/STM32F4xx_HAL_Driver/Src/stm32f4xx_hal_dma.c ****   if ((tmpisr & (DMA_FLAG_TCIF0_4 << hdma->StreamIndex)) != RESET)
 1552              		.loc 1 845 42
 1553 0170 7B68     		ldr	r3, [r7, #4]
 1554 0172 DB6D     		ldr	r3, [r3, #92]
 1555              		.loc 1 845 35
 1556 0174 2022     		movs	r2, #32
 1557 0176 9A40     		lsls	r2, r2, r3
 1558              		.loc 1 845 15
 1559 0178 FB68     		ldr	r3, [r7, #12]
 1560 017a 1340     		ands	r3, r3, r2
 1561              		.loc 1 845 6
 1562 017c 002B     		cmp	r3, #0
 1563 017e 00F08E80 		beq	.L59
 846:Drivers/STM32F4xx_HAL_Driver/Src/stm32f4xx_hal_dma.c ****   {
 847:Drivers/STM32F4xx_HAL_Driver/Src/stm32f4xx_hal_dma.c ****     if(__HAL_DMA_GET_IT_SOURCE(hdma, DMA_IT_TC) != RESET)
 1564              		.loc 1 847 8
 1565 0182 7B68     		ldr	r3, [r7, #4]
 1566 0184 1B68     		ldr	r3, [r3]
 1567 0186 1B68     		ldr	r3, [r3]
 1568 0188 03F01003 		and	r3, r3, #16
 1569              		.loc 1 847 7
 1570 018c 002B     		cmp	r3, #0
 1571 018e 00F08680 		beq	.L59
 848:Drivers/STM32F4xx_HAL_Driver/Src/stm32f4xx_hal_dma.c ****     {
 849:Drivers/STM32F4xx_HAL_Driver/Src/stm32f4xx_hal_dma.c ****       /* Clear the transfer complete flag */
 850:Drivers/STM32F4xx_HAL_Driver/Src/stm32f4xx_hal_dma.c ****       regs->IFCR = DMA_FLAG_TCIF0_4 << hdma->StreamIndex;
 1572              		.loc 1 850 44
 1573 0192 7B68     		ldr	r3, [r7, #4]
 1574 0194 DB6D     		ldr	r3, [r3, #92]
 1575              		.loc 1 850 37
 1576 0196 2022     		movs	r2, #32
 1577 0198 9A40     		lsls	r2, r2, r3
 1578              		.loc 1 850 18
 1579 019a 3B69     		ldr	r3, [r7, #16]
 1580 019c 9A60     		str	r2, [r3, #8]
 851:Drivers/STM32F4xx_HAL_Driver/Src/stm32f4xx_hal_dma.c ****       
 852:Drivers/STM32F4xx_HAL_Driver/Src/stm32f4xx_hal_dma.c ****       if(HAL_DMA_STATE_ABORT == hdma->State)
 1581              		.loc 1 852 37
 1582 019e 7B68     		ldr	r3, [r7, #4]
 1583 01a0 93F83530 		ldrb	r3, [r3, #53]
 1584 01a4 DBB2     		uxtb	r3, r3
 1585              		.loc 1 852 9
 1586 01a6 052B     		cmp	r3, #5
 1587 01a8 36D1     		bne	.L60
 853:Drivers/STM32F4xx_HAL_Driver/Src/stm32f4xx_hal_dma.c ****       {
 854:Drivers/STM32F4xx_HAL_Driver/Src/stm32f4xx_hal_dma.c ****         /* Disable all the transfer interrupts */
 855:Drivers/STM32F4xx_HAL_Driver/Src/stm32f4xx_hal_dma.c ****         hdma->Instance->CR  &= ~(DMA_IT_TC | DMA_IT_TE | DMA_IT_DME);
 1588              		.loc 1 855 13
 1589 01aa 7B68     		ldr	r3, [r7, #4]
 1590 01ac 1B68     		ldr	r3, [r3]
 1591              		.loc 1 855 29
 1592 01ae 1A68     		ldr	r2, [r3]
 1593              		.loc 1 855 13
 1594 01b0 7B68     		ldr	r3, [r7, #4]
ARM GAS  /var/folders/vq/qt4vp3kd5rxf7v2b6_fdtdt80000gn/T//cc8V800z.s 			page 44


 1595 01b2 1B68     		ldr	r3, [r3]
 1596              		.loc 1 855 29
 1597 01b4 22F01602 		bic	r2, r2, #22
 1598 01b8 1A60     		str	r2, [r3]
 856:Drivers/STM32F4xx_HAL_Driver/Src/stm32f4xx_hal_dma.c ****         hdma->Instance->FCR &= ~(DMA_IT_FE);
 1599              		.loc 1 856 13
 1600 01ba 7B68     		ldr	r3, [r7, #4]
 1601 01bc 1B68     		ldr	r3, [r3]
 1602              		.loc 1 856 29
 1603 01be 5A69     		ldr	r2, [r3, #20]
 1604              		.loc 1 856 13
 1605 01c0 7B68     		ldr	r3, [r7, #4]
 1606 01c2 1B68     		ldr	r3, [r3]
 1607              		.loc 1 856 29
 1608 01c4 22F08002 		bic	r2, r2, #128
 1609 01c8 5A61     		str	r2, [r3, #20]
 857:Drivers/STM32F4xx_HAL_Driver/Src/stm32f4xx_hal_dma.c ****         
 858:Drivers/STM32F4xx_HAL_Driver/Src/stm32f4xx_hal_dma.c ****         if((hdma->XferHalfCpltCallback != NULL) || (hdma->XferM1HalfCpltCallback != NULL))
 1610              		.loc 1 858 17
 1611 01ca 7B68     		ldr	r3, [r7, #4]
 1612 01cc 1B6C     		ldr	r3, [r3, #64]
 1613              		.loc 1 858 11
 1614 01ce 002B     		cmp	r3, #0
 1615 01d0 03D1     		bne	.L61
 1616              		.loc 1 858 57 discriminator 1
 1617 01d2 7B68     		ldr	r3, [r7, #4]
 1618 01d4 9B6C     		ldr	r3, [r3, #72]
 1619              		.loc 1 858 49 discriminator 1
 1620 01d6 002B     		cmp	r3, #0
 1621 01d8 07D0     		beq	.L62
 1622              	.L61:
 859:Drivers/STM32F4xx_HAL_Driver/Src/stm32f4xx_hal_dma.c ****         {
 860:Drivers/STM32F4xx_HAL_Driver/Src/stm32f4xx_hal_dma.c ****           hdma->Instance->CR  &= ~(DMA_IT_HT);
 1623              		.loc 1 860 15
 1624 01da 7B68     		ldr	r3, [r7, #4]
 1625 01dc 1B68     		ldr	r3, [r3]
 1626              		.loc 1 860 31
 1627 01de 1A68     		ldr	r2, [r3]
 1628              		.loc 1 860 15
 1629 01e0 7B68     		ldr	r3, [r7, #4]
 1630 01e2 1B68     		ldr	r3, [r3]
 1631              		.loc 1 860 31
 1632 01e4 22F00802 		bic	r2, r2, #8
 1633 01e8 1A60     		str	r2, [r3]
 1634              	.L62:
 861:Drivers/STM32F4xx_HAL_Driver/Src/stm32f4xx_hal_dma.c ****         }
 862:Drivers/STM32F4xx_HAL_Driver/Src/stm32f4xx_hal_dma.c **** 
 863:Drivers/STM32F4xx_HAL_Driver/Src/stm32f4xx_hal_dma.c ****         /* Clear all interrupt flags at correct offset within the register */
 864:Drivers/STM32F4xx_HAL_Driver/Src/stm32f4xx_hal_dma.c ****         regs->IFCR = 0x3FU << hdma->StreamIndex;
 1635              		.loc 1 864 35
 1636 01ea 7B68     		ldr	r3, [r7, #4]
 1637 01ec DB6D     		ldr	r3, [r3, #92]
 1638              		.loc 1 864 28
 1639 01ee 3F22     		movs	r2, #63
 1640 01f0 9A40     		lsls	r2, r2, r3
 1641              		.loc 1 864 20
 1642 01f2 3B69     		ldr	r3, [r7, #16]
ARM GAS  /var/folders/vq/qt4vp3kd5rxf7v2b6_fdtdt80000gn/T//cc8V800z.s 			page 45


 1643 01f4 9A60     		str	r2, [r3, #8]
 865:Drivers/STM32F4xx_HAL_Driver/Src/stm32f4xx_hal_dma.c **** 
 866:Drivers/STM32F4xx_HAL_Driver/Src/stm32f4xx_hal_dma.c ****         /* Process Unlocked */
 867:Drivers/STM32F4xx_HAL_Driver/Src/stm32f4xx_hal_dma.c ****         __HAL_UNLOCK(hdma);
 1644              		.loc 1 867 9
 1645 01f6 7B68     		ldr	r3, [r7, #4]
 1646 01f8 0022     		movs	r2, #0
 1647 01fa 83F83420 		strb	r2, [r3, #52]
 868:Drivers/STM32F4xx_HAL_Driver/Src/stm32f4xx_hal_dma.c **** 
 869:Drivers/STM32F4xx_HAL_Driver/Src/stm32f4xx_hal_dma.c ****         /* Change the DMA state */
 870:Drivers/STM32F4xx_HAL_Driver/Src/stm32f4xx_hal_dma.c ****         hdma->State = HAL_DMA_STATE_READY;
 1648              		.loc 1 870 21
 1649 01fe 7B68     		ldr	r3, [r7, #4]
 1650 0200 0122     		movs	r2, #1
 1651 0202 83F83520 		strb	r2, [r3, #53]
 871:Drivers/STM32F4xx_HAL_Driver/Src/stm32f4xx_hal_dma.c **** 
 872:Drivers/STM32F4xx_HAL_Driver/Src/stm32f4xx_hal_dma.c ****         if(hdma->XferAbortCallback != NULL)
 1652              		.loc 1 872 16
 1653 0206 7B68     		ldr	r3, [r7, #4]
 1654 0208 1B6D     		ldr	r3, [r3, #80]
 1655              		.loc 1 872 11
 1656 020a 002B     		cmp	r3, #0
 1657 020c 7DD0     		beq	.L72
 873:Drivers/STM32F4xx_HAL_Driver/Src/stm32f4xx_hal_dma.c ****         {
 874:Drivers/STM32F4xx_HAL_Driver/Src/stm32f4xx_hal_dma.c ****           hdma->XferAbortCallback(hdma);
 1658              		.loc 1 874 15
 1659 020e 7B68     		ldr	r3, [r7, #4]
 1660 0210 1B6D     		ldr	r3, [r3, #80]
 1661              		.loc 1 874 11
 1662 0212 7868     		ldr	r0, [r7, #4]
 1663 0214 9847     		blx	r3
 1664              	.LVL3:
 875:Drivers/STM32F4xx_HAL_Driver/Src/stm32f4xx_hal_dma.c ****         }
 876:Drivers/STM32F4xx_HAL_Driver/Src/stm32f4xx_hal_dma.c ****         return;
 1665              		.loc 1 876 9
 1666 0216 78E0     		b	.L72
 1667              	.L60:
 877:Drivers/STM32F4xx_HAL_Driver/Src/stm32f4xx_hal_dma.c ****       }
 878:Drivers/STM32F4xx_HAL_Driver/Src/stm32f4xx_hal_dma.c **** 
 879:Drivers/STM32F4xx_HAL_Driver/Src/stm32f4xx_hal_dma.c ****       if(((hdma->Instance->CR) & (uint32_t)(DMA_SxCR_DBM)) != RESET)
 1668              		.loc 1 879 16
 1669 0218 7B68     		ldr	r3, [r7, #4]
 1670 021a 1B68     		ldr	r3, [r3]
 1671              		.loc 1 879 26
 1672 021c 1B68     		ldr	r3, [r3]
 1673              		.loc 1 879 32
 1674 021e 03F48023 		and	r3, r3, #262144
 1675              		.loc 1 879 9
 1676 0222 002B     		cmp	r3, #0
 1677 0224 1CD0     		beq	.L65
 880:Drivers/STM32F4xx_HAL_Driver/Src/stm32f4xx_hal_dma.c ****       {
 881:Drivers/STM32F4xx_HAL_Driver/Src/stm32f4xx_hal_dma.c ****         /* Current memory buffer used is Memory 0 */
 882:Drivers/STM32F4xx_HAL_Driver/Src/stm32f4xx_hal_dma.c ****         if((hdma->Instance->CR & DMA_SxCR_CT) == RESET)
 1678              		.loc 1 882 17
 1679 0226 7B68     		ldr	r3, [r7, #4]
 1680 0228 1B68     		ldr	r3, [r3]
 1681              		.loc 1 882 27
ARM GAS  /var/folders/vq/qt4vp3kd5rxf7v2b6_fdtdt80000gn/T//cc8V800z.s 			page 46


 1682 022a 1B68     		ldr	r3, [r3]
 1683              		.loc 1 882 32
 1684 022c 03F40023 		and	r3, r3, #524288
 1685              		.loc 1 882 11
 1686 0230 002B     		cmp	r3, #0
 1687 0232 08D1     		bne	.L66
 883:Drivers/STM32F4xx_HAL_Driver/Src/stm32f4xx_hal_dma.c ****         {
 884:Drivers/STM32F4xx_HAL_Driver/Src/stm32f4xx_hal_dma.c ****           if(hdma->XferM1CpltCallback != NULL)
 1688              		.loc 1 884 18
 1689 0234 7B68     		ldr	r3, [r7, #4]
 1690 0236 5B6C     		ldr	r3, [r3, #68]
 1691              		.loc 1 884 13
 1692 0238 002B     		cmp	r3, #0
 1693 023a 30D0     		beq	.L59
 885:Drivers/STM32F4xx_HAL_Driver/Src/stm32f4xx_hal_dma.c ****           {
 886:Drivers/STM32F4xx_HAL_Driver/Src/stm32f4xx_hal_dma.c ****             /* Transfer complete Callback for memory1 */
 887:Drivers/STM32F4xx_HAL_Driver/Src/stm32f4xx_hal_dma.c ****             hdma->XferM1CpltCallback(hdma);
 1694              		.loc 1 887 17
 1695 023c 7B68     		ldr	r3, [r7, #4]
 1696 023e 5B6C     		ldr	r3, [r3, #68]
 1697              		.loc 1 887 13
 1698 0240 7868     		ldr	r0, [r7, #4]
 1699 0242 9847     		blx	r3
 1700              	.LVL4:
 1701 0244 2BE0     		b	.L59
 1702              	.L66:
 888:Drivers/STM32F4xx_HAL_Driver/Src/stm32f4xx_hal_dma.c ****           }
 889:Drivers/STM32F4xx_HAL_Driver/Src/stm32f4xx_hal_dma.c ****         }
 890:Drivers/STM32F4xx_HAL_Driver/Src/stm32f4xx_hal_dma.c ****         /* Current memory buffer used is Memory 1 */
 891:Drivers/STM32F4xx_HAL_Driver/Src/stm32f4xx_hal_dma.c ****         else
 892:Drivers/STM32F4xx_HAL_Driver/Src/stm32f4xx_hal_dma.c ****         {
 893:Drivers/STM32F4xx_HAL_Driver/Src/stm32f4xx_hal_dma.c ****           if(hdma->XferCpltCallback != NULL)
 1703              		.loc 1 893 18
 1704 0246 7B68     		ldr	r3, [r7, #4]
 1705 0248 DB6B     		ldr	r3, [r3, #60]
 1706              		.loc 1 893 13
 1707 024a 002B     		cmp	r3, #0
 1708 024c 27D0     		beq	.L59
 894:Drivers/STM32F4xx_HAL_Driver/Src/stm32f4xx_hal_dma.c ****           {
 895:Drivers/STM32F4xx_HAL_Driver/Src/stm32f4xx_hal_dma.c ****             /* Transfer complete Callback for memory0 */
 896:Drivers/STM32F4xx_HAL_Driver/Src/stm32f4xx_hal_dma.c ****             hdma->XferCpltCallback(hdma);
 1709              		.loc 1 896 17
 1710 024e 7B68     		ldr	r3, [r7, #4]
 1711 0250 DB6B     		ldr	r3, [r3, #60]
 1712              		.loc 1 896 13
 1713 0252 7868     		ldr	r0, [r7, #4]
 1714 0254 9847     		blx	r3
 1715              	.LVL5:
 1716 0256 22E0     		b	.L59
 1717              	.L75:
 1718              		.align	2
 1719              	.L74:
 1720 0258 00000000 		.word	SystemCoreClock
 1721 025c B5814E1B 		.word	458129845
 1722              	.L65:
 897:Drivers/STM32F4xx_HAL_Driver/Src/stm32f4xx_hal_dma.c ****           }
 898:Drivers/STM32F4xx_HAL_Driver/Src/stm32f4xx_hal_dma.c ****         }
ARM GAS  /var/folders/vq/qt4vp3kd5rxf7v2b6_fdtdt80000gn/T//cc8V800z.s 			page 47


 899:Drivers/STM32F4xx_HAL_Driver/Src/stm32f4xx_hal_dma.c ****       }
 900:Drivers/STM32F4xx_HAL_Driver/Src/stm32f4xx_hal_dma.c ****       /* Disable the transfer complete interrupt if the DMA mode is not CIRCULAR */
 901:Drivers/STM32F4xx_HAL_Driver/Src/stm32f4xx_hal_dma.c ****       else
 902:Drivers/STM32F4xx_HAL_Driver/Src/stm32f4xx_hal_dma.c ****       {
 903:Drivers/STM32F4xx_HAL_Driver/Src/stm32f4xx_hal_dma.c ****         if((hdma->Instance->CR & DMA_SxCR_CIRC) == RESET)
 1723              		.loc 1 903 17
 1724 0260 7B68     		ldr	r3, [r7, #4]
 1725 0262 1B68     		ldr	r3, [r3]
 1726              		.loc 1 903 27
 1727 0264 1B68     		ldr	r3, [r3]
 1728              		.loc 1 903 32
 1729 0266 03F48073 		and	r3, r3, #256
 1730              		.loc 1 903 11
 1731 026a 002B     		cmp	r3, #0
 1732 026c 0FD1     		bne	.L67
 904:Drivers/STM32F4xx_HAL_Driver/Src/stm32f4xx_hal_dma.c ****         {
 905:Drivers/STM32F4xx_HAL_Driver/Src/stm32f4xx_hal_dma.c ****           /* Disable the transfer complete interrupt */
 906:Drivers/STM32F4xx_HAL_Driver/Src/stm32f4xx_hal_dma.c ****           hdma->Instance->CR  &= ~(DMA_IT_TC);
 1733              		.loc 1 906 15
 1734 026e 7B68     		ldr	r3, [r7, #4]
 1735 0270 1B68     		ldr	r3, [r3]
 1736              		.loc 1 906 31
 1737 0272 1A68     		ldr	r2, [r3]
 1738              		.loc 1 906 15
 1739 0274 7B68     		ldr	r3, [r7, #4]
 1740 0276 1B68     		ldr	r3, [r3]
 1741              		.loc 1 906 31
 1742 0278 22F01002 		bic	r2, r2, #16
 1743 027c 1A60     		str	r2, [r3]
 907:Drivers/STM32F4xx_HAL_Driver/Src/stm32f4xx_hal_dma.c **** 
 908:Drivers/STM32F4xx_HAL_Driver/Src/stm32f4xx_hal_dma.c ****           /* Process Unlocked */
 909:Drivers/STM32F4xx_HAL_Driver/Src/stm32f4xx_hal_dma.c ****           __HAL_UNLOCK(hdma);
 1744              		.loc 1 909 11
 1745 027e 7B68     		ldr	r3, [r7, #4]
 1746 0280 0022     		movs	r2, #0
 1747 0282 83F83420 		strb	r2, [r3, #52]
 910:Drivers/STM32F4xx_HAL_Driver/Src/stm32f4xx_hal_dma.c **** 
 911:Drivers/STM32F4xx_HAL_Driver/Src/stm32f4xx_hal_dma.c ****           /* Change the DMA state */
 912:Drivers/STM32F4xx_HAL_Driver/Src/stm32f4xx_hal_dma.c ****           hdma->State = HAL_DMA_STATE_READY;
 1748              		.loc 1 912 23
 1749 0286 7B68     		ldr	r3, [r7, #4]
 1750 0288 0122     		movs	r2, #1
 1751 028a 83F83520 		strb	r2, [r3, #53]
 1752              	.L67:
 913:Drivers/STM32F4xx_HAL_Driver/Src/stm32f4xx_hal_dma.c ****         }
 914:Drivers/STM32F4xx_HAL_Driver/Src/stm32f4xx_hal_dma.c **** 
 915:Drivers/STM32F4xx_HAL_Driver/Src/stm32f4xx_hal_dma.c ****         if(hdma->XferCpltCallback != NULL)
 1753              		.loc 1 915 16
 1754 028e 7B68     		ldr	r3, [r7, #4]
 1755 0290 DB6B     		ldr	r3, [r3, #60]
 1756              		.loc 1 915 11
 1757 0292 002B     		cmp	r3, #0
 1758 0294 03D0     		beq	.L59
 916:Drivers/STM32F4xx_HAL_Driver/Src/stm32f4xx_hal_dma.c ****         {
 917:Drivers/STM32F4xx_HAL_Driver/Src/stm32f4xx_hal_dma.c ****           /* Transfer complete callback */
 918:Drivers/STM32F4xx_HAL_Driver/Src/stm32f4xx_hal_dma.c ****           hdma->XferCpltCallback(hdma);
 1759              		.loc 1 918 15
ARM GAS  /var/folders/vq/qt4vp3kd5rxf7v2b6_fdtdt80000gn/T//cc8V800z.s 			page 48


 1760 0296 7B68     		ldr	r3, [r7, #4]
 1761 0298 DB6B     		ldr	r3, [r3, #60]
 1762              		.loc 1 918 11
 1763 029a 7868     		ldr	r0, [r7, #4]
 1764 029c 9847     		blx	r3
 1765              	.LVL6:
 1766              	.L59:
 919:Drivers/STM32F4xx_HAL_Driver/Src/stm32f4xx_hal_dma.c ****         }
 920:Drivers/STM32F4xx_HAL_Driver/Src/stm32f4xx_hal_dma.c ****       }
 921:Drivers/STM32F4xx_HAL_Driver/Src/stm32f4xx_hal_dma.c ****     }
 922:Drivers/STM32F4xx_HAL_Driver/Src/stm32f4xx_hal_dma.c ****   }
 923:Drivers/STM32F4xx_HAL_Driver/Src/stm32f4xx_hal_dma.c ****   
 924:Drivers/STM32F4xx_HAL_Driver/Src/stm32f4xx_hal_dma.c ****   /* manage error case */
 925:Drivers/STM32F4xx_HAL_Driver/Src/stm32f4xx_hal_dma.c ****   if(hdma->ErrorCode != HAL_DMA_ERROR_NONE)
 1767              		.loc 1 925 10
 1768 029e 7B68     		ldr	r3, [r7, #4]
 1769 02a0 5B6D     		ldr	r3, [r3, #84]
 1770              		.loc 1 925 5
 1771 02a2 002B     		cmp	r3, #0
 1772 02a4 32D0     		beq	.L51
 926:Drivers/STM32F4xx_HAL_Driver/Src/stm32f4xx_hal_dma.c ****   {
 927:Drivers/STM32F4xx_HAL_Driver/Src/stm32f4xx_hal_dma.c ****     if((hdma->ErrorCode & HAL_DMA_ERROR_TE) != RESET)
 1773              		.loc 1 927 13
 1774 02a6 7B68     		ldr	r3, [r7, #4]
 1775 02a8 5B6D     		ldr	r3, [r3, #84]
 1776              		.loc 1 927 25
 1777 02aa 03F00103 		and	r3, r3, #1
 1778              		.loc 1 927 7
 1779 02ae 002B     		cmp	r3, #0
 1780 02b0 22D0     		beq	.L68
 928:Drivers/STM32F4xx_HAL_Driver/Src/stm32f4xx_hal_dma.c ****     {
 929:Drivers/STM32F4xx_HAL_Driver/Src/stm32f4xx_hal_dma.c ****       hdma->State = HAL_DMA_STATE_ABORT;
 1781              		.loc 1 929 19
 1782 02b2 7B68     		ldr	r3, [r7, #4]
 1783 02b4 0522     		movs	r2, #5
 1784 02b6 83F83520 		strb	r2, [r3, #53]
 930:Drivers/STM32F4xx_HAL_Driver/Src/stm32f4xx_hal_dma.c **** 
 931:Drivers/STM32F4xx_HAL_Driver/Src/stm32f4xx_hal_dma.c ****       /* Disable the stream */
 932:Drivers/STM32F4xx_HAL_Driver/Src/stm32f4xx_hal_dma.c ****       __HAL_DMA_DISABLE(hdma);
 1785              		.loc 1 932 7
 1786 02ba 7B68     		ldr	r3, [r7, #4]
 1787 02bc 1B68     		ldr	r3, [r3]
 1788 02be 1A68     		ldr	r2, [r3]
 1789 02c0 7B68     		ldr	r3, [r7, #4]
 1790 02c2 1B68     		ldr	r3, [r3]
 1791 02c4 22F00102 		bic	r2, r2, #1
 1792 02c8 1A60     		str	r2, [r3]
 1793              	.L71:
 933:Drivers/STM32F4xx_HAL_Driver/Src/stm32f4xx_hal_dma.c **** 
 934:Drivers/STM32F4xx_HAL_Driver/Src/stm32f4xx_hal_dma.c ****       do
 935:Drivers/STM32F4xx_HAL_Driver/Src/stm32f4xx_hal_dma.c ****       {
 936:Drivers/STM32F4xx_HAL_Driver/Src/stm32f4xx_hal_dma.c ****         if (++count > timeout)
 1794              		.loc 1 936 13
 1795 02ca BB68     		ldr	r3, [r7, #8]
 1796 02cc 0133     		adds	r3, r3, #1
 1797              		.loc 1 936 12
 1798 02ce BB60     		str	r3, [r7, #8]
ARM GAS  /var/folders/vq/qt4vp3kd5rxf7v2b6_fdtdt80000gn/T//cc8V800z.s 			page 49


 1799 02d0 7A69     		ldr	r2, [r7, #20]
 1800 02d2 9A42     		cmp	r2, r3
 1801 02d4 07D3     		bcc	.L73
 937:Drivers/STM32F4xx_HAL_Driver/Src/stm32f4xx_hal_dma.c ****         {
 938:Drivers/STM32F4xx_HAL_Driver/Src/stm32f4xx_hal_dma.c ****           break;
 939:Drivers/STM32F4xx_HAL_Driver/Src/stm32f4xx_hal_dma.c ****         }
 940:Drivers/STM32F4xx_HAL_Driver/Src/stm32f4xx_hal_dma.c ****       }
 941:Drivers/STM32F4xx_HAL_Driver/Src/stm32f4xx_hal_dma.c ****       while((hdma->Instance->CR & DMA_SxCR_EN) != RESET);
 1802              		.loc 1 941 18
 1803 02d6 7B68     		ldr	r3, [r7, #4]
 1804 02d8 1B68     		ldr	r3, [r3]
 1805              		.loc 1 941 28
 1806 02da 1B68     		ldr	r3, [r3]
 1807              		.loc 1 941 33
 1808 02dc 03F00103 		and	r3, r3, #1
 1809              		.loc 1 941 7
 1810 02e0 002B     		cmp	r3, #0
 1811 02e2 F2D1     		bne	.L71
 1812 02e4 00E0     		b	.L70
 1813              	.L73:
 938:Drivers/STM32F4xx_HAL_Driver/Src/stm32f4xx_hal_dma.c ****         }
 1814              		.loc 1 938 11
 1815 02e6 00BF     		nop
 1816              	.L70:
 942:Drivers/STM32F4xx_HAL_Driver/Src/stm32f4xx_hal_dma.c **** 
 943:Drivers/STM32F4xx_HAL_Driver/Src/stm32f4xx_hal_dma.c ****       /* Process Unlocked */
 944:Drivers/STM32F4xx_HAL_Driver/Src/stm32f4xx_hal_dma.c ****       __HAL_UNLOCK(hdma);
 1817              		.loc 1 944 7
 1818 02e8 7B68     		ldr	r3, [r7, #4]
 1819 02ea 0022     		movs	r2, #0
 1820 02ec 83F83420 		strb	r2, [r3, #52]
 945:Drivers/STM32F4xx_HAL_Driver/Src/stm32f4xx_hal_dma.c **** 
 946:Drivers/STM32F4xx_HAL_Driver/Src/stm32f4xx_hal_dma.c ****       /* Change the DMA state */
 947:Drivers/STM32F4xx_HAL_Driver/Src/stm32f4xx_hal_dma.c ****       hdma->State = HAL_DMA_STATE_READY;
 1821              		.loc 1 947 19
 1822 02f0 7B68     		ldr	r3, [r7, #4]
 1823 02f2 0122     		movs	r2, #1
 1824 02f4 83F83520 		strb	r2, [r3, #53]
 1825              	.L68:
 948:Drivers/STM32F4xx_HAL_Driver/Src/stm32f4xx_hal_dma.c ****     }
 949:Drivers/STM32F4xx_HAL_Driver/Src/stm32f4xx_hal_dma.c **** 
 950:Drivers/STM32F4xx_HAL_Driver/Src/stm32f4xx_hal_dma.c ****     if(hdma->XferErrorCallback != NULL)
 1826              		.loc 1 950 12
 1827 02f8 7B68     		ldr	r3, [r7, #4]
 1828 02fa DB6C     		ldr	r3, [r3, #76]
 1829              		.loc 1 950 7
 1830 02fc 002B     		cmp	r3, #0
 1831 02fe 05D0     		beq	.L51
 951:Drivers/STM32F4xx_HAL_Driver/Src/stm32f4xx_hal_dma.c ****     {
 952:Drivers/STM32F4xx_HAL_Driver/Src/stm32f4xx_hal_dma.c ****       /* Transfer error callback */
 953:Drivers/STM32F4xx_HAL_Driver/Src/stm32f4xx_hal_dma.c ****       hdma->XferErrorCallback(hdma);
 1832              		.loc 1 953 11
 1833 0300 7B68     		ldr	r3, [r7, #4]
 1834 0302 DB6C     		ldr	r3, [r3, #76]
 1835              		.loc 1 953 7
 1836 0304 7868     		ldr	r0, [r7, #4]
 1837 0306 9847     		blx	r3
ARM GAS  /var/folders/vq/qt4vp3kd5rxf7v2b6_fdtdt80000gn/T//cc8V800z.s 			page 50


 1838              	.LVL7:
 1839 0308 00E0     		b	.L51
 1840              	.L72:
 876:Drivers/STM32F4xx_HAL_Driver/Src/stm32f4xx_hal_dma.c ****       }
 1841              		.loc 1 876 9
 1842 030a 00BF     		nop
 1843              	.L51:
 954:Drivers/STM32F4xx_HAL_Driver/Src/stm32f4xx_hal_dma.c ****     }
 955:Drivers/STM32F4xx_HAL_Driver/Src/stm32f4xx_hal_dma.c ****   }
 956:Drivers/STM32F4xx_HAL_Driver/Src/stm32f4xx_hal_dma.c **** }
 1844              		.loc 1 956 1
 1845 030c 1837     		adds	r7, r7, #24
 1846              	.LCFI39:
 1847              		.cfi_def_cfa_offset 8
 1848 030e BD46     		mov	sp, r7
 1849              	.LCFI40:
 1850              		.cfi_def_cfa_register 13
 1851              		@ sp needed
 1852 0310 80BD     		pop	{r7, pc}
 1853              		.cfi_endproc
 1854              	.LFE137:
 1856 0312 00BF     		.section	.text.HAL_DMA_RegisterCallback,"ax",%progbits
 1857              		.align	1
 1858              		.global	HAL_DMA_RegisterCallback
 1859              		.syntax unified
 1860              		.thumb
 1861              		.thumb_func
 1862              		.fpu fpv4-sp-d16
 1864              	HAL_DMA_RegisterCallback:
 1865              	.LFB138:
 957:Drivers/STM32F4xx_HAL_Driver/Src/stm32f4xx_hal_dma.c **** 
 958:Drivers/STM32F4xx_HAL_Driver/Src/stm32f4xx_hal_dma.c **** /**
 959:Drivers/STM32F4xx_HAL_Driver/Src/stm32f4xx_hal_dma.c ****   * @brief  Register callbacks
 960:Drivers/STM32F4xx_HAL_Driver/Src/stm32f4xx_hal_dma.c ****   * @param  hdma                 pointer to a DMA_HandleTypeDef structure that contains
 961:Drivers/STM32F4xx_HAL_Driver/Src/stm32f4xx_hal_dma.c ****   *                               the configuration information for the specified DMA Stream.
 962:Drivers/STM32F4xx_HAL_Driver/Src/stm32f4xx_hal_dma.c ****   * @param  CallbackID           User Callback identifer
 963:Drivers/STM32F4xx_HAL_Driver/Src/stm32f4xx_hal_dma.c ****   *                               a DMA_HandleTypeDef structure as parameter.
 964:Drivers/STM32F4xx_HAL_Driver/Src/stm32f4xx_hal_dma.c ****   * @param  pCallback            pointer to private callbacsk function which has pointer to 
 965:Drivers/STM32F4xx_HAL_Driver/Src/stm32f4xx_hal_dma.c ****   *                               a DMA_HandleTypeDef structure as parameter.
 966:Drivers/STM32F4xx_HAL_Driver/Src/stm32f4xx_hal_dma.c ****   * @retval HAL status
 967:Drivers/STM32F4xx_HAL_Driver/Src/stm32f4xx_hal_dma.c ****   */                      
 968:Drivers/STM32F4xx_HAL_Driver/Src/stm32f4xx_hal_dma.c **** HAL_StatusTypeDef HAL_DMA_RegisterCallback(DMA_HandleTypeDef *hdma, HAL_DMA_CallbackIDTypeDef Callb
 969:Drivers/STM32F4xx_HAL_Driver/Src/stm32f4xx_hal_dma.c **** {
 1866              		.loc 1 969 1
 1867              		.cfi_startproc
 1868              		@ args = 0, pretend = 0, frame = 24
 1869              		@ frame_needed = 1, uses_anonymous_args = 0
 1870              		@ link register save eliminated.
 1871 0000 80B4     		push	{r7}
 1872              	.LCFI41:
 1873              		.cfi_def_cfa_offset 4
 1874              		.cfi_offset 7, -4
 1875 0002 87B0     		sub	sp, sp, #28
 1876              	.LCFI42:
 1877              		.cfi_def_cfa_offset 32
 1878 0004 00AF     		add	r7, sp, #0
 1879              	.LCFI43:
ARM GAS  /var/folders/vq/qt4vp3kd5rxf7v2b6_fdtdt80000gn/T//cc8V800z.s 			page 51


 1880              		.cfi_def_cfa_register 7
 1881 0006 F860     		str	r0, [r7, #12]
 1882 0008 0B46     		mov	r3, r1
 1883 000a 7A60     		str	r2, [r7, #4]
 1884 000c FB72     		strb	r3, [r7, #11]
 970:Drivers/STM32F4xx_HAL_Driver/Src/stm32f4xx_hal_dma.c **** 
 971:Drivers/STM32F4xx_HAL_Driver/Src/stm32f4xx_hal_dma.c ****   HAL_StatusTypeDef status = HAL_OK;
 1885              		.loc 1 971 21
 1886 000e 0023     		movs	r3, #0
 1887 0010 FB75     		strb	r3, [r7, #23]
 972:Drivers/STM32F4xx_HAL_Driver/Src/stm32f4xx_hal_dma.c **** 
 973:Drivers/STM32F4xx_HAL_Driver/Src/stm32f4xx_hal_dma.c ****   /* Process locked */
 974:Drivers/STM32F4xx_HAL_Driver/Src/stm32f4xx_hal_dma.c ****   __HAL_LOCK(hdma);
 1888              		.loc 1 974 3
 1889 0012 FB68     		ldr	r3, [r7, #12]
 1890 0014 93F83430 		ldrb	r3, [r3, #52]	@ zero_extendqisi2
 1891 0018 012B     		cmp	r3, #1
 1892 001a 01D1     		bne	.L77
 1893              		.loc 1 974 3 is_stmt 0 discriminator 1
 1894 001c 0223     		movs	r3, #2
 1895 001e 3CE0     		b	.L78
 1896              	.L77:
 1897              		.loc 1 974 3 discriminator 2
 1898 0020 FB68     		ldr	r3, [r7, #12]
 1899 0022 0122     		movs	r2, #1
 1900 0024 83F83420 		strb	r2, [r3, #52]
 975:Drivers/STM32F4xx_HAL_Driver/Src/stm32f4xx_hal_dma.c **** 
 976:Drivers/STM32F4xx_HAL_Driver/Src/stm32f4xx_hal_dma.c ****   if(HAL_DMA_STATE_READY == hdma->State)
 1901              		.loc 1 976 33 is_stmt 1 discriminator 2
 1902 0028 FB68     		ldr	r3, [r7, #12]
 1903 002a 93F83530 		ldrb	r3, [r3, #53]
 1904 002e DBB2     		uxtb	r3, r3
 1905              		.loc 1 976 5 discriminator 2
 1906 0030 012B     		cmp	r3, #1
 1907 0032 29D1     		bne	.L79
 977:Drivers/STM32F4xx_HAL_Driver/Src/stm32f4xx_hal_dma.c ****   {
 978:Drivers/STM32F4xx_HAL_Driver/Src/stm32f4xx_hal_dma.c ****     switch (CallbackID)
 1908              		.loc 1 978 5
 1909 0034 FB7A     		ldrb	r3, [r7, #11]	@ zero_extendqisi2
 1910 0036 052B     		cmp	r3, #5
 1911 0038 29D8     		bhi	.L90
 1912 003a 01A2     		adr	r2, .L82
 1913 003c 52F823F0 		ldr	pc, [r2, r3, lsl #2]
 1914              		.p2align 2
 1915              	.L82:
 1916 0040 59000000 		.word	.L87+1
 1917 0044 61000000 		.word	.L86+1
 1918 0048 69000000 		.word	.L85+1
 1919 004c 71000000 		.word	.L84+1
 1920 0050 79000000 		.word	.L83+1
 1921 0054 81000000 		.word	.L81+1
 1922              		.p2align 1
 1923              	.L87:
 979:Drivers/STM32F4xx_HAL_Driver/Src/stm32f4xx_hal_dma.c ****     {
 980:Drivers/STM32F4xx_HAL_Driver/Src/stm32f4xx_hal_dma.c ****     case  HAL_DMA_XFER_CPLT_CB_ID:
 981:Drivers/STM32F4xx_HAL_Driver/Src/stm32f4xx_hal_dma.c ****       hdma->XferCpltCallback = pCallback;
 1924              		.loc 1 981 30
ARM GAS  /var/folders/vq/qt4vp3kd5rxf7v2b6_fdtdt80000gn/T//cc8V800z.s 			page 52


 1925 0058 FB68     		ldr	r3, [r7, #12]
 1926 005a 7A68     		ldr	r2, [r7, #4]
 1927 005c DA63     		str	r2, [r3, #60]
 982:Drivers/STM32F4xx_HAL_Driver/Src/stm32f4xx_hal_dma.c ****       break;
 1928              		.loc 1 982 7
 1929 005e 17E0     		b	.L89
 1930              	.L86:
 983:Drivers/STM32F4xx_HAL_Driver/Src/stm32f4xx_hal_dma.c **** 
 984:Drivers/STM32F4xx_HAL_Driver/Src/stm32f4xx_hal_dma.c ****     case  HAL_DMA_XFER_HALFCPLT_CB_ID:
 985:Drivers/STM32F4xx_HAL_Driver/Src/stm32f4xx_hal_dma.c ****       hdma->XferHalfCpltCallback = pCallback;
 1931              		.loc 1 985 34
 1932 0060 FB68     		ldr	r3, [r7, #12]
 1933 0062 7A68     		ldr	r2, [r7, #4]
 1934 0064 1A64     		str	r2, [r3, #64]
 986:Drivers/STM32F4xx_HAL_Driver/Src/stm32f4xx_hal_dma.c ****       break;
 1935              		.loc 1 986 7
 1936 0066 13E0     		b	.L89
 1937              	.L85:
 987:Drivers/STM32F4xx_HAL_Driver/Src/stm32f4xx_hal_dma.c **** 
 988:Drivers/STM32F4xx_HAL_Driver/Src/stm32f4xx_hal_dma.c ****     case  HAL_DMA_XFER_M1CPLT_CB_ID:
 989:Drivers/STM32F4xx_HAL_Driver/Src/stm32f4xx_hal_dma.c ****       hdma->XferM1CpltCallback = pCallback;
 1938              		.loc 1 989 32
 1939 0068 FB68     		ldr	r3, [r7, #12]
 1940 006a 7A68     		ldr	r2, [r7, #4]
 1941 006c 5A64     		str	r2, [r3, #68]
 990:Drivers/STM32F4xx_HAL_Driver/Src/stm32f4xx_hal_dma.c ****       break;
 1942              		.loc 1 990 7
 1943 006e 0FE0     		b	.L89
 1944              	.L84:
 991:Drivers/STM32F4xx_HAL_Driver/Src/stm32f4xx_hal_dma.c **** 
 992:Drivers/STM32F4xx_HAL_Driver/Src/stm32f4xx_hal_dma.c ****     case  HAL_DMA_XFER_M1HALFCPLT_CB_ID:
 993:Drivers/STM32F4xx_HAL_Driver/Src/stm32f4xx_hal_dma.c ****       hdma->XferM1HalfCpltCallback = pCallback;
 1945              		.loc 1 993 36
 1946 0070 FB68     		ldr	r3, [r7, #12]
 1947 0072 7A68     		ldr	r2, [r7, #4]
 1948 0074 9A64     		str	r2, [r3, #72]
 994:Drivers/STM32F4xx_HAL_Driver/Src/stm32f4xx_hal_dma.c ****       break;
 1949              		.loc 1 994 7
 1950 0076 0BE0     		b	.L89
 1951              	.L83:
 995:Drivers/STM32F4xx_HAL_Driver/Src/stm32f4xx_hal_dma.c **** 
 996:Drivers/STM32F4xx_HAL_Driver/Src/stm32f4xx_hal_dma.c ****     case  HAL_DMA_XFER_ERROR_CB_ID:
 997:Drivers/STM32F4xx_HAL_Driver/Src/stm32f4xx_hal_dma.c ****       hdma->XferErrorCallback = pCallback;
 1952              		.loc 1 997 31
 1953 0078 FB68     		ldr	r3, [r7, #12]
 1954 007a 7A68     		ldr	r2, [r7, #4]
 1955 007c DA64     		str	r2, [r3, #76]
 998:Drivers/STM32F4xx_HAL_Driver/Src/stm32f4xx_hal_dma.c ****       break;
 1956              		.loc 1 998 7
 1957 007e 07E0     		b	.L89
 1958              	.L81:
 999:Drivers/STM32F4xx_HAL_Driver/Src/stm32f4xx_hal_dma.c **** 
1000:Drivers/STM32F4xx_HAL_Driver/Src/stm32f4xx_hal_dma.c ****     case  HAL_DMA_XFER_ABORT_CB_ID:
1001:Drivers/STM32F4xx_HAL_Driver/Src/stm32f4xx_hal_dma.c ****       hdma->XferAbortCallback = pCallback;
 1959              		.loc 1 1001 31
 1960 0080 FB68     		ldr	r3, [r7, #12]
 1961 0082 7A68     		ldr	r2, [r7, #4]
ARM GAS  /var/folders/vq/qt4vp3kd5rxf7v2b6_fdtdt80000gn/T//cc8V800z.s 			page 53


 1962 0084 1A65     		str	r2, [r3, #80]
1002:Drivers/STM32F4xx_HAL_Driver/Src/stm32f4xx_hal_dma.c ****       break;
 1963              		.loc 1 1002 7
 1964 0086 03E0     		b	.L89
 1965              	.L79:
1003:Drivers/STM32F4xx_HAL_Driver/Src/stm32f4xx_hal_dma.c **** 
1004:Drivers/STM32F4xx_HAL_Driver/Src/stm32f4xx_hal_dma.c ****     default:
1005:Drivers/STM32F4xx_HAL_Driver/Src/stm32f4xx_hal_dma.c ****       break;
1006:Drivers/STM32F4xx_HAL_Driver/Src/stm32f4xx_hal_dma.c ****     }
1007:Drivers/STM32F4xx_HAL_Driver/Src/stm32f4xx_hal_dma.c ****   }
1008:Drivers/STM32F4xx_HAL_Driver/Src/stm32f4xx_hal_dma.c ****   else
1009:Drivers/STM32F4xx_HAL_Driver/Src/stm32f4xx_hal_dma.c ****   {
1010:Drivers/STM32F4xx_HAL_Driver/Src/stm32f4xx_hal_dma.c ****     /* Return error status */
1011:Drivers/STM32F4xx_HAL_Driver/Src/stm32f4xx_hal_dma.c ****     status =  HAL_ERROR;
 1966              		.loc 1 1011 12
 1967 0088 0123     		movs	r3, #1
 1968 008a FB75     		strb	r3, [r7, #23]
 1969 008c 00E0     		b	.L89
 1970              	.L90:
1005:Drivers/STM32F4xx_HAL_Driver/Src/stm32f4xx_hal_dma.c ****     }
 1971              		.loc 1 1005 7
 1972 008e 00BF     		nop
 1973              	.L89:
1012:Drivers/STM32F4xx_HAL_Driver/Src/stm32f4xx_hal_dma.c ****   }
1013:Drivers/STM32F4xx_HAL_Driver/Src/stm32f4xx_hal_dma.c **** 
1014:Drivers/STM32F4xx_HAL_Driver/Src/stm32f4xx_hal_dma.c ****   /* Release Lock */
1015:Drivers/STM32F4xx_HAL_Driver/Src/stm32f4xx_hal_dma.c ****   __HAL_UNLOCK(hdma);
 1974              		.loc 1 1015 3
 1975 0090 FB68     		ldr	r3, [r7, #12]
 1976 0092 0022     		movs	r2, #0
 1977 0094 83F83420 		strb	r2, [r3, #52]
1016:Drivers/STM32F4xx_HAL_Driver/Src/stm32f4xx_hal_dma.c ****   
1017:Drivers/STM32F4xx_HAL_Driver/Src/stm32f4xx_hal_dma.c ****   return status;
 1978              		.loc 1 1017 10
 1979 0098 FB7D     		ldrb	r3, [r7, #23]	@ zero_extendqisi2
 1980              	.L78:
1018:Drivers/STM32F4xx_HAL_Driver/Src/stm32f4xx_hal_dma.c **** }
 1981              		.loc 1 1018 1
 1982 009a 1846     		mov	r0, r3
 1983 009c 1C37     		adds	r7, r7, #28
 1984              	.LCFI44:
 1985              		.cfi_def_cfa_offset 4
 1986 009e BD46     		mov	sp, r7
 1987              	.LCFI45:
 1988              		.cfi_def_cfa_register 13
 1989              		@ sp needed
 1990 00a0 5DF8047B 		ldr	r7, [sp], #4
 1991              	.LCFI46:
 1992              		.cfi_restore 7
 1993              		.cfi_def_cfa_offset 0
 1994 00a4 7047     		bx	lr
 1995              		.cfi_endproc
 1996              	.LFE138:
 1998 00a6 00BF     		.section	.text.HAL_DMA_UnRegisterCallback,"ax",%progbits
 1999              		.align	1
 2000              		.global	HAL_DMA_UnRegisterCallback
 2001              		.syntax unified
ARM GAS  /var/folders/vq/qt4vp3kd5rxf7v2b6_fdtdt80000gn/T//cc8V800z.s 			page 54


 2002              		.thumb
 2003              		.thumb_func
 2004              		.fpu fpv4-sp-d16
 2006              	HAL_DMA_UnRegisterCallback:
 2007              	.LFB139:
1019:Drivers/STM32F4xx_HAL_Driver/Src/stm32f4xx_hal_dma.c **** 
1020:Drivers/STM32F4xx_HAL_Driver/Src/stm32f4xx_hal_dma.c **** /**
1021:Drivers/STM32F4xx_HAL_Driver/Src/stm32f4xx_hal_dma.c ****   * @brief  UnRegister callbacks
1022:Drivers/STM32F4xx_HAL_Driver/Src/stm32f4xx_hal_dma.c ****   * @param  hdma                 pointer to a DMA_HandleTypeDef structure that contains
1023:Drivers/STM32F4xx_HAL_Driver/Src/stm32f4xx_hal_dma.c ****   *                               the configuration information for the specified DMA Stream.
1024:Drivers/STM32F4xx_HAL_Driver/Src/stm32f4xx_hal_dma.c ****   * @param  CallbackID           User Callback identifer
1025:Drivers/STM32F4xx_HAL_Driver/Src/stm32f4xx_hal_dma.c ****   *                               a HAL_DMA_CallbackIDTypeDef ENUM as parameter.
1026:Drivers/STM32F4xx_HAL_Driver/Src/stm32f4xx_hal_dma.c ****   * @retval HAL status
1027:Drivers/STM32F4xx_HAL_Driver/Src/stm32f4xx_hal_dma.c ****   */              
1028:Drivers/STM32F4xx_HAL_Driver/Src/stm32f4xx_hal_dma.c **** HAL_StatusTypeDef HAL_DMA_UnRegisterCallback(DMA_HandleTypeDef *hdma, HAL_DMA_CallbackIDTypeDef Cal
1029:Drivers/STM32F4xx_HAL_Driver/Src/stm32f4xx_hal_dma.c **** {
 2008              		.loc 1 1029 1
 2009              		.cfi_startproc
 2010              		@ args = 0, pretend = 0, frame = 16
 2011              		@ frame_needed = 1, uses_anonymous_args = 0
 2012              		@ link register save eliminated.
 2013 0000 80B4     		push	{r7}
 2014              	.LCFI47:
 2015              		.cfi_def_cfa_offset 4
 2016              		.cfi_offset 7, -4
 2017 0002 85B0     		sub	sp, sp, #20
 2018              	.LCFI48:
 2019              		.cfi_def_cfa_offset 24
 2020 0004 00AF     		add	r7, sp, #0
 2021              	.LCFI49:
 2022              		.cfi_def_cfa_register 7
 2023 0006 7860     		str	r0, [r7, #4]
 2024 0008 0B46     		mov	r3, r1
 2025 000a FB70     		strb	r3, [r7, #3]
1030:Drivers/STM32F4xx_HAL_Driver/Src/stm32f4xx_hal_dma.c ****   HAL_StatusTypeDef status = HAL_OK;
 2026              		.loc 1 1030 21
 2027 000c 0023     		movs	r3, #0
 2028 000e FB73     		strb	r3, [r7, #15]
1031:Drivers/STM32F4xx_HAL_Driver/Src/stm32f4xx_hal_dma.c ****   
1032:Drivers/STM32F4xx_HAL_Driver/Src/stm32f4xx_hal_dma.c ****   /* Process locked */
1033:Drivers/STM32F4xx_HAL_Driver/Src/stm32f4xx_hal_dma.c ****   __HAL_LOCK(hdma);
 2029              		.loc 1 1033 3
 2030 0010 7B68     		ldr	r3, [r7, #4]
 2031 0012 93F83430 		ldrb	r3, [r3, #52]	@ zero_extendqisi2
 2032 0016 012B     		cmp	r3, #1
 2033 0018 01D1     		bne	.L92
 2034              		.loc 1 1033 3 is_stmt 0 discriminator 1
 2035 001a 0223     		movs	r3, #2
 2036 001c 53E0     		b	.L93
 2037              	.L92:
 2038              		.loc 1 1033 3 discriminator 2
 2039 001e 7B68     		ldr	r3, [r7, #4]
 2040 0020 0122     		movs	r2, #1
 2041 0022 83F83420 		strb	r2, [r3, #52]
1034:Drivers/STM32F4xx_HAL_Driver/Src/stm32f4xx_hal_dma.c ****   
1035:Drivers/STM32F4xx_HAL_Driver/Src/stm32f4xx_hal_dma.c ****   if(HAL_DMA_STATE_READY == hdma->State)
 2042              		.loc 1 1035 33 is_stmt 1 discriminator 2
ARM GAS  /var/folders/vq/qt4vp3kd5rxf7v2b6_fdtdt80000gn/T//cc8V800z.s 			page 55


 2043 0026 7B68     		ldr	r3, [r7, #4]
 2044 0028 93F83530 		ldrb	r3, [r3, #53]
 2045 002c DBB2     		uxtb	r3, r3
 2046              		.loc 1 1035 5 discriminator 2
 2047 002e 012B     		cmp	r3, #1
 2048 0030 42D1     		bne	.L94
1036:Drivers/STM32F4xx_HAL_Driver/Src/stm32f4xx_hal_dma.c ****   {
1037:Drivers/STM32F4xx_HAL_Driver/Src/stm32f4xx_hal_dma.c ****     switch (CallbackID)
 2049              		.loc 1 1037 5
 2050 0032 FB78     		ldrb	r3, [r7, #3]	@ zero_extendqisi2
 2051 0034 062B     		cmp	r3, #6
 2052 0036 3CD8     		bhi	.L95
 2053 0038 01A2     		adr	r2, .L97
 2054 003a 52F823F0 		ldr	pc, [r2, r3, lsl #2]
 2055 003e 00BF     		.p2align 2
 2056              	.L97:
 2057 0040 5D000000 		.word	.L103+1
 2058 0044 65000000 		.word	.L102+1
 2059 0048 6D000000 		.word	.L101+1
 2060 004c 75000000 		.word	.L100+1
 2061 0050 7D000000 		.word	.L99+1
 2062 0054 85000000 		.word	.L98+1
 2063 0058 8D000000 		.word	.L96+1
 2064              		.p2align 1
 2065              	.L103:
1038:Drivers/STM32F4xx_HAL_Driver/Src/stm32f4xx_hal_dma.c ****     {
1039:Drivers/STM32F4xx_HAL_Driver/Src/stm32f4xx_hal_dma.c ****     case  HAL_DMA_XFER_CPLT_CB_ID:
1040:Drivers/STM32F4xx_HAL_Driver/Src/stm32f4xx_hal_dma.c ****       hdma->XferCpltCallback = NULL;
 2066              		.loc 1 1040 30
 2067 005c 7B68     		ldr	r3, [r7, #4]
 2068 005e 0022     		movs	r2, #0
 2069 0060 DA63     		str	r2, [r3, #60]
1041:Drivers/STM32F4xx_HAL_Driver/Src/stm32f4xx_hal_dma.c ****       break;
 2070              		.loc 1 1041 7
 2071 0062 2BE0     		b	.L105
 2072              	.L102:
1042:Drivers/STM32F4xx_HAL_Driver/Src/stm32f4xx_hal_dma.c ****       
1043:Drivers/STM32F4xx_HAL_Driver/Src/stm32f4xx_hal_dma.c ****     case  HAL_DMA_XFER_HALFCPLT_CB_ID:
1044:Drivers/STM32F4xx_HAL_Driver/Src/stm32f4xx_hal_dma.c ****       hdma->XferHalfCpltCallback = NULL;
 2073              		.loc 1 1044 34
 2074 0064 7B68     		ldr	r3, [r7, #4]
 2075 0066 0022     		movs	r2, #0
 2076 0068 1A64     		str	r2, [r3, #64]
1045:Drivers/STM32F4xx_HAL_Driver/Src/stm32f4xx_hal_dma.c ****       break;
 2077              		.loc 1 1045 7
 2078 006a 27E0     		b	.L105
 2079              	.L101:
1046:Drivers/STM32F4xx_HAL_Driver/Src/stm32f4xx_hal_dma.c ****       
1047:Drivers/STM32F4xx_HAL_Driver/Src/stm32f4xx_hal_dma.c ****     case  HAL_DMA_XFER_M1CPLT_CB_ID:
1048:Drivers/STM32F4xx_HAL_Driver/Src/stm32f4xx_hal_dma.c ****       hdma->XferM1CpltCallback = NULL;
 2080              		.loc 1 1048 32
 2081 006c 7B68     		ldr	r3, [r7, #4]
 2082 006e 0022     		movs	r2, #0
 2083 0070 5A64     		str	r2, [r3, #68]
1049:Drivers/STM32F4xx_HAL_Driver/Src/stm32f4xx_hal_dma.c ****       break;
 2084              		.loc 1 1049 7
 2085 0072 23E0     		b	.L105
ARM GAS  /var/folders/vq/qt4vp3kd5rxf7v2b6_fdtdt80000gn/T//cc8V800z.s 			page 56


 2086              	.L100:
1050:Drivers/STM32F4xx_HAL_Driver/Src/stm32f4xx_hal_dma.c ****       
1051:Drivers/STM32F4xx_HAL_Driver/Src/stm32f4xx_hal_dma.c ****     case  HAL_DMA_XFER_M1HALFCPLT_CB_ID:
1052:Drivers/STM32F4xx_HAL_Driver/Src/stm32f4xx_hal_dma.c ****       hdma->XferM1HalfCpltCallback = NULL;
 2087              		.loc 1 1052 36
 2088 0074 7B68     		ldr	r3, [r7, #4]
 2089 0076 0022     		movs	r2, #0
 2090 0078 9A64     		str	r2, [r3, #72]
1053:Drivers/STM32F4xx_HAL_Driver/Src/stm32f4xx_hal_dma.c ****       break;
 2091              		.loc 1 1053 7
 2092 007a 1FE0     		b	.L105
 2093              	.L99:
1054:Drivers/STM32F4xx_HAL_Driver/Src/stm32f4xx_hal_dma.c ****       
1055:Drivers/STM32F4xx_HAL_Driver/Src/stm32f4xx_hal_dma.c ****     case  HAL_DMA_XFER_ERROR_CB_ID:
1056:Drivers/STM32F4xx_HAL_Driver/Src/stm32f4xx_hal_dma.c ****       hdma->XferErrorCallback = NULL;
 2094              		.loc 1 1056 31
 2095 007c 7B68     		ldr	r3, [r7, #4]
 2096 007e 0022     		movs	r2, #0
 2097 0080 DA64     		str	r2, [r3, #76]
1057:Drivers/STM32F4xx_HAL_Driver/Src/stm32f4xx_hal_dma.c ****       break;
 2098              		.loc 1 1057 7
 2099 0082 1BE0     		b	.L105
 2100              	.L98:
1058:Drivers/STM32F4xx_HAL_Driver/Src/stm32f4xx_hal_dma.c ****       
1059:Drivers/STM32F4xx_HAL_Driver/Src/stm32f4xx_hal_dma.c ****     case  HAL_DMA_XFER_ABORT_CB_ID:
1060:Drivers/STM32F4xx_HAL_Driver/Src/stm32f4xx_hal_dma.c ****       hdma->XferAbortCallback = NULL;
 2101              		.loc 1 1060 31
 2102 0084 7B68     		ldr	r3, [r7, #4]
 2103 0086 0022     		movs	r2, #0
 2104 0088 1A65     		str	r2, [r3, #80]
1061:Drivers/STM32F4xx_HAL_Driver/Src/stm32f4xx_hal_dma.c ****       break; 
 2105              		.loc 1 1061 7
 2106 008a 17E0     		b	.L105
 2107              	.L96:
1062:Drivers/STM32F4xx_HAL_Driver/Src/stm32f4xx_hal_dma.c ****       
1063:Drivers/STM32F4xx_HAL_Driver/Src/stm32f4xx_hal_dma.c ****     case   HAL_DMA_XFER_ALL_CB_ID:
1064:Drivers/STM32F4xx_HAL_Driver/Src/stm32f4xx_hal_dma.c ****       hdma->XferCpltCallback = NULL;
 2108              		.loc 1 1064 30
 2109 008c 7B68     		ldr	r3, [r7, #4]
 2110 008e 0022     		movs	r2, #0
 2111 0090 DA63     		str	r2, [r3, #60]
1065:Drivers/STM32F4xx_HAL_Driver/Src/stm32f4xx_hal_dma.c ****       hdma->XferHalfCpltCallback = NULL;
 2112              		.loc 1 1065 34
 2113 0092 7B68     		ldr	r3, [r7, #4]
 2114 0094 0022     		movs	r2, #0
 2115 0096 1A64     		str	r2, [r3, #64]
1066:Drivers/STM32F4xx_HAL_Driver/Src/stm32f4xx_hal_dma.c ****       hdma->XferM1CpltCallback = NULL;
 2116              		.loc 1 1066 32
 2117 0098 7B68     		ldr	r3, [r7, #4]
 2118 009a 0022     		movs	r2, #0
 2119 009c 5A64     		str	r2, [r3, #68]
1067:Drivers/STM32F4xx_HAL_Driver/Src/stm32f4xx_hal_dma.c ****       hdma->XferM1HalfCpltCallback = NULL;
 2120              		.loc 1 1067 36
 2121 009e 7B68     		ldr	r3, [r7, #4]
 2122 00a0 0022     		movs	r2, #0
 2123 00a2 9A64     		str	r2, [r3, #72]
1068:Drivers/STM32F4xx_HAL_Driver/Src/stm32f4xx_hal_dma.c ****       hdma->XferErrorCallback = NULL;
ARM GAS  /var/folders/vq/qt4vp3kd5rxf7v2b6_fdtdt80000gn/T//cc8V800z.s 			page 57


 2124              		.loc 1 1068 31
 2125 00a4 7B68     		ldr	r3, [r7, #4]
 2126 00a6 0022     		movs	r2, #0
 2127 00a8 DA64     		str	r2, [r3, #76]
1069:Drivers/STM32F4xx_HAL_Driver/Src/stm32f4xx_hal_dma.c ****       hdma->XferAbortCallback = NULL;
 2128              		.loc 1 1069 31
 2129 00aa 7B68     		ldr	r3, [r7, #4]
 2130 00ac 0022     		movs	r2, #0
 2131 00ae 1A65     		str	r2, [r3, #80]
1070:Drivers/STM32F4xx_HAL_Driver/Src/stm32f4xx_hal_dma.c ****       break; 
 2132              		.loc 1 1070 7
 2133 00b0 04E0     		b	.L105
 2134              	.L95:
1071:Drivers/STM32F4xx_HAL_Driver/Src/stm32f4xx_hal_dma.c ****       
1072:Drivers/STM32F4xx_HAL_Driver/Src/stm32f4xx_hal_dma.c ****     default:
1073:Drivers/STM32F4xx_HAL_Driver/Src/stm32f4xx_hal_dma.c ****       status = HAL_ERROR;
 2135              		.loc 1 1073 14
 2136 00b2 0123     		movs	r3, #1
 2137 00b4 FB73     		strb	r3, [r7, #15]
1074:Drivers/STM32F4xx_HAL_Driver/Src/stm32f4xx_hal_dma.c ****       break;
 2138              		.loc 1 1074 7
 2139 00b6 01E0     		b	.L105
 2140              	.L94:
1075:Drivers/STM32F4xx_HAL_Driver/Src/stm32f4xx_hal_dma.c ****     }
1076:Drivers/STM32F4xx_HAL_Driver/Src/stm32f4xx_hal_dma.c ****   }
1077:Drivers/STM32F4xx_HAL_Driver/Src/stm32f4xx_hal_dma.c ****   else
1078:Drivers/STM32F4xx_HAL_Driver/Src/stm32f4xx_hal_dma.c ****   {
1079:Drivers/STM32F4xx_HAL_Driver/Src/stm32f4xx_hal_dma.c ****     status = HAL_ERROR;
 2141              		.loc 1 1079 12
 2142 00b8 0123     		movs	r3, #1
 2143 00ba FB73     		strb	r3, [r7, #15]
 2144              	.L105:
1080:Drivers/STM32F4xx_HAL_Driver/Src/stm32f4xx_hal_dma.c ****   }
1081:Drivers/STM32F4xx_HAL_Driver/Src/stm32f4xx_hal_dma.c ****   
1082:Drivers/STM32F4xx_HAL_Driver/Src/stm32f4xx_hal_dma.c ****   /* Release Lock */
1083:Drivers/STM32F4xx_HAL_Driver/Src/stm32f4xx_hal_dma.c ****   __HAL_UNLOCK(hdma);
 2145              		.loc 1 1083 3
 2146 00bc 7B68     		ldr	r3, [r7, #4]
 2147 00be 0022     		movs	r2, #0
 2148 00c0 83F83420 		strb	r2, [r3, #52]
1084:Drivers/STM32F4xx_HAL_Driver/Src/stm32f4xx_hal_dma.c ****   
1085:Drivers/STM32F4xx_HAL_Driver/Src/stm32f4xx_hal_dma.c ****   return status;
 2149              		.loc 1 1085 10
 2150 00c4 FB7B     		ldrb	r3, [r7, #15]	@ zero_extendqisi2
 2151              	.L93:
1086:Drivers/STM32F4xx_HAL_Driver/Src/stm32f4xx_hal_dma.c **** }
 2152              		.loc 1 1086 1
 2153 00c6 1846     		mov	r0, r3
 2154 00c8 1437     		adds	r7, r7, #20
 2155              	.LCFI50:
 2156              		.cfi_def_cfa_offset 4
 2157 00ca BD46     		mov	sp, r7
 2158              	.LCFI51:
 2159              		.cfi_def_cfa_register 13
 2160              		@ sp needed
 2161 00cc 5DF8047B 		ldr	r7, [sp], #4
 2162              	.LCFI52:
ARM GAS  /var/folders/vq/qt4vp3kd5rxf7v2b6_fdtdt80000gn/T//cc8V800z.s 			page 58


 2163              		.cfi_restore 7
 2164              		.cfi_def_cfa_offset 0
 2165 00d0 7047     		bx	lr
 2166              		.cfi_endproc
 2167              	.LFE139:
 2169 00d2 00BF     		.section	.text.HAL_DMA_GetState,"ax",%progbits
 2170              		.align	1
 2171              		.global	HAL_DMA_GetState
 2172              		.syntax unified
 2173              		.thumb
 2174              		.thumb_func
 2175              		.fpu fpv4-sp-d16
 2177              	HAL_DMA_GetState:
 2178              	.LFB140:
1087:Drivers/STM32F4xx_HAL_Driver/Src/stm32f4xx_hal_dma.c **** 
1088:Drivers/STM32F4xx_HAL_Driver/Src/stm32f4xx_hal_dma.c **** /**
1089:Drivers/STM32F4xx_HAL_Driver/Src/stm32f4xx_hal_dma.c ****   * @}
1090:Drivers/STM32F4xx_HAL_Driver/Src/stm32f4xx_hal_dma.c ****   */
1091:Drivers/STM32F4xx_HAL_Driver/Src/stm32f4xx_hal_dma.c **** 
1092:Drivers/STM32F4xx_HAL_Driver/Src/stm32f4xx_hal_dma.c **** /** @addtogroup DMA_Exported_Functions_Group3
1093:Drivers/STM32F4xx_HAL_Driver/Src/stm32f4xx_hal_dma.c ****   *
1094:Drivers/STM32F4xx_HAL_Driver/Src/stm32f4xx_hal_dma.c **** @verbatim
1095:Drivers/STM32F4xx_HAL_Driver/Src/stm32f4xx_hal_dma.c ****  ===============================================================================
1096:Drivers/STM32F4xx_HAL_Driver/Src/stm32f4xx_hal_dma.c ****                     ##### State and Errors functions #####
1097:Drivers/STM32F4xx_HAL_Driver/Src/stm32f4xx_hal_dma.c ****  ===============================================================================
1098:Drivers/STM32F4xx_HAL_Driver/Src/stm32f4xx_hal_dma.c ****     [..]
1099:Drivers/STM32F4xx_HAL_Driver/Src/stm32f4xx_hal_dma.c ****     This subsection provides functions allowing to
1100:Drivers/STM32F4xx_HAL_Driver/Src/stm32f4xx_hal_dma.c ****       (+) Check the DMA state
1101:Drivers/STM32F4xx_HAL_Driver/Src/stm32f4xx_hal_dma.c ****       (+) Get error code
1102:Drivers/STM32F4xx_HAL_Driver/Src/stm32f4xx_hal_dma.c **** 
1103:Drivers/STM32F4xx_HAL_Driver/Src/stm32f4xx_hal_dma.c **** @endverbatim
1104:Drivers/STM32F4xx_HAL_Driver/Src/stm32f4xx_hal_dma.c ****   * @{
1105:Drivers/STM32F4xx_HAL_Driver/Src/stm32f4xx_hal_dma.c ****   */
1106:Drivers/STM32F4xx_HAL_Driver/Src/stm32f4xx_hal_dma.c **** 
1107:Drivers/STM32F4xx_HAL_Driver/Src/stm32f4xx_hal_dma.c **** /**
1108:Drivers/STM32F4xx_HAL_Driver/Src/stm32f4xx_hal_dma.c ****   * @brief  Returns the DMA state.
1109:Drivers/STM32F4xx_HAL_Driver/Src/stm32f4xx_hal_dma.c ****   * @param  hdma pointer to a DMA_HandleTypeDef structure that contains
1110:Drivers/STM32F4xx_HAL_Driver/Src/stm32f4xx_hal_dma.c ****   *               the configuration information for the specified DMA Stream.
1111:Drivers/STM32F4xx_HAL_Driver/Src/stm32f4xx_hal_dma.c ****   * @retval HAL state
1112:Drivers/STM32F4xx_HAL_Driver/Src/stm32f4xx_hal_dma.c ****   */
1113:Drivers/STM32F4xx_HAL_Driver/Src/stm32f4xx_hal_dma.c **** HAL_DMA_StateTypeDef HAL_DMA_GetState(DMA_HandleTypeDef *hdma)
1114:Drivers/STM32F4xx_HAL_Driver/Src/stm32f4xx_hal_dma.c **** {
 2179              		.loc 1 1114 1
 2180              		.cfi_startproc
 2181              		@ args = 0, pretend = 0, frame = 8
 2182              		@ frame_needed = 1, uses_anonymous_args = 0
 2183              		@ link register save eliminated.
 2184 0000 80B4     		push	{r7}
 2185              	.LCFI53:
 2186              		.cfi_def_cfa_offset 4
 2187              		.cfi_offset 7, -4
 2188 0002 83B0     		sub	sp, sp, #12
 2189              	.LCFI54:
 2190              		.cfi_def_cfa_offset 16
 2191 0004 00AF     		add	r7, sp, #0
 2192              	.LCFI55:
 2193              		.cfi_def_cfa_register 7
ARM GAS  /var/folders/vq/qt4vp3kd5rxf7v2b6_fdtdt80000gn/T//cc8V800z.s 			page 59


 2194 0006 7860     		str	r0, [r7, #4]
1115:Drivers/STM32F4xx_HAL_Driver/Src/stm32f4xx_hal_dma.c ****   return hdma->State;
 2195              		.loc 1 1115 14
 2196 0008 7B68     		ldr	r3, [r7, #4]
 2197 000a 93F83530 		ldrb	r3, [r3, #53]
 2198 000e DBB2     		uxtb	r3, r3
1116:Drivers/STM32F4xx_HAL_Driver/Src/stm32f4xx_hal_dma.c **** }
 2199              		.loc 1 1116 1
 2200 0010 1846     		mov	r0, r3
 2201 0012 0C37     		adds	r7, r7, #12
 2202              	.LCFI56:
 2203              		.cfi_def_cfa_offset 4
 2204 0014 BD46     		mov	sp, r7
 2205              	.LCFI57:
 2206              		.cfi_def_cfa_register 13
 2207              		@ sp needed
 2208 0016 5DF8047B 		ldr	r7, [sp], #4
 2209              	.LCFI58:
 2210              		.cfi_restore 7
 2211              		.cfi_def_cfa_offset 0
 2212 001a 7047     		bx	lr
 2213              		.cfi_endproc
 2214              	.LFE140:
 2216              		.section	.text.HAL_DMA_GetError,"ax",%progbits
 2217              		.align	1
 2218              		.global	HAL_DMA_GetError
 2219              		.syntax unified
 2220              		.thumb
 2221              		.thumb_func
 2222              		.fpu fpv4-sp-d16
 2224              	HAL_DMA_GetError:
 2225              	.LFB141:
1117:Drivers/STM32F4xx_HAL_Driver/Src/stm32f4xx_hal_dma.c **** 
1118:Drivers/STM32F4xx_HAL_Driver/Src/stm32f4xx_hal_dma.c **** /**
1119:Drivers/STM32F4xx_HAL_Driver/Src/stm32f4xx_hal_dma.c ****   * @brief  Return the DMA error code
1120:Drivers/STM32F4xx_HAL_Driver/Src/stm32f4xx_hal_dma.c ****   * @param  hdma  pointer to a DMA_HandleTypeDef structure that contains
1121:Drivers/STM32F4xx_HAL_Driver/Src/stm32f4xx_hal_dma.c ****   *              the configuration information for the specified DMA Stream.
1122:Drivers/STM32F4xx_HAL_Driver/Src/stm32f4xx_hal_dma.c ****   * @retval DMA Error Code
1123:Drivers/STM32F4xx_HAL_Driver/Src/stm32f4xx_hal_dma.c ****   */
1124:Drivers/STM32F4xx_HAL_Driver/Src/stm32f4xx_hal_dma.c **** uint32_t HAL_DMA_GetError(DMA_HandleTypeDef *hdma)
1125:Drivers/STM32F4xx_HAL_Driver/Src/stm32f4xx_hal_dma.c **** {
 2226              		.loc 1 1125 1
 2227              		.cfi_startproc
 2228              		@ args = 0, pretend = 0, frame = 8
 2229              		@ frame_needed = 1, uses_anonymous_args = 0
 2230              		@ link register save eliminated.
 2231 0000 80B4     		push	{r7}
 2232              	.LCFI59:
 2233              		.cfi_def_cfa_offset 4
 2234              		.cfi_offset 7, -4
 2235 0002 83B0     		sub	sp, sp, #12
 2236              	.LCFI60:
 2237              		.cfi_def_cfa_offset 16
 2238 0004 00AF     		add	r7, sp, #0
 2239              	.LCFI61:
 2240              		.cfi_def_cfa_register 7
 2241 0006 7860     		str	r0, [r7, #4]
ARM GAS  /var/folders/vq/qt4vp3kd5rxf7v2b6_fdtdt80000gn/T//cc8V800z.s 			page 60


1126:Drivers/STM32F4xx_HAL_Driver/Src/stm32f4xx_hal_dma.c ****   return hdma->ErrorCode;
 2242              		.loc 1 1126 14
 2243 0008 7B68     		ldr	r3, [r7, #4]
 2244 000a 5B6D     		ldr	r3, [r3, #84]
1127:Drivers/STM32F4xx_HAL_Driver/Src/stm32f4xx_hal_dma.c **** }
 2245              		.loc 1 1127 1
 2246 000c 1846     		mov	r0, r3
 2247 000e 0C37     		adds	r7, r7, #12
 2248              	.LCFI62:
 2249              		.cfi_def_cfa_offset 4
 2250 0010 BD46     		mov	sp, r7
 2251              	.LCFI63:
 2252              		.cfi_def_cfa_register 13
 2253              		@ sp needed
 2254 0012 5DF8047B 		ldr	r7, [sp], #4
 2255              	.LCFI64:
 2256              		.cfi_restore 7
 2257              		.cfi_def_cfa_offset 0
 2258 0016 7047     		bx	lr
 2259              		.cfi_endproc
 2260              	.LFE141:
 2262              		.section	.text.DMA_SetConfig,"ax",%progbits
 2263              		.align	1
 2264              		.syntax unified
 2265              		.thumb
 2266              		.thumb_func
 2267              		.fpu fpv4-sp-d16
 2269              	DMA_SetConfig:
 2270              	.LFB142:
1128:Drivers/STM32F4xx_HAL_Driver/Src/stm32f4xx_hal_dma.c **** 
1129:Drivers/STM32F4xx_HAL_Driver/Src/stm32f4xx_hal_dma.c **** /**
1130:Drivers/STM32F4xx_HAL_Driver/Src/stm32f4xx_hal_dma.c ****   * @}
1131:Drivers/STM32F4xx_HAL_Driver/Src/stm32f4xx_hal_dma.c ****   */
1132:Drivers/STM32F4xx_HAL_Driver/Src/stm32f4xx_hal_dma.c **** 
1133:Drivers/STM32F4xx_HAL_Driver/Src/stm32f4xx_hal_dma.c **** /**
1134:Drivers/STM32F4xx_HAL_Driver/Src/stm32f4xx_hal_dma.c ****   * @}
1135:Drivers/STM32F4xx_HAL_Driver/Src/stm32f4xx_hal_dma.c ****   */
1136:Drivers/STM32F4xx_HAL_Driver/Src/stm32f4xx_hal_dma.c **** 
1137:Drivers/STM32F4xx_HAL_Driver/Src/stm32f4xx_hal_dma.c **** /** @addtogroup DMA_Private_Functions
1138:Drivers/STM32F4xx_HAL_Driver/Src/stm32f4xx_hal_dma.c ****   * @{
1139:Drivers/STM32F4xx_HAL_Driver/Src/stm32f4xx_hal_dma.c ****   */
1140:Drivers/STM32F4xx_HAL_Driver/Src/stm32f4xx_hal_dma.c **** 
1141:Drivers/STM32F4xx_HAL_Driver/Src/stm32f4xx_hal_dma.c **** /**
1142:Drivers/STM32F4xx_HAL_Driver/Src/stm32f4xx_hal_dma.c ****   * @brief  Sets the DMA Transfer parameter.
1143:Drivers/STM32F4xx_HAL_Driver/Src/stm32f4xx_hal_dma.c ****   * @param  hdma       pointer to a DMA_HandleTypeDef structure that contains
1144:Drivers/STM32F4xx_HAL_Driver/Src/stm32f4xx_hal_dma.c ****   *                     the configuration information for the specified DMA Stream.
1145:Drivers/STM32F4xx_HAL_Driver/Src/stm32f4xx_hal_dma.c ****   * @param  SrcAddress The source memory Buffer address
1146:Drivers/STM32F4xx_HAL_Driver/Src/stm32f4xx_hal_dma.c ****   * @param  DstAddress The destination memory Buffer address
1147:Drivers/STM32F4xx_HAL_Driver/Src/stm32f4xx_hal_dma.c ****   * @param  DataLength The length of data to be transferred from source to destination
1148:Drivers/STM32F4xx_HAL_Driver/Src/stm32f4xx_hal_dma.c ****   * @retval HAL status
1149:Drivers/STM32F4xx_HAL_Driver/Src/stm32f4xx_hal_dma.c ****   */
1150:Drivers/STM32F4xx_HAL_Driver/Src/stm32f4xx_hal_dma.c **** static void DMA_SetConfig(DMA_HandleTypeDef *hdma, uint32_t SrcAddress, uint32_t DstAddress, uint32
1151:Drivers/STM32F4xx_HAL_Driver/Src/stm32f4xx_hal_dma.c **** {
 2271              		.loc 1 1151 1
 2272              		.cfi_startproc
 2273              		@ args = 0, pretend = 0, frame = 16
 2274              		@ frame_needed = 1, uses_anonymous_args = 0
ARM GAS  /var/folders/vq/qt4vp3kd5rxf7v2b6_fdtdt80000gn/T//cc8V800z.s 			page 61


 2275              		@ link register save eliminated.
 2276 0000 80B4     		push	{r7}
 2277              	.LCFI65:
 2278              		.cfi_def_cfa_offset 4
 2279              		.cfi_offset 7, -4
 2280 0002 85B0     		sub	sp, sp, #20
 2281              	.LCFI66:
 2282              		.cfi_def_cfa_offset 24
 2283 0004 00AF     		add	r7, sp, #0
 2284              	.LCFI67:
 2285              		.cfi_def_cfa_register 7
 2286 0006 F860     		str	r0, [r7, #12]
 2287 0008 B960     		str	r1, [r7, #8]
 2288 000a 7A60     		str	r2, [r7, #4]
 2289 000c 3B60     		str	r3, [r7]
1152:Drivers/STM32F4xx_HAL_Driver/Src/stm32f4xx_hal_dma.c ****   /* Clear DBM bit */
1153:Drivers/STM32F4xx_HAL_Driver/Src/stm32f4xx_hal_dma.c ****   hdma->Instance->CR &= (uint32_t)(~DMA_SxCR_DBM);
 2290              		.loc 1 1153 7
 2291 000e FB68     		ldr	r3, [r7, #12]
 2292 0010 1B68     		ldr	r3, [r3]
 2293              		.loc 1 1153 22
 2294 0012 1A68     		ldr	r2, [r3]
 2295              		.loc 1 1153 7
 2296 0014 FB68     		ldr	r3, [r7, #12]
 2297 0016 1B68     		ldr	r3, [r3]
 2298              		.loc 1 1153 22
 2299 0018 22F48022 		bic	r2, r2, #262144
 2300 001c 1A60     		str	r2, [r3]
1154:Drivers/STM32F4xx_HAL_Driver/Src/stm32f4xx_hal_dma.c **** 
1155:Drivers/STM32F4xx_HAL_Driver/Src/stm32f4xx_hal_dma.c ****   /* Configure DMA Stream data length */
1156:Drivers/STM32F4xx_HAL_Driver/Src/stm32f4xx_hal_dma.c ****   hdma->Instance->NDTR = DataLength;
 2301              		.loc 1 1156 7
 2302 001e FB68     		ldr	r3, [r7, #12]
 2303 0020 1B68     		ldr	r3, [r3]
 2304              		.loc 1 1156 24
 2305 0022 3A68     		ldr	r2, [r7]
 2306 0024 5A60     		str	r2, [r3, #4]
1157:Drivers/STM32F4xx_HAL_Driver/Src/stm32f4xx_hal_dma.c **** 
1158:Drivers/STM32F4xx_HAL_Driver/Src/stm32f4xx_hal_dma.c ****   /* Memory to Peripheral */
1159:Drivers/STM32F4xx_HAL_Driver/Src/stm32f4xx_hal_dma.c ****   if((hdma->Init.Direction) == DMA_MEMORY_TO_PERIPH)
 2307              		.loc 1 1159 17
 2308 0026 FB68     		ldr	r3, [r7, #12]
 2309 0028 9B68     		ldr	r3, [r3, #8]
 2310              		.loc 1 1159 5
 2311 002a 402B     		cmp	r3, #64
 2312 002c 08D1     		bne	.L111
1160:Drivers/STM32F4xx_HAL_Driver/Src/stm32f4xx_hal_dma.c ****   {
1161:Drivers/STM32F4xx_HAL_Driver/Src/stm32f4xx_hal_dma.c ****     /* Configure DMA Stream destination address */
1162:Drivers/STM32F4xx_HAL_Driver/Src/stm32f4xx_hal_dma.c ****     hdma->Instance->PAR = DstAddress;
 2313              		.loc 1 1162 9
 2314 002e FB68     		ldr	r3, [r7, #12]
 2315 0030 1B68     		ldr	r3, [r3]
 2316              		.loc 1 1162 25
 2317 0032 7A68     		ldr	r2, [r7, #4]
 2318 0034 9A60     		str	r2, [r3, #8]
1163:Drivers/STM32F4xx_HAL_Driver/Src/stm32f4xx_hal_dma.c **** 
1164:Drivers/STM32F4xx_HAL_Driver/Src/stm32f4xx_hal_dma.c ****     /* Configure DMA Stream source address */
ARM GAS  /var/folders/vq/qt4vp3kd5rxf7v2b6_fdtdt80000gn/T//cc8V800z.s 			page 62


1165:Drivers/STM32F4xx_HAL_Driver/Src/stm32f4xx_hal_dma.c ****     hdma->Instance->M0AR = SrcAddress;
 2319              		.loc 1 1165 9
 2320 0036 FB68     		ldr	r3, [r7, #12]
 2321 0038 1B68     		ldr	r3, [r3]
 2322              		.loc 1 1165 26
 2323 003a BA68     		ldr	r2, [r7, #8]
 2324 003c DA60     		str	r2, [r3, #12]
1166:Drivers/STM32F4xx_HAL_Driver/Src/stm32f4xx_hal_dma.c ****   }
1167:Drivers/STM32F4xx_HAL_Driver/Src/stm32f4xx_hal_dma.c ****   /* Peripheral to Memory */
1168:Drivers/STM32F4xx_HAL_Driver/Src/stm32f4xx_hal_dma.c ****   else
1169:Drivers/STM32F4xx_HAL_Driver/Src/stm32f4xx_hal_dma.c ****   {
1170:Drivers/STM32F4xx_HAL_Driver/Src/stm32f4xx_hal_dma.c ****     /* Configure DMA Stream source address */
1171:Drivers/STM32F4xx_HAL_Driver/Src/stm32f4xx_hal_dma.c ****     hdma->Instance->PAR = SrcAddress;
1172:Drivers/STM32F4xx_HAL_Driver/Src/stm32f4xx_hal_dma.c **** 
1173:Drivers/STM32F4xx_HAL_Driver/Src/stm32f4xx_hal_dma.c ****     /* Configure DMA Stream destination address */
1174:Drivers/STM32F4xx_HAL_Driver/Src/stm32f4xx_hal_dma.c ****     hdma->Instance->M0AR = DstAddress;
1175:Drivers/STM32F4xx_HAL_Driver/Src/stm32f4xx_hal_dma.c ****   }
1176:Drivers/STM32F4xx_HAL_Driver/Src/stm32f4xx_hal_dma.c **** }
 2325              		.loc 1 1176 1
 2326 003e 07E0     		b	.L113
 2327              	.L111:
1171:Drivers/STM32F4xx_HAL_Driver/Src/stm32f4xx_hal_dma.c **** 
 2328              		.loc 1 1171 9
 2329 0040 FB68     		ldr	r3, [r7, #12]
 2330 0042 1B68     		ldr	r3, [r3]
1171:Drivers/STM32F4xx_HAL_Driver/Src/stm32f4xx_hal_dma.c **** 
 2331              		.loc 1 1171 25
 2332 0044 BA68     		ldr	r2, [r7, #8]
 2333 0046 9A60     		str	r2, [r3, #8]
1174:Drivers/STM32F4xx_HAL_Driver/Src/stm32f4xx_hal_dma.c ****   }
 2334              		.loc 1 1174 9
 2335 0048 FB68     		ldr	r3, [r7, #12]
 2336 004a 1B68     		ldr	r3, [r3]
1174:Drivers/STM32F4xx_HAL_Driver/Src/stm32f4xx_hal_dma.c ****   }
 2337              		.loc 1 1174 26
 2338 004c 7A68     		ldr	r2, [r7, #4]
 2339 004e DA60     		str	r2, [r3, #12]
 2340              	.L113:
 2341              		.loc 1 1176 1
 2342 0050 00BF     		nop
 2343 0052 1437     		adds	r7, r7, #20
 2344              	.LCFI68:
 2345              		.cfi_def_cfa_offset 4
 2346 0054 BD46     		mov	sp, r7
 2347              	.LCFI69:
 2348              		.cfi_def_cfa_register 13
 2349              		@ sp needed
 2350 0056 5DF8047B 		ldr	r7, [sp], #4
 2351              	.LCFI70:
 2352              		.cfi_restore 7
 2353              		.cfi_def_cfa_offset 0
 2354 005a 7047     		bx	lr
 2355              		.cfi_endproc
 2356              	.LFE142:
 2358              		.section	.text.DMA_CalcBaseAndBitshift,"ax",%progbits
 2359              		.align	1
 2360              		.syntax unified
ARM GAS  /var/folders/vq/qt4vp3kd5rxf7v2b6_fdtdt80000gn/T//cc8V800z.s 			page 63


 2361              		.thumb
 2362              		.thumb_func
 2363              		.fpu fpv4-sp-d16
 2365              	DMA_CalcBaseAndBitshift:
 2366              	.LFB143:
1177:Drivers/STM32F4xx_HAL_Driver/Src/stm32f4xx_hal_dma.c **** 
1178:Drivers/STM32F4xx_HAL_Driver/Src/stm32f4xx_hal_dma.c **** /**
1179:Drivers/STM32F4xx_HAL_Driver/Src/stm32f4xx_hal_dma.c ****   * @brief  Returns the DMA Stream base address depending on stream number
1180:Drivers/STM32F4xx_HAL_Driver/Src/stm32f4xx_hal_dma.c ****   * @param  hdma       pointer to a DMA_HandleTypeDef structure that contains
1181:Drivers/STM32F4xx_HAL_Driver/Src/stm32f4xx_hal_dma.c ****   *                     the configuration information for the specified DMA Stream. 
1182:Drivers/STM32F4xx_HAL_Driver/Src/stm32f4xx_hal_dma.c ****   * @retval Stream base address
1183:Drivers/STM32F4xx_HAL_Driver/Src/stm32f4xx_hal_dma.c ****   */
1184:Drivers/STM32F4xx_HAL_Driver/Src/stm32f4xx_hal_dma.c **** static uint32_t DMA_CalcBaseAndBitshift(DMA_HandleTypeDef *hdma)
1185:Drivers/STM32F4xx_HAL_Driver/Src/stm32f4xx_hal_dma.c **** {
 2367              		.loc 1 1185 1
 2368              		.cfi_startproc
 2369              		@ args = 0, pretend = 0, frame = 16
 2370              		@ frame_needed = 1, uses_anonymous_args = 0
 2371              		@ link register save eliminated.
 2372 0000 80B4     		push	{r7}
 2373              	.LCFI71:
 2374              		.cfi_def_cfa_offset 4
 2375              		.cfi_offset 7, -4
 2376 0002 85B0     		sub	sp, sp, #20
 2377              	.LCFI72:
 2378              		.cfi_def_cfa_offset 24
 2379 0004 00AF     		add	r7, sp, #0
 2380              	.LCFI73:
 2381              		.cfi_def_cfa_register 7
 2382 0006 7860     		str	r0, [r7, #4]
1186:Drivers/STM32F4xx_HAL_Driver/Src/stm32f4xx_hal_dma.c ****   uint32_t stream_number = (((uint32_t)hdma->Instance & 0xFFU) - 16U) / 24U;
 2383              		.loc 1 1186 44
 2384 0008 7B68     		ldr	r3, [r7, #4]
 2385 000a 1B68     		ldr	r3, [r3]
 2386              		.loc 1 1186 55
 2387 000c DBB2     		uxtb	r3, r3
 2388              		.loc 1 1186 64
 2389 000e 103B     		subs	r3, r3, #16
 2390              		.loc 1 1186 12
 2391 0010 144A     		ldr	r2, .L118
 2392 0012 A2FB0323 		umull	r2, r3, r2, r3
 2393 0016 1B09     		lsrs	r3, r3, #4
 2394 0018 FB60     		str	r3, [r7, #12]
1187:Drivers/STM32F4xx_HAL_Driver/Src/stm32f4xx_hal_dma.c ****   
1188:Drivers/STM32F4xx_HAL_Driver/Src/stm32f4xx_hal_dma.c ****   /* lookup table for necessary bitshift of flags within status registers */
1189:Drivers/STM32F4xx_HAL_Driver/Src/stm32f4xx_hal_dma.c ****   static const uint8_t flagBitshiftOffset[8U] = {0U, 6U, 16U, 22U, 0U, 6U, 16U, 22U};
1190:Drivers/STM32F4xx_HAL_Driver/Src/stm32f4xx_hal_dma.c ****   hdma->StreamIndex = flagBitshiftOffset[stream_number];
 2395              		.loc 1 1190 41
 2396 001a 134A     		ldr	r2, .L118+4
 2397 001c FB68     		ldr	r3, [r7, #12]
 2398 001e 1344     		add	r3, r3, r2
 2399 0020 1B78     		ldrb	r3, [r3]	@ zero_extendqisi2
 2400 0022 1A46     		mov	r2, r3
 2401              		.loc 1 1190 21
 2402 0024 7B68     		ldr	r3, [r7, #4]
 2403 0026 DA65     		str	r2, [r3, #92]
1191:Drivers/STM32F4xx_HAL_Driver/Src/stm32f4xx_hal_dma.c ****   
ARM GAS  /var/folders/vq/qt4vp3kd5rxf7v2b6_fdtdt80000gn/T//cc8V800z.s 			page 64


1192:Drivers/STM32F4xx_HAL_Driver/Src/stm32f4xx_hal_dma.c ****   if (stream_number > 3U)
 2404              		.loc 1 1192 6
 2405 0028 FB68     		ldr	r3, [r7, #12]
 2406 002a 032B     		cmp	r3, #3
 2407 002c 09D9     		bls	.L115
1193:Drivers/STM32F4xx_HAL_Driver/Src/stm32f4xx_hal_dma.c ****   {
1194:Drivers/STM32F4xx_HAL_Driver/Src/stm32f4xx_hal_dma.c ****     /* return pointer to HISR and HIFCR */
1195:Drivers/STM32F4xx_HAL_Driver/Src/stm32f4xx_hal_dma.c ****     hdma->StreamBaseAddress = (((uint32_t)hdma->Instance & (uint32_t)(~0x3FFU)) + 4U);
 2408              		.loc 1 1195 47
 2409 002e 7B68     		ldr	r3, [r7, #4]
 2410 0030 1B68     		ldr	r3, [r3]
 2411              		.loc 1 1195 58
 2412 0032 23F47F73 		bic	r3, r3, #1020
 2413 0036 23F00303 		bic	r3, r3, #3
 2414              		.loc 1 1195 81
 2415 003a 1A1D     		adds	r2, r3, #4
 2416              		.loc 1 1195 29
 2417 003c 7B68     		ldr	r3, [r7, #4]
 2418 003e 9A65     		str	r2, [r3, #88]
 2419 0040 07E0     		b	.L116
 2420              	.L115:
1196:Drivers/STM32F4xx_HAL_Driver/Src/stm32f4xx_hal_dma.c ****   }
1197:Drivers/STM32F4xx_HAL_Driver/Src/stm32f4xx_hal_dma.c ****   else
1198:Drivers/STM32F4xx_HAL_Driver/Src/stm32f4xx_hal_dma.c ****   {
1199:Drivers/STM32F4xx_HAL_Driver/Src/stm32f4xx_hal_dma.c ****     /* return pointer to LISR and LIFCR */
1200:Drivers/STM32F4xx_HAL_Driver/Src/stm32f4xx_hal_dma.c ****     hdma->StreamBaseAddress = ((uint32_t)hdma->Instance & (uint32_t)(~0x3FFU));
 2421              		.loc 1 1200 46
 2422 0042 7B68     		ldr	r3, [r7, #4]
 2423 0044 1B68     		ldr	r3, [r3]
 2424              		.loc 1 1200 57
 2425 0046 23F47F73 		bic	r3, r3, #1020
 2426 004a 23F00303 		bic	r3, r3, #3
 2427              		.loc 1 1200 29
 2428 004e 7A68     		ldr	r2, [r7, #4]
 2429 0050 9365     		str	r3, [r2, #88]
 2430              	.L116:
1201:Drivers/STM32F4xx_HAL_Driver/Src/stm32f4xx_hal_dma.c ****   }
1202:Drivers/STM32F4xx_HAL_Driver/Src/stm32f4xx_hal_dma.c ****   
1203:Drivers/STM32F4xx_HAL_Driver/Src/stm32f4xx_hal_dma.c ****   return hdma->StreamBaseAddress;
 2431              		.loc 1 1203 14
 2432 0052 7B68     		ldr	r3, [r7, #4]
 2433 0054 9B6D     		ldr	r3, [r3, #88]
1204:Drivers/STM32F4xx_HAL_Driver/Src/stm32f4xx_hal_dma.c **** }
 2434              		.loc 1 1204 1
 2435 0056 1846     		mov	r0, r3
 2436 0058 1437     		adds	r7, r7, #20
 2437              	.LCFI74:
 2438              		.cfi_def_cfa_offset 4
 2439 005a BD46     		mov	sp, r7
 2440              	.LCFI75:
 2441              		.cfi_def_cfa_register 13
 2442              		@ sp needed
 2443 005c 5DF8047B 		ldr	r7, [sp], #4
 2444              	.LCFI76:
 2445              		.cfi_restore 7
 2446              		.cfi_def_cfa_offset 0
 2447 0060 7047     		bx	lr
ARM GAS  /var/folders/vq/qt4vp3kd5rxf7v2b6_fdtdt80000gn/T//cc8V800z.s 			page 65


 2448              	.L119:
 2449 0062 00BF     		.align	2
 2450              	.L118:
 2451 0064 ABAAAAAA 		.word	-1431655765
 2452 0068 00000000 		.word	flagBitshiftOffset.7981
 2453              		.cfi_endproc
 2454              	.LFE143:
 2456              		.section	.text.DMA_CheckFifoParam,"ax",%progbits
 2457              		.align	1
 2458              		.syntax unified
 2459              		.thumb
 2460              		.thumb_func
 2461              		.fpu fpv4-sp-d16
 2463              	DMA_CheckFifoParam:
 2464              	.LFB144:
1205:Drivers/STM32F4xx_HAL_Driver/Src/stm32f4xx_hal_dma.c **** 
1206:Drivers/STM32F4xx_HAL_Driver/Src/stm32f4xx_hal_dma.c **** /**
1207:Drivers/STM32F4xx_HAL_Driver/Src/stm32f4xx_hal_dma.c ****   * @brief  Check compatibility between FIFO threshold level and size of the memory burst
1208:Drivers/STM32F4xx_HAL_Driver/Src/stm32f4xx_hal_dma.c ****   * @param  hdma       pointer to a DMA_HandleTypeDef structure that contains
1209:Drivers/STM32F4xx_HAL_Driver/Src/stm32f4xx_hal_dma.c ****   *                     the configuration information for the specified DMA Stream. 
1210:Drivers/STM32F4xx_HAL_Driver/Src/stm32f4xx_hal_dma.c ****   * @retval HAL status
1211:Drivers/STM32F4xx_HAL_Driver/Src/stm32f4xx_hal_dma.c ****   */
1212:Drivers/STM32F4xx_HAL_Driver/Src/stm32f4xx_hal_dma.c **** static HAL_StatusTypeDef DMA_CheckFifoParam(DMA_HandleTypeDef *hdma)
1213:Drivers/STM32F4xx_HAL_Driver/Src/stm32f4xx_hal_dma.c **** {
 2465              		.loc 1 1213 1
 2466              		.cfi_startproc
 2467              		@ args = 0, pretend = 0, frame = 16
 2468              		@ frame_needed = 1, uses_anonymous_args = 0
 2469              		@ link register save eliminated.
 2470 0000 80B4     		push	{r7}
 2471              	.LCFI77:
 2472              		.cfi_def_cfa_offset 4
 2473              		.cfi_offset 7, -4
 2474 0002 85B0     		sub	sp, sp, #20
 2475              	.LCFI78:
 2476              		.cfi_def_cfa_offset 24
 2477 0004 00AF     		add	r7, sp, #0
 2478              	.LCFI79:
 2479              		.cfi_def_cfa_register 7
 2480 0006 7860     		str	r0, [r7, #4]
1214:Drivers/STM32F4xx_HAL_Driver/Src/stm32f4xx_hal_dma.c ****   HAL_StatusTypeDef status = HAL_OK;
 2481              		.loc 1 1214 21
 2482 0008 0023     		movs	r3, #0
 2483 000a FB73     		strb	r3, [r7, #15]
1215:Drivers/STM32F4xx_HAL_Driver/Src/stm32f4xx_hal_dma.c ****   uint32_t tmp = hdma->Init.FIFOThreshold;
 2484              		.loc 1 1215 12
 2485 000c 7B68     		ldr	r3, [r7, #4]
 2486 000e 9B6A     		ldr	r3, [r3, #40]
 2487 0010 BB60     		str	r3, [r7, #8]
1216:Drivers/STM32F4xx_HAL_Driver/Src/stm32f4xx_hal_dma.c ****   
1217:Drivers/STM32F4xx_HAL_Driver/Src/stm32f4xx_hal_dma.c ****   /* Memory Data size equal to Byte */
1218:Drivers/STM32F4xx_HAL_Driver/Src/stm32f4xx_hal_dma.c ****   if(hdma->Init.MemDataAlignment == DMA_MDATAALIGN_BYTE)
 2488              		.loc 1 1218 16
 2489 0012 7B68     		ldr	r3, [r7, #4]
 2490 0014 9B69     		ldr	r3, [r3, #24]
 2491              		.loc 1 1218 5
 2492 0016 002B     		cmp	r3, #0
ARM GAS  /var/folders/vq/qt4vp3kd5rxf7v2b6_fdtdt80000gn/T//cc8V800z.s 			page 66


 2493 0018 1FD1     		bne	.L121
 2494 001a BB68     		ldr	r3, [r7, #8]
 2495 001c 032B     		cmp	r3, #3
 2496 001e 56D8     		bhi	.L145
 2497 0020 01A2     		adr	r2, .L124
 2498 0022 52F823F0 		ldr	pc, [r2, r3, lsl #2]
 2499 0026 00BF     		.p2align 2
 2500              	.L124:
 2501 0028 39000000 		.word	.L125+1
 2502 002c 4B000000 		.word	.L126+1
 2503 0030 39000000 		.word	.L125+1
 2504 0034 CF000000 		.word	.L145+1
 2505              		.p2align 1
 2506              	.L125:
1219:Drivers/STM32F4xx_HAL_Driver/Src/stm32f4xx_hal_dma.c ****   {
1220:Drivers/STM32F4xx_HAL_Driver/Src/stm32f4xx_hal_dma.c ****     switch (tmp)
1221:Drivers/STM32F4xx_HAL_Driver/Src/stm32f4xx_hal_dma.c ****     {
1222:Drivers/STM32F4xx_HAL_Driver/Src/stm32f4xx_hal_dma.c ****     case DMA_FIFO_THRESHOLD_1QUARTERFULL:
1223:Drivers/STM32F4xx_HAL_Driver/Src/stm32f4xx_hal_dma.c ****     case DMA_FIFO_THRESHOLD_3QUARTERSFULL:
1224:Drivers/STM32F4xx_HAL_Driver/Src/stm32f4xx_hal_dma.c ****       if ((hdma->Init.MemBurst & DMA_SxCR_MBURST_1) == DMA_SxCR_MBURST_1)
 2507              		.loc 1 1224 22
 2508 0038 7B68     		ldr	r3, [r7, #4]
 2509 003a DB6A     		ldr	r3, [r3, #44]
 2510              		.loc 1 1224 32
 2511 003c 03F08073 		and	r3, r3, #16777216
 2512              		.loc 1 1224 10
 2513 0040 002B     		cmp	r3, #0
 2514 0042 46D0     		beq	.L146
1225:Drivers/STM32F4xx_HAL_Driver/Src/stm32f4xx_hal_dma.c ****       {
1226:Drivers/STM32F4xx_HAL_Driver/Src/stm32f4xx_hal_dma.c ****         status = HAL_ERROR;
 2515              		.loc 1 1226 16
 2516 0044 0123     		movs	r3, #1
 2517 0046 FB73     		strb	r3, [r7, #15]
1227:Drivers/STM32F4xx_HAL_Driver/Src/stm32f4xx_hal_dma.c ****       }
1228:Drivers/STM32F4xx_HAL_Driver/Src/stm32f4xx_hal_dma.c ****       break;
 2518              		.loc 1 1228 7
 2519 0048 43E0     		b	.L146
 2520              	.L126:
1229:Drivers/STM32F4xx_HAL_Driver/Src/stm32f4xx_hal_dma.c ****     case DMA_FIFO_THRESHOLD_HALFFULL:
1230:Drivers/STM32F4xx_HAL_Driver/Src/stm32f4xx_hal_dma.c ****       if (hdma->Init.MemBurst == DMA_MBURST_INC16)
 2521              		.loc 1 1230 21
 2522 004a 7B68     		ldr	r3, [r7, #4]
 2523 004c DB6A     		ldr	r3, [r3, #44]
 2524              		.loc 1 1230 10
 2525 004e B3F1C07F 		cmp	r3, #25165824
 2526 0052 40D1     		bne	.L147
1231:Drivers/STM32F4xx_HAL_Driver/Src/stm32f4xx_hal_dma.c ****       {
1232:Drivers/STM32F4xx_HAL_Driver/Src/stm32f4xx_hal_dma.c ****         status = HAL_ERROR;
 2527              		.loc 1 1232 16
 2528 0054 0123     		movs	r3, #1
 2529 0056 FB73     		strb	r3, [r7, #15]
1233:Drivers/STM32F4xx_HAL_Driver/Src/stm32f4xx_hal_dma.c ****       }
1234:Drivers/STM32F4xx_HAL_Driver/Src/stm32f4xx_hal_dma.c ****       break;
 2530              		.loc 1 1234 7
 2531 0058 3DE0     		b	.L147
 2532              	.L121:
1235:Drivers/STM32F4xx_HAL_Driver/Src/stm32f4xx_hal_dma.c ****     case DMA_FIFO_THRESHOLD_FULL:
ARM GAS  /var/folders/vq/qt4vp3kd5rxf7v2b6_fdtdt80000gn/T//cc8V800z.s 			page 67


1236:Drivers/STM32F4xx_HAL_Driver/Src/stm32f4xx_hal_dma.c ****       break;
1237:Drivers/STM32F4xx_HAL_Driver/Src/stm32f4xx_hal_dma.c ****     default:
1238:Drivers/STM32F4xx_HAL_Driver/Src/stm32f4xx_hal_dma.c ****       break;
1239:Drivers/STM32F4xx_HAL_Driver/Src/stm32f4xx_hal_dma.c ****     }
1240:Drivers/STM32F4xx_HAL_Driver/Src/stm32f4xx_hal_dma.c ****   }
1241:Drivers/STM32F4xx_HAL_Driver/Src/stm32f4xx_hal_dma.c ****   
1242:Drivers/STM32F4xx_HAL_Driver/Src/stm32f4xx_hal_dma.c ****   /* Memory Data size equal to Half-Word */
1243:Drivers/STM32F4xx_HAL_Driver/Src/stm32f4xx_hal_dma.c ****   else if (hdma->Init.MemDataAlignment == DMA_MDATAALIGN_HALFWORD)
 2533              		.loc 1 1243 22
 2534 005a 7B68     		ldr	r3, [r7, #4]
 2535 005c 9B69     		ldr	r3, [r3, #24]
 2536              		.loc 1 1243 11
 2537 005e B3F5005F 		cmp	r3, #8192
 2538 0062 21D1     		bne	.L131
 2539 0064 BB68     		ldr	r3, [r7, #8]
 2540 0066 032B     		cmp	r3, #3
 2541 0068 37D8     		bhi	.L148
 2542 006a 01A2     		adr	r2, .L134
 2543 006c 52F823F0 		ldr	pc, [r2, r3, lsl #2]
 2544              		.p2align 2
 2545              	.L134:
 2546 0070 81000000 		.word	.L135+1
 2547 0074 87000000 		.word	.L136+1
 2548 0078 81000000 		.word	.L135+1
 2549 007c 99000000 		.word	.L133+1
 2550              		.p2align 1
 2551              	.L135:
1244:Drivers/STM32F4xx_HAL_Driver/Src/stm32f4xx_hal_dma.c ****   {
1245:Drivers/STM32F4xx_HAL_Driver/Src/stm32f4xx_hal_dma.c ****     switch (tmp)
1246:Drivers/STM32F4xx_HAL_Driver/Src/stm32f4xx_hal_dma.c ****     {
1247:Drivers/STM32F4xx_HAL_Driver/Src/stm32f4xx_hal_dma.c ****     case DMA_FIFO_THRESHOLD_1QUARTERFULL:
1248:Drivers/STM32F4xx_HAL_Driver/Src/stm32f4xx_hal_dma.c ****     case DMA_FIFO_THRESHOLD_3QUARTERSFULL:
1249:Drivers/STM32F4xx_HAL_Driver/Src/stm32f4xx_hal_dma.c ****       status = HAL_ERROR;
 2552              		.loc 1 1249 14
 2553 0080 0123     		movs	r3, #1
 2554 0082 FB73     		strb	r3, [r7, #15]
1250:Drivers/STM32F4xx_HAL_Driver/Src/stm32f4xx_hal_dma.c ****       break;
 2555              		.loc 1 1250 7
 2556 0084 30E0     		b	.L130
 2557              	.L136:
1251:Drivers/STM32F4xx_HAL_Driver/Src/stm32f4xx_hal_dma.c ****     case DMA_FIFO_THRESHOLD_HALFFULL:
1252:Drivers/STM32F4xx_HAL_Driver/Src/stm32f4xx_hal_dma.c ****       if ((hdma->Init.MemBurst & DMA_SxCR_MBURST_1) == DMA_SxCR_MBURST_1)
 2558              		.loc 1 1252 22
 2559 0086 7B68     		ldr	r3, [r7, #4]
 2560 0088 DB6A     		ldr	r3, [r3, #44]
 2561              		.loc 1 1252 32
 2562 008a 03F08073 		and	r3, r3, #16777216
 2563              		.loc 1 1252 10
 2564 008e 002B     		cmp	r3, #0
 2565 0090 25D0     		beq	.L149
1253:Drivers/STM32F4xx_HAL_Driver/Src/stm32f4xx_hal_dma.c ****       {
1254:Drivers/STM32F4xx_HAL_Driver/Src/stm32f4xx_hal_dma.c ****         status = HAL_ERROR;
 2566              		.loc 1 1254 16
 2567 0092 0123     		movs	r3, #1
 2568 0094 FB73     		strb	r3, [r7, #15]
1255:Drivers/STM32F4xx_HAL_Driver/Src/stm32f4xx_hal_dma.c ****       }
1256:Drivers/STM32F4xx_HAL_Driver/Src/stm32f4xx_hal_dma.c ****       break;
ARM GAS  /var/folders/vq/qt4vp3kd5rxf7v2b6_fdtdt80000gn/T//cc8V800z.s 			page 68


 2569              		.loc 1 1256 7
 2570 0096 22E0     		b	.L149
 2571              	.L133:
1257:Drivers/STM32F4xx_HAL_Driver/Src/stm32f4xx_hal_dma.c ****     case DMA_FIFO_THRESHOLD_FULL:
1258:Drivers/STM32F4xx_HAL_Driver/Src/stm32f4xx_hal_dma.c ****       if (hdma->Init.MemBurst == DMA_MBURST_INC16)
 2572              		.loc 1 1258 21
 2573 0098 7B68     		ldr	r3, [r7, #4]
 2574 009a DB6A     		ldr	r3, [r3, #44]
 2575              		.loc 1 1258 10
 2576 009c B3F1C07F 		cmp	r3, #25165824
 2577 00a0 1FD1     		bne	.L150
1259:Drivers/STM32F4xx_HAL_Driver/Src/stm32f4xx_hal_dma.c ****       {
1260:Drivers/STM32F4xx_HAL_Driver/Src/stm32f4xx_hal_dma.c ****         status = HAL_ERROR;
 2578              		.loc 1 1260 16
 2579 00a2 0123     		movs	r3, #1
 2580 00a4 FB73     		strb	r3, [r7, #15]
1261:Drivers/STM32F4xx_HAL_Driver/Src/stm32f4xx_hal_dma.c ****       }
1262:Drivers/STM32F4xx_HAL_Driver/Src/stm32f4xx_hal_dma.c ****       break;   
 2581              		.loc 1 1262 7
 2582 00a6 1CE0     		b	.L150
 2583              	.L131:
1263:Drivers/STM32F4xx_HAL_Driver/Src/stm32f4xx_hal_dma.c ****     default:
1264:Drivers/STM32F4xx_HAL_Driver/Src/stm32f4xx_hal_dma.c ****       break;
1265:Drivers/STM32F4xx_HAL_Driver/Src/stm32f4xx_hal_dma.c ****     }
1266:Drivers/STM32F4xx_HAL_Driver/Src/stm32f4xx_hal_dma.c ****   }
1267:Drivers/STM32F4xx_HAL_Driver/Src/stm32f4xx_hal_dma.c ****   
1268:Drivers/STM32F4xx_HAL_Driver/Src/stm32f4xx_hal_dma.c ****   /* Memory Data size equal to Word */
1269:Drivers/STM32F4xx_HAL_Driver/Src/stm32f4xx_hal_dma.c ****   else
1270:Drivers/STM32F4xx_HAL_Driver/Src/stm32f4xx_hal_dma.c ****   {
1271:Drivers/STM32F4xx_HAL_Driver/Src/stm32f4xx_hal_dma.c ****     switch (tmp)
 2584              		.loc 1 1271 5
 2585 00a8 BB68     		ldr	r3, [r7, #8]
 2586 00aa 022B     		cmp	r3, #2
 2587 00ac 03D9     		bls	.L140
 2588 00ae BB68     		ldr	r3, [r7, #8]
 2589 00b0 032B     		cmp	r3, #3
 2590 00b2 03D0     		beq	.L141
1272:Drivers/STM32F4xx_HAL_Driver/Src/stm32f4xx_hal_dma.c ****     {
1273:Drivers/STM32F4xx_HAL_Driver/Src/stm32f4xx_hal_dma.c ****     case DMA_FIFO_THRESHOLD_1QUARTERFULL:
1274:Drivers/STM32F4xx_HAL_Driver/Src/stm32f4xx_hal_dma.c ****     case DMA_FIFO_THRESHOLD_HALFFULL:
1275:Drivers/STM32F4xx_HAL_Driver/Src/stm32f4xx_hal_dma.c ****     case DMA_FIFO_THRESHOLD_3QUARTERSFULL:
1276:Drivers/STM32F4xx_HAL_Driver/Src/stm32f4xx_hal_dma.c ****       status = HAL_ERROR;
1277:Drivers/STM32F4xx_HAL_Driver/Src/stm32f4xx_hal_dma.c ****       break;
1278:Drivers/STM32F4xx_HAL_Driver/Src/stm32f4xx_hal_dma.c ****     case DMA_FIFO_THRESHOLD_FULL:
1279:Drivers/STM32F4xx_HAL_Driver/Src/stm32f4xx_hal_dma.c ****       if ((hdma->Init.MemBurst & DMA_SxCR_MBURST_1) == DMA_SxCR_MBURST_1)
1280:Drivers/STM32F4xx_HAL_Driver/Src/stm32f4xx_hal_dma.c ****       {
1281:Drivers/STM32F4xx_HAL_Driver/Src/stm32f4xx_hal_dma.c ****         status = HAL_ERROR;
1282:Drivers/STM32F4xx_HAL_Driver/Src/stm32f4xx_hal_dma.c ****       }
1283:Drivers/STM32F4xx_HAL_Driver/Src/stm32f4xx_hal_dma.c ****       break;
1284:Drivers/STM32F4xx_HAL_Driver/Src/stm32f4xx_hal_dma.c ****     default:
1285:Drivers/STM32F4xx_HAL_Driver/Src/stm32f4xx_hal_dma.c ****       break;
 2591              		.loc 1 1285 7
 2592 00b4 18E0     		b	.L130
 2593              	.L140:
1276:Drivers/STM32F4xx_HAL_Driver/Src/stm32f4xx_hal_dma.c ****       break;
 2594              		.loc 1 1276 14
 2595 00b6 0123     		movs	r3, #1
ARM GAS  /var/folders/vq/qt4vp3kd5rxf7v2b6_fdtdt80000gn/T//cc8V800z.s 			page 69


 2596 00b8 FB73     		strb	r3, [r7, #15]
1277:Drivers/STM32F4xx_HAL_Driver/Src/stm32f4xx_hal_dma.c ****     case DMA_FIFO_THRESHOLD_FULL:
 2597              		.loc 1 1277 7
 2598 00ba 15E0     		b	.L130
 2599              	.L141:
1279:Drivers/STM32F4xx_HAL_Driver/Src/stm32f4xx_hal_dma.c ****       {
 2600              		.loc 1 1279 22
 2601 00bc 7B68     		ldr	r3, [r7, #4]
 2602 00be DB6A     		ldr	r3, [r3, #44]
1279:Drivers/STM32F4xx_HAL_Driver/Src/stm32f4xx_hal_dma.c ****       {
 2603              		.loc 1 1279 32
 2604 00c0 03F08073 		and	r3, r3, #16777216
1279:Drivers/STM32F4xx_HAL_Driver/Src/stm32f4xx_hal_dma.c ****       {
 2605              		.loc 1 1279 10
 2606 00c4 002B     		cmp	r3, #0
 2607 00c6 0ED0     		beq	.L151
1281:Drivers/STM32F4xx_HAL_Driver/Src/stm32f4xx_hal_dma.c ****       }
 2608              		.loc 1 1281 16
 2609 00c8 0123     		movs	r3, #1
 2610 00ca FB73     		strb	r3, [r7, #15]
1283:Drivers/STM32F4xx_HAL_Driver/Src/stm32f4xx_hal_dma.c ****     default:
 2611              		.loc 1 1283 7
 2612 00cc 0BE0     		b	.L151
 2613              	.L145:
1238:Drivers/STM32F4xx_HAL_Driver/Src/stm32f4xx_hal_dma.c ****     }
 2614              		.loc 1 1238 7
 2615 00ce 00BF     		nop
 2616 00d0 0AE0     		b	.L130
 2617              	.L146:
1228:Drivers/STM32F4xx_HAL_Driver/Src/stm32f4xx_hal_dma.c ****     case DMA_FIFO_THRESHOLD_HALFFULL:
 2618              		.loc 1 1228 7
 2619 00d2 00BF     		nop
 2620 00d4 08E0     		b	.L130
 2621              	.L147:
1234:Drivers/STM32F4xx_HAL_Driver/Src/stm32f4xx_hal_dma.c ****     case DMA_FIFO_THRESHOLD_FULL:
 2622              		.loc 1 1234 7
 2623 00d6 00BF     		nop
 2624 00d8 06E0     		b	.L130
 2625              	.L148:
1264:Drivers/STM32F4xx_HAL_Driver/Src/stm32f4xx_hal_dma.c ****     }
 2626              		.loc 1 1264 7
 2627 00da 00BF     		nop
 2628 00dc 04E0     		b	.L130
 2629              	.L149:
1256:Drivers/STM32F4xx_HAL_Driver/Src/stm32f4xx_hal_dma.c ****     case DMA_FIFO_THRESHOLD_FULL:
 2630              		.loc 1 1256 7
 2631 00de 00BF     		nop
 2632 00e0 02E0     		b	.L130
 2633              	.L150:
1262:Drivers/STM32F4xx_HAL_Driver/Src/stm32f4xx_hal_dma.c ****     default:
 2634              		.loc 1 1262 7
 2635 00e2 00BF     		nop
 2636 00e4 00E0     		b	.L130
 2637              	.L151:
1283:Drivers/STM32F4xx_HAL_Driver/Src/stm32f4xx_hal_dma.c ****     default:
 2638              		.loc 1 1283 7
 2639 00e6 00BF     		nop
ARM GAS  /var/folders/vq/qt4vp3kd5rxf7v2b6_fdtdt80000gn/T//cc8V800z.s 			page 70


 2640              	.L130:
1286:Drivers/STM32F4xx_HAL_Driver/Src/stm32f4xx_hal_dma.c ****     }
1287:Drivers/STM32F4xx_HAL_Driver/Src/stm32f4xx_hal_dma.c ****   } 
1288:Drivers/STM32F4xx_HAL_Driver/Src/stm32f4xx_hal_dma.c ****   
1289:Drivers/STM32F4xx_HAL_Driver/Src/stm32f4xx_hal_dma.c ****   return status; 
 2641              		.loc 1 1289 10
 2642 00e8 FB7B     		ldrb	r3, [r7, #15]	@ zero_extendqisi2
1290:Drivers/STM32F4xx_HAL_Driver/Src/stm32f4xx_hal_dma.c **** }
 2643              		.loc 1 1290 1
 2644 00ea 1846     		mov	r0, r3
 2645 00ec 1437     		adds	r7, r7, #20
 2646              	.LCFI80:
 2647              		.cfi_def_cfa_offset 4
 2648 00ee BD46     		mov	sp, r7
 2649              	.LCFI81:
 2650              		.cfi_def_cfa_register 13
 2651              		@ sp needed
 2652 00f0 5DF8047B 		ldr	r7, [sp], #4
 2653              	.LCFI82:
 2654              		.cfi_restore 7
 2655              		.cfi_def_cfa_offset 0
 2656 00f4 7047     		bx	lr
 2657              		.cfi_endproc
 2658              	.LFE144:
 2660 00f6 00BF     		.section	.rodata.flagBitshiftOffset.7981,"a"
 2661              		.align	2
 2664              	flagBitshiftOffset.7981:
 2665 0000 00061016 		.ascii	"\000\006\020\026\000\006\020\026"
 2665      00061016 
 2666              		.text
 2667              	.Letext0:
 2668              		.file 2 "/usr/local/Cellar/arm-none-eabi-gcc/9-2019-q4-major/gcc/arm-none-eabi/include/machine/_de
 2669              		.file 3 "/usr/local/Cellar/arm-none-eabi-gcc/9-2019-q4-major/gcc/arm-none-eabi/include/sys/_stdint
 2670              		.file 4 "Drivers/CMSIS/Include/core_cm4.h"
 2671              		.file 5 "Drivers/CMSIS/Device/ST/STM32F4xx/Include/system_stm32f4xx.h"
 2672              		.file 6 "Drivers/CMSIS/Device/ST/STM32F4xx/Include/stm32f407xx.h"
 2673              		.file 7 "Drivers/CMSIS/Device/ST/STM32F4xx/Include/stm32f4xx.h"
 2674              		.file 8 "Drivers/STM32F4xx_HAL_Driver/Inc/stm32f4xx_hal_def.h"
 2675              		.file 9 "Drivers/STM32F4xx_HAL_Driver/Inc/stm32f4xx_hal_dma.h"
 2676              		.file 10 "Drivers/STM32F4xx_HAL_Driver/Inc/stm32f4xx_hal.h"
ARM GAS  /var/folders/vq/qt4vp3kd5rxf7v2b6_fdtdt80000gn/T//cc8V800z.s 			page 71

