ARM GAS  /var/folders/vq/qt4vp3kd5rxf7v2b6_fdtdt80000gn/T//ccjOke0W.s 			page 1


   1              		.cpu cortex-m4
   2              		.eabi_attribute 27, 1
   3              		.eabi_attribute 20, 1
   4              		.eabi_attribute 21, 1
   5              		.eabi_attribute 23, 3
   6              		.eabi_attribute 24, 1
   7              		.eabi_attribute 25, 1
   8              		.eabi_attribute 26, 1
   9              		.eabi_attribute 30, 6
  10              		.eabi_attribute 34, 1
  11              		.eabi_attribute 18, 4
  12              		.file	"stm32f4xx_ll_usb.c"
  13              		.text
  14              	.Ltext0:
  15              		.cfi_sections	.debug_frame
  16              		.section	.text.USB_CoreInit,"ax",%progbits
  17              		.align	1
  18              		.global	USB_CoreInit
  19              		.arch armv7e-m
  20              		.syntax unified
  21              		.thumb
  22              		.thumb_func
  23              		.fpu fpv4-sp-d16
  25              	USB_CoreInit:
  26              	.LFB130:
  27              		.file 1 "Drivers/STM32F4xx_HAL_Driver/Src/stm32f4xx_ll_usb.c"
   1:Drivers/STM32F4xx_HAL_Driver/Src/stm32f4xx_ll_usb.c **** /**
   2:Drivers/STM32F4xx_HAL_Driver/Src/stm32f4xx_ll_usb.c ****   ******************************************************************************
   3:Drivers/STM32F4xx_HAL_Driver/Src/stm32f4xx_ll_usb.c ****   * @file    stm32f4xx_ll_usb.c
   4:Drivers/STM32F4xx_HAL_Driver/Src/stm32f4xx_ll_usb.c ****   * @author  MCD Application Team
   5:Drivers/STM32F4xx_HAL_Driver/Src/stm32f4xx_ll_usb.c ****   * @brief   USB Low Layer HAL module driver.
   6:Drivers/STM32F4xx_HAL_Driver/Src/stm32f4xx_ll_usb.c ****   *
   7:Drivers/STM32F4xx_HAL_Driver/Src/stm32f4xx_ll_usb.c ****   *          This file provides firmware functions to manage the following
   8:Drivers/STM32F4xx_HAL_Driver/Src/stm32f4xx_ll_usb.c ****   *          functionalities of the USB Peripheral Controller:
   9:Drivers/STM32F4xx_HAL_Driver/Src/stm32f4xx_ll_usb.c ****   *           + Initialization/de-initialization functions
  10:Drivers/STM32F4xx_HAL_Driver/Src/stm32f4xx_ll_usb.c ****   *           + I/O operation functions
  11:Drivers/STM32F4xx_HAL_Driver/Src/stm32f4xx_ll_usb.c ****   *           + Peripheral Control functions
  12:Drivers/STM32F4xx_HAL_Driver/Src/stm32f4xx_ll_usb.c ****   *           + Peripheral State functions
  13:Drivers/STM32F4xx_HAL_Driver/Src/stm32f4xx_ll_usb.c ****   *
  14:Drivers/STM32F4xx_HAL_Driver/Src/stm32f4xx_ll_usb.c ****   @verbatim
  15:Drivers/STM32F4xx_HAL_Driver/Src/stm32f4xx_ll_usb.c ****   ==============================================================================
  16:Drivers/STM32F4xx_HAL_Driver/Src/stm32f4xx_ll_usb.c ****                     ##### How to use this driver #####
  17:Drivers/STM32F4xx_HAL_Driver/Src/stm32f4xx_ll_usb.c ****   ==============================================================================
  18:Drivers/STM32F4xx_HAL_Driver/Src/stm32f4xx_ll_usb.c ****     [..]
  19:Drivers/STM32F4xx_HAL_Driver/Src/stm32f4xx_ll_usb.c ****       (#) Fill parameters of Init structure in USB_OTG_CfgTypeDef structure.
  20:Drivers/STM32F4xx_HAL_Driver/Src/stm32f4xx_ll_usb.c **** 
  21:Drivers/STM32F4xx_HAL_Driver/Src/stm32f4xx_ll_usb.c ****       (#) Call USB_CoreInit() API to initialize the USB Core peripheral.
  22:Drivers/STM32F4xx_HAL_Driver/Src/stm32f4xx_ll_usb.c **** 
  23:Drivers/STM32F4xx_HAL_Driver/Src/stm32f4xx_ll_usb.c ****       (#) The upper HAL HCD/PCD driver will call the right routines for its internal processes.
  24:Drivers/STM32F4xx_HAL_Driver/Src/stm32f4xx_ll_usb.c **** 
  25:Drivers/STM32F4xx_HAL_Driver/Src/stm32f4xx_ll_usb.c ****   @endverbatim
  26:Drivers/STM32F4xx_HAL_Driver/Src/stm32f4xx_ll_usb.c ****   ******************************************************************************
  27:Drivers/STM32F4xx_HAL_Driver/Src/stm32f4xx_ll_usb.c ****   * @attention
  28:Drivers/STM32F4xx_HAL_Driver/Src/stm32f4xx_ll_usb.c ****   *
  29:Drivers/STM32F4xx_HAL_Driver/Src/stm32f4xx_ll_usb.c ****   * <h2><center>&copy; Copyright (c) 2016 STMicroelectronics.
  30:Drivers/STM32F4xx_HAL_Driver/Src/stm32f4xx_ll_usb.c ****   * All rights reserved.</center></h2>
  31:Drivers/STM32F4xx_HAL_Driver/Src/stm32f4xx_ll_usb.c ****   *
ARM GAS  /var/folders/vq/qt4vp3kd5rxf7v2b6_fdtdt80000gn/T//ccjOke0W.s 			page 2


  32:Drivers/STM32F4xx_HAL_Driver/Src/stm32f4xx_ll_usb.c ****   * This software component is licensed by ST under BSD 3-Clause license,
  33:Drivers/STM32F4xx_HAL_Driver/Src/stm32f4xx_ll_usb.c ****   * the "License"; You may not use this file except in compliance with the
  34:Drivers/STM32F4xx_HAL_Driver/Src/stm32f4xx_ll_usb.c ****   * License. You may obtain a copy of the License at:
  35:Drivers/STM32F4xx_HAL_Driver/Src/stm32f4xx_ll_usb.c ****   *                        opensource.org/licenses/BSD-3-Clause
  36:Drivers/STM32F4xx_HAL_Driver/Src/stm32f4xx_ll_usb.c ****   *
  37:Drivers/STM32F4xx_HAL_Driver/Src/stm32f4xx_ll_usb.c ****   ******************************************************************************
  38:Drivers/STM32F4xx_HAL_Driver/Src/stm32f4xx_ll_usb.c ****   */
  39:Drivers/STM32F4xx_HAL_Driver/Src/stm32f4xx_ll_usb.c **** 
  40:Drivers/STM32F4xx_HAL_Driver/Src/stm32f4xx_ll_usb.c **** /* Includes ------------------------------------------------------------------*/
  41:Drivers/STM32F4xx_HAL_Driver/Src/stm32f4xx_ll_usb.c **** #include "stm32f4xx_hal.h"
  42:Drivers/STM32F4xx_HAL_Driver/Src/stm32f4xx_ll_usb.c **** 
  43:Drivers/STM32F4xx_HAL_Driver/Src/stm32f4xx_ll_usb.c **** /** @addtogroup STM32F4xx_LL_USB_DRIVER
  44:Drivers/STM32F4xx_HAL_Driver/Src/stm32f4xx_ll_usb.c ****   * @{
  45:Drivers/STM32F4xx_HAL_Driver/Src/stm32f4xx_ll_usb.c ****   */
  46:Drivers/STM32F4xx_HAL_Driver/Src/stm32f4xx_ll_usb.c **** 
  47:Drivers/STM32F4xx_HAL_Driver/Src/stm32f4xx_ll_usb.c **** #if defined (HAL_PCD_MODULE_ENABLED) || defined (HAL_HCD_MODULE_ENABLED)
  48:Drivers/STM32F4xx_HAL_Driver/Src/stm32f4xx_ll_usb.c **** #if defined (USB_OTG_FS) || defined (USB_OTG_HS)
  49:Drivers/STM32F4xx_HAL_Driver/Src/stm32f4xx_ll_usb.c **** /* Private typedef -----------------------------------------------------------*/
  50:Drivers/STM32F4xx_HAL_Driver/Src/stm32f4xx_ll_usb.c **** /* Private define ------------------------------------------------------------*/
  51:Drivers/STM32F4xx_HAL_Driver/Src/stm32f4xx_ll_usb.c **** /* Private macro -------------------------------------------------------------*/
  52:Drivers/STM32F4xx_HAL_Driver/Src/stm32f4xx_ll_usb.c **** /* Private variables ---------------------------------------------------------*/
  53:Drivers/STM32F4xx_HAL_Driver/Src/stm32f4xx_ll_usb.c **** /* Private function prototypes -----------------------------------------------*/
  54:Drivers/STM32F4xx_HAL_Driver/Src/stm32f4xx_ll_usb.c **** /* Private functions ---------------------------------------------------------*/
  55:Drivers/STM32F4xx_HAL_Driver/Src/stm32f4xx_ll_usb.c **** #if defined (USB_OTG_FS) || defined (USB_OTG_HS)
  56:Drivers/STM32F4xx_HAL_Driver/Src/stm32f4xx_ll_usb.c **** static HAL_StatusTypeDef USB_CoreReset(USB_OTG_GlobalTypeDef *USBx);
  57:Drivers/STM32F4xx_HAL_Driver/Src/stm32f4xx_ll_usb.c **** 
  58:Drivers/STM32F4xx_HAL_Driver/Src/stm32f4xx_ll_usb.c **** /* Exported functions --------------------------------------------------------*/
  59:Drivers/STM32F4xx_HAL_Driver/Src/stm32f4xx_ll_usb.c **** /** @defgroup USB_LL_Exported_Functions USB Low Layer Exported Functions
  60:Drivers/STM32F4xx_HAL_Driver/Src/stm32f4xx_ll_usb.c ****   * @{
  61:Drivers/STM32F4xx_HAL_Driver/Src/stm32f4xx_ll_usb.c ****   */
  62:Drivers/STM32F4xx_HAL_Driver/Src/stm32f4xx_ll_usb.c **** 
  63:Drivers/STM32F4xx_HAL_Driver/Src/stm32f4xx_ll_usb.c **** /** @defgroup USB_LL_Exported_Functions_Group1 Initialization/de-initialization functions
  64:Drivers/STM32F4xx_HAL_Driver/Src/stm32f4xx_ll_usb.c ****   *  @brief    Initialization and Configuration functions
  65:Drivers/STM32F4xx_HAL_Driver/Src/stm32f4xx_ll_usb.c ****   *
  66:Drivers/STM32F4xx_HAL_Driver/Src/stm32f4xx_ll_usb.c **** @verbatim
  67:Drivers/STM32F4xx_HAL_Driver/Src/stm32f4xx_ll_usb.c ****  ===============================================================================
  68:Drivers/STM32F4xx_HAL_Driver/Src/stm32f4xx_ll_usb.c ****                       ##### Initialization/de-initialization functions #####
  69:Drivers/STM32F4xx_HAL_Driver/Src/stm32f4xx_ll_usb.c ****  ===============================================================================
  70:Drivers/STM32F4xx_HAL_Driver/Src/stm32f4xx_ll_usb.c **** 
  71:Drivers/STM32F4xx_HAL_Driver/Src/stm32f4xx_ll_usb.c **** @endverbatim
  72:Drivers/STM32F4xx_HAL_Driver/Src/stm32f4xx_ll_usb.c ****   * @{
  73:Drivers/STM32F4xx_HAL_Driver/Src/stm32f4xx_ll_usb.c ****   */
  74:Drivers/STM32F4xx_HAL_Driver/Src/stm32f4xx_ll_usb.c **** 
  75:Drivers/STM32F4xx_HAL_Driver/Src/stm32f4xx_ll_usb.c **** /**
  76:Drivers/STM32F4xx_HAL_Driver/Src/stm32f4xx_ll_usb.c ****   * @brief  Initializes the USB Core
  77:Drivers/STM32F4xx_HAL_Driver/Src/stm32f4xx_ll_usb.c ****   * @param  USBx USB Instance
  78:Drivers/STM32F4xx_HAL_Driver/Src/stm32f4xx_ll_usb.c ****   * @param  cfg pointer to a USB_OTG_CfgTypeDef structure that contains
  79:Drivers/STM32F4xx_HAL_Driver/Src/stm32f4xx_ll_usb.c ****   *         the configuration information for the specified USBx peripheral.
  80:Drivers/STM32F4xx_HAL_Driver/Src/stm32f4xx_ll_usb.c ****   * @retval HAL status
  81:Drivers/STM32F4xx_HAL_Driver/Src/stm32f4xx_ll_usb.c ****   */
  82:Drivers/STM32F4xx_HAL_Driver/Src/stm32f4xx_ll_usb.c **** HAL_StatusTypeDef USB_CoreInit(USB_OTG_GlobalTypeDef *USBx, USB_OTG_CfgTypeDef cfg)
  83:Drivers/STM32F4xx_HAL_Driver/Src/stm32f4xx_ll_usb.c **** {
  28              		.loc 1 83 1
  29              		.cfi_startproc
  30              		@ args = 56, pretend = 16, frame = 16
  31              		@ frame_needed = 1, uses_anonymous_args = 0
  32 0000 84B0     		sub	sp, sp, #16
ARM GAS  /var/folders/vq/qt4vp3kd5rxf7v2b6_fdtdt80000gn/T//ccjOke0W.s 			page 3


  33              	.LCFI0:
  34              		.cfi_def_cfa_offset 16
  35 0002 80B5     		push	{r7, lr}
  36              	.LCFI1:
  37              		.cfi_def_cfa_offset 24
  38              		.cfi_offset 7, -24
  39              		.cfi_offset 14, -20
  40 0004 84B0     		sub	sp, sp, #16
  41              	.LCFI2:
  42              		.cfi_def_cfa_offset 40
  43 0006 00AF     		add	r7, sp, #0
  44              	.LCFI3:
  45              		.cfi_def_cfa_register 7
  46 0008 7860     		str	r0, [r7, #4]
  47 000a 07F11C00 		add	r0, r7, #28
  48 000e 80E80E00 		stm	r0, {r1, r2, r3}
  84:Drivers/STM32F4xx_HAL_Driver/Src/stm32f4xx_ll_usb.c ****   HAL_StatusTypeDef ret;
  85:Drivers/STM32F4xx_HAL_Driver/Src/stm32f4xx_ll_usb.c **** 
  86:Drivers/STM32F4xx_HAL_Driver/Src/stm32f4xx_ll_usb.c ****   if (cfg.phy_itface == USB_OTG_ULPI_PHY)
  49              		.loc 1 86 10
  50 0012 3B6B     		ldr	r3, [r7, #48]
  51              		.loc 1 86 6
  52 0014 012B     		cmp	r3, #1
  53 0016 22D1     		bne	.L2
  87:Drivers/STM32F4xx_HAL_Driver/Src/stm32f4xx_ll_usb.c ****   {
  88:Drivers/STM32F4xx_HAL_Driver/Src/stm32f4xx_ll_usb.c ****     USBx->GCCFG &= ~(USB_OTG_GCCFG_PWRDWN);
  54              		.loc 1 88 17
  55 0018 7B68     		ldr	r3, [r7, #4]
  56 001a 9B6B     		ldr	r3, [r3, #56]
  57 001c 23F48032 		bic	r2, r3, #65536
  58 0020 7B68     		ldr	r3, [r7, #4]
  59 0022 9A63     		str	r2, [r3, #56]
  89:Drivers/STM32F4xx_HAL_Driver/Src/stm32f4xx_ll_usb.c **** 
  90:Drivers/STM32F4xx_HAL_Driver/Src/stm32f4xx_ll_usb.c ****     /* Init The ULPI Interface */
  91:Drivers/STM32F4xx_HAL_Driver/Src/stm32f4xx_ll_usb.c ****     USBx->GUSBCFG &= ~(USB_OTG_GUSBCFG_TSDPS | USB_OTG_GUSBCFG_ULPIFSLS | USB_OTG_GUSBCFG_PHYSEL);
  60              		.loc 1 91 19
  61 0024 7B68     		ldr	r3, [r7, #4]
  62 0026 DB68     		ldr	r3, [r3, #12]
  63 0028 23F48403 		bic	r3, r3, #4325376
  64 002c 23F04003 		bic	r3, r3, #64
  65 0030 7A68     		ldr	r2, [r7, #4]
  66 0032 D360     		str	r3, [r2, #12]
  92:Drivers/STM32F4xx_HAL_Driver/Src/stm32f4xx_ll_usb.c **** 
  93:Drivers/STM32F4xx_HAL_Driver/Src/stm32f4xx_ll_usb.c ****     /* Select vbus source */
  94:Drivers/STM32F4xx_HAL_Driver/Src/stm32f4xx_ll_usb.c ****     USBx->GUSBCFG &= ~(USB_OTG_GUSBCFG_ULPIEVBUSD | USB_OTG_GUSBCFG_ULPIEVBUSI);
  67              		.loc 1 94 19
  68 0034 7B68     		ldr	r3, [r7, #4]
  69 0036 DB68     		ldr	r3, [r3, #12]
  70 0038 23F44012 		bic	r2, r3, #3145728
  71 003c 7B68     		ldr	r3, [r7, #4]
  72 003e DA60     		str	r2, [r3, #12]
  95:Drivers/STM32F4xx_HAL_Driver/Src/stm32f4xx_ll_usb.c ****     if (cfg.use_external_vbus == 1U)
  73              		.loc 1 95 12
  74 0040 FB6C     		ldr	r3, [r7, #76]
  75              		.loc 1 95 8
  76 0042 012B     		cmp	r3, #1
  77 0044 05D1     		bne	.L3
ARM GAS  /var/folders/vq/qt4vp3kd5rxf7v2b6_fdtdt80000gn/T//ccjOke0W.s 			page 4


  96:Drivers/STM32F4xx_HAL_Driver/Src/stm32f4xx_ll_usb.c ****     {
  97:Drivers/STM32F4xx_HAL_Driver/Src/stm32f4xx_ll_usb.c ****       USBx->GUSBCFG |= USB_OTG_GUSBCFG_ULPIEVBUSD;
  78              		.loc 1 97 21
  79 0046 7B68     		ldr	r3, [r7, #4]
  80 0048 DB68     		ldr	r3, [r3, #12]
  81 004a 43F48012 		orr	r2, r3, #1048576
  82 004e 7B68     		ldr	r3, [r7, #4]
  83 0050 DA60     		str	r2, [r3, #12]
  84              	.L3:
  98:Drivers/STM32F4xx_HAL_Driver/Src/stm32f4xx_ll_usb.c ****     }
  99:Drivers/STM32F4xx_HAL_Driver/Src/stm32f4xx_ll_usb.c ****     /* Reset after a PHY select  */
 100:Drivers/STM32F4xx_HAL_Driver/Src/stm32f4xx_ll_usb.c ****     ret = USB_CoreReset(USBx);
  85              		.loc 1 100 11
  86 0052 7868     		ldr	r0, [r7, #4]
  87 0054 FFF7FEFF 		bl	USB_CoreReset
  88 0058 0346     		mov	r3, r0
  89 005a FB73     		strb	r3, [r7, #15]
  90 005c 1AE0     		b	.L4
  91              	.L2:
 101:Drivers/STM32F4xx_HAL_Driver/Src/stm32f4xx_ll_usb.c ****   }
 102:Drivers/STM32F4xx_HAL_Driver/Src/stm32f4xx_ll_usb.c ****   else /* FS interface (embedded Phy) */
 103:Drivers/STM32F4xx_HAL_Driver/Src/stm32f4xx_ll_usb.c ****   {
 104:Drivers/STM32F4xx_HAL_Driver/Src/stm32f4xx_ll_usb.c ****     /* Select FS Embedded PHY */
 105:Drivers/STM32F4xx_HAL_Driver/Src/stm32f4xx_ll_usb.c ****     USBx->GUSBCFG |= USB_OTG_GUSBCFG_PHYSEL;
  92              		.loc 1 105 19
  93 005e 7B68     		ldr	r3, [r7, #4]
  94 0060 DB68     		ldr	r3, [r3, #12]
  95 0062 43F04002 		orr	r2, r3, #64
  96 0066 7B68     		ldr	r3, [r7, #4]
  97 0068 DA60     		str	r2, [r3, #12]
 106:Drivers/STM32F4xx_HAL_Driver/Src/stm32f4xx_ll_usb.c **** 
 107:Drivers/STM32F4xx_HAL_Driver/Src/stm32f4xx_ll_usb.c ****     /* Reset after a PHY select */
 108:Drivers/STM32F4xx_HAL_Driver/Src/stm32f4xx_ll_usb.c ****     ret = USB_CoreReset(USBx);
  98              		.loc 1 108 11
  99 006a 7868     		ldr	r0, [r7, #4]
 100 006c FFF7FEFF 		bl	USB_CoreReset
 101 0070 0346     		mov	r3, r0
 102 0072 FB73     		strb	r3, [r7, #15]
 109:Drivers/STM32F4xx_HAL_Driver/Src/stm32f4xx_ll_usb.c **** 
 110:Drivers/STM32F4xx_HAL_Driver/Src/stm32f4xx_ll_usb.c ****     if (cfg.battery_charging_enable == 0U)
 103              		.loc 1 110 12
 104 0074 3B6C     		ldr	r3, [r7, #64]
 105              		.loc 1 110 8
 106 0076 002B     		cmp	r3, #0
 107 0078 06D1     		bne	.L5
 111:Drivers/STM32F4xx_HAL_Driver/Src/stm32f4xx_ll_usb.c ****     {
 112:Drivers/STM32F4xx_HAL_Driver/Src/stm32f4xx_ll_usb.c ****       /* Activate the USB Transceiver */
 113:Drivers/STM32F4xx_HAL_Driver/Src/stm32f4xx_ll_usb.c ****       USBx->GCCFG |= USB_OTG_GCCFG_PWRDWN;
 108              		.loc 1 113 19
 109 007a 7B68     		ldr	r3, [r7, #4]
 110 007c 9B6B     		ldr	r3, [r3, #56]
 111 007e 43F48032 		orr	r2, r3, #65536
 112 0082 7B68     		ldr	r3, [r7, #4]
 113 0084 9A63     		str	r2, [r3, #56]
 114 0086 05E0     		b	.L4
 115              	.L5:
 114:Drivers/STM32F4xx_HAL_Driver/Src/stm32f4xx_ll_usb.c ****     }
ARM GAS  /var/folders/vq/qt4vp3kd5rxf7v2b6_fdtdt80000gn/T//ccjOke0W.s 			page 5


 115:Drivers/STM32F4xx_HAL_Driver/Src/stm32f4xx_ll_usb.c ****     else
 116:Drivers/STM32F4xx_HAL_Driver/Src/stm32f4xx_ll_usb.c ****     {
 117:Drivers/STM32F4xx_HAL_Driver/Src/stm32f4xx_ll_usb.c ****       /* Deactivate the USB Transceiver */
 118:Drivers/STM32F4xx_HAL_Driver/Src/stm32f4xx_ll_usb.c ****       USBx->GCCFG &= ~(USB_OTG_GCCFG_PWRDWN);
 116              		.loc 1 118 19
 117 0088 7B68     		ldr	r3, [r7, #4]
 118 008a 9B6B     		ldr	r3, [r3, #56]
 119 008c 23F48032 		bic	r2, r3, #65536
 120 0090 7B68     		ldr	r3, [r7, #4]
 121 0092 9A63     		str	r2, [r3, #56]
 122              	.L4:
 119:Drivers/STM32F4xx_HAL_Driver/Src/stm32f4xx_ll_usb.c ****     }
 120:Drivers/STM32F4xx_HAL_Driver/Src/stm32f4xx_ll_usb.c ****   }
 121:Drivers/STM32F4xx_HAL_Driver/Src/stm32f4xx_ll_usb.c **** 
 122:Drivers/STM32F4xx_HAL_Driver/Src/stm32f4xx_ll_usb.c ****   if (cfg.dma_enable == 1U)
 123              		.loc 1 122 10
 124 0094 BB6A     		ldr	r3, [r7, #40]
 125              		.loc 1 122 6
 126 0096 012B     		cmp	r3, #1
 127 0098 0BD1     		bne	.L6
 123:Drivers/STM32F4xx_HAL_Driver/Src/stm32f4xx_ll_usb.c ****   {
 124:Drivers/STM32F4xx_HAL_Driver/Src/stm32f4xx_ll_usb.c ****     USBx->GAHBCFG |= USB_OTG_GAHBCFG_HBSTLEN_2;
 128              		.loc 1 124 19
 129 009a 7B68     		ldr	r3, [r7, #4]
 130 009c 9B68     		ldr	r3, [r3, #8]
 131 009e 43F00602 		orr	r2, r3, #6
 132 00a2 7B68     		ldr	r3, [r7, #4]
 133 00a4 9A60     		str	r2, [r3, #8]
 125:Drivers/STM32F4xx_HAL_Driver/Src/stm32f4xx_ll_usb.c ****     USBx->GAHBCFG |= USB_OTG_GAHBCFG_DMAEN;
 134              		.loc 1 125 19
 135 00a6 7B68     		ldr	r3, [r7, #4]
 136 00a8 9B68     		ldr	r3, [r3, #8]
 137 00aa 43F02002 		orr	r2, r3, #32
 138 00ae 7B68     		ldr	r3, [r7, #4]
 139 00b0 9A60     		str	r2, [r3, #8]
 140              	.L6:
 126:Drivers/STM32F4xx_HAL_Driver/Src/stm32f4xx_ll_usb.c ****   }
 127:Drivers/STM32F4xx_HAL_Driver/Src/stm32f4xx_ll_usb.c **** 
 128:Drivers/STM32F4xx_HAL_Driver/Src/stm32f4xx_ll_usb.c ****   return ret;
 141              		.loc 1 128 10
 142 00b2 FB7B     		ldrb	r3, [r7, #15]	@ zero_extendqisi2
 129:Drivers/STM32F4xx_HAL_Driver/Src/stm32f4xx_ll_usb.c **** }
 143              		.loc 1 129 1
 144 00b4 1846     		mov	r0, r3
 145 00b6 1037     		adds	r7, r7, #16
 146              	.LCFI4:
 147              		.cfi_def_cfa_offset 24
 148 00b8 BD46     		mov	sp, r7
 149              	.LCFI5:
 150              		.cfi_def_cfa_register 13
 151              		@ sp needed
 152 00ba BDE88040 		pop	{r7, lr}
 153              	.LCFI6:
 154              		.cfi_restore 14
 155              		.cfi_restore 7
 156              		.cfi_def_cfa_offset 16
 157 00be 04B0     		add	sp, sp, #16
ARM GAS  /var/folders/vq/qt4vp3kd5rxf7v2b6_fdtdt80000gn/T//ccjOke0W.s 			page 6


 158              	.LCFI7:
 159              		.cfi_def_cfa_offset 0
 160 00c0 7047     		bx	lr
 161              		.cfi_endproc
 162              	.LFE130:
 164              		.section	.text.USB_SetTurnaroundTime,"ax",%progbits
 165              		.align	1
 166              		.global	USB_SetTurnaroundTime
 167              		.syntax unified
 168              		.thumb
 169              		.thumb_func
 170              		.fpu fpv4-sp-d16
 172              	USB_SetTurnaroundTime:
 173              	.LFB131:
 130:Drivers/STM32F4xx_HAL_Driver/Src/stm32f4xx_ll_usb.c **** 
 131:Drivers/STM32F4xx_HAL_Driver/Src/stm32f4xx_ll_usb.c **** 
 132:Drivers/STM32F4xx_HAL_Driver/Src/stm32f4xx_ll_usb.c **** /**
 133:Drivers/STM32F4xx_HAL_Driver/Src/stm32f4xx_ll_usb.c ****   * @brief  Set the USB turnaround time
 134:Drivers/STM32F4xx_HAL_Driver/Src/stm32f4xx_ll_usb.c ****   * @param  USBx USB Instance
 135:Drivers/STM32F4xx_HAL_Driver/Src/stm32f4xx_ll_usb.c ****   * @param  hclk: AHB clock frequency
 136:Drivers/STM32F4xx_HAL_Driver/Src/stm32f4xx_ll_usb.c ****   * @retval USB turnaround time In PHY Clocks number
 137:Drivers/STM32F4xx_HAL_Driver/Src/stm32f4xx_ll_usb.c ****   */
 138:Drivers/STM32F4xx_HAL_Driver/Src/stm32f4xx_ll_usb.c **** HAL_StatusTypeDef USB_SetTurnaroundTime(USB_OTG_GlobalTypeDef *USBx,
 139:Drivers/STM32F4xx_HAL_Driver/Src/stm32f4xx_ll_usb.c ****                                         uint32_t hclk, uint8_t speed)
 140:Drivers/STM32F4xx_HAL_Driver/Src/stm32f4xx_ll_usb.c **** {
 174              		.loc 1 140 1
 175              		.cfi_startproc
 176              		@ args = 0, pretend = 0, frame = 24
 177              		@ frame_needed = 1, uses_anonymous_args = 0
 178              		@ link register save eliminated.
 179 0000 80B4     		push	{r7}
 180              	.LCFI8:
 181              		.cfi_def_cfa_offset 4
 182              		.cfi_offset 7, -4
 183 0002 87B0     		sub	sp, sp, #28
 184              	.LCFI9:
 185              		.cfi_def_cfa_offset 32
 186 0004 00AF     		add	r7, sp, #0
 187              	.LCFI10:
 188              		.cfi_def_cfa_register 7
 189 0006 F860     		str	r0, [r7, #12]
 190 0008 B960     		str	r1, [r7, #8]
 191 000a 1346     		mov	r3, r2
 192 000c FB71     		strb	r3, [r7, #7]
 141:Drivers/STM32F4xx_HAL_Driver/Src/stm32f4xx_ll_usb.c ****   uint32_t UsbTrd;
 142:Drivers/STM32F4xx_HAL_Driver/Src/stm32f4xx_ll_usb.c **** 
 143:Drivers/STM32F4xx_HAL_Driver/Src/stm32f4xx_ll_usb.c ****   /* The USBTRD is configured according to the tables below, depending on AHB frequency
 144:Drivers/STM32F4xx_HAL_Driver/Src/stm32f4xx_ll_usb.c ****   used by application. In the low AHB frequency range it is used to stretch enough the USB response
 145:Drivers/STM32F4xx_HAL_Driver/Src/stm32f4xx_ll_usb.c ****   time to IN tokens, the USB turnaround time, so to compensate for the longer AHB read access
 146:Drivers/STM32F4xx_HAL_Driver/Src/stm32f4xx_ll_usb.c ****   latency to the Data FIFO */
 147:Drivers/STM32F4xx_HAL_Driver/Src/stm32f4xx_ll_usb.c ****   if (speed == USBD_FS_SPEED)
 193              		.loc 1 147 6
 194 000e FB79     		ldrb	r3, [r7, #7]	@ zero_extendqisi2
 195 0010 022B     		cmp	r3, #2
 196 0012 65D1     		bne	.L9
 148:Drivers/STM32F4xx_HAL_Driver/Src/stm32f4xx_ll_usb.c ****   {
 149:Drivers/STM32F4xx_HAL_Driver/Src/stm32f4xx_ll_usb.c ****     if ((hclk >= 14200000U) && (hclk < 15000000U))
ARM GAS  /var/folders/vq/qt4vp3kd5rxf7v2b6_fdtdt80000gn/T//ccjOke0W.s 			page 7


 197              		.loc 1 149 8
 198 0014 BB68     		ldr	r3, [r7, #8]
 199 0016 414A     		ldr	r2, .L23
 200 0018 9342     		cmp	r3, r2
 201 001a 06D9     		bls	.L10
 202              		.loc 1 149 29 discriminator 1
 203 001c BB68     		ldr	r3, [r7, #8]
 204 001e 404A     		ldr	r2, .L23+4
 205 0020 9342     		cmp	r3, r2
 206 0022 02D2     		bcs	.L10
 150:Drivers/STM32F4xx_HAL_Driver/Src/stm32f4xx_ll_usb.c ****     {
 151:Drivers/STM32F4xx_HAL_Driver/Src/stm32f4xx_ll_usb.c ****       /* hclk Clock Range between 14.2-15 MHz */
 152:Drivers/STM32F4xx_HAL_Driver/Src/stm32f4xx_ll_usb.c ****       UsbTrd = 0xFU;
 207              		.loc 1 152 14
 208 0024 0F23     		movs	r3, #15
 209 0026 7B61     		str	r3, [r7, #20]
 210 0028 62E0     		b	.L20
 211              	.L10:
 153:Drivers/STM32F4xx_HAL_Driver/Src/stm32f4xx_ll_usb.c ****     }
 154:Drivers/STM32F4xx_HAL_Driver/Src/stm32f4xx_ll_usb.c ****     else if ((hclk >= 15000000U) && (hclk < 16000000U))
 212              		.loc 1 154 13
 213 002a BB68     		ldr	r3, [r7, #8]
 214 002c 3C4A     		ldr	r2, .L23+4
 215 002e 9342     		cmp	r3, r2
 216 0030 06D3     		bcc	.L12
 217              		.loc 1 154 34 discriminator 1
 218 0032 BB68     		ldr	r3, [r7, #8]
 219 0034 3B4A     		ldr	r2, .L23+8
 220 0036 9342     		cmp	r3, r2
 221 0038 02D2     		bcs	.L12
 155:Drivers/STM32F4xx_HAL_Driver/Src/stm32f4xx_ll_usb.c ****     {
 156:Drivers/STM32F4xx_HAL_Driver/Src/stm32f4xx_ll_usb.c ****       /* hclk Clock Range between 15-16 MHz */
 157:Drivers/STM32F4xx_HAL_Driver/Src/stm32f4xx_ll_usb.c ****       UsbTrd = 0xEU;
 222              		.loc 1 157 14
 223 003a 0E23     		movs	r3, #14
 224 003c 7B61     		str	r3, [r7, #20]
 225 003e 57E0     		b	.L20
 226              	.L12:
 158:Drivers/STM32F4xx_HAL_Driver/Src/stm32f4xx_ll_usb.c ****     }
 159:Drivers/STM32F4xx_HAL_Driver/Src/stm32f4xx_ll_usb.c ****     else if ((hclk >= 16000000U) && (hclk < 17200000U))
 227              		.loc 1 159 13
 228 0040 BB68     		ldr	r3, [r7, #8]
 229 0042 384A     		ldr	r2, .L23+8
 230 0044 9342     		cmp	r3, r2
 231 0046 06D3     		bcc	.L13
 232              		.loc 1 159 34 discriminator 1
 233 0048 BB68     		ldr	r3, [r7, #8]
 234 004a 374A     		ldr	r2, .L23+12
 235 004c 9342     		cmp	r3, r2
 236 004e 02D2     		bcs	.L13
 160:Drivers/STM32F4xx_HAL_Driver/Src/stm32f4xx_ll_usb.c ****     {
 161:Drivers/STM32F4xx_HAL_Driver/Src/stm32f4xx_ll_usb.c ****       /* hclk Clock Range between 16-17.2 MHz */
 162:Drivers/STM32F4xx_HAL_Driver/Src/stm32f4xx_ll_usb.c ****       UsbTrd = 0xDU;
 237              		.loc 1 162 14
 238 0050 0D23     		movs	r3, #13
 239 0052 7B61     		str	r3, [r7, #20]
 240 0054 4CE0     		b	.L20
ARM GAS  /var/folders/vq/qt4vp3kd5rxf7v2b6_fdtdt80000gn/T//ccjOke0W.s 			page 8


 241              	.L13:
 163:Drivers/STM32F4xx_HAL_Driver/Src/stm32f4xx_ll_usb.c ****     }
 164:Drivers/STM32F4xx_HAL_Driver/Src/stm32f4xx_ll_usb.c ****     else if ((hclk >= 17200000U) && (hclk < 18500000U))
 242              		.loc 1 164 13
 243 0056 BB68     		ldr	r3, [r7, #8]
 244 0058 334A     		ldr	r2, .L23+12
 245 005a 9342     		cmp	r3, r2
 246 005c 06D3     		bcc	.L14
 247              		.loc 1 164 34 discriminator 1
 248 005e BB68     		ldr	r3, [r7, #8]
 249 0060 324A     		ldr	r2, .L23+16
 250 0062 9342     		cmp	r3, r2
 251 0064 02D8     		bhi	.L14
 165:Drivers/STM32F4xx_HAL_Driver/Src/stm32f4xx_ll_usb.c ****     {
 166:Drivers/STM32F4xx_HAL_Driver/Src/stm32f4xx_ll_usb.c ****       /* hclk Clock Range between 17.2-18.5 MHz */
 167:Drivers/STM32F4xx_HAL_Driver/Src/stm32f4xx_ll_usb.c ****       UsbTrd = 0xCU;
 252              		.loc 1 167 14
 253 0066 0C23     		movs	r3, #12
 254 0068 7B61     		str	r3, [r7, #20]
 255 006a 41E0     		b	.L20
 256              	.L14:
 168:Drivers/STM32F4xx_HAL_Driver/Src/stm32f4xx_ll_usb.c ****     }
 169:Drivers/STM32F4xx_HAL_Driver/Src/stm32f4xx_ll_usb.c ****     else if ((hclk >= 18500000U) && (hclk < 20000000U))
 257              		.loc 1 169 13
 258 006c BB68     		ldr	r3, [r7, #8]
 259 006e 2F4A     		ldr	r2, .L23+16
 260 0070 9342     		cmp	r3, r2
 261 0072 06D9     		bls	.L15
 262              		.loc 1 169 34 discriminator 1
 263 0074 BB68     		ldr	r3, [r7, #8]
 264 0076 2E4A     		ldr	r2, .L23+20
 265 0078 9342     		cmp	r3, r2
 266 007a 02D8     		bhi	.L15
 170:Drivers/STM32F4xx_HAL_Driver/Src/stm32f4xx_ll_usb.c ****     {
 171:Drivers/STM32F4xx_HAL_Driver/Src/stm32f4xx_ll_usb.c ****       /* hclk Clock Range between 18.5-20 MHz */
 172:Drivers/STM32F4xx_HAL_Driver/Src/stm32f4xx_ll_usb.c ****       UsbTrd = 0xBU;
 267              		.loc 1 172 14
 268 007c 0B23     		movs	r3, #11
 269 007e 7B61     		str	r3, [r7, #20]
 270 0080 36E0     		b	.L20
 271              	.L15:
 173:Drivers/STM32F4xx_HAL_Driver/Src/stm32f4xx_ll_usb.c ****     }
 174:Drivers/STM32F4xx_HAL_Driver/Src/stm32f4xx_ll_usb.c ****     else if ((hclk >= 20000000U) && (hclk < 21800000U))
 272              		.loc 1 174 13
 273 0082 BB68     		ldr	r3, [r7, #8]
 274 0084 2A4A     		ldr	r2, .L23+20
 275 0086 9342     		cmp	r3, r2
 276 0088 06D9     		bls	.L16
 277              		.loc 1 174 34 discriminator 1
 278 008a BB68     		ldr	r3, [r7, #8]
 279 008c 294A     		ldr	r2, .L23+24
 280 008e 9342     		cmp	r3, r2
 281 0090 02D8     		bhi	.L16
 175:Drivers/STM32F4xx_HAL_Driver/Src/stm32f4xx_ll_usb.c ****     {
 176:Drivers/STM32F4xx_HAL_Driver/Src/stm32f4xx_ll_usb.c ****       /* hclk Clock Range between 20-21.8 MHz */
 177:Drivers/STM32F4xx_HAL_Driver/Src/stm32f4xx_ll_usb.c ****       UsbTrd = 0xAU;
 282              		.loc 1 177 14
ARM GAS  /var/folders/vq/qt4vp3kd5rxf7v2b6_fdtdt80000gn/T//ccjOke0W.s 			page 9


 283 0092 0A23     		movs	r3, #10
 284 0094 7B61     		str	r3, [r7, #20]
 285 0096 2BE0     		b	.L20
 286              	.L16:
 178:Drivers/STM32F4xx_HAL_Driver/Src/stm32f4xx_ll_usb.c ****     }
 179:Drivers/STM32F4xx_HAL_Driver/Src/stm32f4xx_ll_usb.c ****     else if ((hclk >= 21800000U) && (hclk < 24000000U))
 287              		.loc 1 179 13
 288 0098 BB68     		ldr	r3, [r7, #8]
 289 009a 264A     		ldr	r2, .L23+24
 290 009c 9342     		cmp	r3, r2
 291 009e 06D9     		bls	.L17
 292              		.loc 1 179 34 discriminator 1
 293 00a0 BB68     		ldr	r3, [r7, #8]
 294 00a2 254A     		ldr	r2, .L23+28
 295 00a4 9342     		cmp	r3, r2
 296 00a6 02D2     		bcs	.L17
 180:Drivers/STM32F4xx_HAL_Driver/Src/stm32f4xx_ll_usb.c ****     {
 181:Drivers/STM32F4xx_HAL_Driver/Src/stm32f4xx_ll_usb.c ****       /* hclk Clock Range between 21.8-24 MHz */
 182:Drivers/STM32F4xx_HAL_Driver/Src/stm32f4xx_ll_usb.c ****       UsbTrd = 0x9U;
 297              		.loc 1 182 14
 298 00a8 0923     		movs	r3, #9
 299 00aa 7B61     		str	r3, [r7, #20]
 300 00ac 20E0     		b	.L20
 301              	.L17:
 183:Drivers/STM32F4xx_HAL_Driver/Src/stm32f4xx_ll_usb.c ****     }
 184:Drivers/STM32F4xx_HAL_Driver/Src/stm32f4xx_ll_usb.c ****     else if ((hclk >= 24000000U) && (hclk < 27700000U))
 302              		.loc 1 184 13
 303 00ae BB68     		ldr	r3, [r7, #8]
 304 00b0 214A     		ldr	r2, .L23+28
 305 00b2 9342     		cmp	r3, r2
 306 00b4 06D3     		bcc	.L18
 307              		.loc 1 184 34 discriminator 1
 308 00b6 BB68     		ldr	r3, [r7, #8]
 309 00b8 204A     		ldr	r2, .L23+32
 310 00ba 9342     		cmp	r3, r2
 311 00bc 02D8     		bhi	.L18
 185:Drivers/STM32F4xx_HAL_Driver/Src/stm32f4xx_ll_usb.c ****     {
 186:Drivers/STM32F4xx_HAL_Driver/Src/stm32f4xx_ll_usb.c ****       /* hclk Clock Range between 24-27.7 MHz */
 187:Drivers/STM32F4xx_HAL_Driver/Src/stm32f4xx_ll_usb.c ****       UsbTrd = 0x8U;
 312              		.loc 1 187 14
 313 00be 0823     		movs	r3, #8
 314 00c0 7B61     		str	r3, [r7, #20]
 315 00c2 15E0     		b	.L20
 316              	.L18:
 188:Drivers/STM32F4xx_HAL_Driver/Src/stm32f4xx_ll_usb.c ****     }
 189:Drivers/STM32F4xx_HAL_Driver/Src/stm32f4xx_ll_usb.c ****     else if ((hclk >= 27700000U) && (hclk < 32000000U))
 317              		.loc 1 189 13
 318 00c4 BB68     		ldr	r3, [r7, #8]
 319 00c6 1D4A     		ldr	r2, .L23+32
 320 00c8 9342     		cmp	r3, r2
 321 00ca 06D9     		bls	.L19
 322              		.loc 1 189 34 discriminator 1
 323 00cc BB68     		ldr	r3, [r7, #8]
 324 00ce 1C4A     		ldr	r2, .L23+36
 325 00d0 9342     		cmp	r3, r2
 326 00d2 02D2     		bcs	.L19
 190:Drivers/STM32F4xx_HAL_Driver/Src/stm32f4xx_ll_usb.c ****     {
ARM GAS  /var/folders/vq/qt4vp3kd5rxf7v2b6_fdtdt80000gn/T//ccjOke0W.s 			page 10


 191:Drivers/STM32F4xx_HAL_Driver/Src/stm32f4xx_ll_usb.c ****       /* hclk Clock Range between 27.7-32 MHz */
 192:Drivers/STM32F4xx_HAL_Driver/Src/stm32f4xx_ll_usb.c ****       UsbTrd = 0x7U;
 327              		.loc 1 192 14
 328 00d4 0723     		movs	r3, #7
 329 00d6 7B61     		str	r3, [r7, #20]
 330 00d8 0AE0     		b	.L20
 331              	.L19:
 193:Drivers/STM32F4xx_HAL_Driver/Src/stm32f4xx_ll_usb.c ****     }
 194:Drivers/STM32F4xx_HAL_Driver/Src/stm32f4xx_ll_usb.c ****     else /* if(hclk >= 32000000) */
 195:Drivers/STM32F4xx_HAL_Driver/Src/stm32f4xx_ll_usb.c ****     {
 196:Drivers/STM32F4xx_HAL_Driver/Src/stm32f4xx_ll_usb.c ****       /* hclk Clock Range between 32-200 MHz */
 197:Drivers/STM32F4xx_HAL_Driver/Src/stm32f4xx_ll_usb.c ****       UsbTrd = 0x6U;
 332              		.loc 1 197 14
 333 00da 0623     		movs	r3, #6
 334 00dc 7B61     		str	r3, [r7, #20]
 335 00de 07E0     		b	.L20
 336              	.L9:
 198:Drivers/STM32F4xx_HAL_Driver/Src/stm32f4xx_ll_usb.c ****     }
 199:Drivers/STM32F4xx_HAL_Driver/Src/stm32f4xx_ll_usb.c ****   }
 200:Drivers/STM32F4xx_HAL_Driver/Src/stm32f4xx_ll_usb.c ****   else if (speed == USBD_HS_SPEED)
 337              		.loc 1 200 11
 338 00e0 FB79     		ldrb	r3, [r7, #7]	@ zero_extendqisi2
 339 00e2 002B     		cmp	r3, #0
 340 00e4 02D1     		bne	.L21
 201:Drivers/STM32F4xx_HAL_Driver/Src/stm32f4xx_ll_usb.c ****   {
 202:Drivers/STM32F4xx_HAL_Driver/Src/stm32f4xx_ll_usb.c ****     UsbTrd = USBD_HS_TRDT_VALUE;
 341              		.loc 1 202 12
 342 00e6 0923     		movs	r3, #9
 343 00e8 7B61     		str	r3, [r7, #20]
 344 00ea 01E0     		b	.L20
 345              	.L21:
 203:Drivers/STM32F4xx_HAL_Driver/Src/stm32f4xx_ll_usb.c ****   }
 204:Drivers/STM32F4xx_HAL_Driver/Src/stm32f4xx_ll_usb.c ****   else
 205:Drivers/STM32F4xx_HAL_Driver/Src/stm32f4xx_ll_usb.c ****   {
 206:Drivers/STM32F4xx_HAL_Driver/Src/stm32f4xx_ll_usb.c ****     UsbTrd = USBD_DEFAULT_TRDT_VALUE;
 346              		.loc 1 206 12
 347 00ec 0923     		movs	r3, #9
 348 00ee 7B61     		str	r3, [r7, #20]
 349              	.L20:
 207:Drivers/STM32F4xx_HAL_Driver/Src/stm32f4xx_ll_usb.c ****   }
 208:Drivers/STM32F4xx_HAL_Driver/Src/stm32f4xx_ll_usb.c **** 
 209:Drivers/STM32F4xx_HAL_Driver/Src/stm32f4xx_ll_usb.c ****   USBx->GUSBCFG &= ~USB_OTG_GUSBCFG_TRDT;
 350              		.loc 1 209 17
 351 00f0 FB68     		ldr	r3, [r7, #12]
 352 00f2 DB68     		ldr	r3, [r3, #12]
 353 00f4 23F47052 		bic	r2, r3, #15360
 354 00f8 FB68     		ldr	r3, [r7, #12]
 355 00fa DA60     		str	r2, [r3, #12]
 210:Drivers/STM32F4xx_HAL_Driver/Src/stm32f4xx_ll_usb.c ****   USBx->GUSBCFG |= (uint32_t)((UsbTrd << 10) & USB_OTG_GUSBCFG_TRDT);
 356              		.loc 1 210 17
 357 00fc FB68     		ldr	r3, [r7, #12]
 358 00fe DA68     		ldr	r2, [r3, #12]
 359              		.loc 1 210 39
 360 0100 7B69     		ldr	r3, [r7, #20]
 361 0102 9B02     		lsls	r3, r3, #10
 362              		.loc 1 210 20
 363 0104 03F47053 		and	r3, r3, #15360
ARM GAS  /var/folders/vq/qt4vp3kd5rxf7v2b6_fdtdt80000gn/T//ccjOke0W.s 			page 11


 364              		.loc 1 210 17
 365 0108 1A43     		orrs	r2, r2, r3
 366 010a FB68     		ldr	r3, [r7, #12]
 367 010c DA60     		str	r2, [r3, #12]
 211:Drivers/STM32F4xx_HAL_Driver/Src/stm32f4xx_ll_usb.c **** 
 212:Drivers/STM32F4xx_HAL_Driver/Src/stm32f4xx_ll_usb.c ****   return HAL_OK;
 368              		.loc 1 212 10
 369 010e 0023     		movs	r3, #0
 213:Drivers/STM32F4xx_HAL_Driver/Src/stm32f4xx_ll_usb.c **** }
 370              		.loc 1 213 1
 371 0110 1846     		mov	r0, r3
 372 0112 1C37     		adds	r7, r7, #28
 373              	.LCFI11:
 374              		.cfi_def_cfa_offset 4
 375 0114 BD46     		mov	sp, r7
 376              	.LCFI12:
 377              		.cfi_def_cfa_register 13
 378              		@ sp needed
 379 0116 5DF8047B 		ldr	r7, [sp], #4
 380              	.LCFI13:
 381              		.cfi_restore 7
 382              		.cfi_def_cfa_offset 0
 383 011a 7047     		bx	lr
 384              	.L24:
 385              		.align	2
 386              	.L23:
 387 011c BFACD800 		.word	14199999
 388 0120 C0E1E400 		.word	15000000
 389 0124 0024F400 		.word	16000000
 390 0128 80730601 		.word	17200000
 391 012c 9F491A01 		.word	18499999
 392 0130 FF2C3101 		.word	19999999
 393 0134 3FA44C01 		.word	21799999
 394 0138 00366E01 		.word	24000000
 395 013c 1FABA601 		.word	27699999
 396 0140 0048E801 		.word	32000000
 397              		.cfi_endproc
 398              	.LFE131:
 400              		.section	.text.USB_EnableGlobalInt,"ax",%progbits
 401              		.align	1
 402              		.global	USB_EnableGlobalInt
 403              		.syntax unified
 404              		.thumb
 405              		.thumb_func
 406              		.fpu fpv4-sp-d16
 408              	USB_EnableGlobalInt:
 409              	.LFB132:
 214:Drivers/STM32F4xx_HAL_Driver/Src/stm32f4xx_ll_usb.c **** 
 215:Drivers/STM32F4xx_HAL_Driver/Src/stm32f4xx_ll_usb.c **** /**
 216:Drivers/STM32F4xx_HAL_Driver/Src/stm32f4xx_ll_usb.c ****   * @brief  USB_EnableGlobalInt
 217:Drivers/STM32F4xx_HAL_Driver/Src/stm32f4xx_ll_usb.c ****   *         Enables the controller's Global Int in the AHB Config reg
 218:Drivers/STM32F4xx_HAL_Driver/Src/stm32f4xx_ll_usb.c ****   * @param  USBx  Selected device
 219:Drivers/STM32F4xx_HAL_Driver/Src/stm32f4xx_ll_usb.c ****   * @retval HAL status
 220:Drivers/STM32F4xx_HAL_Driver/Src/stm32f4xx_ll_usb.c ****   */
 221:Drivers/STM32F4xx_HAL_Driver/Src/stm32f4xx_ll_usb.c **** HAL_StatusTypeDef USB_EnableGlobalInt(USB_OTG_GlobalTypeDef *USBx)
 222:Drivers/STM32F4xx_HAL_Driver/Src/stm32f4xx_ll_usb.c **** {
 410              		.loc 1 222 1
ARM GAS  /var/folders/vq/qt4vp3kd5rxf7v2b6_fdtdt80000gn/T//ccjOke0W.s 			page 12


 411              		.cfi_startproc
 412              		@ args = 0, pretend = 0, frame = 8
 413              		@ frame_needed = 1, uses_anonymous_args = 0
 414              		@ link register save eliminated.
 415 0000 80B4     		push	{r7}
 416              	.LCFI14:
 417              		.cfi_def_cfa_offset 4
 418              		.cfi_offset 7, -4
 419 0002 83B0     		sub	sp, sp, #12
 420              	.LCFI15:
 421              		.cfi_def_cfa_offset 16
 422 0004 00AF     		add	r7, sp, #0
 423              	.LCFI16:
 424              		.cfi_def_cfa_register 7
 425 0006 7860     		str	r0, [r7, #4]
 223:Drivers/STM32F4xx_HAL_Driver/Src/stm32f4xx_ll_usb.c ****   USBx->GAHBCFG |= USB_OTG_GAHBCFG_GINT;
 426              		.loc 1 223 17
 427 0008 7B68     		ldr	r3, [r7, #4]
 428 000a 9B68     		ldr	r3, [r3, #8]
 429 000c 43F00102 		orr	r2, r3, #1
 430 0010 7B68     		ldr	r3, [r7, #4]
 431 0012 9A60     		str	r2, [r3, #8]
 224:Drivers/STM32F4xx_HAL_Driver/Src/stm32f4xx_ll_usb.c ****   return HAL_OK;
 432              		.loc 1 224 10
 433 0014 0023     		movs	r3, #0
 225:Drivers/STM32F4xx_HAL_Driver/Src/stm32f4xx_ll_usb.c **** }
 434              		.loc 1 225 1
 435 0016 1846     		mov	r0, r3
 436 0018 0C37     		adds	r7, r7, #12
 437              	.LCFI17:
 438              		.cfi_def_cfa_offset 4
 439 001a BD46     		mov	sp, r7
 440              	.LCFI18:
 441              		.cfi_def_cfa_register 13
 442              		@ sp needed
 443 001c 5DF8047B 		ldr	r7, [sp], #4
 444              	.LCFI19:
 445              		.cfi_restore 7
 446              		.cfi_def_cfa_offset 0
 447 0020 7047     		bx	lr
 448              		.cfi_endproc
 449              	.LFE132:
 451              		.section	.text.USB_DisableGlobalInt,"ax",%progbits
 452              		.align	1
 453              		.global	USB_DisableGlobalInt
 454              		.syntax unified
 455              		.thumb
 456              		.thumb_func
 457              		.fpu fpv4-sp-d16
 459              	USB_DisableGlobalInt:
 460              	.LFB133:
 226:Drivers/STM32F4xx_HAL_Driver/Src/stm32f4xx_ll_usb.c **** 
 227:Drivers/STM32F4xx_HAL_Driver/Src/stm32f4xx_ll_usb.c **** /**
 228:Drivers/STM32F4xx_HAL_Driver/Src/stm32f4xx_ll_usb.c ****   * @brief  USB_DisableGlobalInt
 229:Drivers/STM32F4xx_HAL_Driver/Src/stm32f4xx_ll_usb.c ****   *         Disable the controller's Global Int in the AHB Config reg
 230:Drivers/STM32F4xx_HAL_Driver/Src/stm32f4xx_ll_usb.c ****   * @param  USBx  Selected device
 231:Drivers/STM32F4xx_HAL_Driver/Src/stm32f4xx_ll_usb.c ****   * @retval HAL status
ARM GAS  /var/folders/vq/qt4vp3kd5rxf7v2b6_fdtdt80000gn/T//ccjOke0W.s 			page 13


 232:Drivers/STM32F4xx_HAL_Driver/Src/stm32f4xx_ll_usb.c ****   */
 233:Drivers/STM32F4xx_HAL_Driver/Src/stm32f4xx_ll_usb.c **** HAL_StatusTypeDef USB_DisableGlobalInt(USB_OTG_GlobalTypeDef *USBx)
 234:Drivers/STM32F4xx_HAL_Driver/Src/stm32f4xx_ll_usb.c **** {
 461              		.loc 1 234 1
 462              		.cfi_startproc
 463              		@ args = 0, pretend = 0, frame = 8
 464              		@ frame_needed = 1, uses_anonymous_args = 0
 465              		@ link register save eliminated.
 466 0000 80B4     		push	{r7}
 467              	.LCFI20:
 468              		.cfi_def_cfa_offset 4
 469              		.cfi_offset 7, -4
 470 0002 83B0     		sub	sp, sp, #12
 471              	.LCFI21:
 472              		.cfi_def_cfa_offset 16
 473 0004 00AF     		add	r7, sp, #0
 474              	.LCFI22:
 475              		.cfi_def_cfa_register 7
 476 0006 7860     		str	r0, [r7, #4]
 235:Drivers/STM32F4xx_HAL_Driver/Src/stm32f4xx_ll_usb.c ****   USBx->GAHBCFG &= ~USB_OTG_GAHBCFG_GINT;
 477              		.loc 1 235 17
 478 0008 7B68     		ldr	r3, [r7, #4]
 479 000a 9B68     		ldr	r3, [r3, #8]
 480 000c 23F00102 		bic	r2, r3, #1
 481 0010 7B68     		ldr	r3, [r7, #4]
 482 0012 9A60     		str	r2, [r3, #8]
 236:Drivers/STM32F4xx_HAL_Driver/Src/stm32f4xx_ll_usb.c ****   return HAL_OK;
 483              		.loc 1 236 10
 484 0014 0023     		movs	r3, #0
 237:Drivers/STM32F4xx_HAL_Driver/Src/stm32f4xx_ll_usb.c **** }
 485              		.loc 1 237 1
 486 0016 1846     		mov	r0, r3
 487 0018 0C37     		adds	r7, r7, #12
 488              	.LCFI23:
 489              		.cfi_def_cfa_offset 4
 490 001a BD46     		mov	sp, r7
 491              	.LCFI24:
 492              		.cfi_def_cfa_register 13
 493              		@ sp needed
 494 001c 5DF8047B 		ldr	r7, [sp], #4
 495              	.LCFI25:
 496              		.cfi_restore 7
 497              		.cfi_def_cfa_offset 0
 498 0020 7047     		bx	lr
 499              		.cfi_endproc
 500              	.LFE133:
 502              		.section	.text.USB_SetCurrentMode,"ax",%progbits
 503              		.align	1
 504              		.global	USB_SetCurrentMode
 505              		.syntax unified
 506              		.thumb
 507              		.thumb_func
 508              		.fpu fpv4-sp-d16
 510              	USB_SetCurrentMode:
 511              	.LFB134:
 238:Drivers/STM32F4xx_HAL_Driver/Src/stm32f4xx_ll_usb.c **** 
 239:Drivers/STM32F4xx_HAL_Driver/Src/stm32f4xx_ll_usb.c **** /**
ARM GAS  /var/folders/vq/qt4vp3kd5rxf7v2b6_fdtdt80000gn/T//ccjOke0W.s 			page 14


 240:Drivers/STM32F4xx_HAL_Driver/Src/stm32f4xx_ll_usb.c ****   * @brief  USB_SetCurrentMode Set functional mode
 241:Drivers/STM32F4xx_HAL_Driver/Src/stm32f4xx_ll_usb.c ****   * @param  USBx  Selected device
 242:Drivers/STM32F4xx_HAL_Driver/Src/stm32f4xx_ll_usb.c ****   * @param  mode  current core mode
 243:Drivers/STM32F4xx_HAL_Driver/Src/stm32f4xx_ll_usb.c ****   *          This parameter can be one of these values:
 244:Drivers/STM32F4xx_HAL_Driver/Src/stm32f4xx_ll_usb.c ****   *            @arg USB_DEVICE_MODE Peripheral mode
 245:Drivers/STM32F4xx_HAL_Driver/Src/stm32f4xx_ll_usb.c ****   *            @arg USB_HOST_MODE Host mode
 246:Drivers/STM32F4xx_HAL_Driver/Src/stm32f4xx_ll_usb.c ****   * @retval HAL status
 247:Drivers/STM32F4xx_HAL_Driver/Src/stm32f4xx_ll_usb.c ****   */
 248:Drivers/STM32F4xx_HAL_Driver/Src/stm32f4xx_ll_usb.c **** HAL_StatusTypeDef USB_SetCurrentMode(USB_OTG_GlobalTypeDef *USBx, USB_OTG_ModeTypeDef mode)
 249:Drivers/STM32F4xx_HAL_Driver/Src/stm32f4xx_ll_usb.c **** {
 512              		.loc 1 249 1
 513              		.cfi_startproc
 514              		@ args = 0, pretend = 0, frame = 8
 515              		@ frame_needed = 1, uses_anonymous_args = 0
 516 0000 80B5     		push	{r7, lr}
 517              	.LCFI26:
 518              		.cfi_def_cfa_offset 8
 519              		.cfi_offset 7, -8
 520              		.cfi_offset 14, -4
 521 0002 82B0     		sub	sp, sp, #8
 522              	.LCFI27:
 523              		.cfi_def_cfa_offset 16
 524 0004 00AF     		add	r7, sp, #0
 525              	.LCFI28:
 526              		.cfi_def_cfa_register 7
 527 0006 7860     		str	r0, [r7, #4]
 528 0008 0B46     		mov	r3, r1
 529 000a FB70     		strb	r3, [r7, #3]
 250:Drivers/STM32F4xx_HAL_Driver/Src/stm32f4xx_ll_usb.c ****   USBx->GUSBCFG &= ~(USB_OTG_GUSBCFG_FHMOD | USB_OTG_GUSBCFG_FDMOD);
 530              		.loc 1 250 17
 531 000c 7B68     		ldr	r3, [r7, #4]
 532 000e DB68     		ldr	r3, [r3, #12]
 533 0010 23F0C042 		bic	r2, r3, #1610612736
 534 0014 7B68     		ldr	r3, [r7, #4]
 535 0016 DA60     		str	r2, [r3, #12]
 251:Drivers/STM32F4xx_HAL_Driver/Src/stm32f4xx_ll_usb.c **** 
 252:Drivers/STM32F4xx_HAL_Driver/Src/stm32f4xx_ll_usb.c ****   if (mode == USB_HOST_MODE)
 536              		.loc 1 252 6
 537 0018 FB78     		ldrb	r3, [r7, #3]	@ zero_extendqisi2
 538 001a 012B     		cmp	r3, #1
 539 001c 06D1     		bne	.L30
 253:Drivers/STM32F4xx_HAL_Driver/Src/stm32f4xx_ll_usb.c ****   {
 254:Drivers/STM32F4xx_HAL_Driver/Src/stm32f4xx_ll_usb.c ****     USBx->GUSBCFG |= USB_OTG_GUSBCFG_FHMOD;
 540              		.loc 1 254 19
 541 001e 7B68     		ldr	r3, [r7, #4]
 542 0020 DB68     		ldr	r3, [r3, #12]
 543 0022 43F00052 		orr	r2, r3, #536870912
 544 0026 7B68     		ldr	r3, [r7, #4]
 545 0028 DA60     		str	r2, [r3, #12]
 546 002a 0BE0     		b	.L31
 547              	.L30:
 255:Drivers/STM32F4xx_HAL_Driver/Src/stm32f4xx_ll_usb.c ****   }
 256:Drivers/STM32F4xx_HAL_Driver/Src/stm32f4xx_ll_usb.c ****   else if (mode == USB_DEVICE_MODE)
 548              		.loc 1 256 11
 549 002c FB78     		ldrb	r3, [r7, #3]	@ zero_extendqisi2
 550 002e 002B     		cmp	r3, #0
 551 0030 06D1     		bne	.L32
ARM GAS  /var/folders/vq/qt4vp3kd5rxf7v2b6_fdtdt80000gn/T//ccjOke0W.s 			page 15


 257:Drivers/STM32F4xx_HAL_Driver/Src/stm32f4xx_ll_usb.c ****   {
 258:Drivers/STM32F4xx_HAL_Driver/Src/stm32f4xx_ll_usb.c ****     USBx->GUSBCFG |= USB_OTG_GUSBCFG_FDMOD;
 552              		.loc 1 258 19
 553 0032 7B68     		ldr	r3, [r7, #4]
 554 0034 DB68     		ldr	r3, [r3, #12]
 555 0036 43F08042 		orr	r2, r3, #1073741824
 556 003a 7B68     		ldr	r3, [r7, #4]
 557 003c DA60     		str	r2, [r3, #12]
 558 003e 01E0     		b	.L31
 559              	.L32:
 259:Drivers/STM32F4xx_HAL_Driver/Src/stm32f4xx_ll_usb.c ****   }
 260:Drivers/STM32F4xx_HAL_Driver/Src/stm32f4xx_ll_usb.c ****   else
 261:Drivers/STM32F4xx_HAL_Driver/Src/stm32f4xx_ll_usb.c ****   {
 262:Drivers/STM32F4xx_HAL_Driver/Src/stm32f4xx_ll_usb.c ****     return HAL_ERROR;
 560              		.loc 1 262 12
 561 0040 0123     		movs	r3, #1
 562 0042 03E0     		b	.L33
 563              	.L31:
 263:Drivers/STM32F4xx_HAL_Driver/Src/stm32f4xx_ll_usb.c ****   }
 264:Drivers/STM32F4xx_HAL_Driver/Src/stm32f4xx_ll_usb.c ****   HAL_Delay(50U);
 564              		.loc 1 264 3
 565 0044 3220     		movs	r0, #50
 566 0046 FFF7FEFF 		bl	HAL_Delay
 265:Drivers/STM32F4xx_HAL_Driver/Src/stm32f4xx_ll_usb.c **** 
 266:Drivers/STM32F4xx_HAL_Driver/Src/stm32f4xx_ll_usb.c ****   return HAL_OK;
 567              		.loc 1 266 10
 568 004a 0023     		movs	r3, #0
 569              	.L33:
 267:Drivers/STM32F4xx_HAL_Driver/Src/stm32f4xx_ll_usb.c **** }
 570              		.loc 1 267 1
 571 004c 1846     		mov	r0, r3
 572 004e 0837     		adds	r7, r7, #8
 573              	.LCFI29:
 574              		.cfi_def_cfa_offset 8
 575 0050 BD46     		mov	sp, r7
 576              	.LCFI30:
 577              		.cfi_def_cfa_register 13
 578              		@ sp needed
 579 0052 80BD     		pop	{r7, pc}
 580              		.cfi_endproc
 581              	.LFE134:
 583              		.section	.text.USB_DevInit,"ax",%progbits
 584              		.align	1
 585              		.global	USB_DevInit
 586              		.syntax unified
 587              		.thumb
 588              		.thumb_func
 589              		.fpu fpv4-sp-d16
 591              	USB_DevInit:
 592              	.LFB135:
 268:Drivers/STM32F4xx_HAL_Driver/Src/stm32f4xx_ll_usb.c **** 
 269:Drivers/STM32F4xx_HAL_Driver/Src/stm32f4xx_ll_usb.c **** /**
 270:Drivers/STM32F4xx_HAL_Driver/Src/stm32f4xx_ll_usb.c ****   * @brief  USB_DevInit Initializes the USB_OTG controller registers
 271:Drivers/STM32F4xx_HAL_Driver/Src/stm32f4xx_ll_usb.c ****   *         for device mode
 272:Drivers/STM32F4xx_HAL_Driver/Src/stm32f4xx_ll_usb.c ****   * @param  USBx  Selected device
 273:Drivers/STM32F4xx_HAL_Driver/Src/stm32f4xx_ll_usb.c ****   * @param  cfg   pointer to a USB_OTG_CfgTypeDef structure that contains
 274:Drivers/STM32F4xx_HAL_Driver/Src/stm32f4xx_ll_usb.c ****   *         the configuration information for the specified USBx peripheral.
ARM GAS  /var/folders/vq/qt4vp3kd5rxf7v2b6_fdtdt80000gn/T//ccjOke0W.s 			page 16


 275:Drivers/STM32F4xx_HAL_Driver/Src/stm32f4xx_ll_usb.c ****   * @retval HAL status
 276:Drivers/STM32F4xx_HAL_Driver/Src/stm32f4xx_ll_usb.c ****   */
 277:Drivers/STM32F4xx_HAL_Driver/Src/stm32f4xx_ll_usb.c **** HAL_StatusTypeDef USB_DevInit(USB_OTG_GlobalTypeDef *USBx, USB_OTG_CfgTypeDef cfg)
 278:Drivers/STM32F4xx_HAL_Driver/Src/stm32f4xx_ll_usb.c **** {
 593              		.loc 1 278 1
 594              		.cfi_startproc
 595              		@ args = 56, pretend = 16, frame = 24
 596              		@ frame_needed = 1, uses_anonymous_args = 0
 597 0000 84B0     		sub	sp, sp, #16
 598              	.LCFI31:
 599              		.cfi_def_cfa_offset 16
 600 0002 80B5     		push	{r7, lr}
 601              	.LCFI32:
 602              		.cfi_def_cfa_offset 24
 603              		.cfi_offset 7, -24
 604              		.cfi_offset 14, -20
 605 0004 86B0     		sub	sp, sp, #24
 606              	.LCFI33:
 607              		.cfi_def_cfa_offset 48
 608 0006 00AF     		add	r7, sp, #0
 609              	.LCFI34:
 610              		.cfi_def_cfa_register 7
 611 0008 7860     		str	r0, [r7, #4]
 612 000a 07F12400 		add	r0, r7, #36
 613 000e 80E80E00 		stm	r0, {r1, r2, r3}
 279:Drivers/STM32F4xx_HAL_Driver/Src/stm32f4xx_ll_usb.c ****   HAL_StatusTypeDef ret = HAL_OK;
 614              		.loc 1 279 21
 615 0012 0023     		movs	r3, #0
 616 0014 FB75     		strb	r3, [r7, #23]
 280:Drivers/STM32F4xx_HAL_Driver/Src/stm32f4xx_ll_usb.c ****   uint32_t USBx_BASE = (uint32_t)USBx;
 617              		.loc 1 280 12
 618 0016 7B68     		ldr	r3, [r7, #4]
 619 0018 FB60     		str	r3, [r7, #12]
 281:Drivers/STM32F4xx_HAL_Driver/Src/stm32f4xx_ll_usb.c ****   uint32_t i;
 282:Drivers/STM32F4xx_HAL_Driver/Src/stm32f4xx_ll_usb.c **** 
 283:Drivers/STM32F4xx_HAL_Driver/Src/stm32f4xx_ll_usb.c ****   for (i = 0U; i < 15U; i++)
 620              		.loc 1 283 10
 621 001a 0023     		movs	r3, #0
 622 001c 3B61     		str	r3, [r7, #16]
 623              		.loc 1 283 3
 624 001e 09E0     		b	.L35
 625              	.L36:
 284:Drivers/STM32F4xx_HAL_Driver/Src/stm32f4xx_ll_usb.c ****   {
 285:Drivers/STM32F4xx_HAL_Driver/Src/stm32f4xx_ll_usb.c ****     USBx->DIEPTXF[i] = 0U;
 626              		.loc 1 285 22 discriminator 3
 627 0020 7A68     		ldr	r2, [r7, #4]
 628 0022 3B69     		ldr	r3, [r7, #16]
 629 0024 4033     		adds	r3, r3, #64
 630 0026 9B00     		lsls	r3, r3, #2
 631 0028 1344     		add	r3, r3, r2
 632 002a 0022     		movs	r2, #0
 633 002c 5A60     		str	r2, [r3, #4]
 283:Drivers/STM32F4xx_HAL_Driver/Src/stm32f4xx_ll_usb.c ****   {
 634              		.loc 1 283 26 discriminator 3
 635 002e 3B69     		ldr	r3, [r7, #16]
 636 0030 0133     		adds	r3, r3, #1
 637 0032 3B61     		str	r3, [r7, #16]
ARM GAS  /var/folders/vq/qt4vp3kd5rxf7v2b6_fdtdt80000gn/T//ccjOke0W.s 			page 17


 638              	.L35:
 283:Drivers/STM32F4xx_HAL_Driver/Src/stm32f4xx_ll_usb.c ****   {
 639              		.loc 1 283 3 discriminator 1
 640 0034 3B69     		ldr	r3, [r7, #16]
 641 0036 0E2B     		cmp	r3, #14
 642 0038 F2D9     		bls	.L36
 286:Drivers/STM32F4xx_HAL_Driver/Src/stm32f4xx_ll_usb.c ****   }
 287:Drivers/STM32F4xx_HAL_Driver/Src/stm32f4xx_ll_usb.c **** 
 288:Drivers/STM32F4xx_HAL_Driver/Src/stm32f4xx_ll_usb.c **** #if defined(STM32F446xx) || defined(STM32F469xx) || defined(STM32F479xx) || defined(STM32F412Zx) ||
 289:Drivers/STM32F4xx_HAL_Driver/Src/stm32f4xx_ll_usb.c ****   /* VBUS Sensing setup */
 290:Drivers/STM32F4xx_HAL_Driver/Src/stm32f4xx_ll_usb.c ****   if (cfg.vbus_sensing_enable == 0U)
 291:Drivers/STM32F4xx_HAL_Driver/Src/stm32f4xx_ll_usb.c ****   {
 292:Drivers/STM32F4xx_HAL_Driver/Src/stm32f4xx_ll_usb.c ****     USBx_DEVICE->DCTL |= USB_OTG_DCTL_SDIS;
 293:Drivers/STM32F4xx_HAL_Driver/Src/stm32f4xx_ll_usb.c **** 
 294:Drivers/STM32F4xx_HAL_Driver/Src/stm32f4xx_ll_usb.c ****     /* Deactivate VBUS Sensing B */
 295:Drivers/STM32F4xx_HAL_Driver/Src/stm32f4xx_ll_usb.c ****     USBx->GCCFG &= ~USB_OTG_GCCFG_VBDEN;
 296:Drivers/STM32F4xx_HAL_Driver/Src/stm32f4xx_ll_usb.c **** 
 297:Drivers/STM32F4xx_HAL_Driver/Src/stm32f4xx_ll_usb.c ****     /* B-peripheral session valid override enable */
 298:Drivers/STM32F4xx_HAL_Driver/Src/stm32f4xx_ll_usb.c ****     USBx->GOTGCTL |= USB_OTG_GOTGCTL_BVALOEN;
 299:Drivers/STM32F4xx_HAL_Driver/Src/stm32f4xx_ll_usb.c ****     USBx->GOTGCTL |= USB_OTG_GOTGCTL_BVALOVAL;
 300:Drivers/STM32F4xx_HAL_Driver/Src/stm32f4xx_ll_usb.c ****   }
 301:Drivers/STM32F4xx_HAL_Driver/Src/stm32f4xx_ll_usb.c ****   else
 302:Drivers/STM32F4xx_HAL_Driver/Src/stm32f4xx_ll_usb.c ****   {
 303:Drivers/STM32F4xx_HAL_Driver/Src/stm32f4xx_ll_usb.c ****     /* Enable HW VBUS sensing */
 304:Drivers/STM32F4xx_HAL_Driver/Src/stm32f4xx_ll_usb.c ****     USBx->GCCFG |= USB_OTG_GCCFG_VBDEN;
 305:Drivers/STM32F4xx_HAL_Driver/Src/stm32f4xx_ll_usb.c ****   }
 306:Drivers/STM32F4xx_HAL_Driver/Src/stm32f4xx_ll_usb.c **** #else
 307:Drivers/STM32F4xx_HAL_Driver/Src/stm32f4xx_ll_usb.c ****   /* VBUS Sensing setup */
 308:Drivers/STM32F4xx_HAL_Driver/Src/stm32f4xx_ll_usb.c ****   if (cfg.vbus_sensing_enable == 0U)
 643              		.loc 1 308 10
 644 003a FB6C     		ldr	r3, [r7, #76]
 645              		.loc 1 308 6
 646 003c 002B     		cmp	r3, #0
 647 003e 1CD1     		bne	.L37
 309:Drivers/STM32F4xx_HAL_Driver/Src/stm32f4xx_ll_usb.c ****   {
 310:Drivers/STM32F4xx_HAL_Driver/Src/stm32f4xx_ll_usb.c ****     /*
 311:Drivers/STM32F4xx_HAL_Driver/Src/stm32f4xx_ll_usb.c ****      * Disable HW VBUS sensing. VBUS is internally considered to be always
 312:Drivers/STM32F4xx_HAL_Driver/Src/stm32f4xx_ll_usb.c ****      * at VBUS-Valid level (5V).
 313:Drivers/STM32F4xx_HAL_Driver/Src/stm32f4xx_ll_usb.c ****      */
 314:Drivers/STM32F4xx_HAL_Driver/Src/stm32f4xx_ll_usb.c ****     USBx_DEVICE->DCTL |= USB_OTG_DCTL_SDIS;
 648              		.loc 1 314 23
 649 0040 FB68     		ldr	r3, [r7, #12]
 650 0042 03F50063 		add	r3, r3, #2048
 651 0046 5B68     		ldr	r3, [r3, #4]
 652 0048 FA68     		ldr	r2, [r7, #12]
 653 004a 02F50062 		add	r2, r2, #2048
 654 004e 43F00203 		orr	r3, r3, #2
 655 0052 5360     		str	r3, [r2, #4]
 315:Drivers/STM32F4xx_HAL_Driver/Src/stm32f4xx_ll_usb.c ****     USBx->GCCFG |= USB_OTG_GCCFG_NOVBUSSENS;
 656              		.loc 1 315 17
 657 0054 7B68     		ldr	r3, [r7, #4]
 658 0056 9B6B     		ldr	r3, [r3, #56]
 659 0058 43F40012 		orr	r2, r3, #2097152
 660 005c 7B68     		ldr	r3, [r7, #4]
 661 005e 9A63     		str	r2, [r3, #56]
 316:Drivers/STM32F4xx_HAL_Driver/Src/stm32f4xx_ll_usb.c ****     USBx->GCCFG &= ~USB_OTG_GCCFG_VBUSBSEN;
 662              		.loc 1 316 17
ARM GAS  /var/folders/vq/qt4vp3kd5rxf7v2b6_fdtdt80000gn/T//ccjOke0W.s 			page 18


 663 0060 7B68     		ldr	r3, [r7, #4]
 664 0062 9B6B     		ldr	r3, [r3, #56]
 665 0064 23F40022 		bic	r2, r3, #524288
 666 0068 7B68     		ldr	r3, [r7, #4]
 667 006a 9A63     		str	r2, [r3, #56]
 317:Drivers/STM32F4xx_HAL_Driver/Src/stm32f4xx_ll_usb.c ****     USBx->GCCFG &= ~USB_OTG_GCCFG_VBUSASEN;
 668              		.loc 1 317 17
 669 006c 7B68     		ldr	r3, [r7, #4]
 670 006e 9B6B     		ldr	r3, [r3, #56]
 671 0070 23F48022 		bic	r2, r3, #262144
 672 0074 7B68     		ldr	r3, [r7, #4]
 673 0076 9A63     		str	r2, [r3, #56]
 674 0078 0BE0     		b	.L38
 675              	.L37:
 318:Drivers/STM32F4xx_HAL_Driver/Src/stm32f4xx_ll_usb.c ****   }
 319:Drivers/STM32F4xx_HAL_Driver/Src/stm32f4xx_ll_usb.c ****   else
 320:Drivers/STM32F4xx_HAL_Driver/Src/stm32f4xx_ll_usb.c ****   {
 321:Drivers/STM32F4xx_HAL_Driver/Src/stm32f4xx_ll_usb.c ****     /* Enable HW VBUS sensing */
 322:Drivers/STM32F4xx_HAL_Driver/Src/stm32f4xx_ll_usb.c ****     USBx->GCCFG &= ~USB_OTG_GCCFG_NOVBUSSENS;
 676              		.loc 1 322 17
 677 007a 7B68     		ldr	r3, [r7, #4]
 678 007c 9B6B     		ldr	r3, [r3, #56]
 679 007e 23F40012 		bic	r2, r3, #2097152
 680 0082 7B68     		ldr	r3, [r7, #4]
 681 0084 9A63     		str	r2, [r3, #56]
 323:Drivers/STM32F4xx_HAL_Driver/Src/stm32f4xx_ll_usb.c ****     USBx->GCCFG |= USB_OTG_GCCFG_VBUSBSEN;
 682              		.loc 1 323 17
 683 0086 7B68     		ldr	r3, [r7, #4]
 684 0088 9B6B     		ldr	r3, [r3, #56]
 685 008a 43F40022 		orr	r2, r3, #524288
 686 008e 7B68     		ldr	r3, [r7, #4]
 687 0090 9A63     		str	r2, [r3, #56]
 688              	.L38:
 324:Drivers/STM32F4xx_HAL_Driver/Src/stm32f4xx_ll_usb.c ****   }
 325:Drivers/STM32F4xx_HAL_Driver/Src/stm32f4xx_ll_usb.c **** #endif /* defined(STM32F446xx) || defined(STM32F469xx) || defined(STM32F479xx) || defined(STM32F412
 326:Drivers/STM32F4xx_HAL_Driver/Src/stm32f4xx_ll_usb.c **** 
 327:Drivers/STM32F4xx_HAL_Driver/Src/stm32f4xx_ll_usb.c ****   /* Restart the Phy Clock */
 328:Drivers/STM32F4xx_HAL_Driver/Src/stm32f4xx_ll_usb.c ****   USBx_PCGCCTL = 0U;
 689              		.loc 1 328 3
 690 0092 FB68     		ldr	r3, [r7, #12]
 691 0094 03F56063 		add	r3, r3, #3584
 692 0098 1A46     		mov	r2, r3
 693              		.loc 1 328 16
 694 009a 0023     		movs	r3, #0
 695 009c 1360     		str	r3, [r2]
 329:Drivers/STM32F4xx_HAL_Driver/Src/stm32f4xx_ll_usb.c **** 
 330:Drivers/STM32F4xx_HAL_Driver/Src/stm32f4xx_ll_usb.c ****   /* Device mode configuration */
 331:Drivers/STM32F4xx_HAL_Driver/Src/stm32f4xx_ll_usb.c ****   USBx_DEVICE->DCFG |= DCFG_FRAME_INTERVAL_80;
 696              		.loc 1 331 21
 697 009e FB68     		ldr	r3, [r7, #12]
 698 00a0 03F50063 		add	r3, r3, #2048
 699 00a4 1946     		mov	r1, r3
 700 00a6 FB68     		ldr	r3, [r7, #12]
 701 00a8 03F50063 		add	r3, r3, #2048
 702 00ac 1A46     		mov	r2, r3
 703 00ae 0B68     		ldr	r3, [r1]
 704 00b0 1360     		str	r3, [r2]
ARM GAS  /var/folders/vq/qt4vp3kd5rxf7v2b6_fdtdt80000gn/T//ccjOke0W.s 			page 19


 332:Drivers/STM32F4xx_HAL_Driver/Src/stm32f4xx_ll_usb.c **** 
 333:Drivers/STM32F4xx_HAL_Driver/Src/stm32f4xx_ll_usb.c ****   if (cfg.phy_itface == USB_OTG_ULPI_PHY)
 705              		.loc 1 333 10
 706 00b2 BB6B     		ldr	r3, [r7, #56]
 707              		.loc 1 333 6
 708 00b4 012B     		cmp	r3, #1
 709 00b6 0CD1     		bne	.L39
 334:Drivers/STM32F4xx_HAL_Driver/Src/stm32f4xx_ll_usb.c ****   {
 335:Drivers/STM32F4xx_HAL_Driver/Src/stm32f4xx_ll_usb.c ****     if (cfg.speed == USBD_HS_SPEED)
 710              		.loc 1 335 12
 711 00b8 FB6A     		ldr	r3, [r7, #44]
 712              		.loc 1 335 8
 713 00ba 002B     		cmp	r3, #0
 714 00bc 04D1     		bne	.L40
 336:Drivers/STM32F4xx_HAL_Driver/Src/stm32f4xx_ll_usb.c ****     {
 337:Drivers/STM32F4xx_HAL_Driver/Src/stm32f4xx_ll_usb.c ****       /* Set Core speed to High speed mode */
 338:Drivers/STM32F4xx_HAL_Driver/Src/stm32f4xx_ll_usb.c ****       (void)USB_SetDevSpeed(USBx, USB_OTG_SPEED_HIGH);
 715              		.loc 1 338 13
 716 00be 0021     		movs	r1, #0
 717 00c0 7868     		ldr	r0, [r7, #4]
 718 00c2 FFF7FEFF 		bl	USB_SetDevSpeed
 719 00c6 08E0     		b	.L41
 720              	.L40:
 339:Drivers/STM32F4xx_HAL_Driver/Src/stm32f4xx_ll_usb.c ****     }
 340:Drivers/STM32F4xx_HAL_Driver/Src/stm32f4xx_ll_usb.c ****     else
 341:Drivers/STM32F4xx_HAL_Driver/Src/stm32f4xx_ll_usb.c ****     {
 342:Drivers/STM32F4xx_HAL_Driver/Src/stm32f4xx_ll_usb.c ****       /* Set Core speed to Full speed mode */
 343:Drivers/STM32F4xx_HAL_Driver/Src/stm32f4xx_ll_usb.c ****       (void)USB_SetDevSpeed(USBx, USB_OTG_SPEED_HIGH_IN_FULL);
 721              		.loc 1 343 13
 722 00c8 0121     		movs	r1, #1
 723 00ca 7868     		ldr	r0, [r7, #4]
 724 00cc FFF7FEFF 		bl	USB_SetDevSpeed
 725 00d0 03E0     		b	.L41
 726              	.L39:
 344:Drivers/STM32F4xx_HAL_Driver/Src/stm32f4xx_ll_usb.c ****     }
 345:Drivers/STM32F4xx_HAL_Driver/Src/stm32f4xx_ll_usb.c ****   }
 346:Drivers/STM32F4xx_HAL_Driver/Src/stm32f4xx_ll_usb.c ****   else
 347:Drivers/STM32F4xx_HAL_Driver/Src/stm32f4xx_ll_usb.c ****   {
 348:Drivers/STM32F4xx_HAL_Driver/Src/stm32f4xx_ll_usb.c ****     /* Set Core speed to Full speed mode */
 349:Drivers/STM32F4xx_HAL_Driver/Src/stm32f4xx_ll_usb.c ****     (void)USB_SetDevSpeed(USBx, USB_OTG_SPEED_FULL);
 727              		.loc 1 349 11
 728 00d2 0321     		movs	r1, #3
 729 00d4 7868     		ldr	r0, [r7, #4]
 730 00d6 FFF7FEFF 		bl	USB_SetDevSpeed
 731              	.L41:
 350:Drivers/STM32F4xx_HAL_Driver/Src/stm32f4xx_ll_usb.c ****   }
 351:Drivers/STM32F4xx_HAL_Driver/Src/stm32f4xx_ll_usb.c **** 
 352:Drivers/STM32F4xx_HAL_Driver/Src/stm32f4xx_ll_usb.c ****   /* Flush the FIFOs */
 353:Drivers/STM32F4xx_HAL_Driver/Src/stm32f4xx_ll_usb.c ****   if (USB_FlushTxFifo(USBx, 0x10U) != HAL_OK) /* all Tx FIFOs */
 732              		.loc 1 353 7
 733 00da 1021     		movs	r1, #16
 734 00dc 7868     		ldr	r0, [r7, #4]
 735 00de FFF7FEFF 		bl	USB_FlushTxFifo
 736 00e2 0346     		mov	r3, r0
 737              		.loc 1 353 6
 738 00e4 002B     		cmp	r3, #0
 739 00e6 01D0     		beq	.L42
ARM GAS  /var/folders/vq/qt4vp3kd5rxf7v2b6_fdtdt80000gn/T//ccjOke0W.s 			page 20


 354:Drivers/STM32F4xx_HAL_Driver/Src/stm32f4xx_ll_usb.c ****   {
 355:Drivers/STM32F4xx_HAL_Driver/Src/stm32f4xx_ll_usb.c ****     ret = HAL_ERROR;
 740              		.loc 1 355 9
 741 00e8 0123     		movs	r3, #1
 742 00ea FB75     		strb	r3, [r7, #23]
 743              	.L42:
 356:Drivers/STM32F4xx_HAL_Driver/Src/stm32f4xx_ll_usb.c ****   }
 357:Drivers/STM32F4xx_HAL_Driver/Src/stm32f4xx_ll_usb.c **** 
 358:Drivers/STM32F4xx_HAL_Driver/Src/stm32f4xx_ll_usb.c ****   if (USB_FlushRxFifo(USBx) != HAL_OK)
 744              		.loc 1 358 7
 745 00ec 7868     		ldr	r0, [r7, #4]
 746 00ee FFF7FEFF 		bl	USB_FlushRxFifo
 747 00f2 0346     		mov	r3, r0
 748              		.loc 1 358 6
 749 00f4 002B     		cmp	r3, #0
 750 00f6 01D0     		beq	.L43
 359:Drivers/STM32F4xx_HAL_Driver/Src/stm32f4xx_ll_usb.c ****   {
 360:Drivers/STM32F4xx_HAL_Driver/Src/stm32f4xx_ll_usb.c ****     ret = HAL_ERROR;
 751              		.loc 1 360 9
 752 00f8 0123     		movs	r3, #1
 753 00fa FB75     		strb	r3, [r7, #23]
 754              	.L43:
 361:Drivers/STM32F4xx_HAL_Driver/Src/stm32f4xx_ll_usb.c ****   }
 362:Drivers/STM32F4xx_HAL_Driver/Src/stm32f4xx_ll_usb.c **** 
 363:Drivers/STM32F4xx_HAL_Driver/Src/stm32f4xx_ll_usb.c ****   /* Clear all pending Device Interrupts */
 364:Drivers/STM32F4xx_HAL_Driver/Src/stm32f4xx_ll_usb.c ****   USBx_DEVICE->DIEPMSK = 0U;
 755              		.loc 1 364 3
 756 00fc FB68     		ldr	r3, [r7, #12]
 757 00fe 03F50063 		add	r3, r3, #2048
 758 0102 1A46     		mov	r2, r3
 759              		.loc 1 364 24
 760 0104 0023     		movs	r3, #0
 761 0106 1361     		str	r3, [r2, #16]
 365:Drivers/STM32F4xx_HAL_Driver/Src/stm32f4xx_ll_usb.c ****   USBx_DEVICE->DOEPMSK = 0U;
 762              		.loc 1 365 3
 763 0108 FB68     		ldr	r3, [r7, #12]
 764 010a 03F50063 		add	r3, r3, #2048
 765 010e 1A46     		mov	r2, r3
 766              		.loc 1 365 24
 767 0110 0023     		movs	r3, #0
 768 0112 5361     		str	r3, [r2, #20]
 366:Drivers/STM32F4xx_HAL_Driver/Src/stm32f4xx_ll_usb.c ****   USBx_DEVICE->DAINTMSK = 0U;
 769              		.loc 1 366 3
 770 0114 FB68     		ldr	r3, [r7, #12]
 771 0116 03F50063 		add	r3, r3, #2048
 772 011a 1A46     		mov	r2, r3
 773              		.loc 1 366 25
 774 011c 0023     		movs	r3, #0
 775 011e D361     		str	r3, [r2, #28]
 367:Drivers/STM32F4xx_HAL_Driver/Src/stm32f4xx_ll_usb.c **** 
 368:Drivers/STM32F4xx_HAL_Driver/Src/stm32f4xx_ll_usb.c ****   for (i = 0U; i < cfg.dev_endpoints; i++)
 776              		.loc 1 368 10
 777 0120 0023     		movs	r3, #0
 778 0122 3B61     		str	r3, [r7, #16]
 779              		.loc 1 368 3
 780 0124 43E0     		b	.L44
 781              	.L48:
ARM GAS  /var/folders/vq/qt4vp3kd5rxf7v2b6_fdtdt80000gn/T//ccjOke0W.s 			page 21


 369:Drivers/STM32F4xx_HAL_Driver/Src/stm32f4xx_ll_usb.c ****   {
 370:Drivers/STM32F4xx_HAL_Driver/Src/stm32f4xx_ll_usb.c ****     if ((USBx_INEP(i)->DIEPCTL & USB_OTG_DIEPCTL_EPENA) == USB_OTG_DIEPCTL_EPENA)
 782              		.loc 1 370 10
 783 0126 3B69     		ldr	r3, [r7, #16]
 784 0128 5A01     		lsls	r2, r3, #5
 785 012a FB68     		ldr	r3, [r7, #12]
 786 012c 1344     		add	r3, r3, r2
 787 012e 03F51063 		add	r3, r3, #2304
 788              		.loc 1 370 22
 789 0132 1B68     		ldr	r3, [r3]
 790              		.loc 1 370 32
 791 0134 03F00043 		and	r3, r3, #-2147483648
 792              		.loc 1 370 8
 793 0138 B3F1004F 		cmp	r3, #-2147483648
 794 013c 18D1     		bne	.L45
 371:Drivers/STM32F4xx_HAL_Driver/Src/stm32f4xx_ll_usb.c ****     {
 372:Drivers/STM32F4xx_HAL_Driver/Src/stm32f4xx_ll_usb.c ****       if (i == 0U)
 795              		.loc 1 372 10
 796 013e 3B69     		ldr	r3, [r7, #16]
 797 0140 002B     		cmp	r3, #0
 798 0142 0AD1     		bne	.L46
 373:Drivers/STM32F4xx_HAL_Driver/Src/stm32f4xx_ll_usb.c ****       {
 374:Drivers/STM32F4xx_HAL_Driver/Src/stm32f4xx_ll_usb.c ****         USBx_INEP(i)->DIEPCTL = USB_OTG_DIEPCTL_SNAK;
 799              		.loc 1 374 9
 800 0144 3B69     		ldr	r3, [r7, #16]
 801 0146 5A01     		lsls	r2, r3, #5
 802 0148 FB68     		ldr	r3, [r7, #12]
 803 014a 1344     		add	r3, r3, r2
 804 014c 03F51063 		add	r3, r3, #2304
 805 0150 1A46     		mov	r2, r3
 806              		.loc 1 374 31
 807 0152 4FF00063 		mov	r3, #134217728
 808 0156 1360     		str	r3, [r2]
 809 0158 13E0     		b	.L47
 810              	.L46:
 375:Drivers/STM32F4xx_HAL_Driver/Src/stm32f4xx_ll_usb.c ****       }
 376:Drivers/STM32F4xx_HAL_Driver/Src/stm32f4xx_ll_usb.c ****       else
 377:Drivers/STM32F4xx_HAL_Driver/Src/stm32f4xx_ll_usb.c ****       {
 378:Drivers/STM32F4xx_HAL_Driver/Src/stm32f4xx_ll_usb.c ****         USBx_INEP(i)->DIEPCTL = USB_OTG_DIEPCTL_EPDIS | USB_OTG_DIEPCTL_SNAK;
 811              		.loc 1 378 9
 812 015a 3B69     		ldr	r3, [r7, #16]
 813 015c 5A01     		lsls	r2, r3, #5
 814 015e FB68     		ldr	r3, [r7, #12]
 815 0160 1344     		add	r3, r3, r2
 816 0162 03F51063 		add	r3, r3, #2304
 817 0166 1A46     		mov	r2, r3
 818              		.loc 1 378 31
 819 0168 4FF09043 		mov	r3, #1207959552
 820 016c 1360     		str	r3, [r2]
 821 016e 08E0     		b	.L47
 822              	.L45:
 379:Drivers/STM32F4xx_HAL_Driver/Src/stm32f4xx_ll_usb.c ****       }
 380:Drivers/STM32F4xx_HAL_Driver/Src/stm32f4xx_ll_usb.c ****     }
 381:Drivers/STM32F4xx_HAL_Driver/Src/stm32f4xx_ll_usb.c ****     else
 382:Drivers/STM32F4xx_HAL_Driver/Src/stm32f4xx_ll_usb.c ****     {
 383:Drivers/STM32F4xx_HAL_Driver/Src/stm32f4xx_ll_usb.c ****       USBx_INEP(i)->DIEPCTL = 0U;
 823              		.loc 1 383 7
ARM GAS  /var/folders/vq/qt4vp3kd5rxf7v2b6_fdtdt80000gn/T//ccjOke0W.s 			page 22


 824 0170 3B69     		ldr	r3, [r7, #16]
 825 0172 5A01     		lsls	r2, r3, #5
 826 0174 FB68     		ldr	r3, [r7, #12]
 827 0176 1344     		add	r3, r3, r2
 828 0178 03F51063 		add	r3, r3, #2304
 829 017c 1A46     		mov	r2, r3
 830              		.loc 1 383 29
 831 017e 0023     		movs	r3, #0
 832 0180 1360     		str	r3, [r2]
 833              	.L47:
 384:Drivers/STM32F4xx_HAL_Driver/Src/stm32f4xx_ll_usb.c ****     }
 385:Drivers/STM32F4xx_HAL_Driver/Src/stm32f4xx_ll_usb.c **** 
 386:Drivers/STM32F4xx_HAL_Driver/Src/stm32f4xx_ll_usb.c ****     USBx_INEP(i)->DIEPTSIZ = 0U;
 834              		.loc 1 386 5 discriminator 2
 835 0182 3B69     		ldr	r3, [r7, #16]
 836 0184 5A01     		lsls	r2, r3, #5
 837 0186 FB68     		ldr	r3, [r7, #12]
 838 0188 1344     		add	r3, r3, r2
 839 018a 03F51063 		add	r3, r3, #2304
 840 018e 1A46     		mov	r2, r3
 841              		.loc 1 386 28 discriminator 2
 842 0190 0023     		movs	r3, #0
 843 0192 1361     		str	r3, [r2, #16]
 387:Drivers/STM32F4xx_HAL_Driver/Src/stm32f4xx_ll_usb.c ****     USBx_INEP(i)->DIEPINT  = 0xFB7FU;
 844              		.loc 1 387 5 discriminator 2
 845 0194 3B69     		ldr	r3, [r7, #16]
 846 0196 5A01     		lsls	r2, r3, #5
 847 0198 FB68     		ldr	r3, [r7, #12]
 848 019a 1344     		add	r3, r3, r2
 849 019c 03F51063 		add	r3, r3, #2304
 850 01a0 1A46     		mov	r2, r3
 851              		.loc 1 387 28 discriminator 2
 852 01a2 4FF67F33 		movw	r3, #64383
 853 01a6 9360     		str	r3, [r2, #8]
 368:Drivers/STM32F4xx_HAL_Driver/Src/stm32f4xx_ll_usb.c ****   {
 854              		.loc 1 368 40 discriminator 2
 855 01a8 3B69     		ldr	r3, [r7, #16]
 856 01aa 0133     		adds	r3, r3, #1
 857 01ac 3B61     		str	r3, [r7, #16]
 858              	.L44:
 368:Drivers/STM32F4xx_HAL_Driver/Src/stm32f4xx_ll_usb.c ****   {
 859              		.loc 1 368 23 discriminator 1
 860 01ae 7B6A     		ldr	r3, [r7, #36]
 368:Drivers/STM32F4xx_HAL_Driver/Src/stm32f4xx_ll_usb.c ****   {
 861              		.loc 1 368 3 discriminator 1
 862 01b0 3A69     		ldr	r2, [r7, #16]
 863 01b2 9A42     		cmp	r2, r3
 864 01b4 B7D3     		bcc	.L48
 388:Drivers/STM32F4xx_HAL_Driver/Src/stm32f4xx_ll_usb.c ****   }
 389:Drivers/STM32F4xx_HAL_Driver/Src/stm32f4xx_ll_usb.c **** 
 390:Drivers/STM32F4xx_HAL_Driver/Src/stm32f4xx_ll_usb.c ****   for (i = 0U; i < cfg.dev_endpoints; i++)
 865              		.loc 1 390 10
 866 01b6 0023     		movs	r3, #0
 867 01b8 3B61     		str	r3, [r7, #16]
 868              		.loc 1 390 3
 869 01ba 43E0     		b	.L49
 870              	.L53:
ARM GAS  /var/folders/vq/qt4vp3kd5rxf7v2b6_fdtdt80000gn/T//ccjOke0W.s 			page 23


 391:Drivers/STM32F4xx_HAL_Driver/Src/stm32f4xx_ll_usb.c ****   {
 392:Drivers/STM32F4xx_HAL_Driver/Src/stm32f4xx_ll_usb.c ****     if ((USBx_OUTEP(i)->DOEPCTL & USB_OTG_DOEPCTL_EPENA) == USB_OTG_DOEPCTL_EPENA)
 871              		.loc 1 392 10
 872 01bc 3B69     		ldr	r3, [r7, #16]
 873 01be 5A01     		lsls	r2, r3, #5
 874 01c0 FB68     		ldr	r3, [r7, #12]
 875 01c2 1344     		add	r3, r3, r2
 876 01c4 03F53063 		add	r3, r3, #2816
 877              		.loc 1 392 23
 878 01c8 1B68     		ldr	r3, [r3]
 879              		.loc 1 392 33
 880 01ca 03F00043 		and	r3, r3, #-2147483648
 881              		.loc 1 392 8
 882 01ce B3F1004F 		cmp	r3, #-2147483648
 883 01d2 18D1     		bne	.L50
 393:Drivers/STM32F4xx_HAL_Driver/Src/stm32f4xx_ll_usb.c ****     {
 394:Drivers/STM32F4xx_HAL_Driver/Src/stm32f4xx_ll_usb.c ****       if (i == 0U)
 884              		.loc 1 394 10
 885 01d4 3B69     		ldr	r3, [r7, #16]
 886 01d6 002B     		cmp	r3, #0
 887 01d8 0AD1     		bne	.L51
 395:Drivers/STM32F4xx_HAL_Driver/Src/stm32f4xx_ll_usb.c ****       {
 396:Drivers/STM32F4xx_HAL_Driver/Src/stm32f4xx_ll_usb.c ****         USBx_OUTEP(i)->DOEPCTL = USB_OTG_DOEPCTL_SNAK;
 888              		.loc 1 396 9
 889 01da 3B69     		ldr	r3, [r7, #16]
 890 01dc 5A01     		lsls	r2, r3, #5
 891 01de FB68     		ldr	r3, [r7, #12]
 892 01e0 1344     		add	r3, r3, r2
 893 01e2 03F53063 		add	r3, r3, #2816
 894 01e6 1A46     		mov	r2, r3
 895              		.loc 1 396 32
 896 01e8 4FF00063 		mov	r3, #134217728
 897 01ec 1360     		str	r3, [r2]
 898 01ee 13E0     		b	.L52
 899              	.L51:
 397:Drivers/STM32F4xx_HAL_Driver/Src/stm32f4xx_ll_usb.c ****       }
 398:Drivers/STM32F4xx_HAL_Driver/Src/stm32f4xx_ll_usb.c ****       else
 399:Drivers/STM32F4xx_HAL_Driver/Src/stm32f4xx_ll_usb.c ****       {
 400:Drivers/STM32F4xx_HAL_Driver/Src/stm32f4xx_ll_usb.c ****         USBx_OUTEP(i)->DOEPCTL = USB_OTG_DOEPCTL_EPDIS | USB_OTG_DOEPCTL_SNAK;
 900              		.loc 1 400 9
 901 01f0 3B69     		ldr	r3, [r7, #16]
 902 01f2 5A01     		lsls	r2, r3, #5
 903 01f4 FB68     		ldr	r3, [r7, #12]
 904 01f6 1344     		add	r3, r3, r2
 905 01f8 03F53063 		add	r3, r3, #2816
 906 01fc 1A46     		mov	r2, r3
 907              		.loc 1 400 32
 908 01fe 4FF09043 		mov	r3, #1207959552
 909 0202 1360     		str	r3, [r2]
 910 0204 08E0     		b	.L52
 911              	.L50:
 401:Drivers/STM32F4xx_HAL_Driver/Src/stm32f4xx_ll_usb.c ****       }
 402:Drivers/STM32F4xx_HAL_Driver/Src/stm32f4xx_ll_usb.c ****     }
 403:Drivers/STM32F4xx_HAL_Driver/Src/stm32f4xx_ll_usb.c ****     else
 404:Drivers/STM32F4xx_HAL_Driver/Src/stm32f4xx_ll_usb.c ****     {
 405:Drivers/STM32F4xx_HAL_Driver/Src/stm32f4xx_ll_usb.c ****       USBx_OUTEP(i)->DOEPCTL = 0U;
 912              		.loc 1 405 7
ARM GAS  /var/folders/vq/qt4vp3kd5rxf7v2b6_fdtdt80000gn/T//ccjOke0W.s 			page 24


 913 0206 3B69     		ldr	r3, [r7, #16]
 914 0208 5A01     		lsls	r2, r3, #5
 915 020a FB68     		ldr	r3, [r7, #12]
 916 020c 1344     		add	r3, r3, r2
 917 020e 03F53063 		add	r3, r3, #2816
 918 0212 1A46     		mov	r2, r3
 919              		.loc 1 405 30
 920 0214 0023     		movs	r3, #0
 921 0216 1360     		str	r3, [r2]
 922              	.L52:
 406:Drivers/STM32F4xx_HAL_Driver/Src/stm32f4xx_ll_usb.c ****     }
 407:Drivers/STM32F4xx_HAL_Driver/Src/stm32f4xx_ll_usb.c **** 
 408:Drivers/STM32F4xx_HAL_Driver/Src/stm32f4xx_ll_usb.c ****     USBx_OUTEP(i)->DOEPTSIZ = 0U;
 923              		.loc 1 408 5 discriminator 2
 924 0218 3B69     		ldr	r3, [r7, #16]
 925 021a 5A01     		lsls	r2, r3, #5
 926 021c FB68     		ldr	r3, [r7, #12]
 927 021e 1344     		add	r3, r3, r2
 928 0220 03F53063 		add	r3, r3, #2816
 929 0224 1A46     		mov	r2, r3
 930              		.loc 1 408 29 discriminator 2
 931 0226 0023     		movs	r3, #0
 932 0228 1361     		str	r3, [r2, #16]
 409:Drivers/STM32F4xx_HAL_Driver/Src/stm32f4xx_ll_usb.c ****     USBx_OUTEP(i)->DOEPINT  = 0xFB7FU;
 933              		.loc 1 409 5 discriminator 2
 934 022a 3B69     		ldr	r3, [r7, #16]
 935 022c 5A01     		lsls	r2, r3, #5
 936 022e FB68     		ldr	r3, [r7, #12]
 937 0230 1344     		add	r3, r3, r2
 938 0232 03F53063 		add	r3, r3, #2816
 939 0236 1A46     		mov	r2, r3
 940              		.loc 1 409 29 discriminator 2
 941 0238 4FF67F33 		movw	r3, #64383
 942 023c 9360     		str	r3, [r2, #8]
 390:Drivers/STM32F4xx_HAL_Driver/Src/stm32f4xx_ll_usb.c ****   {
 943              		.loc 1 390 40 discriminator 2
 944 023e 3B69     		ldr	r3, [r7, #16]
 945 0240 0133     		adds	r3, r3, #1
 946 0242 3B61     		str	r3, [r7, #16]
 947              	.L49:
 390:Drivers/STM32F4xx_HAL_Driver/Src/stm32f4xx_ll_usb.c ****   {
 948              		.loc 1 390 23 discriminator 1
 949 0244 7B6A     		ldr	r3, [r7, #36]
 390:Drivers/STM32F4xx_HAL_Driver/Src/stm32f4xx_ll_usb.c ****   {
 950              		.loc 1 390 3 discriminator 1
 951 0246 3A69     		ldr	r2, [r7, #16]
 952 0248 9A42     		cmp	r2, r3
 953 024a B7D3     		bcc	.L53
 410:Drivers/STM32F4xx_HAL_Driver/Src/stm32f4xx_ll_usb.c ****   }
 411:Drivers/STM32F4xx_HAL_Driver/Src/stm32f4xx_ll_usb.c **** 
 412:Drivers/STM32F4xx_HAL_Driver/Src/stm32f4xx_ll_usb.c ****   USBx_DEVICE->DIEPMSK &= ~(USB_OTG_DIEPMSK_TXFURM);
 954              		.loc 1 412 24
 955 024c FB68     		ldr	r3, [r7, #12]
 956 024e 03F50063 		add	r3, r3, #2048
 957 0252 1B69     		ldr	r3, [r3, #16]
 958 0254 FA68     		ldr	r2, [r7, #12]
 959 0256 02F50062 		add	r2, r2, #2048
ARM GAS  /var/folders/vq/qt4vp3kd5rxf7v2b6_fdtdt80000gn/T//ccjOke0W.s 			page 25


 960 025a 23F48073 		bic	r3, r3, #256
 961 025e 1361     		str	r3, [r2, #16]
 413:Drivers/STM32F4xx_HAL_Driver/Src/stm32f4xx_ll_usb.c **** 
 414:Drivers/STM32F4xx_HAL_Driver/Src/stm32f4xx_ll_usb.c ****   /* Disable all interrupts. */
 415:Drivers/STM32F4xx_HAL_Driver/Src/stm32f4xx_ll_usb.c ****   USBx->GINTMSK = 0U;
 962              		.loc 1 415 17
 963 0260 7B68     		ldr	r3, [r7, #4]
 964 0262 0022     		movs	r2, #0
 965 0264 9A61     		str	r2, [r3, #24]
 416:Drivers/STM32F4xx_HAL_Driver/Src/stm32f4xx_ll_usb.c **** 
 417:Drivers/STM32F4xx_HAL_Driver/Src/stm32f4xx_ll_usb.c ****   /* Clear any pending interrupts */
 418:Drivers/STM32F4xx_HAL_Driver/Src/stm32f4xx_ll_usb.c ****   USBx->GINTSTS = 0xBFFFFFFFU;
 966              		.loc 1 418 17
 967 0266 7B68     		ldr	r3, [r7, #4]
 968 0268 6FF08042 		mvn	r2, #1073741824
 969 026c 5A61     		str	r2, [r3, #20]
 419:Drivers/STM32F4xx_HAL_Driver/Src/stm32f4xx_ll_usb.c **** 
 420:Drivers/STM32F4xx_HAL_Driver/Src/stm32f4xx_ll_usb.c ****   /* Enable the common interrupts */
 421:Drivers/STM32F4xx_HAL_Driver/Src/stm32f4xx_ll_usb.c ****   if (cfg.dma_enable == 0U)
 970              		.loc 1 421 10
 971 026e 3B6B     		ldr	r3, [r7, #48]
 972              		.loc 1 421 6
 973 0270 002B     		cmp	r3, #0
 974 0272 05D1     		bne	.L54
 422:Drivers/STM32F4xx_HAL_Driver/Src/stm32f4xx_ll_usb.c ****   {
 423:Drivers/STM32F4xx_HAL_Driver/Src/stm32f4xx_ll_usb.c ****     USBx->GINTMSK |= USB_OTG_GINTMSK_RXFLVLM;
 975              		.loc 1 423 19
 976 0274 7B68     		ldr	r3, [r7, #4]
 977 0276 9B69     		ldr	r3, [r3, #24]
 978 0278 43F01002 		orr	r2, r3, #16
 979 027c 7B68     		ldr	r3, [r7, #4]
 980 027e 9A61     		str	r2, [r3, #24]
 981              	.L54:
 424:Drivers/STM32F4xx_HAL_Driver/Src/stm32f4xx_ll_usb.c ****   }
 425:Drivers/STM32F4xx_HAL_Driver/Src/stm32f4xx_ll_usb.c **** 
 426:Drivers/STM32F4xx_HAL_Driver/Src/stm32f4xx_ll_usb.c ****   /* Enable interrupts matching to the Device mode ONLY */
 427:Drivers/STM32F4xx_HAL_Driver/Src/stm32f4xx_ll_usb.c ****   USBx->GINTMSK |= USB_OTG_GINTMSK_USBSUSPM | USB_OTG_GINTMSK_USBRST |
 982              		.loc 1 427 17
 983 0280 7B68     		ldr	r3, [r7, #4]
 984 0282 9A69     		ldr	r2, [r3, #24]
 985 0284 0F4B     		ldr	r3, .L58
 986 0286 1343     		orrs	r3, r3, r2
 987 0288 7A68     		ldr	r2, [r7, #4]
 988 028a 9361     		str	r3, [r2, #24]
 428:Drivers/STM32F4xx_HAL_Driver/Src/stm32f4xx_ll_usb.c ****                    USB_OTG_GINTMSK_ENUMDNEM | USB_OTG_GINTMSK_IEPINT |
 429:Drivers/STM32F4xx_HAL_Driver/Src/stm32f4xx_ll_usb.c ****                    USB_OTG_GINTMSK_OEPINT   | USB_OTG_GINTMSK_IISOIXFRM |
 430:Drivers/STM32F4xx_HAL_Driver/Src/stm32f4xx_ll_usb.c ****                    USB_OTG_GINTMSK_PXFRM_IISOOXFRM | USB_OTG_GINTMSK_WUIM;
 431:Drivers/STM32F4xx_HAL_Driver/Src/stm32f4xx_ll_usb.c **** 
 432:Drivers/STM32F4xx_HAL_Driver/Src/stm32f4xx_ll_usb.c ****   if (cfg.Sof_enable != 0U)
 989              		.loc 1 432 10
 990 028c FB6B     		ldr	r3, [r7, #60]
 991              		.loc 1 432 6
 992 028e 002B     		cmp	r3, #0
 993 0290 05D0     		beq	.L55
 433:Drivers/STM32F4xx_HAL_Driver/Src/stm32f4xx_ll_usb.c ****   {
 434:Drivers/STM32F4xx_HAL_Driver/Src/stm32f4xx_ll_usb.c ****     USBx->GINTMSK |= USB_OTG_GINTMSK_SOFM;
 994              		.loc 1 434 19
ARM GAS  /var/folders/vq/qt4vp3kd5rxf7v2b6_fdtdt80000gn/T//ccjOke0W.s 			page 26


 995 0292 7B68     		ldr	r3, [r7, #4]
 996 0294 9B69     		ldr	r3, [r3, #24]
 997 0296 43F00802 		orr	r2, r3, #8
 998 029a 7B68     		ldr	r3, [r7, #4]
 999 029c 9A61     		str	r2, [r3, #24]
 1000              	.L55:
 435:Drivers/STM32F4xx_HAL_Driver/Src/stm32f4xx_ll_usb.c ****   }
 436:Drivers/STM32F4xx_HAL_Driver/Src/stm32f4xx_ll_usb.c **** 
 437:Drivers/STM32F4xx_HAL_Driver/Src/stm32f4xx_ll_usb.c ****   if (cfg.vbus_sensing_enable == 1U)
 1001              		.loc 1 437 10
 1002 029e FB6C     		ldr	r3, [r7, #76]
 1003              		.loc 1 437 6
 1004 02a0 012B     		cmp	r3, #1
 1005 02a2 07D1     		bne	.L56
 438:Drivers/STM32F4xx_HAL_Driver/Src/stm32f4xx_ll_usb.c ****   {
 439:Drivers/STM32F4xx_HAL_Driver/Src/stm32f4xx_ll_usb.c ****     USBx->GINTMSK |= (USB_OTG_GINTMSK_SRQIM | USB_OTG_GINTMSK_OTGINT);
 1006              		.loc 1 439 19
 1007 02a4 7B68     		ldr	r3, [r7, #4]
 1008 02a6 9B69     		ldr	r3, [r3, #24]
 1009 02a8 43F08043 		orr	r3, r3, #1073741824
 1010 02ac 43F00403 		orr	r3, r3, #4
 1011 02b0 7A68     		ldr	r2, [r7, #4]
 1012 02b2 9361     		str	r3, [r2, #24]
 1013              	.L56:
 440:Drivers/STM32F4xx_HAL_Driver/Src/stm32f4xx_ll_usb.c ****   }
 441:Drivers/STM32F4xx_HAL_Driver/Src/stm32f4xx_ll_usb.c **** 
 442:Drivers/STM32F4xx_HAL_Driver/Src/stm32f4xx_ll_usb.c ****   return ret;
 1014              		.loc 1 442 10
 1015 02b4 FB7D     		ldrb	r3, [r7, #23]	@ zero_extendqisi2
 443:Drivers/STM32F4xx_HAL_Driver/Src/stm32f4xx_ll_usb.c **** }
 1016              		.loc 1 443 1
 1017 02b6 1846     		mov	r0, r3
 1018 02b8 1837     		adds	r7, r7, #24
 1019              	.LCFI35:
 1020              		.cfi_def_cfa_offset 24
 1021 02ba BD46     		mov	sp, r7
 1022              	.LCFI36:
 1023              		.cfi_def_cfa_register 13
 1024              		@ sp needed
 1025 02bc BDE88040 		pop	{r7, lr}
 1026              	.LCFI37:
 1027              		.cfi_restore 14
 1028              		.cfi_restore 7
 1029              		.cfi_def_cfa_offset 16
 1030 02c0 04B0     		add	sp, sp, #16
 1031              	.LCFI38:
 1032              		.cfi_def_cfa_offset 0
 1033 02c2 7047     		bx	lr
 1034              	.L59:
 1035              		.align	2
 1036              	.L58:
 1037 02c4 00383C80 		.word	-2143537152
 1038              		.cfi_endproc
 1039              	.LFE135:
 1041              		.section	.text.USB_FlushTxFifo,"ax",%progbits
 1042              		.align	1
 1043              		.global	USB_FlushTxFifo
ARM GAS  /var/folders/vq/qt4vp3kd5rxf7v2b6_fdtdt80000gn/T//ccjOke0W.s 			page 27


 1044              		.syntax unified
 1045              		.thumb
 1046              		.thumb_func
 1047              		.fpu fpv4-sp-d16
 1049              	USB_FlushTxFifo:
 1050              	.LFB136:
 444:Drivers/STM32F4xx_HAL_Driver/Src/stm32f4xx_ll_usb.c **** 
 445:Drivers/STM32F4xx_HAL_Driver/Src/stm32f4xx_ll_usb.c **** /**
 446:Drivers/STM32F4xx_HAL_Driver/Src/stm32f4xx_ll_usb.c ****   * @brief  USB_OTG_FlushTxFifo : Flush a Tx FIFO
 447:Drivers/STM32F4xx_HAL_Driver/Src/stm32f4xx_ll_usb.c ****   * @param  USBx  Selected device
 448:Drivers/STM32F4xx_HAL_Driver/Src/stm32f4xx_ll_usb.c ****   * @param  num  FIFO number
 449:Drivers/STM32F4xx_HAL_Driver/Src/stm32f4xx_ll_usb.c ****   *         This parameter can be a value from 1 to 15
 450:Drivers/STM32F4xx_HAL_Driver/Src/stm32f4xx_ll_usb.c ****             15 means Flush all Tx FIFOs
 451:Drivers/STM32F4xx_HAL_Driver/Src/stm32f4xx_ll_usb.c ****   * @retval HAL status
 452:Drivers/STM32F4xx_HAL_Driver/Src/stm32f4xx_ll_usb.c ****   */
 453:Drivers/STM32F4xx_HAL_Driver/Src/stm32f4xx_ll_usb.c **** HAL_StatusTypeDef USB_FlushTxFifo(USB_OTG_GlobalTypeDef *USBx, uint32_t num)
 454:Drivers/STM32F4xx_HAL_Driver/Src/stm32f4xx_ll_usb.c **** {
 1051              		.loc 1 454 1
 1052              		.cfi_startproc
 1053              		@ args = 0, pretend = 0, frame = 16
 1054              		@ frame_needed = 1, uses_anonymous_args = 0
 1055              		@ link register save eliminated.
 1056 0000 80B4     		push	{r7}
 1057              	.LCFI39:
 1058              		.cfi_def_cfa_offset 4
 1059              		.cfi_offset 7, -4
 1060 0002 85B0     		sub	sp, sp, #20
 1061              	.LCFI40:
 1062              		.cfi_def_cfa_offset 24
 1063 0004 00AF     		add	r7, sp, #0
 1064              	.LCFI41:
 1065              		.cfi_def_cfa_register 7
 1066 0006 7860     		str	r0, [r7, #4]
 1067 0008 3960     		str	r1, [r7]
 455:Drivers/STM32F4xx_HAL_Driver/Src/stm32f4xx_ll_usb.c ****   uint32_t count = 0U;
 1068              		.loc 1 455 12
 1069 000a 0023     		movs	r3, #0
 1070 000c FB60     		str	r3, [r7, #12]
 456:Drivers/STM32F4xx_HAL_Driver/Src/stm32f4xx_ll_usb.c **** 
 457:Drivers/STM32F4xx_HAL_Driver/Src/stm32f4xx_ll_usb.c ****   USBx->GRSTCTL = (USB_OTG_GRSTCTL_TXFFLSH | (num << 6));
 1071              		.loc 1 457 51
 1072 000e 3B68     		ldr	r3, [r7]
 1073 0010 9B01     		lsls	r3, r3, #6
 1074              		.loc 1 457 44
 1075 0012 43F02002 		orr	r2, r3, #32
 1076              		.loc 1 457 17
 1077 0016 7B68     		ldr	r3, [r7, #4]
 1078 0018 1A61     		str	r2, [r3, #16]
 1079              	.L63:
 458:Drivers/STM32F4xx_HAL_Driver/Src/stm32f4xx_ll_usb.c **** 
 459:Drivers/STM32F4xx_HAL_Driver/Src/stm32f4xx_ll_usb.c ****   do
 460:Drivers/STM32F4xx_HAL_Driver/Src/stm32f4xx_ll_usb.c ****   {
 461:Drivers/STM32F4xx_HAL_Driver/Src/stm32f4xx_ll_usb.c ****     if (++count > 200000U)
 1080              		.loc 1 461 8
 1081 001a FB68     		ldr	r3, [r7, #12]
 1082 001c 0133     		adds	r3, r3, #1
 1083 001e FB60     		str	r3, [r7, #12]
ARM GAS  /var/folders/vq/qt4vp3kd5rxf7v2b6_fdtdt80000gn/T//ccjOke0W.s 			page 28


 1084 0020 FB68     		ldr	r3, [r7, #12]
 1085 0022 094A     		ldr	r2, .L64
 1086 0024 9342     		cmp	r3, r2
 1087 0026 01D9     		bls	.L61
 462:Drivers/STM32F4xx_HAL_Driver/Src/stm32f4xx_ll_usb.c ****     {
 463:Drivers/STM32F4xx_HAL_Driver/Src/stm32f4xx_ll_usb.c ****       return HAL_TIMEOUT;
 1088              		.loc 1 463 14
 1089 0028 0323     		movs	r3, #3
 1090 002a 06E0     		b	.L62
 1091              	.L61:
 464:Drivers/STM32F4xx_HAL_Driver/Src/stm32f4xx_ll_usb.c ****     }
 465:Drivers/STM32F4xx_HAL_Driver/Src/stm32f4xx_ll_usb.c ****   } while ((USBx->GRSTCTL & USB_OTG_GRSTCTL_TXFFLSH) == USB_OTG_GRSTCTL_TXFFLSH);
 1092              		.loc 1 465 17
 1093 002c 7B68     		ldr	r3, [r7, #4]
 1094 002e 1B69     		ldr	r3, [r3, #16]
 1095              		.loc 1 465 27
 1096 0030 03F02003 		and	r3, r3, #32
 1097              		.loc 1 465 3
 1098 0034 202B     		cmp	r3, #32
 1099 0036 F0D0     		beq	.L63
 466:Drivers/STM32F4xx_HAL_Driver/Src/stm32f4xx_ll_usb.c **** 
 467:Drivers/STM32F4xx_HAL_Driver/Src/stm32f4xx_ll_usb.c ****   return HAL_OK;
 1100              		.loc 1 467 10
 1101 0038 0023     		movs	r3, #0
 1102              	.L62:
 468:Drivers/STM32F4xx_HAL_Driver/Src/stm32f4xx_ll_usb.c **** }
 1103              		.loc 1 468 1
 1104 003a 1846     		mov	r0, r3
 1105 003c 1437     		adds	r7, r7, #20
 1106              	.LCFI42:
 1107              		.cfi_def_cfa_offset 4
 1108 003e BD46     		mov	sp, r7
 1109              	.LCFI43:
 1110              		.cfi_def_cfa_register 13
 1111              		@ sp needed
 1112 0040 5DF8047B 		ldr	r7, [sp], #4
 1113              	.LCFI44:
 1114              		.cfi_restore 7
 1115              		.cfi_def_cfa_offset 0
 1116 0044 7047     		bx	lr
 1117              	.L65:
 1118 0046 00BF     		.align	2
 1119              	.L64:
 1120 0048 400D0300 		.word	200000
 1121              		.cfi_endproc
 1122              	.LFE136:
 1124              		.section	.text.USB_FlushRxFifo,"ax",%progbits
 1125              		.align	1
 1126              		.global	USB_FlushRxFifo
 1127              		.syntax unified
 1128              		.thumb
 1129              		.thumb_func
 1130              		.fpu fpv4-sp-d16
 1132              	USB_FlushRxFifo:
 1133              	.LFB137:
 469:Drivers/STM32F4xx_HAL_Driver/Src/stm32f4xx_ll_usb.c **** 
 470:Drivers/STM32F4xx_HAL_Driver/Src/stm32f4xx_ll_usb.c **** /**
ARM GAS  /var/folders/vq/qt4vp3kd5rxf7v2b6_fdtdt80000gn/T//ccjOke0W.s 			page 29


 471:Drivers/STM32F4xx_HAL_Driver/Src/stm32f4xx_ll_usb.c ****   * @brief  USB_FlushRxFifo : Flush Rx FIFO
 472:Drivers/STM32F4xx_HAL_Driver/Src/stm32f4xx_ll_usb.c ****   * @param  USBx  Selected device
 473:Drivers/STM32F4xx_HAL_Driver/Src/stm32f4xx_ll_usb.c ****   * @retval HAL status
 474:Drivers/STM32F4xx_HAL_Driver/Src/stm32f4xx_ll_usb.c ****   */
 475:Drivers/STM32F4xx_HAL_Driver/Src/stm32f4xx_ll_usb.c **** HAL_StatusTypeDef USB_FlushRxFifo(USB_OTG_GlobalTypeDef *USBx)
 476:Drivers/STM32F4xx_HAL_Driver/Src/stm32f4xx_ll_usb.c **** {
 1134              		.loc 1 476 1
 1135              		.cfi_startproc
 1136              		@ args = 0, pretend = 0, frame = 16
 1137              		@ frame_needed = 1, uses_anonymous_args = 0
 1138              		@ link register save eliminated.
 1139 0000 80B4     		push	{r7}
 1140              	.LCFI45:
 1141              		.cfi_def_cfa_offset 4
 1142              		.cfi_offset 7, -4
 1143 0002 85B0     		sub	sp, sp, #20
 1144              	.LCFI46:
 1145              		.cfi_def_cfa_offset 24
 1146 0004 00AF     		add	r7, sp, #0
 1147              	.LCFI47:
 1148              		.cfi_def_cfa_register 7
 1149 0006 7860     		str	r0, [r7, #4]
 477:Drivers/STM32F4xx_HAL_Driver/Src/stm32f4xx_ll_usb.c ****   uint32_t count = 0;
 1150              		.loc 1 477 12
 1151 0008 0023     		movs	r3, #0
 1152 000a FB60     		str	r3, [r7, #12]
 478:Drivers/STM32F4xx_HAL_Driver/Src/stm32f4xx_ll_usb.c **** 
 479:Drivers/STM32F4xx_HAL_Driver/Src/stm32f4xx_ll_usb.c ****   USBx->GRSTCTL = USB_OTG_GRSTCTL_RXFFLSH;
 1153              		.loc 1 479 17
 1154 000c 7B68     		ldr	r3, [r7, #4]
 1155 000e 1022     		movs	r2, #16
 1156 0010 1A61     		str	r2, [r3, #16]
 1157              	.L69:
 480:Drivers/STM32F4xx_HAL_Driver/Src/stm32f4xx_ll_usb.c **** 
 481:Drivers/STM32F4xx_HAL_Driver/Src/stm32f4xx_ll_usb.c ****   do
 482:Drivers/STM32F4xx_HAL_Driver/Src/stm32f4xx_ll_usb.c ****   {
 483:Drivers/STM32F4xx_HAL_Driver/Src/stm32f4xx_ll_usb.c ****     if (++count > 200000U)
 1158              		.loc 1 483 8
 1159 0012 FB68     		ldr	r3, [r7, #12]
 1160 0014 0133     		adds	r3, r3, #1
 1161 0016 FB60     		str	r3, [r7, #12]
 1162 0018 FB68     		ldr	r3, [r7, #12]
 1163 001a 094A     		ldr	r2, .L70
 1164 001c 9342     		cmp	r3, r2
 1165 001e 01D9     		bls	.L67
 484:Drivers/STM32F4xx_HAL_Driver/Src/stm32f4xx_ll_usb.c ****     {
 485:Drivers/STM32F4xx_HAL_Driver/Src/stm32f4xx_ll_usb.c ****       return HAL_TIMEOUT;
 1166              		.loc 1 485 14
 1167 0020 0323     		movs	r3, #3
 1168 0022 06E0     		b	.L68
 1169              	.L67:
 486:Drivers/STM32F4xx_HAL_Driver/Src/stm32f4xx_ll_usb.c ****     }
 487:Drivers/STM32F4xx_HAL_Driver/Src/stm32f4xx_ll_usb.c ****   } while ((USBx->GRSTCTL & USB_OTG_GRSTCTL_RXFFLSH) == USB_OTG_GRSTCTL_RXFFLSH);
 1170              		.loc 1 487 17
 1171 0024 7B68     		ldr	r3, [r7, #4]
 1172 0026 1B69     		ldr	r3, [r3, #16]
 1173              		.loc 1 487 27
ARM GAS  /var/folders/vq/qt4vp3kd5rxf7v2b6_fdtdt80000gn/T//ccjOke0W.s 			page 30


 1174 0028 03F01003 		and	r3, r3, #16
 1175              		.loc 1 487 3
 1176 002c 102B     		cmp	r3, #16
 1177 002e F0D0     		beq	.L69
 488:Drivers/STM32F4xx_HAL_Driver/Src/stm32f4xx_ll_usb.c **** 
 489:Drivers/STM32F4xx_HAL_Driver/Src/stm32f4xx_ll_usb.c ****   return HAL_OK;
 1178              		.loc 1 489 10
 1179 0030 0023     		movs	r3, #0
 1180              	.L68:
 490:Drivers/STM32F4xx_HAL_Driver/Src/stm32f4xx_ll_usb.c **** }
 1181              		.loc 1 490 1
 1182 0032 1846     		mov	r0, r3
 1183 0034 1437     		adds	r7, r7, #20
 1184              	.LCFI48:
 1185              		.cfi_def_cfa_offset 4
 1186 0036 BD46     		mov	sp, r7
 1187              	.LCFI49:
 1188              		.cfi_def_cfa_register 13
 1189              		@ sp needed
 1190 0038 5DF8047B 		ldr	r7, [sp], #4
 1191              	.LCFI50:
 1192              		.cfi_restore 7
 1193              		.cfi_def_cfa_offset 0
 1194 003c 7047     		bx	lr
 1195              	.L71:
 1196 003e 00BF     		.align	2
 1197              	.L70:
 1198 0040 400D0300 		.word	200000
 1199              		.cfi_endproc
 1200              	.LFE137:
 1202              		.section	.text.USB_SetDevSpeed,"ax",%progbits
 1203              		.align	1
 1204              		.global	USB_SetDevSpeed
 1205              		.syntax unified
 1206              		.thumb
 1207              		.thumb_func
 1208              		.fpu fpv4-sp-d16
 1210              	USB_SetDevSpeed:
 1211              	.LFB138:
 491:Drivers/STM32F4xx_HAL_Driver/Src/stm32f4xx_ll_usb.c **** 
 492:Drivers/STM32F4xx_HAL_Driver/Src/stm32f4xx_ll_usb.c **** /**
 493:Drivers/STM32F4xx_HAL_Driver/Src/stm32f4xx_ll_usb.c ****   * @brief  USB_SetDevSpeed  Initializes the DevSpd field of DCFG register
 494:Drivers/STM32F4xx_HAL_Driver/Src/stm32f4xx_ll_usb.c ****   *         depending the PHY type and the enumeration speed of the device.
 495:Drivers/STM32F4xx_HAL_Driver/Src/stm32f4xx_ll_usb.c ****   * @param  USBx  Selected device
 496:Drivers/STM32F4xx_HAL_Driver/Src/stm32f4xx_ll_usb.c ****   * @param  speed  device speed
 497:Drivers/STM32F4xx_HAL_Driver/Src/stm32f4xx_ll_usb.c ****   *          This parameter can be one of these values:
 498:Drivers/STM32F4xx_HAL_Driver/Src/stm32f4xx_ll_usb.c ****   *            @arg USB_OTG_SPEED_HIGH: High speed mode
 499:Drivers/STM32F4xx_HAL_Driver/Src/stm32f4xx_ll_usb.c ****   *            @arg USB_OTG_SPEED_HIGH_IN_FULL: High speed core in Full Speed mode
 500:Drivers/STM32F4xx_HAL_Driver/Src/stm32f4xx_ll_usb.c ****   *            @arg USB_OTG_SPEED_FULL: Full speed mode
 501:Drivers/STM32F4xx_HAL_Driver/Src/stm32f4xx_ll_usb.c ****   * @retval  Hal status
 502:Drivers/STM32F4xx_HAL_Driver/Src/stm32f4xx_ll_usb.c ****   */
 503:Drivers/STM32F4xx_HAL_Driver/Src/stm32f4xx_ll_usb.c **** HAL_StatusTypeDef USB_SetDevSpeed(USB_OTG_GlobalTypeDef *USBx, uint8_t speed)
 504:Drivers/STM32F4xx_HAL_Driver/Src/stm32f4xx_ll_usb.c **** {
 1212              		.loc 1 504 1
 1213              		.cfi_startproc
 1214              		@ args = 0, pretend = 0, frame = 16
 1215              		@ frame_needed = 1, uses_anonymous_args = 0
ARM GAS  /var/folders/vq/qt4vp3kd5rxf7v2b6_fdtdt80000gn/T//ccjOke0W.s 			page 31


 1216              		@ link register save eliminated.
 1217 0000 80B4     		push	{r7}
 1218              	.LCFI51:
 1219              		.cfi_def_cfa_offset 4
 1220              		.cfi_offset 7, -4
 1221 0002 85B0     		sub	sp, sp, #20
 1222              	.LCFI52:
 1223              		.cfi_def_cfa_offset 24
 1224 0004 00AF     		add	r7, sp, #0
 1225              	.LCFI53:
 1226              		.cfi_def_cfa_register 7
 1227 0006 7860     		str	r0, [r7, #4]
 1228 0008 0B46     		mov	r3, r1
 1229 000a FB70     		strb	r3, [r7, #3]
 505:Drivers/STM32F4xx_HAL_Driver/Src/stm32f4xx_ll_usb.c ****   uint32_t USBx_BASE = (uint32_t)USBx;
 1230              		.loc 1 505 12
 1231 000c 7B68     		ldr	r3, [r7, #4]
 1232 000e FB60     		str	r3, [r7, #12]
 506:Drivers/STM32F4xx_HAL_Driver/Src/stm32f4xx_ll_usb.c **** 
 507:Drivers/STM32F4xx_HAL_Driver/Src/stm32f4xx_ll_usb.c ****   USBx_DEVICE->DCFG |= speed;
 1233              		.loc 1 507 21
 1234 0010 FB68     		ldr	r3, [r7, #12]
 1235 0012 03F50063 		add	r3, r3, #2048
 1236 0016 1A68     		ldr	r2, [r3]
 1237 0018 FB78     		ldrb	r3, [r7, #3]	@ zero_extendqisi2
 1238 001a F968     		ldr	r1, [r7, #12]
 1239 001c 01F50061 		add	r1, r1, #2048
 1240 0020 1343     		orrs	r3, r3, r2
 1241 0022 0B60     		str	r3, [r1]
 508:Drivers/STM32F4xx_HAL_Driver/Src/stm32f4xx_ll_usb.c ****   return HAL_OK;
 1242              		.loc 1 508 10
 1243 0024 0023     		movs	r3, #0
 509:Drivers/STM32F4xx_HAL_Driver/Src/stm32f4xx_ll_usb.c **** }
 1244              		.loc 1 509 1
 1245 0026 1846     		mov	r0, r3
 1246 0028 1437     		adds	r7, r7, #20
 1247              	.LCFI54:
 1248              		.cfi_def_cfa_offset 4
 1249 002a BD46     		mov	sp, r7
 1250              	.LCFI55:
 1251              		.cfi_def_cfa_register 13
 1252              		@ sp needed
 1253 002c 5DF8047B 		ldr	r7, [sp], #4
 1254              	.LCFI56:
 1255              		.cfi_restore 7
 1256              		.cfi_def_cfa_offset 0
 1257 0030 7047     		bx	lr
 1258              		.cfi_endproc
 1259              	.LFE138:
 1261              		.section	.text.USB_GetDevSpeed,"ax",%progbits
 1262              		.align	1
 1263              		.global	USB_GetDevSpeed
 1264              		.syntax unified
 1265              		.thumb
 1266              		.thumb_func
 1267              		.fpu fpv4-sp-d16
 1269              	USB_GetDevSpeed:
ARM GAS  /var/folders/vq/qt4vp3kd5rxf7v2b6_fdtdt80000gn/T//ccjOke0W.s 			page 32


 1270              	.LFB139:
 510:Drivers/STM32F4xx_HAL_Driver/Src/stm32f4xx_ll_usb.c **** 
 511:Drivers/STM32F4xx_HAL_Driver/Src/stm32f4xx_ll_usb.c **** /**
 512:Drivers/STM32F4xx_HAL_Driver/Src/stm32f4xx_ll_usb.c ****   * @brief  USB_GetDevSpeed  Return the Dev Speed
 513:Drivers/STM32F4xx_HAL_Driver/Src/stm32f4xx_ll_usb.c ****   * @param  USBx  Selected device
 514:Drivers/STM32F4xx_HAL_Driver/Src/stm32f4xx_ll_usb.c ****   * @retval speed  device speed
 515:Drivers/STM32F4xx_HAL_Driver/Src/stm32f4xx_ll_usb.c ****   *          This parameter can be one of these values:
 516:Drivers/STM32F4xx_HAL_Driver/Src/stm32f4xx_ll_usb.c ****   *            @arg USBD_HS_SPEED: High speed mode
 517:Drivers/STM32F4xx_HAL_Driver/Src/stm32f4xx_ll_usb.c ****   *            @arg USBD_FS_SPEED: Full speed mode
 518:Drivers/STM32F4xx_HAL_Driver/Src/stm32f4xx_ll_usb.c ****   */
 519:Drivers/STM32F4xx_HAL_Driver/Src/stm32f4xx_ll_usb.c **** uint8_t USB_GetDevSpeed(USB_OTG_GlobalTypeDef *USBx)
 520:Drivers/STM32F4xx_HAL_Driver/Src/stm32f4xx_ll_usb.c **** {
 1271              		.loc 1 520 1
 1272              		.cfi_startproc
 1273              		@ args = 0, pretend = 0, frame = 24
 1274              		@ frame_needed = 1, uses_anonymous_args = 0
 1275              		@ link register save eliminated.
 1276 0000 80B4     		push	{r7}
 1277              	.LCFI57:
 1278              		.cfi_def_cfa_offset 4
 1279              		.cfi_offset 7, -4
 1280 0002 87B0     		sub	sp, sp, #28
 1281              	.LCFI58:
 1282              		.cfi_def_cfa_offset 32
 1283 0004 00AF     		add	r7, sp, #0
 1284              	.LCFI59:
 1285              		.cfi_def_cfa_register 7
 1286 0006 7860     		str	r0, [r7, #4]
 521:Drivers/STM32F4xx_HAL_Driver/Src/stm32f4xx_ll_usb.c ****   uint32_t USBx_BASE = (uint32_t)USBx;
 1287              		.loc 1 521 12
 1288 0008 7B68     		ldr	r3, [r7, #4]
 1289 000a 3B61     		str	r3, [r7, #16]
 522:Drivers/STM32F4xx_HAL_Driver/Src/stm32f4xx_ll_usb.c ****   uint8_t speed;
 523:Drivers/STM32F4xx_HAL_Driver/Src/stm32f4xx_ll_usb.c ****   uint32_t DevEnumSpeed = USBx_DEVICE->DSTS & USB_OTG_DSTS_ENUMSPD;
 1290              		.loc 1 523 27
 1291 000c 3B69     		ldr	r3, [r7, #16]
 1292 000e 03F50063 		add	r3, r3, #2048
 1293              		.loc 1 523 38
 1294 0012 9B68     		ldr	r3, [r3, #8]
 1295              		.loc 1 523 12
 1296 0014 03F00603 		and	r3, r3, #6
 1297 0018 FB60     		str	r3, [r7, #12]
 524:Drivers/STM32F4xx_HAL_Driver/Src/stm32f4xx_ll_usb.c **** 
 525:Drivers/STM32F4xx_HAL_Driver/Src/stm32f4xx_ll_usb.c ****   if (DevEnumSpeed == DSTS_ENUMSPD_HS_PHY_30MHZ_OR_60MHZ)
 1298              		.loc 1 525 6
 1299 001a FB68     		ldr	r3, [r7, #12]
 1300 001c 002B     		cmp	r3, #0
 1301 001e 02D1     		bne	.L75
 526:Drivers/STM32F4xx_HAL_Driver/Src/stm32f4xx_ll_usb.c ****   {
 527:Drivers/STM32F4xx_HAL_Driver/Src/stm32f4xx_ll_usb.c ****     speed = USBD_HS_SPEED;
 1302              		.loc 1 527 11
 1303 0020 0023     		movs	r3, #0
 1304 0022 FB75     		strb	r3, [r7, #23]
 1305 0024 0AE0     		b	.L76
 1306              	.L75:
 528:Drivers/STM32F4xx_HAL_Driver/Src/stm32f4xx_ll_usb.c ****   }
 529:Drivers/STM32F4xx_HAL_Driver/Src/stm32f4xx_ll_usb.c ****   else if ((DevEnumSpeed == DSTS_ENUMSPD_FS_PHY_30MHZ_OR_60MHZ) ||
ARM GAS  /var/folders/vq/qt4vp3kd5rxf7v2b6_fdtdt80000gn/T//ccjOke0W.s 			page 33


 1307              		.loc 1 529 11
 1308 0026 FB68     		ldr	r3, [r7, #12]
 1309 0028 022B     		cmp	r3, #2
 1310 002a 02D0     		beq	.L77
 1311              		.loc 1 529 65 discriminator 1
 1312 002c FB68     		ldr	r3, [r7, #12]
 1313 002e 062B     		cmp	r3, #6
 1314 0030 02D1     		bne	.L78
 1315              	.L77:
 530:Drivers/STM32F4xx_HAL_Driver/Src/stm32f4xx_ll_usb.c ****            (DevEnumSpeed == DSTS_ENUMSPD_FS_PHY_48MHZ))
 531:Drivers/STM32F4xx_HAL_Driver/Src/stm32f4xx_ll_usb.c ****   {
 532:Drivers/STM32F4xx_HAL_Driver/Src/stm32f4xx_ll_usb.c ****     speed = USBD_FS_SPEED;
 1316              		.loc 1 532 11
 1317 0032 0223     		movs	r3, #2
 1318 0034 FB75     		strb	r3, [r7, #23]
 1319 0036 01E0     		b	.L76
 1320              	.L78:
 533:Drivers/STM32F4xx_HAL_Driver/Src/stm32f4xx_ll_usb.c ****   }
 534:Drivers/STM32F4xx_HAL_Driver/Src/stm32f4xx_ll_usb.c ****   else
 535:Drivers/STM32F4xx_HAL_Driver/Src/stm32f4xx_ll_usb.c ****   {
 536:Drivers/STM32F4xx_HAL_Driver/Src/stm32f4xx_ll_usb.c ****     speed = 0xFU;
 1321              		.loc 1 536 11
 1322 0038 0F23     		movs	r3, #15
 1323 003a FB75     		strb	r3, [r7, #23]
 1324              	.L76:
 537:Drivers/STM32F4xx_HAL_Driver/Src/stm32f4xx_ll_usb.c ****   }
 538:Drivers/STM32F4xx_HAL_Driver/Src/stm32f4xx_ll_usb.c **** 
 539:Drivers/STM32F4xx_HAL_Driver/Src/stm32f4xx_ll_usb.c ****   return speed;
 1325              		.loc 1 539 10
 1326 003c FB7D     		ldrb	r3, [r7, #23]	@ zero_extendqisi2
 540:Drivers/STM32F4xx_HAL_Driver/Src/stm32f4xx_ll_usb.c **** }
 1327              		.loc 1 540 1
 1328 003e 1846     		mov	r0, r3
 1329 0040 1C37     		adds	r7, r7, #28
 1330              	.LCFI60:
 1331              		.cfi_def_cfa_offset 4
 1332 0042 BD46     		mov	sp, r7
 1333              	.LCFI61:
 1334              		.cfi_def_cfa_register 13
 1335              		@ sp needed
 1336 0044 5DF8047B 		ldr	r7, [sp], #4
 1337              	.LCFI62:
 1338              		.cfi_restore 7
 1339              		.cfi_def_cfa_offset 0
 1340 0048 7047     		bx	lr
 1341              		.cfi_endproc
 1342              	.LFE139:
 1344              		.section	.text.USB_ActivateEndpoint,"ax",%progbits
 1345              		.align	1
 1346              		.global	USB_ActivateEndpoint
 1347              		.syntax unified
 1348              		.thumb
 1349              		.thumb_func
 1350              		.fpu fpv4-sp-d16
 1352              	USB_ActivateEndpoint:
 1353              	.LFB140:
 541:Drivers/STM32F4xx_HAL_Driver/Src/stm32f4xx_ll_usb.c **** 
ARM GAS  /var/folders/vq/qt4vp3kd5rxf7v2b6_fdtdt80000gn/T//ccjOke0W.s 			page 34


 542:Drivers/STM32F4xx_HAL_Driver/Src/stm32f4xx_ll_usb.c **** /**
 543:Drivers/STM32F4xx_HAL_Driver/Src/stm32f4xx_ll_usb.c ****   * @brief  Activate and configure an endpoint
 544:Drivers/STM32F4xx_HAL_Driver/Src/stm32f4xx_ll_usb.c ****   * @param  USBx  Selected device
 545:Drivers/STM32F4xx_HAL_Driver/Src/stm32f4xx_ll_usb.c ****   * @param  ep pointer to endpoint structure
 546:Drivers/STM32F4xx_HAL_Driver/Src/stm32f4xx_ll_usb.c ****   * @retval HAL status
 547:Drivers/STM32F4xx_HAL_Driver/Src/stm32f4xx_ll_usb.c ****   */
 548:Drivers/STM32F4xx_HAL_Driver/Src/stm32f4xx_ll_usb.c **** HAL_StatusTypeDef USB_ActivateEndpoint(USB_OTG_GlobalTypeDef *USBx, USB_OTG_EPTypeDef *ep)
 549:Drivers/STM32F4xx_HAL_Driver/Src/stm32f4xx_ll_usb.c **** {
 1354              		.loc 1 549 1
 1355              		.cfi_startproc
 1356              		@ args = 0, pretend = 0, frame = 16
 1357              		@ frame_needed = 1, uses_anonymous_args = 0
 1358              		@ link register save eliminated.
 1359 0000 80B4     		push	{r7}
 1360              	.LCFI63:
 1361              		.cfi_def_cfa_offset 4
 1362              		.cfi_offset 7, -4
 1363 0002 85B0     		sub	sp, sp, #20
 1364              	.LCFI64:
 1365              		.cfi_def_cfa_offset 24
 1366 0004 00AF     		add	r7, sp, #0
 1367              	.LCFI65:
 1368              		.cfi_def_cfa_register 7
 1369 0006 7860     		str	r0, [r7, #4]
 1370 0008 3960     		str	r1, [r7]
 550:Drivers/STM32F4xx_HAL_Driver/Src/stm32f4xx_ll_usb.c ****   uint32_t USBx_BASE = (uint32_t)USBx;
 1371              		.loc 1 550 12
 1372 000a 7B68     		ldr	r3, [r7, #4]
 1373 000c FB60     		str	r3, [r7, #12]
 551:Drivers/STM32F4xx_HAL_Driver/Src/stm32f4xx_ll_usb.c ****   uint32_t epnum = (uint32_t)ep->num;
 1374              		.loc 1 551 32
 1375 000e 3B68     		ldr	r3, [r7]
 1376 0010 1B78     		ldrb	r3, [r3]	@ zero_extendqisi2
 1377              		.loc 1 551 12
 1378 0012 BB60     		str	r3, [r7, #8]
 552:Drivers/STM32F4xx_HAL_Driver/Src/stm32f4xx_ll_usb.c **** 
 553:Drivers/STM32F4xx_HAL_Driver/Src/stm32f4xx_ll_usb.c ****   if (ep->is_in == 1U)
 1379              		.loc 1 553 9
 1380 0014 3B68     		ldr	r3, [r7]
 1381 0016 5B78     		ldrb	r3, [r3, #1]	@ zero_extendqisi2
 1382              		.loc 1 553 6
 1383 0018 012B     		cmp	r3, #1
 1384 001a 3AD1     		bne	.L81
 554:Drivers/STM32F4xx_HAL_Driver/Src/stm32f4xx_ll_usb.c ****   {
 555:Drivers/STM32F4xx_HAL_Driver/Src/stm32f4xx_ll_usb.c ****     USBx_DEVICE->DAINTMSK |= USB_OTG_DAINTMSK_IEPM & (uint32_t)(1UL << (ep->num & EP_ADDR_MSK));
 1385              		.loc 1 555 27
 1386 001c FB68     		ldr	r3, [r7, #12]
 1387 001e 03F50063 		add	r3, r3, #2048
 1388 0022 DA69     		ldr	r2, [r3, #28]
 1389              		.loc 1 555 75
 1390 0024 3B68     		ldr	r3, [r7]
 1391 0026 1B78     		ldrb	r3, [r3]	@ zero_extendqisi2
 1392              		.loc 1 555 81
 1393 0028 03F00F03 		and	r3, r3, #15
 1394              		.loc 1 555 54
 1395 002c 0121     		movs	r1, #1
 1396 002e 01FA03F3 		lsl	r3, r1, r3
ARM GAS  /var/folders/vq/qt4vp3kd5rxf7v2b6_fdtdt80000gn/T//ccjOke0W.s 			page 35


 1397              		.loc 1 555 52
 1398 0032 9BB2     		uxth	r3, r3
 1399              		.loc 1 555 27
 1400 0034 F968     		ldr	r1, [r7, #12]
 1401 0036 01F50061 		add	r1, r1, #2048
 1402 003a 1343     		orrs	r3, r3, r2
 1403 003c CB61     		str	r3, [r1, #28]
 556:Drivers/STM32F4xx_HAL_Driver/Src/stm32f4xx_ll_usb.c **** 
 557:Drivers/STM32F4xx_HAL_Driver/Src/stm32f4xx_ll_usb.c ****     if ((USBx_INEP(epnum)->DIEPCTL & USB_OTG_DIEPCTL_USBAEP) == 0U)
 1404              		.loc 1 557 10
 1405 003e BB68     		ldr	r3, [r7, #8]
 1406 0040 5A01     		lsls	r2, r3, #5
 1407 0042 FB68     		ldr	r3, [r7, #12]
 1408 0044 1344     		add	r3, r3, r2
 1409 0046 03F51063 		add	r3, r3, #2304
 1410              		.loc 1 557 26
 1411 004a 1B68     		ldr	r3, [r3]
 1412              		.loc 1 557 36
 1413 004c 03F40043 		and	r3, r3, #32768
 1414              		.loc 1 557 8
 1415 0050 002B     		cmp	r3, #0
 1416 0052 55D1     		bne	.L82
 558:Drivers/STM32F4xx_HAL_Driver/Src/stm32f4xx_ll_usb.c ****     {
 559:Drivers/STM32F4xx_HAL_Driver/Src/stm32f4xx_ll_usb.c ****       USBx_INEP(epnum)->DIEPCTL |= (ep->maxpacket & USB_OTG_DIEPCTL_MPSIZ) |
 1417              		.loc 1 559 33
 1418 0054 BB68     		ldr	r3, [r7, #8]
 1419 0056 5A01     		lsls	r2, r3, #5
 1420 0058 FB68     		ldr	r3, [r7, #12]
 1421 005a 1344     		add	r3, r3, r2
 1422 005c 03F51063 		add	r3, r3, #2304
 1423 0060 1A68     		ldr	r2, [r3]
 1424              		.loc 1 559 39
 1425 0062 3B68     		ldr	r3, [r7]
 1426 0064 9B68     		ldr	r3, [r3, #8]
 1427              		.loc 1 559 51
 1428 0066 C3F30A01 		ubfx	r1, r3, #0, #11
 560:Drivers/STM32F4xx_HAL_Driver/Src/stm32f4xx_ll_usb.c ****                                    ((uint32_t)ep->type << 18) | (epnum << 22) |
 1429              		.loc 1 560 49
 1430 006a 3B68     		ldr	r3, [r7]
 1431 006c DB78     		ldrb	r3, [r3, #3]	@ zero_extendqisi2
 1432              		.loc 1 560 56
 1433 006e 9B04     		lsls	r3, r3, #18
 559:Drivers/STM32F4xx_HAL_Driver/Src/stm32f4xx_ll_usb.c ****                                    ((uint32_t)ep->type << 18) | (epnum << 22) |
 1434              		.loc 1 559 76
 1435 0070 1943     		orrs	r1, r1, r3
 1436              		.loc 1 560 72
 1437 0072 BB68     		ldr	r3, [r7, #8]
 1438 0074 9B05     		lsls	r3, r3, #22
 1439              		.loc 1 560 63
 1440 0076 0B43     		orrs	r3, r3, r1
 559:Drivers/STM32F4xx_HAL_Driver/Src/stm32f4xx_ll_usb.c ****                                    ((uint32_t)ep->type << 18) | (epnum << 22) |
 1441              		.loc 1 559 33
 1442 0078 1343     		orrs	r3, r3, r2
 1443 007a BA68     		ldr	r2, [r7, #8]
 1444 007c 5101     		lsls	r1, r2, #5
 1445 007e FA68     		ldr	r2, [r7, #12]
 1446 0080 0A44     		add	r2, r2, r1
ARM GAS  /var/folders/vq/qt4vp3kd5rxf7v2b6_fdtdt80000gn/T//ccjOke0W.s 			page 36


 1447 0082 02F51062 		add	r2, r2, #2304
 1448 0086 43F08053 		orr	r3, r3, #268435456
 1449 008a 43F40043 		orr	r3, r3, #32768
 1450 008e 1360     		str	r3, [r2]
 1451 0090 36E0     		b	.L82
 1452              	.L81:
 561:Drivers/STM32F4xx_HAL_Driver/Src/stm32f4xx_ll_usb.c ****                                    USB_OTG_DIEPCTL_SD0PID_SEVNFRM |
 562:Drivers/STM32F4xx_HAL_Driver/Src/stm32f4xx_ll_usb.c ****                                    USB_OTG_DIEPCTL_USBAEP;
 563:Drivers/STM32F4xx_HAL_Driver/Src/stm32f4xx_ll_usb.c ****     }
 564:Drivers/STM32F4xx_HAL_Driver/Src/stm32f4xx_ll_usb.c ****   }
 565:Drivers/STM32F4xx_HAL_Driver/Src/stm32f4xx_ll_usb.c ****   else
 566:Drivers/STM32F4xx_HAL_Driver/Src/stm32f4xx_ll_usb.c ****   {
 567:Drivers/STM32F4xx_HAL_Driver/Src/stm32f4xx_ll_usb.c ****     USBx_DEVICE->DAINTMSK |= USB_OTG_DAINTMSK_OEPM & ((uint32_t)(1UL << (ep->num & EP_ADDR_MSK)) <<
 1453              		.loc 1 567 27
 1454 0092 FB68     		ldr	r3, [r7, #12]
 1455 0094 03F50063 		add	r3, r3, #2048
 1456 0098 DA69     		ldr	r2, [r3, #28]
 1457              		.loc 1 567 76
 1458 009a 3B68     		ldr	r3, [r7]
 1459 009c 1B78     		ldrb	r3, [r3]	@ zero_extendqisi2
 1460              		.loc 1 567 82
 1461 009e 03F00F03 		and	r3, r3, #15
 1462              		.loc 1 567 55
 1463 00a2 0121     		movs	r1, #1
 1464 00a4 01FA03F3 		lsl	r3, r1, r3
 1465              		.loc 1 567 52
 1466 00a8 1B04     		lsls	r3, r3, #16
 1467              		.loc 1 567 27
 1468 00aa F968     		ldr	r1, [r7, #12]
 1469 00ac 01F50061 		add	r1, r1, #2048
 1470 00b0 1343     		orrs	r3, r3, r2
 1471 00b2 CB61     		str	r3, [r1, #28]
 568:Drivers/STM32F4xx_HAL_Driver/Src/stm32f4xx_ll_usb.c **** 
 569:Drivers/STM32F4xx_HAL_Driver/Src/stm32f4xx_ll_usb.c ****     if (((USBx_OUTEP(epnum)->DOEPCTL) & USB_OTG_DOEPCTL_USBAEP) == 0U)
 1472              		.loc 1 569 11
 1473 00b4 BB68     		ldr	r3, [r7, #8]
 1474 00b6 5A01     		lsls	r2, r3, #5
 1475 00b8 FB68     		ldr	r3, [r7, #12]
 1476 00ba 1344     		add	r3, r3, r2
 1477 00bc 03F53063 		add	r3, r3, #2816
 1478              		.loc 1 569 28
 1479 00c0 1B68     		ldr	r3, [r3]
 1480              		.loc 1 569 39
 1481 00c2 03F40043 		and	r3, r3, #32768
 1482              		.loc 1 569 8
 1483 00c6 002B     		cmp	r3, #0
 1484 00c8 1AD1     		bne	.L82
 570:Drivers/STM32F4xx_HAL_Driver/Src/stm32f4xx_ll_usb.c ****     {
 571:Drivers/STM32F4xx_HAL_Driver/Src/stm32f4xx_ll_usb.c ****       USBx_OUTEP(epnum)->DOEPCTL |= (ep->maxpacket & USB_OTG_DOEPCTL_MPSIZ) |
 1485              		.loc 1 571 34
 1486 00ca BB68     		ldr	r3, [r7, #8]
 1487 00cc 5A01     		lsls	r2, r3, #5
 1488 00ce FB68     		ldr	r3, [r7, #12]
 1489 00d0 1344     		add	r3, r3, r2
 1490 00d2 03F53063 		add	r3, r3, #2816
 1491 00d6 1A68     		ldr	r2, [r3]
 1492              		.loc 1 571 40
ARM GAS  /var/folders/vq/qt4vp3kd5rxf7v2b6_fdtdt80000gn/T//ccjOke0W.s 			page 37


 1493 00d8 3B68     		ldr	r3, [r7]
 1494 00da 9B68     		ldr	r3, [r3, #8]
 1495              		.loc 1 571 52
 1496 00dc C3F30A01 		ubfx	r1, r3, #0, #11
 572:Drivers/STM32F4xx_HAL_Driver/Src/stm32f4xx_ll_usb.c ****                                     ((uint32_t)ep->type << 18) |
 1497              		.loc 1 572 50
 1498 00e0 3B68     		ldr	r3, [r7]
 1499 00e2 DB78     		ldrb	r3, [r3, #3]	@ zero_extendqisi2
 1500              		.loc 1 572 57
 1501 00e4 9B04     		lsls	r3, r3, #18
 571:Drivers/STM32F4xx_HAL_Driver/Src/stm32f4xx_ll_usb.c ****                                     ((uint32_t)ep->type << 18) |
 1502              		.loc 1 571 77
 1503 00e6 0B43     		orrs	r3, r3, r1
 571:Drivers/STM32F4xx_HAL_Driver/Src/stm32f4xx_ll_usb.c ****                                     ((uint32_t)ep->type << 18) |
 1504              		.loc 1 571 34
 1505 00e8 1343     		orrs	r3, r3, r2
 1506 00ea BA68     		ldr	r2, [r7, #8]
 1507 00ec 5101     		lsls	r1, r2, #5
 1508 00ee FA68     		ldr	r2, [r7, #12]
 1509 00f0 0A44     		add	r2, r2, r1
 1510 00f2 02F53062 		add	r2, r2, #2816
 1511 00f6 43F08053 		orr	r3, r3, #268435456
 1512 00fa 43F40043 		orr	r3, r3, #32768
 1513 00fe 1360     		str	r3, [r2]
 1514              	.L82:
 573:Drivers/STM32F4xx_HAL_Driver/Src/stm32f4xx_ll_usb.c ****                                     USB_OTG_DIEPCTL_SD0PID_SEVNFRM |
 574:Drivers/STM32F4xx_HAL_Driver/Src/stm32f4xx_ll_usb.c ****                                     USB_OTG_DOEPCTL_USBAEP;
 575:Drivers/STM32F4xx_HAL_Driver/Src/stm32f4xx_ll_usb.c ****     }
 576:Drivers/STM32F4xx_HAL_Driver/Src/stm32f4xx_ll_usb.c ****   }
 577:Drivers/STM32F4xx_HAL_Driver/Src/stm32f4xx_ll_usb.c ****   return HAL_OK;
 1515              		.loc 1 577 10
 1516 0100 0023     		movs	r3, #0
 578:Drivers/STM32F4xx_HAL_Driver/Src/stm32f4xx_ll_usb.c **** }
 1517              		.loc 1 578 1
 1518 0102 1846     		mov	r0, r3
 1519 0104 1437     		adds	r7, r7, #20
 1520              	.LCFI66:
 1521              		.cfi_def_cfa_offset 4
 1522 0106 BD46     		mov	sp, r7
 1523              	.LCFI67:
 1524              		.cfi_def_cfa_register 13
 1525              		@ sp needed
 1526 0108 5DF8047B 		ldr	r7, [sp], #4
 1527              	.LCFI68:
 1528              		.cfi_restore 7
 1529              		.cfi_def_cfa_offset 0
 1530 010c 7047     		bx	lr
 1531              		.cfi_endproc
 1532              	.LFE140:
 1534              		.section	.text.USB_ActivateDedicatedEndpoint,"ax",%progbits
 1535              		.align	1
 1536              		.global	USB_ActivateDedicatedEndpoint
 1537              		.syntax unified
 1538              		.thumb
 1539              		.thumb_func
 1540              		.fpu fpv4-sp-d16
 1542              	USB_ActivateDedicatedEndpoint:
ARM GAS  /var/folders/vq/qt4vp3kd5rxf7v2b6_fdtdt80000gn/T//ccjOke0W.s 			page 38


 1543              	.LFB141:
 579:Drivers/STM32F4xx_HAL_Driver/Src/stm32f4xx_ll_usb.c **** 
 580:Drivers/STM32F4xx_HAL_Driver/Src/stm32f4xx_ll_usb.c **** /**
 581:Drivers/STM32F4xx_HAL_Driver/Src/stm32f4xx_ll_usb.c ****   * @brief  Activate and configure a dedicated endpoint
 582:Drivers/STM32F4xx_HAL_Driver/Src/stm32f4xx_ll_usb.c ****   * @param  USBx  Selected device
 583:Drivers/STM32F4xx_HAL_Driver/Src/stm32f4xx_ll_usb.c ****   * @param  ep pointer to endpoint structure
 584:Drivers/STM32F4xx_HAL_Driver/Src/stm32f4xx_ll_usb.c ****   * @retval HAL status
 585:Drivers/STM32F4xx_HAL_Driver/Src/stm32f4xx_ll_usb.c ****   */
 586:Drivers/STM32F4xx_HAL_Driver/Src/stm32f4xx_ll_usb.c **** HAL_StatusTypeDef USB_ActivateDedicatedEndpoint(USB_OTG_GlobalTypeDef *USBx, USB_OTG_EPTypeDef *ep)
 587:Drivers/STM32F4xx_HAL_Driver/Src/stm32f4xx_ll_usb.c **** {
 1544              		.loc 1 587 1
 1545              		.cfi_startproc
 1546              		@ args = 0, pretend = 0, frame = 16
 1547              		@ frame_needed = 1, uses_anonymous_args = 0
 1548              		@ link register save eliminated.
 1549 0000 80B4     		push	{r7}
 1550              	.LCFI69:
 1551              		.cfi_def_cfa_offset 4
 1552              		.cfi_offset 7, -4
 1553 0002 85B0     		sub	sp, sp, #20
 1554              	.LCFI70:
 1555              		.cfi_def_cfa_offset 24
 1556 0004 00AF     		add	r7, sp, #0
 1557              	.LCFI71:
 1558              		.cfi_def_cfa_register 7
 1559 0006 7860     		str	r0, [r7, #4]
 1560 0008 3960     		str	r1, [r7]
 588:Drivers/STM32F4xx_HAL_Driver/Src/stm32f4xx_ll_usb.c ****   uint32_t USBx_BASE = (uint32_t)USBx;
 1561              		.loc 1 588 12
 1562 000a 7B68     		ldr	r3, [r7, #4]
 1563 000c FB60     		str	r3, [r7, #12]
 589:Drivers/STM32F4xx_HAL_Driver/Src/stm32f4xx_ll_usb.c ****   uint32_t epnum = (uint32_t)ep->num;
 1564              		.loc 1 589 32
 1565 000e 3B68     		ldr	r3, [r7]
 1566 0010 1B78     		ldrb	r3, [r3]	@ zero_extendqisi2
 1567              		.loc 1 589 12
 1568 0012 BB60     		str	r3, [r7, #8]
 590:Drivers/STM32F4xx_HAL_Driver/Src/stm32f4xx_ll_usb.c **** 
 591:Drivers/STM32F4xx_HAL_Driver/Src/stm32f4xx_ll_usb.c ****   /* Read DEPCTLn register */
 592:Drivers/STM32F4xx_HAL_Driver/Src/stm32f4xx_ll_usb.c ****   if (ep->is_in == 1U)
 1569              		.loc 1 592 9
 1570 0014 3B68     		ldr	r3, [r7]
 1571 0016 5B78     		ldrb	r3, [r3, #1]	@ zero_extendqisi2
 1572              		.loc 1 592 6
 1573 0018 012B     		cmp	r3, #1
 1574 001a 3AD1     		bne	.L85
 593:Drivers/STM32F4xx_HAL_Driver/Src/stm32f4xx_ll_usb.c ****   {
 594:Drivers/STM32F4xx_HAL_Driver/Src/stm32f4xx_ll_usb.c ****     if (((USBx_INEP(epnum)->DIEPCTL) & USB_OTG_DIEPCTL_USBAEP) == 0U)
 1575              		.loc 1 594 11
 1576 001c BB68     		ldr	r3, [r7, #8]
 1577 001e 5A01     		lsls	r2, r3, #5
 1578 0020 FB68     		ldr	r3, [r7, #12]
 1579 0022 1344     		add	r3, r3, r2
 1580 0024 03F51063 		add	r3, r3, #2304
 1581              		.loc 1 594 27
 1582 0028 1B68     		ldr	r3, [r3]
 1583              		.loc 1 594 38
ARM GAS  /var/folders/vq/qt4vp3kd5rxf7v2b6_fdtdt80000gn/T//ccjOke0W.s 			page 39


 1584 002a 03F40043 		and	r3, r3, #32768
 1585              		.loc 1 594 8
 1586 002e 002B     		cmp	r3, #0
 1587 0030 1DD1     		bne	.L86
 595:Drivers/STM32F4xx_HAL_Driver/Src/stm32f4xx_ll_usb.c ****     {
 596:Drivers/STM32F4xx_HAL_Driver/Src/stm32f4xx_ll_usb.c ****       USBx_INEP(epnum)->DIEPCTL |= (ep->maxpacket & USB_OTG_DIEPCTL_MPSIZ) |
 1588              		.loc 1 596 33
 1589 0032 BB68     		ldr	r3, [r7, #8]
 1590 0034 5A01     		lsls	r2, r3, #5
 1591 0036 FB68     		ldr	r3, [r7, #12]
 1592 0038 1344     		add	r3, r3, r2
 1593 003a 03F51063 		add	r3, r3, #2304
 1594 003e 1A68     		ldr	r2, [r3]
 1595              		.loc 1 596 39
 1596 0040 3B68     		ldr	r3, [r7]
 1597 0042 9B68     		ldr	r3, [r3, #8]
 1598              		.loc 1 596 51
 1599 0044 C3F30A01 		ubfx	r1, r3, #0, #11
 597:Drivers/STM32F4xx_HAL_Driver/Src/stm32f4xx_ll_usb.c ****                                    ((uint32_t)ep->type << 18) | (epnum << 22) |
 1600              		.loc 1 597 49
 1601 0048 3B68     		ldr	r3, [r7]
 1602 004a DB78     		ldrb	r3, [r3, #3]	@ zero_extendqisi2
 1603              		.loc 1 597 56
 1604 004c 9B04     		lsls	r3, r3, #18
 596:Drivers/STM32F4xx_HAL_Driver/Src/stm32f4xx_ll_usb.c ****                                    ((uint32_t)ep->type << 18) | (epnum << 22) |
 1605              		.loc 1 596 76
 1606 004e 1943     		orrs	r1, r1, r3
 1607              		.loc 1 597 72
 1608 0050 BB68     		ldr	r3, [r7, #8]
 1609 0052 9B05     		lsls	r3, r3, #22
 1610              		.loc 1 597 63
 1611 0054 0B43     		orrs	r3, r3, r1
 596:Drivers/STM32F4xx_HAL_Driver/Src/stm32f4xx_ll_usb.c ****                                    ((uint32_t)ep->type << 18) | (epnum << 22) |
 1612              		.loc 1 596 33
 1613 0056 1343     		orrs	r3, r3, r2
 1614 0058 BA68     		ldr	r2, [r7, #8]
 1615 005a 5101     		lsls	r1, r2, #5
 1616 005c FA68     		ldr	r2, [r7, #12]
 1617 005e 0A44     		add	r2, r2, r1
 1618 0060 02F51062 		add	r2, r2, #2304
 1619 0064 43F08053 		orr	r3, r3, #268435456
 1620 0068 43F40043 		orr	r3, r3, #32768
 1621 006c 1360     		str	r3, [r2]
 1622              	.L86:
 598:Drivers/STM32F4xx_HAL_Driver/Src/stm32f4xx_ll_usb.c ****                                    USB_OTG_DIEPCTL_SD0PID_SEVNFRM |
 599:Drivers/STM32F4xx_HAL_Driver/Src/stm32f4xx_ll_usb.c ****                                    USB_OTG_DIEPCTL_USBAEP;
 600:Drivers/STM32F4xx_HAL_Driver/Src/stm32f4xx_ll_usb.c ****     }
 601:Drivers/STM32F4xx_HAL_Driver/Src/stm32f4xx_ll_usb.c **** 
 602:Drivers/STM32F4xx_HAL_Driver/Src/stm32f4xx_ll_usb.c ****     USBx_DEVICE->DEACHMSK |= USB_OTG_DAINTMSK_IEPM & (uint32_t)(1UL << (ep->num & EP_ADDR_MSK));
 1623              		.loc 1 602 27
 1624 006e FB68     		ldr	r3, [r7, #12]
 1625 0070 03F50063 		add	r3, r3, #2048
 1626 0074 DA6B     		ldr	r2, [r3, #60]
 1627              		.loc 1 602 75
 1628 0076 3B68     		ldr	r3, [r7]
 1629 0078 1B78     		ldrb	r3, [r3]	@ zero_extendqisi2
 1630              		.loc 1 602 81
ARM GAS  /var/folders/vq/qt4vp3kd5rxf7v2b6_fdtdt80000gn/T//ccjOke0W.s 			page 40


 1631 007a 03F00F03 		and	r3, r3, #15
 1632              		.loc 1 602 54
 1633 007e 0121     		movs	r1, #1
 1634 0080 01FA03F3 		lsl	r3, r1, r3
 1635              		.loc 1 602 52
 1636 0084 9BB2     		uxth	r3, r3
 1637              		.loc 1 602 27
 1638 0086 F968     		ldr	r1, [r7, #12]
 1639 0088 01F50061 		add	r1, r1, #2048
 1640 008c 1343     		orrs	r3, r3, r2
 1641 008e CB63     		str	r3, [r1, #60]
 1642 0090 37E0     		b	.L87
 1643              	.L85:
 603:Drivers/STM32F4xx_HAL_Driver/Src/stm32f4xx_ll_usb.c ****   }
 604:Drivers/STM32F4xx_HAL_Driver/Src/stm32f4xx_ll_usb.c ****   else
 605:Drivers/STM32F4xx_HAL_Driver/Src/stm32f4xx_ll_usb.c ****   {
 606:Drivers/STM32F4xx_HAL_Driver/Src/stm32f4xx_ll_usb.c ****     if (((USBx_OUTEP(epnum)->DOEPCTL) & USB_OTG_DOEPCTL_USBAEP) == 0U)
 1644              		.loc 1 606 11
 1645 0092 BB68     		ldr	r3, [r7, #8]
 1646 0094 5A01     		lsls	r2, r3, #5
 1647 0096 FB68     		ldr	r3, [r7, #12]
 1648 0098 1344     		add	r3, r3, r2
 1649 009a 03F53063 		add	r3, r3, #2816
 1650              		.loc 1 606 28
 1651 009e 1B68     		ldr	r3, [r3]
 1652              		.loc 1 606 39
 1653 00a0 03F40043 		and	r3, r3, #32768
 1654              		.loc 1 606 8
 1655 00a4 002B     		cmp	r3, #0
 1656 00a6 1BD1     		bne	.L88
 607:Drivers/STM32F4xx_HAL_Driver/Src/stm32f4xx_ll_usb.c ****     {
 608:Drivers/STM32F4xx_HAL_Driver/Src/stm32f4xx_ll_usb.c ****       USBx_OUTEP(epnum)->DOEPCTL |= (ep->maxpacket & USB_OTG_DOEPCTL_MPSIZ) |
 1657              		.loc 1 608 34
 1658 00a8 BB68     		ldr	r3, [r7, #8]
 1659 00aa 5A01     		lsls	r2, r3, #5
 1660 00ac FB68     		ldr	r3, [r7, #12]
 1661 00ae 1344     		add	r3, r3, r2
 1662 00b0 03F53063 		add	r3, r3, #2816
 1663 00b4 1A68     		ldr	r2, [r3]
 1664              		.loc 1 608 40
 1665 00b6 3B68     		ldr	r3, [r7]
 1666 00b8 9B68     		ldr	r3, [r3, #8]
 1667              		.loc 1 608 52
 1668 00ba C3F30A01 		ubfx	r1, r3, #0, #11
 609:Drivers/STM32F4xx_HAL_Driver/Src/stm32f4xx_ll_usb.c ****                                     ((uint32_t)ep->type << 18) | (epnum << 22) |
 1669              		.loc 1 609 50
 1670 00be 3B68     		ldr	r3, [r7]
 1671 00c0 DB78     		ldrb	r3, [r3, #3]	@ zero_extendqisi2
 1672              		.loc 1 609 57
 1673 00c2 9B04     		lsls	r3, r3, #18
 608:Drivers/STM32F4xx_HAL_Driver/Src/stm32f4xx_ll_usb.c ****                                     ((uint32_t)ep->type << 18) | (epnum << 22) |
 1674              		.loc 1 608 77
 1675 00c4 1943     		orrs	r1, r1, r3
 1676              		.loc 1 609 73
 1677 00c6 BB68     		ldr	r3, [r7, #8]
 1678 00c8 9B05     		lsls	r3, r3, #22
 1679              		.loc 1 609 64
ARM GAS  /var/folders/vq/qt4vp3kd5rxf7v2b6_fdtdt80000gn/T//ccjOke0W.s 			page 41


 1680 00ca 0B43     		orrs	r3, r3, r1
 608:Drivers/STM32F4xx_HAL_Driver/Src/stm32f4xx_ll_usb.c ****                                     ((uint32_t)ep->type << 18) | (epnum << 22) |
 1681              		.loc 1 608 34
 1682 00cc 1343     		orrs	r3, r3, r2
 1683 00ce BA68     		ldr	r2, [r7, #8]
 1684 00d0 5101     		lsls	r1, r2, #5
 1685 00d2 FA68     		ldr	r2, [r7, #12]
 1686 00d4 0A44     		add	r2, r2, r1
 1687 00d6 02F53062 		add	r2, r2, #2816
 1688 00da 43F40043 		orr	r3, r3, #32768
 1689 00de 1360     		str	r3, [r2]
 1690              	.L88:
 610:Drivers/STM32F4xx_HAL_Driver/Src/stm32f4xx_ll_usb.c ****                                     USB_OTG_DOEPCTL_USBAEP;
 611:Drivers/STM32F4xx_HAL_Driver/Src/stm32f4xx_ll_usb.c ****     }
 612:Drivers/STM32F4xx_HAL_Driver/Src/stm32f4xx_ll_usb.c **** 
 613:Drivers/STM32F4xx_HAL_Driver/Src/stm32f4xx_ll_usb.c ****     USBx_DEVICE->DEACHMSK |= USB_OTG_DAINTMSK_OEPM & ((uint32_t)(1UL << (ep->num & EP_ADDR_MSK)) <<
 1691              		.loc 1 613 27
 1692 00e0 FB68     		ldr	r3, [r7, #12]
 1693 00e2 03F50063 		add	r3, r3, #2048
 1694 00e6 DA6B     		ldr	r2, [r3, #60]
 1695              		.loc 1 613 76
 1696 00e8 3B68     		ldr	r3, [r7]
 1697 00ea 1B78     		ldrb	r3, [r3]	@ zero_extendqisi2
 1698              		.loc 1 613 82
 1699 00ec 03F00F03 		and	r3, r3, #15
 1700              		.loc 1 613 55
 1701 00f0 0121     		movs	r1, #1
 1702 00f2 01FA03F3 		lsl	r3, r1, r3
 1703              		.loc 1 613 52
 1704 00f6 1B04     		lsls	r3, r3, #16
 1705              		.loc 1 613 27
 1706 00f8 F968     		ldr	r1, [r7, #12]
 1707 00fa 01F50061 		add	r1, r1, #2048
 1708 00fe 1343     		orrs	r3, r3, r2
 1709 0100 CB63     		str	r3, [r1, #60]
 1710              	.L87:
 614:Drivers/STM32F4xx_HAL_Driver/Src/stm32f4xx_ll_usb.c ****   }
 615:Drivers/STM32F4xx_HAL_Driver/Src/stm32f4xx_ll_usb.c **** 
 616:Drivers/STM32F4xx_HAL_Driver/Src/stm32f4xx_ll_usb.c ****   return HAL_OK;
 1711              		.loc 1 616 10
 1712 0102 0023     		movs	r3, #0
 617:Drivers/STM32F4xx_HAL_Driver/Src/stm32f4xx_ll_usb.c **** }
 1713              		.loc 1 617 1
 1714 0104 1846     		mov	r0, r3
 1715 0106 1437     		adds	r7, r7, #20
 1716              	.LCFI72:
 1717              		.cfi_def_cfa_offset 4
 1718 0108 BD46     		mov	sp, r7
 1719              	.LCFI73:
 1720              		.cfi_def_cfa_register 13
 1721              		@ sp needed
 1722 010a 5DF8047B 		ldr	r7, [sp], #4
 1723              	.LCFI74:
 1724              		.cfi_restore 7
 1725              		.cfi_def_cfa_offset 0
 1726 010e 7047     		bx	lr
 1727              		.cfi_endproc
ARM GAS  /var/folders/vq/qt4vp3kd5rxf7v2b6_fdtdt80000gn/T//ccjOke0W.s 			page 42


 1728              	.LFE141:
 1730              		.section	.text.USB_DeactivateEndpoint,"ax",%progbits
 1731              		.align	1
 1732              		.global	USB_DeactivateEndpoint
 1733              		.syntax unified
 1734              		.thumb
 1735              		.thumb_func
 1736              		.fpu fpv4-sp-d16
 1738              	USB_DeactivateEndpoint:
 1739              	.LFB142:
 618:Drivers/STM32F4xx_HAL_Driver/Src/stm32f4xx_ll_usb.c **** 
 619:Drivers/STM32F4xx_HAL_Driver/Src/stm32f4xx_ll_usb.c **** /**
 620:Drivers/STM32F4xx_HAL_Driver/Src/stm32f4xx_ll_usb.c ****   * @brief  De-activate and de-initialize an endpoint
 621:Drivers/STM32F4xx_HAL_Driver/Src/stm32f4xx_ll_usb.c ****   * @param  USBx  Selected device
 622:Drivers/STM32F4xx_HAL_Driver/Src/stm32f4xx_ll_usb.c ****   * @param  ep pointer to endpoint structure
 623:Drivers/STM32F4xx_HAL_Driver/Src/stm32f4xx_ll_usb.c ****   * @retval HAL status
 624:Drivers/STM32F4xx_HAL_Driver/Src/stm32f4xx_ll_usb.c ****   */
 625:Drivers/STM32F4xx_HAL_Driver/Src/stm32f4xx_ll_usb.c **** HAL_StatusTypeDef USB_DeactivateEndpoint(USB_OTG_GlobalTypeDef *USBx, USB_OTG_EPTypeDef *ep)
 626:Drivers/STM32F4xx_HAL_Driver/Src/stm32f4xx_ll_usb.c **** {
 1740              		.loc 1 626 1
 1741              		.cfi_startproc
 1742              		@ args = 0, pretend = 0, frame = 16
 1743              		@ frame_needed = 1, uses_anonymous_args = 0
 1744              		@ link register save eliminated.
 1745 0000 80B4     		push	{r7}
 1746              	.LCFI75:
 1747              		.cfi_def_cfa_offset 4
 1748              		.cfi_offset 7, -4
 1749 0002 85B0     		sub	sp, sp, #20
 1750              	.LCFI76:
 1751              		.cfi_def_cfa_offset 24
 1752 0004 00AF     		add	r7, sp, #0
 1753              	.LCFI77:
 1754              		.cfi_def_cfa_register 7
 1755 0006 7860     		str	r0, [r7, #4]
 1756 0008 3960     		str	r1, [r7]
 627:Drivers/STM32F4xx_HAL_Driver/Src/stm32f4xx_ll_usb.c ****   uint32_t USBx_BASE = (uint32_t)USBx;
 1757              		.loc 1 627 12
 1758 000a 7B68     		ldr	r3, [r7, #4]
 1759 000c FB60     		str	r3, [r7, #12]
 628:Drivers/STM32F4xx_HAL_Driver/Src/stm32f4xx_ll_usb.c ****   uint32_t epnum = (uint32_t)ep->num;
 1760              		.loc 1 628 32
 1761 000e 3B68     		ldr	r3, [r7]
 1762 0010 1B78     		ldrb	r3, [r3]	@ zero_extendqisi2
 1763              		.loc 1 628 12
 1764 0012 BB60     		str	r3, [r7, #8]
 629:Drivers/STM32F4xx_HAL_Driver/Src/stm32f4xx_ll_usb.c **** 
 630:Drivers/STM32F4xx_HAL_Driver/Src/stm32f4xx_ll_usb.c ****   /* Read DEPCTLn register */
 631:Drivers/STM32F4xx_HAL_Driver/Src/stm32f4xx_ll_usb.c ****   if (ep->is_in == 1U)
 1765              		.loc 1 631 9
 1766 0014 3B68     		ldr	r3, [r7]
 1767 0016 5B78     		ldrb	r3, [r3, #1]	@ zero_extendqisi2
 1768              		.loc 1 631 6
 1769 0018 012B     		cmp	r3, #1
 1770 001a 61D1     		bne	.L91
 632:Drivers/STM32F4xx_HAL_Driver/Src/stm32f4xx_ll_usb.c ****   {
 633:Drivers/STM32F4xx_HAL_Driver/Src/stm32f4xx_ll_usb.c ****     if ((USBx_INEP(epnum)->DIEPCTL & USB_OTG_DIEPCTL_EPENA) == USB_OTG_DIEPCTL_EPENA)
ARM GAS  /var/folders/vq/qt4vp3kd5rxf7v2b6_fdtdt80000gn/T//ccjOke0W.s 			page 43


 1771              		.loc 1 633 10
 1772 001c BB68     		ldr	r3, [r7, #8]
 1773 001e 5A01     		lsls	r2, r3, #5
 1774 0020 FB68     		ldr	r3, [r7, #12]
 1775 0022 1344     		add	r3, r3, r2
 1776 0024 03F51063 		add	r3, r3, #2304
 1777              		.loc 1 633 26
 1778 0028 1B68     		ldr	r3, [r3]
 1779              		.loc 1 633 36
 1780 002a 03F00043 		and	r3, r3, #-2147483648
 1781              		.loc 1 633 8
 1782 002e B3F1004F 		cmp	r3, #-2147483648
 1783 0032 1FD1     		bne	.L92
 634:Drivers/STM32F4xx_HAL_Driver/Src/stm32f4xx_ll_usb.c ****     {
 635:Drivers/STM32F4xx_HAL_Driver/Src/stm32f4xx_ll_usb.c ****       USBx_INEP(epnum)->DIEPCTL |= USB_OTG_DIEPCTL_SNAK;
 1784              		.loc 1 635 33
 1785 0034 BB68     		ldr	r3, [r7, #8]
 1786 0036 5A01     		lsls	r2, r3, #5
 1787 0038 FB68     		ldr	r3, [r7, #12]
 1788 003a 1344     		add	r3, r3, r2
 1789 003c 03F51063 		add	r3, r3, #2304
 1790 0040 1B68     		ldr	r3, [r3]
 1791 0042 BA68     		ldr	r2, [r7, #8]
 1792 0044 5101     		lsls	r1, r2, #5
 1793 0046 FA68     		ldr	r2, [r7, #12]
 1794 0048 0A44     		add	r2, r2, r1
 1795 004a 02F51062 		add	r2, r2, #2304
 1796 004e 43F00063 		orr	r3, r3, #134217728
 1797 0052 1360     		str	r3, [r2]
 636:Drivers/STM32F4xx_HAL_Driver/Src/stm32f4xx_ll_usb.c ****       USBx_INEP(epnum)->DIEPCTL |= USB_OTG_DIEPCTL_EPDIS;
 1798              		.loc 1 636 33
 1799 0054 BB68     		ldr	r3, [r7, #8]
 1800 0056 5A01     		lsls	r2, r3, #5
 1801 0058 FB68     		ldr	r3, [r7, #12]
 1802 005a 1344     		add	r3, r3, r2
 1803 005c 03F51063 		add	r3, r3, #2304
 1804 0060 1B68     		ldr	r3, [r3]
 1805 0062 BA68     		ldr	r2, [r7, #8]
 1806 0064 5101     		lsls	r1, r2, #5
 1807 0066 FA68     		ldr	r2, [r7, #12]
 1808 0068 0A44     		add	r2, r2, r1
 1809 006a 02F51062 		add	r2, r2, #2304
 1810 006e 43F08043 		orr	r3, r3, #1073741824
 1811 0072 1360     		str	r3, [r2]
 1812              	.L92:
 637:Drivers/STM32F4xx_HAL_Driver/Src/stm32f4xx_ll_usb.c ****     }
 638:Drivers/STM32F4xx_HAL_Driver/Src/stm32f4xx_ll_usb.c **** 
 639:Drivers/STM32F4xx_HAL_Driver/Src/stm32f4xx_ll_usb.c ****     USBx_DEVICE->DEACHMSK &= ~(USB_OTG_DAINTMSK_IEPM & (uint32_t)(1UL << (ep->num & EP_ADDR_MSK)));
 1813              		.loc 1 639 27
 1814 0074 FB68     		ldr	r3, [r7, #12]
 1815 0076 03F50063 		add	r3, r3, #2048
 1816 007a DA6B     		ldr	r2, [r3, #60]
 1817              		.loc 1 639 77
 1818 007c 3B68     		ldr	r3, [r7]
 1819 007e 1B78     		ldrb	r3, [r3]	@ zero_extendqisi2
 1820              		.loc 1 639 83
 1821 0080 03F00F03 		and	r3, r3, #15
ARM GAS  /var/folders/vq/qt4vp3kd5rxf7v2b6_fdtdt80000gn/T//ccjOke0W.s 			page 44


 1822              		.loc 1 639 56
 1823 0084 0121     		movs	r1, #1
 1824 0086 01FA03F3 		lsl	r3, r1, r3
 1825              		.loc 1 639 54
 1826 008a 9BB2     		uxth	r3, r3
 1827              		.loc 1 639 30
 1828 008c DB43     		mvns	r3, r3
 1829              		.loc 1 639 27
 1830 008e F968     		ldr	r1, [r7, #12]
 1831 0090 01F50061 		add	r1, r1, #2048
 1832 0094 1340     		ands	r3, r3, r2
 1833 0096 CB63     		str	r3, [r1, #60]
 640:Drivers/STM32F4xx_HAL_Driver/Src/stm32f4xx_ll_usb.c ****     USBx_DEVICE->DAINTMSK &= ~(USB_OTG_DAINTMSK_IEPM & (uint32_t)(1UL << (ep->num & EP_ADDR_MSK)));
 1834              		.loc 1 640 27
 1835 0098 FB68     		ldr	r3, [r7, #12]
 1836 009a 03F50063 		add	r3, r3, #2048
 1837 009e DA69     		ldr	r2, [r3, #28]
 1838              		.loc 1 640 77
 1839 00a0 3B68     		ldr	r3, [r7]
 1840 00a2 1B78     		ldrb	r3, [r3]	@ zero_extendqisi2
 1841              		.loc 1 640 83
 1842 00a4 03F00F03 		and	r3, r3, #15
 1843              		.loc 1 640 56
 1844 00a8 0121     		movs	r1, #1
 1845 00aa 01FA03F3 		lsl	r3, r1, r3
 1846              		.loc 1 640 54
 1847 00ae 9BB2     		uxth	r3, r3
 1848              		.loc 1 640 30
 1849 00b0 DB43     		mvns	r3, r3
 1850              		.loc 1 640 27
 1851 00b2 F968     		ldr	r1, [r7, #12]
 1852 00b4 01F50061 		add	r1, r1, #2048
 1853 00b8 1340     		ands	r3, r3, r2
 1854 00ba CB61     		str	r3, [r1, #28]
 641:Drivers/STM32F4xx_HAL_Driver/Src/stm32f4xx_ll_usb.c ****     USBx_INEP(epnum)->DIEPCTL &= ~(USB_OTG_DIEPCTL_USBAEP |
 1855              		.loc 1 641 31
 1856 00bc BB68     		ldr	r3, [r7, #8]
 1857 00be 5A01     		lsls	r2, r3, #5
 1858 00c0 FB68     		ldr	r3, [r7, #12]
 1859 00c2 1344     		add	r3, r3, r2
 1860 00c4 03F51063 		add	r3, r3, #2304
 1861 00c8 1A68     		ldr	r2, [r3]
 1862 00ca BB68     		ldr	r3, [r7, #8]
 1863 00cc 5901     		lsls	r1, r3, #5
 1864 00ce FB68     		ldr	r3, [r7, #12]
 1865 00d0 0B44     		add	r3, r3, r1
 1866 00d2 03F51063 		add	r3, r3, #2304
 1867 00d6 1946     		mov	r1, r3
 1868 00d8 354B     		ldr	r3, .L96
 1869 00da 1340     		ands	r3, r3, r2
 1870 00dc 0B60     		str	r3, [r1]
 1871 00de 60E0     		b	.L93
 1872              	.L91:
 642:Drivers/STM32F4xx_HAL_Driver/Src/stm32f4xx_ll_usb.c ****                                    USB_OTG_DIEPCTL_MPSIZ |
 643:Drivers/STM32F4xx_HAL_Driver/Src/stm32f4xx_ll_usb.c ****                                    USB_OTG_DIEPCTL_TXFNUM |
 644:Drivers/STM32F4xx_HAL_Driver/Src/stm32f4xx_ll_usb.c ****                                    USB_OTG_DIEPCTL_SD0PID_SEVNFRM |
 645:Drivers/STM32F4xx_HAL_Driver/Src/stm32f4xx_ll_usb.c ****                                    USB_OTG_DIEPCTL_EPTYP);
ARM GAS  /var/folders/vq/qt4vp3kd5rxf7v2b6_fdtdt80000gn/T//ccjOke0W.s 			page 45


 646:Drivers/STM32F4xx_HAL_Driver/Src/stm32f4xx_ll_usb.c ****   }
 647:Drivers/STM32F4xx_HAL_Driver/Src/stm32f4xx_ll_usb.c ****   else
 648:Drivers/STM32F4xx_HAL_Driver/Src/stm32f4xx_ll_usb.c ****   {
 649:Drivers/STM32F4xx_HAL_Driver/Src/stm32f4xx_ll_usb.c ****     if ((USBx_OUTEP(epnum)->DOEPCTL & USB_OTG_DOEPCTL_EPENA) == USB_OTG_DOEPCTL_EPENA)
 1873              		.loc 1 649 10
 1874 00e0 BB68     		ldr	r3, [r7, #8]
 1875 00e2 5A01     		lsls	r2, r3, #5
 1876 00e4 FB68     		ldr	r3, [r7, #12]
 1877 00e6 1344     		add	r3, r3, r2
 1878 00e8 03F53063 		add	r3, r3, #2816
 1879              		.loc 1 649 27
 1880 00ec 1B68     		ldr	r3, [r3]
 1881              		.loc 1 649 37
 1882 00ee 03F00043 		and	r3, r3, #-2147483648
 1883              		.loc 1 649 8
 1884 00f2 B3F1004F 		cmp	r3, #-2147483648
 1885 00f6 1FD1     		bne	.L94
 650:Drivers/STM32F4xx_HAL_Driver/Src/stm32f4xx_ll_usb.c ****     {
 651:Drivers/STM32F4xx_HAL_Driver/Src/stm32f4xx_ll_usb.c ****       USBx_OUTEP(epnum)->DOEPCTL |= USB_OTG_DOEPCTL_SNAK;
 1886              		.loc 1 651 34
 1887 00f8 BB68     		ldr	r3, [r7, #8]
 1888 00fa 5A01     		lsls	r2, r3, #5
 1889 00fc FB68     		ldr	r3, [r7, #12]
 1890 00fe 1344     		add	r3, r3, r2
 1891 0100 03F53063 		add	r3, r3, #2816
 1892 0104 1B68     		ldr	r3, [r3]
 1893 0106 BA68     		ldr	r2, [r7, #8]
 1894 0108 5101     		lsls	r1, r2, #5
 1895 010a FA68     		ldr	r2, [r7, #12]
 1896 010c 0A44     		add	r2, r2, r1
 1897 010e 02F53062 		add	r2, r2, #2816
 1898 0112 43F00063 		orr	r3, r3, #134217728
 1899 0116 1360     		str	r3, [r2]
 652:Drivers/STM32F4xx_HAL_Driver/Src/stm32f4xx_ll_usb.c ****       USBx_OUTEP(epnum)->DOEPCTL |= USB_OTG_DOEPCTL_EPDIS;
 1900              		.loc 1 652 34
 1901 0118 BB68     		ldr	r3, [r7, #8]
 1902 011a 5A01     		lsls	r2, r3, #5
 1903 011c FB68     		ldr	r3, [r7, #12]
 1904 011e 1344     		add	r3, r3, r2
 1905 0120 03F53063 		add	r3, r3, #2816
 1906 0124 1B68     		ldr	r3, [r3]
 1907 0126 BA68     		ldr	r2, [r7, #8]
 1908 0128 5101     		lsls	r1, r2, #5
 1909 012a FA68     		ldr	r2, [r7, #12]
 1910 012c 0A44     		add	r2, r2, r1
 1911 012e 02F53062 		add	r2, r2, #2816
 1912 0132 43F08043 		orr	r3, r3, #1073741824
 1913 0136 1360     		str	r3, [r2]
 1914              	.L94:
 653:Drivers/STM32F4xx_HAL_Driver/Src/stm32f4xx_ll_usb.c ****     }
 654:Drivers/STM32F4xx_HAL_Driver/Src/stm32f4xx_ll_usb.c **** 
 655:Drivers/STM32F4xx_HAL_Driver/Src/stm32f4xx_ll_usb.c ****     USBx_DEVICE->DEACHMSK &= ~(USB_OTG_DAINTMSK_OEPM & ((uint32_t)(1UL << (ep->num & EP_ADDR_MSK)) 
 1915              		.loc 1 655 27
 1916 0138 FB68     		ldr	r3, [r7, #12]
 1917 013a 03F50063 		add	r3, r3, #2048
 1918 013e DA6B     		ldr	r2, [r3, #60]
 1919              		.loc 1 655 78
ARM GAS  /var/folders/vq/qt4vp3kd5rxf7v2b6_fdtdt80000gn/T//ccjOke0W.s 			page 46


 1920 0140 3B68     		ldr	r3, [r7]
 1921 0142 1B78     		ldrb	r3, [r3]	@ zero_extendqisi2
 1922              		.loc 1 655 84
 1923 0144 03F00F03 		and	r3, r3, #15
 1924              		.loc 1 655 57
 1925 0148 0121     		movs	r1, #1
 1926 014a 01FA03F3 		lsl	r3, r1, r3
 1927              		.loc 1 655 54
 1928 014e 1B04     		lsls	r3, r3, #16
 1929              		.loc 1 655 30
 1930 0150 DB43     		mvns	r3, r3
 1931              		.loc 1 655 27
 1932 0152 F968     		ldr	r1, [r7, #12]
 1933 0154 01F50061 		add	r1, r1, #2048
 1934 0158 1340     		ands	r3, r3, r2
 1935 015a CB63     		str	r3, [r1, #60]
 656:Drivers/STM32F4xx_HAL_Driver/Src/stm32f4xx_ll_usb.c ****     USBx_DEVICE->DAINTMSK &= ~(USB_OTG_DAINTMSK_OEPM & ((uint32_t)(1UL << (ep->num & EP_ADDR_MSK)) 
 1936              		.loc 1 656 27
 1937 015c FB68     		ldr	r3, [r7, #12]
 1938 015e 03F50063 		add	r3, r3, #2048
 1939 0162 DA69     		ldr	r2, [r3, #28]
 1940              		.loc 1 656 78
 1941 0164 3B68     		ldr	r3, [r7]
 1942 0166 1B78     		ldrb	r3, [r3]	@ zero_extendqisi2
 1943              		.loc 1 656 84
 1944 0168 03F00F03 		and	r3, r3, #15
 1945              		.loc 1 656 57
 1946 016c 0121     		movs	r1, #1
 1947 016e 01FA03F3 		lsl	r3, r1, r3
 1948              		.loc 1 656 54
 1949 0172 1B04     		lsls	r3, r3, #16
 1950              		.loc 1 656 30
 1951 0174 DB43     		mvns	r3, r3
 1952              		.loc 1 656 27
 1953 0176 F968     		ldr	r1, [r7, #12]
 1954 0178 01F50061 		add	r1, r1, #2048
 1955 017c 1340     		ands	r3, r3, r2
 1956 017e CB61     		str	r3, [r1, #28]
 657:Drivers/STM32F4xx_HAL_Driver/Src/stm32f4xx_ll_usb.c ****     USBx_OUTEP(epnum)->DOEPCTL &= ~(USB_OTG_DOEPCTL_USBAEP |
 1957              		.loc 1 657 32
 1958 0180 BB68     		ldr	r3, [r7, #8]
 1959 0182 5A01     		lsls	r2, r3, #5
 1960 0184 FB68     		ldr	r3, [r7, #12]
 1961 0186 1344     		add	r3, r3, r2
 1962 0188 03F53063 		add	r3, r3, #2816
 1963 018c 1A68     		ldr	r2, [r3]
 1964 018e BB68     		ldr	r3, [r7, #8]
 1965 0190 5901     		lsls	r1, r3, #5
 1966 0192 FB68     		ldr	r3, [r7, #12]
 1967 0194 0B44     		add	r3, r3, r1
 1968 0196 03F53063 		add	r3, r3, #2816
 1969 019a 1946     		mov	r1, r3
 1970 019c 054B     		ldr	r3, .L96+4
 1971 019e 1340     		ands	r3, r3, r2
 1972 01a0 0B60     		str	r3, [r1]
 1973              	.L93:
 658:Drivers/STM32F4xx_HAL_Driver/Src/stm32f4xx_ll_usb.c ****                                     USB_OTG_DOEPCTL_MPSIZ |
ARM GAS  /var/folders/vq/qt4vp3kd5rxf7v2b6_fdtdt80000gn/T//ccjOke0W.s 			page 47


 659:Drivers/STM32F4xx_HAL_Driver/Src/stm32f4xx_ll_usb.c ****                                     USB_OTG_DOEPCTL_SD0PID_SEVNFRM |
 660:Drivers/STM32F4xx_HAL_Driver/Src/stm32f4xx_ll_usb.c ****                                     USB_OTG_DOEPCTL_EPTYP);
 661:Drivers/STM32F4xx_HAL_Driver/Src/stm32f4xx_ll_usb.c ****   }
 662:Drivers/STM32F4xx_HAL_Driver/Src/stm32f4xx_ll_usb.c **** 
 663:Drivers/STM32F4xx_HAL_Driver/Src/stm32f4xx_ll_usb.c ****   return HAL_OK;
 1974              		.loc 1 663 10
 1975 01a2 0023     		movs	r3, #0
 664:Drivers/STM32F4xx_HAL_Driver/Src/stm32f4xx_ll_usb.c **** }
 1976              		.loc 1 664 1
 1977 01a4 1846     		mov	r0, r3
 1978 01a6 1437     		adds	r7, r7, #20
 1979              	.LCFI78:
 1980              		.cfi_def_cfa_offset 4
 1981 01a8 BD46     		mov	sp, r7
 1982              	.LCFI79:
 1983              		.cfi_def_cfa_register 13
 1984              		@ sp needed
 1985 01aa 5DF8047B 		ldr	r7, [sp], #4
 1986              	.LCFI80:
 1987              		.cfi_restore 7
 1988              		.cfi_def_cfa_offset 0
 1989 01ae 7047     		bx	lr
 1990              	.L97:
 1991              		.align	2
 1992              	.L96:
 1993 01b0 007833EC 		.word	-332171264
 1994 01b4 0078F3EF 		.word	-269256704
 1995              		.cfi_endproc
 1996              	.LFE142:
 1998              		.section	.text.USB_DeactivateDedicatedEndpoint,"ax",%progbits
 1999              		.align	1
 2000              		.global	USB_DeactivateDedicatedEndpoint
 2001              		.syntax unified
 2002              		.thumb
 2003              		.thumb_func
 2004              		.fpu fpv4-sp-d16
 2006              	USB_DeactivateDedicatedEndpoint:
 2007              	.LFB143:
 665:Drivers/STM32F4xx_HAL_Driver/Src/stm32f4xx_ll_usb.c **** 
 666:Drivers/STM32F4xx_HAL_Driver/Src/stm32f4xx_ll_usb.c **** /**
 667:Drivers/STM32F4xx_HAL_Driver/Src/stm32f4xx_ll_usb.c ****   * @brief  De-activate and de-initialize a dedicated endpoint
 668:Drivers/STM32F4xx_HAL_Driver/Src/stm32f4xx_ll_usb.c ****   * @param  USBx  Selected device
 669:Drivers/STM32F4xx_HAL_Driver/Src/stm32f4xx_ll_usb.c ****   * @param  ep pointer to endpoint structure
 670:Drivers/STM32F4xx_HAL_Driver/Src/stm32f4xx_ll_usb.c ****   * @retval HAL status
 671:Drivers/STM32F4xx_HAL_Driver/Src/stm32f4xx_ll_usb.c ****   */
 672:Drivers/STM32F4xx_HAL_Driver/Src/stm32f4xx_ll_usb.c **** HAL_StatusTypeDef USB_DeactivateDedicatedEndpoint(USB_OTG_GlobalTypeDef *USBx, USB_OTG_EPTypeDef *e
 673:Drivers/STM32F4xx_HAL_Driver/Src/stm32f4xx_ll_usb.c **** {
 2008              		.loc 1 673 1
 2009              		.cfi_startproc
 2010              		@ args = 0, pretend = 0, frame = 16
 2011              		@ frame_needed = 1, uses_anonymous_args = 0
 2012              		@ link register save eliminated.
 2013 0000 80B4     		push	{r7}
 2014              	.LCFI81:
 2015              		.cfi_def_cfa_offset 4
 2016              		.cfi_offset 7, -4
 2017 0002 85B0     		sub	sp, sp, #20
ARM GAS  /var/folders/vq/qt4vp3kd5rxf7v2b6_fdtdt80000gn/T//ccjOke0W.s 			page 48


 2018              	.LCFI82:
 2019              		.cfi_def_cfa_offset 24
 2020 0004 00AF     		add	r7, sp, #0
 2021              	.LCFI83:
 2022              		.cfi_def_cfa_register 7
 2023 0006 7860     		str	r0, [r7, #4]
 2024 0008 3960     		str	r1, [r7]
 674:Drivers/STM32F4xx_HAL_Driver/Src/stm32f4xx_ll_usb.c ****   uint32_t USBx_BASE = (uint32_t)USBx;
 2025              		.loc 1 674 12
 2026 000a 7B68     		ldr	r3, [r7, #4]
 2027 000c FB60     		str	r3, [r7, #12]
 675:Drivers/STM32F4xx_HAL_Driver/Src/stm32f4xx_ll_usb.c ****   uint32_t epnum = (uint32_t)ep->num;
 2028              		.loc 1 675 32
 2029 000e 3B68     		ldr	r3, [r7]
 2030 0010 1B78     		ldrb	r3, [r3]	@ zero_extendqisi2
 2031              		.loc 1 675 12
 2032 0012 BB60     		str	r3, [r7, #8]
 676:Drivers/STM32F4xx_HAL_Driver/Src/stm32f4xx_ll_usb.c **** 
 677:Drivers/STM32F4xx_HAL_Driver/Src/stm32f4xx_ll_usb.c ****   /* Read DEPCTLn register */
 678:Drivers/STM32F4xx_HAL_Driver/Src/stm32f4xx_ll_usb.c ****   if (ep->is_in == 1U)
 2033              		.loc 1 678 9
 2034 0014 3B68     		ldr	r3, [r7]
 2035 0016 5B78     		ldrb	r3, [r3, #1]	@ zero_extendqisi2
 2036              		.loc 1 678 6
 2037 0018 012B     		cmp	r3, #1
 2038 001a 4ED1     		bne	.L99
 679:Drivers/STM32F4xx_HAL_Driver/Src/stm32f4xx_ll_usb.c ****   {
 680:Drivers/STM32F4xx_HAL_Driver/Src/stm32f4xx_ll_usb.c ****     if ((USBx_INEP(epnum)->DIEPCTL & USB_OTG_DIEPCTL_EPENA) == USB_OTG_DIEPCTL_EPENA)
 2039              		.loc 1 680 10
 2040 001c BB68     		ldr	r3, [r7, #8]
 2041 001e 5A01     		lsls	r2, r3, #5
 2042 0020 FB68     		ldr	r3, [r7, #12]
 2043 0022 1344     		add	r3, r3, r2
 2044 0024 03F51063 		add	r3, r3, #2304
 2045              		.loc 1 680 26
 2046 0028 1B68     		ldr	r3, [r3]
 2047              		.loc 1 680 36
 2048 002a 03F00043 		and	r3, r3, #-2147483648
 2049              		.loc 1 680 8
 2050 002e B3F1004F 		cmp	r3, #-2147483648
 2051 0032 1FD1     		bne	.L100
 681:Drivers/STM32F4xx_HAL_Driver/Src/stm32f4xx_ll_usb.c ****     {
 682:Drivers/STM32F4xx_HAL_Driver/Src/stm32f4xx_ll_usb.c ****       USBx_INEP(epnum)->DIEPCTL  |= USB_OTG_DIEPCTL_SNAK;
 2052              		.loc 1 682 34
 2053 0034 BB68     		ldr	r3, [r7, #8]
 2054 0036 5A01     		lsls	r2, r3, #5
 2055 0038 FB68     		ldr	r3, [r7, #12]
 2056 003a 1344     		add	r3, r3, r2
 2057 003c 03F51063 		add	r3, r3, #2304
 2058 0040 1B68     		ldr	r3, [r3]
 2059 0042 BA68     		ldr	r2, [r7, #8]
 2060 0044 5101     		lsls	r1, r2, #5
 2061 0046 FA68     		ldr	r2, [r7, #12]
 2062 0048 0A44     		add	r2, r2, r1
 2063 004a 02F51062 		add	r2, r2, #2304
 2064 004e 43F00063 		orr	r3, r3, #134217728
 2065 0052 1360     		str	r3, [r2]
ARM GAS  /var/folders/vq/qt4vp3kd5rxf7v2b6_fdtdt80000gn/T//ccjOke0W.s 			page 49


 683:Drivers/STM32F4xx_HAL_Driver/Src/stm32f4xx_ll_usb.c ****       USBx_INEP(epnum)->DIEPCTL  |= USB_OTG_DIEPCTL_EPDIS;
 2066              		.loc 1 683 34
 2067 0054 BB68     		ldr	r3, [r7, #8]
 2068 0056 5A01     		lsls	r2, r3, #5
 2069 0058 FB68     		ldr	r3, [r7, #12]
 2070 005a 1344     		add	r3, r3, r2
 2071 005c 03F51063 		add	r3, r3, #2304
 2072 0060 1B68     		ldr	r3, [r3]
 2073 0062 BA68     		ldr	r2, [r7, #8]
 2074 0064 5101     		lsls	r1, r2, #5
 2075 0066 FA68     		ldr	r2, [r7, #12]
 2076 0068 0A44     		add	r2, r2, r1
 2077 006a 02F51062 		add	r2, r2, #2304
 2078 006e 43F08043 		orr	r3, r3, #1073741824
 2079 0072 1360     		str	r3, [r2]
 2080              	.L100:
 684:Drivers/STM32F4xx_HAL_Driver/Src/stm32f4xx_ll_usb.c ****     }
 685:Drivers/STM32F4xx_HAL_Driver/Src/stm32f4xx_ll_usb.c **** 
 686:Drivers/STM32F4xx_HAL_Driver/Src/stm32f4xx_ll_usb.c ****     USBx_INEP(epnum)->DIEPCTL &= ~ USB_OTG_DIEPCTL_USBAEP;
 2081              		.loc 1 686 31
 2082 0074 BB68     		ldr	r3, [r7, #8]
 2083 0076 5A01     		lsls	r2, r3, #5
 2084 0078 FB68     		ldr	r3, [r7, #12]
 2085 007a 1344     		add	r3, r3, r2
 2086 007c 03F51063 		add	r3, r3, #2304
 2087 0080 1B68     		ldr	r3, [r3]
 2088 0082 BA68     		ldr	r2, [r7, #8]
 2089 0084 5101     		lsls	r1, r2, #5
 2090 0086 FA68     		ldr	r2, [r7, #12]
 2091 0088 0A44     		add	r2, r2, r1
 2092 008a 02F51062 		add	r2, r2, #2304
 2093 008e 23F40043 		bic	r3, r3, #32768
 2094 0092 1360     		str	r3, [r2]
 687:Drivers/STM32F4xx_HAL_Driver/Src/stm32f4xx_ll_usb.c ****     USBx_DEVICE->DAINTMSK &= ~(USB_OTG_DAINTMSK_IEPM & (uint32_t)(1UL << (ep->num & EP_ADDR_MSK)));
 2095              		.loc 1 687 27
 2096 0094 FB68     		ldr	r3, [r7, #12]
 2097 0096 03F50063 		add	r3, r3, #2048
 2098 009a DA69     		ldr	r2, [r3, #28]
 2099              		.loc 1 687 77
 2100 009c 3B68     		ldr	r3, [r7]
 2101 009e 1B78     		ldrb	r3, [r3]	@ zero_extendqisi2
 2102              		.loc 1 687 83
 2103 00a0 03F00F03 		and	r3, r3, #15
 2104              		.loc 1 687 56
 2105 00a4 0121     		movs	r1, #1
 2106 00a6 01FA03F3 		lsl	r3, r1, r3
 2107              		.loc 1 687 54
 2108 00aa 9BB2     		uxth	r3, r3
 2109              		.loc 1 687 30
 2110 00ac DB43     		mvns	r3, r3
 2111              		.loc 1 687 27
 2112 00ae F968     		ldr	r1, [r7, #12]
 2113 00b0 01F50061 		add	r1, r1, #2048
 2114 00b4 1340     		ands	r3, r3, r2
 2115 00b6 CB61     		str	r3, [r1, #28]
 2116 00b8 4DE0     		b	.L101
 2117              	.L99:
ARM GAS  /var/folders/vq/qt4vp3kd5rxf7v2b6_fdtdt80000gn/T//ccjOke0W.s 			page 50


 688:Drivers/STM32F4xx_HAL_Driver/Src/stm32f4xx_ll_usb.c ****   }
 689:Drivers/STM32F4xx_HAL_Driver/Src/stm32f4xx_ll_usb.c ****   else
 690:Drivers/STM32F4xx_HAL_Driver/Src/stm32f4xx_ll_usb.c ****   {
 691:Drivers/STM32F4xx_HAL_Driver/Src/stm32f4xx_ll_usb.c ****     if ((USBx_OUTEP(epnum)->DOEPCTL & USB_OTG_DOEPCTL_EPENA) == USB_OTG_DOEPCTL_EPENA)
 2118              		.loc 1 691 10
 2119 00ba BB68     		ldr	r3, [r7, #8]
 2120 00bc 5A01     		lsls	r2, r3, #5
 2121 00be FB68     		ldr	r3, [r7, #12]
 2122 00c0 1344     		add	r3, r3, r2
 2123 00c2 03F53063 		add	r3, r3, #2816
 2124              		.loc 1 691 27
 2125 00c6 1B68     		ldr	r3, [r3]
 2126              		.loc 1 691 37
 2127 00c8 03F00043 		and	r3, r3, #-2147483648
 2128              		.loc 1 691 8
 2129 00cc B3F1004F 		cmp	r3, #-2147483648
 2130 00d0 1FD1     		bne	.L102
 692:Drivers/STM32F4xx_HAL_Driver/Src/stm32f4xx_ll_usb.c ****     {
 693:Drivers/STM32F4xx_HAL_Driver/Src/stm32f4xx_ll_usb.c ****       USBx_OUTEP(epnum)->DOEPCTL  |= USB_OTG_DOEPCTL_SNAK;
 2131              		.loc 1 693 35
 2132 00d2 BB68     		ldr	r3, [r7, #8]
 2133 00d4 5A01     		lsls	r2, r3, #5
 2134 00d6 FB68     		ldr	r3, [r7, #12]
 2135 00d8 1344     		add	r3, r3, r2
 2136 00da 03F53063 		add	r3, r3, #2816
 2137 00de 1B68     		ldr	r3, [r3]
 2138 00e0 BA68     		ldr	r2, [r7, #8]
 2139 00e2 5101     		lsls	r1, r2, #5
 2140 00e4 FA68     		ldr	r2, [r7, #12]
 2141 00e6 0A44     		add	r2, r2, r1
 2142 00e8 02F53062 		add	r2, r2, #2816
 2143 00ec 43F00063 		orr	r3, r3, #134217728
 2144 00f0 1360     		str	r3, [r2]
 694:Drivers/STM32F4xx_HAL_Driver/Src/stm32f4xx_ll_usb.c ****       USBx_OUTEP(epnum)->DOEPCTL  |= USB_OTG_DOEPCTL_EPDIS;
 2145              		.loc 1 694 35
 2146 00f2 BB68     		ldr	r3, [r7, #8]
 2147 00f4 5A01     		lsls	r2, r3, #5
 2148 00f6 FB68     		ldr	r3, [r7, #12]
 2149 00f8 1344     		add	r3, r3, r2
 2150 00fa 03F53063 		add	r3, r3, #2816
 2151 00fe 1B68     		ldr	r3, [r3]
 2152 0100 BA68     		ldr	r2, [r7, #8]
 2153 0102 5101     		lsls	r1, r2, #5
 2154 0104 FA68     		ldr	r2, [r7, #12]
 2155 0106 0A44     		add	r2, r2, r1
 2156 0108 02F53062 		add	r2, r2, #2816
 2157 010c 43F08043 		orr	r3, r3, #1073741824
 2158 0110 1360     		str	r3, [r2]
 2159              	.L102:
 695:Drivers/STM32F4xx_HAL_Driver/Src/stm32f4xx_ll_usb.c ****     }
 696:Drivers/STM32F4xx_HAL_Driver/Src/stm32f4xx_ll_usb.c **** 
 697:Drivers/STM32F4xx_HAL_Driver/Src/stm32f4xx_ll_usb.c ****     USBx_OUTEP(epnum)->DOEPCTL &= ~USB_OTG_DOEPCTL_USBAEP;
 2160              		.loc 1 697 32
 2161 0112 BB68     		ldr	r3, [r7, #8]
 2162 0114 5A01     		lsls	r2, r3, #5
 2163 0116 FB68     		ldr	r3, [r7, #12]
 2164 0118 1344     		add	r3, r3, r2
ARM GAS  /var/folders/vq/qt4vp3kd5rxf7v2b6_fdtdt80000gn/T//ccjOke0W.s 			page 51


 2165 011a 03F53063 		add	r3, r3, #2816
 2166 011e 1B68     		ldr	r3, [r3]
 2167 0120 BA68     		ldr	r2, [r7, #8]
 2168 0122 5101     		lsls	r1, r2, #5
 2169 0124 FA68     		ldr	r2, [r7, #12]
 2170 0126 0A44     		add	r2, r2, r1
 2171 0128 02F53062 		add	r2, r2, #2816
 2172 012c 23F40043 		bic	r3, r3, #32768
 2173 0130 1360     		str	r3, [r2]
 698:Drivers/STM32F4xx_HAL_Driver/Src/stm32f4xx_ll_usb.c ****     USBx_DEVICE->DAINTMSK &= ~(USB_OTG_DAINTMSK_OEPM & ((uint32_t)(1UL << (ep->num & EP_ADDR_MSK)) 
 2174              		.loc 1 698 27
 2175 0132 FB68     		ldr	r3, [r7, #12]
 2176 0134 03F50063 		add	r3, r3, #2048
 2177 0138 DA69     		ldr	r2, [r3, #28]
 2178              		.loc 1 698 78
 2179 013a 3B68     		ldr	r3, [r7]
 2180 013c 1B78     		ldrb	r3, [r3]	@ zero_extendqisi2
 2181              		.loc 1 698 84
 2182 013e 03F00F03 		and	r3, r3, #15
 2183              		.loc 1 698 57
 2184 0142 0121     		movs	r1, #1
 2185 0144 01FA03F3 		lsl	r3, r1, r3
 2186              		.loc 1 698 54
 2187 0148 1B04     		lsls	r3, r3, #16
 2188              		.loc 1 698 30
 2189 014a DB43     		mvns	r3, r3
 2190              		.loc 1 698 27
 2191 014c F968     		ldr	r1, [r7, #12]
 2192 014e 01F50061 		add	r1, r1, #2048
 2193 0152 1340     		ands	r3, r3, r2
 2194 0154 CB61     		str	r3, [r1, #28]
 2195              	.L101:
 699:Drivers/STM32F4xx_HAL_Driver/Src/stm32f4xx_ll_usb.c ****   }
 700:Drivers/STM32F4xx_HAL_Driver/Src/stm32f4xx_ll_usb.c **** 
 701:Drivers/STM32F4xx_HAL_Driver/Src/stm32f4xx_ll_usb.c ****   return HAL_OK;
 2196              		.loc 1 701 10
 2197 0156 0023     		movs	r3, #0
 702:Drivers/STM32F4xx_HAL_Driver/Src/stm32f4xx_ll_usb.c **** }
 2198              		.loc 1 702 1
 2199 0158 1846     		mov	r0, r3
 2200 015a 1437     		adds	r7, r7, #20
 2201              	.LCFI84:
 2202              		.cfi_def_cfa_offset 4
 2203 015c BD46     		mov	sp, r7
 2204              	.LCFI85:
 2205              		.cfi_def_cfa_register 13
 2206              		@ sp needed
 2207 015e 5DF8047B 		ldr	r7, [sp], #4
 2208              	.LCFI86:
 2209              		.cfi_restore 7
 2210              		.cfi_def_cfa_offset 0
 2211 0162 7047     		bx	lr
 2212              		.cfi_endproc
 2213              	.LFE143:
 2215              		.section	.text.USB_EPStartXfer,"ax",%progbits
 2216              		.align	1
 2217              		.global	USB_EPStartXfer
ARM GAS  /var/folders/vq/qt4vp3kd5rxf7v2b6_fdtdt80000gn/T//ccjOke0W.s 			page 52


 2218              		.syntax unified
 2219              		.thumb
 2220              		.thumb_func
 2221              		.fpu fpv4-sp-d16
 2223              	USB_EPStartXfer:
 2224              	.LFB144:
 703:Drivers/STM32F4xx_HAL_Driver/Src/stm32f4xx_ll_usb.c **** 
 704:Drivers/STM32F4xx_HAL_Driver/Src/stm32f4xx_ll_usb.c **** /**
 705:Drivers/STM32F4xx_HAL_Driver/Src/stm32f4xx_ll_usb.c ****   * @brief  USB_EPStartXfer : setup and starts a transfer over an EP
 706:Drivers/STM32F4xx_HAL_Driver/Src/stm32f4xx_ll_usb.c ****   * @param  USBx  Selected device
 707:Drivers/STM32F4xx_HAL_Driver/Src/stm32f4xx_ll_usb.c ****   * @param  ep pointer to endpoint structure
 708:Drivers/STM32F4xx_HAL_Driver/Src/stm32f4xx_ll_usb.c ****   * @param  dma USB dma enabled or disabled
 709:Drivers/STM32F4xx_HAL_Driver/Src/stm32f4xx_ll_usb.c ****   *          This parameter can be one of these values:
 710:Drivers/STM32F4xx_HAL_Driver/Src/stm32f4xx_ll_usb.c ****   *           0 : DMA feature not used
 711:Drivers/STM32F4xx_HAL_Driver/Src/stm32f4xx_ll_usb.c ****   *           1 : DMA feature used
 712:Drivers/STM32F4xx_HAL_Driver/Src/stm32f4xx_ll_usb.c ****   * @retval HAL status
 713:Drivers/STM32F4xx_HAL_Driver/Src/stm32f4xx_ll_usb.c ****   */
 714:Drivers/STM32F4xx_HAL_Driver/Src/stm32f4xx_ll_usb.c **** HAL_StatusTypeDef USB_EPStartXfer(USB_OTG_GlobalTypeDef *USBx, USB_OTG_EPTypeDef *ep, uint8_t dma)
 715:Drivers/STM32F4xx_HAL_Driver/Src/stm32f4xx_ll_usb.c **** {
 2225              		.loc 1 715 1
 2226              		.cfi_startproc
 2227              		@ args = 0, pretend = 0, frame = 32
 2228              		@ frame_needed = 1, uses_anonymous_args = 0
 2229 0000 80B5     		push	{r7, lr}
 2230              	.LCFI87:
 2231              		.cfi_def_cfa_offset 8
 2232              		.cfi_offset 7, -8
 2233              		.cfi_offset 14, -4
 2234 0002 8AB0     		sub	sp, sp, #40
 2235              	.LCFI88:
 2236              		.cfi_def_cfa_offset 48
 2237 0004 02AF     		add	r7, sp, #8
 2238              	.LCFI89:
 2239              		.cfi_def_cfa 7, 40
 2240 0006 F860     		str	r0, [r7, #12]
 2241 0008 B960     		str	r1, [r7, #8]
 2242 000a 1346     		mov	r3, r2
 2243 000c FB71     		strb	r3, [r7, #7]
 716:Drivers/STM32F4xx_HAL_Driver/Src/stm32f4xx_ll_usb.c ****   uint32_t USBx_BASE = (uint32_t)USBx;
 2244              		.loc 1 716 12
 2245 000e FB68     		ldr	r3, [r7, #12]
 2246 0010 FB61     		str	r3, [r7, #28]
 717:Drivers/STM32F4xx_HAL_Driver/Src/stm32f4xx_ll_usb.c ****   uint32_t epnum = (uint32_t)ep->num;
 2247              		.loc 1 717 32
 2248 0012 BB68     		ldr	r3, [r7, #8]
 2249 0014 1B78     		ldrb	r3, [r3]	@ zero_extendqisi2
 2250              		.loc 1 717 12
 2251 0016 BB61     		str	r3, [r7, #24]
 718:Drivers/STM32F4xx_HAL_Driver/Src/stm32f4xx_ll_usb.c ****   uint16_t pktcnt;
 719:Drivers/STM32F4xx_HAL_Driver/Src/stm32f4xx_ll_usb.c **** 
 720:Drivers/STM32F4xx_HAL_Driver/Src/stm32f4xx_ll_usb.c ****   /* IN endpoint */
 721:Drivers/STM32F4xx_HAL_Driver/Src/stm32f4xx_ll_usb.c ****   if (ep->is_in == 1U)
 2252              		.loc 1 721 9
 2253 0018 BB68     		ldr	r3, [r7, #8]
 2254 001a 5B78     		ldrb	r3, [r3, #1]	@ zero_extendqisi2
 2255              		.loc 1 721 6
 2256 001c 012B     		cmp	r3, #1
ARM GAS  /var/folders/vq/qt4vp3kd5rxf7v2b6_fdtdt80000gn/T//ccjOke0W.s 			page 53


 2257 001e 40F05C81 		bne	.L105
 722:Drivers/STM32F4xx_HAL_Driver/Src/stm32f4xx_ll_usb.c ****   {
 723:Drivers/STM32F4xx_HAL_Driver/Src/stm32f4xx_ll_usb.c ****     /* Zero Length Packet? */
 724:Drivers/STM32F4xx_HAL_Driver/Src/stm32f4xx_ll_usb.c ****     if (ep->xfer_len == 0U)
 2258              		.loc 1 724 11
 2259 0022 BB68     		ldr	r3, [r7, #8]
 2260 0024 5B69     		ldr	r3, [r3, #20]
 2261              		.loc 1 724 8
 2262 0026 002B     		cmp	r3, #0
 2263 0028 32D1     		bne	.L106
 725:Drivers/STM32F4xx_HAL_Driver/Src/stm32f4xx_ll_usb.c ****     {
 726:Drivers/STM32F4xx_HAL_Driver/Src/stm32f4xx_ll_usb.c ****       USBx_INEP(epnum)->DIEPTSIZ &= ~(USB_OTG_DIEPTSIZ_PKTCNT);
 2264              		.loc 1 726 34
 2265 002a BB69     		ldr	r3, [r7, #24]
 2266 002c 5A01     		lsls	r2, r3, #5
 2267 002e FB69     		ldr	r3, [r7, #28]
 2268 0030 1344     		add	r3, r3, r2
 2269 0032 03F51063 		add	r3, r3, #2304
 2270 0036 1B69     		ldr	r3, [r3, #16]
 2271 0038 BA69     		ldr	r2, [r7, #24]
 2272 003a 5101     		lsls	r1, r2, #5
 2273 003c FA69     		ldr	r2, [r7, #28]
 2274 003e 0A44     		add	r2, r2, r1
 2275 0040 02F51062 		add	r2, r2, #2304
 2276 0044 23F0FF53 		bic	r3, r3, #534773760
 2277 0048 23F4C013 		bic	r3, r3, #1572864
 2278 004c 1361     		str	r3, [r2, #16]
 727:Drivers/STM32F4xx_HAL_Driver/Src/stm32f4xx_ll_usb.c ****       USBx_INEP(epnum)->DIEPTSIZ |= (USB_OTG_DIEPTSIZ_PKTCNT & (1U << 19));
 2279              		.loc 1 727 34
 2280 004e BB69     		ldr	r3, [r7, #24]
 2281 0050 5A01     		lsls	r2, r3, #5
 2282 0052 FB69     		ldr	r3, [r7, #28]
 2283 0054 1344     		add	r3, r3, r2
 2284 0056 03F51063 		add	r3, r3, #2304
 2285 005a 1B69     		ldr	r3, [r3, #16]
 2286 005c BA69     		ldr	r2, [r7, #24]
 2287 005e 5101     		lsls	r1, r2, #5
 2288 0060 FA69     		ldr	r2, [r7, #28]
 2289 0062 0A44     		add	r2, r2, r1
 2290 0064 02F51062 		add	r2, r2, #2304
 2291 0068 43F40023 		orr	r3, r3, #524288
 2292 006c 1361     		str	r3, [r2, #16]
 728:Drivers/STM32F4xx_HAL_Driver/Src/stm32f4xx_ll_usb.c ****       USBx_INEP(epnum)->DIEPTSIZ &= ~(USB_OTG_DIEPTSIZ_XFRSIZ);
 2293              		.loc 1 728 34
 2294 006e BB69     		ldr	r3, [r7, #24]
 2295 0070 5A01     		lsls	r2, r3, #5
 2296 0072 FB69     		ldr	r3, [r7, #28]
 2297 0074 1344     		add	r3, r3, r2
 2298 0076 03F51063 		add	r3, r3, #2304
 2299 007a 1B69     		ldr	r3, [r3, #16]
 2300 007c BA69     		ldr	r2, [r7, #24]
 2301 007e 5101     		lsls	r1, r2, #5
 2302 0080 FA69     		ldr	r2, [r7, #28]
 2303 0082 0A44     		add	r2, r2, r1
 2304 0084 02F51062 		add	r2, r2, #2304
 2305 0088 DB0C     		lsrs	r3, r3, #19
 2306 008a DB04     		lsls	r3, r3, #19
ARM GAS  /var/folders/vq/qt4vp3kd5rxf7v2b6_fdtdt80000gn/T//ccjOke0W.s 			page 54


 2307 008c 1361     		str	r3, [r2, #16]
 2308 008e 74E0     		b	.L107
 2309              	.L106:
 729:Drivers/STM32F4xx_HAL_Driver/Src/stm32f4xx_ll_usb.c ****     }
 730:Drivers/STM32F4xx_HAL_Driver/Src/stm32f4xx_ll_usb.c ****     else
 731:Drivers/STM32F4xx_HAL_Driver/Src/stm32f4xx_ll_usb.c ****     {
 732:Drivers/STM32F4xx_HAL_Driver/Src/stm32f4xx_ll_usb.c ****       /* Program the transfer size and packet count
 733:Drivers/STM32F4xx_HAL_Driver/Src/stm32f4xx_ll_usb.c ****       * as follows: xfersize = N * maxpacket +
 734:Drivers/STM32F4xx_HAL_Driver/Src/stm32f4xx_ll_usb.c ****       * short_packet pktcnt = N + (short_packet
 735:Drivers/STM32F4xx_HAL_Driver/Src/stm32f4xx_ll_usb.c ****       * exist ? 1 : 0)
 736:Drivers/STM32F4xx_HAL_Driver/Src/stm32f4xx_ll_usb.c ****       */
 737:Drivers/STM32F4xx_HAL_Driver/Src/stm32f4xx_ll_usb.c ****       USBx_INEP(epnum)->DIEPTSIZ &= ~(USB_OTG_DIEPTSIZ_XFRSIZ);
 2310              		.loc 1 737 34
 2311 0090 BB69     		ldr	r3, [r7, #24]
 2312 0092 5A01     		lsls	r2, r3, #5
 2313 0094 FB69     		ldr	r3, [r7, #28]
 2314 0096 1344     		add	r3, r3, r2
 2315 0098 03F51063 		add	r3, r3, #2304
 2316 009c 1B69     		ldr	r3, [r3, #16]
 2317 009e BA69     		ldr	r2, [r7, #24]
 2318 00a0 5101     		lsls	r1, r2, #5
 2319 00a2 FA69     		ldr	r2, [r7, #28]
 2320 00a4 0A44     		add	r2, r2, r1
 2321 00a6 02F51062 		add	r2, r2, #2304
 2322 00aa DB0C     		lsrs	r3, r3, #19
 2323 00ac DB04     		lsls	r3, r3, #19
 2324 00ae 1361     		str	r3, [r2, #16]
 738:Drivers/STM32F4xx_HAL_Driver/Src/stm32f4xx_ll_usb.c ****       USBx_INEP(epnum)->DIEPTSIZ &= ~(USB_OTG_DIEPTSIZ_PKTCNT);
 2325              		.loc 1 738 34
 2326 00b0 BB69     		ldr	r3, [r7, #24]
 2327 00b2 5A01     		lsls	r2, r3, #5
 2328 00b4 FB69     		ldr	r3, [r7, #28]
 2329 00b6 1344     		add	r3, r3, r2
 2330 00b8 03F51063 		add	r3, r3, #2304
 2331 00bc 1B69     		ldr	r3, [r3, #16]
 2332 00be BA69     		ldr	r2, [r7, #24]
 2333 00c0 5101     		lsls	r1, r2, #5
 2334 00c2 FA69     		ldr	r2, [r7, #28]
 2335 00c4 0A44     		add	r2, r2, r1
 2336 00c6 02F51062 		add	r2, r2, #2304
 2337 00ca 23F0FF53 		bic	r3, r3, #534773760
 2338 00ce 23F4C013 		bic	r3, r3, #1572864
 2339 00d2 1361     		str	r3, [r2, #16]
 739:Drivers/STM32F4xx_HAL_Driver/Src/stm32f4xx_ll_usb.c ****       USBx_INEP(epnum)->DIEPTSIZ |= (USB_OTG_DIEPTSIZ_PKTCNT & (((ep->xfer_len + ep->maxpacket - 1U
 2340              		.loc 1 739 34
 2341 00d4 BB69     		ldr	r3, [r7, #24]
 2342 00d6 5A01     		lsls	r2, r3, #5
 2343 00d8 FB69     		ldr	r3, [r7, #28]
 2344 00da 1344     		add	r3, r3, r2
 2345 00dc 03F51063 		add	r3, r3, #2304
 2346 00e0 1A69     		ldr	r2, [r3, #16]
 2347              		.loc 1 739 69
 2348 00e2 BB68     		ldr	r3, [r7, #8]
 2349 00e4 5969     		ldr	r1, [r3, #20]
 2350              		.loc 1 739 84
 2351 00e6 BB68     		ldr	r3, [r7, #8]
 2352 00e8 9B68     		ldr	r3, [r3, #8]
ARM GAS  /var/folders/vq/qt4vp3kd5rxf7v2b6_fdtdt80000gn/T//ccjOke0W.s 			page 55


 2353              		.loc 1 739 80
 2354 00ea 0B44     		add	r3, r3, r1
 2355              		.loc 1 739 96
 2356 00ec 591E     		subs	r1, r3, #1
 2357              		.loc 1 739 106
 2358 00ee BB68     		ldr	r3, [r7, #8]
 2359 00f0 9B68     		ldr	r3, [r3, #8]
 2360              		.loc 1 739 102
 2361 00f2 B1FBF3F3 		udiv	r3, r1, r3
 2362              		.loc 1 739 119
 2363 00f6 D904     		lsls	r1, r3, #19
 2364              		.loc 1 739 62
 2365 00f8 9D4B     		ldr	r3, .L122
 2366 00fa 0B40     		ands	r3, r3, r1
 2367              		.loc 1 739 34
 2368 00fc B969     		ldr	r1, [r7, #24]
 2369 00fe 4801     		lsls	r0, r1, #5
 2370 0100 F969     		ldr	r1, [r7, #28]
 2371 0102 0144     		add	r1, r1, r0
 2372 0104 01F51061 		add	r1, r1, #2304
 2373 0108 1343     		orrs	r3, r3, r2
 2374 010a 0B61     		str	r3, [r1, #16]
 740:Drivers/STM32F4xx_HAL_Driver/Src/stm32f4xx_ll_usb.c ****       USBx_INEP(epnum)->DIEPTSIZ |= (USB_OTG_DIEPTSIZ_XFRSIZ & ep->xfer_len);
 2375              		.loc 1 740 34
 2376 010c BB69     		ldr	r3, [r7, #24]
 2377 010e 5A01     		lsls	r2, r3, #5
 2378 0110 FB69     		ldr	r3, [r7, #28]
 2379 0112 1344     		add	r3, r3, r2
 2380 0114 03F51063 		add	r3, r3, #2304
 2381 0118 1A69     		ldr	r2, [r3, #16]
 2382              		.loc 1 740 66
 2383 011a BB68     		ldr	r3, [r7, #8]
 2384 011c 5B69     		ldr	r3, [r3, #20]
 2385              		.loc 1 740 62
 2386 011e C3F31203 		ubfx	r3, r3, #0, #19
 2387              		.loc 1 740 34
 2388 0122 B969     		ldr	r1, [r7, #24]
 2389 0124 4801     		lsls	r0, r1, #5
 2390 0126 F969     		ldr	r1, [r7, #28]
 2391 0128 0144     		add	r1, r1, r0
 2392 012a 01F51061 		add	r1, r1, #2304
 2393 012e 1343     		orrs	r3, r3, r2
 2394 0130 0B61     		str	r3, [r1, #16]
 741:Drivers/STM32F4xx_HAL_Driver/Src/stm32f4xx_ll_usb.c **** 
 742:Drivers/STM32F4xx_HAL_Driver/Src/stm32f4xx_ll_usb.c ****       if (ep->type == EP_TYPE_ISOC)
 2395              		.loc 1 742 13
 2396 0132 BB68     		ldr	r3, [r7, #8]
 2397 0134 DB78     		ldrb	r3, [r3, #3]	@ zero_extendqisi2
 2398              		.loc 1 742 10
 2399 0136 012B     		cmp	r3, #1
 2400 0138 1FD1     		bne	.L107
 743:Drivers/STM32F4xx_HAL_Driver/Src/stm32f4xx_ll_usb.c ****       {
 744:Drivers/STM32F4xx_HAL_Driver/Src/stm32f4xx_ll_usb.c ****         USBx_INEP(epnum)->DIEPTSIZ &= ~(USB_OTG_DIEPTSIZ_MULCNT);
 2401              		.loc 1 744 36
 2402 013a BB69     		ldr	r3, [r7, #24]
 2403 013c 5A01     		lsls	r2, r3, #5
 2404 013e FB69     		ldr	r3, [r7, #28]
ARM GAS  /var/folders/vq/qt4vp3kd5rxf7v2b6_fdtdt80000gn/T//ccjOke0W.s 			page 56


 2405 0140 1344     		add	r3, r3, r2
 2406 0142 03F51063 		add	r3, r3, #2304
 2407 0146 1B69     		ldr	r3, [r3, #16]
 2408 0148 BA69     		ldr	r2, [r7, #24]
 2409 014a 5101     		lsls	r1, r2, #5
 2410 014c FA69     		ldr	r2, [r7, #28]
 2411 014e 0A44     		add	r2, r2, r1
 2412 0150 02F51062 		add	r2, r2, #2304
 2413 0154 23F0C043 		bic	r3, r3, #1610612736
 2414 0158 1361     		str	r3, [r2, #16]
 745:Drivers/STM32F4xx_HAL_Driver/Src/stm32f4xx_ll_usb.c ****         USBx_INEP(epnum)->DIEPTSIZ |= (USB_OTG_DIEPTSIZ_MULCNT & (1U << 29));
 2415              		.loc 1 745 36
 2416 015a BB69     		ldr	r3, [r7, #24]
 2417 015c 5A01     		lsls	r2, r3, #5
 2418 015e FB69     		ldr	r3, [r7, #28]
 2419 0160 1344     		add	r3, r3, r2
 2420 0162 03F51063 		add	r3, r3, #2304
 2421 0166 1B69     		ldr	r3, [r3, #16]
 2422 0168 BA69     		ldr	r2, [r7, #24]
 2423 016a 5101     		lsls	r1, r2, #5
 2424 016c FA69     		ldr	r2, [r7, #28]
 2425 016e 0A44     		add	r2, r2, r1
 2426 0170 02F51062 		add	r2, r2, #2304
 2427 0174 43F00053 		orr	r3, r3, #536870912
 2428 0178 1361     		str	r3, [r2, #16]
 2429              	.L107:
 746:Drivers/STM32F4xx_HAL_Driver/Src/stm32f4xx_ll_usb.c ****       }
 747:Drivers/STM32F4xx_HAL_Driver/Src/stm32f4xx_ll_usb.c ****     }
 748:Drivers/STM32F4xx_HAL_Driver/Src/stm32f4xx_ll_usb.c **** 
 749:Drivers/STM32F4xx_HAL_Driver/Src/stm32f4xx_ll_usb.c ****     if (dma == 1U)
 2430              		.loc 1 749 8
 2431 017a FB79     		ldrb	r3, [r7, #7]	@ zero_extendqisi2
 2432 017c 012B     		cmp	r3, #1
 2433 017e 4BD1     		bne	.L108
 750:Drivers/STM32F4xx_HAL_Driver/Src/stm32f4xx_ll_usb.c ****     {
 751:Drivers/STM32F4xx_HAL_Driver/Src/stm32f4xx_ll_usb.c ****       if ((uint32_t)ep->dma_addr != 0U)
 2434              		.loc 1 751 23
 2435 0180 BB68     		ldr	r3, [r7, #8]
 2436 0182 1B69     		ldr	r3, [r3, #16]
 2437              		.loc 1 751 10
 2438 0184 002B     		cmp	r3, #0
 2439 0186 09D0     		beq	.L109
 752:Drivers/STM32F4xx_HAL_Driver/Src/stm32f4xx_ll_usb.c ****       {
 753:Drivers/STM32F4xx_HAL_Driver/Src/stm32f4xx_ll_usb.c ****         USBx_INEP(epnum)->DIEPDMA = (uint32_t)(ep->dma_addr);
 2440              		.loc 1 753 9
 2441 0188 BB69     		ldr	r3, [r7, #24]
 2442 018a 5A01     		lsls	r2, r3, #5
 2443 018c FB69     		ldr	r3, [r7, #28]
 2444 018e 1344     		add	r3, r3, r2
 2445 0190 03F51063 		add	r3, r3, #2304
 2446 0194 1A46     		mov	r2, r3
 2447              		.loc 1 753 50
 2448 0196 BB68     		ldr	r3, [r7, #8]
 2449 0198 1B69     		ldr	r3, [r3, #16]
 2450              		.loc 1 753 35
 2451 019a 5361     		str	r3, [r2, #20]
 2452              	.L109:
ARM GAS  /var/folders/vq/qt4vp3kd5rxf7v2b6_fdtdt80000gn/T//ccjOke0W.s 			page 57


 754:Drivers/STM32F4xx_HAL_Driver/Src/stm32f4xx_ll_usb.c ****       }
 755:Drivers/STM32F4xx_HAL_Driver/Src/stm32f4xx_ll_usb.c **** 
 756:Drivers/STM32F4xx_HAL_Driver/Src/stm32f4xx_ll_usb.c ****       if (ep->type == EP_TYPE_ISOC)
 2453              		.loc 1 756 13
 2454 019c BB68     		ldr	r3, [r7, #8]
 2455 019e DB78     		ldrb	r3, [r3, #3]	@ zero_extendqisi2
 2456              		.loc 1 756 10
 2457 01a0 012B     		cmp	r3, #1
 2458 01a2 28D1     		bne	.L110
 757:Drivers/STM32F4xx_HAL_Driver/Src/stm32f4xx_ll_usb.c ****       {
 758:Drivers/STM32F4xx_HAL_Driver/Src/stm32f4xx_ll_usb.c ****         if ((USBx_DEVICE->DSTS & (1U << 8)) == 0U)
 2459              		.loc 1 758 14
 2460 01a4 FB69     		ldr	r3, [r7, #28]
 2461 01a6 03F50063 		add	r3, r3, #2048
 2462              		.loc 1 758 25
 2463 01aa 9B68     		ldr	r3, [r3, #8]
 2464              		.loc 1 758 32
 2465 01ac 03F48073 		and	r3, r3, #256
 2466              		.loc 1 758 12
 2467 01b0 002B     		cmp	r3, #0
 2468 01b2 10D1     		bne	.L111
 759:Drivers/STM32F4xx_HAL_Driver/Src/stm32f4xx_ll_usb.c ****         {
 760:Drivers/STM32F4xx_HAL_Driver/Src/stm32f4xx_ll_usb.c ****           USBx_INEP(epnum)->DIEPCTL |= USB_OTG_DIEPCTL_SODDFRM;
 2469              		.loc 1 760 37
 2470 01b4 BB69     		ldr	r3, [r7, #24]
 2471 01b6 5A01     		lsls	r2, r3, #5
 2472 01b8 FB69     		ldr	r3, [r7, #28]
 2473 01ba 1344     		add	r3, r3, r2
 2474 01bc 03F51063 		add	r3, r3, #2304
 2475 01c0 1B68     		ldr	r3, [r3]
 2476 01c2 BA69     		ldr	r2, [r7, #24]
 2477 01c4 5101     		lsls	r1, r2, #5
 2478 01c6 FA69     		ldr	r2, [r7, #28]
 2479 01c8 0A44     		add	r2, r2, r1
 2480 01ca 02F51062 		add	r2, r2, #2304
 2481 01ce 43F00053 		orr	r3, r3, #536870912
 2482 01d2 1360     		str	r3, [r2]
 2483 01d4 0FE0     		b	.L110
 2484              	.L111:
 761:Drivers/STM32F4xx_HAL_Driver/Src/stm32f4xx_ll_usb.c ****         }
 762:Drivers/STM32F4xx_HAL_Driver/Src/stm32f4xx_ll_usb.c ****         else
 763:Drivers/STM32F4xx_HAL_Driver/Src/stm32f4xx_ll_usb.c ****         {
 764:Drivers/STM32F4xx_HAL_Driver/Src/stm32f4xx_ll_usb.c ****           USBx_INEP(epnum)->DIEPCTL |= USB_OTG_DIEPCTL_SD0PID_SEVNFRM;
 2485              		.loc 1 764 37
 2486 01d6 BB69     		ldr	r3, [r7, #24]
 2487 01d8 5A01     		lsls	r2, r3, #5
 2488 01da FB69     		ldr	r3, [r7, #28]
 2489 01dc 1344     		add	r3, r3, r2
 2490 01de 03F51063 		add	r3, r3, #2304
 2491 01e2 1B68     		ldr	r3, [r3]
 2492 01e4 BA69     		ldr	r2, [r7, #24]
 2493 01e6 5101     		lsls	r1, r2, #5
 2494 01e8 FA69     		ldr	r2, [r7, #28]
 2495 01ea 0A44     		add	r2, r2, r1
 2496 01ec 02F51062 		add	r2, r2, #2304
 2497 01f0 43F08053 		orr	r3, r3, #268435456
 2498 01f4 1360     		str	r3, [r2]
ARM GAS  /var/folders/vq/qt4vp3kd5rxf7v2b6_fdtdt80000gn/T//ccjOke0W.s 			page 58


 2499              	.L110:
 765:Drivers/STM32F4xx_HAL_Driver/Src/stm32f4xx_ll_usb.c ****         }
 766:Drivers/STM32F4xx_HAL_Driver/Src/stm32f4xx_ll_usb.c ****       }
 767:Drivers/STM32F4xx_HAL_Driver/Src/stm32f4xx_ll_usb.c **** 
 768:Drivers/STM32F4xx_HAL_Driver/Src/stm32f4xx_ll_usb.c ****       /* EP enable, IN data in FIFO */
 769:Drivers/STM32F4xx_HAL_Driver/Src/stm32f4xx_ll_usb.c ****       USBx_INEP(epnum)->DIEPCTL |= (USB_OTG_DIEPCTL_CNAK | USB_OTG_DIEPCTL_EPENA);
 2500              		.loc 1 769 33
 2501 01f6 BB69     		ldr	r3, [r7, #24]
 2502 01f8 5A01     		lsls	r2, r3, #5
 2503 01fa FB69     		ldr	r3, [r7, #28]
 2504 01fc 1344     		add	r3, r3, r2
 2505 01fe 03F51063 		add	r3, r3, #2304
 2506 0202 1B68     		ldr	r3, [r3]
 2507 0204 BA69     		ldr	r2, [r7, #24]
 2508 0206 5101     		lsls	r1, r2, #5
 2509 0208 FA69     		ldr	r2, [r7, #28]
 2510 020a 0A44     		add	r2, r2, r1
 2511 020c 02F51062 		add	r2, r2, #2304
 2512 0210 43F00443 		orr	r3, r3, #-2080374784
 2513 0214 1360     		str	r3, [r2]
 2514 0216 2FE1     		b	.L112
 2515              	.L108:
 770:Drivers/STM32F4xx_HAL_Driver/Src/stm32f4xx_ll_usb.c ****     }
 771:Drivers/STM32F4xx_HAL_Driver/Src/stm32f4xx_ll_usb.c ****     else
 772:Drivers/STM32F4xx_HAL_Driver/Src/stm32f4xx_ll_usb.c ****     {
 773:Drivers/STM32F4xx_HAL_Driver/Src/stm32f4xx_ll_usb.c ****       /* EP enable, IN data in FIFO */
 774:Drivers/STM32F4xx_HAL_Driver/Src/stm32f4xx_ll_usb.c ****       USBx_INEP(epnum)->DIEPCTL |= (USB_OTG_DIEPCTL_CNAK | USB_OTG_DIEPCTL_EPENA);
 2516              		.loc 1 774 33
 2517 0218 BB69     		ldr	r3, [r7, #24]
 2518 021a 5A01     		lsls	r2, r3, #5
 2519 021c FB69     		ldr	r3, [r7, #28]
 2520 021e 1344     		add	r3, r3, r2
 2521 0220 03F51063 		add	r3, r3, #2304
 2522 0224 1B68     		ldr	r3, [r3]
 2523 0226 BA69     		ldr	r2, [r7, #24]
 2524 0228 5101     		lsls	r1, r2, #5
 2525 022a FA69     		ldr	r2, [r7, #28]
 2526 022c 0A44     		add	r2, r2, r1
 2527 022e 02F51062 		add	r2, r2, #2304
 2528 0232 43F00443 		orr	r3, r3, #-2080374784
 2529 0236 1360     		str	r3, [r2]
 775:Drivers/STM32F4xx_HAL_Driver/Src/stm32f4xx_ll_usb.c **** 
 776:Drivers/STM32F4xx_HAL_Driver/Src/stm32f4xx_ll_usb.c ****       if (ep->type != EP_TYPE_ISOC)
 2530              		.loc 1 776 13
 2531 0238 BB68     		ldr	r3, [r7, #8]
 2532 023a DB78     		ldrb	r3, [r3, #3]	@ zero_extendqisi2
 2533              		.loc 1 776 10
 2534 023c 012B     		cmp	r3, #1
 2535 023e 15D0     		beq	.L113
 777:Drivers/STM32F4xx_HAL_Driver/Src/stm32f4xx_ll_usb.c ****       {
 778:Drivers/STM32F4xx_HAL_Driver/Src/stm32f4xx_ll_usb.c ****         /* Enable the Tx FIFO Empty Interrupt for this EP */
 779:Drivers/STM32F4xx_HAL_Driver/Src/stm32f4xx_ll_usb.c ****         if (ep->xfer_len > 0U)
 2536              		.loc 1 779 15
 2537 0240 BB68     		ldr	r3, [r7, #8]
 2538 0242 5B69     		ldr	r3, [r3, #20]
 2539              		.loc 1 779 12
 2540 0244 002B     		cmp	r3, #0
ARM GAS  /var/folders/vq/qt4vp3kd5rxf7v2b6_fdtdt80000gn/T//ccjOke0W.s 			page 59


 2541 0246 00F01781 		beq	.L112
 780:Drivers/STM32F4xx_HAL_Driver/Src/stm32f4xx_ll_usb.c ****         {
 781:Drivers/STM32F4xx_HAL_Driver/Src/stm32f4xx_ll_usb.c ****           USBx_DEVICE->DIEPEMPMSK |= 1UL << (ep->num & EP_ADDR_MSK);
 2542              		.loc 1 781 35
 2543 024a FB69     		ldr	r3, [r7, #28]
 2544 024c 03F50063 		add	r3, r3, #2048
 2545 0250 5A6B     		ldr	r2, [r3, #52]
 2546              		.loc 1 781 48
 2547 0252 BB68     		ldr	r3, [r7, #8]
 2548 0254 1B78     		ldrb	r3, [r3]	@ zero_extendqisi2
 2549              		.loc 1 781 54
 2550 0256 03F00F03 		and	r3, r3, #15
 2551              		.loc 1 781 42
 2552 025a 0121     		movs	r1, #1
 2553 025c 01FA03F3 		lsl	r3, r1, r3
 2554              		.loc 1 781 35
 2555 0260 F969     		ldr	r1, [r7, #28]
 2556 0262 01F50061 		add	r1, r1, #2048
 2557 0266 1343     		orrs	r3, r3, r2
 2558 0268 4B63     		str	r3, [r1, #52]
 2559 026a 05E1     		b	.L112
 2560              	.L113:
 782:Drivers/STM32F4xx_HAL_Driver/Src/stm32f4xx_ll_usb.c ****         }
 783:Drivers/STM32F4xx_HAL_Driver/Src/stm32f4xx_ll_usb.c ****       }
 784:Drivers/STM32F4xx_HAL_Driver/Src/stm32f4xx_ll_usb.c ****       else
 785:Drivers/STM32F4xx_HAL_Driver/Src/stm32f4xx_ll_usb.c ****       {
 786:Drivers/STM32F4xx_HAL_Driver/Src/stm32f4xx_ll_usb.c ****         if ((USBx_DEVICE->DSTS & (1U << 8)) == 0U)
 2561              		.loc 1 786 14
 2562 026c FB69     		ldr	r3, [r7, #28]
 2563 026e 03F50063 		add	r3, r3, #2048
 2564              		.loc 1 786 25
 2565 0272 9B68     		ldr	r3, [r3, #8]
 2566              		.loc 1 786 32
 2567 0274 03F48073 		and	r3, r3, #256
 2568              		.loc 1 786 12
 2569 0278 002B     		cmp	r3, #0
 2570 027a 10D1     		bne	.L114
 787:Drivers/STM32F4xx_HAL_Driver/Src/stm32f4xx_ll_usb.c ****         {
 788:Drivers/STM32F4xx_HAL_Driver/Src/stm32f4xx_ll_usb.c ****           USBx_INEP(epnum)->DIEPCTL |= USB_OTG_DIEPCTL_SODDFRM;
 2571              		.loc 1 788 37
 2572 027c BB69     		ldr	r3, [r7, #24]
 2573 027e 5A01     		lsls	r2, r3, #5
 2574 0280 FB69     		ldr	r3, [r7, #28]
 2575 0282 1344     		add	r3, r3, r2
 2576 0284 03F51063 		add	r3, r3, #2304
 2577 0288 1B68     		ldr	r3, [r3]
 2578 028a BA69     		ldr	r2, [r7, #24]
 2579 028c 5101     		lsls	r1, r2, #5
 2580 028e FA69     		ldr	r2, [r7, #28]
 2581 0290 0A44     		add	r2, r2, r1
 2582 0292 02F51062 		add	r2, r2, #2304
 2583 0296 43F00053 		orr	r3, r3, #536870912
 2584 029a 1360     		str	r3, [r2]
 2585 029c 0FE0     		b	.L115
 2586              	.L114:
 789:Drivers/STM32F4xx_HAL_Driver/Src/stm32f4xx_ll_usb.c ****         }
 790:Drivers/STM32F4xx_HAL_Driver/Src/stm32f4xx_ll_usb.c ****         else
ARM GAS  /var/folders/vq/qt4vp3kd5rxf7v2b6_fdtdt80000gn/T//ccjOke0W.s 			page 60


 791:Drivers/STM32F4xx_HAL_Driver/Src/stm32f4xx_ll_usb.c ****         {
 792:Drivers/STM32F4xx_HAL_Driver/Src/stm32f4xx_ll_usb.c ****           USBx_INEP(epnum)->DIEPCTL |= USB_OTG_DIEPCTL_SD0PID_SEVNFRM;
 2587              		.loc 1 792 37
 2588 029e BB69     		ldr	r3, [r7, #24]
 2589 02a0 5A01     		lsls	r2, r3, #5
 2590 02a2 FB69     		ldr	r3, [r7, #28]
 2591 02a4 1344     		add	r3, r3, r2
 2592 02a6 03F51063 		add	r3, r3, #2304
 2593 02aa 1B68     		ldr	r3, [r3]
 2594 02ac BA69     		ldr	r2, [r7, #24]
 2595 02ae 5101     		lsls	r1, r2, #5
 2596 02b0 FA69     		ldr	r2, [r7, #28]
 2597 02b2 0A44     		add	r2, r2, r1
 2598 02b4 02F51062 		add	r2, r2, #2304
 2599 02b8 43F08053 		orr	r3, r3, #268435456
 2600 02bc 1360     		str	r3, [r2]
 2601              	.L115:
 793:Drivers/STM32F4xx_HAL_Driver/Src/stm32f4xx_ll_usb.c ****         }
 794:Drivers/STM32F4xx_HAL_Driver/Src/stm32f4xx_ll_usb.c **** 
 795:Drivers/STM32F4xx_HAL_Driver/Src/stm32f4xx_ll_usb.c ****         (void)USB_WritePacket(USBx, ep->xfer_buff, ep->num, (uint16_t)ep->xfer_len, dma);
 2602              		.loc 1 795 15
 2603 02be BB68     		ldr	r3, [r7, #8]
 2604 02c0 D968     		ldr	r1, [r3, #12]
 2605 02c2 BB68     		ldr	r3, [r7, #8]
 2606 02c4 1A78     		ldrb	r2, [r3]	@ zero_extendqisi2
 2607              		.loc 1 795 73
 2608 02c6 BB68     		ldr	r3, [r7, #8]
 2609 02c8 5B69     		ldr	r3, [r3, #20]
 2610              		.loc 1 795 15
 2611 02ca 98B2     		uxth	r0, r3
 2612 02cc FB79     		ldrb	r3, [r7, #7]	@ zero_extendqisi2
 2613 02ce 0093     		str	r3, [sp]
 2614 02d0 0346     		mov	r3, r0
 2615 02d2 F868     		ldr	r0, [r7, #12]
 2616 02d4 FFF7FEFF 		bl	USB_WritePacket
 2617 02d8 CEE0     		b	.L112
 2618              	.L105:
 796:Drivers/STM32F4xx_HAL_Driver/Src/stm32f4xx_ll_usb.c ****       }
 797:Drivers/STM32F4xx_HAL_Driver/Src/stm32f4xx_ll_usb.c ****     }
 798:Drivers/STM32F4xx_HAL_Driver/Src/stm32f4xx_ll_usb.c ****   }
 799:Drivers/STM32F4xx_HAL_Driver/Src/stm32f4xx_ll_usb.c ****   else /* OUT endpoint */
 800:Drivers/STM32F4xx_HAL_Driver/Src/stm32f4xx_ll_usb.c ****   {
 801:Drivers/STM32F4xx_HAL_Driver/Src/stm32f4xx_ll_usb.c ****     /* Program the transfer size and packet count as follows:
 802:Drivers/STM32F4xx_HAL_Driver/Src/stm32f4xx_ll_usb.c ****     * pktcnt = N
 803:Drivers/STM32F4xx_HAL_Driver/Src/stm32f4xx_ll_usb.c ****     * xfersize = N * maxpacket
 804:Drivers/STM32F4xx_HAL_Driver/Src/stm32f4xx_ll_usb.c ****     */
 805:Drivers/STM32F4xx_HAL_Driver/Src/stm32f4xx_ll_usb.c ****     USBx_OUTEP(epnum)->DOEPTSIZ &= ~(USB_OTG_DOEPTSIZ_XFRSIZ);
 2619              		.loc 1 805 33
 2620 02da BB69     		ldr	r3, [r7, #24]
 2621 02dc 5A01     		lsls	r2, r3, #5
 2622 02de FB69     		ldr	r3, [r7, #28]
 2623 02e0 1344     		add	r3, r3, r2
 2624 02e2 03F53063 		add	r3, r3, #2816
 2625 02e6 1B69     		ldr	r3, [r3, #16]
 2626 02e8 BA69     		ldr	r2, [r7, #24]
 2627 02ea 5101     		lsls	r1, r2, #5
 2628 02ec FA69     		ldr	r2, [r7, #28]
ARM GAS  /var/folders/vq/qt4vp3kd5rxf7v2b6_fdtdt80000gn/T//ccjOke0W.s 			page 61


 2629 02ee 0A44     		add	r2, r2, r1
 2630 02f0 02F53062 		add	r2, r2, #2816
 2631 02f4 DB0C     		lsrs	r3, r3, #19
 2632 02f6 DB04     		lsls	r3, r3, #19
 2633 02f8 1361     		str	r3, [r2, #16]
 806:Drivers/STM32F4xx_HAL_Driver/Src/stm32f4xx_ll_usb.c ****     USBx_OUTEP(epnum)->DOEPTSIZ &= ~(USB_OTG_DOEPTSIZ_PKTCNT);
 2634              		.loc 1 806 33
 2635 02fa BB69     		ldr	r3, [r7, #24]
 2636 02fc 5A01     		lsls	r2, r3, #5
 2637 02fe FB69     		ldr	r3, [r7, #28]
 2638 0300 1344     		add	r3, r3, r2
 2639 0302 03F53063 		add	r3, r3, #2816
 2640 0306 1B69     		ldr	r3, [r3, #16]
 2641 0308 BA69     		ldr	r2, [r7, #24]
 2642 030a 5101     		lsls	r1, r2, #5
 2643 030c FA69     		ldr	r2, [r7, #28]
 2644 030e 0A44     		add	r2, r2, r1
 2645 0310 02F53062 		add	r2, r2, #2816
 2646 0314 23F0FF53 		bic	r3, r3, #534773760
 2647 0318 23F4C013 		bic	r3, r3, #1572864
 2648 031c 1361     		str	r3, [r2, #16]
 807:Drivers/STM32F4xx_HAL_Driver/Src/stm32f4xx_ll_usb.c **** 
 808:Drivers/STM32F4xx_HAL_Driver/Src/stm32f4xx_ll_usb.c ****     if (ep->xfer_len == 0U)
 2649              		.loc 1 808 11
 2650 031e BB68     		ldr	r3, [r7, #8]
 2651 0320 5B69     		ldr	r3, [r3, #20]
 2652              		.loc 1 808 8
 2653 0322 002B     		cmp	r3, #0
 2654 0324 26D1     		bne	.L116
 809:Drivers/STM32F4xx_HAL_Driver/Src/stm32f4xx_ll_usb.c ****     {
 810:Drivers/STM32F4xx_HAL_Driver/Src/stm32f4xx_ll_usb.c ****       USBx_OUTEP(epnum)->DOEPTSIZ |= (USB_OTG_DOEPTSIZ_XFRSIZ & ep->maxpacket);
 2655              		.loc 1 810 35
 2656 0326 BB69     		ldr	r3, [r7, #24]
 2657 0328 5A01     		lsls	r2, r3, #5
 2658 032a FB69     		ldr	r3, [r7, #28]
 2659 032c 1344     		add	r3, r3, r2
 2660 032e 03F53063 		add	r3, r3, #2816
 2661 0332 1A69     		ldr	r2, [r3, #16]
 2662              		.loc 1 810 67
 2663 0334 BB68     		ldr	r3, [r7, #8]
 2664 0336 9B68     		ldr	r3, [r3, #8]
 2665              		.loc 1 810 63
 2666 0338 C3F31203 		ubfx	r3, r3, #0, #19
 2667              		.loc 1 810 35
 2668 033c B969     		ldr	r1, [r7, #24]
 2669 033e 4801     		lsls	r0, r1, #5
 2670 0340 F969     		ldr	r1, [r7, #28]
 2671 0342 0144     		add	r1, r1, r0
 2672 0344 01F53061 		add	r1, r1, #2816
 2673 0348 1343     		orrs	r3, r3, r2
 2674 034a 0B61     		str	r3, [r1, #16]
 811:Drivers/STM32F4xx_HAL_Driver/Src/stm32f4xx_ll_usb.c ****       USBx_OUTEP(epnum)->DOEPTSIZ |= (USB_OTG_DOEPTSIZ_PKTCNT & (1U << 19));
 2675              		.loc 1 811 35
 2676 034c BB69     		ldr	r3, [r7, #24]
 2677 034e 5A01     		lsls	r2, r3, #5
 2678 0350 FB69     		ldr	r3, [r7, #28]
 2679 0352 1344     		add	r3, r3, r2
ARM GAS  /var/folders/vq/qt4vp3kd5rxf7v2b6_fdtdt80000gn/T//ccjOke0W.s 			page 62


 2680 0354 03F53063 		add	r3, r3, #2816
 2681 0358 1B69     		ldr	r3, [r3, #16]
 2682 035a BA69     		ldr	r2, [r7, #24]
 2683 035c 5101     		lsls	r1, r2, #5
 2684 035e FA69     		ldr	r2, [r7, #28]
 2685 0360 0A44     		add	r2, r2, r1
 2686 0362 02F53062 		add	r2, r2, #2816
 2687 0366 43F40023 		orr	r3, r3, #524288
 2688 036a 1361     		str	r3, [r2, #16]
 2689 036c 36E0     		b	.L117
 2690              	.L123:
 2691 036e 00BF     		.align	2
 2692              	.L122:
 2693 0370 0000F81F 		.word	536346624
 2694              	.L116:
 812:Drivers/STM32F4xx_HAL_Driver/Src/stm32f4xx_ll_usb.c ****     }
 813:Drivers/STM32F4xx_HAL_Driver/Src/stm32f4xx_ll_usb.c ****     else
 814:Drivers/STM32F4xx_HAL_Driver/Src/stm32f4xx_ll_usb.c ****     {
 815:Drivers/STM32F4xx_HAL_Driver/Src/stm32f4xx_ll_usb.c ****       pktcnt = (uint16_t)((ep->xfer_len + ep->maxpacket - 1U) / ep->maxpacket);
 2695              		.loc 1 815 30
 2696 0374 BB68     		ldr	r3, [r7, #8]
 2697 0376 5A69     		ldr	r2, [r3, #20]
 2698              		.loc 1 815 45
 2699 0378 BB68     		ldr	r3, [r7, #8]
 2700 037a 9B68     		ldr	r3, [r3, #8]
 2701              		.loc 1 815 41
 2702 037c 1344     		add	r3, r3, r2
 2703              		.loc 1 815 57
 2704 037e 5A1E     		subs	r2, r3, #1
 2705              		.loc 1 815 67
 2706 0380 BB68     		ldr	r3, [r7, #8]
 2707 0382 9B68     		ldr	r3, [r3, #8]
 2708              		.loc 1 815 63
 2709 0384 B2FBF3F3 		udiv	r3, r2, r3
 2710              		.loc 1 815 14
 2711 0388 FB82     		strh	r3, [r7, #22]	@ movhi
 816:Drivers/STM32F4xx_HAL_Driver/Src/stm32f4xx_ll_usb.c ****       USBx_OUTEP(epnum)->DOEPTSIZ |= USB_OTG_DOEPTSIZ_PKTCNT & ((uint32_t)pktcnt << 19);
 2712              		.loc 1 816 35
 2713 038a BB69     		ldr	r3, [r7, #24]
 2714 038c 5A01     		lsls	r2, r3, #5
 2715 038e FB69     		ldr	r3, [r7, #28]
 2716 0390 1344     		add	r3, r3, r2
 2717 0392 03F53063 		add	r3, r3, #2816
 2718 0396 1A69     		ldr	r2, [r3, #16]
 2719              		.loc 1 816 65
 2720 0398 FB8A     		ldrh	r3, [r7, #22]
 2721              		.loc 1 816 82
 2722 039a D904     		lsls	r1, r3, #19
 2723              		.loc 1 816 62
 2724 039c 394B     		ldr	r3, .L124
 2725 039e 0B40     		ands	r3, r3, r1
 2726              		.loc 1 816 35
 2727 03a0 B969     		ldr	r1, [r7, #24]
 2728 03a2 4801     		lsls	r0, r1, #5
 2729 03a4 F969     		ldr	r1, [r7, #28]
 2730 03a6 0144     		add	r1, r1, r0
 2731 03a8 01F53061 		add	r1, r1, #2816
ARM GAS  /var/folders/vq/qt4vp3kd5rxf7v2b6_fdtdt80000gn/T//ccjOke0W.s 			page 63


 2732 03ac 1343     		orrs	r3, r3, r2
 2733 03ae 0B61     		str	r3, [r1, #16]
 817:Drivers/STM32F4xx_HAL_Driver/Src/stm32f4xx_ll_usb.c ****       USBx_OUTEP(epnum)->DOEPTSIZ |= USB_OTG_DOEPTSIZ_XFRSIZ & (ep->maxpacket * pktcnt);
 2734              		.loc 1 817 35
 2735 03b0 BB69     		ldr	r3, [r7, #24]
 2736 03b2 5A01     		lsls	r2, r3, #5
 2737 03b4 FB69     		ldr	r3, [r7, #28]
 2738 03b6 1344     		add	r3, r3, r2
 2739 03b8 03F53063 		add	r3, r3, #2816
 2740 03bc 1A69     		ldr	r2, [r3, #16]
 2741              		.loc 1 817 67
 2742 03be BB68     		ldr	r3, [r7, #8]
 2743 03c0 9B68     		ldr	r3, [r3, #8]
 2744              		.loc 1 817 79
 2745 03c2 F98A     		ldrh	r1, [r7, #22]
 2746 03c4 01FB03F3 		mul	r3, r1, r3
 2747              		.loc 1 817 62
 2748 03c8 C3F31203 		ubfx	r3, r3, #0, #19
 2749              		.loc 1 817 35
 2750 03cc B969     		ldr	r1, [r7, #24]
 2751 03ce 4801     		lsls	r0, r1, #5
 2752 03d0 F969     		ldr	r1, [r7, #28]
 2753 03d2 0144     		add	r1, r1, r0
 2754 03d4 01F53061 		add	r1, r1, #2816
 2755 03d8 1343     		orrs	r3, r3, r2
 2756 03da 0B61     		str	r3, [r1, #16]
 2757              	.L117:
 818:Drivers/STM32F4xx_HAL_Driver/Src/stm32f4xx_ll_usb.c ****     }
 819:Drivers/STM32F4xx_HAL_Driver/Src/stm32f4xx_ll_usb.c **** 
 820:Drivers/STM32F4xx_HAL_Driver/Src/stm32f4xx_ll_usb.c ****     if (dma == 1U)
 2758              		.loc 1 820 8
 2759 03dc FB79     		ldrb	r3, [r7, #7]	@ zero_extendqisi2
 2760 03de 012B     		cmp	r3, #1
 2761 03e0 0DD1     		bne	.L118
 821:Drivers/STM32F4xx_HAL_Driver/Src/stm32f4xx_ll_usb.c ****     {
 822:Drivers/STM32F4xx_HAL_Driver/Src/stm32f4xx_ll_usb.c ****       if ((uint32_t)ep->xfer_buff != 0U)
 2762              		.loc 1 822 23
 2763 03e2 BB68     		ldr	r3, [r7, #8]
 2764 03e4 DB68     		ldr	r3, [r3, #12]
 2765              		.loc 1 822 10
 2766 03e6 002B     		cmp	r3, #0
 2767 03e8 09D0     		beq	.L118
 823:Drivers/STM32F4xx_HAL_Driver/Src/stm32f4xx_ll_usb.c ****       {
 824:Drivers/STM32F4xx_HAL_Driver/Src/stm32f4xx_ll_usb.c ****         USBx_OUTEP(epnum)->DOEPDMA = (uint32_t)(ep->xfer_buff);
 2768              		.loc 1 824 51
 2769 03ea BB68     		ldr	r3, [r7, #8]
 2770 03ec D968     		ldr	r1, [r3, #12]
 2771              		.loc 1 824 9
 2772 03ee BB69     		ldr	r3, [r7, #24]
 2773 03f0 5A01     		lsls	r2, r3, #5
 2774 03f2 FB69     		ldr	r3, [r7, #28]
 2775 03f4 1344     		add	r3, r3, r2
 2776 03f6 03F53063 		add	r3, r3, #2816
 2777              		.loc 1 824 38
 2778 03fa 0A46     		mov	r2, r1
 2779              		.loc 1 824 36
 2780 03fc 5A61     		str	r2, [r3, #20]
ARM GAS  /var/folders/vq/qt4vp3kd5rxf7v2b6_fdtdt80000gn/T//ccjOke0W.s 			page 64


 2781              	.L118:
 825:Drivers/STM32F4xx_HAL_Driver/Src/stm32f4xx_ll_usb.c ****       }
 826:Drivers/STM32F4xx_HAL_Driver/Src/stm32f4xx_ll_usb.c ****     }
 827:Drivers/STM32F4xx_HAL_Driver/Src/stm32f4xx_ll_usb.c **** 
 828:Drivers/STM32F4xx_HAL_Driver/Src/stm32f4xx_ll_usb.c ****     if (ep->type == EP_TYPE_ISOC)
 2782              		.loc 1 828 11
 2783 03fe BB68     		ldr	r3, [r7, #8]
 2784 0400 DB78     		ldrb	r3, [r3, #3]	@ zero_extendqisi2
 2785              		.loc 1 828 8
 2786 0402 012B     		cmp	r3, #1
 2787 0404 28D1     		bne	.L119
 829:Drivers/STM32F4xx_HAL_Driver/Src/stm32f4xx_ll_usb.c ****     {
 830:Drivers/STM32F4xx_HAL_Driver/Src/stm32f4xx_ll_usb.c ****       if ((USBx_DEVICE->DSTS & (1U << 8)) == 0U)
 2788              		.loc 1 830 12
 2789 0406 FB69     		ldr	r3, [r7, #28]
 2790 0408 03F50063 		add	r3, r3, #2048
 2791              		.loc 1 830 23
 2792 040c 9B68     		ldr	r3, [r3, #8]
 2793              		.loc 1 830 30
 2794 040e 03F48073 		and	r3, r3, #256
 2795              		.loc 1 830 10
 2796 0412 002B     		cmp	r3, #0
 2797 0414 10D1     		bne	.L120
 831:Drivers/STM32F4xx_HAL_Driver/Src/stm32f4xx_ll_usb.c ****       {
 832:Drivers/STM32F4xx_HAL_Driver/Src/stm32f4xx_ll_usb.c ****         USBx_OUTEP(epnum)->DOEPCTL |= USB_OTG_DOEPCTL_SODDFRM;
 2798              		.loc 1 832 36
 2799 0416 BB69     		ldr	r3, [r7, #24]
 2800 0418 5A01     		lsls	r2, r3, #5
 2801 041a FB69     		ldr	r3, [r7, #28]
 2802 041c 1344     		add	r3, r3, r2
 2803 041e 03F53063 		add	r3, r3, #2816
 2804 0422 1B68     		ldr	r3, [r3]
 2805 0424 BA69     		ldr	r2, [r7, #24]
 2806 0426 5101     		lsls	r1, r2, #5
 2807 0428 FA69     		ldr	r2, [r7, #28]
 2808 042a 0A44     		add	r2, r2, r1
 2809 042c 02F53062 		add	r2, r2, #2816
 2810 0430 43F00053 		orr	r3, r3, #536870912
 2811 0434 1360     		str	r3, [r2]
 2812 0436 0FE0     		b	.L119
 2813              	.L120:
 833:Drivers/STM32F4xx_HAL_Driver/Src/stm32f4xx_ll_usb.c ****       }
 834:Drivers/STM32F4xx_HAL_Driver/Src/stm32f4xx_ll_usb.c ****       else
 835:Drivers/STM32F4xx_HAL_Driver/Src/stm32f4xx_ll_usb.c ****       {
 836:Drivers/STM32F4xx_HAL_Driver/Src/stm32f4xx_ll_usb.c ****         USBx_OUTEP(epnum)->DOEPCTL |= USB_OTG_DOEPCTL_SD0PID_SEVNFRM;
 2814              		.loc 1 836 36
 2815 0438 BB69     		ldr	r3, [r7, #24]
 2816 043a 5A01     		lsls	r2, r3, #5
 2817 043c FB69     		ldr	r3, [r7, #28]
 2818 043e 1344     		add	r3, r3, r2
 2819 0440 03F53063 		add	r3, r3, #2816
 2820 0444 1B68     		ldr	r3, [r3]
 2821 0446 BA69     		ldr	r2, [r7, #24]
 2822 0448 5101     		lsls	r1, r2, #5
 2823 044a FA69     		ldr	r2, [r7, #28]
 2824 044c 0A44     		add	r2, r2, r1
 2825 044e 02F53062 		add	r2, r2, #2816
ARM GAS  /var/folders/vq/qt4vp3kd5rxf7v2b6_fdtdt80000gn/T//ccjOke0W.s 			page 65


 2826 0452 43F08053 		orr	r3, r3, #268435456
 2827 0456 1360     		str	r3, [r2]
 2828              	.L119:
 837:Drivers/STM32F4xx_HAL_Driver/Src/stm32f4xx_ll_usb.c ****       }
 838:Drivers/STM32F4xx_HAL_Driver/Src/stm32f4xx_ll_usb.c ****     }
 839:Drivers/STM32F4xx_HAL_Driver/Src/stm32f4xx_ll_usb.c ****     /* EP enable */
 840:Drivers/STM32F4xx_HAL_Driver/Src/stm32f4xx_ll_usb.c ****     USBx_OUTEP(epnum)->DOEPCTL |= (USB_OTG_DOEPCTL_CNAK | USB_OTG_DOEPCTL_EPENA);
 2829              		.loc 1 840 32
 2830 0458 BB69     		ldr	r3, [r7, #24]
 2831 045a 5A01     		lsls	r2, r3, #5
 2832 045c FB69     		ldr	r3, [r7, #28]
 2833 045e 1344     		add	r3, r3, r2
 2834 0460 03F53063 		add	r3, r3, #2816
 2835 0464 1B68     		ldr	r3, [r3]
 2836 0466 BA69     		ldr	r2, [r7, #24]
 2837 0468 5101     		lsls	r1, r2, #5
 2838 046a FA69     		ldr	r2, [r7, #28]
 2839 046c 0A44     		add	r2, r2, r1
 2840 046e 02F53062 		add	r2, r2, #2816
 2841 0472 43F00443 		orr	r3, r3, #-2080374784
 2842 0476 1360     		str	r3, [r2]
 2843              	.L112:
 841:Drivers/STM32F4xx_HAL_Driver/Src/stm32f4xx_ll_usb.c ****   }
 842:Drivers/STM32F4xx_HAL_Driver/Src/stm32f4xx_ll_usb.c **** 
 843:Drivers/STM32F4xx_HAL_Driver/Src/stm32f4xx_ll_usb.c ****   return HAL_OK;
 2844              		.loc 1 843 10
 2845 0478 0023     		movs	r3, #0
 844:Drivers/STM32F4xx_HAL_Driver/Src/stm32f4xx_ll_usb.c **** }
 2846              		.loc 1 844 1
 2847 047a 1846     		mov	r0, r3
 2848 047c 2037     		adds	r7, r7, #32
 2849              	.LCFI90:
 2850              		.cfi_def_cfa_offset 8
 2851 047e BD46     		mov	sp, r7
 2852              	.LCFI91:
 2853              		.cfi_def_cfa_register 13
 2854              		@ sp needed
 2855 0480 80BD     		pop	{r7, pc}
 2856              	.L125:
 2857 0482 00BF     		.align	2
 2858              	.L124:
 2859 0484 0000F81F 		.word	536346624
 2860              		.cfi_endproc
 2861              	.LFE144:
 2863              		.section	.text.USB_EP0StartXfer,"ax",%progbits
 2864              		.align	1
 2865              		.global	USB_EP0StartXfer
 2866              		.syntax unified
 2867              		.thumb
 2868              		.thumb_func
 2869              		.fpu fpv4-sp-d16
 2871              	USB_EP0StartXfer:
 2872              	.LFB145:
 845:Drivers/STM32F4xx_HAL_Driver/Src/stm32f4xx_ll_usb.c **** 
 846:Drivers/STM32F4xx_HAL_Driver/Src/stm32f4xx_ll_usb.c **** /**
 847:Drivers/STM32F4xx_HAL_Driver/Src/stm32f4xx_ll_usb.c ****   * @brief  USB_EP0StartXfer : setup and starts a transfer over the EP  0
 848:Drivers/STM32F4xx_HAL_Driver/Src/stm32f4xx_ll_usb.c ****   * @param  USBx  Selected device
ARM GAS  /var/folders/vq/qt4vp3kd5rxf7v2b6_fdtdt80000gn/T//ccjOke0W.s 			page 66


 849:Drivers/STM32F4xx_HAL_Driver/Src/stm32f4xx_ll_usb.c ****   * @param  ep pointer to endpoint structure
 850:Drivers/STM32F4xx_HAL_Driver/Src/stm32f4xx_ll_usb.c ****   * @param  dma USB dma enabled or disabled
 851:Drivers/STM32F4xx_HAL_Driver/Src/stm32f4xx_ll_usb.c ****   *          This parameter can be one of these values:
 852:Drivers/STM32F4xx_HAL_Driver/Src/stm32f4xx_ll_usb.c ****   *           0 : DMA feature not used
 853:Drivers/STM32F4xx_HAL_Driver/Src/stm32f4xx_ll_usb.c ****   *           1 : DMA feature used
 854:Drivers/STM32F4xx_HAL_Driver/Src/stm32f4xx_ll_usb.c ****   * @retval HAL status
 855:Drivers/STM32F4xx_HAL_Driver/Src/stm32f4xx_ll_usb.c ****   */
 856:Drivers/STM32F4xx_HAL_Driver/Src/stm32f4xx_ll_usb.c **** HAL_StatusTypeDef USB_EP0StartXfer(USB_OTG_GlobalTypeDef *USBx, USB_OTG_EPTypeDef *ep, uint8_t dma)
 857:Drivers/STM32F4xx_HAL_Driver/Src/stm32f4xx_ll_usb.c **** {
 2873              		.loc 1 857 1
 2874              		.cfi_startproc
 2875              		@ args = 0, pretend = 0, frame = 24
 2876              		@ frame_needed = 1, uses_anonymous_args = 0
 2877              		@ link register save eliminated.
 2878 0000 80B4     		push	{r7}
 2879              	.LCFI92:
 2880              		.cfi_def_cfa_offset 4
 2881              		.cfi_offset 7, -4
 2882 0002 87B0     		sub	sp, sp, #28
 2883              	.LCFI93:
 2884              		.cfi_def_cfa_offset 32
 2885 0004 00AF     		add	r7, sp, #0
 2886              	.LCFI94:
 2887              		.cfi_def_cfa_register 7
 2888 0006 F860     		str	r0, [r7, #12]
 2889 0008 B960     		str	r1, [r7, #8]
 2890 000a 1346     		mov	r3, r2
 2891 000c FB71     		strb	r3, [r7, #7]
 858:Drivers/STM32F4xx_HAL_Driver/Src/stm32f4xx_ll_usb.c ****   uint32_t USBx_BASE = (uint32_t)USBx;
 2892              		.loc 1 858 12
 2893 000e FB68     		ldr	r3, [r7, #12]
 2894 0010 7B61     		str	r3, [r7, #20]
 859:Drivers/STM32F4xx_HAL_Driver/Src/stm32f4xx_ll_usb.c ****   uint32_t epnum = (uint32_t)ep->num;
 2895              		.loc 1 859 32
 2896 0012 BB68     		ldr	r3, [r7, #8]
 2897 0014 1B78     		ldrb	r3, [r3]	@ zero_extendqisi2
 2898              		.loc 1 859 12
 2899 0016 3B61     		str	r3, [r7, #16]
 860:Drivers/STM32F4xx_HAL_Driver/Src/stm32f4xx_ll_usb.c **** 
 861:Drivers/STM32F4xx_HAL_Driver/Src/stm32f4xx_ll_usb.c ****   /* IN endpoint */
 862:Drivers/STM32F4xx_HAL_Driver/Src/stm32f4xx_ll_usb.c ****   if (ep->is_in == 1U)
 2900              		.loc 1 862 9
 2901 0018 BB68     		ldr	r3, [r7, #8]
 2902 001a 5B78     		ldrb	r3, [r3, #1]	@ zero_extendqisi2
 2903              		.loc 1 862 6
 2904 001c 012B     		cmp	r3, #1
 2905 001e 40F0CD80 		bne	.L127
 863:Drivers/STM32F4xx_HAL_Driver/Src/stm32f4xx_ll_usb.c ****   {
 864:Drivers/STM32F4xx_HAL_Driver/Src/stm32f4xx_ll_usb.c ****     /* Zero Length Packet? */
 865:Drivers/STM32F4xx_HAL_Driver/Src/stm32f4xx_ll_usb.c ****     if (ep->xfer_len == 0U)
 2906              		.loc 1 865 11
 2907 0022 BB68     		ldr	r3, [r7, #8]
 2908 0024 5B69     		ldr	r3, [r3, #20]
 2909              		.loc 1 865 8
 2910 0026 002B     		cmp	r3, #0
 2911 0028 32D1     		bne	.L128
 866:Drivers/STM32F4xx_HAL_Driver/Src/stm32f4xx_ll_usb.c ****     {
ARM GAS  /var/folders/vq/qt4vp3kd5rxf7v2b6_fdtdt80000gn/T//ccjOke0W.s 			page 67


 867:Drivers/STM32F4xx_HAL_Driver/Src/stm32f4xx_ll_usb.c ****       USBx_INEP(epnum)->DIEPTSIZ &= ~(USB_OTG_DIEPTSIZ_PKTCNT);
 2912              		.loc 1 867 34
 2913 002a 3B69     		ldr	r3, [r7, #16]
 2914 002c 5A01     		lsls	r2, r3, #5
 2915 002e 7B69     		ldr	r3, [r7, #20]
 2916 0030 1344     		add	r3, r3, r2
 2917 0032 03F51063 		add	r3, r3, #2304
 2918 0036 1B69     		ldr	r3, [r3, #16]
 2919 0038 3A69     		ldr	r2, [r7, #16]
 2920 003a 5101     		lsls	r1, r2, #5
 2921 003c 7A69     		ldr	r2, [r7, #20]
 2922 003e 0A44     		add	r2, r2, r1
 2923 0040 02F51062 		add	r2, r2, #2304
 2924 0044 23F0FF53 		bic	r3, r3, #534773760
 2925 0048 23F4C013 		bic	r3, r3, #1572864
 2926 004c 1361     		str	r3, [r2, #16]
 868:Drivers/STM32F4xx_HAL_Driver/Src/stm32f4xx_ll_usb.c ****       USBx_INEP(epnum)->DIEPTSIZ |= (USB_OTG_DIEPTSIZ_PKTCNT & (1U << 19));
 2927              		.loc 1 868 34
 2928 004e 3B69     		ldr	r3, [r7, #16]
 2929 0050 5A01     		lsls	r2, r3, #5
 2930 0052 7B69     		ldr	r3, [r7, #20]
 2931 0054 1344     		add	r3, r3, r2
 2932 0056 03F51063 		add	r3, r3, #2304
 2933 005a 1B69     		ldr	r3, [r3, #16]
 2934 005c 3A69     		ldr	r2, [r7, #16]
 2935 005e 5101     		lsls	r1, r2, #5
 2936 0060 7A69     		ldr	r2, [r7, #20]
 2937 0062 0A44     		add	r2, r2, r1
 2938 0064 02F51062 		add	r2, r2, #2304
 2939 0068 43F40023 		orr	r3, r3, #524288
 2940 006c 1361     		str	r3, [r2, #16]
 869:Drivers/STM32F4xx_HAL_Driver/Src/stm32f4xx_ll_usb.c ****       USBx_INEP(epnum)->DIEPTSIZ &= ~(USB_OTG_DIEPTSIZ_XFRSIZ);
 2941              		.loc 1 869 34
 2942 006e 3B69     		ldr	r3, [r7, #16]
 2943 0070 5A01     		lsls	r2, r3, #5
 2944 0072 7B69     		ldr	r3, [r7, #20]
 2945 0074 1344     		add	r3, r3, r2
 2946 0076 03F51063 		add	r3, r3, #2304
 2947 007a 1B69     		ldr	r3, [r3, #16]
 2948 007c 3A69     		ldr	r2, [r7, #16]
 2949 007e 5101     		lsls	r1, r2, #5
 2950 0080 7A69     		ldr	r2, [r7, #20]
 2951 0082 0A44     		add	r2, r2, r1
 2952 0084 02F51062 		add	r2, r2, #2304
 2953 0088 DB0C     		lsrs	r3, r3, #19
 2954 008a DB04     		lsls	r3, r3, #19
 2955 008c 1361     		str	r3, [r2, #16]
 2956 008e 4EE0     		b	.L129
 2957              	.L128:
 870:Drivers/STM32F4xx_HAL_Driver/Src/stm32f4xx_ll_usb.c ****     }
 871:Drivers/STM32F4xx_HAL_Driver/Src/stm32f4xx_ll_usb.c ****     else
 872:Drivers/STM32F4xx_HAL_Driver/Src/stm32f4xx_ll_usb.c ****     {
 873:Drivers/STM32F4xx_HAL_Driver/Src/stm32f4xx_ll_usb.c ****       /* Program the transfer size and packet count
 874:Drivers/STM32F4xx_HAL_Driver/Src/stm32f4xx_ll_usb.c ****       * as follows: xfersize = N * maxpacket +
 875:Drivers/STM32F4xx_HAL_Driver/Src/stm32f4xx_ll_usb.c ****       * short_packet pktcnt = N + (short_packet
 876:Drivers/STM32F4xx_HAL_Driver/Src/stm32f4xx_ll_usb.c ****       * exist ? 1 : 0)
 877:Drivers/STM32F4xx_HAL_Driver/Src/stm32f4xx_ll_usb.c ****       */
ARM GAS  /var/folders/vq/qt4vp3kd5rxf7v2b6_fdtdt80000gn/T//ccjOke0W.s 			page 68


 878:Drivers/STM32F4xx_HAL_Driver/Src/stm32f4xx_ll_usb.c ****       USBx_INEP(epnum)->DIEPTSIZ &= ~(USB_OTG_DIEPTSIZ_XFRSIZ);
 2958              		.loc 1 878 34
 2959 0090 3B69     		ldr	r3, [r7, #16]
 2960 0092 5A01     		lsls	r2, r3, #5
 2961 0094 7B69     		ldr	r3, [r7, #20]
 2962 0096 1344     		add	r3, r3, r2
 2963 0098 03F51063 		add	r3, r3, #2304
 2964 009c 1B69     		ldr	r3, [r3, #16]
 2965 009e 3A69     		ldr	r2, [r7, #16]
 2966 00a0 5101     		lsls	r1, r2, #5
 2967 00a2 7A69     		ldr	r2, [r7, #20]
 2968 00a4 0A44     		add	r2, r2, r1
 2969 00a6 02F51062 		add	r2, r2, #2304
 2970 00aa DB0C     		lsrs	r3, r3, #19
 2971 00ac DB04     		lsls	r3, r3, #19
 2972 00ae 1361     		str	r3, [r2, #16]
 879:Drivers/STM32F4xx_HAL_Driver/Src/stm32f4xx_ll_usb.c ****       USBx_INEP(epnum)->DIEPTSIZ &= ~(USB_OTG_DIEPTSIZ_PKTCNT);
 2973              		.loc 1 879 34
 2974 00b0 3B69     		ldr	r3, [r7, #16]
 2975 00b2 5A01     		lsls	r2, r3, #5
 2976 00b4 7B69     		ldr	r3, [r7, #20]
 2977 00b6 1344     		add	r3, r3, r2
 2978 00b8 03F51063 		add	r3, r3, #2304
 2979 00bc 1B69     		ldr	r3, [r3, #16]
 2980 00be 3A69     		ldr	r2, [r7, #16]
 2981 00c0 5101     		lsls	r1, r2, #5
 2982 00c2 7A69     		ldr	r2, [r7, #20]
 2983 00c4 0A44     		add	r2, r2, r1
 2984 00c6 02F51062 		add	r2, r2, #2304
 2985 00ca 23F0FF53 		bic	r3, r3, #534773760
 2986 00ce 23F4C013 		bic	r3, r3, #1572864
 2987 00d2 1361     		str	r3, [r2, #16]
 880:Drivers/STM32F4xx_HAL_Driver/Src/stm32f4xx_ll_usb.c **** 
 881:Drivers/STM32F4xx_HAL_Driver/Src/stm32f4xx_ll_usb.c ****       if (ep->xfer_len > ep->maxpacket)
 2988              		.loc 1 881 13
 2989 00d4 BB68     		ldr	r3, [r7, #8]
 2990 00d6 5A69     		ldr	r2, [r3, #20]
 2991              		.loc 1 881 28
 2992 00d8 BB68     		ldr	r3, [r7, #8]
 2993 00da 9B68     		ldr	r3, [r3, #8]
 2994              		.loc 1 881 10
 2995 00dc 9A42     		cmp	r2, r3
 2996 00de 03D9     		bls	.L130
 882:Drivers/STM32F4xx_HAL_Driver/Src/stm32f4xx_ll_usb.c ****       {
 883:Drivers/STM32F4xx_HAL_Driver/Src/stm32f4xx_ll_usb.c ****         ep->xfer_len = ep->maxpacket;
 2997              		.loc 1 883 26
 2998 00e0 BB68     		ldr	r3, [r7, #8]
 2999 00e2 9A68     		ldr	r2, [r3, #8]
 3000              		.loc 1 883 22
 3001 00e4 BB68     		ldr	r3, [r7, #8]
 3002 00e6 5A61     		str	r2, [r3, #20]
 3003              	.L130:
 884:Drivers/STM32F4xx_HAL_Driver/Src/stm32f4xx_ll_usb.c ****       }
 885:Drivers/STM32F4xx_HAL_Driver/Src/stm32f4xx_ll_usb.c ****       USBx_INEP(epnum)->DIEPTSIZ |= (USB_OTG_DIEPTSIZ_PKTCNT & (1U << 19));
 3004              		.loc 1 885 34
 3005 00e8 3B69     		ldr	r3, [r7, #16]
 3006 00ea 5A01     		lsls	r2, r3, #5
ARM GAS  /var/folders/vq/qt4vp3kd5rxf7v2b6_fdtdt80000gn/T//ccjOke0W.s 			page 69


 3007 00ec 7B69     		ldr	r3, [r7, #20]
 3008 00ee 1344     		add	r3, r3, r2
 3009 00f0 03F51063 		add	r3, r3, #2304
 3010 00f4 1B69     		ldr	r3, [r3, #16]
 3011 00f6 3A69     		ldr	r2, [r7, #16]
 3012 00f8 5101     		lsls	r1, r2, #5
 3013 00fa 7A69     		ldr	r2, [r7, #20]
 3014 00fc 0A44     		add	r2, r2, r1
 3015 00fe 02F51062 		add	r2, r2, #2304
 3016 0102 43F40023 		orr	r3, r3, #524288
 3017 0106 1361     		str	r3, [r2, #16]
 886:Drivers/STM32F4xx_HAL_Driver/Src/stm32f4xx_ll_usb.c ****       USBx_INEP(epnum)->DIEPTSIZ |= (USB_OTG_DIEPTSIZ_XFRSIZ & ep->xfer_len);
 3018              		.loc 1 886 34
 3019 0108 3B69     		ldr	r3, [r7, #16]
 3020 010a 5A01     		lsls	r2, r3, #5
 3021 010c 7B69     		ldr	r3, [r7, #20]
 3022 010e 1344     		add	r3, r3, r2
 3023 0110 03F51063 		add	r3, r3, #2304
 3024 0114 1A69     		ldr	r2, [r3, #16]
 3025              		.loc 1 886 66
 3026 0116 BB68     		ldr	r3, [r7, #8]
 3027 0118 5B69     		ldr	r3, [r3, #20]
 3028              		.loc 1 886 62
 3029 011a C3F31203 		ubfx	r3, r3, #0, #19
 3030              		.loc 1 886 34
 3031 011e 3969     		ldr	r1, [r7, #16]
 3032 0120 4801     		lsls	r0, r1, #5
 3033 0122 7969     		ldr	r1, [r7, #20]
 3034 0124 0144     		add	r1, r1, r0
 3035 0126 01F51061 		add	r1, r1, #2304
 3036 012a 1343     		orrs	r3, r3, r2
 3037 012c 0B61     		str	r3, [r1, #16]
 3038              	.L129:
 887:Drivers/STM32F4xx_HAL_Driver/Src/stm32f4xx_ll_usb.c ****     }
 888:Drivers/STM32F4xx_HAL_Driver/Src/stm32f4xx_ll_usb.c **** 
 889:Drivers/STM32F4xx_HAL_Driver/Src/stm32f4xx_ll_usb.c ****     if (dma == 1U)
 3039              		.loc 1 889 8
 3040 012e FB79     		ldrb	r3, [r7, #7]	@ zero_extendqisi2
 3041 0130 012B     		cmp	r3, #1
 3042 0132 1ED1     		bne	.L131
 890:Drivers/STM32F4xx_HAL_Driver/Src/stm32f4xx_ll_usb.c ****     {
 891:Drivers/STM32F4xx_HAL_Driver/Src/stm32f4xx_ll_usb.c ****       if ((uint32_t)ep->dma_addr != 0U)
 3043              		.loc 1 891 23
 3044 0134 BB68     		ldr	r3, [r7, #8]
 3045 0136 1B69     		ldr	r3, [r3, #16]
 3046              		.loc 1 891 10
 3047 0138 002B     		cmp	r3, #0
 3048 013a 09D0     		beq	.L132
 892:Drivers/STM32F4xx_HAL_Driver/Src/stm32f4xx_ll_usb.c ****       {
 893:Drivers/STM32F4xx_HAL_Driver/Src/stm32f4xx_ll_usb.c ****         USBx_INEP(epnum)->DIEPDMA = (uint32_t)(ep->dma_addr);
 3049              		.loc 1 893 9
 3050 013c 3B69     		ldr	r3, [r7, #16]
 3051 013e 5A01     		lsls	r2, r3, #5
 3052 0140 7B69     		ldr	r3, [r7, #20]
 3053 0142 1344     		add	r3, r3, r2
 3054 0144 03F51063 		add	r3, r3, #2304
 3055 0148 1A46     		mov	r2, r3
ARM GAS  /var/folders/vq/qt4vp3kd5rxf7v2b6_fdtdt80000gn/T//ccjOke0W.s 			page 70


 3056              		.loc 1 893 50
 3057 014a BB68     		ldr	r3, [r7, #8]
 3058 014c 1B69     		ldr	r3, [r3, #16]
 3059              		.loc 1 893 35
 3060 014e 5361     		str	r3, [r2, #20]
 3061              	.L132:
 894:Drivers/STM32F4xx_HAL_Driver/Src/stm32f4xx_ll_usb.c ****       }
 895:Drivers/STM32F4xx_HAL_Driver/Src/stm32f4xx_ll_usb.c **** 
 896:Drivers/STM32F4xx_HAL_Driver/Src/stm32f4xx_ll_usb.c ****       /* EP enable, IN data in FIFO */
 897:Drivers/STM32F4xx_HAL_Driver/Src/stm32f4xx_ll_usb.c ****       USBx_INEP(epnum)->DIEPCTL |= (USB_OTG_DIEPCTL_CNAK | USB_OTG_DIEPCTL_EPENA);
 3062              		.loc 1 897 33
 3063 0150 3B69     		ldr	r3, [r7, #16]
 3064 0152 5A01     		lsls	r2, r3, #5
 3065 0154 7B69     		ldr	r3, [r7, #20]
 3066 0156 1344     		add	r3, r3, r2
 3067 0158 03F51063 		add	r3, r3, #2304
 3068 015c 1B68     		ldr	r3, [r3]
 3069 015e 3A69     		ldr	r2, [r7, #16]
 3070 0160 5101     		lsls	r1, r2, #5
 3071 0162 7A69     		ldr	r2, [r7, #20]
 3072 0164 0A44     		add	r2, r2, r1
 3073 0166 02F51062 		add	r2, r2, #2304
 3074 016a 43F00443 		orr	r3, r3, #-2080374784
 3075 016e 1360     		str	r3, [r2]
 3076 0170 92E0     		b	.L133
 3077              	.L131:
 898:Drivers/STM32F4xx_HAL_Driver/Src/stm32f4xx_ll_usb.c ****     }
 899:Drivers/STM32F4xx_HAL_Driver/Src/stm32f4xx_ll_usb.c ****     else
 900:Drivers/STM32F4xx_HAL_Driver/Src/stm32f4xx_ll_usb.c ****     {
 901:Drivers/STM32F4xx_HAL_Driver/Src/stm32f4xx_ll_usb.c ****       /* EP enable, IN data in FIFO */
 902:Drivers/STM32F4xx_HAL_Driver/Src/stm32f4xx_ll_usb.c ****       USBx_INEP(epnum)->DIEPCTL |= (USB_OTG_DIEPCTL_CNAK | USB_OTG_DIEPCTL_EPENA);
 3078              		.loc 1 902 33
 3079 0172 3B69     		ldr	r3, [r7, #16]
 3080 0174 5A01     		lsls	r2, r3, #5
 3081 0176 7B69     		ldr	r3, [r7, #20]
 3082 0178 1344     		add	r3, r3, r2
 3083 017a 03F51063 		add	r3, r3, #2304
 3084 017e 1B68     		ldr	r3, [r3]
 3085 0180 3A69     		ldr	r2, [r7, #16]
 3086 0182 5101     		lsls	r1, r2, #5
 3087 0184 7A69     		ldr	r2, [r7, #20]
 3088 0186 0A44     		add	r2, r2, r1
 3089 0188 02F51062 		add	r2, r2, #2304
 3090 018c 43F00443 		orr	r3, r3, #-2080374784
 3091 0190 1360     		str	r3, [r2]
 903:Drivers/STM32F4xx_HAL_Driver/Src/stm32f4xx_ll_usb.c **** 
 904:Drivers/STM32F4xx_HAL_Driver/Src/stm32f4xx_ll_usb.c ****       /* Enable the Tx FIFO Empty Interrupt for this EP */
 905:Drivers/STM32F4xx_HAL_Driver/Src/stm32f4xx_ll_usb.c ****       if (ep->xfer_len > 0U)
 3092              		.loc 1 905 13
 3093 0192 BB68     		ldr	r3, [r7, #8]
 3094 0194 5B69     		ldr	r3, [r3, #20]
 3095              		.loc 1 905 10
 3096 0196 002B     		cmp	r3, #0
 3097 0198 7ED0     		beq	.L133
 906:Drivers/STM32F4xx_HAL_Driver/Src/stm32f4xx_ll_usb.c ****       {
 907:Drivers/STM32F4xx_HAL_Driver/Src/stm32f4xx_ll_usb.c ****         USBx_DEVICE->DIEPEMPMSK |= 1UL << (ep->num & EP_ADDR_MSK);
 3098              		.loc 1 907 33
ARM GAS  /var/folders/vq/qt4vp3kd5rxf7v2b6_fdtdt80000gn/T//ccjOke0W.s 			page 71


 3099 019a 7B69     		ldr	r3, [r7, #20]
 3100 019c 03F50063 		add	r3, r3, #2048
 3101 01a0 5A6B     		ldr	r2, [r3, #52]
 3102              		.loc 1 907 46
 3103 01a2 BB68     		ldr	r3, [r7, #8]
 3104 01a4 1B78     		ldrb	r3, [r3]	@ zero_extendqisi2
 3105              		.loc 1 907 52
 3106 01a6 03F00F03 		and	r3, r3, #15
 3107              		.loc 1 907 40
 3108 01aa 0121     		movs	r1, #1
 3109 01ac 01FA03F3 		lsl	r3, r1, r3
 3110              		.loc 1 907 33
 3111 01b0 7969     		ldr	r1, [r7, #20]
 3112 01b2 01F50061 		add	r1, r1, #2048
 3113 01b6 1343     		orrs	r3, r3, r2
 3114 01b8 4B63     		str	r3, [r1, #52]
 3115 01ba 6DE0     		b	.L133
 3116              	.L127:
 908:Drivers/STM32F4xx_HAL_Driver/Src/stm32f4xx_ll_usb.c ****       }
 909:Drivers/STM32F4xx_HAL_Driver/Src/stm32f4xx_ll_usb.c ****     }
 910:Drivers/STM32F4xx_HAL_Driver/Src/stm32f4xx_ll_usb.c ****   }
 911:Drivers/STM32F4xx_HAL_Driver/Src/stm32f4xx_ll_usb.c ****   else /* OUT endpoint */
 912:Drivers/STM32F4xx_HAL_Driver/Src/stm32f4xx_ll_usb.c ****   {
 913:Drivers/STM32F4xx_HAL_Driver/Src/stm32f4xx_ll_usb.c ****     /* Program the transfer size and packet count as follows:
 914:Drivers/STM32F4xx_HAL_Driver/Src/stm32f4xx_ll_usb.c ****     * pktcnt = N
 915:Drivers/STM32F4xx_HAL_Driver/Src/stm32f4xx_ll_usb.c ****     * xfersize = N * maxpacket
 916:Drivers/STM32F4xx_HAL_Driver/Src/stm32f4xx_ll_usb.c ****     */
 917:Drivers/STM32F4xx_HAL_Driver/Src/stm32f4xx_ll_usb.c ****     USBx_OUTEP(epnum)->DOEPTSIZ &= ~(USB_OTG_DOEPTSIZ_XFRSIZ);
 3117              		.loc 1 917 33
 3118 01bc 3B69     		ldr	r3, [r7, #16]
 3119 01be 5A01     		lsls	r2, r3, #5
 3120 01c0 7B69     		ldr	r3, [r7, #20]
 3121 01c2 1344     		add	r3, r3, r2
 3122 01c4 03F53063 		add	r3, r3, #2816
 3123 01c8 1B69     		ldr	r3, [r3, #16]
 3124 01ca 3A69     		ldr	r2, [r7, #16]
 3125 01cc 5101     		lsls	r1, r2, #5
 3126 01ce 7A69     		ldr	r2, [r7, #20]
 3127 01d0 0A44     		add	r2, r2, r1
 3128 01d2 02F53062 		add	r2, r2, #2816
 3129 01d6 DB0C     		lsrs	r3, r3, #19
 3130 01d8 DB04     		lsls	r3, r3, #19
 3131 01da 1361     		str	r3, [r2, #16]
 918:Drivers/STM32F4xx_HAL_Driver/Src/stm32f4xx_ll_usb.c ****     USBx_OUTEP(epnum)->DOEPTSIZ &= ~(USB_OTG_DOEPTSIZ_PKTCNT);
 3132              		.loc 1 918 33
 3133 01dc 3B69     		ldr	r3, [r7, #16]
 3134 01de 5A01     		lsls	r2, r3, #5
 3135 01e0 7B69     		ldr	r3, [r7, #20]
 3136 01e2 1344     		add	r3, r3, r2
 3137 01e4 03F53063 		add	r3, r3, #2816
 3138 01e8 1B69     		ldr	r3, [r3, #16]
 3139 01ea 3A69     		ldr	r2, [r7, #16]
 3140 01ec 5101     		lsls	r1, r2, #5
 3141 01ee 7A69     		ldr	r2, [r7, #20]
 3142 01f0 0A44     		add	r2, r2, r1
 3143 01f2 02F53062 		add	r2, r2, #2816
 3144 01f6 23F0FF53 		bic	r3, r3, #534773760
ARM GAS  /var/folders/vq/qt4vp3kd5rxf7v2b6_fdtdt80000gn/T//ccjOke0W.s 			page 72


 3145 01fa 23F4C013 		bic	r3, r3, #1572864
 3146 01fe 1361     		str	r3, [r2, #16]
 919:Drivers/STM32F4xx_HAL_Driver/Src/stm32f4xx_ll_usb.c **** 
 920:Drivers/STM32F4xx_HAL_Driver/Src/stm32f4xx_ll_usb.c ****     if (ep->xfer_len > 0U)
 3147              		.loc 1 920 11
 3148 0200 BB68     		ldr	r3, [r7, #8]
 3149 0202 5B69     		ldr	r3, [r3, #20]
 3150              		.loc 1 920 8
 3151 0204 002B     		cmp	r3, #0
 3152 0206 03D0     		beq	.L134
 921:Drivers/STM32F4xx_HAL_Driver/Src/stm32f4xx_ll_usb.c ****     {
 922:Drivers/STM32F4xx_HAL_Driver/Src/stm32f4xx_ll_usb.c ****       ep->xfer_len = ep->maxpacket;
 3153              		.loc 1 922 24
 3154 0208 BB68     		ldr	r3, [r7, #8]
 3155 020a 9A68     		ldr	r2, [r3, #8]
 3156              		.loc 1 922 20
 3157 020c BB68     		ldr	r3, [r7, #8]
 3158 020e 5A61     		str	r2, [r3, #20]
 3159              	.L134:
 923:Drivers/STM32F4xx_HAL_Driver/Src/stm32f4xx_ll_usb.c ****     }
 924:Drivers/STM32F4xx_HAL_Driver/Src/stm32f4xx_ll_usb.c **** 
 925:Drivers/STM32F4xx_HAL_Driver/Src/stm32f4xx_ll_usb.c ****     USBx_OUTEP(epnum)->DOEPTSIZ |= (USB_OTG_DOEPTSIZ_PKTCNT & (1U << 19));
 3160              		.loc 1 925 33
 3161 0210 3B69     		ldr	r3, [r7, #16]
 3162 0212 5A01     		lsls	r2, r3, #5
 3163 0214 7B69     		ldr	r3, [r7, #20]
 3164 0216 1344     		add	r3, r3, r2
 3165 0218 03F53063 		add	r3, r3, #2816
 3166 021c 1B69     		ldr	r3, [r3, #16]
 3167 021e 3A69     		ldr	r2, [r7, #16]
 3168 0220 5101     		lsls	r1, r2, #5
 3169 0222 7A69     		ldr	r2, [r7, #20]
 3170 0224 0A44     		add	r2, r2, r1
 3171 0226 02F53062 		add	r2, r2, #2816
 3172 022a 43F40023 		orr	r3, r3, #524288
 3173 022e 1361     		str	r3, [r2, #16]
 926:Drivers/STM32F4xx_HAL_Driver/Src/stm32f4xx_ll_usb.c ****     USBx_OUTEP(epnum)->DOEPTSIZ |= (USB_OTG_DOEPTSIZ_XFRSIZ & (ep->maxpacket));
 3174              		.loc 1 926 33
 3175 0230 3B69     		ldr	r3, [r7, #16]
 3176 0232 5A01     		lsls	r2, r3, #5
 3177 0234 7B69     		ldr	r3, [r7, #20]
 3178 0236 1344     		add	r3, r3, r2
 3179 0238 03F53063 		add	r3, r3, #2816
 3180 023c 1A69     		ldr	r2, [r3, #16]
 3181              		.loc 1 926 66
 3182 023e BB68     		ldr	r3, [r7, #8]
 3183 0240 9B68     		ldr	r3, [r3, #8]
 3184              		.loc 1 926 61
 3185 0242 C3F31203 		ubfx	r3, r3, #0, #19
 3186              		.loc 1 926 33
 3187 0246 3969     		ldr	r1, [r7, #16]
 3188 0248 4801     		lsls	r0, r1, #5
 3189 024a 7969     		ldr	r1, [r7, #20]
 3190 024c 0144     		add	r1, r1, r0
 3191 024e 01F53061 		add	r1, r1, #2816
 3192 0252 1343     		orrs	r3, r3, r2
 3193 0254 0B61     		str	r3, [r1, #16]
ARM GAS  /var/folders/vq/qt4vp3kd5rxf7v2b6_fdtdt80000gn/T//ccjOke0W.s 			page 73


 927:Drivers/STM32F4xx_HAL_Driver/Src/stm32f4xx_ll_usb.c **** 
 928:Drivers/STM32F4xx_HAL_Driver/Src/stm32f4xx_ll_usb.c ****     if (dma == 1U)
 3194              		.loc 1 928 8
 3195 0256 FB79     		ldrb	r3, [r7, #7]	@ zero_extendqisi2
 3196 0258 012B     		cmp	r3, #1
 3197 025a 0DD1     		bne	.L135
 929:Drivers/STM32F4xx_HAL_Driver/Src/stm32f4xx_ll_usb.c ****     {
 930:Drivers/STM32F4xx_HAL_Driver/Src/stm32f4xx_ll_usb.c ****       if ((uint32_t)ep->xfer_buff != 0U)
 3198              		.loc 1 930 23
 3199 025c BB68     		ldr	r3, [r7, #8]
 3200 025e DB68     		ldr	r3, [r3, #12]
 3201              		.loc 1 930 10
 3202 0260 002B     		cmp	r3, #0
 3203 0262 09D0     		beq	.L135
 931:Drivers/STM32F4xx_HAL_Driver/Src/stm32f4xx_ll_usb.c ****       {
 932:Drivers/STM32F4xx_HAL_Driver/Src/stm32f4xx_ll_usb.c ****         USBx_OUTEP(epnum)->DOEPDMA = (uint32_t)(ep->xfer_buff);
 3204              		.loc 1 932 51
 3205 0264 BB68     		ldr	r3, [r7, #8]
 3206 0266 D968     		ldr	r1, [r3, #12]
 3207              		.loc 1 932 9
 3208 0268 3B69     		ldr	r3, [r7, #16]
 3209 026a 5A01     		lsls	r2, r3, #5
 3210 026c 7B69     		ldr	r3, [r7, #20]
 3211 026e 1344     		add	r3, r3, r2
 3212 0270 03F53063 		add	r3, r3, #2816
 3213              		.loc 1 932 38
 3214 0274 0A46     		mov	r2, r1
 3215              		.loc 1 932 36
 3216 0276 5A61     		str	r2, [r3, #20]
 3217              	.L135:
 933:Drivers/STM32F4xx_HAL_Driver/Src/stm32f4xx_ll_usb.c ****       }
 934:Drivers/STM32F4xx_HAL_Driver/Src/stm32f4xx_ll_usb.c ****     }
 935:Drivers/STM32F4xx_HAL_Driver/Src/stm32f4xx_ll_usb.c **** 
 936:Drivers/STM32F4xx_HAL_Driver/Src/stm32f4xx_ll_usb.c ****     /* EP enable */
 937:Drivers/STM32F4xx_HAL_Driver/Src/stm32f4xx_ll_usb.c ****     USBx_OUTEP(epnum)->DOEPCTL |= (USB_OTG_DOEPCTL_CNAK | USB_OTG_DOEPCTL_EPENA);
 3218              		.loc 1 937 32
 3219 0278 3B69     		ldr	r3, [r7, #16]
 3220 027a 5A01     		lsls	r2, r3, #5
 3221 027c 7B69     		ldr	r3, [r7, #20]
 3222 027e 1344     		add	r3, r3, r2
 3223 0280 03F53063 		add	r3, r3, #2816
 3224 0284 1B68     		ldr	r3, [r3]
 3225 0286 3A69     		ldr	r2, [r7, #16]
 3226 0288 5101     		lsls	r1, r2, #5
 3227 028a 7A69     		ldr	r2, [r7, #20]
 3228 028c 0A44     		add	r2, r2, r1
 3229 028e 02F53062 		add	r2, r2, #2816
 3230 0292 43F00443 		orr	r3, r3, #-2080374784
 3231 0296 1360     		str	r3, [r2]
 3232              	.L133:
 938:Drivers/STM32F4xx_HAL_Driver/Src/stm32f4xx_ll_usb.c ****   }
 939:Drivers/STM32F4xx_HAL_Driver/Src/stm32f4xx_ll_usb.c **** 
 940:Drivers/STM32F4xx_HAL_Driver/Src/stm32f4xx_ll_usb.c ****   return HAL_OK;
 3233              		.loc 1 940 10
 3234 0298 0023     		movs	r3, #0
 941:Drivers/STM32F4xx_HAL_Driver/Src/stm32f4xx_ll_usb.c **** }
 3235              		.loc 1 941 1
ARM GAS  /var/folders/vq/qt4vp3kd5rxf7v2b6_fdtdt80000gn/T//ccjOke0W.s 			page 74


 3236 029a 1846     		mov	r0, r3
 3237 029c 1C37     		adds	r7, r7, #28
 3238              	.LCFI95:
 3239              		.cfi_def_cfa_offset 4
 3240 029e BD46     		mov	sp, r7
 3241              	.LCFI96:
 3242              		.cfi_def_cfa_register 13
 3243              		@ sp needed
 3244 02a0 5DF8047B 		ldr	r7, [sp], #4
 3245              	.LCFI97:
 3246              		.cfi_restore 7
 3247              		.cfi_def_cfa_offset 0
 3248 02a4 7047     		bx	lr
 3249              		.cfi_endproc
 3250              	.LFE145:
 3252              		.section	.text.USB_WritePacket,"ax",%progbits
 3253              		.align	1
 3254              		.global	USB_WritePacket
 3255              		.syntax unified
 3256              		.thumb
 3257              		.thumb_func
 3258              		.fpu fpv4-sp-d16
 3260              	USB_WritePacket:
 3261              	.LFB146:
 942:Drivers/STM32F4xx_HAL_Driver/Src/stm32f4xx_ll_usb.c **** 
 943:Drivers/STM32F4xx_HAL_Driver/Src/stm32f4xx_ll_usb.c **** /**
 944:Drivers/STM32F4xx_HAL_Driver/Src/stm32f4xx_ll_usb.c ****   * @brief  USB_WritePacket : Writes a packet into the Tx FIFO associated
 945:Drivers/STM32F4xx_HAL_Driver/Src/stm32f4xx_ll_usb.c ****   *         with the EP/channel
 946:Drivers/STM32F4xx_HAL_Driver/Src/stm32f4xx_ll_usb.c ****   * @param  USBx  Selected device
 947:Drivers/STM32F4xx_HAL_Driver/Src/stm32f4xx_ll_usb.c ****   * @param  src   pointer to source buffer
 948:Drivers/STM32F4xx_HAL_Driver/Src/stm32f4xx_ll_usb.c ****   * @param  ch_ep_num  endpoint or host channel number
 949:Drivers/STM32F4xx_HAL_Driver/Src/stm32f4xx_ll_usb.c ****   * @param  len  Number of bytes to write
 950:Drivers/STM32F4xx_HAL_Driver/Src/stm32f4xx_ll_usb.c ****   * @param  dma USB dma enabled or disabled
 951:Drivers/STM32F4xx_HAL_Driver/Src/stm32f4xx_ll_usb.c ****   *          This parameter can be one of these values:
 952:Drivers/STM32F4xx_HAL_Driver/Src/stm32f4xx_ll_usb.c ****   *           0 : DMA feature not used
 953:Drivers/STM32F4xx_HAL_Driver/Src/stm32f4xx_ll_usb.c ****   *           1 : DMA feature used
 954:Drivers/STM32F4xx_HAL_Driver/Src/stm32f4xx_ll_usb.c ****   * @retval HAL status
 955:Drivers/STM32F4xx_HAL_Driver/Src/stm32f4xx_ll_usb.c ****   */
 956:Drivers/STM32F4xx_HAL_Driver/Src/stm32f4xx_ll_usb.c **** HAL_StatusTypeDef USB_WritePacket(USB_OTG_GlobalTypeDef *USBx, uint8_t *src,
 957:Drivers/STM32F4xx_HAL_Driver/Src/stm32f4xx_ll_usb.c ****                                   uint8_t ch_ep_num, uint16_t len, uint8_t dma)
 958:Drivers/STM32F4xx_HAL_Driver/Src/stm32f4xx_ll_usb.c **** {
 3262              		.loc 1 958 1
 3263              		.cfi_startproc
 3264              		@ args = 4, pretend = 0, frame = 32
 3265              		@ frame_needed = 1, uses_anonymous_args = 0
 3266              		@ link register save eliminated.
 3267 0000 80B4     		push	{r7}
 3268              	.LCFI98:
 3269              		.cfi_def_cfa_offset 4
 3270              		.cfi_offset 7, -4
 3271 0002 89B0     		sub	sp, sp, #36
 3272              	.LCFI99:
 3273              		.cfi_def_cfa_offset 40
 3274 0004 00AF     		add	r7, sp, #0
 3275              	.LCFI100:
 3276              		.cfi_def_cfa_register 7
 3277 0006 F860     		str	r0, [r7, #12]
ARM GAS  /var/folders/vq/qt4vp3kd5rxf7v2b6_fdtdt80000gn/T//ccjOke0W.s 			page 75


 3278 0008 B960     		str	r1, [r7, #8]
 3279 000a 1146     		mov	r1, r2
 3280 000c 1A46     		mov	r2, r3
 3281 000e 0B46     		mov	r3, r1
 3282 0010 FB71     		strb	r3, [r7, #7]
 3283 0012 1346     		mov	r3, r2	@ movhi
 3284 0014 BB80     		strh	r3, [r7, #4]	@ movhi
 959:Drivers/STM32F4xx_HAL_Driver/Src/stm32f4xx_ll_usb.c ****   uint32_t USBx_BASE = (uint32_t)USBx;
 3285              		.loc 1 959 12
 3286 0016 FB68     		ldr	r3, [r7, #12]
 3287 0018 7B61     		str	r3, [r7, #20]
 960:Drivers/STM32F4xx_HAL_Driver/Src/stm32f4xx_ll_usb.c ****   uint32_t *pSrc = (uint32_t *)src;
 3288              		.loc 1 960 13
 3289 001a BB68     		ldr	r3, [r7, #8]
 3290 001c FB61     		str	r3, [r7, #28]
 961:Drivers/STM32F4xx_HAL_Driver/Src/stm32f4xx_ll_usb.c ****   uint32_t count32b, i;
 962:Drivers/STM32F4xx_HAL_Driver/Src/stm32f4xx_ll_usb.c **** 
 963:Drivers/STM32F4xx_HAL_Driver/Src/stm32f4xx_ll_usb.c ****   if (dma == 0U)
 3291              		.loc 1 963 6
 3292 001e 97F82830 		ldrb	r3, [r7, #40]	@ zero_extendqisi2
 3293 0022 002B     		cmp	r3, #0
 3294 0024 1AD1     		bne	.L138
 964:Drivers/STM32F4xx_HAL_Driver/Src/stm32f4xx_ll_usb.c ****   {
 965:Drivers/STM32F4xx_HAL_Driver/Src/stm32f4xx_ll_usb.c ****     count32b = ((uint32_t)len + 3U) / 4U;
 3295              		.loc 1 965 17
 3296 0026 BB88     		ldrh	r3, [r7, #4]
 3297              		.loc 1 965 31
 3298 0028 0333     		adds	r3, r3, #3
 3299              		.loc 1 965 14
 3300 002a 9B08     		lsrs	r3, r3, #2
 3301 002c 3B61     		str	r3, [r7, #16]
 966:Drivers/STM32F4xx_HAL_Driver/Src/stm32f4xx_ll_usb.c ****     for (i = 0U; i < count32b; i++)
 3302              		.loc 1 966 12
 3303 002e 0023     		movs	r3, #0
 3304 0030 BB61     		str	r3, [r7, #24]
 3305              		.loc 1 966 5
 3306 0032 0FE0     		b	.L139
 3307              	.L140:
 967:Drivers/STM32F4xx_HAL_Driver/Src/stm32f4xx_ll_usb.c ****     {
 968:Drivers/STM32F4xx_HAL_Driver/Src/stm32f4xx_ll_usb.c ****       USBx_DFIFO((uint32_t)ch_ep_num) = __UNALIGNED_UINT32_READ(pSrc);
 3308              		.loc 1 968 7 discriminator 3
 3309 0034 FB79     		ldrb	r3, [r7, #7]	@ zero_extendqisi2
 3310 0036 1A03     		lsls	r2, r3, #12
 3311 0038 7B69     		ldr	r3, [r7, #20]
 3312 003a 1344     		add	r3, r3, r2
 3313 003c 03F58053 		add	r3, r3, #4096
 3314 0040 1A46     		mov	r2, r3
 3315              		.loc 1 968 41 discriminator 3
 3316 0042 FB69     		ldr	r3, [r7, #28]
 3317 0044 1B68     		ldr	r3, [r3]	@ unaligned
 3318              		.loc 1 968 39 discriminator 3
 3319 0046 1360     		str	r3, [r2]
 969:Drivers/STM32F4xx_HAL_Driver/Src/stm32f4xx_ll_usb.c ****       pSrc++;
 3320              		.loc 1 969 11 discriminator 3
 3321 0048 FB69     		ldr	r3, [r7, #28]
 3322 004a 0433     		adds	r3, r3, #4
 3323 004c FB61     		str	r3, [r7, #28]
ARM GAS  /var/folders/vq/qt4vp3kd5rxf7v2b6_fdtdt80000gn/T//ccjOke0W.s 			page 76


 966:Drivers/STM32F4xx_HAL_Driver/Src/stm32f4xx_ll_usb.c ****     for (i = 0U; i < count32b; i++)
 3324              		.loc 1 966 33 discriminator 3
 3325 004e BB69     		ldr	r3, [r7, #24]
 3326 0050 0133     		adds	r3, r3, #1
 3327 0052 BB61     		str	r3, [r7, #24]
 3328              	.L139:
 966:Drivers/STM32F4xx_HAL_Driver/Src/stm32f4xx_ll_usb.c ****     for (i = 0U; i < count32b; i++)
 3329              		.loc 1 966 5 discriminator 1
 3330 0054 BA69     		ldr	r2, [r7, #24]
 3331 0056 3B69     		ldr	r3, [r7, #16]
 3332 0058 9A42     		cmp	r2, r3
 3333 005a EBD3     		bcc	.L140
 3334              	.L138:
 970:Drivers/STM32F4xx_HAL_Driver/Src/stm32f4xx_ll_usb.c ****     }
 971:Drivers/STM32F4xx_HAL_Driver/Src/stm32f4xx_ll_usb.c ****   }
 972:Drivers/STM32F4xx_HAL_Driver/Src/stm32f4xx_ll_usb.c **** 
 973:Drivers/STM32F4xx_HAL_Driver/Src/stm32f4xx_ll_usb.c ****   return HAL_OK;
 3335              		.loc 1 973 10
 3336 005c 0023     		movs	r3, #0
 974:Drivers/STM32F4xx_HAL_Driver/Src/stm32f4xx_ll_usb.c **** }
 3337              		.loc 1 974 1
 3338 005e 1846     		mov	r0, r3
 3339 0060 2437     		adds	r7, r7, #36
 3340              	.LCFI101:
 3341              		.cfi_def_cfa_offset 4
 3342 0062 BD46     		mov	sp, r7
 3343              	.LCFI102:
 3344              		.cfi_def_cfa_register 13
 3345              		@ sp needed
 3346 0064 5DF8047B 		ldr	r7, [sp], #4
 3347              	.LCFI103:
 3348              		.cfi_restore 7
 3349              		.cfi_def_cfa_offset 0
 3350 0068 7047     		bx	lr
 3351              		.cfi_endproc
 3352              	.LFE146:
 3354              		.section	.text.USB_ReadPacket,"ax",%progbits
 3355              		.align	1
 3356              		.global	USB_ReadPacket
 3357              		.syntax unified
 3358              		.thumb
 3359              		.thumb_func
 3360              		.fpu fpv4-sp-d16
 3362              	USB_ReadPacket:
 3363              	.LFB147:
 975:Drivers/STM32F4xx_HAL_Driver/Src/stm32f4xx_ll_usb.c **** 
 976:Drivers/STM32F4xx_HAL_Driver/Src/stm32f4xx_ll_usb.c **** /**
 977:Drivers/STM32F4xx_HAL_Driver/Src/stm32f4xx_ll_usb.c ****   * @brief  USB_ReadPacket : read a packet from the RX FIFO
 978:Drivers/STM32F4xx_HAL_Driver/Src/stm32f4xx_ll_usb.c ****   * @param  USBx  Selected device
 979:Drivers/STM32F4xx_HAL_Driver/Src/stm32f4xx_ll_usb.c ****   * @param  dest  source pointer
 980:Drivers/STM32F4xx_HAL_Driver/Src/stm32f4xx_ll_usb.c ****   * @param  len  Number of bytes to read
 981:Drivers/STM32F4xx_HAL_Driver/Src/stm32f4xx_ll_usb.c ****   * @retval pointer to destination buffer
 982:Drivers/STM32F4xx_HAL_Driver/Src/stm32f4xx_ll_usb.c ****   */
 983:Drivers/STM32F4xx_HAL_Driver/Src/stm32f4xx_ll_usb.c **** void *USB_ReadPacket(USB_OTG_GlobalTypeDef *USBx, uint8_t *dest, uint16_t len)
 984:Drivers/STM32F4xx_HAL_Driver/Src/stm32f4xx_ll_usb.c **** {
 3364              		.loc 1 984 1
 3365              		.cfi_startproc
ARM GAS  /var/folders/vq/qt4vp3kd5rxf7v2b6_fdtdt80000gn/T//ccjOke0W.s 			page 77


 3366              		@ args = 0, pretend = 0, frame = 32
 3367              		@ frame_needed = 1, uses_anonymous_args = 0
 3368              		@ link register save eliminated.
 3369 0000 80B4     		push	{r7}
 3370              	.LCFI104:
 3371              		.cfi_def_cfa_offset 4
 3372              		.cfi_offset 7, -4
 3373 0002 89B0     		sub	sp, sp, #36
 3374              	.LCFI105:
 3375              		.cfi_def_cfa_offset 40
 3376 0004 00AF     		add	r7, sp, #0
 3377              	.LCFI106:
 3378              		.cfi_def_cfa_register 7
 3379 0006 F860     		str	r0, [r7, #12]
 3380 0008 B960     		str	r1, [r7, #8]
 3381 000a 1346     		mov	r3, r2
 3382 000c FB80     		strh	r3, [r7, #6]	@ movhi
 985:Drivers/STM32F4xx_HAL_Driver/Src/stm32f4xx_ll_usb.c ****   uint32_t USBx_BASE = (uint32_t)USBx;
 3383              		.loc 1 985 12
 3384 000e FB68     		ldr	r3, [r7, #12]
 3385 0010 7B61     		str	r3, [r7, #20]
 986:Drivers/STM32F4xx_HAL_Driver/Src/stm32f4xx_ll_usb.c ****   uint32_t *pDest = (uint32_t *)dest;
 3386              		.loc 1 986 13
 3387 0012 BB68     		ldr	r3, [r7, #8]
 3388 0014 FB61     		str	r3, [r7, #28]
 987:Drivers/STM32F4xx_HAL_Driver/Src/stm32f4xx_ll_usb.c ****   uint32_t i;
 988:Drivers/STM32F4xx_HAL_Driver/Src/stm32f4xx_ll_usb.c ****   uint32_t count32b = ((uint32_t)len + 3U) / 4U;
 3389              		.loc 1 988 24
 3390 0016 FB88     		ldrh	r3, [r7, #6]
 3391              		.loc 1 988 38
 3392 0018 0333     		adds	r3, r3, #3
 3393              		.loc 1 988 12
 3394 001a 9B08     		lsrs	r3, r3, #2
 3395 001c 3B61     		str	r3, [r7, #16]
 989:Drivers/STM32F4xx_HAL_Driver/Src/stm32f4xx_ll_usb.c **** 
 990:Drivers/STM32F4xx_HAL_Driver/Src/stm32f4xx_ll_usb.c ****   for (i = 0U; i < count32b; i++)
 3396              		.loc 1 990 10
 3397 001e 0023     		movs	r3, #0
 3398 0020 BB61     		str	r3, [r7, #24]
 3399              		.loc 1 990 3
 3400 0022 0BE0     		b	.L143
 3401              	.L144:
 991:Drivers/STM32F4xx_HAL_Driver/Src/stm32f4xx_ll_usb.c ****   {
 992:Drivers/STM32F4xx_HAL_Driver/Src/stm32f4xx_ll_usb.c ****     __UNALIGNED_UINT32_WRITE(pDest, USBx_DFIFO(0U));
 3402              		.loc 1 992 5 discriminator 3
 3403 0024 7B69     		ldr	r3, [r7, #20]
 3404 0026 03F58053 		add	r3, r3, #4096
 3405 002a 1A68     		ldr	r2, [r3]
 3406 002c FB69     		ldr	r3, [r7, #28]
 3407 002e 1A60     		str	r2, [r3]	@ unaligned
 993:Drivers/STM32F4xx_HAL_Driver/Src/stm32f4xx_ll_usb.c ****     pDest++;
 3408              		.loc 1 993 10 discriminator 3
 3409 0030 FB69     		ldr	r3, [r7, #28]
 3410 0032 0433     		adds	r3, r3, #4
 3411 0034 FB61     		str	r3, [r7, #28]
 990:Drivers/STM32F4xx_HAL_Driver/Src/stm32f4xx_ll_usb.c ****   {
 3412              		.loc 1 990 31 discriminator 3
ARM GAS  /var/folders/vq/qt4vp3kd5rxf7v2b6_fdtdt80000gn/T//ccjOke0W.s 			page 78


 3413 0036 BB69     		ldr	r3, [r7, #24]
 3414 0038 0133     		adds	r3, r3, #1
 3415 003a BB61     		str	r3, [r7, #24]
 3416              	.L143:
 990:Drivers/STM32F4xx_HAL_Driver/Src/stm32f4xx_ll_usb.c ****   {
 3417              		.loc 1 990 3 discriminator 1
 3418 003c BA69     		ldr	r2, [r7, #24]
 3419 003e 3B69     		ldr	r3, [r7, #16]
 3420 0040 9A42     		cmp	r2, r3
 3421 0042 EFD3     		bcc	.L144
 994:Drivers/STM32F4xx_HAL_Driver/Src/stm32f4xx_ll_usb.c ****   }
 995:Drivers/STM32F4xx_HAL_Driver/Src/stm32f4xx_ll_usb.c **** 
 996:Drivers/STM32F4xx_HAL_Driver/Src/stm32f4xx_ll_usb.c ****   return ((void *)pDest);
 3422              		.loc 1 996 11
 3423 0044 FB69     		ldr	r3, [r7, #28]
 997:Drivers/STM32F4xx_HAL_Driver/Src/stm32f4xx_ll_usb.c **** }
 3424              		.loc 1 997 1
 3425 0046 1846     		mov	r0, r3
 3426 0048 2437     		adds	r7, r7, #36
 3427              	.LCFI107:
 3428              		.cfi_def_cfa_offset 4
 3429 004a BD46     		mov	sp, r7
 3430              	.LCFI108:
 3431              		.cfi_def_cfa_register 13
 3432              		@ sp needed
 3433 004c 5DF8047B 		ldr	r7, [sp], #4
 3434              	.LCFI109:
 3435              		.cfi_restore 7
 3436              		.cfi_def_cfa_offset 0
 3437 0050 7047     		bx	lr
 3438              		.cfi_endproc
 3439              	.LFE147:
 3441              		.section	.text.USB_EPSetStall,"ax",%progbits
 3442              		.align	1
 3443              		.global	USB_EPSetStall
 3444              		.syntax unified
 3445              		.thumb
 3446              		.thumb_func
 3447              		.fpu fpv4-sp-d16
 3449              	USB_EPSetStall:
 3450              	.LFB148:
 998:Drivers/STM32F4xx_HAL_Driver/Src/stm32f4xx_ll_usb.c **** 
 999:Drivers/STM32F4xx_HAL_Driver/Src/stm32f4xx_ll_usb.c **** /**
1000:Drivers/STM32F4xx_HAL_Driver/Src/stm32f4xx_ll_usb.c ****   * @brief  USB_EPSetStall : set a stall condition over an EP
1001:Drivers/STM32F4xx_HAL_Driver/Src/stm32f4xx_ll_usb.c ****   * @param  USBx  Selected device
1002:Drivers/STM32F4xx_HAL_Driver/Src/stm32f4xx_ll_usb.c ****   * @param  ep pointer to endpoint structure
1003:Drivers/STM32F4xx_HAL_Driver/Src/stm32f4xx_ll_usb.c ****   * @retval HAL status
1004:Drivers/STM32F4xx_HAL_Driver/Src/stm32f4xx_ll_usb.c ****   */
1005:Drivers/STM32F4xx_HAL_Driver/Src/stm32f4xx_ll_usb.c **** HAL_StatusTypeDef USB_EPSetStall(USB_OTG_GlobalTypeDef *USBx, USB_OTG_EPTypeDef *ep)
1006:Drivers/STM32F4xx_HAL_Driver/Src/stm32f4xx_ll_usb.c **** {
 3451              		.loc 1 1006 1
 3452              		.cfi_startproc
 3453              		@ args = 0, pretend = 0, frame = 16
 3454              		@ frame_needed = 1, uses_anonymous_args = 0
 3455              		@ link register save eliminated.
 3456 0000 80B4     		push	{r7}
 3457              	.LCFI110:
ARM GAS  /var/folders/vq/qt4vp3kd5rxf7v2b6_fdtdt80000gn/T//ccjOke0W.s 			page 79


 3458              		.cfi_def_cfa_offset 4
 3459              		.cfi_offset 7, -4
 3460 0002 85B0     		sub	sp, sp, #20
 3461              	.LCFI111:
 3462              		.cfi_def_cfa_offset 24
 3463 0004 00AF     		add	r7, sp, #0
 3464              	.LCFI112:
 3465              		.cfi_def_cfa_register 7
 3466 0006 7860     		str	r0, [r7, #4]
 3467 0008 3960     		str	r1, [r7]
1007:Drivers/STM32F4xx_HAL_Driver/Src/stm32f4xx_ll_usb.c ****   uint32_t USBx_BASE = (uint32_t)USBx;
 3468              		.loc 1 1007 12
 3469 000a 7B68     		ldr	r3, [r7, #4]
 3470 000c FB60     		str	r3, [r7, #12]
1008:Drivers/STM32F4xx_HAL_Driver/Src/stm32f4xx_ll_usb.c ****   uint32_t epnum = (uint32_t)ep->num;
 3471              		.loc 1 1008 32
 3472 000e 3B68     		ldr	r3, [r7]
 3473 0010 1B78     		ldrb	r3, [r3]	@ zero_extendqisi2
 3474              		.loc 1 1008 12
 3475 0012 BB60     		str	r3, [r7, #8]
1009:Drivers/STM32F4xx_HAL_Driver/Src/stm32f4xx_ll_usb.c **** 
1010:Drivers/STM32F4xx_HAL_Driver/Src/stm32f4xx_ll_usb.c ****   if (ep->is_in == 1U)
 3476              		.loc 1 1010 9
 3477 0014 3B68     		ldr	r3, [r7]
 3478 0016 5B78     		ldrb	r3, [r3, #1]	@ zero_extendqisi2
 3479              		.loc 1 1010 6
 3480 0018 012B     		cmp	r3, #1
 3481 001a 2CD1     		bne	.L147
1011:Drivers/STM32F4xx_HAL_Driver/Src/stm32f4xx_ll_usb.c ****   {
1012:Drivers/STM32F4xx_HAL_Driver/Src/stm32f4xx_ll_usb.c ****     if (((USBx_INEP(epnum)->DIEPCTL & USB_OTG_DIEPCTL_EPENA) == 0U) && (epnum != 0U))
 3482              		.loc 1 1012 11
 3483 001c BB68     		ldr	r3, [r7, #8]
 3484 001e 5A01     		lsls	r2, r3, #5
 3485 0020 FB68     		ldr	r3, [r7, #12]
 3486 0022 1344     		add	r3, r3, r2
 3487 0024 03F51063 		add	r3, r3, #2304
 3488              		.loc 1 1012 27
 3489 0028 1B68     		ldr	r3, [r3]
 3490              		.loc 1 1012 8
 3491 002a 002B     		cmp	r3, #0
 3492 002c 12DB     		blt	.L148
 3493              		.loc 1 1012 69 discriminator 1
 3494 002e BB68     		ldr	r3, [r7, #8]
 3495 0030 002B     		cmp	r3, #0
 3496 0032 0FD0     		beq	.L148
1013:Drivers/STM32F4xx_HAL_Driver/Src/stm32f4xx_ll_usb.c ****     {
1014:Drivers/STM32F4xx_HAL_Driver/Src/stm32f4xx_ll_usb.c ****       USBx_INEP(epnum)->DIEPCTL &= ~(USB_OTG_DIEPCTL_EPDIS);
 3497              		.loc 1 1014 33
 3498 0034 BB68     		ldr	r3, [r7, #8]
 3499 0036 5A01     		lsls	r2, r3, #5
 3500 0038 FB68     		ldr	r3, [r7, #12]
 3501 003a 1344     		add	r3, r3, r2
 3502 003c 03F51063 		add	r3, r3, #2304
 3503 0040 1B68     		ldr	r3, [r3]
 3504 0042 BA68     		ldr	r2, [r7, #8]
 3505 0044 5101     		lsls	r1, r2, #5
 3506 0046 FA68     		ldr	r2, [r7, #12]
ARM GAS  /var/folders/vq/qt4vp3kd5rxf7v2b6_fdtdt80000gn/T//ccjOke0W.s 			page 80


 3507 0048 0A44     		add	r2, r2, r1
 3508 004a 02F51062 		add	r2, r2, #2304
 3509 004e 23F08043 		bic	r3, r3, #1073741824
 3510 0052 1360     		str	r3, [r2]
 3511              	.L148:
1015:Drivers/STM32F4xx_HAL_Driver/Src/stm32f4xx_ll_usb.c ****     }
1016:Drivers/STM32F4xx_HAL_Driver/Src/stm32f4xx_ll_usb.c ****     USBx_INEP(epnum)->DIEPCTL |= USB_OTG_DIEPCTL_STALL;
 3512              		.loc 1 1016 31
 3513 0054 BB68     		ldr	r3, [r7, #8]
 3514 0056 5A01     		lsls	r2, r3, #5
 3515 0058 FB68     		ldr	r3, [r7, #12]
 3516 005a 1344     		add	r3, r3, r2
 3517 005c 03F51063 		add	r3, r3, #2304
 3518 0060 1B68     		ldr	r3, [r3]
 3519 0062 BA68     		ldr	r2, [r7, #8]
 3520 0064 5101     		lsls	r1, r2, #5
 3521 0066 FA68     		ldr	r2, [r7, #12]
 3522 0068 0A44     		add	r2, r2, r1
 3523 006a 02F51062 		add	r2, r2, #2304
 3524 006e 43F40013 		orr	r3, r3, #2097152
 3525 0072 1360     		str	r3, [r2]
 3526 0074 2BE0     		b	.L149
 3527              	.L147:
1017:Drivers/STM32F4xx_HAL_Driver/Src/stm32f4xx_ll_usb.c ****   }
1018:Drivers/STM32F4xx_HAL_Driver/Src/stm32f4xx_ll_usb.c ****   else
1019:Drivers/STM32F4xx_HAL_Driver/Src/stm32f4xx_ll_usb.c ****   {
1020:Drivers/STM32F4xx_HAL_Driver/Src/stm32f4xx_ll_usb.c ****     if (((USBx_OUTEP(epnum)->DOEPCTL & USB_OTG_DOEPCTL_EPENA) == 0U) && (epnum != 0U))
 3528              		.loc 1 1020 11
 3529 0076 BB68     		ldr	r3, [r7, #8]
 3530 0078 5A01     		lsls	r2, r3, #5
 3531 007a FB68     		ldr	r3, [r7, #12]
 3532 007c 1344     		add	r3, r3, r2
 3533 007e 03F53063 		add	r3, r3, #2816
 3534              		.loc 1 1020 28
 3535 0082 1B68     		ldr	r3, [r3]
 3536              		.loc 1 1020 8
 3537 0084 002B     		cmp	r3, #0
 3538 0086 12DB     		blt	.L150
 3539              		.loc 1 1020 70 discriminator 1
 3540 0088 BB68     		ldr	r3, [r7, #8]
 3541 008a 002B     		cmp	r3, #0
 3542 008c 0FD0     		beq	.L150
1021:Drivers/STM32F4xx_HAL_Driver/Src/stm32f4xx_ll_usb.c ****     {
1022:Drivers/STM32F4xx_HAL_Driver/Src/stm32f4xx_ll_usb.c ****       USBx_OUTEP(epnum)->DOEPCTL &= ~(USB_OTG_DOEPCTL_EPDIS);
 3543              		.loc 1 1022 34
 3544 008e BB68     		ldr	r3, [r7, #8]
 3545 0090 5A01     		lsls	r2, r3, #5
 3546 0092 FB68     		ldr	r3, [r7, #12]
 3547 0094 1344     		add	r3, r3, r2
 3548 0096 03F53063 		add	r3, r3, #2816
 3549 009a 1B68     		ldr	r3, [r3]
 3550 009c BA68     		ldr	r2, [r7, #8]
 3551 009e 5101     		lsls	r1, r2, #5
 3552 00a0 FA68     		ldr	r2, [r7, #12]
 3553 00a2 0A44     		add	r2, r2, r1
 3554 00a4 02F53062 		add	r2, r2, #2816
 3555 00a8 23F08043 		bic	r3, r3, #1073741824
ARM GAS  /var/folders/vq/qt4vp3kd5rxf7v2b6_fdtdt80000gn/T//ccjOke0W.s 			page 81


 3556 00ac 1360     		str	r3, [r2]
 3557              	.L150:
1023:Drivers/STM32F4xx_HAL_Driver/Src/stm32f4xx_ll_usb.c ****     }
1024:Drivers/STM32F4xx_HAL_Driver/Src/stm32f4xx_ll_usb.c ****     USBx_OUTEP(epnum)->DOEPCTL |= USB_OTG_DOEPCTL_STALL;
 3558              		.loc 1 1024 32
 3559 00ae BB68     		ldr	r3, [r7, #8]
 3560 00b0 5A01     		lsls	r2, r3, #5
 3561 00b2 FB68     		ldr	r3, [r7, #12]
 3562 00b4 1344     		add	r3, r3, r2
 3563 00b6 03F53063 		add	r3, r3, #2816
 3564 00ba 1B68     		ldr	r3, [r3]
 3565 00bc BA68     		ldr	r2, [r7, #8]
 3566 00be 5101     		lsls	r1, r2, #5
 3567 00c0 FA68     		ldr	r2, [r7, #12]
 3568 00c2 0A44     		add	r2, r2, r1
 3569 00c4 02F53062 		add	r2, r2, #2816
 3570 00c8 43F40013 		orr	r3, r3, #2097152
 3571 00cc 1360     		str	r3, [r2]
 3572              	.L149:
1025:Drivers/STM32F4xx_HAL_Driver/Src/stm32f4xx_ll_usb.c ****   }
1026:Drivers/STM32F4xx_HAL_Driver/Src/stm32f4xx_ll_usb.c **** 
1027:Drivers/STM32F4xx_HAL_Driver/Src/stm32f4xx_ll_usb.c ****   return HAL_OK;
 3573              		.loc 1 1027 10
 3574 00ce 0023     		movs	r3, #0
1028:Drivers/STM32F4xx_HAL_Driver/Src/stm32f4xx_ll_usb.c **** }
 3575              		.loc 1 1028 1
 3576 00d0 1846     		mov	r0, r3
 3577 00d2 1437     		adds	r7, r7, #20
 3578              	.LCFI113:
 3579              		.cfi_def_cfa_offset 4
 3580 00d4 BD46     		mov	sp, r7
 3581              	.LCFI114:
 3582              		.cfi_def_cfa_register 13
 3583              		@ sp needed
 3584 00d6 5DF8047B 		ldr	r7, [sp], #4
 3585              	.LCFI115:
 3586              		.cfi_restore 7
 3587              		.cfi_def_cfa_offset 0
 3588 00da 7047     		bx	lr
 3589              		.cfi_endproc
 3590              	.LFE148:
 3592              		.section	.text.USB_EPClearStall,"ax",%progbits
 3593              		.align	1
 3594              		.global	USB_EPClearStall
 3595              		.syntax unified
 3596              		.thumb
 3597              		.thumb_func
 3598              		.fpu fpv4-sp-d16
 3600              	USB_EPClearStall:
 3601              	.LFB149:
1029:Drivers/STM32F4xx_HAL_Driver/Src/stm32f4xx_ll_usb.c **** 
1030:Drivers/STM32F4xx_HAL_Driver/Src/stm32f4xx_ll_usb.c **** /**
1031:Drivers/STM32F4xx_HAL_Driver/Src/stm32f4xx_ll_usb.c ****   * @brief  USB_EPClearStall : Clear a stall condition over an EP
1032:Drivers/STM32F4xx_HAL_Driver/Src/stm32f4xx_ll_usb.c ****   * @param  USBx  Selected device
1033:Drivers/STM32F4xx_HAL_Driver/Src/stm32f4xx_ll_usb.c ****   * @param  ep pointer to endpoint structure
1034:Drivers/STM32F4xx_HAL_Driver/Src/stm32f4xx_ll_usb.c ****   * @retval HAL status
1035:Drivers/STM32F4xx_HAL_Driver/Src/stm32f4xx_ll_usb.c ****   */
ARM GAS  /var/folders/vq/qt4vp3kd5rxf7v2b6_fdtdt80000gn/T//ccjOke0W.s 			page 82


1036:Drivers/STM32F4xx_HAL_Driver/Src/stm32f4xx_ll_usb.c **** HAL_StatusTypeDef USB_EPClearStall(USB_OTG_GlobalTypeDef *USBx, USB_OTG_EPTypeDef *ep)
1037:Drivers/STM32F4xx_HAL_Driver/Src/stm32f4xx_ll_usb.c **** {
 3602              		.loc 1 1037 1
 3603              		.cfi_startproc
 3604              		@ args = 0, pretend = 0, frame = 16
 3605              		@ frame_needed = 1, uses_anonymous_args = 0
 3606              		@ link register save eliminated.
 3607 0000 80B4     		push	{r7}
 3608              	.LCFI116:
 3609              		.cfi_def_cfa_offset 4
 3610              		.cfi_offset 7, -4
 3611 0002 85B0     		sub	sp, sp, #20
 3612              	.LCFI117:
 3613              		.cfi_def_cfa_offset 24
 3614 0004 00AF     		add	r7, sp, #0
 3615              	.LCFI118:
 3616              		.cfi_def_cfa_register 7
 3617 0006 7860     		str	r0, [r7, #4]
 3618 0008 3960     		str	r1, [r7]
1038:Drivers/STM32F4xx_HAL_Driver/Src/stm32f4xx_ll_usb.c ****   uint32_t USBx_BASE = (uint32_t)USBx;
 3619              		.loc 1 1038 12
 3620 000a 7B68     		ldr	r3, [r7, #4]
 3621 000c FB60     		str	r3, [r7, #12]
1039:Drivers/STM32F4xx_HAL_Driver/Src/stm32f4xx_ll_usb.c ****   uint32_t epnum = (uint32_t)ep->num;
 3622              		.loc 1 1039 32
 3623 000e 3B68     		ldr	r3, [r7]
 3624 0010 1B78     		ldrb	r3, [r3]	@ zero_extendqisi2
 3625              		.loc 1 1039 12
 3626 0012 BB60     		str	r3, [r7, #8]
1040:Drivers/STM32F4xx_HAL_Driver/Src/stm32f4xx_ll_usb.c **** 
1041:Drivers/STM32F4xx_HAL_Driver/Src/stm32f4xx_ll_usb.c ****   if (ep->is_in == 1U)
 3627              		.loc 1 1041 9
 3628 0014 3B68     		ldr	r3, [r7]
 3629 0016 5B78     		ldrb	r3, [r3, #1]	@ zero_extendqisi2
 3630              		.loc 1 1041 6
 3631 0018 012B     		cmp	r3, #1
 3632 001a 28D1     		bne	.L153
1042:Drivers/STM32F4xx_HAL_Driver/Src/stm32f4xx_ll_usb.c ****   {
1043:Drivers/STM32F4xx_HAL_Driver/Src/stm32f4xx_ll_usb.c ****     USBx_INEP(epnum)->DIEPCTL &= ~USB_OTG_DIEPCTL_STALL;
 3633              		.loc 1 1043 31
 3634 001c BB68     		ldr	r3, [r7, #8]
 3635 001e 5A01     		lsls	r2, r3, #5
 3636 0020 FB68     		ldr	r3, [r7, #12]
 3637 0022 1344     		add	r3, r3, r2
 3638 0024 03F51063 		add	r3, r3, #2304
 3639 0028 1B68     		ldr	r3, [r3]
 3640 002a BA68     		ldr	r2, [r7, #8]
 3641 002c 5101     		lsls	r1, r2, #5
 3642 002e FA68     		ldr	r2, [r7, #12]
 3643 0030 0A44     		add	r2, r2, r1
 3644 0032 02F51062 		add	r2, r2, #2304
 3645 0036 23F40013 		bic	r3, r3, #2097152
 3646 003a 1360     		str	r3, [r2]
1044:Drivers/STM32F4xx_HAL_Driver/Src/stm32f4xx_ll_usb.c ****     if ((ep->type == EP_TYPE_INTR) || (ep->type == EP_TYPE_BULK))
 3647              		.loc 1 1044 12
 3648 003c 3B68     		ldr	r3, [r7]
 3649 003e DB78     		ldrb	r3, [r3, #3]	@ zero_extendqisi2
ARM GAS  /var/folders/vq/qt4vp3kd5rxf7v2b6_fdtdt80000gn/T//ccjOke0W.s 			page 83


 3650              		.loc 1 1044 8
 3651 0040 032B     		cmp	r3, #3
 3652 0042 03D0     		beq	.L154
 3653              		.loc 1 1044 42 discriminator 1
 3654 0044 3B68     		ldr	r3, [r7]
 3655 0046 DB78     		ldrb	r3, [r3, #3]	@ zero_extendqisi2
 3656              		.loc 1 1044 36 discriminator 1
 3657 0048 022B     		cmp	r3, #2
 3658 004a 38D1     		bne	.L155
 3659              	.L154:
1045:Drivers/STM32F4xx_HAL_Driver/Src/stm32f4xx_ll_usb.c ****     {
1046:Drivers/STM32F4xx_HAL_Driver/Src/stm32f4xx_ll_usb.c ****       USBx_INEP(epnum)->DIEPCTL |= USB_OTG_DIEPCTL_SD0PID_SEVNFRM; /* DATA0 */
 3660              		.loc 1 1046 33
 3661 004c BB68     		ldr	r3, [r7, #8]
 3662 004e 5A01     		lsls	r2, r3, #5
 3663 0050 FB68     		ldr	r3, [r7, #12]
 3664 0052 1344     		add	r3, r3, r2
 3665 0054 03F51063 		add	r3, r3, #2304
 3666 0058 1B68     		ldr	r3, [r3]
 3667 005a BA68     		ldr	r2, [r7, #8]
 3668 005c 5101     		lsls	r1, r2, #5
 3669 005e FA68     		ldr	r2, [r7, #12]
 3670 0060 0A44     		add	r2, r2, r1
 3671 0062 02F51062 		add	r2, r2, #2304
 3672 0066 43F08053 		orr	r3, r3, #268435456
 3673 006a 1360     		str	r3, [r2]
 3674 006c 27E0     		b	.L155
 3675              	.L153:
1047:Drivers/STM32F4xx_HAL_Driver/Src/stm32f4xx_ll_usb.c ****     }
1048:Drivers/STM32F4xx_HAL_Driver/Src/stm32f4xx_ll_usb.c ****   }
1049:Drivers/STM32F4xx_HAL_Driver/Src/stm32f4xx_ll_usb.c ****   else
1050:Drivers/STM32F4xx_HAL_Driver/Src/stm32f4xx_ll_usb.c ****   {
1051:Drivers/STM32F4xx_HAL_Driver/Src/stm32f4xx_ll_usb.c ****     USBx_OUTEP(epnum)->DOEPCTL &= ~USB_OTG_DOEPCTL_STALL;
 3676              		.loc 1 1051 32
 3677 006e BB68     		ldr	r3, [r7, #8]
 3678 0070 5A01     		lsls	r2, r3, #5
 3679 0072 FB68     		ldr	r3, [r7, #12]
 3680 0074 1344     		add	r3, r3, r2
 3681 0076 03F53063 		add	r3, r3, #2816
 3682 007a 1B68     		ldr	r3, [r3]
 3683 007c BA68     		ldr	r2, [r7, #8]
 3684 007e 5101     		lsls	r1, r2, #5
 3685 0080 FA68     		ldr	r2, [r7, #12]
 3686 0082 0A44     		add	r2, r2, r1
 3687 0084 02F53062 		add	r2, r2, #2816
 3688 0088 23F40013 		bic	r3, r3, #2097152
 3689 008c 1360     		str	r3, [r2]
1052:Drivers/STM32F4xx_HAL_Driver/Src/stm32f4xx_ll_usb.c ****     if ((ep->type == EP_TYPE_INTR) || (ep->type == EP_TYPE_BULK))
 3690              		.loc 1 1052 12
 3691 008e 3B68     		ldr	r3, [r7]
 3692 0090 DB78     		ldrb	r3, [r3, #3]	@ zero_extendqisi2
 3693              		.loc 1 1052 8
 3694 0092 032B     		cmp	r3, #3
 3695 0094 03D0     		beq	.L156
 3696              		.loc 1 1052 42 discriminator 1
 3697 0096 3B68     		ldr	r3, [r7]
 3698 0098 DB78     		ldrb	r3, [r3, #3]	@ zero_extendqisi2
ARM GAS  /var/folders/vq/qt4vp3kd5rxf7v2b6_fdtdt80000gn/T//ccjOke0W.s 			page 84


 3699              		.loc 1 1052 36 discriminator 1
 3700 009a 022B     		cmp	r3, #2
 3701 009c 0FD1     		bne	.L155
 3702              	.L156:
1053:Drivers/STM32F4xx_HAL_Driver/Src/stm32f4xx_ll_usb.c ****     {
1054:Drivers/STM32F4xx_HAL_Driver/Src/stm32f4xx_ll_usb.c ****       USBx_OUTEP(epnum)->DOEPCTL |= USB_OTG_DOEPCTL_SD0PID_SEVNFRM; /* DATA0 */
 3703              		.loc 1 1054 34
 3704 009e BB68     		ldr	r3, [r7, #8]
 3705 00a0 5A01     		lsls	r2, r3, #5
 3706 00a2 FB68     		ldr	r3, [r7, #12]
 3707 00a4 1344     		add	r3, r3, r2
 3708 00a6 03F53063 		add	r3, r3, #2816
 3709 00aa 1B68     		ldr	r3, [r3]
 3710 00ac BA68     		ldr	r2, [r7, #8]
 3711 00ae 5101     		lsls	r1, r2, #5
 3712 00b0 FA68     		ldr	r2, [r7, #12]
 3713 00b2 0A44     		add	r2, r2, r1
 3714 00b4 02F53062 		add	r2, r2, #2816
 3715 00b8 43F08053 		orr	r3, r3, #268435456
 3716 00bc 1360     		str	r3, [r2]
 3717              	.L155:
1055:Drivers/STM32F4xx_HAL_Driver/Src/stm32f4xx_ll_usb.c ****     }
1056:Drivers/STM32F4xx_HAL_Driver/Src/stm32f4xx_ll_usb.c ****   }
1057:Drivers/STM32F4xx_HAL_Driver/Src/stm32f4xx_ll_usb.c ****   return HAL_OK;
 3718              		.loc 1 1057 10
 3719 00be 0023     		movs	r3, #0
1058:Drivers/STM32F4xx_HAL_Driver/Src/stm32f4xx_ll_usb.c **** }
 3720              		.loc 1 1058 1
 3721 00c0 1846     		mov	r0, r3
 3722 00c2 1437     		adds	r7, r7, #20
 3723              	.LCFI119:
 3724              		.cfi_def_cfa_offset 4
 3725 00c4 BD46     		mov	sp, r7
 3726              	.LCFI120:
 3727              		.cfi_def_cfa_register 13
 3728              		@ sp needed
 3729 00c6 5DF8047B 		ldr	r7, [sp], #4
 3730              	.LCFI121:
 3731              		.cfi_restore 7
 3732              		.cfi_def_cfa_offset 0
 3733 00ca 7047     		bx	lr
 3734              		.cfi_endproc
 3735              	.LFE149:
 3737              		.section	.text.USB_StopDevice,"ax",%progbits
 3738              		.align	1
 3739              		.global	USB_StopDevice
 3740              		.syntax unified
 3741              		.thumb
 3742              		.thumb_func
 3743              		.fpu fpv4-sp-d16
 3745              	USB_StopDevice:
 3746              	.LFB150:
1059:Drivers/STM32F4xx_HAL_Driver/Src/stm32f4xx_ll_usb.c **** 
1060:Drivers/STM32F4xx_HAL_Driver/Src/stm32f4xx_ll_usb.c **** /**
1061:Drivers/STM32F4xx_HAL_Driver/Src/stm32f4xx_ll_usb.c ****   * @brief  USB_StopDevice : Stop the usb device mode
1062:Drivers/STM32F4xx_HAL_Driver/Src/stm32f4xx_ll_usb.c ****   * @param  USBx  Selected device
1063:Drivers/STM32F4xx_HAL_Driver/Src/stm32f4xx_ll_usb.c ****   * @retval HAL status
ARM GAS  /var/folders/vq/qt4vp3kd5rxf7v2b6_fdtdt80000gn/T//ccjOke0W.s 			page 85


1064:Drivers/STM32F4xx_HAL_Driver/Src/stm32f4xx_ll_usb.c ****   */
1065:Drivers/STM32F4xx_HAL_Driver/Src/stm32f4xx_ll_usb.c **** HAL_StatusTypeDef USB_StopDevice(USB_OTG_GlobalTypeDef *USBx)
1066:Drivers/STM32F4xx_HAL_Driver/Src/stm32f4xx_ll_usb.c **** {
 3747              		.loc 1 1066 1
 3748              		.cfi_startproc
 3749              		@ args = 0, pretend = 0, frame = 24
 3750              		@ frame_needed = 1, uses_anonymous_args = 0
 3751 0000 80B5     		push	{r7, lr}
 3752              	.LCFI122:
 3753              		.cfi_def_cfa_offset 8
 3754              		.cfi_offset 7, -8
 3755              		.cfi_offset 14, -4
 3756 0002 86B0     		sub	sp, sp, #24
 3757              	.LCFI123:
 3758              		.cfi_def_cfa_offset 32
 3759 0004 00AF     		add	r7, sp, #0
 3760              	.LCFI124:
 3761              		.cfi_def_cfa_register 7
 3762 0006 7860     		str	r0, [r7, #4]
1067:Drivers/STM32F4xx_HAL_Driver/Src/stm32f4xx_ll_usb.c ****   HAL_StatusTypeDef ret;
1068:Drivers/STM32F4xx_HAL_Driver/Src/stm32f4xx_ll_usb.c ****   uint32_t USBx_BASE = (uint32_t)USBx;
 3763              		.loc 1 1068 12
 3764 0008 7B68     		ldr	r3, [r7, #4]
 3765 000a 3B61     		str	r3, [r7, #16]
1069:Drivers/STM32F4xx_HAL_Driver/Src/stm32f4xx_ll_usb.c ****   uint32_t i;
1070:Drivers/STM32F4xx_HAL_Driver/Src/stm32f4xx_ll_usb.c **** 
1071:Drivers/STM32F4xx_HAL_Driver/Src/stm32f4xx_ll_usb.c ****   /* Clear Pending interrupt */
1072:Drivers/STM32F4xx_HAL_Driver/Src/stm32f4xx_ll_usb.c ****   for (i = 0U; i < 15U; i++)
 3766              		.loc 1 1072 10
 3767 000c 0023     		movs	r3, #0
 3768 000e 7B61     		str	r3, [r7, #20]
 3769              		.loc 1 1072 3
 3770 0010 16E0     		b	.L159
 3771              	.L160:
1073:Drivers/STM32F4xx_HAL_Driver/Src/stm32f4xx_ll_usb.c ****   {
1074:Drivers/STM32F4xx_HAL_Driver/Src/stm32f4xx_ll_usb.c ****     USBx_INEP(i)->DIEPINT = 0xFB7FU;
 3772              		.loc 1 1074 5 discriminator 3
 3773 0012 7B69     		ldr	r3, [r7, #20]
 3774 0014 5A01     		lsls	r2, r3, #5
 3775 0016 3B69     		ldr	r3, [r7, #16]
 3776 0018 1344     		add	r3, r3, r2
 3777 001a 03F51063 		add	r3, r3, #2304
 3778 001e 1A46     		mov	r2, r3
 3779              		.loc 1 1074 27 discriminator 3
 3780 0020 4FF67F33 		movw	r3, #64383
 3781 0024 9360     		str	r3, [r2, #8]
1075:Drivers/STM32F4xx_HAL_Driver/Src/stm32f4xx_ll_usb.c ****     USBx_OUTEP(i)->DOEPINT = 0xFB7FU;
 3782              		.loc 1 1075 5 discriminator 3
 3783 0026 7B69     		ldr	r3, [r7, #20]
 3784 0028 5A01     		lsls	r2, r3, #5
 3785 002a 3B69     		ldr	r3, [r7, #16]
 3786 002c 1344     		add	r3, r3, r2
 3787 002e 03F53063 		add	r3, r3, #2816
 3788 0032 1A46     		mov	r2, r3
 3789              		.loc 1 1075 28 discriminator 3
 3790 0034 4FF67F33 		movw	r3, #64383
 3791 0038 9360     		str	r3, [r2, #8]
ARM GAS  /var/folders/vq/qt4vp3kd5rxf7v2b6_fdtdt80000gn/T//ccjOke0W.s 			page 86


1072:Drivers/STM32F4xx_HAL_Driver/Src/stm32f4xx_ll_usb.c ****   {
 3792              		.loc 1 1072 26 discriminator 3
 3793 003a 7B69     		ldr	r3, [r7, #20]
 3794 003c 0133     		adds	r3, r3, #1
 3795 003e 7B61     		str	r3, [r7, #20]
 3796              	.L159:
1072:Drivers/STM32F4xx_HAL_Driver/Src/stm32f4xx_ll_usb.c ****   {
 3797              		.loc 1 1072 3 discriminator 1
 3798 0040 7B69     		ldr	r3, [r7, #20]
 3799 0042 0E2B     		cmp	r3, #14
 3800 0044 E5D9     		bls	.L160
1076:Drivers/STM32F4xx_HAL_Driver/Src/stm32f4xx_ll_usb.c ****   }
1077:Drivers/STM32F4xx_HAL_Driver/Src/stm32f4xx_ll_usb.c **** 
1078:Drivers/STM32F4xx_HAL_Driver/Src/stm32f4xx_ll_usb.c ****   /* Clear interrupt masks */
1079:Drivers/STM32F4xx_HAL_Driver/Src/stm32f4xx_ll_usb.c ****   USBx_DEVICE->DIEPMSK  = 0U;
 3801              		.loc 1 1079 3
 3802 0046 3B69     		ldr	r3, [r7, #16]
 3803 0048 03F50063 		add	r3, r3, #2048
 3804 004c 1A46     		mov	r2, r3
 3805              		.loc 1 1079 25
 3806 004e 0023     		movs	r3, #0
 3807 0050 1361     		str	r3, [r2, #16]
1080:Drivers/STM32F4xx_HAL_Driver/Src/stm32f4xx_ll_usb.c ****   USBx_DEVICE->DOEPMSK  = 0U;
 3808              		.loc 1 1080 3
 3809 0052 3B69     		ldr	r3, [r7, #16]
 3810 0054 03F50063 		add	r3, r3, #2048
 3811 0058 1A46     		mov	r2, r3
 3812              		.loc 1 1080 25
 3813 005a 0023     		movs	r3, #0
 3814 005c 5361     		str	r3, [r2, #20]
1081:Drivers/STM32F4xx_HAL_Driver/Src/stm32f4xx_ll_usb.c ****   USBx_DEVICE->DAINTMSK = 0U;
 3815              		.loc 1 1081 3
 3816 005e 3B69     		ldr	r3, [r7, #16]
 3817 0060 03F50063 		add	r3, r3, #2048
 3818 0064 1A46     		mov	r2, r3
 3819              		.loc 1 1081 25
 3820 0066 0023     		movs	r3, #0
 3821 0068 D361     		str	r3, [r2, #28]
1082:Drivers/STM32F4xx_HAL_Driver/Src/stm32f4xx_ll_usb.c **** 
1083:Drivers/STM32F4xx_HAL_Driver/Src/stm32f4xx_ll_usb.c ****   /* Flush the FIFO */
1084:Drivers/STM32F4xx_HAL_Driver/Src/stm32f4xx_ll_usb.c ****   ret = USB_FlushRxFifo(USBx);
 3822              		.loc 1 1084 9
 3823 006a 7868     		ldr	r0, [r7, #4]
 3824 006c FFF7FEFF 		bl	USB_FlushRxFifo
 3825 0070 0346     		mov	r3, r0
 3826 0072 FB73     		strb	r3, [r7, #15]
1085:Drivers/STM32F4xx_HAL_Driver/Src/stm32f4xx_ll_usb.c ****   if (ret != HAL_OK)
 3827              		.loc 1 1085 6
 3828 0074 FB7B     		ldrb	r3, [r7, #15]	@ zero_extendqisi2
 3829 0076 002B     		cmp	r3, #0
 3830 0078 01D0     		beq	.L161
1086:Drivers/STM32F4xx_HAL_Driver/Src/stm32f4xx_ll_usb.c ****   {
1087:Drivers/STM32F4xx_HAL_Driver/Src/stm32f4xx_ll_usb.c ****     return ret;
 3831              		.loc 1 1087 12
 3832 007a FB7B     		ldrb	r3, [r7, #15]	@ zero_extendqisi2
 3833 007c 0BE0     		b	.L162
 3834              	.L161:
ARM GAS  /var/folders/vq/qt4vp3kd5rxf7v2b6_fdtdt80000gn/T//ccjOke0W.s 			page 87


1088:Drivers/STM32F4xx_HAL_Driver/Src/stm32f4xx_ll_usb.c ****   }
1089:Drivers/STM32F4xx_HAL_Driver/Src/stm32f4xx_ll_usb.c **** 
1090:Drivers/STM32F4xx_HAL_Driver/Src/stm32f4xx_ll_usb.c ****   ret = USB_FlushTxFifo(USBx,  0x10U);
 3835              		.loc 1 1090 9
 3836 007e 1021     		movs	r1, #16
 3837 0080 7868     		ldr	r0, [r7, #4]
 3838 0082 FFF7FEFF 		bl	USB_FlushTxFifo
 3839 0086 0346     		mov	r3, r0
 3840 0088 FB73     		strb	r3, [r7, #15]
1091:Drivers/STM32F4xx_HAL_Driver/Src/stm32f4xx_ll_usb.c ****   if (ret != HAL_OK)
 3841              		.loc 1 1091 6
 3842 008a FB7B     		ldrb	r3, [r7, #15]	@ zero_extendqisi2
 3843 008c 002B     		cmp	r3, #0
 3844 008e 01D0     		beq	.L163
1092:Drivers/STM32F4xx_HAL_Driver/Src/stm32f4xx_ll_usb.c ****   {
1093:Drivers/STM32F4xx_HAL_Driver/Src/stm32f4xx_ll_usb.c ****     return ret;
 3845              		.loc 1 1093 12
 3846 0090 FB7B     		ldrb	r3, [r7, #15]	@ zero_extendqisi2
 3847 0092 00E0     		b	.L162
 3848              	.L163:
1094:Drivers/STM32F4xx_HAL_Driver/Src/stm32f4xx_ll_usb.c ****   }
1095:Drivers/STM32F4xx_HAL_Driver/Src/stm32f4xx_ll_usb.c **** 
1096:Drivers/STM32F4xx_HAL_Driver/Src/stm32f4xx_ll_usb.c ****   return ret;
 3849              		.loc 1 1096 10
 3850 0094 FB7B     		ldrb	r3, [r7, #15]	@ zero_extendqisi2
 3851              	.L162:
1097:Drivers/STM32F4xx_HAL_Driver/Src/stm32f4xx_ll_usb.c **** }
 3852              		.loc 1 1097 1
 3853 0096 1846     		mov	r0, r3
 3854 0098 1837     		adds	r7, r7, #24
 3855              	.LCFI125:
 3856              		.cfi_def_cfa_offset 8
 3857 009a BD46     		mov	sp, r7
 3858              	.LCFI126:
 3859              		.cfi_def_cfa_register 13
 3860              		@ sp needed
 3861 009c 80BD     		pop	{r7, pc}
 3862              		.cfi_endproc
 3863              	.LFE150:
 3865              		.section	.text.USB_SetDevAddress,"ax",%progbits
 3866              		.align	1
 3867              		.global	USB_SetDevAddress
 3868              		.syntax unified
 3869              		.thumb
 3870              		.thumb_func
 3871              		.fpu fpv4-sp-d16
 3873              	USB_SetDevAddress:
 3874              	.LFB151:
1098:Drivers/STM32F4xx_HAL_Driver/Src/stm32f4xx_ll_usb.c **** 
1099:Drivers/STM32F4xx_HAL_Driver/Src/stm32f4xx_ll_usb.c **** /**
1100:Drivers/STM32F4xx_HAL_Driver/Src/stm32f4xx_ll_usb.c ****   * @brief  USB_SetDevAddress : Stop the usb device mode
1101:Drivers/STM32F4xx_HAL_Driver/Src/stm32f4xx_ll_usb.c ****   * @param  USBx  Selected device
1102:Drivers/STM32F4xx_HAL_Driver/Src/stm32f4xx_ll_usb.c ****   * @param  address  new device address to be assigned
1103:Drivers/STM32F4xx_HAL_Driver/Src/stm32f4xx_ll_usb.c ****   *          This parameter can be a value from 0 to 255
1104:Drivers/STM32F4xx_HAL_Driver/Src/stm32f4xx_ll_usb.c ****   * @retval HAL status
1105:Drivers/STM32F4xx_HAL_Driver/Src/stm32f4xx_ll_usb.c ****   */
1106:Drivers/STM32F4xx_HAL_Driver/Src/stm32f4xx_ll_usb.c **** HAL_StatusTypeDef  USB_SetDevAddress(USB_OTG_GlobalTypeDef *USBx, uint8_t address)
ARM GAS  /var/folders/vq/qt4vp3kd5rxf7v2b6_fdtdt80000gn/T//ccjOke0W.s 			page 88


1107:Drivers/STM32F4xx_HAL_Driver/Src/stm32f4xx_ll_usb.c **** {
 3875              		.loc 1 1107 1
 3876              		.cfi_startproc
 3877              		@ args = 0, pretend = 0, frame = 16
 3878              		@ frame_needed = 1, uses_anonymous_args = 0
 3879              		@ link register save eliminated.
 3880 0000 80B4     		push	{r7}
 3881              	.LCFI127:
 3882              		.cfi_def_cfa_offset 4
 3883              		.cfi_offset 7, -4
 3884 0002 85B0     		sub	sp, sp, #20
 3885              	.LCFI128:
 3886              		.cfi_def_cfa_offset 24
 3887 0004 00AF     		add	r7, sp, #0
 3888              	.LCFI129:
 3889              		.cfi_def_cfa_register 7
 3890 0006 7860     		str	r0, [r7, #4]
 3891 0008 0B46     		mov	r3, r1
 3892 000a FB70     		strb	r3, [r7, #3]
1108:Drivers/STM32F4xx_HAL_Driver/Src/stm32f4xx_ll_usb.c ****   uint32_t USBx_BASE = (uint32_t)USBx;
 3893              		.loc 1 1108 12
 3894 000c 7B68     		ldr	r3, [r7, #4]
 3895 000e FB60     		str	r3, [r7, #12]
1109:Drivers/STM32F4xx_HAL_Driver/Src/stm32f4xx_ll_usb.c **** 
1110:Drivers/STM32F4xx_HAL_Driver/Src/stm32f4xx_ll_usb.c ****   USBx_DEVICE->DCFG &= ~(USB_OTG_DCFG_DAD);
 3896              		.loc 1 1110 21
 3897 0010 FB68     		ldr	r3, [r7, #12]
 3898 0012 03F50063 		add	r3, r3, #2048
 3899 0016 1B68     		ldr	r3, [r3]
 3900 0018 FA68     		ldr	r2, [r7, #12]
 3901 001a 02F50062 		add	r2, r2, #2048
 3902 001e 23F4FE63 		bic	r3, r3, #2032
 3903 0022 1360     		str	r3, [r2]
1111:Drivers/STM32F4xx_HAL_Driver/Src/stm32f4xx_ll_usb.c ****   USBx_DEVICE->DCFG |= ((uint32_t)address << 4) & USB_OTG_DCFG_DAD;
 3904              		.loc 1 1111 21
 3905 0024 FB68     		ldr	r3, [r7, #12]
 3906 0026 03F50063 		add	r3, r3, #2048
 3907 002a 1A68     		ldr	r2, [r3]
 3908              		.loc 1 1111 25
 3909 002c FB78     		ldrb	r3, [r7, #3]	@ zero_extendqisi2
 3910              		.loc 1 1111 43
 3911 002e 1B01     		lsls	r3, r3, #4
 3912              		.loc 1 1111 49
 3913 0030 03F4FE63 		and	r3, r3, #2032
 3914              		.loc 1 1111 21
 3915 0034 F968     		ldr	r1, [r7, #12]
 3916 0036 01F50061 		add	r1, r1, #2048
 3917 003a 1343     		orrs	r3, r3, r2
 3918 003c 0B60     		str	r3, [r1]
1112:Drivers/STM32F4xx_HAL_Driver/Src/stm32f4xx_ll_usb.c **** 
1113:Drivers/STM32F4xx_HAL_Driver/Src/stm32f4xx_ll_usb.c ****   return HAL_OK;
 3919              		.loc 1 1113 10
 3920 003e 0023     		movs	r3, #0
1114:Drivers/STM32F4xx_HAL_Driver/Src/stm32f4xx_ll_usb.c **** }
 3921              		.loc 1 1114 1
 3922 0040 1846     		mov	r0, r3
 3923 0042 1437     		adds	r7, r7, #20
ARM GAS  /var/folders/vq/qt4vp3kd5rxf7v2b6_fdtdt80000gn/T//ccjOke0W.s 			page 89


 3924              	.LCFI130:
 3925              		.cfi_def_cfa_offset 4
 3926 0044 BD46     		mov	sp, r7
 3927              	.LCFI131:
 3928              		.cfi_def_cfa_register 13
 3929              		@ sp needed
 3930 0046 5DF8047B 		ldr	r7, [sp], #4
 3931              	.LCFI132:
 3932              		.cfi_restore 7
 3933              		.cfi_def_cfa_offset 0
 3934 004a 7047     		bx	lr
 3935              		.cfi_endproc
 3936              	.LFE151:
 3938              		.section	.text.USB_DevConnect,"ax",%progbits
 3939              		.align	1
 3940              		.global	USB_DevConnect
 3941              		.syntax unified
 3942              		.thumb
 3943              		.thumb_func
 3944              		.fpu fpv4-sp-d16
 3946              	USB_DevConnect:
 3947              	.LFB152:
1115:Drivers/STM32F4xx_HAL_Driver/Src/stm32f4xx_ll_usb.c **** 
1116:Drivers/STM32F4xx_HAL_Driver/Src/stm32f4xx_ll_usb.c **** /**
1117:Drivers/STM32F4xx_HAL_Driver/Src/stm32f4xx_ll_usb.c ****   * @brief  USB_DevConnect : Connect the USB device by enabling Rpu
1118:Drivers/STM32F4xx_HAL_Driver/Src/stm32f4xx_ll_usb.c ****   * @param  USBx  Selected device
1119:Drivers/STM32F4xx_HAL_Driver/Src/stm32f4xx_ll_usb.c ****   * @retval HAL status
1120:Drivers/STM32F4xx_HAL_Driver/Src/stm32f4xx_ll_usb.c ****   */
1121:Drivers/STM32F4xx_HAL_Driver/Src/stm32f4xx_ll_usb.c **** HAL_StatusTypeDef  USB_DevConnect(USB_OTG_GlobalTypeDef *USBx)
1122:Drivers/STM32F4xx_HAL_Driver/Src/stm32f4xx_ll_usb.c **** {
 3948              		.loc 1 1122 1
 3949              		.cfi_startproc
 3950              		@ args = 0, pretend = 0, frame = 16
 3951              		@ frame_needed = 1, uses_anonymous_args = 0
 3952              		@ link register save eliminated.
 3953 0000 80B4     		push	{r7}
 3954              	.LCFI133:
 3955              		.cfi_def_cfa_offset 4
 3956              		.cfi_offset 7, -4
 3957 0002 85B0     		sub	sp, sp, #20
 3958              	.LCFI134:
 3959              		.cfi_def_cfa_offset 24
 3960 0004 00AF     		add	r7, sp, #0
 3961              	.LCFI135:
 3962              		.cfi_def_cfa_register 7
 3963 0006 7860     		str	r0, [r7, #4]
1123:Drivers/STM32F4xx_HAL_Driver/Src/stm32f4xx_ll_usb.c ****   uint32_t USBx_BASE = (uint32_t)USBx;
 3964              		.loc 1 1123 12
 3965 0008 7B68     		ldr	r3, [r7, #4]
 3966 000a FB60     		str	r3, [r7, #12]
1124:Drivers/STM32F4xx_HAL_Driver/Src/stm32f4xx_ll_usb.c **** 
1125:Drivers/STM32F4xx_HAL_Driver/Src/stm32f4xx_ll_usb.c ****   /* In case phy is stopped, ensure to ungate and restore the phy CLK */
1126:Drivers/STM32F4xx_HAL_Driver/Src/stm32f4xx_ll_usb.c ****   USBx_PCGCCTL &= ~(USB_OTG_PCGCCTL_STOPCLK | USB_OTG_PCGCCTL_GATECLK);
 3967              		.loc 1 1126 16
 3968 000c FB68     		ldr	r3, [r7, #12]
 3969 000e 03F56063 		add	r3, r3, #3584
 3970 0012 1B68     		ldr	r3, [r3]
ARM GAS  /var/folders/vq/qt4vp3kd5rxf7v2b6_fdtdt80000gn/T//ccjOke0W.s 			page 90


 3971 0014 FA68     		ldr	r2, [r7, #12]
 3972 0016 02F56062 		add	r2, r2, #3584
 3973 001a 23F00303 		bic	r3, r3, #3
 3974 001e 1360     		str	r3, [r2]
1127:Drivers/STM32F4xx_HAL_Driver/Src/stm32f4xx_ll_usb.c **** 
1128:Drivers/STM32F4xx_HAL_Driver/Src/stm32f4xx_ll_usb.c ****   USBx_DEVICE->DCTL &= ~USB_OTG_DCTL_SDIS;
 3975              		.loc 1 1128 21
 3976 0020 FB68     		ldr	r3, [r7, #12]
 3977 0022 03F50063 		add	r3, r3, #2048
 3978 0026 5B68     		ldr	r3, [r3, #4]
 3979 0028 FA68     		ldr	r2, [r7, #12]
 3980 002a 02F50062 		add	r2, r2, #2048
 3981 002e 23F00203 		bic	r3, r3, #2
 3982 0032 5360     		str	r3, [r2, #4]
1129:Drivers/STM32F4xx_HAL_Driver/Src/stm32f4xx_ll_usb.c **** 
1130:Drivers/STM32F4xx_HAL_Driver/Src/stm32f4xx_ll_usb.c ****   return HAL_OK;
 3983              		.loc 1 1130 10
 3984 0034 0023     		movs	r3, #0
1131:Drivers/STM32F4xx_HAL_Driver/Src/stm32f4xx_ll_usb.c **** }
 3985              		.loc 1 1131 1
 3986 0036 1846     		mov	r0, r3
 3987 0038 1437     		adds	r7, r7, #20
 3988              	.LCFI136:
 3989              		.cfi_def_cfa_offset 4
 3990 003a BD46     		mov	sp, r7
 3991              	.LCFI137:
 3992              		.cfi_def_cfa_register 13
 3993              		@ sp needed
 3994 003c 5DF8047B 		ldr	r7, [sp], #4
 3995              	.LCFI138:
 3996              		.cfi_restore 7
 3997              		.cfi_def_cfa_offset 0
 3998 0040 7047     		bx	lr
 3999              		.cfi_endproc
 4000              	.LFE152:
 4002              		.section	.text.USB_DevDisconnect,"ax",%progbits
 4003              		.align	1
 4004              		.global	USB_DevDisconnect
 4005              		.syntax unified
 4006              		.thumb
 4007              		.thumb_func
 4008              		.fpu fpv4-sp-d16
 4010              	USB_DevDisconnect:
 4011              	.LFB153:
1132:Drivers/STM32F4xx_HAL_Driver/Src/stm32f4xx_ll_usb.c **** 
1133:Drivers/STM32F4xx_HAL_Driver/Src/stm32f4xx_ll_usb.c **** /**
1134:Drivers/STM32F4xx_HAL_Driver/Src/stm32f4xx_ll_usb.c ****   * @brief  USB_DevDisconnect : Disconnect the USB device by disabling Rpu
1135:Drivers/STM32F4xx_HAL_Driver/Src/stm32f4xx_ll_usb.c ****   * @param  USBx  Selected device
1136:Drivers/STM32F4xx_HAL_Driver/Src/stm32f4xx_ll_usb.c ****   * @retval HAL status
1137:Drivers/STM32F4xx_HAL_Driver/Src/stm32f4xx_ll_usb.c ****   */
1138:Drivers/STM32F4xx_HAL_Driver/Src/stm32f4xx_ll_usb.c **** HAL_StatusTypeDef  USB_DevDisconnect(USB_OTG_GlobalTypeDef *USBx)
1139:Drivers/STM32F4xx_HAL_Driver/Src/stm32f4xx_ll_usb.c **** {
 4012              		.loc 1 1139 1
 4013              		.cfi_startproc
 4014              		@ args = 0, pretend = 0, frame = 16
 4015              		@ frame_needed = 1, uses_anonymous_args = 0
 4016              		@ link register save eliminated.
ARM GAS  /var/folders/vq/qt4vp3kd5rxf7v2b6_fdtdt80000gn/T//ccjOke0W.s 			page 91


 4017 0000 80B4     		push	{r7}
 4018              	.LCFI139:
 4019              		.cfi_def_cfa_offset 4
 4020              		.cfi_offset 7, -4
 4021 0002 85B0     		sub	sp, sp, #20
 4022              	.LCFI140:
 4023              		.cfi_def_cfa_offset 24
 4024 0004 00AF     		add	r7, sp, #0
 4025              	.LCFI141:
 4026              		.cfi_def_cfa_register 7
 4027 0006 7860     		str	r0, [r7, #4]
1140:Drivers/STM32F4xx_HAL_Driver/Src/stm32f4xx_ll_usb.c ****   uint32_t USBx_BASE = (uint32_t)USBx;
 4028              		.loc 1 1140 12
 4029 0008 7B68     		ldr	r3, [r7, #4]
 4030 000a FB60     		str	r3, [r7, #12]
1141:Drivers/STM32F4xx_HAL_Driver/Src/stm32f4xx_ll_usb.c **** 
1142:Drivers/STM32F4xx_HAL_Driver/Src/stm32f4xx_ll_usb.c ****   /* In case phy is stopped, ensure to ungate and restore the phy CLK */
1143:Drivers/STM32F4xx_HAL_Driver/Src/stm32f4xx_ll_usb.c ****   USBx_PCGCCTL &= ~(USB_OTG_PCGCCTL_STOPCLK | USB_OTG_PCGCCTL_GATECLK);
 4031              		.loc 1 1143 16
 4032 000c FB68     		ldr	r3, [r7, #12]
 4033 000e 03F56063 		add	r3, r3, #3584
 4034 0012 1B68     		ldr	r3, [r3]
 4035 0014 FA68     		ldr	r2, [r7, #12]
 4036 0016 02F56062 		add	r2, r2, #3584
 4037 001a 23F00303 		bic	r3, r3, #3
 4038 001e 1360     		str	r3, [r2]
1144:Drivers/STM32F4xx_HAL_Driver/Src/stm32f4xx_ll_usb.c **** 
1145:Drivers/STM32F4xx_HAL_Driver/Src/stm32f4xx_ll_usb.c ****   USBx_DEVICE->DCTL |= USB_OTG_DCTL_SDIS;
 4039              		.loc 1 1145 21
 4040 0020 FB68     		ldr	r3, [r7, #12]
 4041 0022 03F50063 		add	r3, r3, #2048
 4042 0026 5B68     		ldr	r3, [r3, #4]
 4043 0028 FA68     		ldr	r2, [r7, #12]
 4044 002a 02F50062 		add	r2, r2, #2048
 4045 002e 43F00203 		orr	r3, r3, #2
 4046 0032 5360     		str	r3, [r2, #4]
1146:Drivers/STM32F4xx_HAL_Driver/Src/stm32f4xx_ll_usb.c **** 
1147:Drivers/STM32F4xx_HAL_Driver/Src/stm32f4xx_ll_usb.c ****   return HAL_OK;
 4047              		.loc 1 1147 10
 4048 0034 0023     		movs	r3, #0
1148:Drivers/STM32F4xx_HAL_Driver/Src/stm32f4xx_ll_usb.c **** }
 4049              		.loc 1 1148 1
 4050 0036 1846     		mov	r0, r3
 4051 0038 1437     		adds	r7, r7, #20
 4052              	.LCFI142:
 4053              		.cfi_def_cfa_offset 4
 4054 003a BD46     		mov	sp, r7
 4055              	.LCFI143:
 4056              		.cfi_def_cfa_register 13
 4057              		@ sp needed
 4058 003c 5DF8047B 		ldr	r7, [sp], #4
 4059              	.LCFI144:
 4060              		.cfi_restore 7
 4061              		.cfi_def_cfa_offset 0
 4062 0040 7047     		bx	lr
 4063              		.cfi_endproc
 4064              	.LFE153:
ARM GAS  /var/folders/vq/qt4vp3kd5rxf7v2b6_fdtdt80000gn/T//ccjOke0W.s 			page 92


 4066              		.section	.text.USB_ReadInterrupts,"ax",%progbits
 4067              		.align	1
 4068              		.global	USB_ReadInterrupts
 4069              		.syntax unified
 4070              		.thumb
 4071              		.thumb_func
 4072              		.fpu fpv4-sp-d16
 4074              	USB_ReadInterrupts:
 4075              	.LFB154:
1149:Drivers/STM32F4xx_HAL_Driver/Src/stm32f4xx_ll_usb.c **** 
1150:Drivers/STM32F4xx_HAL_Driver/Src/stm32f4xx_ll_usb.c **** /**
1151:Drivers/STM32F4xx_HAL_Driver/Src/stm32f4xx_ll_usb.c ****   * @brief  USB_ReadInterrupts: return the global USB interrupt status
1152:Drivers/STM32F4xx_HAL_Driver/Src/stm32f4xx_ll_usb.c ****   * @param  USBx  Selected device
1153:Drivers/STM32F4xx_HAL_Driver/Src/stm32f4xx_ll_usb.c ****   * @retval HAL status
1154:Drivers/STM32F4xx_HAL_Driver/Src/stm32f4xx_ll_usb.c ****   */
1155:Drivers/STM32F4xx_HAL_Driver/Src/stm32f4xx_ll_usb.c **** uint32_t  USB_ReadInterrupts(USB_OTG_GlobalTypeDef *USBx)
1156:Drivers/STM32F4xx_HAL_Driver/Src/stm32f4xx_ll_usb.c **** {
 4076              		.loc 1 1156 1
 4077              		.cfi_startproc
 4078              		@ args = 0, pretend = 0, frame = 16
 4079              		@ frame_needed = 1, uses_anonymous_args = 0
 4080              		@ link register save eliminated.
 4081 0000 80B4     		push	{r7}
 4082              	.LCFI145:
 4083              		.cfi_def_cfa_offset 4
 4084              		.cfi_offset 7, -4
 4085 0002 85B0     		sub	sp, sp, #20
 4086              	.LCFI146:
 4087              		.cfi_def_cfa_offset 24
 4088 0004 00AF     		add	r7, sp, #0
 4089              	.LCFI147:
 4090              		.cfi_def_cfa_register 7
 4091 0006 7860     		str	r0, [r7, #4]
1157:Drivers/STM32F4xx_HAL_Driver/Src/stm32f4xx_ll_usb.c ****   uint32_t tmpreg;
1158:Drivers/STM32F4xx_HAL_Driver/Src/stm32f4xx_ll_usb.c **** 
1159:Drivers/STM32F4xx_HAL_Driver/Src/stm32f4xx_ll_usb.c ****   tmpreg = USBx->GINTSTS;
 4092              		.loc 1 1159 10
 4093 0008 7B68     		ldr	r3, [r7, #4]
 4094 000a 5B69     		ldr	r3, [r3, #20]
 4095 000c FB60     		str	r3, [r7, #12]
1160:Drivers/STM32F4xx_HAL_Driver/Src/stm32f4xx_ll_usb.c ****   tmpreg &= USBx->GINTMSK;
 4096              		.loc 1 1160 17
 4097 000e 7B68     		ldr	r3, [r7, #4]
 4098 0010 9B69     		ldr	r3, [r3, #24]
 4099              		.loc 1 1160 10
 4100 0012 FA68     		ldr	r2, [r7, #12]
 4101 0014 1340     		ands	r3, r3, r2
 4102 0016 FB60     		str	r3, [r7, #12]
1161:Drivers/STM32F4xx_HAL_Driver/Src/stm32f4xx_ll_usb.c **** 
1162:Drivers/STM32F4xx_HAL_Driver/Src/stm32f4xx_ll_usb.c ****   return tmpreg;
 4103              		.loc 1 1162 10
 4104 0018 FB68     		ldr	r3, [r7, #12]
1163:Drivers/STM32F4xx_HAL_Driver/Src/stm32f4xx_ll_usb.c **** }
 4105              		.loc 1 1163 1
 4106 001a 1846     		mov	r0, r3
 4107 001c 1437     		adds	r7, r7, #20
 4108              	.LCFI148:
ARM GAS  /var/folders/vq/qt4vp3kd5rxf7v2b6_fdtdt80000gn/T//ccjOke0W.s 			page 93


 4109              		.cfi_def_cfa_offset 4
 4110 001e BD46     		mov	sp, r7
 4111              	.LCFI149:
 4112              		.cfi_def_cfa_register 13
 4113              		@ sp needed
 4114 0020 5DF8047B 		ldr	r7, [sp], #4
 4115              	.LCFI150:
 4116              		.cfi_restore 7
 4117              		.cfi_def_cfa_offset 0
 4118 0024 7047     		bx	lr
 4119              		.cfi_endproc
 4120              	.LFE154:
 4122              		.section	.text.USB_ReadDevAllOutEpInterrupt,"ax",%progbits
 4123              		.align	1
 4124              		.global	USB_ReadDevAllOutEpInterrupt
 4125              		.syntax unified
 4126              		.thumb
 4127              		.thumb_func
 4128              		.fpu fpv4-sp-d16
 4130              	USB_ReadDevAllOutEpInterrupt:
 4131              	.LFB155:
1164:Drivers/STM32F4xx_HAL_Driver/Src/stm32f4xx_ll_usb.c **** 
1165:Drivers/STM32F4xx_HAL_Driver/Src/stm32f4xx_ll_usb.c **** /**
1166:Drivers/STM32F4xx_HAL_Driver/Src/stm32f4xx_ll_usb.c ****   * @brief  USB_ReadDevAllOutEpInterrupt: return the USB device OUT endpoints interrupt status
1167:Drivers/STM32F4xx_HAL_Driver/Src/stm32f4xx_ll_usb.c ****   * @param  USBx  Selected device
1168:Drivers/STM32F4xx_HAL_Driver/Src/stm32f4xx_ll_usb.c ****   * @retval HAL status
1169:Drivers/STM32F4xx_HAL_Driver/Src/stm32f4xx_ll_usb.c ****   */
1170:Drivers/STM32F4xx_HAL_Driver/Src/stm32f4xx_ll_usb.c **** uint32_t USB_ReadDevAllOutEpInterrupt(USB_OTG_GlobalTypeDef *USBx)
1171:Drivers/STM32F4xx_HAL_Driver/Src/stm32f4xx_ll_usb.c **** {
 4132              		.loc 1 1171 1
 4133              		.cfi_startproc
 4134              		@ args = 0, pretend = 0, frame = 16
 4135              		@ frame_needed = 1, uses_anonymous_args = 0
 4136              		@ link register save eliminated.
 4137 0000 80B4     		push	{r7}
 4138              	.LCFI151:
 4139              		.cfi_def_cfa_offset 4
 4140              		.cfi_offset 7, -4
 4141 0002 85B0     		sub	sp, sp, #20
 4142              	.LCFI152:
 4143              		.cfi_def_cfa_offset 24
 4144 0004 00AF     		add	r7, sp, #0
 4145              	.LCFI153:
 4146              		.cfi_def_cfa_register 7
 4147 0006 7860     		str	r0, [r7, #4]
1172:Drivers/STM32F4xx_HAL_Driver/Src/stm32f4xx_ll_usb.c ****   uint32_t USBx_BASE = (uint32_t)USBx;
 4148              		.loc 1 1172 12
 4149 0008 7B68     		ldr	r3, [r7, #4]
 4150 000a FB60     		str	r3, [r7, #12]
1173:Drivers/STM32F4xx_HAL_Driver/Src/stm32f4xx_ll_usb.c ****   uint32_t tmpreg;
1174:Drivers/STM32F4xx_HAL_Driver/Src/stm32f4xx_ll_usb.c **** 
1175:Drivers/STM32F4xx_HAL_Driver/Src/stm32f4xx_ll_usb.c ****   tmpreg  = USBx_DEVICE->DAINT;
 4151              		.loc 1 1175 13
 4152 000c FB68     		ldr	r3, [r7, #12]
 4153 000e 03F50063 		add	r3, r3, #2048
 4154              		.loc 1 1175 11
 4155 0012 9B69     		ldr	r3, [r3, #24]
ARM GAS  /var/folders/vq/qt4vp3kd5rxf7v2b6_fdtdt80000gn/T//ccjOke0W.s 			page 94


 4156 0014 BB60     		str	r3, [r7, #8]
1176:Drivers/STM32F4xx_HAL_Driver/Src/stm32f4xx_ll_usb.c ****   tmpreg &= USBx_DEVICE->DAINTMSK;
 4157              		.loc 1 1176 13
 4158 0016 FB68     		ldr	r3, [r7, #12]
 4159 0018 03F50063 		add	r3, r3, #2048
 4160              		.loc 1 1176 24
 4161 001c DB69     		ldr	r3, [r3, #28]
 4162              		.loc 1 1176 10
 4163 001e BA68     		ldr	r2, [r7, #8]
 4164 0020 1340     		ands	r3, r3, r2
 4165 0022 BB60     		str	r3, [r7, #8]
1177:Drivers/STM32F4xx_HAL_Driver/Src/stm32f4xx_ll_usb.c **** 
1178:Drivers/STM32F4xx_HAL_Driver/Src/stm32f4xx_ll_usb.c ****   return ((tmpreg & 0xffff0000U) >> 16);
 4166              		.loc 1 1178 34
 4167 0024 BB68     		ldr	r3, [r7, #8]
 4168 0026 1B0C     		lsrs	r3, r3, #16
1179:Drivers/STM32F4xx_HAL_Driver/Src/stm32f4xx_ll_usb.c **** }
 4169              		.loc 1 1179 1
 4170 0028 1846     		mov	r0, r3
 4171 002a 1437     		adds	r7, r7, #20
 4172              	.LCFI154:
 4173              		.cfi_def_cfa_offset 4
 4174 002c BD46     		mov	sp, r7
 4175              	.LCFI155:
 4176              		.cfi_def_cfa_register 13
 4177              		@ sp needed
 4178 002e 5DF8047B 		ldr	r7, [sp], #4
 4179              	.LCFI156:
 4180              		.cfi_restore 7
 4181              		.cfi_def_cfa_offset 0
 4182 0032 7047     		bx	lr
 4183              		.cfi_endproc
 4184              	.LFE155:
 4186              		.section	.text.USB_ReadDevAllInEpInterrupt,"ax",%progbits
 4187              		.align	1
 4188              		.global	USB_ReadDevAllInEpInterrupt
 4189              		.syntax unified
 4190              		.thumb
 4191              		.thumb_func
 4192              		.fpu fpv4-sp-d16
 4194              	USB_ReadDevAllInEpInterrupt:
 4195              	.LFB156:
1180:Drivers/STM32F4xx_HAL_Driver/Src/stm32f4xx_ll_usb.c **** 
1181:Drivers/STM32F4xx_HAL_Driver/Src/stm32f4xx_ll_usb.c **** /**
1182:Drivers/STM32F4xx_HAL_Driver/Src/stm32f4xx_ll_usb.c ****   * @brief  USB_ReadDevAllInEpInterrupt: return the USB device IN endpoints interrupt status
1183:Drivers/STM32F4xx_HAL_Driver/Src/stm32f4xx_ll_usb.c ****   * @param  USBx  Selected device
1184:Drivers/STM32F4xx_HAL_Driver/Src/stm32f4xx_ll_usb.c ****   * @retval HAL status
1185:Drivers/STM32F4xx_HAL_Driver/Src/stm32f4xx_ll_usb.c ****   */
1186:Drivers/STM32F4xx_HAL_Driver/Src/stm32f4xx_ll_usb.c **** uint32_t USB_ReadDevAllInEpInterrupt(USB_OTG_GlobalTypeDef *USBx)
1187:Drivers/STM32F4xx_HAL_Driver/Src/stm32f4xx_ll_usb.c **** {
 4196              		.loc 1 1187 1
 4197              		.cfi_startproc
 4198              		@ args = 0, pretend = 0, frame = 16
 4199              		@ frame_needed = 1, uses_anonymous_args = 0
 4200              		@ link register save eliminated.
 4201 0000 80B4     		push	{r7}
 4202              	.LCFI157:
ARM GAS  /var/folders/vq/qt4vp3kd5rxf7v2b6_fdtdt80000gn/T//ccjOke0W.s 			page 95


 4203              		.cfi_def_cfa_offset 4
 4204              		.cfi_offset 7, -4
 4205 0002 85B0     		sub	sp, sp, #20
 4206              	.LCFI158:
 4207              		.cfi_def_cfa_offset 24
 4208 0004 00AF     		add	r7, sp, #0
 4209              	.LCFI159:
 4210              		.cfi_def_cfa_register 7
 4211 0006 7860     		str	r0, [r7, #4]
1188:Drivers/STM32F4xx_HAL_Driver/Src/stm32f4xx_ll_usb.c ****   uint32_t USBx_BASE = (uint32_t)USBx;
 4212              		.loc 1 1188 12
 4213 0008 7B68     		ldr	r3, [r7, #4]
 4214 000a FB60     		str	r3, [r7, #12]
1189:Drivers/STM32F4xx_HAL_Driver/Src/stm32f4xx_ll_usb.c ****   uint32_t tmpreg;
1190:Drivers/STM32F4xx_HAL_Driver/Src/stm32f4xx_ll_usb.c **** 
1191:Drivers/STM32F4xx_HAL_Driver/Src/stm32f4xx_ll_usb.c ****   tmpreg  = USBx_DEVICE->DAINT;
 4215              		.loc 1 1191 13
 4216 000c FB68     		ldr	r3, [r7, #12]
 4217 000e 03F50063 		add	r3, r3, #2048
 4218              		.loc 1 1191 11
 4219 0012 9B69     		ldr	r3, [r3, #24]
 4220 0014 BB60     		str	r3, [r7, #8]
1192:Drivers/STM32F4xx_HAL_Driver/Src/stm32f4xx_ll_usb.c ****   tmpreg &= USBx_DEVICE->DAINTMSK;
 4221              		.loc 1 1192 13
 4222 0016 FB68     		ldr	r3, [r7, #12]
 4223 0018 03F50063 		add	r3, r3, #2048
 4224              		.loc 1 1192 24
 4225 001c DB69     		ldr	r3, [r3, #28]
 4226              		.loc 1 1192 10
 4227 001e BA68     		ldr	r2, [r7, #8]
 4228 0020 1340     		ands	r3, r3, r2
 4229 0022 BB60     		str	r3, [r7, #8]
1193:Drivers/STM32F4xx_HAL_Driver/Src/stm32f4xx_ll_usb.c **** 
1194:Drivers/STM32F4xx_HAL_Driver/Src/stm32f4xx_ll_usb.c ****   return ((tmpreg & 0xFFFFU));
 4230              		.loc 1 1194 19
 4231 0024 BB68     		ldr	r3, [r7, #8]
 4232 0026 9BB2     		uxth	r3, r3
1195:Drivers/STM32F4xx_HAL_Driver/Src/stm32f4xx_ll_usb.c **** }
 4233              		.loc 1 1195 1
 4234 0028 1846     		mov	r0, r3
 4235 002a 1437     		adds	r7, r7, #20
 4236              	.LCFI160:
 4237              		.cfi_def_cfa_offset 4
 4238 002c BD46     		mov	sp, r7
 4239              	.LCFI161:
 4240              		.cfi_def_cfa_register 13
 4241              		@ sp needed
 4242 002e 5DF8047B 		ldr	r7, [sp], #4
 4243              	.LCFI162:
 4244              		.cfi_restore 7
 4245              		.cfi_def_cfa_offset 0
 4246 0032 7047     		bx	lr
 4247              		.cfi_endproc
 4248              	.LFE156:
 4250              		.section	.text.USB_ReadDevOutEPInterrupt,"ax",%progbits
 4251              		.align	1
 4252              		.global	USB_ReadDevOutEPInterrupt
ARM GAS  /var/folders/vq/qt4vp3kd5rxf7v2b6_fdtdt80000gn/T//ccjOke0W.s 			page 96


 4253              		.syntax unified
 4254              		.thumb
 4255              		.thumb_func
 4256              		.fpu fpv4-sp-d16
 4258              	USB_ReadDevOutEPInterrupt:
 4259              	.LFB157:
1196:Drivers/STM32F4xx_HAL_Driver/Src/stm32f4xx_ll_usb.c **** 
1197:Drivers/STM32F4xx_HAL_Driver/Src/stm32f4xx_ll_usb.c **** /**
1198:Drivers/STM32F4xx_HAL_Driver/Src/stm32f4xx_ll_usb.c ****   * @brief  Returns Device OUT EP Interrupt register
1199:Drivers/STM32F4xx_HAL_Driver/Src/stm32f4xx_ll_usb.c ****   * @param  USBx  Selected device
1200:Drivers/STM32F4xx_HAL_Driver/Src/stm32f4xx_ll_usb.c ****   * @param  epnum  endpoint number
1201:Drivers/STM32F4xx_HAL_Driver/Src/stm32f4xx_ll_usb.c ****   *          This parameter can be a value from 0 to 15
1202:Drivers/STM32F4xx_HAL_Driver/Src/stm32f4xx_ll_usb.c ****   * @retval Device OUT EP Interrupt register
1203:Drivers/STM32F4xx_HAL_Driver/Src/stm32f4xx_ll_usb.c ****   */
1204:Drivers/STM32F4xx_HAL_Driver/Src/stm32f4xx_ll_usb.c **** uint32_t USB_ReadDevOutEPInterrupt(USB_OTG_GlobalTypeDef *USBx, uint8_t epnum)
1205:Drivers/STM32F4xx_HAL_Driver/Src/stm32f4xx_ll_usb.c **** {
 4260              		.loc 1 1205 1
 4261              		.cfi_startproc
 4262              		@ args = 0, pretend = 0, frame = 16
 4263              		@ frame_needed = 1, uses_anonymous_args = 0
 4264              		@ link register save eliminated.
 4265 0000 80B4     		push	{r7}
 4266              	.LCFI163:
 4267              		.cfi_def_cfa_offset 4
 4268              		.cfi_offset 7, -4
 4269 0002 85B0     		sub	sp, sp, #20
 4270              	.LCFI164:
 4271              		.cfi_def_cfa_offset 24
 4272 0004 00AF     		add	r7, sp, #0
 4273              	.LCFI165:
 4274              		.cfi_def_cfa_register 7
 4275 0006 7860     		str	r0, [r7, #4]
 4276 0008 0B46     		mov	r3, r1
 4277 000a FB70     		strb	r3, [r7, #3]
1206:Drivers/STM32F4xx_HAL_Driver/Src/stm32f4xx_ll_usb.c ****   uint32_t USBx_BASE = (uint32_t)USBx;
 4278              		.loc 1 1206 12
 4279 000c 7B68     		ldr	r3, [r7, #4]
 4280 000e FB60     		str	r3, [r7, #12]
1207:Drivers/STM32F4xx_HAL_Driver/Src/stm32f4xx_ll_usb.c ****   uint32_t tmpreg;
1208:Drivers/STM32F4xx_HAL_Driver/Src/stm32f4xx_ll_usb.c **** 
1209:Drivers/STM32F4xx_HAL_Driver/Src/stm32f4xx_ll_usb.c ****   tmpreg  = USBx_OUTEP((uint32_t)epnum)->DOEPINT;
 4281              		.loc 1 1209 13
 4282 0010 FB78     		ldrb	r3, [r7, #3]	@ zero_extendqisi2
 4283 0012 5A01     		lsls	r2, r3, #5
 4284 0014 FB68     		ldr	r3, [r7, #12]
 4285 0016 1344     		add	r3, r3, r2
 4286 0018 03F53063 		add	r3, r3, #2816
 4287              		.loc 1 1209 11
 4288 001c 9B68     		ldr	r3, [r3, #8]
 4289 001e BB60     		str	r3, [r7, #8]
1210:Drivers/STM32F4xx_HAL_Driver/Src/stm32f4xx_ll_usb.c ****   tmpreg &= USBx_DEVICE->DOEPMSK;
 4290              		.loc 1 1210 13
 4291 0020 FB68     		ldr	r3, [r7, #12]
 4292 0022 03F50063 		add	r3, r3, #2048
 4293              		.loc 1 1210 24
 4294 0026 5B69     		ldr	r3, [r3, #20]
 4295              		.loc 1 1210 10
ARM GAS  /var/folders/vq/qt4vp3kd5rxf7v2b6_fdtdt80000gn/T//ccjOke0W.s 			page 97


 4296 0028 BA68     		ldr	r2, [r7, #8]
 4297 002a 1340     		ands	r3, r3, r2
 4298 002c BB60     		str	r3, [r7, #8]
1211:Drivers/STM32F4xx_HAL_Driver/Src/stm32f4xx_ll_usb.c **** 
1212:Drivers/STM32F4xx_HAL_Driver/Src/stm32f4xx_ll_usb.c ****   return tmpreg;
 4299              		.loc 1 1212 10
 4300 002e BB68     		ldr	r3, [r7, #8]
1213:Drivers/STM32F4xx_HAL_Driver/Src/stm32f4xx_ll_usb.c **** }
 4301              		.loc 1 1213 1
 4302 0030 1846     		mov	r0, r3
 4303 0032 1437     		adds	r7, r7, #20
 4304              	.LCFI166:
 4305              		.cfi_def_cfa_offset 4
 4306 0034 BD46     		mov	sp, r7
 4307              	.LCFI167:
 4308              		.cfi_def_cfa_register 13
 4309              		@ sp needed
 4310 0036 5DF8047B 		ldr	r7, [sp], #4
 4311              	.LCFI168:
 4312              		.cfi_restore 7
 4313              		.cfi_def_cfa_offset 0
 4314 003a 7047     		bx	lr
 4315              		.cfi_endproc
 4316              	.LFE157:
 4318              		.section	.text.USB_ReadDevInEPInterrupt,"ax",%progbits
 4319              		.align	1
 4320              		.global	USB_ReadDevInEPInterrupt
 4321              		.syntax unified
 4322              		.thumb
 4323              		.thumb_func
 4324              		.fpu fpv4-sp-d16
 4326              	USB_ReadDevInEPInterrupt:
 4327              	.LFB158:
1214:Drivers/STM32F4xx_HAL_Driver/Src/stm32f4xx_ll_usb.c **** 
1215:Drivers/STM32F4xx_HAL_Driver/Src/stm32f4xx_ll_usb.c **** /**
1216:Drivers/STM32F4xx_HAL_Driver/Src/stm32f4xx_ll_usb.c ****   * @brief  Returns Device IN EP Interrupt register
1217:Drivers/STM32F4xx_HAL_Driver/Src/stm32f4xx_ll_usb.c ****   * @param  USBx  Selected device
1218:Drivers/STM32F4xx_HAL_Driver/Src/stm32f4xx_ll_usb.c ****   * @param  epnum  endpoint number
1219:Drivers/STM32F4xx_HAL_Driver/Src/stm32f4xx_ll_usb.c ****   *          This parameter can be a value from 0 to 15
1220:Drivers/STM32F4xx_HAL_Driver/Src/stm32f4xx_ll_usb.c ****   * @retval Device IN EP Interrupt register
1221:Drivers/STM32F4xx_HAL_Driver/Src/stm32f4xx_ll_usb.c ****   */
1222:Drivers/STM32F4xx_HAL_Driver/Src/stm32f4xx_ll_usb.c **** uint32_t USB_ReadDevInEPInterrupt(USB_OTG_GlobalTypeDef *USBx, uint8_t epnum)
1223:Drivers/STM32F4xx_HAL_Driver/Src/stm32f4xx_ll_usb.c **** {
 4328              		.loc 1 1223 1
 4329              		.cfi_startproc
 4330              		@ args = 0, pretend = 0, frame = 24
 4331              		@ frame_needed = 1, uses_anonymous_args = 0
 4332              		@ link register save eliminated.
 4333 0000 80B4     		push	{r7}
 4334              	.LCFI169:
 4335              		.cfi_def_cfa_offset 4
 4336              		.cfi_offset 7, -4
 4337 0002 87B0     		sub	sp, sp, #28
 4338              	.LCFI170:
 4339              		.cfi_def_cfa_offset 32
 4340 0004 00AF     		add	r7, sp, #0
 4341              	.LCFI171:
ARM GAS  /var/folders/vq/qt4vp3kd5rxf7v2b6_fdtdt80000gn/T//ccjOke0W.s 			page 98


 4342              		.cfi_def_cfa_register 7
 4343 0006 7860     		str	r0, [r7, #4]
 4344 0008 0B46     		mov	r3, r1
 4345 000a FB70     		strb	r3, [r7, #3]
1224:Drivers/STM32F4xx_HAL_Driver/Src/stm32f4xx_ll_usb.c ****   uint32_t USBx_BASE = (uint32_t)USBx;
 4346              		.loc 1 1224 12
 4347 000c 7B68     		ldr	r3, [r7, #4]
 4348 000e 7B61     		str	r3, [r7, #20]
1225:Drivers/STM32F4xx_HAL_Driver/Src/stm32f4xx_ll_usb.c ****   uint32_t tmpreg, msk, emp;
1226:Drivers/STM32F4xx_HAL_Driver/Src/stm32f4xx_ll_usb.c **** 
1227:Drivers/STM32F4xx_HAL_Driver/Src/stm32f4xx_ll_usb.c ****   msk = USBx_DEVICE->DIEPMSK;
 4349              		.loc 1 1227 9
 4350 0010 7B69     		ldr	r3, [r7, #20]
 4351 0012 03F50063 		add	r3, r3, #2048
 4352              		.loc 1 1227 7
 4353 0016 1B69     		ldr	r3, [r3, #16]
 4354 0018 3B61     		str	r3, [r7, #16]
1228:Drivers/STM32F4xx_HAL_Driver/Src/stm32f4xx_ll_usb.c ****   emp = USBx_DEVICE->DIEPEMPMSK;
 4355              		.loc 1 1228 9
 4356 001a 7B69     		ldr	r3, [r7, #20]
 4357 001c 03F50063 		add	r3, r3, #2048
 4358              		.loc 1 1228 7
 4359 0020 5B6B     		ldr	r3, [r3, #52]
 4360 0022 FB60     		str	r3, [r7, #12]
1229:Drivers/STM32F4xx_HAL_Driver/Src/stm32f4xx_ll_usb.c ****   msk |= ((emp >> (epnum & EP_ADDR_MSK)) & 0x1U) << 7;
 4361              		.loc 1 1229 26
 4362 0024 FB78     		ldrb	r3, [r7, #3]	@ zero_extendqisi2
 4363 0026 03F00F03 		and	r3, r3, #15
 4364              		.loc 1 1229 16
 4365 002a FA68     		ldr	r2, [r7, #12]
 4366 002c 22FA03F3 		lsr	r3, r2, r3
 4367              		.loc 1 1229 50
 4368 0030 DB01     		lsls	r3, r3, #7
 4369 0032 DBB2     		uxtb	r3, r3
 4370              		.loc 1 1229 7
 4371 0034 3A69     		ldr	r2, [r7, #16]
 4372 0036 1343     		orrs	r3, r3, r2
 4373 0038 3B61     		str	r3, [r7, #16]
1230:Drivers/STM32F4xx_HAL_Driver/Src/stm32f4xx_ll_usb.c ****   tmpreg = USBx_INEP((uint32_t)epnum)->DIEPINT & msk;
 4374              		.loc 1 1230 12
 4375 003a FB78     		ldrb	r3, [r7, #3]	@ zero_extendqisi2
 4376 003c 5A01     		lsls	r2, r3, #5
 4377 003e 7B69     		ldr	r3, [r7, #20]
 4378 0040 1344     		add	r3, r3, r2
 4379 0042 03F51063 		add	r3, r3, #2304
 4380              		.loc 1 1230 38
 4381 0046 9B68     		ldr	r3, [r3, #8]
 4382              		.loc 1 1230 10
 4383 0048 3A69     		ldr	r2, [r7, #16]
 4384 004a 1340     		ands	r3, r3, r2
 4385 004c BB60     		str	r3, [r7, #8]
1231:Drivers/STM32F4xx_HAL_Driver/Src/stm32f4xx_ll_usb.c **** 
1232:Drivers/STM32F4xx_HAL_Driver/Src/stm32f4xx_ll_usb.c ****   return tmpreg;
 4386              		.loc 1 1232 10
 4387 004e BB68     		ldr	r3, [r7, #8]
1233:Drivers/STM32F4xx_HAL_Driver/Src/stm32f4xx_ll_usb.c **** }
 4388              		.loc 1 1233 1
ARM GAS  /var/folders/vq/qt4vp3kd5rxf7v2b6_fdtdt80000gn/T//ccjOke0W.s 			page 99


 4389 0050 1846     		mov	r0, r3
 4390 0052 1C37     		adds	r7, r7, #28
 4391              	.LCFI172:
 4392              		.cfi_def_cfa_offset 4
 4393 0054 BD46     		mov	sp, r7
 4394              	.LCFI173:
 4395              		.cfi_def_cfa_register 13
 4396              		@ sp needed
 4397 0056 5DF8047B 		ldr	r7, [sp], #4
 4398              	.LCFI174:
 4399              		.cfi_restore 7
 4400              		.cfi_def_cfa_offset 0
 4401 005a 7047     		bx	lr
 4402              		.cfi_endproc
 4403              	.LFE158:
 4405              		.section	.text.USB_ClearInterrupts,"ax",%progbits
 4406              		.align	1
 4407              		.global	USB_ClearInterrupts
 4408              		.syntax unified
 4409              		.thumb
 4410              		.thumb_func
 4411              		.fpu fpv4-sp-d16
 4413              	USB_ClearInterrupts:
 4414              	.LFB159:
1234:Drivers/STM32F4xx_HAL_Driver/Src/stm32f4xx_ll_usb.c **** 
1235:Drivers/STM32F4xx_HAL_Driver/Src/stm32f4xx_ll_usb.c **** /**
1236:Drivers/STM32F4xx_HAL_Driver/Src/stm32f4xx_ll_usb.c ****   * @brief  USB_ClearInterrupts: clear a USB interrupt
1237:Drivers/STM32F4xx_HAL_Driver/Src/stm32f4xx_ll_usb.c ****   * @param  USBx  Selected device
1238:Drivers/STM32F4xx_HAL_Driver/Src/stm32f4xx_ll_usb.c ****   * @param  interrupt  flag
1239:Drivers/STM32F4xx_HAL_Driver/Src/stm32f4xx_ll_usb.c ****   * @retval None
1240:Drivers/STM32F4xx_HAL_Driver/Src/stm32f4xx_ll_usb.c ****   */
1241:Drivers/STM32F4xx_HAL_Driver/Src/stm32f4xx_ll_usb.c **** void  USB_ClearInterrupts(USB_OTG_GlobalTypeDef *USBx, uint32_t interrupt)
1242:Drivers/STM32F4xx_HAL_Driver/Src/stm32f4xx_ll_usb.c **** {
 4415              		.loc 1 1242 1
 4416              		.cfi_startproc
 4417              		@ args = 0, pretend = 0, frame = 8
 4418              		@ frame_needed = 1, uses_anonymous_args = 0
 4419              		@ link register save eliminated.
 4420 0000 80B4     		push	{r7}
 4421              	.LCFI175:
 4422              		.cfi_def_cfa_offset 4
 4423              		.cfi_offset 7, -4
 4424 0002 83B0     		sub	sp, sp, #12
 4425              	.LCFI176:
 4426              		.cfi_def_cfa_offset 16
 4427 0004 00AF     		add	r7, sp, #0
 4428              	.LCFI177:
 4429              		.cfi_def_cfa_register 7
 4430 0006 7860     		str	r0, [r7, #4]
 4431 0008 3960     		str	r1, [r7]
1243:Drivers/STM32F4xx_HAL_Driver/Src/stm32f4xx_ll_usb.c ****   USBx->GINTSTS |= interrupt;
 4432              		.loc 1 1243 17
 4433 000a 7B68     		ldr	r3, [r7, #4]
 4434 000c 5A69     		ldr	r2, [r3, #20]
 4435 000e 3B68     		ldr	r3, [r7]
 4436 0010 1A43     		orrs	r2, r2, r3
 4437 0012 7B68     		ldr	r3, [r7, #4]
ARM GAS  /var/folders/vq/qt4vp3kd5rxf7v2b6_fdtdt80000gn/T//ccjOke0W.s 			page 100


 4438 0014 5A61     		str	r2, [r3, #20]
1244:Drivers/STM32F4xx_HAL_Driver/Src/stm32f4xx_ll_usb.c **** }
 4439              		.loc 1 1244 1
 4440 0016 00BF     		nop
 4441 0018 0C37     		adds	r7, r7, #12
 4442              	.LCFI178:
 4443              		.cfi_def_cfa_offset 4
 4444 001a BD46     		mov	sp, r7
 4445              	.LCFI179:
 4446              		.cfi_def_cfa_register 13
 4447              		@ sp needed
 4448 001c 5DF8047B 		ldr	r7, [sp], #4
 4449              	.LCFI180:
 4450              		.cfi_restore 7
 4451              		.cfi_def_cfa_offset 0
 4452 0020 7047     		bx	lr
 4453              		.cfi_endproc
 4454              	.LFE159:
 4456              		.section	.text.USB_GetMode,"ax",%progbits
 4457              		.align	1
 4458              		.global	USB_GetMode
 4459              		.syntax unified
 4460              		.thumb
 4461              		.thumb_func
 4462              		.fpu fpv4-sp-d16
 4464              	USB_GetMode:
 4465              	.LFB160:
1245:Drivers/STM32F4xx_HAL_Driver/Src/stm32f4xx_ll_usb.c **** 
1246:Drivers/STM32F4xx_HAL_Driver/Src/stm32f4xx_ll_usb.c **** /**
1247:Drivers/STM32F4xx_HAL_Driver/Src/stm32f4xx_ll_usb.c ****   * @brief  Returns USB core mode
1248:Drivers/STM32F4xx_HAL_Driver/Src/stm32f4xx_ll_usb.c ****   * @param  USBx  Selected device
1249:Drivers/STM32F4xx_HAL_Driver/Src/stm32f4xx_ll_usb.c ****   * @retval return core mode : Host or Device
1250:Drivers/STM32F4xx_HAL_Driver/Src/stm32f4xx_ll_usb.c ****   *          This parameter can be one of these values:
1251:Drivers/STM32F4xx_HAL_Driver/Src/stm32f4xx_ll_usb.c ****   *           0 : Host
1252:Drivers/STM32F4xx_HAL_Driver/Src/stm32f4xx_ll_usb.c ****   *           1 : Device
1253:Drivers/STM32F4xx_HAL_Driver/Src/stm32f4xx_ll_usb.c ****   */
1254:Drivers/STM32F4xx_HAL_Driver/Src/stm32f4xx_ll_usb.c **** uint32_t USB_GetMode(USB_OTG_GlobalTypeDef *USBx)
1255:Drivers/STM32F4xx_HAL_Driver/Src/stm32f4xx_ll_usb.c **** {
 4466              		.loc 1 1255 1
 4467              		.cfi_startproc
 4468              		@ args = 0, pretend = 0, frame = 8
 4469              		@ frame_needed = 1, uses_anonymous_args = 0
 4470              		@ link register save eliminated.
 4471 0000 80B4     		push	{r7}
 4472              	.LCFI181:
 4473              		.cfi_def_cfa_offset 4
 4474              		.cfi_offset 7, -4
 4475 0002 83B0     		sub	sp, sp, #12
 4476              	.LCFI182:
 4477              		.cfi_def_cfa_offset 16
 4478 0004 00AF     		add	r7, sp, #0
 4479              	.LCFI183:
 4480              		.cfi_def_cfa_register 7
 4481 0006 7860     		str	r0, [r7, #4]
1256:Drivers/STM32F4xx_HAL_Driver/Src/stm32f4xx_ll_usb.c ****   return ((USBx->GINTSTS) & 0x1U);
 4482              		.loc 1 1256 16
 4483 0008 7B68     		ldr	r3, [r7, #4]
ARM GAS  /var/folders/vq/qt4vp3kd5rxf7v2b6_fdtdt80000gn/T//ccjOke0W.s 			page 101


 4484 000a 5B69     		ldr	r3, [r3, #20]
 4485              		.loc 1 1256 27
 4486 000c 03F00103 		and	r3, r3, #1
1257:Drivers/STM32F4xx_HAL_Driver/Src/stm32f4xx_ll_usb.c **** }
 4487              		.loc 1 1257 1
 4488 0010 1846     		mov	r0, r3
 4489 0012 0C37     		adds	r7, r7, #12
 4490              	.LCFI184:
 4491              		.cfi_def_cfa_offset 4
 4492 0014 BD46     		mov	sp, r7
 4493              	.LCFI185:
 4494              		.cfi_def_cfa_register 13
 4495              		@ sp needed
 4496 0016 5DF8047B 		ldr	r7, [sp], #4
 4497              	.LCFI186:
 4498              		.cfi_restore 7
 4499              		.cfi_def_cfa_offset 0
 4500 001a 7047     		bx	lr
 4501              		.cfi_endproc
 4502              	.LFE160:
 4504              		.section	.text.USB_ActivateSetup,"ax",%progbits
 4505              		.align	1
 4506              		.global	USB_ActivateSetup
 4507              		.syntax unified
 4508              		.thumb
 4509              		.thumb_func
 4510              		.fpu fpv4-sp-d16
 4512              	USB_ActivateSetup:
 4513              	.LFB161:
1258:Drivers/STM32F4xx_HAL_Driver/Src/stm32f4xx_ll_usb.c **** 
1259:Drivers/STM32F4xx_HAL_Driver/Src/stm32f4xx_ll_usb.c **** /**
1260:Drivers/STM32F4xx_HAL_Driver/Src/stm32f4xx_ll_usb.c ****   * @brief  Activate EP0 for Setup transactions
1261:Drivers/STM32F4xx_HAL_Driver/Src/stm32f4xx_ll_usb.c ****   * @param  USBx  Selected device
1262:Drivers/STM32F4xx_HAL_Driver/Src/stm32f4xx_ll_usb.c ****   * @retval HAL status
1263:Drivers/STM32F4xx_HAL_Driver/Src/stm32f4xx_ll_usb.c ****   */
1264:Drivers/STM32F4xx_HAL_Driver/Src/stm32f4xx_ll_usb.c **** HAL_StatusTypeDef  USB_ActivateSetup(USB_OTG_GlobalTypeDef *USBx)
1265:Drivers/STM32F4xx_HAL_Driver/Src/stm32f4xx_ll_usb.c **** {
 4514              		.loc 1 1265 1
 4515              		.cfi_startproc
 4516              		@ args = 0, pretend = 0, frame = 16
 4517              		@ frame_needed = 1, uses_anonymous_args = 0
 4518              		@ link register save eliminated.
 4519 0000 80B4     		push	{r7}
 4520              	.LCFI187:
 4521              		.cfi_def_cfa_offset 4
 4522              		.cfi_offset 7, -4
 4523 0002 85B0     		sub	sp, sp, #20
 4524              	.LCFI188:
 4525              		.cfi_def_cfa_offset 24
 4526 0004 00AF     		add	r7, sp, #0
 4527              	.LCFI189:
 4528              		.cfi_def_cfa_register 7
 4529 0006 7860     		str	r0, [r7, #4]
1266:Drivers/STM32F4xx_HAL_Driver/Src/stm32f4xx_ll_usb.c ****   uint32_t USBx_BASE = (uint32_t)USBx;
 4530              		.loc 1 1266 12
 4531 0008 7B68     		ldr	r3, [r7, #4]
 4532 000a FB60     		str	r3, [r7, #12]
ARM GAS  /var/folders/vq/qt4vp3kd5rxf7v2b6_fdtdt80000gn/T//ccjOke0W.s 			page 102


1267:Drivers/STM32F4xx_HAL_Driver/Src/stm32f4xx_ll_usb.c **** 
1268:Drivers/STM32F4xx_HAL_Driver/Src/stm32f4xx_ll_usb.c ****   /* Set the MPS of the IN EP0 to 64 bytes */
1269:Drivers/STM32F4xx_HAL_Driver/Src/stm32f4xx_ll_usb.c ****   USBx_INEP(0U)->DIEPCTL &= ~USB_OTG_DIEPCTL_MPSIZ;
 4533              		.loc 1 1269 26
 4534 000c FB68     		ldr	r3, [r7, #12]
 4535 000e 03F51063 		add	r3, r3, #2304
 4536 0012 1B68     		ldr	r3, [r3]
 4537 0014 FA68     		ldr	r2, [r7, #12]
 4538 0016 02F51062 		add	r2, r2, #2304
 4539 001a 23F4FF63 		bic	r3, r3, #2040
 4540 001e 23F00703 		bic	r3, r3, #7
 4541 0022 1360     		str	r3, [r2]
1270:Drivers/STM32F4xx_HAL_Driver/Src/stm32f4xx_ll_usb.c **** 
1271:Drivers/STM32F4xx_HAL_Driver/Src/stm32f4xx_ll_usb.c ****   USBx_DEVICE->DCTL |= USB_OTG_DCTL_CGINAK;
 4542              		.loc 1 1271 21
 4543 0024 FB68     		ldr	r3, [r7, #12]
 4544 0026 03F50063 		add	r3, r3, #2048
 4545 002a 5B68     		ldr	r3, [r3, #4]
 4546 002c FA68     		ldr	r2, [r7, #12]
 4547 002e 02F50062 		add	r2, r2, #2048
 4548 0032 43F48073 		orr	r3, r3, #256
 4549 0036 5360     		str	r3, [r2, #4]
1272:Drivers/STM32F4xx_HAL_Driver/Src/stm32f4xx_ll_usb.c **** 
1273:Drivers/STM32F4xx_HAL_Driver/Src/stm32f4xx_ll_usb.c ****   return HAL_OK;
 4550              		.loc 1 1273 10
 4551 0038 0023     		movs	r3, #0
1274:Drivers/STM32F4xx_HAL_Driver/Src/stm32f4xx_ll_usb.c **** }
 4552              		.loc 1 1274 1
 4553 003a 1846     		mov	r0, r3
 4554 003c 1437     		adds	r7, r7, #20
 4555              	.LCFI190:
 4556              		.cfi_def_cfa_offset 4
 4557 003e BD46     		mov	sp, r7
 4558              	.LCFI191:
 4559              		.cfi_def_cfa_register 13
 4560              		@ sp needed
 4561 0040 5DF8047B 		ldr	r7, [sp], #4
 4562              	.LCFI192:
 4563              		.cfi_restore 7
 4564              		.cfi_def_cfa_offset 0
 4565 0044 7047     		bx	lr
 4566              		.cfi_endproc
 4567              	.LFE161:
 4569              		.section	.text.USB_EP0_OutStart,"ax",%progbits
 4570              		.align	1
 4571              		.global	USB_EP0_OutStart
 4572              		.syntax unified
 4573              		.thumb
 4574              		.thumb_func
 4575              		.fpu fpv4-sp-d16
 4577              	USB_EP0_OutStart:
 4578              	.LFB162:
1275:Drivers/STM32F4xx_HAL_Driver/Src/stm32f4xx_ll_usb.c **** 
1276:Drivers/STM32F4xx_HAL_Driver/Src/stm32f4xx_ll_usb.c **** /**
1277:Drivers/STM32F4xx_HAL_Driver/Src/stm32f4xx_ll_usb.c ****   * @brief  Prepare the EP0 to start the first control setup
1278:Drivers/STM32F4xx_HAL_Driver/Src/stm32f4xx_ll_usb.c ****   * @param  USBx  Selected device
1279:Drivers/STM32F4xx_HAL_Driver/Src/stm32f4xx_ll_usb.c ****   * @param  dma USB dma enabled or disabled
ARM GAS  /var/folders/vq/qt4vp3kd5rxf7v2b6_fdtdt80000gn/T//ccjOke0W.s 			page 103


1280:Drivers/STM32F4xx_HAL_Driver/Src/stm32f4xx_ll_usb.c ****   *          This parameter can be one of these values:
1281:Drivers/STM32F4xx_HAL_Driver/Src/stm32f4xx_ll_usb.c ****   *           0 : DMA feature not used
1282:Drivers/STM32F4xx_HAL_Driver/Src/stm32f4xx_ll_usb.c ****   *           1 : DMA feature used
1283:Drivers/STM32F4xx_HAL_Driver/Src/stm32f4xx_ll_usb.c ****   * @param  psetup  pointer to setup packet
1284:Drivers/STM32F4xx_HAL_Driver/Src/stm32f4xx_ll_usb.c ****   * @retval HAL status
1285:Drivers/STM32F4xx_HAL_Driver/Src/stm32f4xx_ll_usb.c ****   */
1286:Drivers/STM32F4xx_HAL_Driver/Src/stm32f4xx_ll_usb.c **** HAL_StatusTypeDef USB_EP0_OutStart(USB_OTG_GlobalTypeDef *USBx, uint8_t dma, uint8_t *psetup)
1287:Drivers/STM32F4xx_HAL_Driver/Src/stm32f4xx_ll_usb.c **** {
 4579              		.loc 1 1287 1
 4580              		.cfi_startproc
 4581              		@ args = 0, pretend = 0, frame = 24
 4582              		@ frame_needed = 1, uses_anonymous_args = 0
 4583              		@ link register save eliminated.
 4584 0000 80B4     		push	{r7}
 4585              	.LCFI193:
 4586              		.cfi_def_cfa_offset 4
 4587              		.cfi_offset 7, -4
 4588 0002 87B0     		sub	sp, sp, #28
 4589              	.LCFI194:
 4590              		.cfi_def_cfa_offset 32
 4591 0004 00AF     		add	r7, sp, #0
 4592              	.LCFI195:
 4593              		.cfi_def_cfa_register 7
 4594 0006 F860     		str	r0, [r7, #12]
 4595 0008 0B46     		mov	r3, r1
 4596 000a 7A60     		str	r2, [r7, #4]
 4597 000c FB72     		strb	r3, [r7, #11]
1288:Drivers/STM32F4xx_HAL_Driver/Src/stm32f4xx_ll_usb.c ****   uint32_t USBx_BASE = (uint32_t)USBx;
 4598              		.loc 1 1288 12
 4599 000e FB68     		ldr	r3, [r7, #12]
 4600 0010 7B61     		str	r3, [r7, #20]
1289:Drivers/STM32F4xx_HAL_Driver/Src/stm32f4xx_ll_usb.c ****   uint32_t gSNPSiD = *(__IO uint32_t *)(&USBx->CID + 0x1U);
 4601              		.loc 1 1289 41
 4602 0012 FB68     		ldr	r3, [r7, #12]
 4603 0014 3C33     		adds	r3, r3, #60
 4604              		.loc 1 1289 23
 4605 0016 0433     		adds	r3, r3, #4
 4606              		.loc 1 1289 12
 4607 0018 1B68     		ldr	r3, [r3]
 4608 001a 3B61     		str	r3, [r7, #16]
1290:Drivers/STM32F4xx_HAL_Driver/Src/stm32f4xx_ll_usb.c **** 
1291:Drivers/STM32F4xx_HAL_Driver/Src/stm32f4xx_ll_usb.c ****   if (gSNPSiD > USB_OTG_CORE_ID_300A)
 4609              		.loc 1 1291 6
 4610 001c 3B69     		ldr	r3, [r7, #16]
 4611 001e 264A     		ldr	r2, .L189
 4612 0020 9342     		cmp	r3, r2
 4613 0022 0AD9     		bls	.L186
1292:Drivers/STM32F4xx_HAL_Driver/Src/stm32f4xx_ll_usb.c ****   {
1293:Drivers/STM32F4xx_HAL_Driver/Src/stm32f4xx_ll_usb.c ****     if ((USBx_OUTEP(0U)->DOEPCTL & USB_OTG_DOEPCTL_EPENA) == USB_OTG_DOEPCTL_EPENA)
 4614              		.loc 1 1293 10
 4615 0024 7B69     		ldr	r3, [r7, #20]
 4616 0026 03F53063 		add	r3, r3, #2816
 4617              		.loc 1 1293 24
 4618 002a 1B68     		ldr	r3, [r3]
 4619              		.loc 1 1293 34
 4620 002c 03F00043 		and	r3, r3, #-2147483648
 4621              		.loc 1 1293 8
ARM GAS  /var/folders/vq/qt4vp3kd5rxf7v2b6_fdtdt80000gn/T//ccjOke0W.s 			page 104


 4622 0030 B3F1004F 		cmp	r3, #-2147483648
 4623 0034 01D1     		bne	.L186
1294:Drivers/STM32F4xx_HAL_Driver/Src/stm32f4xx_ll_usb.c ****     {
1295:Drivers/STM32F4xx_HAL_Driver/Src/stm32f4xx_ll_usb.c ****       return HAL_OK;
 4624              		.loc 1 1295 14
 4625 0036 0023     		movs	r3, #0
 4626 0038 37E0     		b	.L187
 4627              	.L186:
1296:Drivers/STM32F4xx_HAL_Driver/Src/stm32f4xx_ll_usb.c ****     }
1297:Drivers/STM32F4xx_HAL_Driver/Src/stm32f4xx_ll_usb.c ****   }
1298:Drivers/STM32F4xx_HAL_Driver/Src/stm32f4xx_ll_usb.c **** 
1299:Drivers/STM32F4xx_HAL_Driver/Src/stm32f4xx_ll_usb.c ****   USBx_OUTEP(0U)->DOEPTSIZ = 0U;
 4628              		.loc 1 1299 3
 4629 003a 7B69     		ldr	r3, [r7, #20]
 4630 003c 03F53063 		add	r3, r3, #2816
 4631 0040 1A46     		mov	r2, r3
 4632              		.loc 1 1299 28
 4633 0042 0023     		movs	r3, #0
 4634 0044 1361     		str	r3, [r2, #16]
1300:Drivers/STM32F4xx_HAL_Driver/Src/stm32f4xx_ll_usb.c ****   USBx_OUTEP(0U)->DOEPTSIZ |= (USB_OTG_DOEPTSIZ_PKTCNT & (1U << 19));
 4635              		.loc 1 1300 28
 4636 0046 7B69     		ldr	r3, [r7, #20]
 4637 0048 03F53063 		add	r3, r3, #2816
 4638 004c 1B69     		ldr	r3, [r3, #16]
 4639 004e 7A69     		ldr	r2, [r7, #20]
 4640 0050 02F53062 		add	r2, r2, #2816
 4641 0054 43F40023 		orr	r3, r3, #524288
 4642 0058 1361     		str	r3, [r2, #16]
1301:Drivers/STM32F4xx_HAL_Driver/Src/stm32f4xx_ll_usb.c ****   USBx_OUTEP(0U)->DOEPTSIZ |= (3U * 8U);
 4643              		.loc 1 1301 28
 4644 005a 7B69     		ldr	r3, [r7, #20]
 4645 005c 03F53063 		add	r3, r3, #2816
 4646 0060 1B69     		ldr	r3, [r3, #16]
 4647 0062 7A69     		ldr	r2, [r7, #20]
 4648 0064 02F53062 		add	r2, r2, #2816
 4649 0068 43F01803 		orr	r3, r3, #24
 4650 006c 1361     		str	r3, [r2, #16]
1302:Drivers/STM32F4xx_HAL_Driver/Src/stm32f4xx_ll_usb.c ****   USBx_OUTEP(0U)->DOEPTSIZ |=  USB_OTG_DOEPTSIZ_STUPCNT;
 4651              		.loc 1 1302 28
 4652 006e 7B69     		ldr	r3, [r7, #20]
 4653 0070 03F53063 		add	r3, r3, #2816
 4654 0074 1B69     		ldr	r3, [r3, #16]
 4655 0076 7A69     		ldr	r2, [r7, #20]
 4656 0078 02F53062 		add	r2, r2, #2816
 4657 007c 43F0C043 		orr	r3, r3, #1610612736
 4658 0080 1361     		str	r3, [r2, #16]
1303:Drivers/STM32F4xx_HAL_Driver/Src/stm32f4xx_ll_usb.c **** 
1304:Drivers/STM32F4xx_HAL_Driver/Src/stm32f4xx_ll_usb.c ****   if (dma == 1U)
 4659              		.loc 1 1304 6
 4660 0082 FB7A     		ldrb	r3, [r7, #11]	@ zero_extendqisi2
 4661 0084 012B     		cmp	r3, #1
 4662 0086 0FD1     		bne	.L188
1305:Drivers/STM32F4xx_HAL_Driver/Src/stm32f4xx_ll_usb.c ****   {
1306:Drivers/STM32F4xx_HAL_Driver/Src/stm32f4xx_ll_usb.c ****     USBx_OUTEP(0U)->DOEPDMA = (uint32_t)psetup;
 4663              		.loc 1 1306 5
 4664 0088 7B69     		ldr	r3, [r7, #20]
 4665 008a 03F53063 		add	r3, r3, #2816
ARM GAS  /var/folders/vq/qt4vp3kd5rxf7v2b6_fdtdt80000gn/T//ccjOke0W.s 			page 105


 4666 008e 1A46     		mov	r2, r3
 4667              		.loc 1 1306 31
 4668 0090 7B68     		ldr	r3, [r7, #4]
 4669              		.loc 1 1306 29
 4670 0092 5361     		str	r3, [r2, #20]
1307:Drivers/STM32F4xx_HAL_Driver/Src/stm32f4xx_ll_usb.c ****     /* EP enable */
1308:Drivers/STM32F4xx_HAL_Driver/Src/stm32f4xx_ll_usb.c ****     USBx_OUTEP(0U)->DOEPCTL |= USB_OTG_DOEPCTL_EPENA | USB_OTG_DOEPCTL_USBAEP;
 4671              		.loc 1 1308 29
 4672 0094 7B69     		ldr	r3, [r7, #20]
 4673 0096 03F53063 		add	r3, r3, #2816
 4674 009a 1B68     		ldr	r3, [r3]
 4675 009c 7A69     		ldr	r2, [r7, #20]
 4676 009e 02F53062 		add	r2, r2, #2816
 4677 00a2 43F08023 		orr	r3, r3, #-2147450880
 4678 00a6 1360     		str	r3, [r2]
 4679              	.L188:
1309:Drivers/STM32F4xx_HAL_Driver/Src/stm32f4xx_ll_usb.c ****   }
1310:Drivers/STM32F4xx_HAL_Driver/Src/stm32f4xx_ll_usb.c **** 
1311:Drivers/STM32F4xx_HAL_Driver/Src/stm32f4xx_ll_usb.c ****   return HAL_OK;
 4680              		.loc 1 1311 10
 4681 00a8 0023     		movs	r3, #0
 4682              	.L187:
1312:Drivers/STM32F4xx_HAL_Driver/Src/stm32f4xx_ll_usb.c **** }
 4683              		.loc 1 1312 1
 4684 00aa 1846     		mov	r0, r3
 4685 00ac 1C37     		adds	r7, r7, #28
 4686              	.LCFI196:
 4687              		.cfi_def_cfa_offset 4
 4688 00ae BD46     		mov	sp, r7
 4689              	.LCFI197:
 4690              		.cfi_def_cfa_register 13
 4691              		@ sp needed
 4692 00b0 5DF8047B 		ldr	r7, [sp], #4
 4693              	.LCFI198:
 4694              		.cfi_restore 7
 4695              		.cfi_def_cfa_offset 0
 4696 00b4 7047     		bx	lr
 4697              	.L190:
 4698 00b6 00BF     		.align	2
 4699              	.L189:
 4700 00b8 0A30544F 		.word	1330917386
 4701              		.cfi_endproc
 4702              	.LFE162:
 4704              		.section	.text.USB_CoreReset,"ax",%progbits
 4705              		.align	1
 4706              		.syntax unified
 4707              		.thumb
 4708              		.thumb_func
 4709              		.fpu fpv4-sp-d16
 4711              	USB_CoreReset:
 4712              	.LFB163:
1313:Drivers/STM32F4xx_HAL_Driver/Src/stm32f4xx_ll_usb.c **** 
1314:Drivers/STM32F4xx_HAL_Driver/Src/stm32f4xx_ll_usb.c **** /**
1315:Drivers/STM32F4xx_HAL_Driver/Src/stm32f4xx_ll_usb.c ****   * @brief  Reset the USB Core (needed after USB clock settings change)
1316:Drivers/STM32F4xx_HAL_Driver/Src/stm32f4xx_ll_usb.c ****   * @param  USBx  Selected device
1317:Drivers/STM32F4xx_HAL_Driver/Src/stm32f4xx_ll_usb.c ****   * @retval HAL status
1318:Drivers/STM32F4xx_HAL_Driver/Src/stm32f4xx_ll_usb.c ****   */
ARM GAS  /var/folders/vq/qt4vp3kd5rxf7v2b6_fdtdt80000gn/T//ccjOke0W.s 			page 106


1319:Drivers/STM32F4xx_HAL_Driver/Src/stm32f4xx_ll_usb.c **** static HAL_StatusTypeDef USB_CoreReset(USB_OTG_GlobalTypeDef *USBx)
1320:Drivers/STM32F4xx_HAL_Driver/Src/stm32f4xx_ll_usb.c **** {
 4713              		.loc 1 1320 1
 4714              		.cfi_startproc
 4715              		@ args = 0, pretend = 0, frame = 16
 4716              		@ frame_needed = 1, uses_anonymous_args = 0
 4717              		@ link register save eliminated.
 4718 0000 80B4     		push	{r7}
 4719              	.LCFI199:
 4720              		.cfi_def_cfa_offset 4
 4721              		.cfi_offset 7, -4
 4722 0002 85B0     		sub	sp, sp, #20
 4723              	.LCFI200:
 4724              		.cfi_def_cfa_offset 24
 4725 0004 00AF     		add	r7, sp, #0
 4726              	.LCFI201:
 4727              		.cfi_def_cfa_register 7
 4728 0006 7860     		str	r0, [r7, #4]
1321:Drivers/STM32F4xx_HAL_Driver/Src/stm32f4xx_ll_usb.c ****   uint32_t count = 0U;
 4729              		.loc 1 1321 12
 4730 0008 0023     		movs	r3, #0
 4731 000a FB60     		str	r3, [r7, #12]
 4732              	.L194:
1322:Drivers/STM32F4xx_HAL_Driver/Src/stm32f4xx_ll_usb.c **** 
1323:Drivers/STM32F4xx_HAL_Driver/Src/stm32f4xx_ll_usb.c ****   /* Wait for AHB master IDLE state. */
1324:Drivers/STM32F4xx_HAL_Driver/Src/stm32f4xx_ll_usb.c ****   do
1325:Drivers/STM32F4xx_HAL_Driver/Src/stm32f4xx_ll_usb.c ****   {
1326:Drivers/STM32F4xx_HAL_Driver/Src/stm32f4xx_ll_usb.c ****     if (++count > 200000U)
 4733              		.loc 1 1326 8
 4734 000c FB68     		ldr	r3, [r7, #12]
 4735 000e 0133     		adds	r3, r3, #1
 4736 0010 FB60     		str	r3, [r7, #12]
 4737 0012 FB68     		ldr	r3, [r7, #12]
 4738 0014 134A     		ldr	r2, .L197
 4739 0016 9342     		cmp	r3, r2
 4740 0018 01D9     		bls	.L192
1327:Drivers/STM32F4xx_HAL_Driver/Src/stm32f4xx_ll_usb.c ****     {
1328:Drivers/STM32F4xx_HAL_Driver/Src/stm32f4xx_ll_usb.c ****       return HAL_TIMEOUT;
 4741              		.loc 1 1328 14
 4742 001a 0323     		movs	r3, #3
 4743 001c 1BE0     		b	.L193
 4744              	.L192:
1329:Drivers/STM32F4xx_HAL_Driver/Src/stm32f4xx_ll_usb.c ****     }
1330:Drivers/STM32F4xx_HAL_Driver/Src/stm32f4xx_ll_usb.c ****   } while ((USBx->GRSTCTL & USB_OTG_GRSTCTL_AHBIDL) == 0U);
 4745              		.loc 1 1330 17
 4746 001e 7B68     		ldr	r3, [r7, #4]
 4747 0020 1B69     		ldr	r3, [r3, #16]
 4748              		.loc 1 1330 3
 4749 0022 002B     		cmp	r3, #0
 4750 0024 F2DA     		bge	.L194
1331:Drivers/STM32F4xx_HAL_Driver/Src/stm32f4xx_ll_usb.c **** 
1332:Drivers/STM32F4xx_HAL_Driver/Src/stm32f4xx_ll_usb.c ****   /* Core Soft Reset */
1333:Drivers/STM32F4xx_HAL_Driver/Src/stm32f4xx_ll_usb.c ****   count = 0U;
 4751              		.loc 1 1333 9
 4752 0026 0023     		movs	r3, #0
 4753 0028 FB60     		str	r3, [r7, #12]
1334:Drivers/STM32F4xx_HAL_Driver/Src/stm32f4xx_ll_usb.c ****   USBx->GRSTCTL |= USB_OTG_GRSTCTL_CSRST;
ARM GAS  /var/folders/vq/qt4vp3kd5rxf7v2b6_fdtdt80000gn/T//ccjOke0W.s 			page 107


 4754              		.loc 1 1334 17
 4755 002a 7B68     		ldr	r3, [r7, #4]
 4756 002c 1B69     		ldr	r3, [r3, #16]
 4757 002e 43F00102 		orr	r2, r3, #1
 4758 0032 7B68     		ldr	r3, [r7, #4]
 4759 0034 1A61     		str	r2, [r3, #16]
 4760              	.L196:
1335:Drivers/STM32F4xx_HAL_Driver/Src/stm32f4xx_ll_usb.c **** 
1336:Drivers/STM32F4xx_HAL_Driver/Src/stm32f4xx_ll_usb.c ****   do
1337:Drivers/STM32F4xx_HAL_Driver/Src/stm32f4xx_ll_usb.c ****   {
1338:Drivers/STM32F4xx_HAL_Driver/Src/stm32f4xx_ll_usb.c ****     if (++count > 200000U)
 4761              		.loc 1 1338 8
 4762 0036 FB68     		ldr	r3, [r7, #12]
 4763 0038 0133     		adds	r3, r3, #1
 4764 003a FB60     		str	r3, [r7, #12]
 4765 003c FB68     		ldr	r3, [r7, #12]
 4766 003e 094A     		ldr	r2, .L197
 4767 0040 9342     		cmp	r3, r2
 4768 0042 01D9     		bls	.L195
1339:Drivers/STM32F4xx_HAL_Driver/Src/stm32f4xx_ll_usb.c ****     {
1340:Drivers/STM32F4xx_HAL_Driver/Src/stm32f4xx_ll_usb.c ****       return HAL_TIMEOUT;
 4769              		.loc 1 1340 14
 4770 0044 0323     		movs	r3, #3
 4771 0046 06E0     		b	.L193
 4772              	.L195:
1341:Drivers/STM32F4xx_HAL_Driver/Src/stm32f4xx_ll_usb.c ****     }
1342:Drivers/STM32F4xx_HAL_Driver/Src/stm32f4xx_ll_usb.c ****   } while ((USBx->GRSTCTL & USB_OTG_GRSTCTL_CSRST) == USB_OTG_GRSTCTL_CSRST);
 4773              		.loc 1 1342 17
 4774 0048 7B68     		ldr	r3, [r7, #4]
 4775 004a 1B69     		ldr	r3, [r3, #16]
 4776              		.loc 1 1342 27
 4777 004c 03F00103 		and	r3, r3, #1
 4778              		.loc 1 1342 3
 4779 0050 012B     		cmp	r3, #1
 4780 0052 F0D0     		beq	.L196
1343:Drivers/STM32F4xx_HAL_Driver/Src/stm32f4xx_ll_usb.c **** 
1344:Drivers/STM32F4xx_HAL_Driver/Src/stm32f4xx_ll_usb.c ****   return HAL_OK;
 4781              		.loc 1 1344 10
 4782 0054 0023     		movs	r3, #0
 4783              	.L193:
1345:Drivers/STM32F4xx_HAL_Driver/Src/stm32f4xx_ll_usb.c **** }
 4784              		.loc 1 1345 1
 4785 0056 1846     		mov	r0, r3
 4786 0058 1437     		adds	r7, r7, #20
 4787              	.LCFI202:
 4788              		.cfi_def_cfa_offset 4
 4789 005a BD46     		mov	sp, r7
 4790              	.LCFI203:
 4791              		.cfi_def_cfa_register 13
 4792              		@ sp needed
 4793 005c 5DF8047B 		ldr	r7, [sp], #4
 4794              	.LCFI204:
 4795              		.cfi_restore 7
 4796              		.cfi_def_cfa_offset 0
 4797 0060 7047     		bx	lr
 4798              	.L198:
 4799 0062 00BF     		.align	2
ARM GAS  /var/folders/vq/qt4vp3kd5rxf7v2b6_fdtdt80000gn/T//ccjOke0W.s 			page 108


 4800              	.L197:
 4801 0064 400D0300 		.word	200000
 4802              		.cfi_endproc
 4803              	.LFE163:
 4805              		.section	.text.USB_HostInit,"ax",%progbits
 4806              		.align	1
 4807              		.global	USB_HostInit
 4808              		.syntax unified
 4809              		.thumb
 4810              		.thumb_func
 4811              		.fpu fpv4-sp-d16
 4813              	USB_HostInit:
 4814              	.LFB164:
1346:Drivers/STM32F4xx_HAL_Driver/Src/stm32f4xx_ll_usb.c **** 
1347:Drivers/STM32F4xx_HAL_Driver/Src/stm32f4xx_ll_usb.c **** /**
1348:Drivers/STM32F4xx_HAL_Driver/Src/stm32f4xx_ll_usb.c ****   * @brief  USB_HostInit : Initializes the USB OTG controller registers
1349:Drivers/STM32F4xx_HAL_Driver/Src/stm32f4xx_ll_usb.c ****   *         for Host mode
1350:Drivers/STM32F4xx_HAL_Driver/Src/stm32f4xx_ll_usb.c ****   * @param  USBx  Selected device
1351:Drivers/STM32F4xx_HAL_Driver/Src/stm32f4xx_ll_usb.c ****   * @param  cfg   pointer to a USB_OTG_CfgTypeDef structure that contains
1352:Drivers/STM32F4xx_HAL_Driver/Src/stm32f4xx_ll_usb.c ****   *         the configuration information for the specified USBx peripheral.
1353:Drivers/STM32F4xx_HAL_Driver/Src/stm32f4xx_ll_usb.c ****   * @retval HAL status
1354:Drivers/STM32F4xx_HAL_Driver/Src/stm32f4xx_ll_usb.c ****   */
1355:Drivers/STM32F4xx_HAL_Driver/Src/stm32f4xx_ll_usb.c **** HAL_StatusTypeDef USB_HostInit(USB_OTG_GlobalTypeDef *USBx, USB_OTG_CfgTypeDef cfg)
1356:Drivers/STM32F4xx_HAL_Driver/Src/stm32f4xx_ll_usb.c **** {
 4815              		.loc 1 1356 1
 4816              		.cfi_startproc
 4817              		@ args = 56, pretend = 16, frame = 16
 4818              		@ frame_needed = 1, uses_anonymous_args = 0
 4819 0000 84B0     		sub	sp, sp, #16
 4820              	.LCFI205:
 4821              		.cfi_def_cfa_offset 16
 4822 0002 80B5     		push	{r7, lr}
 4823              	.LCFI206:
 4824              		.cfi_def_cfa_offset 24
 4825              		.cfi_offset 7, -24
 4826              		.cfi_offset 14, -20
 4827 0004 84B0     		sub	sp, sp, #16
 4828              	.LCFI207:
 4829              		.cfi_def_cfa_offset 40
 4830 0006 00AF     		add	r7, sp, #0
 4831              	.LCFI208:
 4832              		.cfi_def_cfa_register 7
 4833 0008 7860     		str	r0, [r7, #4]
 4834 000a 07F11C00 		add	r0, r7, #28
 4835 000e 80E80E00 		stm	r0, {r1, r2, r3}
1357:Drivers/STM32F4xx_HAL_Driver/Src/stm32f4xx_ll_usb.c ****   uint32_t USBx_BASE = (uint32_t)USBx;
 4836              		.loc 1 1357 12
 4837 0012 7B68     		ldr	r3, [r7, #4]
 4838 0014 BB60     		str	r3, [r7, #8]
1358:Drivers/STM32F4xx_HAL_Driver/Src/stm32f4xx_ll_usb.c ****   uint32_t i;
1359:Drivers/STM32F4xx_HAL_Driver/Src/stm32f4xx_ll_usb.c **** 
1360:Drivers/STM32F4xx_HAL_Driver/Src/stm32f4xx_ll_usb.c ****   /* Restart the Phy Clock */
1361:Drivers/STM32F4xx_HAL_Driver/Src/stm32f4xx_ll_usb.c ****   USBx_PCGCCTL = 0U;
 4839              		.loc 1 1361 3
 4840 0016 BB68     		ldr	r3, [r7, #8]
 4841 0018 03F56063 		add	r3, r3, #3584
 4842 001c 1A46     		mov	r2, r3
ARM GAS  /var/folders/vq/qt4vp3kd5rxf7v2b6_fdtdt80000gn/T//ccjOke0W.s 			page 109


 4843              		.loc 1 1361 16
 4844 001e 0023     		movs	r3, #0
 4845 0020 1360     		str	r3, [r2]
1362:Drivers/STM32F4xx_HAL_Driver/Src/stm32f4xx_ll_usb.c **** 
1363:Drivers/STM32F4xx_HAL_Driver/Src/stm32f4xx_ll_usb.c **** #if defined(STM32F446xx) || defined(STM32F469xx) || defined(STM32F479xx) || defined(STM32F412Zx) ||
1364:Drivers/STM32F4xx_HAL_Driver/Src/stm32f4xx_ll_usb.c ****   /* Disable HW VBUS sensing */
1365:Drivers/STM32F4xx_HAL_Driver/Src/stm32f4xx_ll_usb.c ****   USBx->GCCFG &= ~(USB_OTG_GCCFG_VBDEN);
1366:Drivers/STM32F4xx_HAL_Driver/Src/stm32f4xx_ll_usb.c **** #else
1367:Drivers/STM32F4xx_HAL_Driver/Src/stm32f4xx_ll_usb.c ****   /*
1368:Drivers/STM32F4xx_HAL_Driver/Src/stm32f4xx_ll_usb.c ****   * Disable HW VBUS sensing. VBUS is internally considered to be always
1369:Drivers/STM32F4xx_HAL_Driver/Src/stm32f4xx_ll_usb.c ****   * at VBUS-Valid level (5V).
1370:Drivers/STM32F4xx_HAL_Driver/Src/stm32f4xx_ll_usb.c ****   */
1371:Drivers/STM32F4xx_HAL_Driver/Src/stm32f4xx_ll_usb.c ****   USBx->GCCFG |= USB_OTG_GCCFG_NOVBUSSENS;
 4846              		.loc 1 1371 15
 4847 0022 7B68     		ldr	r3, [r7, #4]
 4848 0024 9B6B     		ldr	r3, [r3, #56]
 4849 0026 43F40012 		orr	r2, r3, #2097152
 4850 002a 7B68     		ldr	r3, [r7, #4]
 4851 002c 9A63     		str	r2, [r3, #56]
1372:Drivers/STM32F4xx_HAL_Driver/Src/stm32f4xx_ll_usb.c ****   USBx->GCCFG &= ~USB_OTG_GCCFG_VBUSBSEN;
 4852              		.loc 1 1372 15
 4853 002e 7B68     		ldr	r3, [r7, #4]
 4854 0030 9B6B     		ldr	r3, [r3, #56]
 4855 0032 23F40022 		bic	r2, r3, #524288
 4856 0036 7B68     		ldr	r3, [r7, #4]
 4857 0038 9A63     		str	r2, [r3, #56]
1373:Drivers/STM32F4xx_HAL_Driver/Src/stm32f4xx_ll_usb.c ****   USBx->GCCFG &= ~USB_OTG_GCCFG_VBUSASEN;
 4858              		.loc 1 1373 15
 4859 003a 7B68     		ldr	r3, [r7, #4]
 4860 003c 9B6B     		ldr	r3, [r3, #56]
 4861 003e 23F48022 		bic	r2, r3, #262144
 4862 0042 7B68     		ldr	r3, [r7, #4]
 4863 0044 9A63     		str	r2, [r3, #56]
1374:Drivers/STM32F4xx_HAL_Driver/Src/stm32f4xx_ll_usb.c **** #endif /* defined(STM32F446xx) || defined(STM32F469xx) || defined(STM32F479xx) || defined(STM32F412
1375:Drivers/STM32F4xx_HAL_Driver/Src/stm32f4xx_ll_usb.c **** #if defined(STM32F412Zx) || defined(STM32F412Vx) || defined(STM32F412Rx) || defined(STM32F412Cx) ||
1376:Drivers/STM32F4xx_HAL_Driver/Src/stm32f4xx_ll_usb.c ****   /* Disable Battery chargin detector */
1377:Drivers/STM32F4xx_HAL_Driver/Src/stm32f4xx_ll_usb.c ****   USBx->GCCFG &= ~(USB_OTG_GCCFG_BCDEN);
1378:Drivers/STM32F4xx_HAL_Driver/Src/stm32f4xx_ll_usb.c **** #endif /* defined(STM32F412Zx) || defined(STM32F412Vx) || defined(STM32F412Rx) || defined(STM32F412
1379:Drivers/STM32F4xx_HAL_Driver/Src/stm32f4xx_ll_usb.c **** 
1380:Drivers/STM32F4xx_HAL_Driver/Src/stm32f4xx_ll_usb.c ****   if ((USBx->CID & (0x1U << 8)) != 0U)
 4864              		.loc 1 1380 12
 4865 0046 7B68     		ldr	r3, [r7, #4]
 4866 0048 DB6B     		ldr	r3, [r3, #60]
 4867              		.loc 1 1380 18
 4868 004a 03F48073 		and	r3, r3, #256
 4869              		.loc 1 1380 6
 4870 004e 002B     		cmp	r3, #0
 4871 0050 18D0     		beq	.L200
1381:Drivers/STM32F4xx_HAL_Driver/Src/stm32f4xx_ll_usb.c ****   {
1382:Drivers/STM32F4xx_HAL_Driver/Src/stm32f4xx_ll_usb.c ****     if (cfg.speed == USBH_FSLS_SPEED)
 4872              		.loc 1 1382 12
 4873 0052 7B6A     		ldr	r3, [r7, #36]
 4874              		.loc 1 1382 8
 4875 0054 012B     		cmp	r3, #1
 4876 0056 0AD1     		bne	.L201
1383:Drivers/STM32F4xx_HAL_Driver/Src/stm32f4xx_ll_usb.c ****     {
1384:Drivers/STM32F4xx_HAL_Driver/Src/stm32f4xx_ll_usb.c ****       /* Force Device Enumeration to FS/LS mode only */
ARM GAS  /var/folders/vq/qt4vp3kd5rxf7v2b6_fdtdt80000gn/T//ccjOke0W.s 			page 110


1385:Drivers/STM32F4xx_HAL_Driver/Src/stm32f4xx_ll_usb.c ****       USBx_HOST->HCFG |= USB_OTG_HCFG_FSLSS;
 4877              		.loc 1 1385 23
 4878 0058 BB68     		ldr	r3, [r7, #8]
 4879 005a 03F58063 		add	r3, r3, #1024
 4880 005e 1B68     		ldr	r3, [r3]
 4881 0060 BA68     		ldr	r2, [r7, #8]
 4882 0062 02F58062 		add	r2, r2, #1024
 4883 0066 43F00403 		orr	r3, r3, #4
 4884 006a 1360     		str	r3, [r2]
 4885 006c 14E0     		b	.L202
 4886              	.L201:
1386:Drivers/STM32F4xx_HAL_Driver/Src/stm32f4xx_ll_usb.c ****     }
1387:Drivers/STM32F4xx_HAL_Driver/Src/stm32f4xx_ll_usb.c ****     else
1388:Drivers/STM32F4xx_HAL_Driver/Src/stm32f4xx_ll_usb.c ****     {
1389:Drivers/STM32F4xx_HAL_Driver/Src/stm32f4xx_ll_usb.c ****       /* Set default Max speed support */
1390:Drivers/STM32F4xx_HAL_Driver/Src/stm32f4xx_ll_usb.c ****       USBx_HOST->HCFG &= ~(USB_OTG_HCFG_FSLSS);
 4887              		.loc 1 1390 23
 4888 006e BB68     		ldr	r3, [r7, #8]
 4889 0070 03F58063 		add	r3, r3, #1024
 4890 0074 1B68     		ldr	r3, [r3]
 4891 0076 BA68     		ldr	r2, [r7, #8]
 4892 0078 02F58062 		add	r2, r2, #1024
 4893 007c 23F00403 		bic	r3, r3, #4
 4894 0080 1360     		str	r3, [r2]
 4895 0082 09E0     		b	.L202
 4896              	.L200:
1391:Drivers/STM32F4xx_HAL_Driver/Src/stm32f4xx_ll_usb.c ****     }
1392:Drivers/STM32F4xx_HAL_Driver/Src/stm32f4xx_ll_usb.c ****   }
1393:Drivers/STM32F4xx_HAL_Driver/Src/stm32f4xx_ll_usb.c ****   else
1394:Drivers/STM32F4xx_HAL_Driver/Src/stm32f4xx_ll_usb.c ****   {
1395:Drivers/STM32F4xx_HAL_Driver/Src/stm32f4xx_ll_usb.c ****     /* Set default Max speed support */
1396:Drivers/STM32F4xx_HAL_Driver/Src/stm32f4xx_ll_usb.c ****     USBx_HOST->HCFG &= ~(USB_OTG_HCFG_FSLSS);
 4897              		.loc 1 1396 21
 4898 0084 BB68     		ldr	r3, [r7, #8]
 4899 0086 03F58063 		add	r3, r3, #1024
 4900 008a 1B68     		ldr	r3, [r3]
 4901 008c BA68     		ldr	r2, [r7, #8]
 4902 008e 02F58062 		add	r2, r2, #1024
 4903 0092 23F00403 		bic	r3, r3, #4
 4904 0096 1360     		str	r3, [r2]
 4905              	.L202:
1397:Drivers/STM32F4xx_HAL_Driver/Src/stm32f4xx_ll_usb.c ****   }
1398:Drivers/STM32F4xx_HAL_Driver/Src/stm32f4xx_ll_usb.c **** 
1399:Drivers/STM32F4xx_HAL_Driver/Src/stm32f4xx_ll_usb.c ****   /* Make sure the FIFOs are flushed. */
1400:Drivers/STM32F4xx_HAL_Driver/Src/stm32f4xx_ll_usb.c ****   (void)USB_FlushTxFifo(USBx, 0x10U); /* all Tx FIFOs */
 4906              		.loc 1 1400 9
 4907 0098 1021     		movs	r1, #16
 4908 009a 7868     		ldr	r0, [r7, #4]
 4909 009c FFF7FEFF 		bl	USB_FlushTxFifo
1401:Drivers/STM32F4xx_HAL_Driver/Src/stm32f4xx_ll_usb.c ****   (void)USB_FlushRxFifo(USBx);
 4910              		.loc 1 1401 9
 4911 00a0 7868     		ldr	r0, [r7, #4]
 4912 00a2 FFF7FEFF 		bl	USB_FlushRxFifo
1402:Drivers/STM32F4xx_HAL_Driver/Src/stm32f4xx_ll_usb.c **** 
1403:Drivers/STM32F4xx_HAL_Driver/Src/stm32f4xx_ll_usb.c ****   /* Clear all pending HC Interrupts */
1404:Drivers/STM32F4xx_HAL_Driver/Src/stm32f4xx_ll_usb.c ****   for (i = 0U; i < cfg.Host_channels; i++)
 4913              		.loc 1 1404 10
ARM GAS  /var/folders/vq/qt4vp3kd5rxf7v2b6_fdtdt80000gn/T//ccjOke0W.s 			page 111


 4914 00a6 0023     		movs	r3, #0
 4915 00a8 FB60     		str	r3, [r7, #12]
 4916              		.loc 1 1404 3
 4917 00aa 15E0     		b	.L203
 4918              	.L204:
1405:Drivers/STM32F4xx_HAL_Driver/Src/stm32f4xx_ll_usb.c ****   {
1406:Drivers/STM32F4xx_HAL_Driver/Src/stm32f4xx_ll_usb.c ****     USBx_HC(i)->HCINT = 0xFFFFFFFFU;
 4919              		.loc 1 1406 5 discriminator 3
 4920 00ac FB68     		ldr	r3, [r7, #12]
 4921 00ae 5A01     		lsls	r2, r3, #5
 4922 00b0 BB68     		ldr	r3, [r7, #8]
 4923 00b2 1344     		add	r3, r3, r2
 4924 00b4 03F5A063 		add	r3, r3, #1280
 4925 00b8 1A46     		mov	r2, r3
 4926              		.loc 1 1406 23 discriminator 3
 4927 00ba 4FF0FF33 		mov	r3, #-1
 4928 00be 9360     		str	r3, [r2, #8]
1407:Drivers/STM32F4xx_HAL_Driver/Src/stm32f4xx_ll_usb.c ****     USBx_HC(i)->HCINTMSK = 0U;
 4929              		.loc 1 1407 5 discriminator 3
 4930 00c0 FB68     		ldr	r3, [r7, #12]
 4931 00c2 5A01     		lsls	r2, r3, #5
 4932 00c4 BB68     		ldr	r3, [r7, #8]
 4933 00c6 1344     		add	r3, r3, r2
 4934 00c8 03F5A063 		add	r3, r3, #1280
 4935 00cc 1A46     		mov	r2, r3
 4936              		.loc 1 1407 26 discriminator 3
 4937 00ce 0023     		movs	r3, #0
 4938 00d0 D360     		str	r3, [r2, #12]
1404:Drivers/STM32F4xx_HAL_Driver/Src/stm32f4xx_ll_usb.c ****   {
 4939              		.loc 1 1404 40 discriminator 3
 4940 00d2 FB68     		ldr	r3, [r7, #12]
 4941 00d4 0133     		adds	r3, r3, #1
 4942 00d6 FB60     		str	r3, [r7, #12]
 4943              	.L203:
1404:Drivers/STM32F4xx_HAL_Driver/Src/stm32f4xx_ll_usb.c ****   {
 4944              		.loc 1 1404 23 discriminator 1
 4945 00d8 3B6A     		ldr	r3, [r7, #32]
1404:Drivers/STM32F4xx_HAL_Driver/Src/stm32f4xx_ll_usb.c ****   {
 4946              		.loc 1 1404 3 discriminator 1
 4947 00da FA68     		ldr	r2, [r7, #12]
 4948 00dc 9A42     		cmp	r2, r3
 4949 00de E5D3     		bcc	.L204
1408:Drivers/STM32F4xx_HAL_Driver/Src/stm32f4xx_ll_usb.c ****   }
1409:Drivers/STM32F4xx_HAL_Driver/Src/stm32f4xx_ll_usb.c **** 
1410:Drivers/STM32F4xx_HAL_Driver/Src/stm32f4xx_ll_usb.c ****   /* Enable VBUS driving */
1411:Drivers/STM32F4xx_HAL_Driver/Src/stm32f4xx_ll_usb.c ****   (void)USB_DriveVbus(USBx, 1U);
 4950              		.loc 1 1411 9
 4951 00e0 0121     		movs	r1, #1
 4952 00e2 7868     		ldr	r0, [r7, #4]
 4953 00e4 FFF7FEFF 		bl	USB_DriveVbus
1412:Drivers/STM32F4xx_HAL_Driver/Src/stm32f4xx_ll_usb.c **** 
1413:Drivers/STM32F4xx_HAL_Driver/Src/stm32f4xx_ll_usb.c ****   HAL_Delay(200U);
 4954              		.loc 1 1413 3
 4955 00e8 C820     		movs	r0, #200
 4956 00ea FFF7FEFF 		bl	HAL_Delay
1414:Drivers/STM32F4xx_HAL_Driver/Src/stm32f4xx_ll_usb.c **** 
1415:Drivers/STM32F4xx_HAL_Driver/Src/stm32f4xx_ll_usb.c ****   /* Disable all interrupts. */
ARM GAS  /var/folders/vq/qt4vp3kd5rxf7v2b6_fdtdt80000gn/T//ccjOke0W.s 			page 112


1416:Drivers/STM32F4xx_HAL_Driver/Src/stm32f4xx_ll_usb.c ****   USBx->GINTMSK = 0U;
 4957              		.loc 1 1416 17
 4958 00ee 7B68     		ldr	r3, [r7, #4]
 4959 00f0 0022     		movs	r2, #0
 4960 00f2 9A61     		str	r2, [r3, #24]
1417:Drivers/STM32F4xx_HAL_Driver/Src/stm32f4xx_ll_usb.c **** 
1418:Drivers/STM32F4xx_HAL_Driver/Src/stm32f4xx_ll_usb.c ****   /* Clear any pending interrupts */
1419:Drivers/STM32F4xx_HAL_Driver/Src/stm32f4xx_ll_usb.c ****   USBx->GINTSTS = 0xFFFFFFFFU;
 4961              		.loc 1 1419 17
 4962 00f4 7B68     		ldr	r3, [r7, #4]
 4963 00f6 4FF0FF32 		mov	r2, #-1
 4964 00fa 5A61     		str	r2, [r3, #20]
1420:Drivers/STM32F4xx_HAL_Driver/Src/stm32f4xx_ll_usb.c **** 
1421:Drivers/STM32F4xx_HAL_Driver/Src/stm32f4xx_ll_usb.c ****   if ((USBx->CID & (0x1U << 8)) != 0U)
 4965              		.loc 1 1421 12
 4966 00fc 7B68     		ldr	r3, [r7, #4]
 4967 00fe DB6B     		ldr	r3, [r3, #60]
 4968              		.loc 1 1421 18
 4969 0100 03F48073 		and	r3, r3, #256
 4970              		.loc 1 1421 6
 4971 0104 002B     		cmp	r3, #0
 4972 0106 0BD0     		beq	.L205
1422:Drivers/STM32F4xx_HAL_Driver/Src/stm32f4xx_ll_usb.c ****   {
1423:Drivers/STM32F4xx_HAL_Driver/Src/stm32f4xx_ll_usb.c ****     /* set Rx FIFO size */
1424:Drivers/STM32F4xx_HAL_Driver/Src/stm32f4xx_ll_usb.c ****     USBx->GRXFSIZ  = 0x200U;
 4973              		.loc 1 1424 20
 4974 0108 7B68     		ldr	r3, [r7, #4]
 4975 010a 4FF40072 		mov	r2, #512
 4976 010e 5A62     		str	r2, [r3, #36]
1425:Drivers/STM32F4xx_HAL_Driver/Src/stm32f4xx_ll_usb.c ****     USBx->DIEPTXF0_HNPTXFSIZ = (uint32_t)(((0x100U << 16) & USB_OTG_NPTXFD) | 0x200U);
 4977              		.loc 1 1425 30
 4978 0110 7B68     		ldr	r3, [r7, #4]
 4979 0112 144A     		ldr	r2, .L209
 4980 0114 9A62     		str	r2, [r3, #40]
1426:Drivers/STM32F4xx_HAL_Driver/Src/stm32f4xx_ll_usb.c ****     USBx->HPTXFSIZ = (uint32_t)(((0xE0U << 16) & USB_OTG_HPTXFSIZ_PTXFD) | 0x300U);
 4981              		.loc 1 1426 20
 4982 0116 7B68     		ldr	r3, [r7, #4]
 4983 0118 134A     		ldr	r2, .L209+4
 4984 011a C3F80021 		str	r2, [r3, #256]
 4985 011e 09E0     		b	.L206
 4986              	.L205:
1427:Drivers/STM32F4xx_HAL_Driver/Src/stm32f4xx_ll_usb.c ****   }
1428:Drivers/STM32F4xx_HAL_Driver/Src/stm32f4xx_ll_usb.c ****   else
1429:Drivers/STM32F4xx_HAL_Driver/Src/stm32f4xx_ll_usb.c ****   {
1430:Drivers/STM32F4xx_HAL_Driver/Src/stm32f4xx_ll_usb.c ****     /* set Rx FIFO size */
1431:Drivers/STM32F4xx_HAL_Driver/Src/stm32f4xx_ll_usb.c ****     USBx->GRXFSIZ  = 0x80U;
 4987              		.loc 1 1431 20
 4988 0120 7B68     		ldr	r3, [r7, #4]
 4989 0122 8022     		movs	r2, #128
 4990 0124 5A62     		str	r2, [r3, #36]
1432:Drivers/STM32F4xx_HAL_Driver/Src/stm32f4xx_ll_usb.c ****     USBx->DIEPTXF0_HNPTXFSIZ = (uint32_t)(((0x60U << 16) & USB_OTG_NPTXFD) | 0x80U);
 4991              		.loc 1 1432 30
 4992 0126 7B68     		ldr	r3, [r7, #4]
 4993 0128 104A     		ldr	r2, .L209+8
 4994 012a 9A62     		str	r2, [r3, #40]
1433:Drivers/STM32F4xx_HAL_Driver/Src/stm32f4xx_ll_usb.c ****     USBx->HPTXFSIZ = (uint32_t)(((0x40U << 16)& USB_OTG_HPTXFSIZ_PTXFD) | 0xE0U);
 4995              		.loc 1 1433 20
ARM GAS  /var/folders/vq/qt4vp3kd5rxf7v2b6_fdtdt80000gn/T//ccjOke0W.s 			page 113


 4996 012c 7B68     		ldr	r3, [r7, #4]
 4997 012e 104A     		ldr	r2, .L209+12
 4998 0130 C3F80021 		str	r2, [r3, #256]
 4999              	.L206:
1434:Drivers/STM32F4xx_HAL_Driver/Src/stm32f4xx_ll_usb.c ****   }
1435:Drivers/STM32F4xx_HAL_Driver/Src/stm32f4xx_ll_usb.c **** 
1436:Drivers/STM32F4xx_HAL_Driver/Src/stm32f4xx_ll_usb.c ****   /* Enable the common interrupts */
1437:Drivers/STM32F4xx_HAL_Driver/Src/stm32f4xx_ll_usb.c ****   if (cfg.dma_enable == 0U)
 5000              		.loc 1 1437 10
 5001 0134 BB6A     		ldr	r3, [r7, #40]
 5002              		.loc 1 1437 6
 5003 0136 002B     		cmp	r3, #0
 5004 0138 05D1     		bne	.L207
1438:Drivers/STM32F4xx_HAL_Driver/Src/stm32f4xx_ll_usb.c ****   {
1439:Drivers/STM32F4xx_HAL_Driver/Src/stm32f4xx_ll_usb.c ****     USBx->GINTMSK |= USB_OTG_GINTMSK_RXFLVLM;
 5005              		.loc 1 1439 19
 5006 013a 7B68     		ldr	r3, [r7, #4]
 5007 013c 9B69     		ldr	r3, [r3, #24]
 5008 013e 43F01002 		orr	r2, r3, #16
 5009 0142 7B68     		ldr	r3, [r7, #4]
 5010 0144 9A61     		str	r2, [r3, #24]
 5011              	.L207:
1440:Drivers/STM32F4xx_HAL_Driver/Src/stm32f4xx_ll_usb.c ****   }
1441:Drivers/STM32F4xx_HAL_Driver/Src/stm32f4xx_ll_usb.c **** 
1442:Drivers/STM32F4xx_HAL_Driver/Src/stm32f4xx_ll_usb.c ****   /* Enable interrupts matching to the Host mode ONLY */
1443:Drivers/STM32F4xx_HAL_Driver/Src/stm32f4xx_ll_usb.c ****   USBx->GINTMSK |= (USB_OTG_GINTMSK_PRTIM            | USB_OTG_GINTMSK_HCIM | \
 5012              		.loc 1 1443 17
 5013 0146 7B68     		ldr	r3, [r7, #4]
 5014 0148 9A69     		ldr	r2, [r3, #24]
 5015 014a 0A4B     		ldr	r3, .L209+16
 5016 014c 1343     		orrs	r3, r3, r2
 5017 014e 7A68     		ldr	r2, [r7, #4]
 5018 0150 9361     		str	r3, [r2, #24]
1444:Drivers/STM32F4xx_HAL_Driver/Src/stm32f4xx_ll_usb.c ****                     USB_OTG_GINTMSK_SOFM             | USB_OTG_GINTSTS_DISCINT | \
1445:Drivers/STM32F4xx_HAL_Driver/Src/stm32f4xx_ll_usb.c ****                     USB_OTG_GINTMSK_PXFRM_IISOOXFRM  | USB_OTG_GINTMSK_WUIM);
1446:Drivers/STM32F4xx_HAL_Driver/Src/stm32f4xx_ll_usb.c **** 
1447:Drivers/STM32F4xx_HAL_Driver/Src/stm32f4xx_ll_usb.c ****   return HAL_OK;
 5019              		.loc 1 1447 10
 5020 0152 0023     		movs	r3, #0
1448:Drivers/STM32F4xx_HAL_Driver/Src/stm32f4xx_ll_usb.c **** }
 5021              		.loc 1 1448 1
 5022 0154 1846     		mov	r0, r3
 5023 0156 1037     		adds	r7, r7, #16
 5024              	.LCFI209:
 5025              		.cfi_def_cfa_offset 24
 5026 0158 BD46     		mov	sp, r7
 5027              	.LCFI210:
 5028              		.cfi_def_cfa_register 13
 5029              		@ sp needed
 5030 015a BDE88040 		pop	{r7, lr}
 5031              	.LCFI211:
 5032              		.cfi_restore 14
 5033              		.cfi_restore 7
 5034              		.cfi_def_cfa_offset 16
 5035 015e 04B0     		add	sp, sp, #16
 5036              	.LCFI212:
 5037              		.cfi_def_cfa_offset 0
ARM GAS  /var/folders/vq/qt4vp3kd5rxf7v2b6_fdtdt80000gn/T//ccjOke0W.s 			page 114


 5038 0160 7047     		bx	lr
 5039              	.L210:
 5040 0162 00BF     		.align	2
 5041              	.L209:
 5042 0164 00020001 		.word	16777728
 5043 0168 0003E000 		.word	14680832
 5044 016c 80006000 		.word	6291584
 5045 0170 E0004000 		.word	4194528
 5046 0174 080020A3 		.word	-1558183928
 5047              		.cfi_endproc
 5048              	.LFE164:
 5050              		.section	.text.USB_InitFSLSPClkSel,"ax",%progbits
 5051              		.align	1
 5052              		.global	USB_InitFSLSPClkSel
 5053              		.syntax unified
 5054              		.thumb
 5055              		.thumb_func
 5056              		.fpu fpv4-sp-d16
 5058              	USB_InitFSLSPClkSel:
 5059              	.LFB165:
1449:Drivers/STM32F4xx_HAL_Driver/Src/stm32f4xx_ll_usb.c **** 
1450:Drivers/STM32F4xx_HAL_Driver/Src/stm32f4xx_ll_usb.c **** /**
1451:Drivers/STM32F4xx_HAL_Driver/Src/stm32f4xx_ll_usb.c ****   * @brief  USB_InitFSLSPClkSel : Initializes the FSLSPClkSel field of the
1452:Drivers/STM32F4xx_HAL_Driver/Src/stm32f4xx_ll_usb.c ****   *         HCFG register on the PHY type and set the right frame interval
1453:Drivers/STM32F4xx_HAL_Driver/Src/stm32f4xx_ll_usb.c ****   * @param  USBx  Selected device
1454:Drivers/STM32F4xx_HAL_Driver/Src/stm32f4xx_ll_usb.c ****   * @param  freq  clock frequency
1455:Drivers/STM32F4xx_HAL_Driver/Src/stm32f4xx_ll_usb.c ****   *          This parameter can be one of these values:
1456:Drivers/STM32F4xx_HAL_Driver/Src/stm32f4xx_ll_usb.c ****   *           HCFG_48_MHZ : Full Speed 48 MHz Clock
1457:Drivers/STM32F4xx_HAL_Driver/Src/stm32f4xx_ll_usb.c ****   *           HCFG_6_MHZ : Low Speed 6 MHz Clock
1458:Drivers/STM32F4xx_HAL_Driver/Src/stm32f4xx_ll_usb.c ****   * @retval HAL status
1459:Drivers/STM32F4xx_HAL_Driver/Src/stm32f4xx_ll_usb.c ****   */
1460:Drivers/STM32F4xx_HAL_Driver/Src/stm32f4xx_ll_usb.c **** HAL_StatusTypeDef USB_InitFSLSPClkSel(USB_OTG_GlobalTypeDef *USBx, uint8_t freq)
1461:Drivers/STM32F4xx_HAL_Driver/Src/stm32f4xx_ll_usb.c **** {
 5060              		.loc 1 1461 1
 5061              		.cfi_startproc
 5062              		@ args = 0, pretend = 0, frame = 16
 5063              		@ frame_needed = 1, uses_anonymous_args = 0
 5064              		@ link register save eliminated.
 5065 0000 80B4     		push	{r7}
 5066              	.LCFI213:
 5067              		.cfi_def_cfa_offset 4
 5068              		.cfi_offset 7, -4
 5069 0002 85B0     		sub	sp, sp, #20
 5070              	.LCFI214:
 5071              		.cfi_def_cfa_offset 24
 5072 0004 00AF     		add	r7, sp, #0
 5073              	.LCFI215:
 5074              		.cfi_def_cfa_register 7
 5075 0006 7860     		str	r0, [r7, #4]
 5076 0008 0B46     		mov	r3, r1
 5077 000a FB70     		strb	r3, [r7, #3]
1462:Drivers/STM32F4xx_HAL_Driver/Src/stm32f4xx_ll_usb.c ****   uint32_t USBx_BASE = (uint32_t)USBx;
 5078              		.loc 1 1462 12
 5079 000c 7B68     		ldr	r3, [r7, #4]
 5080 000e FB60     		str	r3, [r7, #12]
1463:Drivers/STM32F4xx_HAL_Driver/Src/stm32f4xx_ll_usb.c **** 
1464:Drivers/STM32F4xx_HAL_Driver/Src/stm32f4xx_ll_usb.c ****   USBx_HOST->HCFG &= ~(USB_OTG_HCFG_FSLSPCS);
ARM GAS  /var/folders/vq/qt4vp3kd5rxf7v2b6_fdtdt80000gn/T//ccjOke0W.s 			page 115


 5081              		.loc 1 1464 19
 5082 0010 FB68     		ldr	r3, [r7, #12]
 5083 0012 03F58063 		add	r3, r3, #1024
 5084 0016 1B68     		ldr	r3, [r3]
 5085 0018 FA68     		ldr	r2, [r7, #12]
 5086 001a 02F58062 		add	r2, r2, #1024
 5087 001e 23F00303 		bic	r3, r3, #3
 5088 0022 1360     		str	r3, [r2]
1465:Drivers/STM32F4xx_HAL_Driver/Src/stm32f4xx_ll_usb.c ****   USBx_HOST->HCFG |= (uint32_t)freq & USB_OTG_HCFG_FSLSPCS;
 5089              		.loc 1 1465 19
 5090 0024 FB68     		ldr	r3, [r7, #12]
 5091 0026 03F58063 		add	r3, r3, #1024
 5092 002a 1A68     		ldr	r2, [r3]
 5093              		.loc 1 1465 37
 5094 002c FB78     		ldrb	r3, [r7, #3]	@ zero_extendqisi2
 5095 002e 03F00303 		and	r3, r3, #3
 5096              		.loc 1 1465 19
 5097 0032 F968     		ldr	r1, [r7, #12]
 5098 0034 01F58061 		add	r1, r1, #1024
 5099 0038 1343     		orrs	r3, r3, r2
 5100 003a 0B60     		str	r3, [r1]
1466:Drivers/STM32F4xx_HAL_Driver/Src/stm32f4xx_ll_usb.c **** 
1467:Drivers/STM32F4xx_HAL_Driver/Src/stm32f4xx_ll_usb.c ****   if (freq == HCFG_48_MHZ)
 5101              		.loc 1 1467 6
 5102 003c FB78     		ldrb	r3, [r7, #3]	@ zero_extendqisi2
 5103 003e 012B     		cmp	r3, #1
 5104 0040 07D1     		bne	.L212
1468:Drivers/STM32F4xx_HAL_Driver/Src/stm32f4xx_ll_usb.c ****   {
1469:Drivers/STM32F4xx_HAL_Driver/Src/stm32f4xx_ll_usb.c ****     USBx_HOST->HFIR = 48000U;
 5105              		.loc 1 1469 5
 5106 0042 FB68     		ldr	r3, [r7, #12]
 5107 0044 03F58063 		add	r3, r3, #1024
 5108 0048 1A46     		mov	r2, r3
 5109              		.loc 1 1469 21
 5110 004a 4BF68033 		movw	r3, #48000
 5111 004e 5360     		str	r3, [r2, #4]
 5112 0050 09E0     		b	.L213
 5113              	.L212:
1470:Drivers/STM32F4xx_HAL_Driver/Src/stm32f4xx_ll_usb.c ****   }
1471:Drivers/STM32F4xx_HAL_Driver/Src/stm32f4xx_ll_usb.c ****   else if (freq == HCFG_6_MHZ)
 5114              		.loc 1 1471 11
 5115 0052 FB78     		ldrb	r3, [r7, #3]	@ zero_extendqisi2
 5116 0054 022B     		cmp	r3, #2
 5117 0056 06D1     		bne	.L213
1472:Drivers/STM32F4xx_HAL_Driver/Src/stm32f4xx_ll_usb.c ****   {
1473:Drivers/STM32F4xx_HAL_Driver/Src/stm32f4xx_ll_usb.c ****     USBx_HOST->HFIR = 6000U;
 5118              		.loc 1 1473 5
 5119 0058 FB68     		ldr	r3, [r7, #12]
 5120 005a 03F58063 		add	r3, r3, #1024
 5121 005e 1A46     		mov	r2, r3
 5122              		.loc 1 1473 21
 5123 0060 41F27073 		movw	r3, #6000
 5124 0064 5360     		str	r3, [r2, #4]
 5125              	.L213:
1474:Drivers/STM32F4xx_HAL_Driver/Src/stm32f4xx_ll_usb.c ****   }
1475:Drivers/STM32F4xx_HAL_Driver/Src/stm32f4xx_ll_usb.c ****   else
1476:Drivers/STM32F4xx_HAL_Driver/Src/stm32f4xx_ll_usb.c ****   {
ARM GAS  /var/folders/vq/qt4vp3kd5rxf7v2b6_fdtdt80000gn/T//ccjOke0W.s 			page 116


1477:Drivers/STM32F4xx_HAL_Driver/Src/stm32f4xx_ll_usb.c ****     /* ... */
1478:Drivers/STM32F4xx_HAL_Driver/Src/stm32f4xx_ll_usb.c ****   }
1479:Drivers/STM32F4xx_HAL_Driver/Src/stm32f4xx_ll_usb.c **** 
1480:Drivers/STM32F4xx_HAL_Driver/Src/stm32f4xx_ll_usb.c ****   return HAL_OK;
 5126              		.loc 1 1480 10
 5127 0066 0023     		movs	r3, #0
1481:Drivers/STM32F4xx_HAL_Driver/Src/stm32f4xx_ll_usb.c **** }
 5128              		.loc 1 1481 1
 5129 0068 1846     		mov	r0, r3
 5130 006a 1437     		adds	r7, r7, #20
 5131              	.LCFI216:
 5132              		.cfi_def_cfa_offset 4
 5133 006c BD46     		mov	sp, r7
 5134              	.LCFI217:
 5135              		.cfi_def_cfa_register 13
 5136              		@ sp needed
 5137 006e 5DF8047B 		ldr	r7, [sp], #4
 5138              	.LCFI218:
 5139              		.cfi_restore 7
 5140              		.cfi_def_cfa_offset 0
 5141 0072 7047     		bx	lr
 5142              		.cfi_endproc
 5143              	.LFE165:
 5145              		.section	.text.USB_ResetPort,"ax",%progbits
 5146              		.align	1
 5147              		.global	USB_ResetPort
 5148              		.syntax unified
 5149              		.thumb
 5150              		.thumb_func
 5151              		.fpu fpv4-sp-d16
 5153              	USB_ResetPort:
 5154              	.LFB166:
1482:Drivers/STM32F4xx_HAL_Driver/Src/stm32f4xx_ll_usb.c **** 
1483:Drivers/STM32F4xx_HAL_Driver/Src/stm32f4xx_ll_usb.c **** /**
1484:Drivers/STM32F4xx_HAL_Driver/Src/stm32f4xx_ll_usb.c ****   * @brief  USB_OTG_ResetPort : Reset Host Port
1485:Drivers/STM32F4xx_HAL_Driver/Src/stm32f4xx_ll_usb.c ****   * @param  USBx  Selected device
1486:Drivers/STM32F4xx_HAL_Driver/Src/stm32f4xx_ll_usb.c ****   * @retval HAL status
1487:Drivers/STM32F4xx_HAL_Driver/Src/stm32f4xx_ll_usb.c ****   * @note (1)The application must wait at least 10 ms
1488:Drivers/STM32F4xx_HAL_Driver/Src/stm32f4xx_ll_usb.c ****   *   before clearing the reset bit.
1489:Drivers/STM32F4xx_HAL_Driver/Src/stm32f4xx_ll_usb.c ****   */
1490:Drivers/STM32F4xx_HAL_Driver/Src/stm32f4xx_ll_usb.c **** HAL_StatusTypeDef USB_ResetPort(USB_OTG_GlobalTypeDef *USBx)
1491:Drivers/STM32F4xx_HAL_Driver/Src/stm32f4xx_ll_usb.c **** {
 5155              		.loc 1 1491 1
 5156              		.cfi_startproc
 5157              		@ args = 0, pretend = 0, frame = 16
 5158              		@ frame_needed = 1, uses_anonymous_args = 0
 5159 0000 80B5     		push	{r7, lr}
 5160              	.LCFI219:
 5161              		.cfi_def_cfa_offset 8
 5162              		.cfi_offset 7, -8
 5163              		.cfi_offset 14, -4
 5164 0002 84B0     		sub	sp, sp, #16
 5165              	.LCFI220:
 5166              		.cfi_def_cfa_offset 24
 5167 0004 00AF     		add	r7, sp, #0
 5168              	.LCFI221:
 5169              		.cfi_def_cfa_register 7
ARM GAS  /var/folders/vq/qt4vp3kd5rxf7v2b6_fdtdt80000gn/T//ccjOke0W.s 			page 117


 5170 0006 7860     		str	r0, [r7, #4]
1492:Drivers/STM32F4xx_HAL_Driver/Src/stm32f4xx_ll_usb.c ****   uint32_t USBx_BASE = (uint32_t)USBx;
 5171              		.loc 1 1492 12
 5172 0008 7B68     		ldr	r3, [r7, #4]
 5173 000a FB60     		str	r3, [r7, #12]
1493:Drivers/STM32F4xx_HAL_Driver/Src/stm32f4xx_ll_usb.c **** 
1494:Drivers/STM32F4xx_HAL_Driver/Src/stm32f4xx_ll_usb.c ****   __IO uint32_t hprt0 = 0U;
 5174              		.loc 1 1494 17
 5175 000c 0023     		movs	r3, #0
 5176 000e BB60     		str	r3, [r7, #8]
1495:Drivers/STM32F4xx_HAL_Driver/Src/stm32f4xx_ll_usb.c **** 
1496:Drivers/STM32F4xx_HAL_Driver/Src/stm32f4xx_ll_usb.c ****   hprt0 = USBx_HPRT0;
 5177              		.loc 1 1496 11
 5178 0010 FB68     		ldr	r3, [r7, #12]
 5179 0012 03F58863 		add	r3, r3, #1088
 5180 0016 1B68     		ldr	r3, [r3]
 5181              		.loc 1 1496 9
 5182 0018 BB60     		str	r3, [r7, #8]
1497:Drivers/STM32F4xx_HAL_Driver/Src/stm32f4xx_ll_usb.c **** 
1498:Drivers/STM32F4xx_HAL_Driver/Src/stm32f4xx_ll_usb.c ****   hprt0 &= ~(USB_OTG_HPRT_PENA | USB_OTG_HPRT_PCDET |
 5183              		.loc 1 1498 9
 5184 001a BB68     		ldr	r3, [r7, #8]
 5185 001c 23F02E03 		bic	r3, r3, #46
 5186 0020 BB60     		str	r3, [r7, #8]
1499:Drivers/STM32F4xx_HAL_Driver/Src/stm32f4xx_ll_usb.c ****              USB_OTG_HPRT_PENCHNG | USB_OTG_HPRT_POCCHNG);
1500:Drivers/STM32F4xx_HAL_Driver/Src/stm32f4xx_ll_usb.c **** 
1501:Drivers/STM32F4xx_HAL_Driver/Src/stm32f4xx_ll_usb.c ****   USBx_HPRT0 = (USB_OTG_HPRT_PRST | hprt0);
 5187              		.loc 1 1501 35
 5188 0022 BB68     		ldr	r3, [r7, #8]
 5189              		.loc 1 1501 3
 5190 0024 FA68     		ldr	r2, [r7, #12]
 5191 0026 02F58862 		add	r2, r2, #1088
 5192              		.loc 1 1501 35
 5193 002a 43F48073 		orr	r3, r3, #256
 5194              		.loc 1 1501 14
 5195 002e 1360     		str	r3, [r2]
1502:Drivers/STM32F4xx_HAL_Driver/Src/stm32f4xx_ll_usb.c ****   HAL_Delay(100U);                                 /* See Note #1 */
 5196              		.loc 1 1502 3
 5197 0030 6420     		movs	r0, #100
 5198 0032 FFF7FEFF 		bl	HAL_Delay
1503:Drivers/STM32F4xx_HAL_Driver/Src/stm32f4xx_ll_usb.c ****   USBx_HPRT0 = ((~USB_OTG_HPRT_PRST) & hprt0);
 5199              		.loc 1 1503 38
 5200 0036 BB68     		ldr	r3, [r7, #8]
 5201              		.loc 1 1503 3
 5202 0038 FA68     		ldr	r2, [r7, #12]
 5203 003a 02F58862 		add	r2, r2, #1088
 5204              		.loc 1 1503 38
 5205 003e 23F48073 		bic	r3, r3, #256
 5206              		.loc 1 1503 14
 5207 0042 1360     		str	r3, [r2]
1504:Drivers/STM32F4xx_HAL_Driver/Src/stm32f4xx_ll_usb.c ****   HAL_Delay(10U);
 5208              		.loc 1 1504 3
 5209 0044 0A20     		movs	r0, #10
 5210 0046 FFF7FEFF 		bl	HAL_Delay
1505:Drivers/STM32F4xx_HAL_Driver/Src/stm32f4xx_ll_usb.c **** 
1506:Drivers/STM32F4xx_HAL_Driver/Src/stm32f4xx_ll_usb.c ****   return HAL_OK;
 5211              		.loc 1 1506 10
ARM GAS  /var/folders/vq/qt4vp3kd5rxf7v2b6_fdtdt80000gn/T//ccjOke0W.s 			page 118


 5212 004a 0023     		movs	r3, #0
1507:Drivers/STM32F4xx_HAL_Driver/Src/stm32f4xx_ll_usb.c **** }
 5213              		.loc 1 1507 1
 5214 004c 1846     		mov	r0, r3
 5215 004e 1037     		adds	r7, r7, #16
 5216              	.LCFI222:
 5217              		.cfi_def_cfa_offset 8
 5218 0050 BD46     		mov	sp, r7
 5219              	.LCFI223:
 5220              		.cfi_def_cfa_register 13
 5221              		@ sp needed
 5222 0052 80BD     		pop	{r7, pc}
 5223              		.cfi_endproc
 5224              	.LFE166:
 5226              		.section	.text.USB_DriveVbus,"ax",%progbits
 5227              		.align	1
 5228              		.global	USB_DriveVbus
 5229              		.syntax unified
 5230              		.thumb
 5231              		.thumb_func
 5232              		.fpu fpv4-sp-d16
 5234              	USB_DriveVbus:
 5235              	.LFB167:
1508:Drivers/STM32F4xx_HAL_Driver/Src/stm32f4xx_ll_usb.c **** 
1509:Drivers/STM32F4xx_HAL_Driver/Src/stm32f4xx_ll_usb.c **** /**
1510:Drivers/STM32F4xx_HAL_Driver/Src/stm32f4xx_ll_usb.c ****   * @brief  USB_DriveVbus : activate or de-activate vbus
1511:Drivers/STM32F4xx_HAL_Driver/Src/stm32f4xx_ll_usb.c ****   * @param  state  VBUS state
1512:Drivers/STM32F4xx_HAL_Driver/Src/stm32f4xx_ll_usb.c ****   *          This parameter can be one of these values:
1513:Drivers/STM32F4xx_HAL_Driver/Src/stm32f4xx_ll_usb.c ****   *           0 : Deactivate VBUS
1514:Drivers/STM32F4xx_HAL_Driver/Src/stm32f4xx_ll_usb.c ****   *           1 : Activate VBUS
1515:Drivers/STM32F4xx_HAL_Driver/Src/stm32f4xx_ll_usb.c ****   * @retval HAL status
1516:Drivers/STM32F4xx_HAL_Driver/Src/stm32f4xx_ll_usb.c ****   */
1517:Drivers/STM32F4xx_HAL_Driver/Src/stm32f4xx_ll_usb.c **** HAL_StatusTypeDef USB_DriveVbus(USB_OTG_GlobalTypeDef *USBx, uint8_t state)
1518:Drivers/STM32F4xx_HAL_Driver/Src/stm32f4xx_ll_usb.c **** {
 5236              		.loc 1 1518 1
 5237              		.cfi_startproc
 5238              		@ args = 0, pretend = 0, frame = 16
 5239              		@ frame_needed = 1, uses_anonymous_args = 0
 5240              		@ link register save eliminated.
 5241 0000 80B4     		push	{r7}
 5242              	.LCFI224:
 5243              		.cfi_def_cfa_offset 4
 5244              		.cfi_offset 7, -4
 5245 0002 85B0     		sub	sp, sp, #20
 5246              	.LCFI225:
 5247              		.cfi_def_cfa_offset 24
 5248 0004 00AF     		add	r7, sp, #0
 5249              	.LCFI226:
 5250              		.cfi_def_cfa_register 7
 5251 0006 7860     		str	r0, [r7, #4]
 5252 0008 0B46     		mov	r3, r1
 5253 000a FB70     		strb	r3, [r7, #3]
1519:Drivers/STM32F4xx_HAL_Driver/Src/stm32f4xx_ll_usb.c ****   uint32_t USBx_BASE = (uint32_t)USBx;
 5254              		.loc 1 1519 12
 5255 000c 7B68     		ldr	r3, [r7, #4]
 5256 000e FB60     		str	r3, [r7, #12]
1520:Drivers/STM32F4xx_HAL_Driver/Src/stm32f4xx_ll_usb.c ****   __IO uint32_t hprt0 = 0U;
ARM GAS  /var/folders/vq/qt4vp3kd5rxf7v2b6_fdtdt80000gn/T//ccjOke0W.s 			page 119


 5257              		.loc 1 1520 17
 5258 0010 0023     		movs	r3, #0
 5259 0012 BB60     		str	r3, [r7, #8]
1521:Drivers/STM32F4xx_HAL_Driver/Src/stm32f4xx_ll_usb.c **** 
1522:Drivers/STM32F4xx_HAL_Driver/Src/stm32f4xx_ll_usb.c ****   hprt0 = USBx_HPRT0;
 5260              		.loc 1 1522 11
 5261 0014 FB68     		ldr	r3, [r7, #12]
 5262 0016 03F58863 		add	r3, r3, #1088
 5263 001a 1B68     		ldr	r3, [r3]
 5264              		.loc 1 1522 9
 5265 001c BB60     		str	r3, [r7, #8]
1523:Drivers/STM32F4xx_HAL_Driver/Src/stm32f4xx_ll_usb.c **** 
1524:Drivers/STM32F4xx_HAL_Driver/Src/stm32f4xx_ll_usb.c ****   hprt0 &= ~(USB_OTG_HPRT_PENA | USB_OTG_HPRT_PCDET |
 5266              		.loc 1 1524 9
 5267 001e BB68     		ldr	r3, [r7, #8]
 5268 0020 23F02E03 		bic	r3, r3, #46
 5269 0024 BB60     		str	r3, [r7, #8]
1525:Drivers/STM32F4xx_HAL_Driver/Src/stm32f4xx_ll_usb.c ****              USB_OTG_HPRT_PENCHNG | USB_OTG_HPRT_POCCHNG);
1526:Drivers/STM32F4xx_HAL_Driver/Src/stm32f4xx_ll_usb.c **** 
1527:Drivers/STM32F4xx_HAL_Driver/Src/stm32f4xx_ll_usb.c ****   if (((hprt0 & USB_OTG_HPRT_PPWR) == 0U) && (state == 1U))
 5270              		.loc 1 1527 15
 5271 0026 BB68     		ldr	r3, [r7, #8]
 5272 0028 03F48053 		and	r3, r3, #4096
 5273              		.loc 1 1527 6
 5274 002c 002B     		cmp	r3, #0
 5275 002e 09D1     		bne	.L218
 5276              		.loc 1 1527 43 discriminator 1
 5277 0030 FB78     		ldrb	r3, [r7, #3]	@ zero_extendqisi2
 5278 0032 012B     		cmp	r3, #1
 5279 0034 06D1     		bne	.L218
1528:Drivers/STM32F4xx_HAL_Driver/Src/stm32f4xx_ll_usb.c ****   {
1529:Drivers/STM32F4xx_HAL_Driver/Src/stm32f4xx_ll_usb.c ****     USBx_HPRT0 = (USB_OTG_HPRT_PPWR | hprt0);
 5280              		.loc 1 1529 37
 5281 0036 BB68     		ldr	r3, [r7, #8]
 5282              		.loc 1 1529 5
 5283 0038 FA68     		ldr	r2, [r7, #12]
 5284 003a 02F58862 		add	r2, r2, #1088
 5285              		.loc 1 1529 37
 5286 003e 43F48053 		orr	r3, r3, #4096
 5287              		.loc 1 1529 16
 5288 0042 1360     		str	r3, [r2]
 5289              	.L218:
1530:Drivers/STM32F4xx_HAL_Driver/Src/stm32f4xx_ll_usb.c ****   }
1531:Drivers/STM32F4xx_HAL_Driver/Src/stm32f4xx_ll_usb.c ****   if (((hprt0 & USB_OTG_HPRT_PPWR) == USB_OTG_HPRT_PPWR) && (state == 0U))
 5290              		.loc 1 1531 15
 5291 0044 BB68     		ldr	r3, [r7, #8]
 5292 0046 03F48053 		and	r3, r3, #4096
 5293              		.loc 1 1531 6
 5294 004a B3F5805F 		cmp	r3, #4096
 5295 004e 09D1     		bne	.L219
 5296              		.loc 1 1531 58 discriminator 1
 5297 0050 FB78     		ldrb	r3, [r7, #3]	@ zero_extendqisi2
 5298 0052 002B     		cmp	r3, #0
 5299 0054 06D1     		bne	.L219
1532:Drivers/STM32F4xx_HAL_Driver/Src/stm32f4xx_ll_usb.c ****   {
1533:Drivers/STM32F4xx_HAL_Driver/Src/stm32f4xx_ll_usb.c ****     USBx_HPRT0 = ((~USB_OTG_HPRT_PPWR) & hprt0);
 5300              		.loc 1 1533 40
ARM GAS  /var/folders/vq/qt4vp3kd5rxf7v2b6_fdtdt80000gn/T//ccjOke0W.s 			page 120


 5301 0056 BB68     		ldr	r3, [r7, #8]
 5302              		.loc 1 1533 5
 5303 0058 FA68     		ldr	r2, [r7, #12]
 5304 005a 02F58862 		add	r2, r2, #1088
 5305              		.loc 1 1533 40
 5306 005e 23F48053 		bic	r3, r3, #4096
 5307              		.loc 1 1533 16
 5308 0062 1360     		str	r3, [r2]
 5309              	.L219:
1534:Drivers/STM32F4xx_HAL_Driver/Src/stm32f4xx_ll_usb.c ****   }
1535:Drivers/STM32F4xx_HAL_Driver/Src/stm32f4xx_ll_usb.c ****   return HAL_OK;
 5310              		.loc 1 1535 10
 5311 0064 0023     		movs	r3, #0
1536:Drivers/STM32F4xx_HAL_Driver/Src/stm32f4xx_ll_usb.c **** }
 5312              		.loc 1 1536 1
 5313 0066 1846     		mov	r0, r3
 5314 0068 1437     		adds	r7, r7, #20
 5315              	.LCFI227:
 5316              		.cfi_def_cfa_offset 4
 5317 006a BD46     		mov	sp, r7
 5318              	.LCFI228:
 5319              		.cfi_def_cfa_register 13
 5320              		@ sp needed
 5321 006c 5DF8047B 		ldr	r7, [sp], #4
 5322              	.LCFI229:
 5323              		.cfi_restore 7
 5324              		.cfi_def_cfa_offset 0
 5325 0070 7047     		bx	lr
 5326              		.cfi_endproc
 5327              	.LFE167:
 5329              		.section	.text.USB_GetHostSpeed,"ax",%progbits
 5330              		.align	1
 5331              		.global	USB_GetHostSpeed
 5332              		.syntax unified
 5333              		.thumb
 5334              		.thumb_func
 5335              		.fpu fpv4-sp-d16
 5337              	USB_GetHostSpeed:
 5338              	.LFB168:
1537:Drivers/STM32F4xx_HAL_Driver/Src/stm32f4xx_ll_usb.c **** 
1538:Drivers/STM32F4xx_HAL_Driver/Src/stm32f4xx_ll_usb.c **** /**
1539:Drivers/STM32F4xx_HAL_Driver/Src/stm32f4xx_ll_usb.c ****   * @brief  Return Host Core speed
1540:Drivers/STM32F4xx_HAL_Driver/Src/stm32f4xx_ll_usb.c ****   * @param  USBx  Selected device
1541:Drivers/STM32F4xx_HAL_Driver/Src/stm32f4xx_ll_usb.c ****   * @retval speed : Host speed
1542:Drivers/STM32F4xx_HAL_Driver/Src/stm32f4xx_ll_usb.c ****   *          This parameter can be one of these values:
1543:Drivers/STM32F4xx_HAL_Driver/Src/stm32f4xx_ll_usb.c ****   *            @arg HCD_SPEED_HIGH: High speed mode
1544:Drivers/STM32F4xx_HAL_Driver/Src/stm32f4xx_ll_usb.c ****   *            @arg HCD_SPEED_FULL: Full speed mode
1545:Drivers/STM32F4xx_HAL_Driver/Src/stm32f4xx_ll_usb.c ****   *            @arg HCD_SPEED_LOW: Low speed mode
1546:Drivers/STM32F4xx_HAL_Driver/Src/stm32f4xx_ll_usb.c ****   */
1547:Drivers/STM32F4xx_HAL_Driver/Src/stm32f4xx_ll_usb.c **** uint32_t USB_GetHostSpeed(USB_OTG_GlobalTypeDef *USBx)
1548:Drivers/STM32F4xx_HAL_Driver/Src/stm32f4xx_ll_usb.c **** {
 5339              		.loc 1 1548 1
 5340              		.cfi_startproc
 5341              		@ args = 0, pretend = 0, frame = 16
 5342              		@ frame_needed = 1, uses_anonymous_args = 0
 5343              		@ link register save eliminated.
 5344 0000 80B4     		push	{r7}
ARM GAS  /var/folders/vq/qt4vp3kd5rxf7v2b6_fdtdt80000gn/T//ccjOke0W.s 			page 121


 5345              	.LCFI230:
 5346              		.cfi_def_cfa_offset 4
 5347              		.cfi_offset 7, -4
 5348 0002 85B0     		sub	sp, sp, #20
 5349              	.LCFI231:
 5350              		.cfi_def_cfa_offset 24
 5351 0004 00AF     		add	r7, sp, #0
 5352              	.LCFI232:
 5353              		.cfi_def_cfa_register 7
 5354 0006 7860     		str	r0, [r7, #4]
1549:Drivers/STM32F4xx_HAL_Driver/Src/stm32f4xx_ll_usb.c ****   uint32_t USBx_BASE = (uint32_t)USBx;
 5355              		.loc 1 1549 12
 5356 0008 7B68     		ldr	r3, [r7, #4]
 5357 000a FB60     		str	r3, [r7, #12]
1550:Drivers/STM32F4xx_HAL_Driver/Src/stm32f4xx_ll_usb.c ****   __IO uint32_t hprt0 = 0U;
 5358              		.loc 1 1550 17
 5359 000c 0023     		movs	r3, #0
 5360 000e BB60     		str	r3, [r7, #8]
1551:Drivers/STM32F4xx_HAL_Driver/Src/stm32f4xx_ll_usb.c **** 
1552:Drivers/STM32F4xx_HAL_Driver/Src/stm32f4xx_ll_usb.c ****   hprt0 = USBx_HPRT0;
 5361              		.loc 1 1552 11
 5362 0010 FB68     		ldr	r3, [r7, #12]
 5363 0012 03F58863 		add	r3, r3, #1088
 5364 0016 1B68     		ldr	r3, [r3]
 5365              		.loc 1 1552 9
 5366 0018 BB60     		str	r3, [r7, #8]
1553:Drivers/STM32F4xx_HAL_Driver/Src/stm32f4xx_ll_usb.c ****   return ((hprt0 & USB_OTG_HPRT_PSPD) >> 17);
 5367              		.loc 1 1553 39
 5368 001a BB68     		ldr	r3, [r7, #8]
 5369 001c 5B0C     		lsrs	r3, r3, #17
 5370 001e 03F00303 		and	r3, r3, #3
1554:Drivers/STM32F4xx_HAL_Driver/Src/stm32f4xx_ll_usb.c **** }
 5371              		.loc 1 1554 1
 5372 0022 1846     		mov	r0, r3
 5373 0024 1437     		adds	r7, r7, #20
 5374              	.LCFI233:
 5375              		.cfi_def_cfa_offset 4
 5376 0026 BD46     		mov	sp, r7
 5377              	.LCFI234:
 5378              		.cfi_def_cfa_register 13
 5379              		@ sp needed
 5380 0028 5DF8047B 		ldr	r7, [sp], #4
 5381              	.LCFI235:
 5382              		.cfi_restore 7
 5383              		.cfi_def_cfa_offset 0
 5384 002c 7047     		bx	lr
 5385              		.cfi_endproc
 5386              	.LFE168:
 5388              		.section	.text.USB_GetCurrentFrame,"ax",%progbits
 5389              		.align	1
 5390              		.global	USB_GetCurrentFrame
 5391              		.syntax unified
 5392              		.thumb
 5393              		.thumb_func
 5394              		.fpu fpv4-sp-d16
 5396              	USB_GetCurrentFrame:
 5397              	.LFB169:
ARM GAS  /var/folders/vq/qt4vp3kd5rxf7v2b6_fdtdt80000gn/T//ccjOke0W.s 			page 122


1555:Drivers/STM32F4xx_HAL_Driver/Src/stm32f4xx_ll_usb.c **** 
1556:Drivers/STM32F4xx_HAL_Driver/Src/stm32f4xx_ll_usb.c **** /**
1557:Drivers/STM32F4xx_HAL_Driver/Src/stm32f4xx_ll_usb.c ****   * @brief  Return Host Current Frame number
1558:Drivers/STM32F4xx_HAL_Driver/Src/stm32f4xx_ll_usb.c ****   * @param  USBx  Selected device
1559:Drivers/STM32F4xx_HAL_Driver/Src/stm32f4xx_ll_usb.c ****   * @retval current frame number
1560:Drivers/STM32F4xx_HAL_Driver/Src/stm32f4xx_ll_usb.c ****   */
1561:Drivers/STM32F4xx_HAL_Driver/Src/stm32f4xx_ll_usb.c **** uint32_t USB_GetCurrentFrame(USB_OTG_GlobalTypeDef *USBx)
1562:Drivers/STM32F4xx_HAL_Driver/Src/stm32f4xx_ll_usb.c **** {
 5398              		.loc 1 1562 1
 5399              		.cfi_startproc
 5400              		@ args = 0, pretend = 0, frame = 16
 5401              		@ frame_needed = 1, uses_anonymous_args = 0
 5402              		@ link register save eliminated.
 5403 0000 80B4     		push	{r7}
 5404              	.LCFI236:
 5405              		.cfi_def_cfa_offset 4
 5406              		.cfi_offset 7, -4
 5407 0002 85B0     		sub	sp, sp, #20
 5408              	.LCFI237:
 5409              		.cfi_def_cfa_offset 24
 5410 0004 00AF     		add	r7, sp, #0
 5411              	.LCFI238:
 5412              		.cfi_def_cfa_register 7
 5413 0006 7860     		str	r0, [r7, #4]
1563:Drivers/STM32F4xx_HAL_Driver/Src/stm32f4xx_ll_usb.c ****   uint32_t USBx_BASE = (uint32_t)USBx;
 5414              		.loc 1 1563 12
 5415 0008 7B68     		ldr	r3, [r7, #4]
 5416 000a FB60     		str	r3, [r7, #12]
1564:Drivers/STM32F4xx_HAL_Driver/Src/stm32f4xx_ll_usb.c **** 
1565:Drivers/STM32F4xx_HAL_Driver/Src/stm32f4xx_ll_usb.c ****   return (USBx_HOST->HFNUM & USB_OTG_HFNUM_FRNUM);
 5417              		.loc 1 1565 11
 5418 000c FB68     		ldr	r3, [r7, #12]
 5419 000e 03F58063 		add	r3, r3, #1024
 5420              		.loc 1 1565 20
 5421 0012 9B68     		ldr	r3, [r3, #8]
 5422              		.loc 1 1565 28
 5423 0014 9BB2     		uxth	r3, r3
1566:Drivers/STM32F4xx_HAL_Driver/Src/stm32f4xx_ll_usb.c **** }
 5424              		.loc 1 1566 1
 5425 0016 1846     		mov	r0, r3
 5426 0018 1437     		adds	r7, r7, #20
 5427              	.LCFI239:
 5428              		.cfi_def_cfa_offset 4
 5429 001a BD46     		mov	sp, r7
 5430              	.LCFI240:
 5431              		.cfi_def_cfa_register 13
 5432              		@ sp needed
 5433 001c 5DF8047B 		ldr	r7, [sp], #4
 5434              	.LCFI241:
 5435              		.cfi_restore 7
 5436              		.cfi_def_cfa_offset 0
 5437 0020 7047     		bx	lr
 5438              		.cfi_endproc
 5439              	.LFE169:
 5441              		.section	.text.USB_HC_Init,"ax",%progbits
 5442              		.align	1
 5443              		.global	USB_HC_Init
ARM GAS  /var/folders/vq/qt4vp3kd5rxf7v2b6_fdtdt80000gn/T//ccjOke0W.s 			page 123


 5444              		.syntax unified
 5445              		.thumb
 5446              		.thumb_func
 5447              		.fpu fpv4-sp-d16
 5449              	USB_HC_Init:
 5450              	.LFB170:
1567:Drivers/STM32F4xx_HAL_Driver/Src/stm32f4xx_ll_usb.c **** 
1568:Drivers/STM32F4xx_HAL_Driver/Src/stm32f4xx_ll_usb.c **** /**
1569:Drivers/STM32F4xx_HAL_Driver/Src/stm32f4xx_ll_usb.c ****   * @brief  Initialize a host channel
1570:Drivers/STM32F4xx_HAL_Driver/Src/stm32f4xx_ll_usb.c ****   * @param  USBx  Selected device
1571:Drivers/STM32F4xx_HAL_Driver/Src/stm32f4xx_ll_usb.c ****   * @param  ch_num  Channel number
1572:Drivers/STM32F4xx_HAL_Driver/Src/stm32f4xx_ll_usb.c ****   *         This parameter can be a value from 1 to 15
1573:Drivers/STM32F4xx_HAL_Driver/Src/stm32f4xx_ll_usb.c ****   * @param  epnum  Endpoint number
1574:Drivers/STM32F4xx_HAL_Driver/Src/stm32f4xx_ll_usb.c ****   *          This parameter can be a value from 1 to 15
1575:Drivers/STM32F4xx_HAL_Driver/Src/stm32f4xx_ll_usb.c ****   * @param  dev_address  Current device address
1576:Drivers/STM32F4xx_HAL_Driver/Src/stm32f4xx_ll_usb.c ****   *          This parameter can be a value from 0 to 255
1577:Drivers/STM32F4xx_HAL_Driver/Src/stm32f4xx_ll_usb.c ****   * @param  speed  Current device speed
1578:Drivers/STM32F4xx_HAL_Driver/Src/stm32f4xx_ll_usb.c ****   *          This parameter can be one of these values:
1579:Drivers/STM32F4xx_HAL_Driver/Src/stm32f4xx_ll_usb.c ****   *            @arg USB_OTG_SPEED_HIGH: High speed mode
1580:Drivers/STM32F4xx_HAL_Driver/Src/stm32f4xx_ll_usb.c ****   *            @arg USB_OTG_SPEED_FULL: Full speed mode
1581:Drivers/STM32F4xx_HAL_Driver/Src/stm32f4xx_ll_usb.c ****   *            @arg USB_OTG_SPEED_LOW: Low speed mode
1582:Drivers/STM32F4xx_HAL_Driver/Src/stm32f4xx_ll_usb.c ****   * @param  ep_type  Endpoint Type
1583:Drivers/STM32F4xx_HAL_Driver/Src/stm32f4xx_ll_usb.c ****   *          This parameter can be one of these values:
1584:Drivers/STM32F4xx_HAL_Driver/Src/stm32f4xx_ll_usb.c ****   *            @arg EP_TYPE_CTRL: Control type
1585:Drivers/STM32F4xx_HAL_Driver/Src/stm32f4xx_ll_usb.c ****   *            @arg EP_TYPE_ISOC: Isochronous type
1586:Drivers/STM32F4xx_HAL_Driver/Src/stm32f4xx_ll_usb.c ****   *            @arg EP_TYPE_BULK: Bulk type
1587:Drivers/STM32F4xx_HAL_Driver/Src/stm32f4xx_ll_usb.c ****   *            @arg EP_TYPE_INTR: Interrupt type
1588:Drivers/STM32F4xx_HAL_Driver/Src/stm32f4xx_ll_usb.c ****   * @param  mps  Max Packet Size
1589:Drivers/STM32F4xx_HAL_Driver/Src/stm32f4xx_ll_usb.c ****   *          This parameter can be a value from 0 to 32K
1590:Drivers/STM32F4xx_HAL_Driver/Src/stm32f4xx_ll_usb.c ****   * @retval HAL state
1591:Drivers/STM32F4xx_HAL_Driver/Src/stm32f4xx_ll_usb.c ****   */
1592:Drivers/STM32F4xx_HAL_Driver/Src/stm32f4xx_ll_usb.c **** HAL_StatusTypeDef USB_HC_Init(USB_OTG_GlobalTypeDef *USBx, uint8_t ch_num,
1593:Drivers/STM32F4xx_HAL_Driver/Src/stm32f4xx_ll_usb.c ****                               uint8_t epnum, uint8_t dev_address, uint8_t speed,
1594:Drivers/STM32F4xx_HAL_Driver/Src/stm32f4xx_ll_usb.c ****                               uint8_t ep_type, uint16_t mps)
1595:Drivers/STM32F4xx_HAL_Driver/Src/stm32f4xx_ll_usb.c **** {
 5451              		.loc 1 1595 1
 5452              		.cfi_startproc
 5453              		@ args = 12, pretend = 0, frame = 32
 5454              		@ frame_needed = 1, uses_anonymous_args = 0
 5455 0000 80B5     		push	{r7, lr}
 5456              	.LCFI242:
 5457              		.cfi_def_cfa_offset 8
 5458              		.cfi_offset 7, -8
 5459              		.cfi_offset 14, -4
 5460 0002 88B0     		sub	sp, sp, #32
 5461              	.LCFI243:
 5462              		.cfi_def_cfa_offset 40
 5463 0004 00AF     		add	r7, sp, #0
 5464              	.LCFI244:
 5465              		.cfi_def_cfa_register 7
 5466 0006 7860     		str	r0, [r7, #4]
 5467 0008 0846     		mov	r0, r1
 5468 000a 1146     		mov	r1, r2
 5469 000c 1A46     		mov	r2, r3
 5470 000e 0346     		mov	r3, r0
 5471 0010 FB70     		strb	r3, [r7, #3]
 5472 0012 0B46     		mov	r3, r1
ARM GAS  /var/folders/vq/qt4vp3kd5rxf7v2b6_fdtdt80000gn/T//ccjOke0W.s 			page 124


 5473 0014 BB70     		strb	r3, [r7, #2]
 5474 0016 1346     		mov	r3, r2
 5475 0018 7B70     		strb	r3, [r7, #1]
1596:Drivers/STM32F4xx_HAL_Driver/Src/stm32f4xx_ll_usb.c ****   HAL_StatusTypeDef ret = HAL_OK;
 5476              		.loc 1 1596 21
 5477 001a 0023     		movs	r3, #0
 5478 001c FB77     		strb	r3, [r7, #31]
1597:Drivers/STM32F4xx_HAL_Driver/Src/stm32f4xx_ll_usb.c ****   uint32_t USBx_BASE = (uint32_t)USBx;
 5479              		.loc 1 1597 12
 5480 001e 7B68     		ldr	r3, [r7, #4]
 5481 0020 3B61     		str	r3, [r7, #16]
1598:Drivers/STM32F4xx_HAL_Driver/Src/stm32f4xx_ll_usb.c ****   uint32_t HCcharEpDir, HCcharLowSpeed;
1599:Drivers/STM32F4xx_HAL_Driver/Src/stm32f4xx_ll_usb.c ****   uint32_t HostCoreSpeed;
1600:Drivers/STM32F4xx_HAL_Driver/Src/stm32f4xx_ll_usb.c **** 
1601:Drivers/STM32F4xx_HAL_Driver/Src/stm32f4xx_ll_usb.c ****   /* Clear old interrupt conditions for this host channel. */
1602:Drivers/STM32F4xx_HAL_Driver/Src/stm32f4xx_ll_usb.c ****   USBx_HC((uint32_t)ch_num)->HCINT = 0xFFFFFFFFU;
 5482              		.loc 1 1602 3
 5483 0022 FB78     		ldrb	r3, [r7, #3]	@ zero_extendqisi2
 5484 0024 5A01     		lsls	r2, r3, #5
 5485 0026 3B69     		ldr	r3, [r7, #16]
 5486 0028 1344     		add	r3, r3, r2
 5487 002a 03F5A063 		add	r3, r3, #1280
 5488 002e 1A46     		mov	r2, r3
 5489              		.loc 1 1602 36
 5490 0030 4FF0FF33 		mov	r3, #-1
 5491 0034 9360     		str	r3, [r2, #8]
1603:Drivers/STM32F4xx_HAL_Driver/Src/stm32f4xx_ll_usb.c **** 
1604:Drivers/STM32F4xx_HAL_Driver/Src/stm32f4xx_ll_usb.c ****   /* Enable channel interrupts required for this transfer. */
1605:Drivers/STM32F4xx_HAL_Driver/Src/stm32f4xx_ll_usb.c ****   switch (ep_type)
 5492              		.loc 1 1605 3
 5493 0036 97F82C30 		ldrb	r3, [r7, #44]	@ zero_extendqisi2
 5494 003a 032B     		cmp	r3, #3
 5495 003c 7ED8     		bhi	.L226
 5496 003e 01A2     		adr	r2, .L228
 5497 0040 52F823F0 		ldr	pc, [r2, r3, lsl #2]
 5498              		.p2align 2
 5499              	.L228:
 5500 0044 55000000 		.word	.L229+1
 5501 0048 FF000000 		.word	.L230+1
 5502 004c 55000000 		.word	.L229+1
 5503 0050 C1000000 		.word	.L227+1
 5504              		.p2align 1
 5505              	.L229:
1606:Drivers/STM32F4xx_HAL_Driver/Src/stm32f4xx_ll_usb.c ****   {
1607:Drivers/STM32F4xx_HAL_Driver/Src/stm32f4xx_ll_usb.c ****     case EP_TYPE_CTRL:
1608:Drivers/STM32F4xx_HAL_Driver/Src/stm32f4xx_ll_usb.c ****     case EP_TYPE_BULK:
1609:Drivers/STM32F4xx_HAL_Driver/Src/stm32f4xx_ll_usb.c ****       USBx_HC((uint32_t)ch_num)->HCINTMSK = USB_OTG_HCINTMSK_XFRCM  |
 5506              		.loc 1 1609 7
 5507 0054 FB78     		ldrb	r3, [r7, #3]	@ zero_extendqisi2
 5508 0056 5A01     		lsls	r2, r3, #5
 5509 0058 3B69     		ldr	r3, [r7, #16]
 5510 005a 1344     		add	r3, r3, r2
 5511 005c 03F5A063 		add	r3, r3, #1280
 5512 0060 1A46     		mov	r2, r3
 5513              		.loc 1 1609 43
 5514 0062 40F29D43 		movw	r3, #1181
 5515 0066 D360     		str	r3, [r2, #12]
ARM GAS  /var/folders/vq/qt4vp3kd5rxf7v2b6_fdtdt80000gn/T//ccjOke0W.s 			page 125


1610:Drivers/STM32F4xx_HAL_Driver/Src/stm32f4xx_ll_usb.c ****                                             USB_OTG_HCINTMSK_STALLM |
1611:Drivers/STM32F4xx_HAL_Driver/Src/stm32f4xx_ll_usb.c ****                                             USB_OTG_HCINTMSK_TXERRM |
1612:Drivers/STM32F4xx_HAL_Driver/Src/stm32f4xx_ll_usb.c ****                                             USB_OTG_HCINTMSK_DTERRM |
1613:Drivers/STM32F4xx_HAL_Driver/Src/stm32f4xx_ll_usb.c ****                                             USB_OTG_HCINTMSK_AHBERR |
1614:Drivers/STM32F4xx_HAL_Driver/Src/stm32f4xx_ll_usb.c ****                                             USB_OTG_HCINTMSK_NAKM;
1615:Drivers/STM32F4xx_HAL_Driver/Src/stm32f4xx_ll_usb.c **** 
1616:Drivers/STM32F4xx_HAL_Driver/Src/stm32f4xx_ll_usb.c ****       if ((epnum & 0x80U) == 0x80U)
 5516              		.loc 1 1616 27
 5517 0068 97F90230 		ldrsb	r3, [r7, #2]
 5518              		.loc 1 1616 10
 5519 006c 002B     		cmp	r3, #0
 5520 006e 10DA     		bge	.L231
1617:Drivers/STM32F4xx_HAL_Driver/Src/stm32f4xx_ll_usb.c ****       {
1618:Drivers/STM32F4xx_HAL_Driver/Src/stm32f4xx_ll_usb.c ****         USBx_HC((uint32_t)ch_num)->HCINTMSK |= USB_OTG_HCINTMSK_BBERRM;
 5521              		.loc 1 1618 45
 5522 0070 FB78     		ldrb	r3, [r7, #3]	@ zero_extendqisi2
 5523 0072 5A01     		lsls	r2, r3, #5
 5524 0074 3B69     		ldr	r3, [r7, #16]
 5525 0076 1344     		add	r3, r3, r2
 5526 0078 03F5A063 		add	r3, r3, #1280
 5527 007c DB68     		ldr	r3, [r3, #12]
 5528 007e FA78     		ldrb	r2, [r7, #3]	@ zero_extendqisi2
 5529 0080 5101     		lsls	r1, r2, #5
 5530 0082 3A69     		ldr	r2, [r7, #16]
 5531 0084 0A44     		add	r2, r2, r1
 5532 0086 02F5A062 		add	r2, r2, #1280
 5533 008a 43F48073 		orr	r3, r3, #256
 5534 008e D360     		str	r3, [r2, #12]
1619:Drivers/STM32F4xx_HAL_Driver/Src/stm32f4xx_ll_usb.c ****       }
1620:Drivers/STM32F4xx_HAL_Driver/Src/stm32f4xx_ll_usb.c ****       else
1621:Drivers/STM32F4xx_HAL_Driver/Src/stm32f4xx_ll_usb.c ****       {
1622:Drivers/STM32F4xx_HAL_Driver/Src/stm32f4xx_ll_usb.c ****         if ((USBx->CID & (0x1U << 8)) != 0U)
1623:Drivers/STM32F4xx_HAL_Driver/Src/stm32f4xx_ll_usb.c ****         {
1624:Drivers/STM32F4xx_HAL_Driver/Src/stm32f4xx_ll_usb.c ****           USBx_HC((uint32_t)ch_num)->HCINTMSK |= USB_OTG_HCINTMSK_NYET |
1625:Drivers/STM32F4xx_HAL_Driver/Src/stm32f4xx_ll_usb.c ****                                                  USB_OTG_HCINTMSK_ACKM;
1626:Drivers/STM32F4xx_HAL_Driver/Src/stm32f4xx_ll_usb.c ****         }
1627:Drivers/STM32F4xx_HAL_Driver/Src/stm32f4xx_ll_usb.c ****       }
1628:Drivers/STM32F4xx_HAL_Driver/Src/stm32f4xx_ll_usb.c ****       break;
 5535              		.loc 1 1628 7
 5536 0090 57E0     		b	.L242
 5537              	.L231:
1622:Drivers/STM32F4xx_HAL_Driver/Src/stm32f4xx_ll_usb.c ****         {
 5538              		.loc 1 1622 18
 5539 0092 7B68     		ldr	r3, [r7, #4]
 5540 0094 DB6B     		ldr	r3, [r3, #60]
1622:Drivers/STM32F4xx_HAL_Driver/Src/stm32f4xx_ll_usb.c ****         {
 5541              		.loc 1 1622 24
 5542 0096 03F48073 		and	r3, r3, #256
1622:Drivers/STM32F4xx_HAL_Driver/Src/stm32f4xx_ll_usb.c ****         {
 5543              		.loc 1 1622 12
 5544 009a 002B     		cmp	r3, #0
 5545 009c 51D0     		beq	.L242
1624:Drivers/STM32F4xx_HAL_Driver/Src/stm32f4xx_ll_usb.c ****                                                  USB_OTG_HCINTMSK_ACKM;
 5546              		.loc 1 1624 47
 5547 009e FB78     		ldrb	r3, [r7, #3]	@ zero_extendqisi2
 5548 00a0 5A01     		lsls	r2, r3, #5
 5549 00a2 3B69     		ldr	r3, [r7, #16]
ARM GAS  /var/folders/vq/qt4vp3kd5rxf7v2b6_fdtdt80000gn/T//ccjOke0W.s 			page 126


 5550 00a4 1344     		add	r3, r3, r2
 5551 00a6 03F5A063 		add	r3, r3, #1280
 5552 00aa DB68     		ldr	r3, [r3, #12]
 5553 00ac FA78     		ldrb	r2, [r7, #3]	@ zero_extendqisi2
 5554 00ae 5101     		lsls	r1, r2, #5
 5555 00b0 3A69     		ldr	r2, [r7, #16]
 5556 00b2 0A44     		add	r2, r2, r1
 5557 00b4 02F5A062 		add	r2, r2, #1280
 5558 00b8 43F06003 		orr	r3, r3, #96
 5559 00bc D360     		str	r3, [r2, #12]
 5560              		.loc 1 1628 7
 5561 00be 40E0     		b	.L242
 5562              	.L227:
1629:Drivers/STM32F4xx_HAL_Driver/Src/stm32f4xx_ll_usb.c **** 
1630:Drivers/STM32F4xx_HAL_Driver/Src/stm32f4xx_ll_usb.c ****     case EP_TYPE_INTR:
1631:Drivers/STM32F4xx_HAL_Driver/Src/stm32f4xx_ll_usb.c ****       USBx_HC((uint32_t)ch_num)->HCINTMSK = USB_OTG_HCINTMSK_XFRCM  |
 5563              		.loc 1 1631 7
 5564 00c0 FB78     		ldrb	r3, [r7, #3]	@ zero_extendqisi2
 5565 00c2 5A01     		lsls	r2, r3, #5
 5566 00c4 3B69     		ldr	r3, [r7, #16]
 5567 00c6 1344     		add	r3, r3, r2
 5568 00c8 03F5A063 		add	r3, r3, #1280
 5569 00cc 1A46     		mov	r2, r3
 5570              		.loc 1 1631 43
 5571 00ce 40F29D63 		movw	r3, #1693
 5572 00d2 D360     		str	r3, [r2, #12]
1632:Drivers/STM32F4xx_HAL_Driver/Src/stm32f4xx_ll_usb.c ****                                             USB_OTG_HCINTMSK_STALLM |
1633:Drivers/STM32F4xx_HAL_Driver/Src/stm32f4xx_ll_usb.c ****                                             USB_OTG_HCINTMSK_TXERRM |
1634:Drivers/STM32F4xx_HAL_Driver/Src/stm32f4xx_ll_usb.c ****                                             USB_OTG_HCINTMSK_DTERRM |
1635:Drivers/STM32F4xx_HAL_Driver/Src/stm32f4xx_ll_usb.c ****                                             USB_OTG_HCINTMSK_NAKM   |
1636:Drivers/STM32F4xx_HAL_Driver/Src/stm32f4xx_ll_usb.c ****                                             USB_OTG_HCINTMSK_AHBERR |
1637:Drivers/STM32F4xx_HAL_Driver/Src/stm32f4xx_ll_usb.c ****                                             USB_OTG_HCINTMSK_FRMORM;
1638:Drivers/STM32F4xx_HAL_Driver/Src/stm32f4xx_ll_usb.c **** 
1639:Drivers/STM32F4xx_HAL_Driver/Src/stm32f4xx_ll_usb.c ****       if ((epnum & 0x80U) == 0x80U)
 5573              		.loc 1 1639 27
 5574 00d4 97F90230 		ldrsb	r3, [r7, #2]
 5575              		.loc 1 1639 10
 5576 00d8 002B     		cmp	r3, #0
 5577 00da 34DA     		bge	.L243
1640:Drivers/STM32F4xx_HAL_Driver/Src/stm32f4xx_ll_usb.c ****       {
1641:Drivers/STM32F4xx_HAL_Driver/Src/stm32f4xx_ll_usb.c ****         USBx_HC((uint32_t)ch_num)->HCINTMSK |= USB_OTG_HCINTMSK_BBERRM;
 5578              		.loc 1 1641 45
 5579 00dc FB78     		ldrb	r3, [r7, #3]	@ zero_extendqisi2
 5580 00de 5A01     		lsls	r2, r3, #5
 5581 00e0 3B69     		ldr	r3, [r7, #16]
 5582 00e2 1344     		add	r3, r3, r2
 5583 00e4 03F5A063 		add	r3, r3, #1280
 5584 00e8 DB68     		ldr	r3, [r3, #12]
 5585 00ea FA78     		ldrb	r2, [r7, #3]	@ zero_extendqisi2
 5586 00ec 5101     		lsls	r1, r2, #5
 5587 00ee 3A69     		ldr	r2, [r7, #16]
 5588 00f0 0A44     		add	r2, r2, r1
 5589 00f2 02F5A062 		add	r2, r2, #1280
 5590 00f6 43F48073 		orr	r3, r3, #256
 5591 00fa D360     		str	r3, [r2, #12]
1642:Drivers/STM32F4xx_HAL_Driver/Src/stm32f4xx_ll_usb.c ****       }
1643:Drivers/STM32F4xx_HAL_Driver/Src/stm32f4xx_ll_usb.c **** 
ARM GAS  /var/folders/vq/qt4vp3kd5rxf7v2b6_fdtdt80000gn/T//ccjOke0W.s 			page 127


1644:Drivers/STM32F4xx_HAL_Driver/Src/stm32f4xx_ll_usb.c ****       break;
 5592              		.loc 1 1644 7
 5593 00fc 23E0     		b	.L243
 5594              	.L230:
1645:Drivers/STM32F4xx_HAL_Driver/Src/stm32f4xx_ll_usb.c **** 
1646:Drivers/STM32F4xx_HAL_Driver/Src/stm32f4xx_ll_usb.c ****     case EP_TYPE_ISOC:
1647:Drivers/STM32F4xx_HAL_Driver/Src/stm32f4xx_ll_usb.c ****       USBx_HC((uint32_t)ch_num)->HCINTMSK = USB_OTG_HCINTMSK_XFRCM  |
 5595              		.loc 1 1647 7
 5596 00fe FB78     		ldrb	r3, [r7, #3]	@ zero_extendqisi2
 5597 0100 5A01     		lsls	r2, r3, #5
 5598 0102 3B69     		ldr	r3, [r7, #16]
 5599 0104 1344     		add	r3, r3, r2
 5600 0106 03F5A063 		add	r3, r3, #1280
 5601 010a 1A46     		mov	r2, r3
 5602              		.loc 1 1647 43
 5603 010c 40F22523 		movw	r3, #549
 5604 0110 D360     		str	r3, [r2, #12]
1648:Drivers/STM32F4xx_HAL_Driver/Src/stm32f4xx_ll_usb.c ****                                             USB_OTG_HCINTMSK_ACKM   |
1649:Drivers/STM32F4xx_HAL_Driver/Src/stm32f4xx_ll_usb.c ****                                             USB_OTG_HCINTMSK_AHBERR |
1650:Drivers/STM32F4xx_HAL_Driver/Src/stm32f4xx_ll_usb.c ****                                             USB_OTG_HCINTMSK_FRMORM;
1651:Drivers/STM32F4xx_HAL_Driver/Src/stm32f4xx_ll_usb.c **** 
1652:Drivers/STM32F4xx_HAL_Driver/Src/stm32f4xx_ll_usb.c ****       if ((epnum & 0x80U) == 0x80U)
 5605              		.loc 1 1652 27
 5606 0112 97F90230 		ldrsb	r3, [r7, #2]
 5607              		.loc 1 1652 10
 5608 0116 002B     		cmp	r3, #0
 5609 0118 17DA     		bge	.L244
1653:Drivers/STM32F4xx_HAL_Driver/Src/stm32f4xx_ll_usb.c ****       {
1654:Drivers/STM32F4xx_HAL_Driver/Src/stm32f4xx_ll_usb.c ****         USBx_HC((uint32_t)ch_num)->HCINTMSK |= (USB_OTG_HCINTMSK_TXERRM | USB_OTG_HCINTMSK_BBERRM);
 5610              		.loc 1 1654 45
 5611 011a FB78     		ldrb	r3, [r7, #3]	@ zero_extendqisi2
 5612 011c 5A01     		lsls	r2, r3, #5
 5613 011e 3B69     		ldr	r3, [r7, #16]
 5614 0120 1344     		add	r3, r3, r2
 5615 0122 03F5A063 		add	r3, r3, #1280
 5616 0126 DB68     		ldr	r3, [r3, #12]
 5617 0128 FA78     		ldrb	r2, [r7, #3]	@ zero_extendqisi2
 5618 012a 5101     		lsls	r1, r2, #5
 5619 012c 3A69     		ldr	r2, [r7, #16]
 5620 012e 0A44     		add	r2, r2, r1
 5621 0130 02F5A062 		add	r2, r2, #1280
 5622 0134 43F4C073 		orr	r3, r3, #384
 5623 0138 D360     		str	r3, [r2, #12]
1655:Drivers/STM32F4xx_HAL_Driver/Src/stm32f4xx_ll_usb.c ****       }
1656:Drivers/STM32F4xx_HAL_Driver/Src/stm32f4xx_ll_usb.c ****       break;
 5624              		.loc 1 1656 7
 5625 013a 06E0     		b	.L244
 5626              	.L226:
1657:Drivers/STM32F4xx_HAL_Driver/Src/stm32f4xx_ll_usb.c **** 
1658:Drivers/STM32F4xx_HAL_Driver/Src/stm32f4xx_ll_usb.c ****     default:
1659:Drivers/STM32F4xx_HAL_Driver/Src/stm32f4xx_ll_usb.c ****       ret = HAL_ERROR;
 5627              		.loc 1 1659 11
 5628 013c 0123     		movs	r3, #1
 5629 013e FB77     		strb	r3, [r7, #31]
1660:Drivers/STM32F4xx_HAL_Driver/Src/stm32f4xx_ll_usb.c ****       break;
 5630              		.loc 1 1660 7
 5631 0140 04E0     		b	.L233
ARM GAS  /var/folders/vq/qt4vp3kd5rxf7v2b6_fdtdt80000gn/T//ccjOke0W.s 			page 128


 5632              	.L242:
1628:Drivers/STM32F4xx_HAL_Driver/Src/stm32f4xx_ll_usb.c **** 
 5633              		.loc 1 1628 7
 5634 0142 00BF     		nop
 5635 0144 02E0     		b	.L233
 5636              	.L243:
1644:Drivers/STM32F4xx_HAL_Driver/Src/stm32f4xx_ll_usb.c **** 
 5637              		.loc 1 1644 7
 5638 0146 00BF     		nop
 5639 0148 00E0     		b	.L233
 5640              	.L244:
1656:Drivers/STM32F4xx_HAL_Driver/Src/stm32f4xx_ll_usb.c **** 
 5641              		.loc 1 1656 7
 5642 014a 00BF     		nop
 5643              	.L233:
1661:Drivers/STM32F4xx_HAL_Driver/Src/stm32f4xx_ll_usb.c ****   }
1662:Drivers/STM32F4xx_HAL_Driver/Src/stm32f4xx_ll_usb.c **** 
1663:Drivers/STM32F4xx_HAL_Driver/Src/stm32f4xx_ll_usb.c ****   /* Enable the top level host channel interrupt. */
1664:Drivers/STM32F4xx_HAL_Driver/Src/stm32f4xx_ll_usb.c ****   USBx_HOST->HAINTMSK |= 1UL << (ch_num & 0xFU);
 5644              		.loc 1 1664 23
 5645 014c 3B69     		ldr	r3, [r7, #16]
 5646 014e 03F58063 		add	r3, r3, #1024
 5647 0152 9A69     		ldr	r2, [r3, #24]
 5648              		.loc 1 1664 41
 5649 0154 FB78     		ldrb	r3, [r7, #3]	@ zero_extendqisi2
 5650 0156 03F00F03 		and	r3, r3, #15
 5651              		.loc 1 1664 30
 5652 015a 0121     		movs	r1, #1
 5653 015c 01FA03F3 		lsl	r3, r1, r3
 5654              		.loc 1 1664 23
 5655 0160 3969     		ldr	r1, [r7, #16]
 5656 0162 01F58061 		add	r1, r1, #1024
 5657 0166 1343     		orrs	r3, r3, r2
 5658 0168 8B61     		str	r3, [r1, #24]
1665:Drivers/STM32F4xx_HAL_Driver/Src/stm32f4xx_ll_usb.c **** 
1666:Drivers/STM32F4xx_HAL_Driver/Src/stm32f4xx_ll_usb.c ****   /* Make sure host channel interrupts are enabled. */
1667:Drivers/STM32F4xx_HAL_Driver/Src/stm32f4xx_ll_usb.c ****   USBx->GINTMSK |= USB_OTG_GINTMSK_HCIM;
 5659              		.loc 1 1667 17
 5660 016a 7B68     		ldr	r3, [r7, #4]
 5661 016c 9B69     		ldr	r3, [r3, #24]
 5662 016e 43F00072 		orr	r2, r3, #33554432
 5663 0172 7B68     		ldr	r3, [r7, #4]
 5664 0174 9A61     		str	r2, [r3, #24]
1668:Drivers/STM32F4xx_HAL_Driver/Src/stm32f4xx_ll_usb.c **** 
1669:Drivers/STM32F4xx_HAL_Driver/Src/stm32f4xx_ll_usb.c ****   /* Program the HCCHAR register */
1670:Drivers/STM32F4xx_HAL_Driver/Src/stm32f4xx_ll_usb.c ****   if ((epnum & 0x80U) == 0x80U)
 5665              		.loc 1 1670 23
 5666 0176 97F90230 		ldrsb	r3, [r7, #2]
 5667              		.loc 1 1670 6
 5668 017a 002B     		cmp	r3, #0
 5669 017c 03DA     		bge	.L236
1671:Drivers/STM32F4xx_HAL_Driver/Src/stm32f4xx_ll_usb.c ****   {
1672:Drivers/STM32F4xx_HAL_Driver/Src/stm32f4xx_ll_usb.c ****     HCcharEpDir = (0x1U << 15) & USB_OTG_HCCHAR_EPDIR;
 5670              		.loc 1 1672 17
 5671 017e 4FF40043 		mov	r3, #32768
 5672 0182 BB61     		str	r3, [r7, #24]
 5673 0184 01E0     		b	.L237
ARM GAS  /var/folders/vq/qt4vp3kd5rxf7v2b6_fdtdt80000gn/T//ccjOke0W.s 			page 129


 5674              	.L236:
1673:Drivers/STM32F4xx_HAL_Driver/Src/stm32f4xx_ll_usb.c ****   }
1674:Drivers/STM32F4xx_HAL_Driver/Src/stm32f4xx_ll_usb.c ****   else
1675:Drivers/STM32F4xx_HAL_Driver/Src/stm32f4xx_ll_usb.c ****   {
1676:Drivers/STM32F4xx_HAL_Driver/Src/stm32f4xx_ll_usb.c ****     HCcharEpDir = 0U;
 5675              		.loc 1 1676 17
 5676 0186 0023     		movs	r3, #0
 5677 0188 BB61     		str	r3, [r7, #24]
 5678              	.L237:
1677:Drivers/STM32F4xx_HAL_Driver/Src/stm32f4xx_ll_usb.c ****   }
1678:Drivers/STM32F4xx_HAL_Driver/Src/stm32f4xx_ll_usb.c **** 
1679:Drivers/STM32F4xx_HAL_Driver/Src/stm32f4xx_ll_usb.c ****   HostCoreSpeed = USB_GetHostSpeed(USBx);
 5679              		.loc 1 1679 19
 5680 018a 7868     		ldr	r0, [r7, #4]
 5681 018c FFF7FEFF 		bl	USB_GetHostSpeed
 5682 0190 F860     		str	r0, [r7, #12]
1680:Drivers/STM32F4xx_HAL_Driver/Src/stm32f4xx_ll_usb.c **** 
1681:Drivers/STM32F4xx_HAL_Driver/Src/stm32f4xx_ll_usb.c ****   /* LS device plugged to HUB */
1682:Drivers/STM32F4xx_HAL_Driver/Src/stm32f4xx_ll_usb.c ****   if ((speed == HPRT0_PRTSPD_LOW_SPEED) && (HostCoreSpeed != HPRT0_PRTSPD_LOW_SPEED))
 5683              		.loc 1 1682 6
 5684 0192 97F82830 		ldrb	r3, [r7, #40]	@ zero_extendqisi2
 5685 0196 022B     		cmp	r3, #2
 5686 0198 06D1     		bne	.L238
 5687              		.loc 1 1682 41 discriminator 1
 5688 019a FB68     		ldr	r3, [r7, #12]
 5689 019c 022B     		cmp	r3, #2
 5690 019e 03D0     		beq	.L238
1683:Drivers/STM32F4xx_HAL_Driver/Src/stm32f4xx_ll_usb.c ****   {
1684:Drivers/STM32F4xx_HAL_Driver/Src/stm32f4xx_ll_usb.c ****     HCcharLowSpeed = (0x1U << 17) & USB_OTG_HCCHAR_LSDEV;
 5691              		.loc 1 1684 20
 5692 01a0 4FF40033 		mov	r3, #131072
 5693 01a4 7B61     		str	r3, [r7, #20]
 5694 01a6 01E0     		b	.L239
 5695              	.L238:
1685:Drivers/STM32F4xx_HAL_Driver/Src/stm32f4xx_ll_usb.c ****   }
1686:Drivers/STM32F4xx_HAL_Driver/Src/stm32f4xx_ll_usb.c ****   else
1687:Drivers/STM32F4xx_HAL_Driver/Src/stm32f4xx_ll_usb.c ****   {
1688:Drivers/STM32F4xx_HAL_Driver/Src/stm32f4xx_ll_usb.c ****     HCcharLowSpeed = 0U;
 5696              		.loc 1 1688 20
 5697 01a8 0023     		movs	r3, #0
 5698 01aa 7B61     		str	r3, [r7, #20]
 5699              	.L239:
1689:Drivers/STM32F4xx_HAL_Driver/Src/stm32f4xx_ll_usb.c ****   }
1690:Drivers/STM32F4xx_HAL_Driver/Src/stm32f4xx_ll_usb.c **** 
1691:Drivers/STM32F4xx_HAL_Driver/Src/stm32f4xx_ll_usb.c ****   USBx_HC((uint32_t)ch_num)->HCCHAR = (((uint32_t)dev_address << 22) & USB_OTG_HCCHAR_DAD) |
 5700              		.loc 1 1691 41
 5701 01ac 7B78     		ldrb	r3, [r7, #1]	@ zero_extendqisi2
 5702              		.loc 1 1691 63
 5703 01ae 9B05     		lsls	r3, r3, #22
 5704              		.loc 1 1691 70
 5705 01b0 03F0FE52 		and	r2, r3, #532676608
1692:Drivers/STM32F4xx_HAL_Driver/Src/stm32f4xx_ll_usb.c ****                                       ((((uint32_t)epnum & 0x7FU) << 11) & USB_OTG_HCCHAR_EPNUM) |
 5706              		.loc 1 1692 67
 5707 01b4 BB78     		ldrb	r3, [r7, #2]	@ zero_extendqisi2
 5708 01b6 DB02     		lsls	r3, r3, #11
 5709              		.loc 1 1692 74
 5710 01b8 03F4F043 		and	r3, r3, #30720
ARM GAS  /var/folders/vq/qt4vp3kd5rxf7v2b6_fdtdt80000gn/T//ccjOke0W.s 			page 130


1691:Drivers/STM32F4xx_HAL_Driver/Src/stm32f4xx_ll_usb.c ****                                       ((((uint32_t)epnum & 0x7FU) << 11) & USB_OTG_HCCHAR_EPNUM) |
 5711              		.loc 1 1691 92
 5712 01bc 1A43     		orrs	r2, r2, r3
1693:Drivers/STM32F4xx_HAL_Driver/Src/stm32f4xx_ll_usb.c ****                                       (((uint32_t)ep_type << 18) & USB_OTG_HCCHAR_EPTYP) |
 5713              		.loc 1 1693 41
 5714 01be 97F82C30 		ldrb	r3, [r7, #44]	@ zero_extendqisi2
 5715              		.loc 1 1693 59
 5716 01c2 9B04     		lsls	r3, r3, #18
 5717              		.loc 1 1693 66
 5718 01c4 03F44023 		and	r3, r3, #786432
1692:Drivers/STM32F4xx_HAL_Driver/Src/stm32f4xx_ll_usb.c ****                                       ((((uint32_t)epnum & 0x7FU) << 11) & USB_OTG_HCCHAR_EPNUM) |
 5719              		.loc 1 1692 98
 5720 01c8 1A43     		orrs	r2, r2, r3
1694:Drivers/STM32F4xx_HAL_Driver/Src/stm32f4xx_ll_usb.c ****                                       ((uint32_t)mps & USB_OTG_HCCHAR_MPSIZ) | HCcharEpDir | HCchar
 5721              		.loc 1 1694 54
 5722 01ca 3B8E     		ldrh	r3, [r7, #48]
 5723 01cc C3F30A03 		ubfx	r3, r3, #0, #11
1693:Drivers/STM32F4xx_HAL_Driver/Src/stm32f4xx_ll_usb.c ****                                       (((uint32_t)ep_type << 18) & USB_OTG_HCCHAR_EPTYP) |
 5724              		.loc 1 1693 90
 5725 01d0 1A43     		orrs	r2, r2, r3
 5726              		.loc 1 1694 78
 5727 01d2 BB69     		ldr	r3, [r7, #24]
 5728 01d4 1A43     		orrs	r2, r2, r3
1691:Drivers/STM32F4xx_HAL_Driver/Src/stm32f4xx_ll_usb.c ****                                       ((((uint32_t)epnum & 0x7FU) << 11) & USB_OTG_HCCHAR_EPNUM) |
 5729              		.loc 1 1691 3
 5730 01d6 FB78     		ldrb	r3, [r7, #3]	@ zero_extendqisi2
 5731 01d8 5901     		lsls	r1, r3, #5
 5732 01da 3B69     		ldr	r3, [r7, #16]
 5733 01dc 0B44     		add	r3, r3, r1
 5734 01de 03F5A063 		add	r3, r3, #1280
 5735 01e2 1946     		mov	r1, r3
 5736              		.loc 1 1694 92
 5737 01e4 7B69     		ldr	r3, [r7, #20]
 5738 01e6 1343     		orrs	r3, r3, r2
1691:Drivers/STM32F4xx_HAL_Driver/Src/stm32f4xx_ll_usb.c ****                                       ((((uint32_t)epnum & 0x7FU) << 11) & USB_OTG_HCCHAR_EPNUM) |
 5739              		.loc 1 1691 37
 5740 01e8 0B60     		str	r3, [r1]
1695:Drivers/STM32F4xx_HAL_Driver/Src/stm32f4xx_ll_usb.c **** 
1696:Drivers/STM32F4xx_HAL_Driver/Src/stm32f4xx_ll_usb.c ****   if (ep_type == EP_TYPE_INTR)
 5741              		.loc 1 1696 6
 5742 01ea 97F82C30 		ldrb	r3, [r7, #44]	@ zero_extendqisi2
 5743 01ee 032B     		cmp	r3, #3
 5744 01f0 0FD1     		bne	.L240
1697:Drivers/STM32F4xx_HAL_Driver/Src/stm32f4xx_ll_usb.c ****   {
1698:Drivers/STM32F4xx_HAL_Driver/Src/stm32f4xx_ll_usb.c ****     USBx_HC((uint32_t)ch_num)->HCCHAR |= USB_OTG_HCCHAR_ODDFRM ;
 5745              		.loc 1 1698 39
 5746 01f2 FB78     		ldrb	r3, [r7, #3]	@ zero_extendqisi2
 5747 01f4 5A01     		lsls	r2, r3, #5
 5748 01f6 3B69     		ldr	r3, [r7, #16]
 5749 01f8 1344     		add	r3, r3, r2
 5750 01fa 03F5A063 		add	r3, r3, #1280
 5751 01fe 1B68     		ldr	r3, [r3]
 5752 0200 FA78     		ldrb	r2, [r7, #3]	@ zero_extendqisi2
 5753 0202 5101     		lsls	r1, r2, #5
 5754 0204 3A69     		ldr	r2, [r7, #16]
 5755 0206 0A44     		add	r2, r2, r1
 5756 0208 02F5A062 		add	r2, r2, #1280
ARM GAS  /var/folders/vq/qt4vp3kd5rxf7v2b6_fdtdt80000gn/T//ccjOke0W.s 			page 131


 5757 020c 43F00053 		orr	r3, r3, #536870912
 5758 0210 1360     		str	r3, [r2]
 5759              	.L240:
1699:Drivers/STM32F4xx_HAL_Driver/Src/stm32f4xx_ll_usb.c ****   }
1700:Drivers/STM32F4xx_HAL_Driver/Src/stm32f4xx_ll_usb.c **** 
1701:Drivers/STM32F4xx_HAL_Driver/Src/stm32f4xx_ll_usb.c ****   return ret;
 5760              		.loc 1 1701 10
 5761 0212 FB7F     		ldrb	r3, [r7, #31]	@ zero_extendqisi2
1702:Drivers/STM32F4xx_HAL_Driver/Src/stm32f4xx_ll_usb.c **** }
 5762              		.loc 1 1702 1
 5763 0214 1846     		mov	r0, r3
 5764 0216 2037     		adds	r7, r7, #32
 5765              	.LCFI245:
 5766              		.cfi_def_cfa_offset 8
 5767 0218 BD46     		mov	sp, r7
 5768              	.LCFI246:
 5769              		.cfi_def_cfa_register 13
 5770              		@ sp needed
 5771 021a 80BD     		pop	{r7, pc}
 5772              		.cfi_endproc
 5773              	.LFE170:
 5775              		.section	.text.USB_HC_StartXfer,"ax",%progbits
 5776              		.align	1
 5777              		.global	USB_HC_StartXfer
 5778              		.syntax unified
 5779              		.thumb
 5780              		.thumb_func
 5781              		.fpu fpv4-sp-d16
 5783              	USB_HC_StartXfer:
 5784              	.LFB171:
1703:Drivers/STM32F4xx_HAL_Driver/Src/stm32f4xx_ll_usb.c **** 
1704:Drivers/STM32F4xx_HAL_Driver/Src/stm32f4xx_ll_usb.c **** /**
1705:Drivers/STM32F4xx_HAL_Driver/Src/stm32f4xx_ll_usb.c ****   * @brief  Start a transfer over a host channel
1706:Drivers/STM32F4xx_HAL_Driver/Src/stm32f4xx_ll_usb.c ****   * @param  USBx  Selected device
1707:Drivers/STM32F4xx_HAL_Driver/Src/stm32f4xx_ll_usb.c ****   * @param  hc  pointer to host channel structure
1708:Drivers/STM32F4xx_HAL_Driver/Src/stm32f4xx_ll_usb.c ****   * @param  dma USB dma enabled or disabled
1709:Drivers/STM32F4xx_HAL_Driver/Src/stm32f4xx_ll_usb.c ****   *          This parameter can be one of these values:
1710:Drivers/STM32F4xx_HAL_Driver/Src/stm32f4xx_ll_usb.c ****   *           0 : DMA feature not used
1711:Drivers/STM32F4xx_HAL_Driver/Src/stm32f4xx_ll_usb.c ****   *           1 : DMA feature used
1712:Drivers/STM32F4xx_HAL_Driver/Src/stm32f4xx_ll_usb.c ****   * @retval HAL state
1713:Drivers/STM32F4xx_HAL_Driver/Src/stm32f4xx_ll_usb.c ****   */
1714:Drivers/STM32F4xx_HAL_Driver/Src/stm32f4xx_ll_usb.c **** HAL_StatusTypeDef USB_HC_StartXfer(USB_OTG_GlobalTypeDef *USBx, USB_OTG_HCTypeDef *hc, uint8_t dma)
1715:Drivers/STM32F4xx_HAL_Driver/Src/stm32f4xx_ll_usb.c **** {
 5785              		.loc 1 1715 1
 5786              		.cfi_startproc
 5787              		@ args = 0, pretend = 0, frame = 40
 5788              		@ frame_needed = 1, uses_anonymous_args = 0
 5789 0000 80B5     		push	{r7, lr}
 5790              	.LCFI247:
 5791              		.cfi_def_cfa_offset 8
 5792              		.cfi_offset 7, -8
 5793              		.cfi_offset 14, -4
 5794 0002 8CB0     		sub	sp, sp, #48
 5795              	.LCFI248:
 5796              		.cfi_def_cfa_offset 56
 5797 0004 02AF     		add	r7, sp, #8
 5798              	.LCFI249:
ARM GAS  /var/folders/vq/qt4vp3kd5rxf7v2b6_fdtdt80000gn/T//ccjOke0W.s 			page 132


 5799              		.cfi_def_cfa 7, 48
 5800 0006 F860     		str	r0, [r7, #12]
 5801 0008 B960     		str	r1, [r7, #8]
 5802 000a 1346     		mov	r3, r2
 5803 000c FB71     		strb	r3, [r7, #7]
1716:Drivers/STM32F4xx_HAL_Driver/Src/stm32f4xx_ll_usb.c ****   uint32_t USBx_BASE = (uint32_t)USBx;
 5804              		.loc 1 1716 12
 5805 000e FB68     		ldr	r3, [r7, #12]
 5806 0010 3B62     		str	r3, [r7, #32]
1717:Drivers/STM32F4xx_HAL_Driver/Src/stm32f4xx_ll_usb.c ****   uint32_t ch_num = (uint32_t)hc->ch_num;
 5807              		.loc 1 1717 33
 5808 0012 BB68     		ldr	r3, [r7, #8]
 5809 0014 5B78     		ldrb	r3, [r3, #1]	@ zero_extendqisi2
 5810              		.loc 1 1717 12
 5811 0016 FB61     		str	r3, [r7, #28]
1718:Drivers/STM32F4xx_HAL_Driver/Src/stm32f4xx_ll_usb.c ****   __IO uint32_t tmpreg;
1719:Drivers/STM32F4xx_HAL_Driver/Src/stm32f4xx_ll_usb.c ****   uint8_t  is_oddframe;
1720:Drivers/STM32F4xx_HAL_Driver/Src/stm32f4xx_ll_usb.c ****   uint16_t len_words;
1721:Drivers/STM32F4xx_HAL_Driver/Src/stm32f4xx_ll_usb.c ****   uint16_t num_packets;
1722:Drivers/STM32F4xx_HAL_Driver/Src/stm32f4xx_ll_usb.c ****   uint16_t max_hc_pkt_count = 256U;
 5812              		.loc 1 1722 12
 5813 0018 4FF48073 		mov	r3, #256
 5814 001c 7B83     		strh	r3, [r7, #26]	@ movhi
1723:Drivers/STM32F4xx_HAL_Driver/Src/stm32f4xx_ll_usb.c **** 
1724:Drivers/STM32F4xx_HAL_Driver/Src/stm32f4xx_ll_usb.c ****   if (((USBx->CID & (0x1U << 8)) != 0U) && (hc->speed == USBH_HS_SPEED))
 5815              		.loc 1 1724 13
 5816 001e FB68     		ldr	r3, [r7, #12]
 5817 0020 DB6B     		ldr	r3, [r3, #60]
 5818              		.loc 1 1724 19
 5819 0022 03F48073 		and	r3, r3, #256
 5820              		.loc 1 1724 6
 5821 0026 002B     		cmp	r3, #0
 5822 0028 2DD0     		beq	.L246
 5823              		.loc 1 1724 47 discriminator 1
 5824 002a BB68     		ldr	r3, [r7, #8]
 5825 002c 1B79     		ldrb	r3, [r3, #4]	@ zero_extendqisi2
 5826              		.loc 1 1724 41 discriminator 1
 5827 002e 002B     		cmp	r3, #0
 5828 0030 29D1     		bne	.L246
1725:Drivers/STM32F4xx_HAL_Driver/Src/stm32f4xx_ll_usb.c ****   {
1726:Drivers/STM32F4xx_HAL_Driver/Src/stm32f4xx_ll_usb.c ****     /* in DMA mode host Core automatically issues ping  in case of NYET/NAK */
1727:Drivers/STM32F4xx_HAL_Driver/Src/stm32f4xx_ll_usb.c ****     if ((dma == 1U) && ((hc->ep_type == EP_TYPE_CTRL) || (hc->ep_type == EP_TYPE_BULK)))
 5829              		.loc 1 1727 8
 5830 0032 FB79     		ldrb	r3, [r7, #7]	@ zero_extendqisi2
 5831 0034 012B     		cmp	r3, #1
 5832 0036 17D1     		bne	.L247
 5833              		.loc 1 1727 28 discriminator 1
 5834 0038 BB68     		ldr	r3, [r7, #8]
 5835 003a DB79     		ldrb	r3, [r3, #7]	@ zero_extendqisi2
 5836              		.loc 1 1727 21 discriminator 1
 5837 003c 002B     		cmp	r3, #0
 5838 003e 03D0     		beq	.L248
 5839              		.loc 1 1727 61 discriminator 2
 5840 0040 BB68     		ldr	r3, [r7, #8]
 5841 0042 DB79     		ldrb	r3, [r3, #7]	@ zero_extendqisi2
 5842              		.loc 1 1727 55 discriminator 2
 5843 0044 022B     		cmp	r3, #2
ARM GAS  /var/folders/vq/qt4vp3kd5rxf7v2b6_fdtdt80000gn/T//ccjOke0W.s 			page 133


 5844 0046 0FD1     		bne	.L247
 5845              	.L248:
1728:Drivers/STM32F4xx_HAL_Driver/Src/stm32f4xx_ll_usb.c ****     {
1729:Drivers/STM32F4xx_HAL_Driver/Src/stm32f4xx_ll_usb.c ****       USBx_HC((uint32_t)ch_num)->HCINTMSK &= ~(USB_OTG_HCINTMSK_NYET |
 5846              		.loc 1 1729 43
 5847 0048 FB69     		ldr	r3, [r7, #28]
 5848 004a 5A01     		lsls	r2, r3, #5
 5849 004c 3B6A     		ldr	r3, [r7, #32]
 5850 004e 1344     		add	r3, r3, r2
 5851 0050 03F5A063 		add	r3, r3, #1280
 5852 0054 DB68     		ldr	r3, [r3, #12]
 5853 0056 FA69     		ldr	r2, [r7, #28]
 5854 0058 5101     		lsls	r1, r2, #5
 5855 005a 3A6A     		ldr	r2, [r7, #32]
 5856 005c 0A44     		add	r2, r2, r1
 5857 005e 02F5A062 		add	r2, r2, #1280
 5858 0062 23F07003 		bic	r3, r3, #112
 5859 0066 D360     		str	r3, [r2, #12]
 5860              	.L247:
1730:Drivers/STM32F4xx_HAL_Driver/Src/stm32f4xx_ll_usb.c ****                                                USB_OTG_HCINTMSK_ACKM |
1731:Drivers/STM32F4xx_HAL_Driver/Src/stm32f4xx_ll_usb.c ****                                                USB_OTG_HCINTMSK_NAKM);
1732:Drivers/STM32F4xx_HAL_Driver/Src/stm32f4xx_ll_usb.c ****     }
1733:Drivers/STM32F4xx_HAL_Driver/Src/stm32f4xx_ll_usb.c **** 
1734:Drivers/STM32F4xx_HAL_Driver/Src/stm32f4xx_ll_usb.c ****     if ((dma == 0U) && (hc->do_ping == 1U))
 5861              		.loc 1 1734 8
 5862 0068 FB79     		ldrb	r3, [r7, #7]	@ zero_extendqisi2
 5863 006a 002B     		cmp	r3, #0
 5864 006c 0BD1     		bne	.L246
 5865              		.loc 1 1734 27 discriminator 1
 5866 006e BB68     		ldr	r3, [r7, #8]
 5867 0070 5B79     		ldrb	r3, [r3, #5]	@ zero_extendqisi2
 5868              		.loc 1 1734 21 discriminator 1
 5869 0072 012B     		cmp	r3, #1
 5870 0074 07D1     		bne	.L246
1735:Drivers/STM32F4xx_HAL_Driver/Src/stm32f4xx_ll_usb.c ****     {
1736:Drivers/STM32F4xx_HAL_Driver/Src/stm32f4xx_ll_usb.c ****       (void)USB_DoPing(USBx, hc->ch_num);
 5871              		.loc 1 1736 13
 5872 0076 BB68     		ldr	r3, [r7, #8]
 5873 0078 5B78     		ldrb	r3, [r3, #1]	@ zero_extendqisi2
 5874 007a 1946     		mov	r1, r3
 5875 007c F868     		ldr	r0, [r7, #12]
 5876 007e FFF7FEFF 		bl	USB_DoPing
1737:Drivers/STM32F4xx_HAL_Driver/Src/stm32f4xx_ll_usb.c ****       return HAL_OK;
 5877              		.loc 1 1737 14
 5878 0082 0023     		movs	r3, #0
 5879 0084 F8E0     		b	.L249
 5880              	.L246:
1738:Drivers/STM32F4xx_HAL_Driver/Src/stm32f4xx_ll_usb.c ****     }
1739:Drivers/STM32F4xx_HAL_Driver/Src/stm32f4xx_ll_usb.c **** 
1740:Drivers/STM32F4xx_HAL_Driver/Src/stm32f4xx_ll_usb.c ****   }
1741:Drivers/STM32F4xx_HAL_Driver/Src/stm32f4xx_ll_usb.c **** 
1742:Drivers/STM32F4xx_HAL_Driver/Src/stm32f4xx_ll_usb.c ****   /* Compute the expected number of packets associated to the transfer */
1743:Drivers/STM32F4xx_HAL_Driver/Src/stm32f4xx_ll_usb.c ****   if (hc->xfer_len > 0U)
 5881              		.loc 1 1743 9
 5882 0086 BB68     		ldr	r3, [r7, #8]
 5883 0088 5B69     		ldr	r3, [r3, #20]
 5884              		.loc 1 1743 6
ARM GAS  /var/folders/vq/qt4vp3kd5rxf7v2b6_fdtdt80000gn/T//ccjOke0W.s 			page 134


 5885 008a 002B     		cmp	r3, #0
 5886 008c 18D0     		beq	.L250
1744:Drivers/STM32F4xx_HAL_Driver/Src/stm32f4xx_ll_usb.c ****   {
1745:Drivers/STM32F4xx_HAL_Driver/Src/stm32f4xx_ll_usb.c ****     num_packets = (uint16_t)((hc->xfer_len + hc->max_packet - 1U) / hc->max_packet);
 5887              		.loc 1 1745 33
 5888 008e BB68     		ldr	r3, [r7, #8]
 5889 0090 5B69     		ldr	r3, [r3, #20]
 5890              		.loc 1 1745 48
 5891 0092 BA68     		ldr	r2, [r7, #8]
 5892 0094 1289     		ldrh	r2, [r2, #8]
 5893              		.loc 1 1745 44
 5894 0096 1344     		add	r3, r3, r2
 5895              		.loc 1 1745 61
 5896 0098 013B     		subs	r3, r3, #1
 5897              		.loc 1 1745 71
 5898 009a BA68     		ldr	r2, [r7, #8]
 5899 009c 1289     		ldrh	r2, [r2, #8]
 5900              		.loc 1 1745 67
 5901 009e B3FBF2F3 		udiv	r3, r3, r2
 5902              		.loc 1 1745 17
 5903 00a2 FB84     		strh	r3, [r7, #38]	@ movhi
1746:Drivers/STM32F4xx_HAL_Driver/Src/stm32f4xx_ll_usb.c **** 
1747:Drivers/STM32F4xx_HAL_Driver/Src/stm32f4xx_ll_usb.c ****     if (num_packets > max_hc_pkt_count)
 5904              		.loc 1 1747 8
 5905 00a4 FA8C     		ldrh	r2, [r7, #38]
 5906 00a6 7B8B     		ldrh	r3, [r7, #26]
 5907 00a8 9A42     		cmp	r2, r3
 5908 00aa 0BD9     		bls	.L251
1748:Drivers/STM32F4xx_HAL_Driver/Src/stm32f4xx_ll_usb.c ****     {
1749:Drivers/STM32F4xx_HAL_Driver/Src/stm32f4xx_ll_usb.c ****       num_packets = max_hc_pkt_count;
 5909              		.loc 1 1749 19
 5910 00ac 7B8B     		ldrh	r3, [r7, #26]	@ movhi
 5911 00ae FB84     		strh	r3, [r7, #38]	@ movhi
1750:Drivers/STM32F4xx_HAL_Driver/Src/stm32f4xx_ll_usb.c ****       hc->XferSize = (uint32_t)num_packets * hc->max_packet;
 5912              		.loc 1 1750 22
 5913 00b0 FB8C     		ldrh	r3, [r7, #38]
 5914              		.loc 1 1750 48
 5915 00b2 BA68     		ldr	r2, [r7, #8]
 5916 00b4 1289     		ldrh	r2, [r2, #8]
 5917              		.loc 1 1750 44
 5918 00b6 02FB03F2 		mul	r2, r2, r3
 5919              		.loc 1 1750 20
 5920 00ba BB68     		ldr	r3, [r7, #8]
 5921 00bc 1A61     		str	r2, [r3, #16]
 5922 00be 01E0     		b	.L251
 5923              	.L250:
1751:Drivers/STM32F4xx_HAL_Driver/Src/stm32f4xx_ll_usb.c ****     }
1752:Drivers/STM32F4xx_HAL_Driver/Src/stm32f4xx_ll_usb.c ****   }
1753:Drivers/STM32F4xx_HAL_Driver/Src/stm32f4xx_ll_usb.c ****   else
1754:Drivers/STM32F4xx_HAL_Driver/Src/stm32f4xx_ll_usb.c ****   {
1755:Drivers/STM32F4xx_HAL_Driver/Src/stm32f4xx_ll_usb.c ****     num_packets = 1U;
 5924              		.loc 1 1755 17
 5925 00c0 0123     		movs	r3, #1
 5926 00c2 FB84     		strh	r3, [r7, #38]	@ movhi
 5927              	.L251:
1756:Drivers/STM32F4xx_HAL_Driver/Src/stm32f4xx_ll_usb.c ****   }
1757:Drivers/STM32F4xx_HAL_Driver/Src/stm32f4xx_ll_usb.c **** 
ARM GAS  /var/folders/vq/qt4vp3kd5rxf7v2b6_fdtdt80000gn/T//ccjOke0W.s 			page 135


1758:Drivers/STM32F4xx_HAL_Driver/Src/stm32f4xx_ll_usb.c ****   /*
1759:Drivers/STM32F4xx_HAL_Driver/Src/stm32f4xx_ll_usb.c ****    * For IN channel HCTSIZ.XferSize is expected to be an integer multiple of
1760:Drivers/STM32F4xx_HAL_Driver/Src/stm32f4xx_ll_usb.c ****    * max_packet size.
1761:Drivers/STM32F4xx_HAL_Driver/Src/stm32f4xx_ll_usb.c ****    */
1762:Drivers/STM32F4xx_HAL_Driver/Src/stm32f4xx_ll_usb.c ****   if (hc->ep_is_in != 0U)
 5928              		.loc 1 1762 9
 5929 00c4 BB68     		ldr	r3, [r7, #8]
 5930 00c6 DB78     		ldrb	r3, [r3, #3]	@ zero_extendqisi2
 5931              		.loc 1 1762 6
 5932 00c8 002B     		cmp	r3, #0
 5933 00ca 07D0     		beq	.L252
1763:Drivers/STM32F4xx_HAL_Driver/Src/stm32f4xx_ll_usb.c ****   {
1764:Drivers/STM32F4xx_HAL_Driver/Src/stm32f4xx_ll_usb.c ****     hc->XferSize = (uint32_t)num_packets * hc->max_packet;
 5934              		.loc 1 1764 20
 5935 00cc FB8C     		ldrh	r3, [r7, #38]
 5936              		.loc 1 1764 46
 5937 00ce BA68     		ldr	r2, [r7, #8]
 5938 00d0 1289     		ldrh	r2, [r2, #8]
 5939              		.loc 1 1764 42
 5940 00d2 02FB03F2 		mul	r2, r2, r3
 5941              		.loc 1 1764 18
 5942 00d6 BB68     		ldr	r3, [r7, #8]
 5943 00d8 1A61     		str	r2, [r3, #16]
 5944 00da 03E0     		b	.L253
 5945              	.L252:
1765:Drivers/STM32F4xx_HAL_Driver/Src/stm32f4xx_ll_usb.c ****   }
1766:Drivers/STM32F4xx_HAL_Driver/Src/stm32f4xx_ll_usb.c ****   else
1767:Drivers/STM32F4xx_HAL_Driver/Src/stm32f4xx_ll_usb.c ****   {
1768:Drivers/STM32F4xx_HAL_Driver/Src/stm32f4xx_ll_usb.c ****     hc->XferSize = hc->xfer_len;
 5946              		.loc 1 1768 22
 5947 00dc BB68     		ldr	r3, [r7, #8]
 5948 00de 5A69     		ldr	r2, [r3, #20]
 5949              		.loc 1 1768 18
 5950 00e0 BB68     		ldr	r3, [r7, #8]
 5951 00e2 1A61     		str	r2, [r3, #16]
 5952              	.L253:
1769:Drivers/STM32F4xx_HAL_Driver/Src/stm32f4xx_ll_usb.c ****   }
1770:Drivers/STM32F4xx_HAL_Driver/Src/stm32f4xx_ll_usb.c **** 
1771:Drivers/STM32F4xx_HAL_Driver/Src/stm32f4xx_ll_usb.c ****   /* Initialize the HCTSIZn register */
1772:Drivers/STM32F4xx_HAL_Driver/Src/stm32f4xx_ll_usb.c ****   USBx_HC(ch_num)->HCTSIZ = (hc->XferSize & USB_OTG_HCTSIZ_XFRSIZ) |
 5953              		.loc 1 1772 32
 5954 00e4 BB68     		ldr	r3, [r7, #8]
 5955 00e6 1B69     		ldr	r3, [r3, #16]
 5956              		.loc 1 1772 43
 5957 00e8 C3F31202 		ubfx	r2, r3, #0, #19
1773:Drivers/STM32F4xx_HAL_Driver/Src/stm32f4xx_ll_usb.c ****                             (((uint32_t)num_packets << 19) & USB_OTG_HCTSIZ_PKTCNT) |
 5958              		.loc 1 1773 31
 5959 00ec FB8C     		ldrh	r3, [r7, #38]
 5960              		.loc 1 1773 53
 5961 00ee D904     		lsls	r1, r3, #19
 5962              		.loc 1 1773 60
 5963 00f0 634B     		ldr	r3, .L269
 5964 00f2 0B40     		ands	r3, r3, r1
1772:Drivers/STM32F4xx_HAL_Driver/Src/stm32f4xx_ll_usb.c ****                             (((uint32_t)num_packets << 19) & USB_OTG_HCTSIZ_PKTCNT) |
 5965              		.loc 1 1772 68
 5966 00f4 1A43     		orrs	r2, r2, r3
1774:Drivers/STM32F4xx_HAL_Driver/Src/stm32f4xx_ll_usb.c ****                             (((uint32_t)hc->data_pid << 29) & USB_OTG_HCTSIZ_DPID);
ARM GAS  /var/folders/vq/qt4vp3kd5rxf7v2b6_fdtdt80000gn/T//ccjOke0W.s 			page 136


 5967              		.loc 1 1774 43
 5968 00f6 BB68     		ldr	r3, [r7, #8]
 5969 00f8 9B7A     		ldrb	r3, [r3, #10]	@ zero_extendqisi2
 5970              		.loc 1 1774 54
 5971 00fa 5B07     		lsls	r3, r3, #29
 5972              		.loc 1 1774 61
 5973 00fc 03F0C043 		and	r3, r3, #1610612736
1772:Drivers/STM32F4xx_HAL_Driver/Src/stm32f4xx_ll_usb.c ****                             (((uint32_t)num_packets << 19) & USB_OTG_HCTSIZ_PKTCNT) |
 5974              		.loc 1 1772 3
 5975 0100 F969     		ldr	r1, [r7, #28]
 5976 0102 4801     		lsls	r0, r1, #5
 5977 0104 396A     		ldr	r1, [r7, #32]
 5978 0106 0144     		add	r1, r1, r0
 5979 0108 01F5A061 		add	r1, r1, #1280
1773:Drivers/STM32F4xx_HAL_Driver/Src/stm32f4xx_ll_usb.c ****                             (((uint32_t)num_packets << 19) & USB_OTG_HCTSIZ_PKTCNT) |
 5980              		.loc 1 1773 85
 5981 010c 1343     		orrs	r3, r3, r2
1772:Drivers/STM32F4xx_HAL_Driver/Src/stm32f4xx_ll_usb.c ****                             (((uint32_t)num_packets << 19) & USB_OTG_HCTSIZ_PKTCNT) |
 5982              		.loc 1 1772 27
 5983 010e 0B61     		str	r3, [r1, #16]
1775:Drivers/STM32F4xx_HAL_Driver/Src/stm32f4xx_ll_usb.c **** 
1776:Drivers/STM32F4xx_HAL_Driver/Src/stm32f4xx_ll_usb.c ****   if (dma != 0U)
 5984              		.loc 1 1776 6
 5985 0110 FB79     		ldrb	r3, [r7, #7]	@ zero_extendqisi2
 5986 0112 002B     		cmp	r3, #0
 5987 0114 09D0     		beq	.L254
1777:Drivers/STM32F4xx_HAL_Driver/Src/stm32f4xx_ll_usb.c ****   {
1778:Drivers/STM32F4xx_HAL_Driver/Src/stm32f4xx_ll_usb.c ****     /* xfer_buff MUST be 32-bits aligned */
1779:Drivers/STM32F4xx_HAL_Driver/Src/stm32f4xx_ll_usb.c ****     USBx_HC(ch_num)->HCDMA = (uint32_t)hc->xfer_buff;
 5988              		.loc 1 1779 42
 5989 0116 BB68     		ldr	r3, [r7, #8]
 5990 0118 D968     		ldr	r1, [r3, #12]
 5991              		.loc 1 1779 5
 5992 011a FB69     		ldr	r3, [r7, #28]
 5993 011c 5A01     		lsls	r2, r3, #5
 5994 011e 3B6A     		ldr	r3, [r7, #32]
 5995 0120 1344     		add	r3, r3, r2
 5996 0122 03F5A063 		add	r3, r3, #1280
 5997              		.loc 1 1779 30
 5998 0126 0A46     		mov	r2, r1
 5999              		.loc 1 1779 28
 6000 0128 5A61     		str	r2, [r3, #20]
 6001              	.L254:
1780:Drivers/STM32F4xx_HAL_Driver/Src/stm32f4xx_ll_usb.c ****   }
1781:Drivers/STM32F4xx_HAL_Driver/Src/stm32f4xx_ll_usb.c **** 
1782:Drivers/STM32F4xx_HAL_Driver/Src/stm32f4xx_ll_usb.c ****   is_oddframe = (((uint32_t)USBx_HOST->HFNUM & 0x01U) != 0U) ? 0U : 1U;
 6002              		.loc 1 1782 29
 6003 012a 3B6A     		ldr	r3, [r7, #32]
 6004 012c 03F58063 		add	r3, r3, #1024
 6005              		.loc 1 1782 38
 6006 0130 9B68     		ldr	r3, [r3, #8]
 6007              		.loc 1 1782 46
 6008 0132 03F00103 		and	r3, r3, #1
 6009              		.loc 1 1782 67
 6010 0136 002B     		cmp	r3, #0
 6011 0138 0CBF     		ite	eq
 6012 013a 0123     		moveq	r3, #1
ARM GAS  /var/folders/vq/qt4vp3kd5rxf7v2b6_fdtdt80000gn/T//ccjOke0W.s 			page 137


 6013 013c 0023     		movne	r3, #0
 6014 013e DBB2     		uxtb	r3, r3
 6015              		.loc 1 1782 15
 6016 0140 7B76     		strb	r3, [r7, #25]
1783:Drivers/STM32F4xx_HAL_Driver/Src/stm32f4xx_ll_usb.c ****   USBx_HC(ch_num)->HCCHAR &= ~USB_OTG_HCCHAR_ODDFRM;
 6017              		.loc 1 1783 27
 6018 0142 FB69     		ldr	r3, [r7, #28]
 6019 0144 5A01     		lsls	r2, r3, #5
 6020 0146 3B6A     		ldr	r3, [r7, #32]
 6021 0148 1344     		add	r3, r3, r2
 6022 014a 03F5A063 		add	r3, r3, #1280
 6023 014e 1B68     		ldr	r3, [r3]
 6024 0150 FA69     		ldr	r2, [r7, #28]
 6025 0152 5101     		lsls	r1, r2, #5
 6026 0154 3A6A     		ldr	r2, [r7, #32]
 6027 0156 0A44     		add	r2, r2, r1
 6028 0158 02F5A062 		add	r2, r2, #1280
 6029 015c 23F00053 		bic	r3, r3, #536870912
 6030 0160 1360     		str	r3, [r2]
1784:Drivers/STM32F4xx_HAL_Driver/Src/stm32f4xx_ll_usb.c ****   USBx_HC(ch_num)->HCCHAR |= (uint32_t)is_oddframe << 29;
 6031              		.loc 1 1784 27
 6032 0162 FB69     		ldr	r3, [r7, #28]
 6033 0164 5A01     		lsls	r2, r3, #5
 6034 0166 3B6A     		ldr	r3, [r7, #32]
 6035 0168 1344     		add	r3, r3, r2
 6036 016a 03F5A063 		add	r3, r3, #1280
 6037 016e 1A68     		ldr	r2, [r3]
 6038              		.loc 1 1784 30
 6039 0170 7B7E     		ldrb	r3, [r7, #25]	@ zero_extendqisi2
 6040              		.loc 1 1784 52
 6041 0172 5B07     		lsls	r3, r3, #29
 6042              		.loc 1 1784 27
 6043 0174 F969     		ldr	r1, [r7, #28]
 6044 0176 4801     		lsls	r0, r1, #5
 6045 0178 396A     		ldr	r1, [r7, #32]
 6046 017a 0144     		add	r1, r1, r0
 6047 017c 01F5A061 		add	r1, r1, #1280
 6048 0180 1343     		orrs	r3, r3, r2
 6049 0182 0B60     		str	r3, [r1]
1785:Drivers/STM32F4xx_HAL_Driver/Src/stm32f4xx_ll_usb.c **** 
1786:Drivers/STM32F4xx_HAL_Driver/Src/stm32f4xx_ll_usb.c ****   /* Set host channel enable */
1787:Drivers/STM32F4xx_HAL_Driver/Src/stm32f4xx_ll_usb.c ****   tmpreg = USBx_HC(ch_num)->HCCHAR;
 6050              		.loc 1 1787 12
 6051 0184 FB69     		ldr	r3, [r7, #28]
 6052 0186 5A01     		lsls	r2, r3, #5
 6053 0188 3B6A     		ldr	r3, [r7, #32]
 6054 018a 1344     		add	r3, r3, r2
 6055 018c 03F5A063 		add	r3, r3, #1280
 6056              		.loc 1 1787 27
 6057 0190 1B68     		ldr	r3, [r3]
 6058              		.loc 1 1787 10
 6059 0192 3B61     		str	r3, [r7, #16]
1788:Drivers/STM32F4xx_HAL_Driver/Src/stm32f4xx_ll_usb.c ****   tmpreg &= ~USB_OTG_HCCHAR_CHDIS;
 6060              		.loc 1 1788 10
 6061 0194 3B69     		ldr	r3, [r7, #16]
 6062 0196 23F08043 		bic	r3, r3, #1073741824
 6063 019a 3B61     		str	r3, [r7, #16]
ARM GAS  /var/folders/vq/qt4vp3kd5rxf7v2b6_fdtdt80000gn/T//ccjOke0W.s 			page 138


1789:Drivers/STM32F4xx_HAL_Driver/Src/stm32f4xx_ll_usb.c **** 
1790:Drivers/STM32F4xx_HAL_Driver/Src/stm32f4xx_ll_usb.c ****   /* make sure to set the correct ep direction */
1791:Drivers/STM32F4xx_HAL_Driver/Src/stm32f4xx_ll_usb.c ****   if (hc->ep_is_in != 0U)
 6064              		.loc 1 1791 9
 6065 019c BB68     		ldr	r3, [r7, #8]
 6066 019e DB78     		ldrb	r3, [r3, #3]	@ zero_extendqisi2
 6067              		.loc 1 1791 6
 6068 01a0 002B     		cmp	r3, #0
 6069 01a2 04D0     		beq	.L255
1792:Drivers/STM32F4xx_HAL_Driver/Src/stm32f4xx_ll_usb.c ****   {
1793:Drivers/STM32F4xx_HAL_Driver/Src/stm32f4xx_ll_usb.c ****     tmpreg |= USB_OTG_HCCHAR_EPDIR;
 6070              		.loc 1 1793 12
 6071 01a4 3B69     		ldr	r3, [r7, #16]
 6072 01a6 43F40043 		orr	r3, r3, #32768
 6073 01aa 3B61     		str	r3, [r7, #16]
 6074 01ac 03E0     		b	.L256
 6075              	.L255:
1794:Drivers/STM32F4xx_HAL_Driver/Src/stm32f4xx_ll_usb.c ****   }
1795:Drivers/STM32F4xx_HAL_Driver/Src/stm32f4xx_ll_usb.c ****   else
1796:Drivers/STM32F4xx_HAL_Driver/Src/stm32f4xx_ll_usb.c ****   {
1797:Drivers/STM32F4xx_HAL_Driver/Src/stm32f4xx_ll_usb.c ****     tmpreg &= ~USB_OTG_HCCHAR_EPDIR;
 6076              		.loc 1 1797 12
 6077 01ae 3B69     		ldr	r3, [r7, #16]
 6078 01b0 23F40043 		bic	r3, r3, #32768
 6079 01b4 3B61     		str	r3, [r7, #16]
 6080              	.L256:
1798:Drivers/STM32F4xx_HAL_Driver/Src/stm32f4xx_ll_usb.c ****   }
1799:Drivers/STM32F4xx_HAL_Driver/Src/stm32f4xx_ll_usb.c ****   tmpreg |= USB_OTG_HCCHAR_CHENA;
 6081              		.loc 1 1799 10
 6082 01b6 3B69     		ldr	r3, [r7, #16]
 6083 01b8 43F00043 		orr	r3, r3, #-2147483648
 6084 01bc 3B61     		str	r3, [r7, #16]
1800:Drivers/STM32F4xx_HAL_Driver/Src/stm32f4xx_ll_usb.c ****   USBx_HC(ch_num)->HCCHAR = tmpreg;
 6085              		.loc 1 1800 3
 6086 01be FB69     		ldr	r3, [r7, #28]
 6087 01c0 5A01     		lsls	r2, r3, #5
 6088 01c2 3B6A     		ldr	r3, [r7, #32]
 6089 01c4 1344     		add	r3, r3, r2
 6090 01c6 03F5A063 		add	r3, r3, #1280
 6091 01ca 1A46     		mov	r2, r3
 6092              		.loc 1 1800 27
 6093 01cc 3B69     		ldr	r3, [r7, #16]
 6094 01ce 1360     		str	r3, [r2]
1801:Drivers/STM32F4xx_HAL_Driver/Src/stm32f4xx_ll_usb.c **** 
1802:Drivers/STM32F4xx_HAL_Driver/Src/stm32f4xx_ll_usb.c ****   if (dma != 0U) /* dma mode */
 6095              		.loc 1 1802 6
 6096 01d0 FB79     		ldrb	r3, [r7, #7]	@ zero_extendqisi2
 6097 01d2 002B     		cmp	r3, #0
 6098 01d4 01D0     		beq	.L257
1803:Drivers/STM32F4xx_HAL_Driver/Src/stm32f4xx_ll_usb.c ****   {
1804:Drivers/STM32F4xx_HAL_Driver/Src/stm32f4xx_ll_usb.c ****     return HAL_OK;
 6099              		.loc 1 1804 12
 6100 01d6 0023     		movs	r3, #0
 6101 01d8 4EE0     		b	.L249
 6102              	.L257:
1805:Drivers/STM32F4xx_HAL_Driver/Src/stm32f4xx_ll_usb.c ****   }
1806:Drivers/STM32F4xx_HAL_Driver/Src/stm32f4xx_ll_usb.c **** 
ARM GAS  /var/folders/vq/qt4vp3kd5rxf7v2b6_fdtdt80000gn/T//ccjOke0W.s 			page 139


1807:Drivers/STM32F4xx_HAL_Driver/Src/stm32f4xx_ll_usb.c ****   if ((hc->ep_is_in == 0U) && (hc->xfer_len > 0U))
 6103              		.loc 1 1807 10
 6104 01da BB68     		ldr	r3, [r7, #8]
 6105 01dc DB78     		ldrb	r3, [r3, #3]	@ zero_extendqisi2
 6106              		.loc 1 1807 6
 6107 01de 002B     		cmp	r3, #0
 6108 01e0 49D1     		bne	.L258
 6109              		.loc 1 1807 34 discriminator 1
 6110 01e2 BB68     		ldr	r3, [r7, #8]
 6111 01e4 5B69     		ldr	r3, [r3, #20]
 6112              		.loc 1 1807 28 discriminator 1
 6113 01e6 002B     		cmp	r3, #0
 6114 01e8 45D0     		beq	.L258
1808:Drivers/STM32F4xx_HAL_Driver/Src/stm32f4xx_ll_usb.c ****   {
1809:Drivers/STM32F4xx_HAL_Driver/Src/stm32f4xx_ll_usb.c ****     switch (hc->ep_type)
 6115              		.loc 1 1809 15
 6116 01ea BB68     		ldr	r3, [r7, #8]
 6117 01ec DB79     		ldrb	r3, [r3, #7]	@ zero_extendqisi2
 6118 01ee 032B     		cmp	r3, #3
 6119 01f0 30D8     		bhi	.L266
 6120 01f2 01A2     		adr	r2, .L261
 6121 01f4 52F823F0 		ldr	pc, [r2, r3, lsl #2]
 6122              		.p2align 2
 6123              	.L261:
 6124 01f8 09020000 		.word	.L262+1
 6125 01fc 2D020000 		.word	.L260+1
 6126 0200 09020000 		.word	.L262+1
 6127 0204 2D020000 		.word	.L260+1
 6128              		.p2align 1
 6129              	.L262:
1810:Drivers/STM32F4xx_HAL_Driver/Src/stm32f4xx_ll_usb.c ****     {
1811:Drivers/STM32F4xx_HAL_Driver/Src/stm32f4xx_ll_usb.c ****       /* Non periodic transfer */
1812:Drivers/STM32F4xx_HAL_Driver/Src/stm32f4xx_ll_usb.c ****       case EP_TYPE_CTRL:
1813:Drivers/STM32F4xx_HAL_Driver/Src/stm32f4xx_ll_usb.c ****       case EP_TYPE_BULK:
1814:Drivers/STM32F4xx_HAL_Driver/Src/stm32f4xx_ll_usb.c **** 
1815:Drivers/STM32F4xx_HAL_Driver/Src/stm32f4xx_ll_usb.c ****         len_words = (uint16_t)((hc->xfer_len + 3U) / 4U);
 6130              		.loc 1 1815 35
 6131 0208 BB68     		ldr	r3, [r7, #8]
 6132 020a 5B69     		ldr	r3, [r3, #20]
 6133              		.loc 1 1815 46
 6134 020c 0333     		adds	r3, r3, #3
 6135              		.loc 1 1815 52
 6136 020e 9B08     		lsrs	r3, r3, #2
 6137              		.loc 1 1815 19
 6138 0210 FB82     		strh	r3, [r7, #22]	@ movhi
1816:Drivers/STM32F4xx_HAL_Driver/Src/stm32f4xx_ll_usb.c **** 
1817:Drivers/STM32F4xx_HAL_Driver/Src/stm32f4xx_ll_usb.c ****         /* check if there is enough space in FIFO space */
1818:Drivers/STM32F4xx_HAL_Driver/Src/stm32f4xx_ll_usb.c ****         if (len_words > (USBx->HNPTXSTS & 0xFFFFU))
 6139              		.loc 1 1818 23
 6140 0212 FA8A     		ldrh	r2, [r7, #22]
 6141              		.loc 1 1818 30
 6142 0214 FB68     		ldr	r3, [r7, #12]
 6143 0216 DB6A     		ldr	r3, [r3, #44]
 6144              		.loc 1 1818 41
 6145 0218 9BB2     		uxth	r3, r3
 6146              		.loc 1 1818 12
 6147 021a 9A42     		cmp	r2, r3
ARM GAS  /var/folders/vq/qt4vp3kd5rxf7v2b6_fdtdt80000gn/T//ccjOke0W.s 			page 140


 6148 021c 1CD9     		bls	.L267
1819:Drivers/STM32F4xx_HAL_Driver/Src/stm32f4xx_ll_usb.c ****         {
1820:Drivers/STM32F4xx_HAL_Driver/Src/stm32f4xx_ll_usb.c ****           /* need to process data in nptxfempty interrupt */
1821:Drivers/STM32F4xx_HAL_Driver/Src/stm32f4xx_ll_usb.c ****           USBx->GINTMSK |= USB_OTG_GINTMSK_NPTXFEM;
 6149              		.loc 1 1821 25
 6150 021e FB68     		ldr	r3, [r7, #12]
 6151 0220 9B69     		ldr	r3, [r3, #24]
 6152 0222 43F02002 		orr	r2, r3, #32
 6153 0226 FB68     		ldr	r3, [r7, #12]
 6154 0228 9A61     		str	r2, [r3, #24]
1822:Drivers/STM32F4xx_HAL_Driver/Src/stm32f4xx_ll_usb.c ****         }
1823:Drivers/STM32F4xx_HAL_Driver/Src/stm32f4xx_ll_usb.c ****         break;
 6155              		.loc 1 1823 9
 6156 022a 15E0     		b	.L267
 6157              	.L260:
1824:Drivers/STM32F4xx_HAL_Driver/Src/stm32f4xx_ll_usb.c **** 
1825:Drivers/STM32F4xx_HAL_Driver/Src/stm32f4xx_ll_usb.c ****       /* Periodic transfer */
1826:Drivers/STM32F4xx_HAL_Driver/Src/stm32f4xx_ll_usb.c ****       case EP_TYPE_INTR:
1827:Drivers/STM32F4xx_HAL_Driver/Src/stm32f4xx_ll_usb.c ****       case EP_TYPE_ISOC:
1828:Drivers/STM32F4xx_HAL_Driver/Src/stm32f4xx_ll_usb.c ****         len_words = (uint16_t)((hc->xfer_len + 3U) / 4U);
 6158              		.loc 1 1828 35
 6159 022c BB68     		ldr	r3, [r7, #8]
 6160 022e 5B69     		ldr	r3, [r3, #20]
 6161              		.loc 1 1828 46
 6162 0230 0333     		adds	r3, r3, #3
 6163              		.loc 1 1828 52
 6164 0232 9B08     		lsrs	r3, r3, #2
 6165              		.loc 1 1828 19
 6166 0234 FB82     		strh	r3, [r7, #22]	@ movhi
1829:Drivers/STM32F4xx_HAL_Driver/Src/stm32f4xx_ll_usb.c ****         /* check if there is enough space in FIFO space */
1830:Drivers/STM32F4xx_HAL_Driver/Src/stm32f4xx_ll_usb.c ****         if (len_words > (USBx_HOST->HPTXSTS & 0xFFFFU)) /* split the transfer */
 6167              		.loc 1 1830 23
 6168 0236 FA8A     		ldrh	r2, [r7, #22]
 6169              		.loc 1 1830 26
 6170 0238 3B6A     		ldr	r3, [r7, #32]
 6171 023a 03F58063 		add	r3, r3, #1024
 6172              		.loc 1 1830 35
 6173 023e 1B69     		ldr	r3, [r3, #16]
 6174              		.loc 1 1830 45
 6175 0240 9BB2     		uxth	r3, r3
 6176              		.loc 1 1830 12
 6177 0242 9A42     		cmp	r2, r3
 6178 0244 0AD9     		bls	.L268
1831:Drivers/STM32F4xx_HAL_Driver/Src/stm32f4xx_ll_usb.c ****         {
1832:Drivers/STM32F4xx_HAL_Driver/Src/stm32f4xx_ll_usb.c ****           /* need to process data in ptxfempty interrupt */
1833:Drivers/STM32F4xx_HAL_Driver/Src/stm32f4xx_ll_usb.c ****           USBx->GINTMSK |= USB_OTG_GINTMSK_PTXFEM;
 6179              		.loc 1 1833 25
 6180 0246 FB68     		ldr	r3, [r7, #12]
 6181 0248 9B69     		ldr	r3, [r3, #24]
 6182 024a 43F08062 		orr	r2, r3, #67108864
 6183 024e FB68     		ldr	r3, [r7, #12]
 6184 0250 9A61     		str	r2, [r3, #24]
1834:Drivers/STM32F4xx_HAL_Driver/Src/stm32f4xx_ll_usb.c ****         }
1835:Drivers/STM32F4xx_HAL_Driver/Src/stm32f4xx_ll_usb.c ****         break;
 6185              		.loc 1 1835 9
 6186 0252 03E0     		b	.L268
 6187              	.L266:
ARM GAS  /var/folders/vq/qt4vp3kd5rxf7v2b6_fdtdt80000gn/T//ccjOke0W.s 			page 141


1836:Drivers/STM32F4xx_HAL_Driver/Src/stm32f4xx_ll_usb.c **** 
1837:Drivers/STM32F4xx_HAL_Driver/Src/stm32f4xx_ll_usb.c ****       default:
1838:Drivers/STM32F4xx_HAL_Driver/Src/stm32f4xx_ll_usb.c ****         break;
 6188              		.loc 1 1838 9
 6189 0254 00BF     		nop
 6190 0256 02E0     		b	.L264
 6191              	.L267:
1823:Drivers/STM32F4xx_HAL_Driver/Src/stm32f4xx_ll_usb.c **** 
 6192              		.loc 1 1823 9
 6193 0258 00BF     		nop
 6194 025a 00E0     		b	.L264
 6195              	.L268:
1835:Drivers/STM32F4xx_HAL_Driver/Src/stm32f4xx_ll_usb.c **** 
 6196              		.loc 1 1835 9
 6197 025c 00BF     		nop
 6198              	.L264:
1839:Drivers/STM32F4xx_HAL_Driver/Src/stm32f4xx_ll_usb.c ****     }
1840:Drivers/STM32F4xx_HAL_Driver/Src/stm32f4xx_ll_usb.c **** 
1841:Drivers/STM32F4xx_HAL_Driver/Src/stm32f4xx_ll_usb.c ****     /* Write packet into the Tx FIFO. */
1842:Drivers/STM32F4xx_HAL_Driver/Src/stm32f4xx_ll_usb.c ****     (void)USB_WritePacket(USBx, hc->xfer_buff, hc->ch_num, (uint16_t)hc->xfer_len, 0);
 6199              		.loc 1 1842 11
 6200 025e BB68     		ldr	r3, [r7, #8]
 6201 0260 D968     		ldr	r1, [r3, #12]
 6202 0262 BB68     		ldr	r3, [r7, #8]
 6203 0264 5A78     		ldrb	r2, [r3, #1]	@ zero_extendqisi2
 6204              		.loc 1 1842 72
 6205 0266 BB68     		ldr	r3, [r7, #8]
 6206 0268 5B69     		ldr	r3, [r3, #20]
 6207              		.loc 1 1842 11
 6208 026a 9BB2     		uxth	r3, r3
 6209 026c 0020     		movs	r0, #0
 6210 026e 0090     		str	r0, [sp]
 6211 0270 F868     		ldr	r0, [r7, #12]
 6212 0272 FFF7FEFF 		bl	USB_WritePacket
 6213              	.L258:
1843:Drivers/STM32F4xx_HAL_Driver/Src/stm32f4xx_ll_usb.c ****   }
1844:Drivers/STM32F4xx_HAL_Driver/Src/stm32f4xx_ll_usb.c **** 
1845:Drivers/STM32F4xx_HAL_Driver/Src/stm32f4xx_ll_usb.c ****   return HAL_OK;
 6214              		.loc 1 1845 10
 6215 0276 0023     		movs	r3, #0
 6216              	.L249:
1846:Drivers/STM32F4xx_HAL_Driver/Src/stm32f4xx_ll_usb.c **** }
 6217              		.loc 1 1846 1
 6218 0278 1846     		mov	r0, r3
 6219 027a 2837     		adds	r7, r7, #40
 6220              	.LCFI250:
 6221              		.cfi_def_cfa_offset 8
 6222 027c BD46     		mov	sp, r7
 6223              	.LCFI251:
 6224              		.cfi_def_cfa_register 13
 6225              		@ sp needed
 6226 027e 80BD     		pop	{r7, pc}
 6227              	.L270:
 6228              		.align	2
 6229              	.L269:
 6230 0280 0000F81F 		.word	536346624
 6231              		.cfi_endproc
ARM GAS  /var/folders/vq/qt4vp3kd5rxf7v2b6_fdtdt80000gn/T//ccjOke0W.s 			page 142


 6232              	.LFE171:
 6234              		.section	.text.USB_HC_ReadInterrupt,"ax",%progbits
 6235              		.align	1
 6236              		.global	USB_HC_ReadInterrupt
 6237              		.syntax unified
 6238              		.thumb
 6239              		.thumb_func
 6240              		.fpu fpv4-sp-d16
 6242              	USB_HC_ReadInterrupt:
 6243              	.LFB172:
1847:Drivers/STM32F4xx_HAL_Driver/Src/stm32f4xx_ll_usb.c **** 
1848:Drivers/STM32F4xx_HAL_Driver/Src/stm32f4xx_ll_usb.c **** /**
1849:Drivers/STM32F4xx_HAL_Driver/Src/stm32f4xx_ll_usb.c ****   * @brief Read all host channel interrupts status
1850:Drivers/STM32F4xx_HAL_Driver/Src/stm32f4xx_ll_usb.c ****   * @param  USBx  Selected device
1851:Drivers/STM32F4xx_HAL_Driver/Src/stm32f4xx_ll_usb.c ****   * @retval HAL state
1852:Drivers/STM32F4xx_HAL_Driver/Src/stm32f4xx_ll_usb.c ****   */
1853:Drivers/STM32F4xx_HAL_Driver/Src/stm32f4xx_ll_usb.c **** uint32_t USB_HC_ReadInterrupt(USB_OTG_GlobalTypeDef *USBx)
1854:Drivers/STM32F4xx_HAL_Driver/Src/stm32f4xx_ll_usb.c **** {
 6244              		.loc 1 1854 1
 6245              		.cfi_startproc
 6246              		@ args = 0, pretend = 0, frame = 16
 6247              		@ frame_needed = 1, uses_anonymous_args = 0
 6248              		@ link register save eliminated.
 6249 0000 80B4     		push	{r7}
 6250              	.LCFI252:
 6251              		.cfi_def_cfa_offset 4
 6252              		.cfi_offset 7, -4
 6253 0002 85B0     		sub	sp, sp, #20
 6254              	.LCFI253:
 6255              		.cfi_def_cfa_offset 24
 6256 0004 00AF     		add	r7, sp, #0
 6257              	.LCFI254:
 6258              		.cfi_def_cfa_register 7
 6259 0006 7860     		str	r0, [r7, #4]
1855:Drivers/STM32F4xx_HAL_Driver/Src/stm32f4xx_ll_usb.c ****   uint32_t USBx_BASE = (uint32_t)USBx;
 6260              		.loc 1 1855 12
 6261 0008 7B68     		ldr	r3, [r7, #4]
 6262 000a FB60     		str	r3, [r7, #12]
1856:Drivers/STM32F4xx_HAL_Driver/Src/stm32f4xx_ll_usb.c **** 
1857:Drivers/STM32F4xx_HAL_Driver/Src/stm32f4xx_ll_usb.c ****   return ((USBx_HOST->HAINT) & 0xFFFFU);
 6263              		.loc 1 1857 12
 6264 000c FB68     		ldr	r3, [r7, #12]
 6265 000e 03F58063 		add	r3, r3, #1024
 6266              		.loc 1 1857 21
 6267 0012 5B69     		ldr	r3, [r3, #20]
 6268              		.loc 1 1857 30
 6269 0014 9BB2     		uxth	r3, r3
1858:Drivers/STM32F4xx_HAL_Driver/Src/stm32f4xx_ll_usb.c **** }
 6270              		.loc 1 1858 1
 6271 0016 1846     		mov	r0, r3
 6272 0018 1437     		adds	r7, r7, #20
 6273              	.LCFI255:
 6274              		.cfi_def_cfa_offset 4
 6275 001a BD46     		mov	sp, r7
 6276              	.LCFI256:
 6277              		.cfi_def_cfa_register 13
 6278              		@ sp needed
ARM GAS  /var/folders/vq/qt4vp3kd5rxf7v2b6_fdtdt80000gn/T//ccjOke0W.s 			page 143


 6279 001c 5DF8047B 		ldr	r7, [sp], #4
 6280              	.LCFI257:
 6281              		.cfi_restore 7
 6282              		.cfi_def_cfa_offset 0
 6283 0020 7047     		bx	lr
 6284              		.cfi_endproc
 6285              	.LFE172:
 6287              		.section	.text.USB_HC_Halt,"ax",%progbits
 6288              		.align	1
 6289              		.global	USB_HC_Halt
 6290              		.syntax unified
 6291              		.thumb
 6292              		.thumb_func
 6293              		.fpu fpv4-sp-d16
 6295              	USB_HC_Halt:
 6296              	.LFB173:
1859:Drivers/STM32F4xx_HAL_Driver/Src/stm32f4xx_ll_usb.c **** 
1860:Drivers/STM32F4xx_HAL_Driver/Src/stm32f4xx_ll_usb.c **** /**
1861:Drivers/STM32F4xx_HAL_Driver/Src/stm32f4xx_ll_usb.c ****   * @brief  Halt a host channel
1862:Drivers/STM32F4xx_HAL_Driver/Src/stm32f4xx_ll_usb.c ****   * @param  USBx  Selected device
1863:Drivers/STM32F4xx_HAL_Driver/Src/stm32f4xx_ll_usb.c ****   * @param  hc_num  Host Channel number
1864:Drivers/STM32F4xx_HAL_Driver/Src/stm32f4xx_ll_usb.c ****   *         This parameter can be a value from 1 to 15
1865:Drivers/STM32F4xx_HAL_Driver/Src/stm32f4xx_ll_usb.c ****   * @retval HAL state
1866:Drivers/STM32F4xx_HAL_Driver/Src/stm32f4xx_ll_usb.c ****   */
1867:Drivers/STM32F4xx_HAL_Driver/Src/stm32f4xx_ll_usb.c **** HAL_StatusTypeDef USB_HC_Halt(USB_OTG_GlobalTypeDef *USBx, uint8_t hc_num)
1868:Drivers/STM32F4xx_HAL_Driver/Src/stm32f4xx_ll_usb.c **** {
 6297              		.loc 1 1868 1
 6298              		.cfi_startproc
 6299              		@ args = 0, pretend = 0, frame = 32
 6300              		@ frame_needed = 1, uses_anonymous_args = 0
 6301              		@ link register save eliminated.
 6302 0000 80B4     		push	{r7}
 6303              	.LCFI258:
 6304              		.cfi_def_cfa_offset 4
 6305              		.cfi_offset 7, -4
 6306 0002 89B0     		sub	sp, sp, #36
 6307              	.LCFI259:
 6308              		.cfi_def_cfa_offset 40
 6309 0004 00AF     		add	r7, sp, #0
 6310              	.LCFI260:
 6311              		.cfi_def_cfa_register 7
 6312 0006 7860     		str	r0, [r7, #4]
 6313 0008 0B46     		mov	r3, r1
 6314 000a FB70     		strb	r3, [r7, #3]
1869:Drivers/STM32F4xx_HAL_Driver/Src/stm32f4xx_ll_usb.c ****   uint32_t USBx_BASE = (uint32_t)USBx;
 6315              		.loc 1 1869 12
 6316 000c 7B68     		ldr	r3, [r7, #4]
 6317 000e BB61     		str	r3, [r7, #24]
1870:Drivers/STM32F4xx_HAL_Driver/Src/stm32f4xx_ll_usb.c ****   uint32_t hcnum = (uint32_t)hc_num;
 6318              		.loc 1 1870 12
 6319 0010 FB78     		ldrb	r3, [r7, #3]	@ zero_extendqisi2
 6320 0012 7B61     		str	r3, [r7, #20]
1871:Drivers/STM32F4xx_HAL_Driver/Src/stm32f4xx_ll_usb.c ****   uint32_t count = 0U;
 6321              		.loc 1 1871 12
 6322 0014 0023     		movs	r3, #0
 6323 0016 FB61     		str	r3, [r7, #28]
1872:Drivers/STM32F4xx_HAL_Driver/Src/stm32f4xx_ll_usb.c ****   uint32_t HcEpType = (USBx_HC(hcnum)->HCCHAR & USB_OTG_HCCHAR_EPTYP) >> 18;
ARM GAS  /var/folders/vq/qt4vp3kd5rxf7v2b6_fdtdt80000gn/T//ccjOke0W.s 			page 144


 6324              		.loc 1 1872 24
 6325 0018 7B69     		ldr	r3, [r7, #20]
 6326 001a 5A01     		lsls	r2, r3, #5
 6327 001c BB69     		ldr	r3, [r7, #24]
 6328 001e 1344     		add	r3, r3, r2
 6329 0020 03F5A063 		add	r3, r3, #1280
 6330              		.loc 1 1872 38
 6331 0024 1B68     		ldr	r3, [r3]
 6332              		.loc 1 1872 71
 6333 0026 9B0C     		lsrs	r3, r3, #18
 6334              		.loc 1 1872 12
 6335 0028 03F00303 		and	r3, r3, #3
 6336 002c 3B61     		str	r3, [r7, #16]
1873:Drivers/STM32F4xx_HAL_Driver/Src/stm32f4xx_ll_usb.c ****   uint32_t ChannelEna = (USBx_HC(hcnum)->HCCHAR & USB_OTG_HCCHAR_CHENA) >> 31;
 6337              		.loc 1 1873 26
 6338 002e 7B69     		ldr	r3, [r7, #20]
 6339 0030 5A01     		lsls	r2, r3, #5
 6340 0032 BB69     		ldr	r3, [r7, #24]
 6341 0034 1344     		add	r3, r3, r2
 6342 0036 03F5A063 		add	r3, r3, #1280
 6343              		.loc 1 1873 40
 6344 003a 1B68     		ldr	r3, [r3]
 6345              		.loc 1 1873 73
 6346 003c DB0F     		lsrs	r3, r3, #31
 6347              		.loc 1 1873 12
 6348 003e 03F00103 		and	r3, r3, #1
 6349 0042 FB60     		str	r3, [r7, #12]
1874:Drivers/STM32F4xx_HAL_Driver/Src/stm32f4xx_ll_usb.c **** 
1875:Drivers/STM32F4xx_HAL_Driver/Src/stm32f4xx_ll_usb.c ****   if (((USBx->GAHBCFG & USB_OTG_GAHBCFG_DMAEN) == USB_OTG_GAHBCFG_DMAEN) &&
 6350              		.loc 1 1875 13
 6351 0044 7B68     		ldr	r3, [r7, #4]
 6352 0046 9B68     		ldr	r3, [r3, #8]
 6353              		.loc 1 1875 23
 6354 0048 03F02003 		and	r3, r3, #32
 6355              		.loc 1 1875 6
 6356 004c 202B     		cmp	r3, #32
 6357 004e 04D1     		bne	.L274
 6358              		.loc 1 1875 74 discriminator 1
 6359 0050 FB68     		ldr	r3, [r7, #12]
 6360 0052 002B     		cmp	r3, #0
 6361 0054 01D1     		bne	.L274
1876:Drivers/STM32F4xx_HAL_Driver/Src/stm32f4xx_ll_usb.c ****       (ChannelEna == 0U))
1877:Drivers/STM32F4xx_HAL_Driver/Src/stm32f4xx_ll_usb.c ****   {
1878:Drivers/STM32F4xx_HAL_Driver/Src/stm32f4xx_ll_usb.c ****     return HAL_OK;
 6362              		.loc 1 1878 12
 6363 0056 0023     		movs	r3, #0
 6364 0058 E8E0     		b	.L275
 6365              	.L274:
1879:Drivers/STM32F4xx_HAL_Driver/Src/stm32f4xx_ll_usb.c ****   }
1880:Drivers/STM32F4xx_HAL_Driver/Src/stm32f4xx_ll_usb.c **** 
1881:Drivers/STM32F4xx_HAL_Driver/Src/stm32f4xx_ll_usb.c ****   /* Check for space in the request queue to issue the halt. */
1882:Drivers/STM32F4xx_HAL_Driver/Src/stm32f4xx_ll_usb.c ****   if ((HcEpType == HCCHAR_CTRL) || (HcEpType == HCCHAR_BULK))
 6366              		.loc 1 1882 6
 6367 005a 3B69     		ldr	r3, [r7, #16]
 6368 005c 002B     		cmp	r3, #0
 6369 005e 02D0     		beq	.L276
 6370              		.loc 1 1882 33 discriminator 1
ARM GAS  /var/folders/vq/qt4vp3kd5rxf7v2b6_fdtdt80000gn/T//ccjOke0W.s 			page 145


 6371 0060 3B69     		ldr	r3, [r7, #16]
 6372 0062 022B     		cmp	r3, #2
 6373 0064 73D1     		bne	.L277
 6374              	.L276:
1883:Drivers/STM32F4xx_HAL_Driver/Src/stm32f4xx_ll_usb.c ****   {
1884:Drivers/STM32F4xx_HAL_Driver/Src/stm32f4xx_ll_usb.c ****     USBx_HC(hcnum)->HCCHAR |= USB_OTG_HCCHAR_CHDIS;
 6375              		.loc 1 1884 28
 6376 0066 7B69     		ldr	r3, [r7, #20]
 6377 0068 5A01     		lsls	r2, r3, #5
 6378 006a BB69     		ldr	r3, [r7, #24]
 6379 006c 1344     		add	r3, r3, r2
 6380 006e 03F5A063 		add	r3, r3, #1280
 6381 0072 1B68     		ldr	r3, [r3]
 6382 0074 7A69     		ldr	r2, [r7, #20]
 6383 0076 5101     		lsls	r1, r2, #5
 6384 0078 BA69     		ldr	r2, [r7, #24]
 6385 007a 0A44     		add	r2, r2, r1
 6386 007c 02F5A062 		add	r2, r2, #1280
 6387 0080 43F08043 		orr	r3, r3, #1073741824
 6388 0084 1360     		str	r3, [r2]
1885:Drivers/STM32F4xx_HAL_Driver/Src/stm32f4xx_ll_usb.c **** 
1886:Drivers/STM32F4xx_HAL_Driver/Src/stm32f4xx_ll_usb.c ****     if ((USBx->GAHBCFG & USB_OTG_GAHBCFG_DMAEN) == 0U)
 6389              		.loc 1 1886 14
 6390 0086 7B68     		ldr	r3, [r7, #4]
 6391 0088 9B68     		ldr	r3, [r3, #8]
 6392              		.loc 1 1886 24
 6393 008a 03F02003 		and	r3, r3, #32
 6394              		.loc 1 1886 8
 6395 008e 002B     		cmp	r3, #0
 6396 0090 40F0CB80 		bne	.L283
1887:Drivers/STM32F4xx_HAL_Driver/Src/stm32f4xx_ll_usb.c ****     {
1888:Drivers/STM32F4xx_HAL_Driver/Src/stm32f4xx_ll_usb.c ****       if ((USBx->HNPTXSTS & (0xFFU << 16)) == 0U)
 6397              		.loc 1 1888 16
 6398 0094 7B68     		ldr	r3, [r7, #4]
 6399 0096 DB6A     		ldr	r3, [r3, #44]
 6400              		.loc 1 1888 27
 6401 0098 03F47F03 		and	r3, r3, #16711680
 6402              		.loc 1 1888 10
 6403 009c 002B     		cmp	r3, #0
 6404 009e 43D1     		bne	.L279
1889:Drivers/STM32F4xx_HAL_Driver/Src/stm32f4xx_ll_usb.c ****       {
1890:Drivers/STM32F4xx_HAL_Driver/Src/stm32f4xx_ll_usb.c ****         USBx_HC(hcnum)->HCCHAR &= ~USB_OTG_HCCHAR_CHENA;
 6405              		.loc 1 1890 32
 6406 00a0 7B69     		ldr	r3, [r7, #20]
 6407 00a2 5A01     		lsls	r2, r3, #5
 6408 00a4 BB69     		ldr	r3, [r7, #24]
 6409 00a6 1344     		add	r3, r3, r2
 6410 00a8 03F5A063 		add	r3, r3, #1280
 6411 00ac 1B68     		ldr	r3, [r3]
 6412 00ae 7A69     		ldr	r2, [r7, #20]
 6413 00b0 5101     		lsls	r1, r2, #5
 6414 00b2 BA69     		ldr	r2, [r7, #24]
 6415 00b4 0A44     		add	r2, r2, r1
 6416 00b6 02F5A062 		add	r2, r2, #1280
 6417 00ba 23F00043 		bic	r3, r3, #-2147483648
 6418 00be 1360     		str	r3, [r2]
1891:Drivers/STM32F4xx_HAL_Driver/Src/stm32f4xx_ll_usb.c ****         USBx_HC(hcnum)->HCCHAR |= USB_OTG_HCCHAR_CHENA;
ARM GAS  /var/folders/vq/qt4vp3kd5rxf7v2b6_fdtdt80000gn/T//ccjOke0W.s 			page 146


 6419              		.loc 1 1891 32
 6420 00c0 7B69     		ldr	r3, [r7, #20]
 6421 00c2 5A01     		lsls	r2, r3, #5
 6422 00c4 BB69     		ldr	r3, [r7, #24]
 6423 00c6 1344     		add	r3, r3, r2
 6424 00c8 03F5A063 		add	r3, r3, #1280
 6425 00cc 1B68     		ldr	r3, [r3]
 6426 00ce 7A69     		ldr	r2, [r7, #20]
 6427 00d0 5101     		lsls	r1, r2, #5
 6428 00d2 BA69     		ldr	r2, [r7, #24]
 6429 00d4 0A44     		add	r2, r2, r1
 6430 00d6 02F5A062 		add	r2, r2, #1280
 6431 00da 43F00043 		orr	r3, r3, #-2147483648
 6432 00de 1360     		str	r3, [r2]
1892:Drivers/STM32F4xx_HAL_Driver/Src/stm32f4xx_ll_usb.c ****         USBx_HC(hcnum)->HCCHAR &= ~USB_OTG_HCCHAR_EPDIR;
 6433              		.loc 1 1892 32
 6434 00e0 7B69     		ldr	r3, [r7, #20]
 6435 00e2 5A01     		lsls	r2, r3, #5
 6436 00e4 BB69     		ldr	r3, [r7, #24]
 6437 00e6 1344     		add	r3, r3, r2
 6438 00e8 03F5A063 		add	r3, r3, #1280
 6439 00ec 1B68     		ldr	r3, [r3]
 6440 00ee 7A69     		ldr	r2, [r7, #20]
 6441 00f0 5101     		lsls	r1, r2, #5
 6442 00f2 BA69     		ldr	r2, [r7, #24]
 6443 00f4 0A44     		add	r2, r2, r1
 6444 00f6 02F5A062 		add	r2, r2, #1280
 6445 00fa 23F40043 		bic	r3, r3, #32768
 6446 00fe 1360     		str	r3, [r2]
 6447              	.L282:
1893:Drivers/STM32F4xx_HAL_Driver/Src/stm32f4xx_ll_usb.c ****         do
1894:Drivers/STM32F4xx_HAL_Driver/Src/stm32f4xx_ll_usb.c ****         {
1895:Drivers/STM32F4xx_HAL_Driver/Src/stm32f4xx_ll_usb.c ****           if (++count > 1000U)
 6448              		.loc 1 1895 14
 6449 0100 FB69     		ldr	r3, [r7, #28]
 6450 0102 0133     		adds	r3, r3, #1
 6451 0104 FB61     		str	r3, [r7, #28]
 6452 0106 FB69     		ldr	r3, [r7, #28]
 6453 0108 B3F57A7F 		cmp	r3, #1000
 6454 010c 1DD8     		bhi	.L289
1896:Drivers/STM32F4xx_HAL_Driver/Src/stm32f4xx_ll_usb.c ****           {
1897:Drivers/STM32F4xx_HAL_Driver/Src/stm32f4xx_ll_usb.c ****             break;
1898:Drivers/STM32F4xx_HAL_Driver/Src/stm32f4xx_ll_usb.c ****           }
1899:Drivers/STM32F4xx_HAL_Driver/Src/stm32f4xx_ll_usb.c ****         } while ((USBx_HC(hcnum)->HCCHAR & USB_OTG_HCCHAR_CHENA) == USB_OTG_HCCHAR_CHENA);
 6455              		.loc 1 1899 19
 6456 010e 7B69     		ldr	r3, [r7, #20]
 6457 0110 5A01     		lsls	r2, r3, #5
 6458 0112 BB69     		ldr	r3, [r7, #24]
 6459 0114 1344     		add	r3, r3, r2
 6460 0116 03F5A063 		add	r3, r3, #1280
 6461              		.loc 1 1899 33
 6462 011a 1B68     		ldr	r3, [r3]
 6463              		.loc 1 1899 42
 6464 011c 03F00043 		and	r3, r3, #-2147483648
 6465              		.loc 1 1899 9
 6466 0120 B3F1004F 		cmp	r3, #-2147483648
 6467 0124 ECD0     		beq	.L282
ARM GAS  /var/folders/vq/qt4vp3kd5rxf7v2b6_fdtdt80000gn/T//ccjOke0W.s 			page 147


1886:Drivers/STM32F4xx_HAL_Driver/Src/stm32f4xx_ll_usb.c ****     {
 6468              		.loc 1 1886 8
 6469 0126 80E0     		b	.L283
 6470              	.L279:
1900:Drivers/STM32F4xx_HAL_Driver/Src/stm32f4xx_ll_usb.c ****       }
1901:Drivers/STM32F4xx_HAL_Driver/Src/stm32f4xx_ll_usb.c ****       else
1902:Drivers/STM32F4xx_HAL_Driver/Src/stm32f4xx_ll_usb.c ****       {
1903:Drivers/STM32F4xx_HAL_Driver/Src/stm32f4xx_ll_usb.c ****         USBx_HC(hcnum)->HCCHAR |= USB_OTG_HCCHAR_CHENA;
 6471              		.loc 1 1903 32
 6472 0128 7B69     		ldr	r3, [r7, #20]
 6473 012a 5A01     		lsls	r2, r3, #5
 6474 012c BB69     		ldr	r3, [r7, #24]
 6475 012e 1344     		add	r3, r3, r2
 6476 0130 03F5A063 		add	r3, r3, #1280
 6477 0134 1B68     		ldr	r3, [r3]
 6478 0136 7A69     		ldr	r2, [r7, #20]
 6479 0138 5101     		lsls	r1, r2, #5
 6480 013a BA69     		ldr	r2, [r7, #24]
 6481 013c 0A44     		add	r2, r2, r1
 6482 013e 02F5A062 		add	r2, r2, #1280
 6483 0142 43F00043 		orr	r3, r3, #-2147483648
 6484 0146 1360     		str	r3, [r2]
1886:Drivers/STM32F4xx_HAL_Driver/Src/stm32f4xx_ll_usb.c ****     {
 6485              		.loc 1 1886 8
 6486 0148 6FE0     		b	.L283
 6487              	.L289:
1897:Drivers/STM32F4xx_HAL_Driver/Src/stm32f4xx_ll_usb.c ****           }
 6488              		.loc 1 1897 13
 6489 014a 00BF     		nop
1886:Drivers/STM32F4xx_HAL_Driver/Src/stm32f4xx_ll_usb.c ****     {
 6490              		.loc 1 1886 8
 6491 014c 6DE0     		b	.L283
 6492              	.L277:
1904:Drivers/STM32F4xx_HAL_Driver/Src/stm32f4xx_ll_usb.c ****       }
1905:Drivers/STM32F4xx_HAL_Driver/Src/stm32f4xx_ll_usb.c ****     }
1906:Drivers/STM32F4xx_HAL_Driver/Src/stm32f4xx_ll_usb.c ****   }
1907:Drivers/STM32F4xx_HAL_Driver/Src/stm32f4xx_ll_usb.c ****   else
1908:Drivers/STM32F4xx_HAL_Driver/Src/stm32f4xx_ll_usb.c ****   {
1909:Drivers/STM32F4xx_HAL_Driver/Src/stm32f4xx_ll_usb.c ****     USBx_HC(hcnum)->HCCHAR |= USB_OTG_HCCHAR_CHDIS;
 6493              		.loc 1 1909 28
 6494 014e 7B69     		ldr	r3, [r7, #20]
 6495 0150 5A01     		lsls	r2, r3, #5
 6496 0152 BB69     		ldr	r3, [r7, #24]
 6497 0154 1344     		add	r3, r3, r2
 6498 0156 03F5A063 		add	r3, r3, #1280
 6499 015a 1B68     		ldr	r3, [r3]
 6500 015c 7A69     		ldr	r2, [r7, #20]
 6501 015e 5101     		lsls	r1, r2, #5
 6502 0160 BA69     		ldr	r2, [r7, #24]
 6503 0162 0A44     		add	r2, r2, r1
 6504 0164 02F5A062 		add	r2, r2, #1280
 6505 0168 43F08043 		orr	r3, r3, #1073741824
 6506 016c 1360     		str	r3, [r2]
1910:Drivers/STM32F4xx_HAL_Driver/Src/stm32f4xx_ll_usb.c **** 
1911:Drivers/STM32F4xx_HAL_Driver/Src/stm32f4xx_ll_usb.c ****     if ((USBx_HOST->HPTXSTS & (0xFFU << 16)) == 0U)
 6507              		.loc 1 1911 10
 6508 016e BB69     		ldr	r3, [r7, #24]
ARM GAS  /var/folders/vq/qt4vp3kd5rxf7v2b6_fdtdt80000gn/T//ccjOke0W.s 			page 148


 6509 0170 03F58063 		add	r3, r3, #1024
 6510              		.loc 1 1911 19
 6511 0174 1B69     		ldr	r3, [r3, #16]
 6512              		.loc 1 1911 29
 6513 0176 03F47F03 		and	r3, r3, #16711680
 6514              		.loc 1 1911 8
 6515 017a 002B     		cmp	r3, #0
 6516 017c 43D1     		bne	.L284
1912:Drivers/STM32F4xx_HAL_Driver/Src/stm32f4xx_ll_usb.c ****     {
1913:Drivers/STM32F4xx_HAL_Driver/Src/stm32f4xx_ll_usb.c ****       USBx_HC(hcnum)->HCCHAR &= ~USB_OTG_HCCHAR_CHENA;
 6517              		.loc 1 1913 30
 6518 017e 7B69     		ldr	r3, [r7, #20]
 6519 0180 5A01     		lsls	r2, r3, #5
 6520 0182 BB69     		ldr	r3, [r7, #24]
 6521 0184 1344     		add	r3, r3, r2
 6522 0186 03F5A063 		add	r3, r3, #1280
 6523 018a 1B68     		ldr	r3, [r3]
 6524 018c 7A69     		ldr	r2, [r7, #20]
 6525 018e 5101     		lsls	r1, r2, #5
 6526 0190 BA69     		ldr	r2, [r7, #24]
 6527 0192 0A44     		add	r2, r2, r1
 6528 0194 02F5A062 		add	r2, r2, #1280
 6529 0198 23F00043 		bic	r3, r3, #-2147483648
 6530 019c 1360     		str	r3, [r2]
1914:Drivers/STM32F4xx_HAL_Driver/Src/stm32f4xx_ll_usb.c ****       USBx_HC(hcnum)->HCCHAR |= USB_OTG_HCCHAR_CHENA;
 6531              		.loc 1 1914 30
 6532 019e 7B69     		ldr	r3, [r7, #20]
 6533 01a0 5A01     		lsls	r2, r3, #5
 6534 01a2 BB69     		ldr	r3, [r7, #24]
 6535 01a4 1344     		add	r3, r3, r2
 6536 01a6 03F5A063 		add	r3, r3, #1280
 6537 01aa 1B68     		ldr	r3, [r3]
 6538 01ac 7A69     		ldr	r2, [r7, #20]
 6539 01ae 5101     		lsls	r1, r2, #5
 6540 01b0 BA69     		ldr	r2, [r7, #24]
 6541 01b2 0A44     		add	r2, r2, r1
 6542 01b4 02F5A062 		add	r2, r2, #1280
 6543 01b8 43F00043 		orr	r3, r3, #-2147483648
 6544 01bc 1360     		str	r3, [r2]
1915:Drivers/STM32F4xx_HAL_Driver/Src/stm32f4xx_ll_usb.c ****       USBx_HC(hcnum)->HCCHAR &= ~USB_OTG_HCCHAR_EPDIR;
 6545              		.loc 1 1915 30
 6546 01be 7B69     		ldr	r3, [r7, #20]
 6547 01c0 5A01     		lsls	r2, r3, #5
 6548 01c2 BB69     		ldr	r3, [r7, #24]
 6549 01c4 1344     		add	r3, r3, r2
 6550 01c6 03F5A063 		add	r3, r3, #1280
 6551 01ca 1B68     		ldr	r3, [r3]
 6552 01cc 7A69     		ldr	r2, [r7, #20]
 6553 01ce 5101     		lsls	r1, r2, #5
 6554 01d0 BA69     		ldr	r2, [r7, #24]
 6555 01d2 0A44     		add	r2, r2, r1
 6556 01d4 02F5A062 		add	r2, r2, #1280
 6557 01d8 23F40043 		bic	r3, r3, #32768
 6558 01dc 1360     		str	r3, [r2]
 6559              	.L287:
1916:Drivers/STM32F4xx_HAL_Driver/Src/stm32f4xx_ll_usb.c ****       do
1917:Drivers/STM32F4xx_HAL_Driver/Src/stm32f4xx_ll_usb.c ****       {
ARM GAS  /var/folders/vq/qt4vp3kd5rxf7v2b6_fdtdt80000gn/T//ccjOke0W.s 			page 149


1918:Drivers/STM32F4xx_HAL_Driver/Src/stm32f4xx_ll_usb.c ****         if (++count > 1000U)
 6560              		.loc 1 1918 12
 6561 01de FB69     		ldr	r3, [r7, #28]
 6562 01e0 0133     		adds	r3, r3, #1
 6563 01e2 FB61     		str	r3, [r7, #28]
 6564 01e4 FB69     		ldr	r3, [r7, #28]
 6565 01e6 B3F57A7F 		cmp	r3, #1000
 6566 01ea 1DD8     		bhi	.L290
1919:Drivers/STM32F4xx_HAL_Driver/Src/stm32f4xx_ll_usb.c ****         {
1920:Drivers/STM32F4xx_HAL_Driver/Src/stm32f4xx_ll_usb.c ****           break;
1921:Drivers/STM32F4xx_HAL_Driver/Src/stm32f4xx_ll_usb.c ****         }
1922:Drivers/STM32F4xx_HAL_Driver/Src/stm32f4xx_ll_usb.c ****       } while ((USBx_HC(hcnum)->HCCHAR & USB_OTG_HCCHAR_CHENA) == USB_OTG_HCCHAR_CHENA);
 6567              		.loc 1 1922 17
 6568 01ec 7B69     		ldr	r3, [r7, #20]
 6569 01ee 5A01     		lsls	r2, r3, #5
 6570 01f0 BB69     		ldr	r3, [r7, #24]
 6571 01f2 1344     		add	r3, r3, r2
 6572 01f4 03F5A063 		add	r3, r3, #1280
 6573              		.loc 1 1922 31
 6574 01f8 1B68     		ldr	r3, [r3]
 6575              		.loc 1 1922 40
 6576 01fa 03F00043 		and	r3, r3, #-2147483648
 6577              		.loc 1 1922 7
 6578 01fe B3F1004F 		cmp	r3, #-2147483648
 6579 0202 ECD0     		beq	.L287
 6580 0204 11E0     		b	.L283
 6581              	.L284:
1923:Drivers/STM32F4xx_HAL_Driver/Src/stm32f4xx_ll_usb.c ****     }
1924:Drivers/STM32F4xx_HAL_Driver/Src/stm32f4xx_ll_usb.c ****     else
1925:Drivers/STM32F4xx_HAL_Driver/Src/stm32f4xx_ll_usb.c ****     {
1926:Drivers/STM32F4xx_HAL_Driver/Src/stm32f4xx_ll_usb.c ****       USBx_HC(hcnum)->HCCHAR |= USB_OTG_HCCHAR_CHENA;
 6582              		.loc 1 1926 30
 6583 0206 7B69     		ldr	r3, [r7, #20]
 6584 0208 5A01     		lsls	r2, r3, #5
 6585 020a BB69     		ldr	r3, [r7, #24]
 6586 020c 1344     		add	r3, r3, r2
 6587 020e 03F5A063 		add	r3, r3, #1280
 6588 0212 1B68     		ldr	r3, [r3]
 6589 0214 7A69     		ldr	r2, [r7, #20]
 6590 0216 5101     		lsls	r1, r2, #5
 6591 0218 BA69     		ldr	r2, [r7, #24]
 6592 021a 0A44     		add	r2, r2, r1
 6593 021c 02F5A062 		add	r2, r2, #1280
 6594 0220 43F00043 		orr	r3, r3, #-2147483648
 6595 0224 1360     		str	r3, [r2]
 6596 0226 00E0     		b	.L283
 6597              	.L290:
1920:Drivers/STM32F4xx_HAL_Driver/Src/stm32f4xx_ll_usb.c ****         }
 6598              		.loc 1 1920 11
 6599 0228 00BF     		nop
 6600              	.L283:
1927:Drivers/STM32F4xx_HAL_Driver/Src/stm32f4xx_ll_usb.c ****     }
1928:Drivers/STM32F4xx_HAL_Driver/Src/stm32f4xx_ll_usb.c ****   }
1929:Drivers/STM32F4xx_HAL_Driver/Src/stm32f4xx_ll_usb.c **** 
1930:Drivers/STM32F4xx_HAL_Driver/Src/stm32f4xx_ll_usb.c ****   return HAL_OK;
 6601              		.loc 1 1930 10
 6602 022a 0023     		movs	r3, #0
ARM GAS  /var/folders/vq/qt4vp3kd5rxf7v2b6_fdtdt80000gn/T//ccjOke0W.s 			page 150


 6603              	.L275:
1931:Drivers/STM32F4xx_HAL_Driver/Src/stm32f4xx_ll_usb.c **** }
 6604              		.loc 1 1931 1
 6605 022c 1846     		mov	r0, r3
 6606 022e 2437     		adds	r7, r7, #36
 6607              	.LCFI261:
 6608              		.cfi_def_cfa_offset 4
 6609 0230 BD46     		mov	sp, r7
 6610              	.LCFI262:
 6611              		.cfi_def_cfa_register 13
 6612              		@ sp needed
 6613 0232 5DF8047B 		ldr	r7, [sp], #4
 6614              	.LCFI263:
 6615              		.cfi_restore 7
 6616              		.cfi_def_cfa_offset 0
 6617 0236 7047     		bx	lr
 6618              		.cfi_endproc
 6619              	.LFE173:
 6621              		.section	.text.USB_DoPing,"ax",%progbits
 6622              		.align	1
 6623              		.global	USB_DoPing
 6624              		.syntax unified
 6625              		.thumb
 6626              		.thumb_func
 6627              		.fpu fpv4-sp-d16
 6629              	USB_DoPing:
 6630              	.LFB174:
1932:Drivers/STM32F4xx_HAL_Driver/Src/stm32f4xx_ll_usb.c **** 
1933:Drivers/STM32F4xx_HAL_Driver/Src/stm32f4xx_ll_usb.c **** /**
1934:Drivers/STM32F4xx_HAL_Driver/Src/stm32f4xx_ll_usb.c ****   * @brief  Initiate Do Ping protocol
1935:Drivers/STM32F4xx_HAL_Driver/Src/stm32f4xx_ll_usb.c ****   * @param  USBx  Selected device
1936:Drivers/STM32F4xx_HAL_Driver/Src/stm32f4xx_ll_usb.c ****   * @param  hc_num  Host Channel number
1937:Drivers/STM32F4xx_HAL_Driver/Src/stm32f4xx_ll_usb.c ****   *         This parameter can be a value from 1 to 15
1938:Drivers/STM32F4xx_HAL_Driver/Src/stm32f4xx_ll_usb.c ****   * @retval HAL state
1939:Drivers/STM32F4xx_HAL_Driver/Src/stm32f4xx_ll_usb.c ****   */
1940:Drivers/STM32F4xx_HAL_Driver/Src/stm32f4xx_ll_usb.c **** HAL_StatusTypeDef USB_DoPing(USB_OTG_GlobalTypeDef *USBx, uint8_t ch_num)
1941:Drivers/STM32F4xx_HAL_Driver/Src/stm32f4xx_ll_usb.c **** {
 6631              		.loc 1 1941 1
 6632              		.cfi_startproc
 6633              		@ args = 0, pretend = 0, frame = 24
 6634              		@ frame_needed = 1, uses_anonymous_args = 0
 6635              		@ link register save eliminated.
 6636 0000 80B4     		push	{r7}
 6637              	.LCFI264:
 6638              		.cfi_def_cfa_offset 4
 6639              		.cfi_offset 7, -4
 6640 0002 87B0     		sub	sp, sp, #28
 6641              	.LCFI265:
 6642              		.cfi_def_cfa_offset 32
 6643 0004 00AF     		add	r7, sp, #0
 6644              	.LCFI266:
 6645              		.cfi_def_cfa_register 7
 6646 0006 7860     		str	r0, [r7, #4]
 6647 0008 0B46     		mov	r3, r1
 6648 000a FB70     		strb	r3, [r7, #3]
1942:Drivers/STM32F4xx_HAL_Driver/Src/stm32f4xx_ll_usb.c ****   uint32_t USBx_BASE = (uint32_t)USBx;
 6649              		.loc 1 1942 12
ARM GAS  /var/folders/vq/qt4vp3kd5rxf7v2b6_fdtdt80000gn/T//ccjOke0W.s 			page 151


 6650 000c 7B68     		ldr	r3, [r7, #4]
 6651 000e 7B61     		str	r3, [r7, #20]
1943:Drivers/STM32F4xx_HAL_Driver/Src/stm32f4xx_ll_usb.c ****   uint32_t chnum = (uint32_t)ch_num;
 6652              		.loc 1 1943 12
 6653 0010 FB78     		ldrb	r3, [r7, #3]	@ zero_extendqisi2
 6654 0012 3B61     		str	r3, [r7, #16]
1944:Drivers/STM32F4xx_HAL_Driver/Src/stm32f4xx_ll_usb.c ****   uint32_t num_packets = 1U;
 6655              		.loc 1 1944 12
 6656 0014 0123     		movs	r3, #1
 6657 0016 FB60     		str	r3, [r7, #12]
1945:Drivers/STM32F4xx_HAL_Driver/Src/stm32f4xx_ll_usb.c ****   uint32_t tmpreg;
1946:Drivers/STM32F4xx_HAL_Driver/Src/stm32f4xx_ll_usb.c **** 
1947:Drivers/STM32F4xx_HAL_Driver/Src/stm32f4xx_ll_usb.c ****   USBx_HC(chnum)->HCTSIZ = ((num_packets << 19) & USB_OTG_HCTSIZ_PKTCNT) |
 6658              		.loc 1 1947 42
 6659 0018 FB68     		ldr	r3, [r7, #12]
 6660 001a DA04     		lsls	r2, r3, #19
 6661              		.loc 1 1947 49
 6662 001c 154B     		ldr	r3, .L293
 6663 001e 1340     		ands	r3, r3, r2
 6664              		.loc 1 1947 3
 6665 0020 3A69     		ldr	r2, [r7, #16]
 6666 0022 5101     		lsls	r1, r2, #5
 6667 0024 7A69     		ldr	r2, [r7, #20]
 6668 0026 0A44     		add	r2, r2, r1
 6669 0028 02F5A062 		add	r2, r2, #1280
 6670              		.loc 1 1947 74
 6671 002c 43F00043 		orr	r3, r3, #-2147483648
 6672              		.loc 1 1947 26
 6673 0030 1361     		str	r3, [r2, #16]
1948:Drivers/STM32F4xx_HAL_Driver/Src/stm32f4xx_ll_usb.c ****                            USB_OTG_HCTSIZ_DOPING;
1949:Drivers/STM32F4xx_HAL_Driver/Src/stm32f4xx_ll_usb.c **** 
1950:Drivers/STM32F4xx_HAL_Driver/Src/stm32f4xx_ll_usb.c ****   /* Set host channel enable */
1951:Drivers/STM32F4xx_HAL_Driver/Src/stm32f4xx_ll_usb.c ****   tmpreg = USBx_HC(chnum)->HCCHAR;
 6674              		.loc 1 1951 12
 6675 0032 3B69     		ldr	r3, [r7, #16]
 6676 0034 5A01     		lsls	r2, r3, #5
 6677 0036 7B69     		ldr	r3, [r7, #20]
 6678 0038 1344     		add	r3, r3, r2
 6679 003a 03F5A063 		add	r3, r3, #1280
 6680              		.loc 1 1951 10
 6681 003e 1B68     		ldr	r3, [r3]
 6682 0040 BB60     		str	r3, [r7, #8]
1952:Drivers/STM32F4xx_HAL_Driver/Src/stm32f4xx_ll_usb.c ****   tmpreg &= ~USB_OTG_HCCHAR_CHDIS;
 6683              		.loc 1 1952 10
 6684 0042 BB68     		ldr	r3, [r7, #8]
 6685 0044 23F08043 		bic	r3, r3, #1073741824
 6686 0048 BB60     		str	r3, [r7, #8]
1953:Drivers/STM32F4xx_HAL_Driver/Src/stm32f4xx_ll_usb.c ****   tmpreg |= USB_OTG_HCCHAR_CHENA;
 6687              		.loc 1 1953 10
 6688 004a BB68     		ldr	r3, [r7, #8]
 6689 004c 43F00043 		orr	r3, r3, #-2147483648
 6690 0050 BB60     		str	r3, [r7, #8]
1954:Drivers/STM32F4xx_HAL_Driver/Src/stm32f4xx_ll_usb.c ****   USBx_HC(chnum)->HCCHAR = tmpreg;
 6691              		.loc 1 1954 3
 6692 0052 3B69     		ldr	r3, [r7, #16]
 6693 0054 5A01     		lsls	r2, r3, #5
 6694 0056 7B69     		ldr	r3, [r7, #20]
ARM GAS  /var/folders/vq/qt4vp3kd5rxf7v2b6_fdtdt80000gn/T//ccjOke0W.s 			page 152


 6695 0058 1344     		add	r3, r3, r2
 6696 005a 03F5A063 		add	r3, r3, #1280
 6697 005e 1A46     		mov	r2, r3
 6698              		.loc 1 1954 26
 6699 0060 BB68     		ldr	r3, [r7, #8]
 6700 0062 1360     		str	r3, [r2]
1955:Drivers/STM32F4xx_HAL_Driver/Src/stm32f4xx_ll_usb.c **** 
1956:Drivers/STM32F4xx_HAL_Driver/Src/stm32f4xx_ll_usb.c ****   return HAL_OK;
 6701              		.loc 1 1956 10
 6702 0064 0023     		movs	r3, #0
1957:Drivers/STM32F4xx_HAL_Driver/Src/stm32f4xx_ll_usb.c **** }
 6703              		.loc 1 1957 1
 6704 0066 1846     		mov	r0, r3
 6705 0068 1C37     		adds	r7, r7, #28
 6706              	.LCFI267:
 6707              		.cfi_def_cfa_offset 4
 6708 006a BD46     		mov	sp, r7
 6709              	.LCFI268:
 6710              		.cfi_def_cfa_register 13
 6711              		@ sp needed
 6712 006c 5DF8047B 		ldr	r7, [sp], #4
 6713              	.LCFI269:
 6714              		.cfi_restore 7
 6715              		.cfi_def_cfa_offset 0
 6716 0070 7047     		bx	lr
 6717              	.L294:
 6718 0072 00BF     		.align	2
 6719              	.L293:
 6720 0074 0000F81F 		.word	536346624
 6721              		.cfi_endproc
 6722              	.LFE174:
 6724              		.section	.text.USB_StopHost,"ax",%progbits
 6725              		.align	1
 6726              		.global	USB_StopHost
 6727              		.syntax unified
 6728              		.thumb
 6729              		.thumb_func
 6730              		.fpu fpv4-sp-d16
 6732              	USB_StopHost:
 6733              	.LFB175:
1958:Drivers/STM32F4xx_HAL_Driver/Src/stm32f4xx_ll_usb.c **** 
1959:Drivers/STM32F4xx_HAL_Driver/Src/stm32f4xx_ll_usb.c **** /**
1960:Drivers/STM32F4xx_HAL_Driver/Src/stm32f4xx_ll_usb.c ****   * @brief  Stop Host Core
1961:Drivers/STM32F4xx_HAL_Driver/Src/stm32f4xx_ll_usb.c ****   * @param  USBx  Selected device
1962:Drivers/STM32F4xx_HAL_Driver/Src/stm32f4xx_ll_usb.c ****   * @retval HAL state
1963:Drivers/STM32F4xx_HAL_Driver/Src/stm32f4xx_ll_usb.c ****   */
1964:Drivers/STM32F4xx_HAL_Driver/Src/stm32f4xx_ll_usb.c **** HAL_StatusTypeDef USB_StopHost(USB_OTG_GlobalTypeDef *USBx)
1965:Drivers/STM32F4xx_HAL_Driver/Src/stm32f4xx_ll_usb.c **** {
 6734              		.loc 1 1965 1
 6735              		.cfi_startproc
 6736              		@ args = 0, pretend = 0, frame = 24
 6737              		@ frame_needed = 1, uses_anonymous_args = 0
 6738 0000 80B5     		push	{r7, lr}
 6739              	.LCFI270:
 6740              		.cfi_def_cfa_offset 8
 6741              		.cfi_offset 7, -8
 6742              		.cfi_offset 14, -4
ARM GAS  /var/folders/vq/qt4vp3kd5rxf7v2b6_fdtdt80000gn/T//ccjOke0W.s 			page 153


 6743 0002 86B0     		sub	sp, sp, #24
 6744              	.LCFI271:
 6745              		.cfi_def_cfa_offset 32
 6746 0004 00AF     		add	r7, sp, #0
 6747              	.LCFI272:
 6748              		.cfi_def_cfa_register 7
 6749 0006 7860     		str	r0, [r7, #4]
1966:Drivers/STM32F4xx_HAL_Driver/Src/stm32f4xx_ll_usb.c ****   uint32_t USBx_BASE = (uint32_t)USBx;
 6750              		.loc 1 1966 12
 6751 0008 7B68     		ldr	r3, [r7, #4]
 6752 000a FB60     		str	r3, [r7, #12]
1967:Drivers/STM32F4xx_HAL_Driver/Src/stm32f4xx_ll_usb.c ****   uint32_t count = 0U;
 6753              		.loc 1 1967 12
 6754 000c 0023     		movs	r3, #0
 6755 000e 7B61     		str	r3, [r7, #20]
1968:Drivers/STM32F4xx_HAL_Driver/Src/stm32f4xx_ll_usb.c ****   uint32_t value;
1969:Drivers/STM32F4xx_HAL_Driver/Src/stm32f4xx_ll_usb.c ****   uint32_t i;
1970:Drivers/STM32F4xx_HAL_Driver/Src/stm32f4xx_ll_usb.c **** 
1971:Drivers/STM32F4xx_HAL_Driver/Src/stm32f4xx_ll_usb.c ****   (void)USB_DisableGlobalInt(USBx);
 6756              		.loc 1 1971 9
 6757 0010 7868     		ldr	r0, [r7, #4]
 6758 0012 FFF7FEFF 		bl	USB_DisableGlobalInt
1972:Drivers/STM32F4xx_HAL_Driver/Src/stm32f4xx_ll_usb.c **** 
1973:Drivers/STM32F4xx_HAL_Driver/Src/stm32f4xx_ll_usb.c ****   /* Flush FIFO */
1974:Drivers/STM32F4xx_HAL_Driver/Src/stm32f4xx_ll_usb.c ****   (void)USB_FlushTxFifo(USBx, 0x10U);
 6759              		.loc 1 1974 9
 6760 0016 1021     		movs	r1, #16
 6761 0018 7868     		ldr	r0, [r7, #4]
 6762 001a FFF7FEFF 		bl	USB_FlushTxFifo
1975:Drivers/STM32F4xx_HAL_Driver/Src/stm32f4xx_ll_usb.c ****   (void)USB_FlushRxFifo(USBx);
 6763              		.loc 1 1975 9
 6764 001e 7868     		ldr	r0, [r7, #4]
 6765 0020 FFF7FEFF 		bl	USB_FlushRxFifo
1976:Drivers/STM32F4xx_HAL_Driver/Src/stm32f4xx_ll_usb.c **** 
1977:Drivers/STM32F4xx_HAL_Driver/Src/stm32f4xx_ll_usb.c ****   /* Flush out any leftover queued requests. */
1978:Drivers/STM32F4xx_HAL_Driver/Src/stm32f4xx_ll_usb.c ****   for (i = 0U; i <= 15U; i++)
 6766              		.loc 1 1978 10
 6767 0024 0023     		movs	r3, #0
 6768 0026 3B61     		str	r3, [r7, #16]
 6769              		.loc 1 1978 3
 6770 0028 1FE0     		b	.L296
 6771              	.L297:
1979:Drivers/STM32F4xx_HAL_Driver/Src/stm32f4xx_ll_usb.c ****   {
1980:Drivers/STM32F4xx_HAL_Driver/Src/stm32f4xx_ll_usb.c ****     value = USBx_HC(i)->HCCHAR;
 6772              		.loc 1 1980 13 discriminator 3
 6773 002a 3B69     		ldr	r3, [r7, #16]
 6774 002c 5A01     		lsls	r2, r3, #5
 6775 002e FB68     		ldr	r3, [r7, #12]
 6776 0030 1344     		add	r3, r3, r2
 6777 0032 03F5A063 		add	r3, r3, #1280
 6778              		.loc 1 1980 11 discriminator 3
 6779 0036 1B68     		ldr	r3, [r3]
 6780 0038 BB60     		str	r3, [r7, #8]
1981:Drivers/STM32F4xx_HAL_Driver/Src/stm32f4xx_ll_usb.c ****     value |=  USB_OTG_HCCHAR_CHDIS;
 6781              		.loc 1 1981 11 discriminator 3
 6782 003a BB68     		ldr	r3, [r7, #8]
 6783 003c 43F08043 		orr	r3, r3, #1073741824
ARM GAS  /var/folders/vq/qt4vp3kd5rxf7v2b6_fdtdt80000gn/T//ccjOke0W.s 			page 154


 6784 0040 BB60     		str	r3, [r7, #8]
1982:Drivers/STM32F4xx_HAL_Driver/Src/stm32f4xx_ll_usb.c ****     value &= ~USB_OTG_HCCHAR_CHENA;
 6785              		.loc 1 1982 11 discriminator 3
 6786 0042 BB68     		ldr	r3, [r7, #8]
 6787 0044 23F00043 		bic	r3, r3, #-2147483648
 6788 0048 BB60     		str	r3, [r7, #8]
1983:Drivers/STM32F4xx_HAL_Driver/Src/stm32f4xx_ll_usb.c ****     value &= ~USB_OTG_HCCHAR_EPDIR;
 6789              		.loc 1 1983 11 discriminator 3
 6790 004a BB68     		ldr	r3, [r7, #8]
 6791 004c 23F40043 		bic	r3, r3, #32768
 6792 0050 BB60     		str	r3, [r7, #8]
1984:Drivers/STM32F4xx_HAL_Driver/Src/stm32f4xx_ll_usb.c ****     USBx_HC(i)->HCCHAR = value;
 6793              		.loc 1 1984 5 discriminator 3
 6794 0052 3B69     		ldr	r3, [r7, #16]
 6795 0054 5A01     		lsls	r2, r3, #5
 6796 0056 FB68     		ldr	r3, [r7, #12]
 6797 0058 1344     		add	r3, r3, r2
 6798 005a 03F5A063 		add	r3, r3, #1280
 6799 005e 1A46     		mov	r2, r3
 6800              		.loc 1 1984 24 discriminator 3
 6801 0060 BB68     		ldr	r3, [r7, #8]
 6802 0062 1360     		str	r3, [r2]
1978:Drivers/STM32F4xx_HAL_Driver/Src/stm32f4xx_ll_usb.c ****   {
 6803              		.loc 1 1978 27 discriminator 3
 6804 0064 3B69     		ldr	r3, [r7, #16]
 6805 0066 0133     		adds	r3, r3, #1
 6806 0068 3B61     		str	r3, [r7, #16]
 6807              	.L296:
1978:Drivers/STM32F4xx_HAL_Driver/Src/stm32f4xx_ll_usb.c ****   {
 6808              		.loc 1 1978 3 discriminator 1
 6809 006a 3B69     		ldr	r3, [r7, #16]
 6810 006c 0F2B     		cmp	r3, #15
 6811 006e DCD9     		bls	.L297
1985:Drivers/STM32F4xx_HAL_Driver/Src/stm32f4xx_ll_usb.c ****   }
1986:Drivers/STM32F4xx_HAL_Driver/Src/stm32f4xx_ll_usb.c **** 
1987:Drivers/STM32F4xx_HAL_Driver/Src/stm32f4xx_ll_usb.c ****   /* Halt all channels to put them into a known state. */
1988:Drivers/STM32F4xx_HAL_Driver/Src/stm32f4xx_ll_usb.c ****   for (i = 0U; i <= 15U; i++)
 6812              		.loc 1 1988 10
 6813 0070 0023     		movs	r3, #0
 6814 0072 3B61     		str	r3, [r7, #16]
 6815              		.loc 1 1988 3
 6816 0074 34E0     		b	.L298
 6817              	.L302:
1989:Drivers/STM32F4xx_HAL_Driver/Src/stm32f4xx_ll_usb.c ****   {
1990:Drivers/STM32F4xx_HAL_Driver/Src/stm32f4xx_ll_usb.c ****     value = USBx_HC(i)->HCCHAR;
 6818              		.loc 1 1990 13
 6819 0076 3B69     		ldr	r3, [r7, #16]
 6820 0078 5A01     		lsls	r2, r3, #5
 6821 007a FB68     		ldr	r3, [r7, #12]
 6822 007c 1344     		add	r3, r3, r2
 6823 007e 03F5A063 		add	r3, r3, #1280
 6824              		.loc 1 1990 11
 6825 0082 1B68     		ldr	r3, [r3]
 6826 0084 BB60     		str	r3, [r7, #8]
1991:Drivers/STM32F4xx_HAL_Driver/Src/stm32f4xx_ll_usb.c ****     value |= USB_OTG_HCCHAR_CHDIS;
 6827              		.loc 1 1991 11
 6828 0086 BB68     		ldr	r3, [r7, #8]
ARM GAS  /var/folders/vq/qt4vp3kd5rxf7v2b6_fdtdt80000gn/T//ccjOke0W.s 			page 155


 6829 0088 43F08043 		orr	r3, r3, #1073741824
 6830 008c BB60     		str	r3, [r7, #8]
1992:Drivers/STM32F4xx_HAL_Driver/Src/stm32f4xx_ll_usb.c ****     value |= USB_OTG_HCCHAR_CHENA;
 6831              		.loc 1 1992 11
 6832 008e BB68     		ldr	r3, [r7, #8]
 6833 0090 43F00043 		orr	r3, r3, #-2147483648
 6834 0094 BB60     		str	r3, [r7, #8]
1993:Drivers/STM32F4xx_HAL_Driver/Src/stm32f4xx_ll_usb.c ****     value &= ~USB_OTG_HCCHAR_EPDIR;
 6835              		.loc 1 1993 11
 6836 0096 BB68     		ldr	r3, [r7, #8]
 6837 0098 23F40043 		bic	r3, r3, #32768
 6838 009c BB60     		str	r3, [r7, #8]
1994:Drivers/STM32F4xx_HAL_Driver/Src/stm32f4xx_ll_usb.c ****     USBx_HC(i)->HCCHAR = value;
 6839              		.loc 1 1994 5
 6840 009e 3B69     		ldr	r3, [r7, #16]
 6841 00a0 5A01     		lsls	r2, r3, #5
 6842 00a2 FB68     		ldr	r3, [r7, #12]
 6843 00a4 1344     		add	r3, r3, r2
 6844 00a6 03F5A063 		add	r3, r3, #1280
 6845 00aa 1A46     		mov	r2, r3
 6846              		.loc 1 1994 24
 6847 00ac BB68     		ldr	r3, [r7, #8]
 6848 00ae 1360     		str	r3, [r2]
 6849              	.L301:
1995:Drivers/STM32F4xx_HAL_Driver/Src/stm32f4xx_ll_usb.c **** 
1996:Drivers/STM32F4xx_HAL_Driver/Src/stm32f4xx_ll_usb.c ****     do
1997:Drivers/STM32F4xx_HAL_Driver/Src/stm32f4xx_ll_usb.c ****     {
1998:Drivers/STM32F4xx_HAL_Driver/Src/stm32f4xx_ll_usb.c ****       if (++count > 1000U)
 6850              		.loc 1 1998 10
 6851 00b0 7B69     		ldr	r3, [r7, #20]
 6852 00b2 0133     		adds	r3, r3, #1
 6853 00b4 7B61     		str	r3, [r7, #20]
 6854 00b6 7B69     		ldr	r3, [r7, #20]
 6855 00b8 B3F57A7F 		cmp	r3, #1000
 6856 00bc 0CD8     		bhi	.L304
1999:Drivers/STM32F4xx_HAL_Driver/Src/stm32f4xx_ll_usb.c ****       {
2000:Drivers/STM32F4xx_HAL_Driver/Src/stm32f4xx_ll_usb.c ****         break;
2001:Drivers/STM32F4xx_HAL_Driver/Src/stm32f4xx_ll_usb.c ****       }
2002:Drivers/STM32F4xx_HAL_Driver/Src/stm32f4xx_ll_usb.c ****     } while ((USBx_HC(i)->HCCHAR & USB_OTG_HCCHAR_CHENA) == USB_OTG_HCCHAR_CHENA);
 6857              		.loc 1 2002 15
 6858 00be 3B69     		ldr	r3, [r7, #16]
 6859 00c0 5A01     		lsls	r2, r3, #5
 6860 00c2 FB68     		ldr	r3, [r7, #12]
 6861 00c4 1344     		add	r3, r3, r2
 6862 00c6 03F5A063 		add	r3, r3, #1280
 6863              		.loc 1 2002 25
 6864 00ca 1B68     		ldr	r3, [r3]
 6865              		.loc 1 2002 34
 6866 00cc 03F00043 		and	r3, r3, #-2147483648
 6867              		.loc 1 2002 5
 6868 00d0 B3F1004F 		cmp	r3, #-2147483648
 6869 00d4 ECD0     		beq	.L301
 6870 00d6 00E0     		b	.L300
 6871              	.L304:
2000:Drivers/STM32F4xx_HAL_Driver/Src/stm32f4xx_ll_usb.c ****       }
 6872              		.loc 1 2000 9
 6873 00d8 00BF     		nop
ARM GAS  /var/folders/vq/qt4vp3kd5rxf7v2b6_fdtdt80000gn/T//ccjOke0W.s 			page 156


 6874              	.L300:
1988:Drivers/STM32F4xx_HAL_Driver/Src/stm32f4xx_ll_usb.c ****   {
 6875              		.loc 1 1988 27 discriminator 2
 6876 00da 3B69     		ldr	r3, [r7, #16]
 6877 00dc 0133     		adds	r3, r3, #1
 6878 00de 3B61     		str	r3, [r7, #16]
 6879              	.L298:
1988:Drivers/STM32F4xx_HAL_Driver/Src/stm32f4xx_ll_usb.c ****   {
 6880              		.loc 1 1988 3 discriminator 1
 6881 00e0 3B69     		ldr	r3, [r7, #16]
 6882 00e2 0F2B     		cmp	r3, #15
 6883 00e4 C7D9     		bls	.L302
2003:Drivers/STM32F4xx_HAL_Driver/Src/stm32f4xx_ll_usb.c ****   }
2004:Drivers/STM32F4xx_HAL_Driver/Src/stm32f4xx_ll_usb.c **** 
2005:Drivers/STM32F4xx_HAL_Driver/Src/stm32f4xx_ll_usb.c ****   /* Clear any pending Host interrupts */
2006:Drivers/STM32F4xx_HAL_Driver/Src/stm32f4xx_ll_usb.c ****   USBx_HOST->HAINT = 0xFFFFFFFFU;
 6884              		.loc 1 2006 3
 6885 00e6 FB68     		ldr	r3, [r7, #12]
 6886 00e8 03F58063 		add	r3, r3, #1024
 6887 00ec 1A46     		mov	r2, r3
 6888              		.loc 1 2006 20
 6889 00ee 4FF0FF33 		mov	r3, #-1
 6890 00f2 5361     		str	r3, [r2, #20]
2007:Drivers/STM32F4xx_HAL_Driver/Src/stm32f4xx_ll_usb.c ****   USBx->GINTSTS = 0xFFFFFFFFU;
 6891              		.loc 1 2007 17
 6892 00f4 7B68     		ldr	r3, [r7, #4]
 6893 00f6 4FF0FF32 		mov	r2, #-1
 6894 00fa 5A61     		str	r2, [r3, #20]
2008:Drivers/STM32F4xx_HAL_Driver/Src/stm32f4xx_ll_usb.c **** 
2009:Drivers/STM32F4xx_HAL_Driver/Src/stm32f4xx_ll_usb.c ****   (void)USB_EnableGlobalInt(USBx);
 6895              		.loc 1 2009 9
 6896 00fc 7868     		ldr	r0, [r7, #4]
 6897 00fe FFF7FEFF 		bl	USB_EnableGlobalInt
2010:Drivers/STM32F4xx_HAL_Driver/Src/stm32f4xx_ll_usb.c **** 
2011:Drivers/STM32F4xx_HAL_Driver/Src/stm32f4xx_ll_usb.c ****   return HAL_OK;
 6898              		.loc 1 2011 10
 6899 0102 0023     		movs	r3, #0
2012:Drivers/STM32F4xx_HAL_Driver/Src/stm32f4xx_ll_usb.c **** }
 6900              		.loc 1 2012 1
 6901 0104 1846     		mov	r0, r3
 6902 0106 1837     		adds	r7, r7, #24
 6903              	.LCFI273:
 6904              		.cfi_def_cfa_offset 8
 6905 0108 BD46     		mov	sp, r7
 6906              	.LCFI274:
 6907              		.cfi_def_cfa_register 13
 6908              		@ sp needed
 6909 010a 80BD     		pop	{r7, pc}
 6910              		.cfi_endproc
 6911              	.LFE175:
 6913              		.section	.text.USB_ActivateRemoteWakeup,"ax",%progbits
 6914              		.align	1
 6915              		.global	USB_ActivateRemoteWakeup
 6916              		.syntax unified
 6917              		.thumb
 6918              		.thumb_func
 6919              		.fpu fpv4-sp-d16
ARM GAS  /var/folders/vq/qt4vp3kd5rxf7v2b6_fdtdt80000gn/T//ccjOke0W.s 			page 157


 6921              	USB_ActivateRemoteWakeup:
 6922              	.LFB176:
2013:Drivers/STM32F4xx_HAL_Driver/Src/stm32f4xx_ll_usb.c **** 
2014:Drivers/STM32F4xx_HAL_Driver/Src/stm32f4xx_ll_usb.c **** /**
2015:Drivers/STM32F4xx_HAL_Driver/Src/stm32f4xx_ll_usb.c ****   * @brief  USB_ActivateRemoteWakeup active remote wakeup signalling
2016:Drivers/STM32F4xx_HAL_Driver/Src/stm32f4xx_ll_usb.c ****   * @param  USBx Selected device
2017:Drivers/STM32F4xx_HAL_Driver/Src/stm32f4xx_ll_usb.c ****   * @retval HAL status
2018:Drivers/STM32F4xx_HAL_Driver/Src/stm32f4xx_ll_usb.c ****   */
2019:Drivers/STM32F4xx_HAL_Driver/Src/stm32f4xx_ll_usb.c **** HAL_StatusTypeDef USB_ActivateRemoteWakeup(USB_OTG_GlobalTypeDef *USBx)
2020:Drivers/STM32F4xx_HAL_Driver/Src/stm32f4xx_ll_usb.c **** {
 6923              		.loc 1 2020 1
 6924              		.cfi_startproc
 6925              		@ args = 0, pretend = 0, frame = 16
 6926              		@ frame_needed = 1, uses_anonymous_args = 0
 6927              		@ link register save eliminated.
 6928 0000 80B4     		push	{r7}
 6929              	.LCFI275:
 6930              		.cfi_def_cfa_offset 4
 6931              		.cfi_offset 7, -4
 6932 0002 85B0     		sub	sp, sp, #20
 6933              	.LCFI276:
 6934              		.cfi_def_cfa_offset 24
 6935 0004 00AF     		add	r7, sp, #0
 6936              	.LCFI277:
 6937              		.cfi_def_cfa_register 7
 6938 0006 7860     		str	r0, [r7, #4]
2021:Drivers/STM32F4xx_HAL_Driver/Src/stm32f4xx_ll_usb.c ****   uint32_t USBx_BASE = (uint32_t)USBx;
 6939              		.loc 1 2021 12
 6940 0008 7B68     		ldr	r3, [r7, #4]
 6941 000a FB60     		str	r3, [r7, #12]
2022:Drivers/STM32F4xx_HAL_Driver/Src/stm32f4xx_ll_usb.c **** 
2023:Drivers/STM32F4xx_HAL_Driver/Src/stm32f4xx_ll_usb.c ****   if ((USBx_DEVICE->DSTS & USB_OTG_DSTS_SUSPSTS) == USB_OTG_DSTS_SUSPSTS)
 6942              		.loc 1 2023 8
 6943 000c FB68     		ldr	r3, [r7, #12]
 6944 000e 03F50063 		add	r3, r3, #2048
 6945              		.loc 1 2023 19
 6946 0012 9B68     		ldr	r3, [r3, #8]
 6947              		.loc 1 2023 26
 6948 0014 03F00103 		and	r3, r3, #1
 6949              		.loc 1 2023 6
 6950 0018 012B     		cmp	r3, #1
 6951 001a 09D1     		bne	.L306
2024:Drivers/STM32F4xx_HAL_Driver/Src/stm32f4xx_ll_usb.c ****   {
2025:Drivers/STM32F4xx_HAL_Driver/Src/stm32f4xx_ll_usb.c ****     /* active Remote wakeup signalling */
2026:Drivers/STM32F4xx_HAL_Driver/Src/stm32f4xx_ll_usb.c ****     USBx_DEVICE->DCTL |= USB_OTG_DCTL_RWUSIG;
 6952              		.loc 1 2026 23
 6953 001c FB68     		ldr	r3, [r7, #12]
 6954 001e 03F50063 		add	r3, r3, #2048
 6955 0022 5B68     		ldr	r3, [r3, #4]
 6956 0024 FA68     		ldr	r2, [r7, #12]
 6957 0026 02F50062 		add	r2, r2, #2048
 6958 002a 43F00103 		orr	r3, r3, #1
 6959 002e 5360     		str	r3, [r2, #4]
 6960              	.L306:
2027:Drivers/STM32F4xx_HAL_Driver/Src/stm32f4xx_ll_usb.c ****   }
2028:Drivers/STM32F4xx_HAL_Driver/Src/stm32f4xx_ll_usb.c **** 
2029:Drivers/STM32F4xx_HAL_Driver/Src/stm32f4xx_ll_usb.c ****   return HAL_OK;
ARM GAS  /var/folders/vq/qt4vp3kd5rxf7v2b6_fdtdt80000gn/T//ccjOke0W.s 			page 158


 6961              		.loc 1 2029 10
 6962 0030 0023     		movs	r3, #0
2030:Drivers/STM32F4xx_HAL_Driver/Src/stm32f4xx_ll_usb.c **** }
 6963              		.loc 1 2030 1
 6964 0032 1846     		mov	r0, r3
 6965 0034 1437     		adds	r7, r7, #20
 6966              	.LCFI278:
 6967              		.cfi_def_cfa_offset 4
 6968 0036 BD46     		mov	sp, r7
 6969              	.LCFI279:
 6970              		.cfi_def_cfa_register 13
 6971              		@ sp needed
 6972 0038 5DF8047B 		ldr	r7, [sp], #4
 6973              	.LCFI280:
 6974              		.cfi_restore 7
 6975              		.cfi_def_cfa_offset 0
 6976 003c 7047     		bx	lr
 6977              		.cfi_endproc
 6978              	.LFE176:
 6980              		.section	.text.USB_DeActivateRemoteWakeup,"ax",%progbits
 6981              		.align	1
 6982              		.global	USB_DeActivateRemoteWakeup
 6983              		.syntax unified
 6984              		.thumb
 6985              		.thumb_func
 6986              		.fpu fpv4-sp-d16
 6988              	USB_DeActivateRemoteWakeup:
 6989              	.LFB177:
2031:Drivers/STM32F4xx_HAL_Driver/Src/stm32f4xx_ll_usb.c **** 
2032:Drivers/STM32F4xx_HAL_Driver/Src/stm32f4xx_ll_usb.c **** /**
2033:Drivers/STM32F4xx_HAL_Driver/Src/stm32f4xx_ll_usb.c ****   * @brief  USB_DeActivateRemoteWakeup de-active remote wakeup signalling
2034:Drivers/STM32F4xx_HAL_Driver/Src/stm32f4xx_ll_usb.c ****   * @param  USBx Selected device
2035:Drivers/STM32F4xx_HAL_Driver/Src/stm32f4xx_ll_usb.c ****   * @retval HAL status
2036:Drivers/STM32F4xx_HAL_Driver/Src/stm32f4xx_ll_usb.c ****   */
2037:Drivers/STM32F4xx_HAL_Driver/Src/stm32f4xx_ll_usb.c **** HAL_StatusTypeDef USB_DeActivateRemoteWakeup(USB_OTG_GlobalTypeDef *USBx)
2038:Drivers/STM32F4xx_HAL_Driver/Src/stm32f4xx_ll_usb.c **** {
 6990              		.loc 1 2038 1
 6991              		.cfi_startproc
 6992              		@ args = 0, pretend = 0, frame = 16
 6993              		@ frame_needed = 1, uses_anonymous_args = 0
 6994              		@ link register save eliminated.
 6995 0000 80B4     		push	{r7}
 6996              	.LCFI281:
 6997              		.cfi_def_cfa_offset 4
 6998              		.cfi_offset 7, -4
 6999 0002 85B0     		sub	sp, sp, #20
 7000              	.LCFI282:
 7001              		.cfi_def_cfa_offset 24
 7002 0004 00AF     		add	r7, sp, #0
 7003              	.LCFI283:
 7004              		.cfi_def_cfa_register 7
 7005 0006 7860     		str	r0, [r7, #4]
2039:Drivers/STM32F4xx_HAL_Driver/Src/stm32f4xx_ll_usb.c ****   uint32_t USBx_BASE = (uint32_t)USBx;
 7006              		.loc 1 2039 12
 7007 0008 7B68     		ldr	r3, [r7, #4]
 7008 000a FB60     		str	r3, [r7, #12]
2040:Drivers/STM32F4xx_HAL_Driver/Src/stm32f4xx_ll_usb.c **** 
ARM GAS  /var/folders/vq/qt4vp3kd5rxf7v2b6_fdtdt80000gn/T//ccjOke0W.s 			page 159


2041:Drivers/STM32F4xx_HAL_Driver/Src/stm32f4xx_ll_usb.c ****   /* active Remote wakeup signalling */
2042:Drivers/STM32F4xx_HAL_Driver/Src/stm32f4xx_ll_usb.c ****   USBx_DEVICE->DCTL &= ~(USB_OTG_DCTL_RWUSIG);
 7009              		.loc 1 2042 21
 7010 000c FB68     		ldr	r3, [r7, #12]
 7011 000e 03F50063 		add	r3, r3, #2048
 7012 0012 5B68     		ldr	r3, [r3, #4]
 7013 0014 FA68     		ldr	r2, [r7, #12]
 7014 0016 02F50062 		add	r2, r2, #2048
 7015 001a 23F00103 		bic	r3, r3, #1
 7016 001e 5360     		str	r3, [r2, #4]
2043:Drivers/STM32F4xx_HAL_Driver/Src/stm32f4xx_ll_usb.c **** 
2044:Drivers/STM32F4xx_HAL_Driver/Src/stm32f4xx_ll_usb.c ****   return HAL_OK;
 7017              		.loc 1 2044 10
 7018 0020 0023     		movs	r3, #0
2045:Drivers/STM32F4xx_HAL_Driver/Src/stm32f4xx_ll_usb.c **** }
 7019              		.loc 1 2045 1
 7020 0022 1846     		mov	r0, r3
 7021 0024 1437     		adds	r7, r7, #20
 7022              	.LCFI284:
 7023              		.cfi_def_cfa_offset 4
 7024 0026 BD46     		mov	sp, r7
 7025              	.LCFI285:
 7026              		.cfi_def_cfa_register 13
 7027              		@ sp needed
 7028 0028 5DF8047B 		ldr	r7, [sp], #4
 7029              	.LCFI286:
 7030              		.cfi_restore 7
 7031              		.cfi_def_cfa_offset 0
 7032 002c 7047     		bx	lr
 7033              		.cfi_endproc
 7034              	.LFE177:
 7036              		.text
 7037              	.Letext0:
 7038              		.file 2 "/usr/local/Cellar/arm-none-eabi-gcc/9-2019-q4-major/gcc/arm-none-eabi/include/machine/_de
 7039              		.file 3 "/usr/local/Cellar/arm-none-eabi-gcc/9-2019-q4-major/gcc/arm-none-eabi/include/sys/_stdint
 7040              		.file 4 "Drivers/CMSIS/Include/cmsis_gcc.h"
 7041              		.file 5 "Drivers/CMSIS/Include/core_cm4.h"
 7042              		.file 6 "Drivers/CMSIS/Device/ST/STM32F4xx/Include/system_stm32f4xx.h"
 7043              		.file 7 "Drivers/CMSIS/Device/ST/STM32F4xx/Include/stm32f407xx.h"
 7044              		.file 8 "Drivers/STM32F4xx_HAL_Driver/Inc/stm32f4xx_hal_def.h"
 7045              		.file 9 "Drivers/STM32F4xx_HAL_Driver/Inc/stm32f4xx_ll_usb.h"
 7046              		.file 10 "Drivers/STM32F4xx_HAL_Driver/Inc/stm32f4xx_hal.h"
ARM GAS  /var/folders/vq/qt4vp3kd5rxf7v2b6_fdtdt80000gn/T//ccjOke0W.s 			page 160


DEFINED SYMBOLS
                            *ABS*:0000000000000000 stm32f4xx_ll_usb.c
/var/folders/vq/qt4vp3kd5rxf7v2b6_fdtdt80000gn/T//ccjOke0W.s:17     .text.USB_CoreInit:0000000000000000 $t
/var/folders/vq/qt4vp3kd5rxf7v2b6_fdtdt80000gn/T//ccjOke0W.s:25     .text.USB_CoreInit:0000000000000000 USB_CoreInit
/var/folders/vq/qt4vp3kd5rxf7v2b6_fdtdt80000gn/T//ccjOke0W.s:4711   .text.USB_CoreReset:0000000000000000 USB_CoreReset
/var/folders/vq/qt4vp3kd5rxf7v2b6_fdtdt80000gn/T//ccjOke0W.s:165    .text.USB_SetTurnaroundTime:0000000000000000 $t
/var/folders/vq/qt4vp3kd5rxf7v2b6_fdtdt80000gn/T//ccjOke0W.s:172    .text.USB_SetTurnaroundTime:0000000000000000 USB_SetTurnaroundTime
/var/folders/vq/qt4vp3kd5rxf7v2b6_fdtdt80000gn/T//ccjOke0W.s:387    .text.USB_SetTurnaroundTime:000000000000011c $d
/var/folders/vq/qt4vp3kd5rxf7v2b6_fdtdt80000gn/T//ccjOke0W.s:401    .text.USB_EnableGlobalInt:0000000000000000 $t
/var/folders/vq/qt4vp3kd5rxf7v2b6_fdtdt80000gn/T//ccjOke0W.s:408    .text.USB_EnableGlobalInt:0000000000000000 USB_EnableGlobalInt
/var/folders/vq/qt4vp3kd5rxf7v2b6_fdtdt80000gn/T//ccjOke0W.s:452    .text.USB_DisableGlobalInt:0000000000000000 $t
/var/folders/vq/qt4vp3kd5rxf7v2b6_fdtdt80000gn/T//ccjOke0W.s:459    .text.USB_DisableGlobalInt:0000000000000000 USB_DisableGlobalInt
/var/folders/vq/qt4vp3kd5rxf7v2b6_fdtdt80000gn/T//ccjOke0W.s:503    .text.USB_SetCurrentMode:0000000000000000 $t
/var/folders/vq/qt4vp3kd5rxf7v2b6_fdtdt80000gn/T//ccjOke0W.s:510    .text.USB_SetCurrentMode:0000000000000000 USB_SetCurrentMode
/var/folders/vq/qt4vp3kd5rxf7v2b6_fdtdt80000gn/T//ccjOke0W.s:584    .text.USB_DevInit:0000000000000000 $t
/var/folders/vq/qt4vp3kd5rxf7v2b6_fdtdt80000gn/T//ccjOke0W.s:591    .text.USB_DevInit:0000000000000000 USB_DevInit
/var/folders/vq/qt4vp3kd5rxf7v2b6_fdtdt80000gn/T//ccjOke0W.s:1210   .text.USB_SetDevSpeed:0000000000000000 USB_SetDevSpeed
/var/folders/vq/qt4vp3kd5rxf7v2b6_fdtdt80000gn/T//ccjOke0W.s:1049   .text.USB_FlushTxFifo:0000000000000000 USB_FlushTxFifo
/var/folders/vq/qt4vp3kd5rxf7v2b6_fdtdt80000gn/T//ccjOke0W.s:1132   .text.USB_FlushRxFifo:0000000000000000 USB_FlushRxFifo
/var/folders/vq/qt4vp3kd5rxf7v2b6_fdtdt80000gn/T//ccjOke0W.s:1037   .text.USB_DevInit:00000000000002c4 $d
/var/folders/vq/qt4vp3kd5rxf7v2b6_fdtdt80000gn/T//ccjOke0W.s:1042   .text.USB_FlushTxFifo:0000000000000000 $t
/var/folders/vq/qt4vp3kd5rxf7v2b6_fdtdt80000gn/T//ccjOke0W.s:1120   .text.USB_FlushTxFifo:0000000000000048 $d
/var/folders/vq/qt4vp3kd5rxf7v2b6_fdtdt80000gn/T//ccjOke0W.s:1125   .text.USB_FlushRxFifo:0000000000000000 $t
/var/folders/vq/qt4vp3kd5rxf7v2b6_fdtdt80000gn/T//ccjOke0W.s:1198   .text.USB_FlushRxFifo:0000000000000040 $d
/var/folders/vq/qt4vp3kd5rxf7v2b6_fdtdt80000gn/T//ccjOke0W.s:1203   .text.USB_SetDevSpeed:0000000000000000 $t
/var/folders/vq/qt4vp3kd5rxf7v2b6_fdtdt80000gn/T//ccjOke0W.s:1262   .text.USB_GetDevSpeed:0000000000000000 $t
/var/folders/vq/qt4vp3kd5rxf7v2b6_fdtdt80000gn/T//ccjOke0W.s:1269   .text.USB_GetDevSpeed:0000000000000000 USB_GetDevSpeed
/var/folders/vq/qt4vp3kd5rxf7v2b6_fdtdt80000gn/T//ccjOke0W.s:1345   .text.USB_ActivateEndpoint:0000000000000000 $t
/var/folders/vq/qt4vp3kd5rxf7v2b6_fdtdt80000gn/T//ccjOke0W.s:1352   .text.USB_ActivateEndpoint:0000000000000000 USB_ActivateEndpoint
/var/folders/vq/qt4vp3kd5rxf7v2b6_fdtdt80000gn/T//ccjOke0W.s:1535   .text.USB_ActivateDedicatedEndpoint:0000000000000000 $t
/var/folders/vq/qt4vp3kd5rxf7v2b6_fdtdt80000gn/T//ccjOke0W.s:1542   .text.USB_ActivateDedicatedEndpoint:0000000000000000 USB_ActivateDedicatedEndpoint
/var/folders/vq/qt4vp3kd5rxf7v2b6_fdtdt80000gn/T//ccjOke0W.s:1731   .text.USB_DeactivateEndpoint:0000000000000000 $t
/var/folders/vq/qt4vp3kd5rxf7v2b6_fdtdt80000gn/T//ccjOke0W.s:1738   .text.USB_DeactivateEndpoint:0000000000000000 USB_DeactivateEndpoint
/var/folders/vq/qt4vp3kd5rxf7v2b6_fdtdt80000gn/T//ccjOke0W.s:1993   .text.USB_DeactivateEndpoint:00000000000001b0 $d
/var/folders/vq/qt4vp3kd5rxf7v2b6_fdtdt80000gn/T//ccjOke0W.s:1999   .text.USB_DeactivateDedicatedEndpoint:0000000000000000 $t
/var/folders/vq/qt4vp3kd5rxf7v2b6_fdtdt80000gn/T//ccjOke0W.s:2006   .text.USB_DeactivateDedicatedEndpoint:0000000000000000 USB_DeactivateDedicatedEndpoint
/var/folders/vq/qt4vp3kd5rxf7v2b6_fdtdt80000gn/T//ccjOke0W.s:2216   .text.USB_EPStartXfer:0000000000000000 $t
/var/folders/vq/qt4vp3kd5rxf7v2b6_fdtdt80000gn/T//ccjOke0W.s:2223   .text.USB_EPStartXfer:0000000000000000 USB_EPStartXfer
/var/folders/vq/qt4vp3kd5rxf7v2b6_fdtdt80000gn/T//ccjOke0W.s:3260   .text.USB_WritePacket:0000000000000000 USB_WritePacket
/var/folders/vq/qt4vp3kd5rxf7v2b6_fdtdt80000gn/T//ccjOke0W.s:2693   .text.USB_EPStartXfer:0000000000000370 $d
/var/folders/vq/qt4vp3kd5rxf7v2b6_fdtdt80000gn/T//ccjOke0W.s:2696   .text.USB_EPStartXfer:0000000000000374 $t
/var/folders/vq/qt4vp3kd5rxf7v2b6_fdtdt80000gn/T//ccjOke0W.s:2859   .text.USB_EPStartXfer:0000000000000484 $d
/var/folders/vq/qt4vp3kd5rxf7v2b6_fdtdt80000gn/T//ccjOke0W.s:2864   .text.USB_EP0StartXfer:0000000000000000 $t
/var/folders/vq/qt4vp3kd5rxf7v2b6_fdtdt80000gn/T//ccjOke0W.s:2871   .text.USB_EP0StartXfer:0000000000000000 USB_EP0StartXfer
/var/folders/vq/qt4vp3kd5rxf7v2b6_fdtdt80000gn/T//ccjOke0W.s:3253   .text.USB_WritePacket:0000000000000000 $t
/var/folders/vq/qt4vp3kd5rxf7v2b6_fdtdt80000gn/T//ccjOke0W.s:3355   .text.USB_ReadPacket:0000000000000000 $t
/var/folders/vq/qt4vp3kd5rxf7v2b6_fdtdt80000gn/T//ccjOke0W.s:3362   .text.USB_ReadPacket:0000000000000000 USB_ReadPacket
/var/folders/vq/qt4vp3kd5rxf7v2b6_fdtdt80000gn/T//ccjOke0W.s:3442   .text.USB_EPSetStall:0000000000000000 $t
/var/folders/vq/qt4vp3kd5rxf7v2b6_fdtdt80000gn/T//ccjOke0W.s:3449   .text.USB_EPSetStall:0000000000000000 USB_EPSetStall
/var/folders/vq/qt4vp3kd5rxf7v2b6_fdtdt80000gn/T//ccjOke0W.s:3593   .text.USB_EPClearStall:0000000000000000 $t
/var/folders/vq/qt4vp3kd5rxf7v2b6_fdtdt80000gn/T//ccjOke0W.s:3600   .text.USB_EPClearStall:0000000000000000 USB_EPClearStall
/var/folders/vq/qt4vp3kd5rxf7v2b6_fdtdt80000gn/T//ccjOke0W.s:3738   .text.USB_StopDevice:0000000000000000 $t
/var/folders/vq/qt4vp3kd5rxf7v2b6_fdtdt80000gn/T//ccjOke0W.s:3745   .text.USB_StopDevice:0000000000000000 USB_StopDevice
/var/folders/vq/qt4vp3kd5rxf7v2b6_fdtdt80000gn/T//ccjOke0W.s:3866   .text.USB_SetDevAddress:0000000000000000 $t
/var/folders/vq/qt4vp3kd5rxf7v2b6_fdtdt80000gn/T//ccjOke0W.s:3873   .text.USB_SetDevAddress:0000000000000000 USB_SetDevAddress
/var/folders/vq/qt4vp3kd5rxf7v2b6_fdtdt80000gn/T//ccjOke0W.s:3939   .text.USB_DevConnect:0000000000000000 $t
/var/folders/vq/qt4vp3kd5rxf7v2b6_fdtdt80000gn/T//ccjOke0W.s:3946   .text.USB_DevConnect:0000000000000000 USB_DevConnect
ARM GAS  /var/folders/vq/qt4vp3kd5rxf7v2b6_fdtdt80000gn/T//ccjOke0W.s 			page 161


/var/folders/vq/qt4vp3kd5rxf7v2b6_fdtdt80000gn/T//ccjOke0W.s:4003   .text.USB_DevDisconnect:0000000000000000 $t
/var/folders/vq/qt4vp3kd5rxf7v2b6_fdtdt80000gn/T//ccjOke0W.s:4010   .text.USB_DevDisconnect:0000000000000000 USB_DevDisconnect
/var/folders/vq/qt4vp3kd5rxf7v2b6_fdtdt80000gn/T//ccjOke0W.s:4067   .text.USB_ReadInterrupts:0000000000000000 $t
/var/folders/vq/qt4vp3kd5rxf7v2b6_fdtdt80000gn/T//ccjOke0W.s:4074   .text.USB_ReadInterrupts:0000000000000000 USB_ReadInterrupts
/var/folders/vq/qt4vp3kd5rxf7v2b6_fdtdt80000gn/T//ccjOke0W.s:4123   .text.USB_ReadDevAllOutEpInterrupt:0000000000000000 $t
/var/folders/vq/qt4vp3kd5rxf7v2b6_fdtdt80000gn/T//ccjOke0W.s:4130   .text.USB_ReadDevAllOutEpInterrupt:0000000000000000 USB_ReadDevAllOutEpInterrupt
/var/folders/vq/qt4vp3kd5rxf7v2b6_fdtdt80000gn/T//ccjOke0W.s:4187   .text.USB_ReadDevAllInEpInterrupt:0000000000000000 $t
/var/folders/vq/qt4vp3kd5rxf7v2b6_fdtdt80000gn/T//ccjOke0W.s:4194   .text.USB_ReadDevAllInEpInterrupt:0000000000000000 USB_ReadDevAllInEpInterrupt
/var/folders/vq/qt4vp3kd5rxf7v2b6_fdtdt80000gn/T//ccjOke0W.s:4251   .text.USB_ReadDevOutEPInterrupt:0000000000000000 $t
/var/folders/vq/qt4vp3kd5rxf7v2b6_fdtdt80000gn/T//ccjOke0W.s:4258   .text.USB_ReadDevOutEPInterrupt:0000000000000000 USB_ReadDevOutEPInterrupt
/var/folders/vq/qt4vp3kd5rxf7v2b6_fdtdt80000gn/T//ccjOke0W.s:4319   .text.USB_ReadDevInEPInterrupt:0000000000000000 $t
/var/folders/vq/qt4vp3kd5rxf7v2b6_fdtdt80000gn/T//ccjOke0W.s:4326   .text.USB_ReadDevInEPInterrupt:0000000000000000 USB_ReadDevInEPInterrupt
/var/folders/vq/qt4vp3kd5rxf7v2b6_fdtdt80000gn/T//ccjOke0W.s:4406   .text.USB_ClearInterrupts:0000000000000000 $t
/var/folders/vq/qt4vp3kd5rxf7v2b6_fdtdt80000gn/T//ccjOke0W.s:4413   .text.USB_ClearInterrupts:0000000000000000 USB_ClearInterrupts
/var/folders/vq/qt4vp3kd5rxf7v2b6_fdtdt80000gn/T//ccjOke0W.s:4457   .text.USB_GetMode:0000000000000000 $t
/var/folders/vq/qt4vp3kd5rxf7v2b6_fdtdt80000gn/T//ccjOke0W.s:4464   .text.USB_GetMode:0000000000000000 USB_GetMode
/var/folders/vq/qt4vp3kd5rxf7v2b6_fdtdt80000gn/T//ccjOke0W.s:4505   .text.USB_ActivateSetup:0000000000000000 $t
/var/folders/vq/qt4vp3kd5rxf7v2b6_fdtdt80000gn/T//ccjOke0W.s:4512   .text.USB_ActivateSetup:0000000000000000 USB_ActivateSetup
/var/folders/vq/qt4vp3kd5rxf7v2b6_fdtdt80000gn/T//ccjOke0W.s:4570   .text.USB_EP0_OutStart:0000000000000000 $t
/var/folders/vq/qt4vp3kd5rxf7v2b6_fdtdt80000gn/T//ccjOke0W.s:4577   .text.USB_EP0_OutStart:0000000000000000 USB_EP0_OutStart
/var/folders/vq/qt4vp3kd5rxf7v2b6_fdtdt80000gn/T//ccjOke0W.s:4700   .text.USB_EP0_OutStart:00000000000000b8 $d
/var/folders/vq/qt4vp3kd5rxf7v2b6_fdtdt80000gn/T//ccjOke0W.s:4705   .text.USB_CoreReset:0000000000000000 $t
/var/folders/vq/qt4vp3kd5rxf7v2b6_fdtdt80000gn/T//ccjOke0W.s:4801   .text.USB_CoreReset:0000000000000064 $d
/var/folders/vq/qt4vp3kd5rxf7v2b6_fdtdt80000gn/T//ccjOke0W.s:4806   .text.USB_HostInit:0000000000000000 $t
/var/folders/vq/qt4vp3kd5rxf7v2b6_fdtdt80000gn/T//ccjOke0W.s:4813   .text.USB_HostInit:0000000000000000 USB_HostInit
/var/folders/vq/qt4vp3kd5rxf7v2b6_fdtdt80000gn/T//ccjOke0W.s:5234   .text.USB_DriveVbus:0000000000000000 USB_DriveVbus
/var/folders/vq/qt4vp3kd5rxf7v2b6_fdtdt80000gn/T//ccjOke0W.s:5042   .text.USB_HostInit:0000000000000164 $d
/var/folders/vq/qt4vp3kd5rxf7v2b6_fdtdt80000gn/T//ccjOke0W.s:5051   .text.USB_InitFSLSPClkSel:0000000000000000 $t
/var/folders/vq/qt4vp3kd5rxf7v2b6_fdtdt80000gn/T//ccjOke0W.s:5058   .text.USB_InitFSLSPClkSel:0000000000000000 USB_InitFSLSPClkSel
/var/folders/vq/qt4vp3kd5rxf7v2b6_fdtdt80000gn/T//ccjOke0W.s:5146   .text.USB_ResetPort:0000000000000000 $t
/var/folders/vq/qt4vp3kd5rxf7v2b6_fdtdt80000gn/T//ccjOke0W.s:5153   .text.USB_ResetPort:0000000000000000 USB_ResetPort
/var/folders/vq/qt4vp3kd5rxf7v2b6_fdtdt80000gn/T//ccjOke0W.s:5227   .text.USB_DriveVbus:0000000000000000 $t
/var/folders/vq/qt4vp3kd5rxf7v2b6_fdtdt80000gn/T//ccjOke0W.s:5330   .text.USB_GetHostSpeed:0000000000000000 $t
/var/folders/vq/qt4vp3kd5rxf7v2b6_fdtdt80000gn/T//ccjOke0W.s:5337   .text.USB_GetHostSpeed:0000000000000000 USB_GetHostSpeed
/var/folders/vq/qt4vp3kd5rxf7v2b6_fdtdt80000gn/T//ccjOke0W.s:5389   .text.USB_GetCurrentFrame:0000000000000000 $t
/var/folders/vq/qt4vp3kd5rxf7v2b6_fdtdt80000gn/T//ccjOke0W.s:5396   .text.USB_GetCurrentFrame:0000000000000000 USB_GetCurrentFrame
/var/folders/vq/qt4vp3kd5rxf7v2b6_fdtdt80000gn/T//ccjOke0W.s:5442   .text.USB_HC_Init:0000000000000000 $t
/var/folders/vq/qt4vp3kd5rxf7v2b6_fdtdt80000gn/T//ccjOke0W.s:5449   .text.USB_HC_Init:0000000000000000 USB_HC_Init
/var/folders/vq/qt4vp3kd5rxf7v2b6_fdtdt80000gn/T//ccjOke0W.s:5500   .text.USB_HC_Init:0000000000000044 $d
/var/folders/vq/qt4vp3kd5rxf7v2b6_fdtdt80000gn/T//ccjOke0W.s:5504   .text.USB_HC_Init:0000000000000054 $t
/var/folders/vq/qt4vp3kd5rxf7v2b6_fdtdt80000gn/T//ccjOke0W.s:5776   .text.USB_HC_StartXfer:0000000000000000 $t
/var/folders/vq/qt4vp3kd5rxf7v2b6_fdtdt80000gn/T//ccjOke0W.s:5783   .text.USB_HC_StartXfer:0000000000000000 USB_HC_StartXfer
/var/folders/vq/qt4vp3kd5rxf7v2b6_fdtdt80000gn/T//ccjOke0W.s:6629   .text.USB_DoPing:0000000000000000 USB_DoPing
/var/folders/vq/qt4vp3kd5rxf7v2b6_fdtdt80000gn/T//ccjOke0W.s:6124   .text.USB_HC_StartXfer:00000000000001f8 $d
/var/folders/vq/qt4vp3kd5rxf7v2b6_fdtdt80000gn/T//ccjOke0W.s:6128   .text.USB_HC_StartXfer:0000000000000208 $t
/var/folders/vq/qt4vp3kd5rxf7v2b6_fdtdt80000gn/T//ccjOke0W.s:6230   .text.USB_HC_StartXfer:0000000000000280 $d
/var/folders/vq/qt4vp3kd5rxf7v2b6_fdtdt80000gn/T//ccjOke0W.s:6235   .text.USB_HC_ReadInterrupt:0000000000000000 $t
/var/folders/vq/qt4vp3kd5rxf7v2b6_fdtdt80000gn/T//ccjOke0W.s:6242   .text.USB_HC_ReadInterrupt:0000000000000000 USB_HC_ReadInterrupt
/var/folders/vq/qt4vp3kd5rxf7v2b6_fdtdt80000gn/T//ccjOke0W.s:6288   .text.USB_HC_Halt:0000000000000000 $t
/var/folders/vq/qt4vp3kd5rxf7v2b6_fdtdt80000gn/T//ccjOke0W.s:6295   .text.USB_HC_Halt:0000000000000000 USB_HC_Halt
/var/folders/vq/qt4vp3kd5rxf7v2b6_fdtdt80000gn/T//ccjOke0W.s:6622   .text.USB_DoPing:0000000000000000 $t
/var/folders/vq/qt4vp3kd5rxf7v2b6_fdtdt80000gn/T//ccjOke0W.s:6720   .text.USB_DoPing:0000000000000074 $d
/var/folders/vq/qt4vp3kd5rxf7v2b6_fdtdt80000gn/T//ccjOke0W.s:6725   .text.USB_StopHost:0000000000000000 $t
/var/folders/vq/qt4vp3kd5rxf7v2b6_fdtdt80000gn/T//ccjOke0W.s:6732   .text.USB_StopHost:0000000000000000 USB_StopHost
/var/folders/vq/qt4vp3kd5rxf7v2b6_fdtdt80000gn/T//ccjOke0W.s:6914   .text.USB_ActivateRemoteWakeup:0000000000000000 $t
/var/folders/vq/qt4vp3kd5rxf7v2b6_fdtdt80000gn/T//ccjOke0W.s:6921   .text.USB_ActivateRemoteWakeup:0000000000000000 USB_ActivateRemoteWakeup
/var/folders/vq/qt4vp3kd5rxf7v2b6_fdtdt80000gn/T//ccjOke0W.s:6981   .text.USB_DeActivateRemoteWakeup:0000000000000000 $t
ARM GAS  /var/folders/vq/qt4vp3kd5rxf7v2b6_fdtdt80000gn/T//ccjOke0W.s 			page 162


/var/folders/vq/qt4vp3kd5rxf7v2b6_fdtdt80000gn/T//ccjOke0W.s:6988   .text.USB_DeActivateRemoteWakeup:0000000000000000 USB_DeActivateRemoteWakeup

UNDEFINED SYMBOLS
HAL_Delay
