ARM GAS  /var/folders/vq/qt4vp3kd5rxf7v2b6_fdtdt80000gn/T//ccYRRUak.s 			page 1


   1              		.cpu cortex-m4
   2              		.eabi_attribute 27, 1
   3              		.eabi_attribute 20, 1
   4              		.eabi_attribute 21, 1
   5              		.eabi_attribute 23, 3
   6              		.eabi_attribute 24, 1
   7              		.eabi_attribute 25, 1
   8              		.eabi_attribute 26, 1
   9              		.eabi_attribute 30, 6
  10              		.eabi_attribute 34, 1
  11              		.eabi_attribute 18, 4
  12              		.file	"stm32f4xx_hal_exti.c"
  13              		.text
  14              	.Ltext0:
  15              		.cfi_sections	.debug_frame
  16              		.section	.text.HAL_EXTI_SetConfigLine,"ax",%progbits
  17              		.align	1
  18              		.global	HAL_EXTI_SetConfigLine
  19              		.arch armv7e-m
  20              		.syntax unified
  21              		.thumb
  22              		.thumb_func
  23              		.fpu fpv4-sp-d16
  25              	HAL_EXTI_SetConfigLine:
  26              	.LFB130:
  27              		.file 1 "Drivers/STM32F4xx_HAL_Driver/Src/stm32f4xx_hal_exti.c"
   1:Drivers/STM32F4xx_HAL_Driver/Src/stm32f4xx_hal_exti.c **** /**
   2:Drivers/STM32F4xx_HAL_Driver/Src/stm32f4xx_hal_exti.c ****   ******************************************************************************
   3:Drivers/STM32F4xx_HAL_Driver/Src/stm32f4xx_hal_exti.c ****   * @file    stm32f4xx_hal_exti.c
   4:Drivers/STM32F4xx_HAL_Driver/Src/stm32f4xx_hal_exti.c ****   * @author  MCD Application Team
   5:Drivers/STM32F4xx_HAL_Driver/Src/stm32f4xx_hal_exti.c ****   * @brief   EXTI HAL module driver.
   6:Drivers/STM32F4xx_HAL_Driver/Src/stm32f4xx_hal_exti.c ****   *          This file provides firmware functions to manage the following
   7:Drivers/STM32F4xx_HAL_Driver/Src/stm32f4xx_hal_exti.c ****   *          functionalities of the Extended Interrupts and events controller (EXTI) peripheral:
   8:Drivers/STM32F4xx_HAL_Driver/Src/stm32f4xx_hal_exti.c ****   *           + Initialization and de-initialization functions
   9:Drivers/STM32F4xx_HAL_Driver/Src/stm32f4xx_hal_exti.c ****   *           + IO operation functions
  10:Drivers/STM32F4xx_HAL_Driver/Src/stm32f4xx_hal_exti.c ****   *
  11:Drivers/STM32F4xx_HAL_Driver/Src/stm32f4xx_hal_exti.c ****   @verbatim
  12:Drivers/STM32F4xx_HAL_Driver/Src/stm32f4xx_hal_exti.c ****   ==============================================================================
  13:Drivers/STM32F4xx_HAL_Driver/Src/stm32f4xx_hal_exti.c ****                     ##### EXTI Peripheral features #####
  14:Drivers/STM32F4xx_HAL_Driver/Src/stm32f4xx_hal_exti.c ****   ==============================================================================
  15:Drivers/STM32F4xx_HAL_Driver/Src/stm32f4xx_hal_exti.c ****   [..]
  16:Drivers/STM32F4xx_HAL_Driver/Src/stm32f4xx_hal_exti.c ****     (+) Each Exti line can be configured within this driver.
  17:Drivers/STM32F4xx_HAL_Driver/Src/stm32f4xx_hal_exti.c **** 
  18:Drivers/STM32F4xx_HAL_Driver/Src/stm32f4xx_hal_exti.c ****     (+) Exti line can be configured in 3 different modes
  19:Drivers/STM32F4xx_HAL_Driver/Src/stm32f4xx_hal_exti.c ****         (++) Interrupt
  20:Drivers/STM32F4xx_HAL_Driver/Src/stm32f4xx_hal_exti.c ****         (++) Event
  21:Drivers/STM32F4xx_HAL_Driver/Src/stm32f4xx_hal_exti.c ****         (++) Both of them
  22:Drivers/STM32F4xx_HAL_Driver/Src/stm32f4xx_hal_exti.c **** 
  23:Drivers/STM32F4xx_HAL_Driver/Src/stm32f4xx_hal_exti.c ****     (+) Configurable Exti lines can be configured with 3 different triggers
  24:Drivers/STM32F4xx_HAL_Driver/Src/stm32f4xx_hal_exti.c ****         (++) Rising
  25:Drivers/STM32F4xx_HAL_Driver/Src/stm32f4xx_hal_exti.c ****         (++) Falling
  26:Drivers/STM32F4xx_HAL_Driver/Src/stm32f4xx_hal_exti.c ****         (++) Both of them
  27:Drivers/STM32F4xx_HAL_Driver/Src/stm32f4xx_hal_exti.c **** 
  28:Drivers/STM32F4xx_HAL_Driver/Src/stm32f4xx_hal_exti.c ****     (+) When set in interrupt mode, configurable Exti lines have two different
  29:Drivers/STM32F4xx_HAL_Driver/Src/stm32f4xx_hal_exti.c ****         interrupts pending registers which allow to distinguish which transition
  30:Drivers/STM32F4xx_HAL_Driver/Src/stm32f4xx_hal_exti.c ****         occurs:
  31:Drivers/STM32F4xx_HAL_Driver/Src/stm32f4xx_hal_exti.c ****         (++) Rising edge pending interrupt
ARM GAS  /var/folders/vq/qt4vp3kd5rxf7v2b6_fdtdt80000gn/T//ccYRRUak.s 			page 2


  32:Drivers/STM32F4xx_HAL_Driver/Src/stm32f4xx_hal_exti.c ****         (++) Falling
  33:Drivers/STM32F4xx_HAL_Driver/Src/stm32f4xx_hal_exti.c **** 
  34:Drivers/STM32F4xx_HAL_Driver/Src/stm32f4xx_hal_exti.c ****     (+) Exti lines 0 to 15 are linked to gpio pin number 0 to 15. Gpio port can
  35:Drivers/STM32F4xx_HAL_Driver/Src/stm32f4xx_hal_exti.c ****         be selected through multiplexer.
  36:Drivers/STM32F4xx_HAL_Driver/Src/stm32f4xx_hal_exti.c **** 
  37:Drivers/STM32F4xx_HAL_Driver/Src/stm32f4xx_hal_exti.c ****                      ##### How to use this driver #####
  38:Drivers/STM32F4xx_HAL_Driver/Src/stm32f4xx_hal_exti.c ****   ==============================================================================
  39:Drivers/STM32F4xx_HAL_Driver/Src/stm32f4xx_hal_exti.c ****   [..]
  40:Drivers/STM32F4xx_HAL_Driver/Src/stm32f4xx_hal_exti.c **** 
  41:Drivers/STM32F4xx_HAL_Driver/Src/stm32f4xx_hal_exti.c ****     (#) Configure the EXTI line using HAL_EXTI_SetConfigLine().
  42:Drivers/STM32F4xx_HAL_Driver/Src/stm32f4xx_hal_exti.c ****         (++) Choose the interrupt line number by setting "Line" member from
  43:Drivers/STM32F4xx_HAL_Driver/Src/stm32f4xx_hal_exti.c ****              EXTI_ConfigTypeDef structure.
  44:Drivers/STM32F4xx_HAL_Driver/Src/stm32f4xx_hal_exti.c ****         (++) Configure the interrupt and/or event mode using "Mode" member from
  45:Drivers/STM32F4xx_HAL_Driver/Src/stm32f4xx_hal_exti.c ****              EXTI_ConfigTypeDef structure.
  46:Drivers/STM32F4xx_HAL_Driver/Src/stm32f4xx_hal_exti.c ****         (++) For configurable lines, configure rising and/or falling trigger
  47:Drivers/STM32F4xx_HAL_Driver/Src/stm32f4xx_hal_exti.c ****              "Trigger" member from EXTI_ConfigTypeDef structure.
  48:Drivers/STM32F4xx_HAL_Driver/Src/stm32f4xx_hal_exti.c ****         (++) For Exti lines linked to gpio, choose gpio port using "GPIOSel"
  49:Drivers/STM32F4xx_HAL_Driver/Src/stm32f4xx_hal_exti.c ****              member from GPIO_InitTypeDef structure.
  50:Drivers/STM32F4xx_HAL_Driver/Src/stm32f4xx_hal_exti.c **** 
  51:Drivers/STM32F4xx_HAL_Driver/Src/stm32f4xx_hal_exti.c ****     (#) Get current Exti configuration of a dedicated line using
  52:Drivers/STM32F4xx_HAL_Driver/Src/stm32f4xx_hal_exti.c ****         HAL_EXTI_GetConfigLine().
  53:Drivers/STM32F4xx_HAL_Driver/Src/stm32f4xx_hal_exti.c ****         (++) Provide exiting handle as parameter.
  54:Drivers/STM32F4xx_HAL_Driver/Src/stm32f4xx_hal_exti.c ****         (++) Provide pointer on EXTI_ConfigTypeDef structure as second parameter.
  55:Drivers/STM32F4xx_HAL_Driver/Src/stm32f4xx_hal_exti.c **** 
  56:Drivers/STM32F4xx_HAL_Driver/Src/stm32f4xx_hal_exti.c ****     (#) Clear Exti configuration of a dedicated line using HAL_EXTI_GetConfigLine().
  57:Drivers/STM32F4xx_HAL_Driver/Src/stm32f4xx_hal_exti.c ****         (++) Provide exiting handle as parameter.
  58:Drivers/STM32F4xx_HAL_Driver/Src/stm32f4xx_hal_exti.c **** 
  59:Drivers/STM32F4xx_HAL_Driver/Src/stm32f4xx_hal_exti.c ****     (#) Register callback to treat Exti interrupts using HAL_EXTI_RegisterCallback().
  60:Drivers/STM32F4xx_HAL_Driver/Src/stm32f4xx_hal_exti.c ****         (++) Provide exiting handle as first parameter.
  61:Drivers/STM32F4xx_HAL_Driver/Src/stm32f4xx_hal_exti.c ****         (++) Provide which callback will be registered using one value from
  62:Drivers/STM32F4xx_HAL_Driver/Src/stm32f4xx_hal_exti.c ****              EXTI_CallbackIDTypeDef.
  63:Drivers/STM32F4xx_HAL_Driver/Src/stm32f4xx_hal_exti.c ****         (++) Provide callback function pointer.
  64:Drivers/STM32F4xx_HAL_Driver/Src/stm32f4xx_hal_exti.c **** 
  65:Drivers/STM32F4xx_HAL_Driver/Src/stm32f4xx_hal_exti.c ****     (#) Get interrupt pending bit using HAL_EXTI_GetPending().
  66:Drivers/STM32F4xx_HAL_Driver/Src/stm32f4xx_hal_exti.c **** 
  67:Drivers/STM32F4xx_HAL_Driver/Src/stm32f4xx_hal_exti.c ****     (#) Clear interrupt pending bit using HAL_EXTI_GetPending().
  68:Drivers/STM32F4xx_HAL_Driver/Src/stm32f4xx_hal_exti.c **** 
  69:Drivers/STM32F4xx_HAL_Driver/Src/stm32f4xx_hal_exti.c ****     (#) Generate software interrupt using HAL_EXTI_GenerateSWI().
  70:Drivers/STM32F4xx_HAL_Driver/Src/stm32f4xx_hal_exti.c **** 
  71:Drivers/STM32F4xx_HAL_Driver/Src/stm32f4xx_hal_exti.c ****   @endverbatim
  72:Drivers/STM32F4xx_HAL_Driver/Src/stm32f4xx_hal_exti.c ****   ******************************************************************************
  73:Drivers/STM32F4xx_HAL_Driver/Src/stm32f4xx_hal_exti.c ****   * @attention
  74:Drivers/STM32F4xx_HAL_Driver/Src/stm32f4xx_hal_exti.c ****   *
  75:Drivers/STM32F4xx_HAL_Driver/Src/stm32f4xx_hal_exti.c ****   * <h2><center>&copy; Copyright (c) 2018 STMicroelectronics.
  76:Drivers/STM32F4xx_HAL_Driver/Src/stm32f4xx_hal_exti.c ****   * All rights reserved.</center></h2>
  77:Drivers/STM32F4xx_HAL_Driver/Src/stm32f4xx_hal_exti.c ****   *
  78:Drivers/STM32F4xx_HAL_Driver/Src/stm32f4xx_hal_exti.c ****   * This software component is licensed by ST under BSD 3-Clause license,
  79:Drivers/STM32F4xx_HAL_Driver/Src/stm32f4xx_hal_exti.c ****   * the "License"; You may not use this file except in compliance with the
  80:Drivers/STM32F4xx_HAL_Driver/Src/stm32f4xx_hal_exti.c ****   * License. You may obtain a copy of the License at:
  81:Drivers/STM32F4xx_HAL_Driver/Src/stm32f4xx_hal_exti.c ****   *                        opensource.org/licenses/BSD-3-Clause
  82:Drivers/STM32F4xx_HAL_Driver/Src/stm32f4xx_hal_exti.c ****   *
  83:Drivers/STM32F4xx_HAL_Driver/Src/stm32f4xx_hal_exti.c ****   ******************************************************************************
  84:Drivers/STM32F4xx_HAL_Driver/Src/stm32f4xx_hal_exti.c ****   */
  85:Drivers/STM32F4xx_HAL_Driver/Src/stm32f4xx_hal_exti.c **** 
  86:Drivers/STM32F4xx_HAL_Driver/Src/stm32f4xx_hal_exti.c **** /* Includes ------------------------------------------------------------------*/
  87:Drivers/STM32F4xx_HAL_Driver/Src/stm32f4xx_hal_exti.c **** #include "stm32f4xx_hal.h"
  88:Drivers/STM32F4xx_HAL_Driver/Src/stm32f4xx_hal_exti.c **** 
ARM GAS  /var/folders/vq/qt4vp3kd5rxf7v2b6_fdtdt80000gn/T//ccYRRUak.s 			page 3


  89:Drivers/STM32F4xx_HAL_Driver/Src/stm32f4xx_hal_exti.c **** /** @addtogroup STM32F4xx_HAL_Driver
  90:Drivers/STM32F4xx_HAL_Driver/Src/stm32f4xx_hal_exti.c ****   * @{
  91:Drivers/STM32F4xx_HAL_Driver/Src/stm32f4xx_hal_exti.c ****   */
  92:Drivers/STM32F4xx_HAL_Driver/Src/stm32f4xx_hal_exti.c **** 
  93:Drivers/STM32F4xx_HAL_Driver/Src/stm32f4xx_hal_exti.c **** /** @addtogroup EXTI
  94:Drivers/STM32F4xx_HAL_Driver/Src/stm32f4xx_hal_exti.c ****   * @{
  95:Drivers/STM32F4xx_HAL_Driver/Src/stm32f4xx_hal_exti.c ****   */
  96:Drivers/STM32F4xx_HAL_Driver/Src/stm32f4xx_hal_exti.c **** /** MISRA C:2012 deviation rule has been granted for following rule:
  97:Drivers/STM32F4xx_HAL_Driver/Src/stm32f4xx_hal_exti.c ****   * Rule-18.1_b - Medium: Array `EXTICR' 1st subscript interval [0,7] may be out
  98:Drivers/STM32F4xx_HAL_Driver/Src/stm32f4xx_hal_exti.c ****   * of bounds [0,3] in following API :
  99:Drivers/STM32F4xx_HAL_Driver/Src/stm32f4xx_hal_exti.c ****   * HAL_EXTI_SetConfigLine
 100:Drivers/STM32F4xx_HAL_Driver/Src/stm32f4xx_hal_exti.c ****   * HAL_EXTI_GetConfigLine
 101:Drivers/STM32F4xx_HAL_Driver/Src/stm32f4xx_hal_exti.c ****   * HAL_EXTI_ClearConfigLine
 102:Drivers/STM32F4xx_HAL_Driver/Src/stm32f4xx_hal_exti.c ****   */
 103:Drivers/STM32F4xx_HAL_Driver/Src/stm32f4xx_hal_exti.c **** 
 104:Drivers/STM32F4xx_HAL_Driver/Src/stm32f4xx_hal_exti.c **** #ifdef HAL_EXTI_MODULE_ENABLED
 105:Drivers/STM32F4xx_HAL_Driver/Src/stm32f4xx_hal_exti.c **** 
 106:Drivers/STM32F4xx_HAL_Driver/Src/stm32f4xx_hal_exti.c **** /* Private typedef -----------------------------------------------------------*/
 107:Drivers/STM32F4xx_HAL_Driver/Src/stm32f4xx_hal_exti.c **** /* Private defines -----------------------------------------------------------*/
 108:Drivers/STM32F4xx_HAL_Driver/Src/stm32f4xx_hal_exti.c **** /** @defgroup EXTI_Private_Constants EXTI Private Constants
 109:Drivers/STM32F4xx_HAL_Driver/Src/stm32f4xx_hal_exti.c ****   * @{
 110:Drivers/STM32F4xx_HAL_Driver/Src/stm32f4xx_hal_exti.c ****   */
 111:Drivers/STM32F4xx_HAL_Driver/Src/stm32f4xx_hal_exti.c **** 
 112:Drivers/STM32F4xx_HAL_Driver/Src/stm32f4xx_hal_exti.c **** /**
 113:Drivers/STM32F4xx_HAL_Driver/Src/stm32f4xx_hal_exti.c ****   * @}
 114:Drivers/STM32F4xx_HAL_Driver/Src/stm32f4xx_hal_exti.c ****   */
 115:Drivers/STM32F4xx_HAL_Driver/Src/stm32f4xx_hal_exti.c **** 
 116:Drivers/STM32F4xx_HAL_Driver/Src/stm32f4xx_hal_exti.c **** /* Private macros ------------------------------------------------------------*/
 117:Drivers/STM32F4xx_HAL_Driver/Src/stm32f4xx_hal_exti.c **** /* Private variables ---------------------------------------------------------*/
 118:Drivers/STM32F4xx_HAL_Driver/Src/stm32f4xx_hal_exti.c **** /* Private function prototypes -----------------------------------------------*/
 119:Drivers/STM32F4xx_HAL_Driver/Src/stm32f4xx_hal_exti.c **** /* Exported functions --------------------------------------------------------*/
 120:Drivers/STM32F4xx_HAL_Driver/Src/stm32f4xx_hal_exti.c **** 
 121:Drivers/STM32F4xx_HAL_Driver/Src/stm32f4xx_hal_exti.c **** /** @addtogroup EXTI_Exported_Functions
 122:Drivers/STM32F4xx_HAL_Driver/Src/stm32f4xx_hal_exti.c ****   * @{
 123:Drivers/STM32F4xx_HAL_Driver/Src/stm32f4xx_hal_exti.c ****   */
 124:Drivers/STM32F4xx_HAL_Driver/Src/stm32f4xx_hal_exti.c **** 
 125:Drivers/STM32F4xx_HAL_Driver/Src/stm32f4xx_hal_exti.c **** /** @addtogroup EXTI_Exported_Functions_Group1
 126:Drivers/STM32F4xx_HAL_Driver/Src/stm32f4xx_hal_exti.c ****   *  @brief    Configuration functions
 127:Drivers/STM32F4xx_HAL_Driver/Src/stm32f4xx_hal_exti.c ****   *
 128:Drivers/STM32F4xx_HAL_Driver/Src/stm32f4xx_hal_exti.c **** @verbatim
 129:Drivers/STM32F4xx_HAL_Driver/Src/stm32f4xx_hal_exti.c ****  ===============================================================================
 130:Drivers/STM32F4xx_HAL_Driver/Src/stm32f4xx_hal_exti.c ****               ##### Configuration functions #####
 131:Drivers/STM32F4xx_HAL_Driver/Src/stm32f4xx_hal_exti.c ****  ===============================================================================
 132:Drivers/STM32F4xx_HAL_Driver/Src/stm32f4xx_hal_exti.c **** 
 133:Drivers/STM32F4xx_HAL_Driver/Src/stm32f4xx_hal_exti.c **** @endverbatim
 134:Drivers/STM32F4xx_HAL_Driver/Src/stm32f4xx_hal_exti.c ****   * @{
 135:Drivers/STM32F4xx_HAL_Driver/Src/stm32f4xx_hal_exti.c ****   */
 136:Drivers/STM32F4xx_HAL_Driver/Src/stm32f4xx_hal_exti.c **** 
 137:Drivers/STM32F4xx_HAL_Driver/Src/stm32f4xx_hal_exti.c **** /**
 138:Drivers/STM32F4xx_HAL_Driver/Src/stm32f4xx_hal_exti.c ****   * @brief  Set configuration of a dedicated Exti line.
 139:Drivers/STM32F4xx_HAL_Driver/Src/stm32f4xx_hal_exti.c ****   * @param  hexti Exti handle.
 140:Drivers/STM32F4xx_HAL_Driver/Src/stm32f4xx_hal_exti.c ****   * @param  pExtiConfig Pointer on EXTI configuration to be set.
 141:Drivers/STM32F4xx_HAL_Driver/Src/stm32f4xx_hal_exti.c ****   * @retval HAL Status.
 142:Drivers/STM32F4xx_HAL_Driver/Src/stm32f4xx_hal_exti.c ****   */
 143:Drivers/STM32F4xx_HAL_Driver/Src/stm32f4xx_hal_exti.c **** HAL_StatusTypeDef HAL_EXTI_SetConfigLine(EXTI_HandleTypeDef *hexti, EXTI_ConfigTypeDef *pExtiConfig
 144:Drivers/STM32F4xx_HAL_Driver/Src/stm32f4xx_hal_exti.c **** {
  28              		.loc 1 144 1
ARM GAS  /var/folders/vq/qt4vp3kd5rxf7v2b6_fdtdt80000gn/T//ccYRRUak.s 			page 4


  29              		.cfi_startproc
  30              		@ args = 0, pretend = 0, frame = 24
  31              		@ frame_needed = 1, uses_anonymous_args = 0
  32              		@ link register save eliminated.
  33 0000 80B4     		push	{r7}
  34              	.LCFI0:
  35              		.cfi_def_cfa_offset 4
  36              		.cfi_offset 7, -4
  37 0002 87B0     		sub	sp, sp, #28
  38              	.LCFI1:
  39              		.cfi_def_cfa_offset 32
  40 0004 00AF     		add	r7, sp, #0
  41              	.LCFI2:
  42              		.cfi_def_cfa_register 7
  43 0006 7860     		str	r0, [r7, #4]
  44 0008 3960     		str	r1, [r7]
 145:Drivers/STM32F4xx_HAL_Driver/Src/stm32f4xx_hal_exti.c ****   uint32_t regval;
 146:Drivers/STM32F4xx_HAL_Driver/Src/stm32f4xx_hal_exti.c ****   uint32_t linepos;
 147:Drivers/STM32F4xx_HAL_Driver/Src/stm32f4xx_hal_exti.c ****   uint32_t maskline;
 148:Drivers/STM32F4xx_HAL_Driver/Src/stm32f4xx_hal_exti.c **** 
 149:Drivers/STM32F4xx_HAL_Driver/Src/stm32f4xx_hal_exti.c ****   /* Check null pointer */
 150:Drivers/STM32F4xx_HAL_Driver/Src/stm32f4xx_hal_exti.c ****   if ((hexti == NULL) || (pExtiConfig == NULL))
  45              		.loc 1 150 6
  46 000a 7B68     		ldr	r3, [r7, #4]
  47 000c 002B     		cmp	r3, #0
  48 000e 02D0     		beq	.L2
  49              		.loc 1 150 23 discriminator 1
  50 0010 3B68     		ldr	r3, [r7]
  51 0012 002B     		cmp	r3, #0
  52 0014 01D1     		bne	.L3
  53              	.L2:
 151:Drivers/STM32F4xx_HAL_Driver/Src/stm32f4xx_hal_exti.c ****   {
 152:Drivers/STM32F4xx_HAL_Driver/Src/stm32f4xx_hal_exti.c ****     return HAL_ERROR;
  54              		.loc 1 152 12
  55 0016 0123     		movs	r3, #1
  56 0018 8FE0     		b	.L4
  57              	.L3:
 153:Drivers/STM32F4xx_HAL_Driver/Src/stm32f4xx_hal_exti.c ****   }
 154:Drivers/STM32F4xx_HAL_Driver/Src/stm32f4xx_hal_exti.c **** 
 155:Drivers/STM32F4xx_HAL_Driver/Src/stm32f4xx_hal_exti.c ****   /* Check parameters */
 156:Drivers/STM32F4xx_HAL_Driver/Src/stm32f4xx_hal_exti.c ****   assert_param(IS_EXTI_LINE(pExtiConfig->Line));
 157:Drivers/STM32F4xx_HAL_Driver/Src/stm32f4xx_hal_exti.c ****   assert_param(IS_EXTI_MODE(pExtiConfig->Mode));
 158:Drivers/STM32F4xx_HAL_Driver/Src/stm32f4xx_hal_exti.c **** 
 159:Drivers/STM32F4xx_HAL_Driver/Src/stm32f4xx_hal_exti.c ****   /* Assign line number to handle */
 160:Drivers/STM32F4xx_HAL_Driver/Src/stm32f4xx_hal_exti.c ****   hexti->Line = pExtiConfig->Line;
  58              		.loc 1 160 28
  59 001a 3B68     		ldr	r3, [r7]
  60 001c 1A68     		ldr	r2, [r3]
  61              		.loc 1 160 15
  62 001e 7B68     		ldr	r3, [r7, #4]
  63 0020 1A60     		str	r2, [r3]
 161:Drivers/STM32F4xx_HAL_Driver/Src/stm32f4xx_hal_exti.c **** 
 162:Drivers/STM32F4xx_HAL_Driver/Src/stm32f4xx_hal_exti.c ****   /* Compute line mask */
 163:Drivers/STM32F4xx_HAL_Driver/Src/stm32f4xx_hal_exti.c ****   linepos = (pExtiConfig->Line & EXTI_PIN_MASK);
  64              		.loc 1 163 25
  65 0022 3B68     		ldr	r3, [r7]
  66 0024 1B68     		ldr	r3, [r3]
ARM GAS  /var/folders/vq/qt4vp3kd5rxf7v2b6_fdtdt80000gn/T//ccYRRUak.s 			page 5


  67              		.loc 1 163 11
  68 0026 03F01F03 		and	r3, r3, #31
  69 002a 7B61     		str	r3, [r7, #20]
 164:Drivers/STM32F4xx_HAL_Driver/Src/stm32f4xx_hal_exti.c ****   maskline = (1uL << linepos);
  70              		.loc 1 164 12
  71 002c 0122     		movs	r2, #1
  72 002e 7B69     		ldr	r3, [r7, #20]
  73 0030 02FA03F3 		lsl	r3, r2, r3
  74 0034 3B61     		str	r3, [r7, #16]
 165:Drivers/STM32F4xx_HAL_Driver/Src/stm32f4xx_hal_exti.c **** 
 166:Drivers/STM32F4xx_HAL_Driver/Src/stm32f4xx_hal_exti.c ****   /* Configure triggers for configurable lines */
 167:Drivers/STM32F4xx_HAL_Driver/Src/stm32f4xx_hal_exti.c ****   if ((pExtiConfig->Line & EXTI_CONFIG) != 0x00u)
  75              		.loc 1 167 19
  76 0036 3B68     		ldr	r3, [r7]
  77 0038 1B68     		ldr	r3, [r3]
  78              		.loc 1 167 26
  79 003a 03F00073 		and	r3, r3, #33554432
  80              		.loc 1 167 6
  81 003e 002B     		cmp	r3, #0
  82 0040 52D0     		beq	.L5
 168:Drivers/STM32F4xx_HAL_Driver/Src/stm32f4xx_hal_exti.c ****   {
 169:Drivers/STM32F4xx_HAL_Driver/Src/stm32f4xx_hal_exti.c ****     assert_param(IS_EXTI_TRIGGER(pExtiConfig->Trigger));
 170:Drivers/STM32F4xx_HAL_Driver/Src/stm32f4xx_hal_exti.c **** 
 171:Drivers/STM32F4xx_HAL_Driver/Src/stm32f4xx_hal_exti.c ****     /* Configure rising trigger */
 172:Drivers/STM32F4xx_HAL_Driver/Src/stm32f4xx_hal_exti.c ****     /* Mask or set line */
 173:Drivers/STM32F4xx_HAL_Driver/Src/stm32f4xx_hal_exti.c ****     if ((pExtiConfig->Trigger & EXTI_TRIGGER_RISING) != 0x00u)
  83              		.loc 1 173 21
  84 0042 3B68     		ldr	r3, [r7]
  85 0044 9B68     		ldr	r3, [r3, #8]
  86              		.loc 1 173 31
  87 0046 03F00103 		and	r3, r3, #1
  88              		.loc 1 173 8
  89 004a 002B     		cmp	r3, #0
  90 004c 06D0     		beq	.L6
 174:Drivers/STM32F4xx_HAL_Driver/Src/stm32f4xx_hal_exti.c ****     {
 175:Drivers/STM32F4xx_HAL_Driver/Src/stm32f4xx_hal_exti.c ****       EXTI->RTSR |= maskline;
  91              		.loc 1 175 18
  92 004e 3E4B     		ldr	r3, .L14
  93 0050 9A68     		ldr	r2, [r3, #8]
  94 0052 3D49     		ldr	r1, .L14
  95 0054 3B69     		ldr	r3, [r7, #16]
  96 0056 1343     		orrs	r3, r3, r2
  97 0058 8B60     		str	r3, [r1, #8]
  98 005a 06E0     		b	.L7
  99              	.L6:
 176:Drivers/STM32F4xx_HAL_Driver/Src/stm32f4xx_hal_exti.c ****     }
 177:Drivers/STM32F4xx_HAL_Driver/Src/stm32f4xx_hal_exti.c ****     else
 178:Drivers/STM32F4xx_HAL_Driver/Src/stm32f4xx_hal_exti.c ****     {
 179:Drivers/STM32F4xx_HAL_Driver/Src/stm32f4xx_hal_exti.c ****       EXTI->RTSR &= ~maskline;
 100              		.loc 1 179 18
 101 005c 3A4B     		ldr	r3, .L14
 102 005e 9A68     		ldr	r2, [r3, #8]
 103              		.loc 1 179 21
 104 0060 3B69     		ldr	r3, [r7, #16]
 105 0062 DB43     		mvns	r3, r3
 106              		.loc 1 179 18
 107 0064 3849     		ldr	r1, .L14
ARM GAS  /var/folders/vq/qt4vp3kd5rxf7v2b6_fdtdt80000gn/T//ccYRRUak.s 			page 6


 108 0066 1340     		ands	r3, r3, r2
 109 0068 8B60     		str	r3, [r1, #8]
 110              	.L7:
 180:Drivers/STM32F4xx_HAL_Driver/Src/stm32f4xx_hal_exti.c ****     }
 181:Drivers/STM32F4xx_HAL_Driver/Src/stm32f4xx_hal_exti.c **** 
 182:Drivers/STM32F4xx_HAL_Driver/Src/stm32f4xx_hal_exti.c ****     /* Configure falling trigger */
 183:Drivers/STM32F4xx_HAL_Driver/Src/stm32f4xx_hal_exti.c ****     /* Mask or set line */
 184:Drivers/STM32F4xx_HAL_Driver/Src/stm32f4xx_hal_exti.c ****     if ((pExtiConfig->Trigger & EXTI_TRIGGER_FALLING) != 0x00u)
 111              		.loc 1 184 21
 112 006a 3B68     		ldr	r3, [r7]
 113 006c 9B68     		ldr	r3, [r3, #8]
 114              		.loc 1 184 31
 115 006e 03F00203 		and	r3, r3, #2
 116              		.loc 1 184 8
 117 0072 002B     		cmp	r3, #0
 118 0074 06D0     		beq	.L8
 185:Drivers/STM32F4xx_HAL_Driver/Src/stm32f4xx_hal_exti.c ****     {
 186:Drivers/STM32F4xx_HAL_Driver/Src/stm32f4xx_hal_exti.c ****       EXTI->FTSR |= maskline;
 119              		.loc 1 186 18
 120 0076 344B     		ldr	r3, .L14
 121 0078 DA68     		ldr	r2, [r3, #12]
 122 007a 3349     		ldr	r1, .L14
 123 007c 3B69     		ldr	r3, [r7, #16]
 124 007e 1343     		orrs	r3, r3, r2
 125 0080 CB60     		str	r3, [r1, #12]
 126 0082 06E0     		b	.L9
 127              	.L8:
 187:Drivers/STM32F4xx_HAL_Driver/Src/stm32f4xx_hal_exti.c ****     }
 188:Drivers/STM32F4xx_HAL_Driver/Src/stm32f4xx_hal_exti.c ****     else
 189:Drivers/STM32F4xx_HAL_Driver/Src/stm32f4xx_hal_exti.c ****     {
 190:Drivers/STM32F4xx_HAL_Driver/Src/stm32f4xx_hal_exti.c ****       EXTI->FTSR &= ~maskline;
 128              		.loc 1 190 18
 129 0084 304B     		ldr	r3, .L14
 130 0086 DA68     		ldr	r2, [r3, #12]
 131              		.loc 1 190 21
 132 0088 3B69     		ldr	r3, [r7, #16]
 133 008a DB43     		mvns	r3, r3
 134              		.loc 1 190 18
 135 008c 2E49     		ldr	r1, .L14
 136 008e 1340     		ands	r3, r3, r2
 137 0090 CB60     		str	r3, [r1, #12]
 138              	.L9:
 191:Drivers/STM32F4xx_HAL_Driver/Src/stm32f4xx_hal_exti.c ****     }
 192:Drivers/STM32F4xx_HAL_Driver/Src/stm32f4xx_hal_exti.c **** 
 193:Drivers/STM32F4xx_HAL_Driver/Src/stm32f4xx_hal_exti.c **** 
 194:Drivers/STM32F4xx_HAL_Driver/Src/stm32f4xx_hal_exti.c ****     /* Configure gpio port selection in case of gpio exti line */
 195:Drivers/STM32F4xx_HAL_Driver/Src/stm32f4xx_hal_exti.c ****     if ((pExtiConfig->Line & EXTI_GPIO) == EXTI_GPIO)
 139              		.loc 1 195 21
 140 0092 3B68     		ldr	r3, [r7]
 141 0094 1B68     		ldr	r3, [r3]
 142              		.loc 1 195 28
 143 0096 03F0C063 		and	r3, r3, #100663296
 144              		.loc 1 195 8
 145 009a B3F1C06F 		cmp	r3, #100663296
 146 009e 23D1     		bne	.L5
 196:Drivers/STM32F4xx_HAL_Driver/Src/stm32f4xx_hal_exti.c ****     {
 197:Drivers/STM32F4xx_HAL_Driver/Src/stm32f4xx_hal_exti.c ****       assert_param(IS_EXTI_GPIO_PORT(pExtiConfig->GPIOSel));
ARM GAS  /var/folders/vq/qt4vp3kd5rxf7v2b6_fdtdt80000gn/T//ccYRRUak.s 			page 7


 198:Drivers/STM32F4xx_HAL_Driver/Src/stm32f4xx_hal_exti.c ****       assert_param(IS_EXTI_GPIO_PIN(linepos));
 199:Drivers/STM32F4xx_HAL_Driver/Src/stm32f4xx_hal_exti.c **** 
 200:Drivers/STM32F4xx_HAL_Driver/Src/stm32f4xx_hal_exti.c ****       regval = SYSCFG->EXTICR[linepos >> 2u];
 147              		.loc 1 200 22
 148 00a0 2A4A     		ldr	r2, .L14+4
 149              		.loc 1 200 39
 150 00a2 7B69     		ldr	r3, [r7, #20]
 151 00a4 9B08     		lsrs	r3, r3, #2
 152              		.loc 1 200 14
 153 00a6 0233     		adds	r3, r3, #2
 154 00a8 52F82330 		ldr	r3, [r2, r3, lsl #2]
 155 00ac FB60     		str	r3, [r7, #12]
 201:Drivers/STM32F4xx_HAL_Driver/Src/stm32f4xx_hal_exti.c ****       regval &= ~(SYSCFG_EXTICR1_EXTI0 << (SYSCFG_EXTICR1_EXTI1_Pos * (linepos & 0x03u)));
 156              		.loc 1 201 80
 157 00ae 7B69     		ldr	r3, [r7, #20]
 158 00b0 03F00303 		and	r3, r3, #3
 159              		.loc 1 201 69
 160 00b4 9B00     		lsls	r3, r3, #2
 161              		.loc 1 201 40
 162 00b6 0F22     		movs	r2, #15
 163 00b8 02FA03F3 		lsl	r3, r2, r3
 164              		.loc 1 201 17
 165 00bc DB43     		mvns	r3, r3
 166              		.loc 1 201 14
 167 00be FA68     		ldr	r2, [r7, #12]
 168 00c0 1340     		ands	r3, r3, r2
 169 00c2 FB60     		str	r3, [r7, #12]
 202:Drivers/STM32F4xx_HAL_Driver/Src/stm32f4xx_hal_exti.c ****       regval |= (pExtiConfig->GPIOSel << (SYSCFG_EXTICR1_EXTI1_Pos * (linepos & 0x03u)));
 170              		.loc 1 202 29
 171 00c4 3B68     		ldr	r3, [r7]
 172 00c6 DA68     		ldr	r2, [r3, #12]
 173              		.loc 1 202 79
 174 00c8 7B69     		ldr	r3, [r7, #20]
 175 00ca 03F00303 		and	r3, r3, #3
 176              		.loc 1 202 68
 177 00ce 9B00     		lsls	r3, r3, #2
 178              		.loc 1 202 39
 179 00d0 02FA03F3 		lsl	r3, r2, r3
 180              		.loc 1 202 14
 181 00d4 FA68     		ldr	r2, [r7, #12]
 182 00d6 1343     		orrs	r3, r3, r2
 183 00d8 FB60     		str	r3, [r7, #12]
 203:Drivers/STM32F4xx_HAL_Driver/Src/stm32f4xx_hal_exti.c ****       SYSCFG->EXTICR[linepos >> 2u] = regval;
 184              		.loc 1 203 13
 185 00da 1C49     		ldr	r1, .L14+4
 186              		.loc 1 203 30
 187 00dc 7B69     		ldr	r3, [r7, #20]
 188 00de 9B08     		lsrs	r3, r3, #2
 189              		.loc 1 203 37
 190 00e0 0233     		adds	r3, r3, #2
 191 00e2 FA68     		ldr	r2, [r7, #12]
 192 00e4 41F82320 		str	r2, [r1, r3, lsl #2]
 193              	.L5:
 204:Drivers/STM32F4xx_HAL_Driver/Src/stm32f4xx_hal_exti.c ****     }
 205:Drivers/STM32F4xx_HAL_Driver/Src/stm32f4xx_hal_exti.c ****   }
 206:Drivers/STM32F4xx_HAL_Driver/Src/stm32f4xx_hal_exti.c **** 
 207:Drivers/STM32F4xx_HAL_Driver/Src/stm32f4xx_hal_exti.c ****   /* Configure interrupt mode : read current mode */
ARM GAS  /var/folders/vq/qt4vp3kd5rxf7v2b6_fdtdt80000gn/T//ccYRRUak.s 			page 8


 208:Drivers/STM32F4xx_HAL_Driver/Src/stm32f4xx_hal_exti.c ****   /* Mask or set line */
 209:Drivers/STM32F4xx_HAL_Driver/Src/stm32f4xx_hal_exti.c ****   if ((pExtiConfig->Mode & EXTI_MODE_INTERRUPT) != 0x00u)
 194              		.loc 1 209 19
 195 00e8 3B68     		ldr	r3, [r7]
 196 00ea 5B68     		ldr	r3, [r3, #4]
 197              		.loc 1 209 26
 198 00ec 03F00103 		and	r3, r3, #1
 199              		.loc 1 209 6
 200 00f0 002B     		cmp	r3, #0
 201 00f2 06D0     		beq	.L10
 210:Drivers/STM32F4xx_HAL_Driver/Src/stm32f4xx_hal_exti.c ****   {
 211:Drivers/STM32F4xx_HAL_Driver/Src/stm32f4xx_hal_exti.c ****     EXTI->IMR |= maskline;
 202              		.loc 1 211 15
 203 00f4 144B     		ldr	r3, .L14
 204 00f6 1A68     		ldr	r2, [r3]
 205 00f8 1349     		ldr	r1, .L14
 206 00fa 3B69     		ldr	r3, [r7, #16]
 207 00fc 1343     		orrs	r3, r3, r2
 208 00fe 0B60     		str	r3, [r1]
 209 0100 06E0     		b	.L11
 210              	.L10:
 212:Drivers/STM32F4xx_HAL_Driver/Src/stm32f4xx_hal_exti.c ****   }
 213:Drivers/STM32F4xx_HAL_Driver/Src/stm32f4xx_hal_exti.c ****   else
 214:Drivers/STM32F4xx_HAL_Driver/Src/stm32f4xx_hal_exti.c ****   {
 215:Drivers/STM32F4xx_HAL_Driver/Src/stm32f4xx_hal_exti.c ****     EXTI->IMR &= ~maskline;
 211              		.loc 1 215 15
 212 0102 114B     		ldr	r3, .L14
 213 0104 1A68     		ldr	r2, [r3]
 214              		.loc 1 215 18
 215 0106 3B69     		ldr	r3, [r7, #16]
 216 0108 DB43     		mvns	r3, r3
 217              		.loc 1 215 15
 218 010a 0F49     		ldr	r1, .L14
 219 010c 1340     		ands	r3, r3, r2
 220 010e 0B60     		str	r3, [r1]
 221              	.L11:
 216:Drivers/STM32F4xx_HAL_Driver/Src/stm32f4xx_hal_exti.c ****   }
 217:Drivers/STM32F4xx_HAL_Driver/Src/stm32f4xx_hal_exti.c **** 
 218:Drivers/STM32F4xx_HAL_Driver/Src/stm32f4xx_hal_exti.c ****   /* Configure event mode : read current mode */
 219:Drivers/STM32F4xx_HAL_Driver/Src/stm32f4xx_hal_exti.c ****   /* Mask or set line */
 220:Drivers/STM32F4xx_HAL_Driver/Src/stm32f4xx_hal_exti.c ****   if ((pExtiConfig->Mode & EXTI_MODE_EVENT) != 0x00u)
 222              		.loc 1 220 19
 223 0110 3B68     		ldr	r3, [r7]
 224 0112 5B68     		ldr	r3, [r3, #4]
 225              		.loc 1 220 26
 226 0114 03F00203 		and	r3, r3, #2
 227              		.loc 1 220 6
 228 0118 002B     		cmp	r3, #0
 229 011a 06D0     		beq	.L12
 221:Drivers/STM32F4xx_HAL_Driver/Src/stm32f4xx_hal_exti.c ****   {
 222:Drivers/STM32F4xx_HAL_Driver/Src/stm32f4xx_hal_exti.c ****     EXTI->EMR |= maskline;
 230              		.loc 1 222 15
 231 011c 0A4B     		ldr	r3, .L14
 232 011e 5A68     		ldr	r2, [r3, #4]
 233 0120 0949     		ldr	r1, .L14
 234 0122 3B69     		ldr	r3, [r7, #16]
 235 0124 1343     		orrs	r3, r3, r2
ARM GAS  /var/folders/vq/qt4vp3kd5rxf7v2b6_fdtdt80000gn/T//ccYRRUak.s 			page 9


 236 0126 4B60     		str	r3, [r1, #4]
 237 0128 06E0     		b	.L13
 238              	.L12:
 223:Drivers/STM32F4xx_HAL_Driver/Src/stm32f4xx_hal_exti.c ****   }
 224:Drivers/STM32F4xx_HAL_Driver/Src/stm32f4xx_hal_exti.c ****   else
 225:Drivers/STM32F4xx_HAL_Driver/Src/stm32f4xx_hal_exti.c ****   {
 226:Drivers/STM32F4xx_HAL_Driver/Src/stm32f4xx_hal_exti.c ****     EXTI->EMR &= ~maskline;
 239              		.loc 1 226 15
 240 012a 074B     		ldr	r3, .L14
 241 012c 5A68     		ldr	r2, [r3, #4]
 242              		.loc 1 226 18
 243 012e 3B69     		ldr	r3, [r7, #16]
 244 0130 DB43     		mvns	r3, r3
 245              		.loc 1 226 15
 246 0132 0549     		ldr	r1, .L14
 247 0134 1340     		ands	r3, r3, r2
 248 0136 4B60     		str	r3, [r1, #4]
 249              	.L13:
 227:Drivers/STM32F4xx_HAL_Driver/Src/stm32f4xx_hal_exti.c ****   }
 228:Drivers/STM32F4xx_HAL_Driver/Src/stm32f4xx_hal_exti.c **** 
 229:Drivers/STM32F4xx_HAL_Driver/Src/stm32f4xx_hal_exti.c ****   return HAL_OK;
 250              		.loc 1 229 10
 251 0138 0023     		movs	r3, #0
 252              	.L4:
 230:Drivers/STM32F4xx_HAL_Driver/Src/stm32f4xx_hal_exti.c **** }
 253              		.loc 1 230 1
 254 013a 1846     		mov	r0, r3
 255 013c 1C37     		adds	r7, r7, #28
 256              	.LCFI3:
 257              		.cfi_def_cfa_offset 4
 258 013e BD46     		mov	sp, r7
 259              	.LCFI4:
 260              		.cfi_def_cfa_register 13
 261              		@ sp needed
 262 0140 5DF8047B 		ldr	r7, [sp], #4
 263              	.LCFI5:
 264              		.cfi_restore 7
 265              		.cfi_def_cfa_offset 0
 266 0144 7047     		bx	lr
 267              	.L15:
 268 0146 00BF     		.align	2
 269              	.L14:
 270 0148 003C0140 		.word	1073822720
 271 014c 00380140 		.word	1073821696
 272              		.cfi_endproc
 273              	.LFE130:
 275              		.section	.text.HAL_EXTI_GetConfigLine,"ax",%progbits
 276              		.align	1
 277              		.global	HAL_EXTI_GetConfigLine
 278              		.syntax unified
 279              		.thumb
 280              		.thumb_func
 281              		.fpu fpv4-sp-d16
 283              	HAL_EXTI_GetConfigLine:
 284              	.LFB131:
 231:Drivers/STM32F4xx_HAL_Driver/Src/stm32f4xx_hal_exti.c **** 
 232:Drivers/STM32F4xx_HAL_Driver/Src/stm32f4xx_hal_exti.c **** /**
ARM GAS  /var/folders/vq/qt4vp3kd5rxf7v2b6_fdtdt80000gn/T//ccYRRUak.s 			page 10


 233:Drivers/STM32F4xx_HAL_Driver/Src/stm32f4xx_hal_exti.c ****   * @brief  Get configuration of a dedicated Exti line.
 234:Drivers/STM32F4xx_HAL_Driver/Src/stm32f4xx_hal_exti.c ****   * @param  hexti Exti handle.
 235:Drivers/STM32F4xx_HAL_Driver/Src/stm32f4xx_hal_exti.c ****   * @param  pExtiConfig Pointer on structure to store Exti configuration.
 236:Drivers/STM32F4xx_HAL_Driver/Src/stm32f4xx_hal_exti.c ****   * @retval HAL Status.
 237:Drivers/STM32F4xx_HAL_Driver/Src/stm32f4xx_hal_exti.c ****   */
 238:Drivers/STM32F4xx_HAL_Driver/Src/stm32f4xx_hal_exti.c **** HAL_StatusTypeDef HAL_EXTI_GetConfigLine(EXTI_HandleTypeDef *hexti, EXTI_ConfigTypeDef *pExtiConfig
 239:Drivers/STM32F4xx_HAL_Driver/Src/stm32f4xx_hal_exti.c **** {
 285              		.loc 1 239 1
 286              		.cfi_startproc
 287              		@ args = 0, pretend = 0, frame = 24
 288              		@ frame_needed = 1, uses_anonymous_args = 0
 289              		@ link register save eliminated.
 290 0000 80B4     		push	{r7}
 291              	.LCFI6:
 292              		.cfi_def_cfa_offset 4
 293              		.cfi_offset 7, -4
 294 0002 87B0     		sub	sp, sp, #28
 295              	.LCFI7:
 296              		.cfi_def_cfa_offset 32
 297 0004 00AF     		add	r7, sp, #0
 298              	.LCFI8:
 299              		.cfi_def_cfa_register 7
 300 0006 7860     		str	r0, [r7, #4]
 301 0008 3960     		str	r1, [r7]
 240:Drivers/STM32F4xx_HAL_Driver/Src/stm32f4xx_hal_exti.c ****   uint32_t regval;
 241:Drivers/STM32F4xx_HAL_Driver/Src/stm32f4xx_hal_exti.c ****   uint32_t linepos;
 242:Drivers/STM32F4xx_HAL_Driver/Src/stm32f4xx_hal_exti.c ****   uint32_t maskline;
 243:Drivers/STM32F4xx_HAL_Driver/Src/stm32f4xx_hal_exti.c **** 
 244:Drivers/STM32F4xx_HAL_Driver/Src/stm32f4xx_hal_exti.c ****   /* Check null pointer */
 245:Drivers/STM32F4xx_HAL_Driver/Src/stm32f4xx_hal_exti.c ****   if ((hexti == NULL) || (pExtiConfig == NULL))
 302              		.loc 1 245 6
 303 000a 7B68     		ldr	r3, [r7, #4]
 304 000c 002B     		cmp	r3, #0
 305 000e 02D0     		beq	.L17
 306              		.loc 1 245 23 discriminator 1
 307 0010 3B68     		ldr	r3, [r7]
 308 0012 002B     		cmp	r3, #0
 309 0014 01D1     		bne	.L18
 310              	.L17:
 246:Drivers/STM32F4xx_HAL_Driver/Src/stm32f4xx_hal_exti.c ****   {
 247:Drivers/STM32F4xx_HAL_Driver/Src/stm32f4xx_hal_exti.c ****     return HAL_ERROR;
 311              		.loc 1 247 12
 312 0016 0123     		movs	r3, #1
 313 0018 6AE0     		b	.L19
 314              	.L18:
 248:Drivers/STM32F4xx_HAL_Driver/Src/stm32f4xx_hal_exti.c ****   }
 249:Drivers/STM32F4xx_HAL_Driver/Src/stm32f4xx_hal_exti.c **** 
 250:Drivers/STM32F4xx_HAL_Driver/Src/stm32f4xx_hal_exti.c ****   /* Check the parameter */
 251:Drivers/STM32F4xx_HAL_Driver/Src/stm32f4xx_hal_exti.c ****   assert_param(IS_EXTI_LINE(hexti->Line));
 252:Drivers/STM32F4xx_HAL_Driver/Src/stm32f4xx_hal_exti.c **** 
 253:Drivers/STM32F4xx_HAL_Driver/Src/stm32f4xx_hal_exti.c ****   /* Store handle line number to configuration structure */
 254:Drivers/STM32F4xx_HAL_Driver/Src/stm32f4xx_hal_exti.c ****   pExtiConfig->Line = hexti->Line;
 315              		.loc 1 254 28
 316 001a 7B68     		ldr	r3, [r7, #4]
 317 001c 1A68     		ldr	r2, [r3]
 318              		.loc 1 254 21
 319 001e 3B68     		ldr	r3, [r7]
ARM GAS  /var/folders/vq/qt4vp3kd5rxf7v2b6_fdtdt80000gn/T//ccYRRUak.s 			page 11


 320 0020 1A60     		str	r2, [r3]
 255:Drivers/STM32F4xx_HAL_Driver/Src/stm32f4xx_hal_exti.c **** 
 256:Drivers/STM32F4xx_HAL_Driver/Src/stm32f4xx_hal_exti.c ****   /* Compute line mask */
 257:Drivers/STM32F4xx_HAL_Driver/Src/stm32f4xx_hal_exti.c ****   linepos = (pExtiConfig->Line & EXTI_PIN_MASK);
 321              		.loc 1 257 25
 322 0022 3B68     		ldr	r3, [r7]
 323 0024 1B68     		ldr	r3, [r3]
 324              		.loc 1 257 11
 325 0026 03F01F03 		and	r3, r3, #31
 326 002a 7B61     		str	r3, [r7, #20]
 258:Drivers/STM32F4xx_HAL_Driver/Src/stm32f4xx_hal_exti.c ****   maskline = (1uL << linepos);
 327              		.loc 1 258 12
 328 002c 0122     		movs	r2, #1
 329 002e 7B69     		ldr	r3, [r7, #20]
 330 0030 02FA03F3 		lsl	r3, r2, r3
 331 0034 3B61     		str	r3, [r7, #16]
 259:Drivers/STM32F4xx_HAL_Driver/Src/stm32f4xx_hal_exti.c **** 
 260:Drivers/STM32F4xx_HAL_Driver/Src/stm32f4xx_hal_exti.c ****   /* 1] Get core mode : interrupt */
 261:Drivers/STM32F4xx_HAL_Driver/Src/stm32f4xx_hal_exti.c **** 
 262:Drivers/STM32F4xx_HAL_Driver/Src/stm32f4xx_hal_exti.c ****   /* Check if selected line is enable */
 263:Drivers/STM32F4xx_HAL_Driver/Src/stm32f4xx_hal_exti.c ****   if ((EXTI->IMR & maskline) != 0x00u)
 332              		.loc 1 263 12
 333 0036 314B     		ldr	r3, .L29
 334 0038 1A68     		ldr	r2, [r3]
 335              		.loc 1 263 18
 336 003a 3B69     		ldr	r3, [r7, #16]
 337 003c 1340     		ands	r3, r3, r2
 338              		.loc 1 263 6
 339 003e 002B     		cmp	r3, #0
 340 0040 03D0     		beq	.L20
 264:Drivers/STM32F4xx_HAL_Driver/Src/stm32f4xx_hal_exti.c ****   {
 265:Drivers/STM32F4xx_HAL_Driver/Src/stm32f4xx_hal_exti.c ****     pExtiConfig->Mode = EXTI_MODE_INTERRUPT;
 341              		.loc 1 265 23
 342 0042 3B68     		ldr	r3, [r7]
 343 0044 0122     		movs	r2, #1
 344 0046 5A60     		str	r2, [r3, #4]
 345 0048 02E0     		b	.L21
 346              	.L20:
 266:Drivers/STM32F4xx_HAL_Driver/Src/stm32f4xx_hal_exti.c ****   }
 267:Drivers/STM32F4xx_HAL_Driver/Src/stm32f4xx_hal_exti.c ****   else
 268:Drivers/STM32F4xx_HAL_Driver/Src/stm32f4xx_hal_exti.c ****   {
 269:Drivers/STM32F4xx_HAL_Driver/Src/stm32f4xx_hal_exti.c ****     pExtiConfig->Mode = EXTI_MODE_NONE;
 347              		.loc 1 269 23
 348 004a 3B68     		ldr	r3, [r7]
 349 004c 0022     		movs	r2, #0
 350 004e 5A60     		str	r2, [r3, #4]
 351              	.L21:
 270:Drivers/STM32F4xx_HAL_Driver/Src/stm32f4xx_hal_exti.c ****   }
 271:Drivers/STM32F4xx_HAL_Driver/Src/stm32f4xx_hal_exti.c **** 
 272:Drivers/STM32F4xx_HAL_Driver/Src/stm32f4xx_hal_exti.c ****   /* Get event mode */
 273:Drivers/STM32F4xx_HAL_Driver/Src/stm32f4xx_hal_exti.c ****   /* Check if selected line is enable */
 274:Drivers/STM32F4xx_HAL_Driver/Src/stm32f4xx_hal_exti.c ****   if ((EXTI->EMR & maskline) != 0x00u)
 352              		.loc 1 274 12
 353 0050 2A4B     		ldr	r3, .L29
 354 0052 5A68     		ldr	r2, [r3, #4]
 355              		.loc 1 274 18
 356 0054 3B69     		ldr	r3, [r7, #16]
ARM GAS  /var/folders/vq/qt4vp3kd5rxf7v2b6_fdtdt80000gn/T//ccYRRUak.s 			page 12


 357 0056 1340     		ands	r3, r3, r2
 358              		.loc 1 274 6
 359 0058 002B     		cmp	r3, #0
 360 005a 05D0     		beq	.L22
 275:Drivers/STM32F4xx_HAL_Driver/Src/stm32f4xx_hal_exti.c ****   {
 276:Drivers/STM32F4xx_HAL_Driver/Src/stm32f4xx_hal_exti.c ****     pExtiConfig->Mode |= EXTI_MODE_EVENT;
 361              		.loc 1 276 23
 362 005c 3B68     		ldr	r3, [r7]
 363 005e 5B68     		ldr	r3, [r3, #4]
 364 0060 43F00202 		orr	r2, r3, #2
 365 0064 3B68     		ldr	r3, [r7]
 366 0066 5A60     		str	r2, [r3, #4]
 367              	.L22:
 277:Drivers/STM32F4xx_HAL_Driver/Src/stm32f4xx_hal_exti.c ****   }
 278:Drivers/STM32F4xx_HAL_Driver/Src/stm32f4xx_hal_exti.c **** 
 279:Drivers/STM32F4xx_HAL_Driver/Src/stm32f4xx_hal_exti.c ****   /* 2] Get trigger for configurable lines : rising */
 280:Drivers/STM32F4xx_HAL_Driver/Src/stm32f4xx_hal_exti.c ****   if ((pExtiConfig->Line & EXTI_CONFIG) != 0x00u)
 368              		.loc 1 280 19
 369 0068 3B68     		ldr	r3, [r7]
 370 006a 1B68     		ldr	r3, [r3]
 371              		.loc 1 280 26
 372 006c 03F00073 		and	r3, r3, #33554432
 373              		.loc 1 280 6
 374 0070 002B     		cmp	r3, #0
 375 0072 36D0     		beq	.L23
 281:Drivers/STM32F4xx_HAL_Driver/Src/stm32f4xx_hal_exti.c ****   {
 282:Drivers/STM32F4xx_HAL_Driver/Src/stm32f4xx_hal_exti.c ****     /* Check if configuration of selected line is enable */
 283:Drivers/STM32F4xx_HAL_Driver/Src/stm32f4xx_hal_exti.c ****     if ((EXTI->RTSR & maskline) != 0x00u)
 376              		.loc 1 283 14
 377 0074 214B     		ldr	r3, .L29
 378 0076 9A68     		ldr	r2, [r3, #8]
 379              		.loc 1 283 21
 380 0078 3B69     		ldr	r3, [r7, #16]
 381 007a 1340     		ands	r3, r3, r2
 382              		.loc 1 283 8
 383 007c 002B     		cmp	r3, #0
 384 007e 03D0     		beq	.L24
 284:Drivers/STM32F4xx_HAL_Driver/Src/stm32f4xx_hal_exti.c ****     {
 285:Drivers/STM32F4xx_HAL_Driver/Src/stm32f4xx_hal_exti.c ****       pExtiConfig->Trigger = EXTI_TRIGGER_RISING;
 385              		.loc 1 285 28
 386 0080 3B68     		ldr	r3, [r7]
 387 0082 0122     		movs	r2, #1
 388 0084 9A60     		str	r2, [r3, #8]
 389 0086 02E0     		b	.L25
 390              	.L24:
 286:Drivers/STM32F4xx_HAL_Driver/Src/stm32f4xx_hal_exti.c ****     }
 287:Drivers/STM32F4xx_HAL_Driver/Src/stm32f4xx_hal_exti.c ****     else
 288:Drivers/STM32F4xx_HAL_Driver/Src/stm32f4xx_hal_exti.c ****     {
 289:Drivers/STM32F4xx_HAL_Driver/Src/stm32f4xx_hal_exti.c ****       pExtiConfig->Trigger = EXTI_TRIGGER_NONE;
 391              		.loc 1 289 28
 392 0088 3B68     		ldr	r3, [r7]
 393 008a 0022     		movs	r2, #0
 394 008c 9A60     		str	r2, [r3, #8]
 395              	.L25:
 290:Drivers/STM32F4xx_HAL_Driver/Src/stm32f4xx_hal_exti.c ****     }
 291:Drivers/STM32F4xx_HAL_Driver/Src/stm32f4xx_hal_exti.c **** 
 292:Drivers/STM32F4xx_HAL_Driver/Src/stm32f4xx_hal_exti.c ****     /* Get falling configuration */
ARM GAS  /var/folders/vq/qt4vp3kd5rxf7v2b6_fdtdt80000gn/T//ccYRRUak.s 			page 13


 293:Drivers/STM32F4xx_HAL_Driver/Src/stm32f4xx_hal_exti.c ****     /* Check if configuration of selected line is enable */
 294:Drivers/STM32F4xx_HAL_Driver/Src/stm32f4xx_hal_exti.c ****     if ((EXTI->FTSR & maskline) != 0x00u)
 396              		.loc 1 294 14
 397 008e 1B4B     		ldr	r3, .L29
 398 0090 DA68     		ldr	r2, [r3, #12]
 399              		.loc 1 294 21
 400 0092 3B69     		ldr	r3, [r7, #16]
 401 0094 1340     		ands	r3, r3, r2
 402              		.loc 1 294 8
 403 0096 002B     		cmp	r3, #0
 404 0098 05D0     		beq	.L26
 295:Drivers/STM32F4xx_HAL_Driver/Src/stm32f4xx_hal_exti.c ****     {
 296:Drivers/STM32F4xx_HAL_Driver/Src/stm32f4xx_hal_exti.c ****       pExtiConfig->Trigger |= EXTI_TRIGGER_FALLING;
 405              		.loc 1 296 28
 406 009a 3B68     		ldr	r3, [r7]
 407 009c 9B68     		ldr	r3, [r3, #8]
 408 009e 43F00202 		orr	r2, r3, #2
 409 00a2 3B68     		ldr	r3, [r7]
 410 00a4 9A60     		str	r2, [r3, #8]
 411              	.L26:
 297:Drivers/STM32F4xx_HAL_Driver/Src/stm32f4xx_hal_exti.c ****     }
 298:Drivers/STM32F4xx_HAL_Driver/Src/stm32f4xx_hal_exti.c **** 
 299:Drivers/STM32F4xx_HAL_Driver/Src/stm32f4xx_hal_exti.c ****     /* Get Gpio port selection for gpio lines */
 300:Drivers/STM32F4xx_HAL_Driver/Src/stm32f4xx_hal_exti.c ****     if ((pExtiConfig->Line & EXTI_GPIO) == EXTI_GPIO)
 412              		.loc 1 300 21
 413 00a6 3B68     		ldr	r3, [r7]
 414 00a8 1B68     		ldr	r3, [r3]
 415              		.loc 1 300 28
 416 00aa 03F0C063 		and	r3, r3, #100663296
 417              		.loc 1 300 8
 418 00ae B3F1C06F 		cmp	r3, #100663296
 419 00b2 12D1     		bne	.L27
 301:Drivers/STM32F4xx_HAL_Driver/Src/stm32f4xx_hal_exti.c ****     {
 302:Drivers/STM32F4xx_HAL_Driver/Src/stm32f4xx_hal_exti.c ****       assert_param(IS_EXTI_GPIO_PIN(linepos));
 303:Drivers/STM32F4xx_HAL_Driver/Src/stm32f4xx_hal_exti.c **** 
 304:Drivers/STM32F4xx_HAL_Driver/Src/stm32f4xx_hal_exti.c ****       regval = SYSCFG->EXTICR[linepos >> 2u];
 420              		.loc 1 304 22
 421 00b4 124A     		ldr	r2, .L29+4
 422              		.loc 1 304 39
 423 00b6 7B69     		ldr	r3, [r7, #20]
 424 00b8 9B08     		lsrs	r3, r3, #2
 425              		.loc 1 304 14
 426 00ba 0233     		adds	r3, r3, #2
 427 00bc 52F82330 		ldr	r3, [r2, r3, lsl #2]
 428 00c0 FB60     		str	r3, [r7, #12]
 305:Drivers/STM32F4xx_HAL_Driver/Src/stm32f4xx_hal_exti.c ****       pExtiConfig->GPIOSel = ((regval << (SYSCFG_EXTICR1_EXTI1_Pos * (3uL - (linepos & 0x03u)))) >>
 429              		.loc 1 305 75
 430 00c2 7B69     		ldr	r3, [r7, #20]
 431 00c4 DB43     		mvns	r3, r3
 432 00c6 03F00303 		and	r3, r3, #3
 433              		.loc 1 305 68
 434 00ca 9B00     		lsls	r3, r3, #2
 435              		.loc 1 305 39
 436 00cc FA68     		ldr	r2, [r7, #12]
 437 00ce 02FA03F3 		lsl	r3, r2, r3
 438              		.loc 1 305 98
 439 00d2 1A0E     		lsrs	r2, r3, #24
ARM GAS  /var/folders/vq/qt4vp3kd5rxf7v2b6_fdtdt80000gn/T//ccYRRUak.s 			page 14


 440              		.loc 1 305 28
 441 00d4 3B68     		ldr	r3, [r7]
 442 00d6 DA60     		str	r2, [r3, #12]
 443 00d8 09E0     		b	.L28
 444              	.L27:
 306:Drivers/STM32F4xx_HAL_Driver/Src/stm32f4xx_hal_exti.c ****     }
 307:Drivers/STM32F4xx_HAL_Driver/Src/stm32f4xx_hal_exti.c ****     else
 308:Drivers/STM32F4xx_HAL_Driver/Src/stm32f4xx_hal_exti.c ****     {
 309:Drivers/STM32F4xx_HAL_Driver/Src/stm32f4xx_hal_exti.c ****       pExtiConfig->GPIOSel = 0x00u;
 445              		.loc 1 309 28
 446 00da 3B68     		ldr	r3, [r7]
 447 00dc 0022     		movs	r2, #0
 448 00de DA60     		str	r2, [r3, #12]
 449 00e0 05E0     		b	.L28
 450              	.L23:
 310:Drivers/STM32F4xx_HAL_Driver/Src/stm32f4xx_hal_exti.c ****     }
 311:Drivers/STM32F4xx_HAL_Driver/Src/stm32f4xx_hal_exti.c ****   }
 312:Drivers/STM32F4xx_HAL_Driver/Src/stm32f4xx_hal_exti.c ****   else
 313:Drivers/STM32F4xx_HAL_Driver/Src/stm32f4xx_hal_exti.c ****   {
 314:Drivers/STM32F4xx_HAL_Driver/Src/stm32f4xx_hal_exti.c ****     /* No Trigger selected */
 315:Drivers/STM32F4xx_HAL_Driver/Src/stm32f4xx_hal_exti.c ****     pExtiConfig->Trigger = EXTI_TRIGGER_NONE;
 451              		.loc 1 315 26
 452 00e2 3B68     		ldr	r3, [r7]
 453 00e4 0022     		movs	r2, #0
 454 00e6 9A60     		str	r2, [r3, #8]
 316:Drivers/STM32F4xx_HAL_Driver/Src/stm32f4xx_hal_exti.c ****     pExtiConfig->GPIOSel = 0x00u;
 455              		.loc 1 316 26
 456 00e8 3B68     		ldr	r3, [r7]
 457 00ea 0022     		movs	r2, #0
 458 00ec DA60     		str	r2, [r3, #12]
 459              	.L28:
 317:Drivers/STM32F4xx_HAL_Driver/Src/stm32f4xx_hal_exti.c ****   }
 318:Drivers/STM32F4xx_HAL_Driver/Src/stm32f4xx_hal_exti.c **** 
 319:Drivers/STM32F4xx_HAL_Driver/Src/stm32f4xx_hal_exti.c ****   return HAL_OK;
 460              		.loc 1 319 10
 461 00ee 0023     		movs	r3, #0
 462              	.L19:
 320:Drivers/STM32F4xx_HAL_Driver/Src/stm32f4xx_hal_exti.c **** }
 463              		.loc 1 320 1
 464 00f0 1846     		mov	r0, r3
 465 00f2 1C37     		adds	r7, r7, #28
 466              	.LCFI9:
 467              		.cfi_def_cfa_offset 4
 468 00f4 BD46     		mov	sp, r7
 469              	.LCFI10:
 470              		.cfi_def_cfa_register 13
 471              		@ sp needed
 472 00f6 5DF8047B 		ldr	r7, [sp], #4
 473              	.LCFI11:
 474              		.cfi_restore 7
 475              		.cfi_def_cfa_offset 0
 476 00fa 7047     		bx	lr
 477              	.L30:
 478              		.align	2
 479              	.L29:
 480 00fc 003C0140 		.word	1073822720
 481 0100 00380140 		.word	1073821696
ARM GAS  /var/folders/vq/qt4vp3kd5rxf7v2b6_fdtdt80000gn/T//ccYRRUak.s 			page 15


 482              		.cfi_endproc
 483              	.LFE131:
 485              		.section	.text.HAL_EXTI_ClearConfigLine,"ax",%progbits
 486              		.align	1
 487              		.global	HAL_EXTI_ClearConfigLine
 488              		.syntax unified
 489              		.thumb
 490              		.thumb_func
 491              		.fpu fpv4-sp-d16
 493              	HAL_EXTI_ClearConfigLine:
 494              	.LFB132:
 321:Drivers/STM32F4xx_HAL_Driver/Src/stm32f4xx_hal_exti.c **** 
 322:Drivers/STM32F4xx_HAL_Driver/Src/stm32f4xx_hal_exti.c **** /**
 323:Drivers/STM32F4xx_HAL_Driver/Src/stm32f4xx_hal_exti.c ****   * @brief  Clear whole configuration of a dedicated Exti line.
 324:Drivers/STM32F4xx_HAL_Driver/Src/stm32f4xx_hal_exti.c ****   * @param  hexti Exti handle.
 325:Drivers/STM32F4xx_HAL_Driver/Src/stm32f4xx_hal_exti.c ****   * @retval HAL Status.
 326:Drivers/STM32F4xx_HAL_Driver/Src/stm32f4xx_hal_exti.c ****   */
 327:Drivers/STM32F4xx_HAL_Driver/Src/stm32f4xx_hal_exti.c **** HAL_StatusTypeDef HAL_EXTI_ClearConfigLine(EXTI_HandleTypeDef *hexti)
 328:Drivers/STM32F4xx_HAL_Driver/Src/stm32f4xx_hal_exti.c **** {
 495              		.loc 1 328 1
 496              		.cfi_startproc
 497              		@ args = 0, pretend = 0, frame = 24
 498              		@ frame_needed = 1, uses_anonymous_args = 0
 499              		@ link register save eliminated.
 500 0000 80B4     		push	{r7}
 501              	.LCFI12:
 502              		.cfi_def_cfa_offset 4
 503              		.cfi_offset 7, -4
 504 0002 87B0     		sub	sp, sp, #28
 505              	.LCFI13:
 506              		.cfi_def_cfa_offset 32
 507 0004 00AF     		add	r7, sp, #0
 508              	.LCFI14:
 509              		.cfi_def_cfa_register 7
 510 0006 7860     		str	r0, [r7, #4]
 329:Drivers/STM32F4xx_HAL_Driver/Src/stm32f4xx_hal_exti.c ****   uint32_t regval;
 330:Drivers/STM32F4xx_HAL_Driver/Src/stm32f4xx_hal_exti.c ****   uint32_t linepos;
 331:Drivers/STM32F4xx_HAL_Driver/Src/stm32f4xx_hal_exti.c ****   uint32_t maskline;
 332:Drivers/STM32F4xx_HAL_Driver/Src/stm32f4xx_hal_exti.c **** 
 333:Drivers/STM32F4xx_HAL_Driver/Src/stm32f4xx_hal_exti.c ****   /* Check null pointer */
 334:Drivers/STM32F4xx_HAL_Driver/Src/stm32f4xx_hal_exti.c ****   if (hexti == NULL)
 511              		.loc 1 334 6
 512 0008 7B68     		ldr	r3, [r7, #4]
 513 000a 002B     		cmp	r3, #0
 514 000c 01D1     		bne	.L32
 335:Drivers/STM32F4xx_HAL_Driver/Src/stm32f4xx_hal_exti.c ****   {
 336:Drivers/STM32F4xx_HAL_Driver/Src/stm32f4xx_hal_exti.c ****     return HAL_ERROR;
 515              		.loc 1 336 12
 516 000e 0123     		movs	r3, #1
 517 0010 4CE0     		b	.L33
 518              	.L32:
 337:Drivers/STM32F4xx_HAL_Driver/Src/stm32f4xx_hal_exti.c ****   }
 338:Drivers/STM32F4xx_HAL_Driver/Src/stm32f4xx_hal_exti.c **** 
 339:Drivers/STM32F4xx_HAL_Driver/Src/stm32f4xx_hal_exti.c ****   /* Check the parameter */
 340:Drivers/STM32F4xx_HAL_Driver/Src/stm32f4xx_hal_exti.c ****   assert_param(IS_EXTI_LINE(hexti->Line));
 341:Drivers/STM32F4xx_HAL_Driver/Src/stm32f4xx_hal_exti.c **** 
 342:Drivers/STM32F4xx_HAL_Driver/Src/stm32f4xx_hal_exti.c ****   /* compute line mask */
ARM GAS  /var/folders/vq/qt4vp3kd5rxf7v2b6_fdtdt80000gn/T//ccYRRUak.s 			page 16


 343:Drivers/STM32F4xx_HAL_Driver/Src/stm32f4xx_hal_exti.c ****   linepos = (hexti->Line & EXTI_PIN_MASK);
 519              		.loc 1 343 19
 520 0012 7B68     		ldr	r3, [r7, #4]
 521 0014 1B68     		ldr	r3, [r3]
 522              		.loc 1 343 11
 523 0016 03F01F03 		and	r3, r3, #31
 524 001a 7B61     		str	r3, [r7, #20]
 344:Drivers/STM32F4xx_HAL_Driver/Src/stm32f4xx_hal_exti.c ****   maskline = (1uL << linepos);
 525              		.loc 1 344 12
 526 001c 0122     		movs	r2, #1
 527 001e 7B69     		ldr	r3, [r7, #20]
 528 0020 02FA03F3 		lsl	r3, r2, r3
 529 0024 3B61     		str	r3, [r7, #16]
 345:Drivers/STM32F4xx_HAL_Driver/Src/stm32f4xx_hal_exti.c **** 
 346:Drivers/STM32F4xx_HAL_Driver/Src/stm32f4xx_hal_exti.c ****   /* 1] Clear interrupt mode */
 347:Drivers/STM32F4xx_HAL_Driver/Src/stm32f4xx_hal_exti.c ****   EXTI->IMR = (EXTI->IMR & ~maskline);
 530              		.loc 1 347 20
 531 0026 244B     		ldr	r3, .L35
 532 0028 1A68     		ldr	r2, [r3]
 533              		.loc 1 347 28
 534 002a 3B69     		ldr	r3, [r7, #16]
 535 002c DB43     		mvns	r3, r3
 536              		.loc 1 347 7
 537 002e 2249     		ldr	r1, .L35
 538              		.loc 1 347 26
 539 0030 1340     		ands	r3, r3, r2
 540              		.loc 1 347 13
 541 0032 0B60     		str	r3, [r1]
 348:Drivers/STM32F4xx_HAL_Driver/Src/stm32f4xx_hal_exti.c **** 
 349:Drivers/STM32F4xx_HAL_Driver/Src/stm32f4xx_hal_exti.c ****   /* 2] Clear event mode */
 350:Drivers/STM32F4xx_HAL_Driver/Src/stm32f4xx_hal_exti.c ****   EXTI->EMR = (EXTI->EMR & ~maskline);
 542              		.loc 1 350 20
 543 0034 204B     		ldr	r3, .L35
 544 0036 5A68     		ldr	r2, [r3, #4]
 545              		.loc 1 350 28
 546 0038 3B69     		ldr	r3, [r7, #16]
 547 003a DB43     		mvns	r3, r3
 548              		.loc 1 350 7
 549 003c 1E49     		ldr	r1, .L35
 550              		.loc 1 350 26
 551 003e 1340     		ands	r3, r3, r2
 552              		.loc 1 350 13
 553 0040 4B60     		str	r3, [r1, #4]
 351:Drivers/STM32F4xx_HAL_Driver/Src/stm32f4xx_hal_exti.c **** 
 352:Drivers/STM32F4xx_HAL_Driver/Src/stm32f4xx_hal_exti.c ****   /* 3] Clear triggers in case of configurable lines */
 353:Drivers/STM32F4xx_HAL_Driver/Src/stm32f4xx_hal_exti.c ****   if ((hexti->Line & EXTI_CONFIG) != 0x00u)
 554              		.loc 1 353 13
 555 0042 7B68     		ldr	r3, [r7, #4]
 556 0044 1B68     		ldr	r3, [r3]
 557              		.loc 1 353 20
 558 0046 03F00073 		and	r3, r3, #33554432
 559              		.loc 1 353 6
 560 004a 002B     		cmp	r3, #0
 561 004c 2DD0     		beq	.L34
 354:Drivers/STM32F4xx_HAL_Driver/Src/stm32f4xx_hal_exti.c ****   {
 355:Drivers/STM32F4xx_HAL_Driver/Src/stm32f4xx_hal_exti.c ****     EXTI->RTSR = (EXTI->RTSR & ~maskline);
 562              		.loc 1 355 23
ARM GAS  /var/folders/vq/qt4vp3kd5rxf7v2b6_fdtdt80000gn/T//ccYRRUak.s 			page 17


 563 004e 1A4B     		ldr	r3, .L35
 564 0050 9A68     		ldr	r2, [r3, #8]
 565              		.loc 1 355 32
 566 0052 3B69     		ldr	r3, [r7, #16]
 567 0054 DB43     		mvns	r3, r3
 568              		.loc 1 355 9
 569 0056 1849     		ldr	r1, .L35
 570              		.loc 1 355 30
 571 0058 1340     		ands	r3, r3, r2
 572              		.loc 1 355 16
 573 005a 8B60     		str	r3, [r1, #8]
 356:Drivers/STM32F4xx_HAL_Driver/Src/stm32f4xx_hal_exti.c ****     EXTI->FTSR = (EXTI->FTSR & ~maskline);
 574              		.loc 1 356 23
 575 005c 164B     		ldr	r3, .L35
 576 005e DA68     		ldr	r2, [r3, #12]
 577              		.loc 1 356 32
 578 0060 3B69     		ldr	r3, [r7, #16]
 579 0062 DB43     		mvns	r3, r3
 580              		.loc 1 356 9
 581 0064 1449     		ldr	r1, .L35
 582              		.loc 1 356 30
 583 0066 1340     		ands	r3, r3, r2
 584              		.loc 1 356 16
 585 0068 CB60     		str	r3, [r1, #12]
 357:Drivers/STM32F4xx_HAL_Driver/Src/stm32f4xx_hal_exti.c **** 
 358:Drivers/STM32F4xx_HAL_Driver/Src/stm32f4xx_hal_exti.c ****     /* Get Gpio port selection for gpio lines */
 359:Drivers/STM32F4xx_HAL_Driver/Src/stm32f4xx_hal_exti.c ****     if ((hexti->Line & EXTI_GPIO) == EXTI_GPIO)
 586              		.loc 1 359 15
 587 006a 7B68     		ldr	r3, [r7, #4]
 588 006c 1B68     		ldr	r3, [r3]
 589              		.loc 1 359 22
 590 006e 03F0C063 		and	r3, r3, #100663296
 591              		.loc 1 359 8
 592 0072 B3F1C06F 		cmp	r3, #100663296
 593 0076 18D1     		bne	.L34
 360:Drivers/STM32F4xx_HAL_Driver/Src/stm32f4xx_hal_exti.c ****     {
 361:Drivers/STM32F4xx_HAL_Driver/Src/stm32f4xx_hal_exti.c ****       assert_param(IS_EXTI_GPIO_PIN(linepos));
 362:Drivers/STM32F4xx_HAL_Driver/Src/stm32f4xx_hal_exti.c **** 
 363:Drivers/STM32F4xx_HAL_Driver/Src/stm32f4xx_hal_exti.c ****       regval = SYSCFG->EXTICR[linepos >> 2u];
 594              		.loc 1 363 22
 595 0078 104A     		ldr	r2, .L35+4
 596              		.loc 1 363 39
 597 007a 7B69     		ldr	r3, [r7, #20]
 598 007c 9B08     		lsrs	r3, r3, #2
 599              		.loc 1 363 14
 600 007e 0233     		adds	r3, r3, #2
 601 0080 52F82330 		ldr	r3, [r2, r3, lsl #2]
 602 0084 FB60     		str	r3, [r7, #12]
 364:Drivers/STM32F4xx_HAL_Driver/Src/stm32f4xx_hal_exti.c ****       regval &= ~(SYSCFG_EXTICR1_EXTI0 << (SYSCFG_EXTICR1_EXTI1_Pos * (linepos & 0x03u)));
 603              		.loc 1 364 80
 604 0086 7B69     		ldr	r3, [r7, #20]
 605 0088 03F00303 		and	r3, r3, #3
 606              		.loc 1 364 69
 607 008c 9B00     		lsls	r3, r3, #2
 608              		.loc 1 364 40
 609 008e 0F22     		movs	r2, #15
 610 0090 02FA03F3 		lsl	r3, r2, r3
ARM GAS  /var/folders/vq/qt4vp3kd5rxf7v2b6_fdtdt80000gn/T//ccYRRUak.s 			page 18


 611              		.loc 1 364 17
 612 0094 DB43     		mvns	r3, r3
 613              		.loc 1 364 14
 614 0096 FA68     		ldr	r2, [r7, #12]
 615 0098 1340     		ands	r3, r3, r2
 616 009a FB60     		str	r3, [r7, #12]
 365:Drivers/STM32F4xx_HAL_Driver/Src/stm32f4xx_hal_exti.c ****       SYSCFG->EXTICR[linepos >> 2u] = regval;
 617              		.loc 1 365 13
 618 009c 0749     		ldr	r1, .L35+4
 619              		.loc 1 365 30
 620 009e 7B69     		ldr	r3, [r7, #20]
 621 00a0 9B08     		lsrs	r3, r3, #2
 622              		.loc 1 365 37
 623 00a2 0233     		adds	r3, r3, #2
 624 00a4 FA68     		ldr	r2, [r7, #12]
 625 00a6 41F82320 		str	r2, [r1, r3, lsl #2]
 626              	.L34:
 366:Drivers/STM32F4xx_HAL_Driver/Src/stm32f4xx_hal_exti.c ****     }
 367:Drivers/STM32F4xx_HAL_Driver/Src/stm32f4xx_hal_exti.c ****   }
 368:Drivers/STM32F4xx_HAL_Driver/Src/stm32f4xx_hal_exti.c **** 
 369:Drivers/STM32F4xx_HAL_Driver/Src/stm32f4xx_hal_exti.c ****   return HAL_OK;
 627              		.loc 1 369 10
 628 00aa 0023     		movs	r3, #0
 629              	.L33:
 370:Drivers/STM32F4xx_HAL_Driver/Src/stm32f4xx_hal_exti.c **** }
 630              		.loc 1 370 1
 631 00ac 1846     		mov	r0, r3
 632 00ae 1C37     		adds	r7, r7, #28
 633              	.LCFI15:
 634              		.cfi_def_cfa_offset 4
 635 00b0 BD46     		mov	sp, r7
 636              	.LCFI16:
 637              		.cfi_def_cfa_register 13
 638              		@ sp needed
 639 00b2 5DF8047B 		ldr	r7, [sp], #4
 640              	.LCFI17:
 641              		.cfi_restore 7
 642              		.cfi_def_cfa_offset 0
 643 00b6 7047     		bx	lr
 644              	.L36:
 645              		.align	2
 646              	.L35:
 647 00b8 003C0140 		.word	1073822720
 648 00bc 00380140 		.word	1073821696
 649              		.cfi_endproc
 650              	.LFE132:
 652              		.section	.text.HAL_EXTI_RegisterCallback,"ax",%progbits
 653              		.align	1
 654              		.global	HAL_EXTI_RegisterCallback
 655              		.syntax unified
 656              		.thumb
 657              		.thumb_func
 658              		.fpu fpv4-sp-d16
 660              	HAL_EXTI_RegisterCallback:
 661              	.LFB133:
 371:Drivers/STM32F4xx_HAL_Driver/Src/stm32f4xx_hal_exti.c **** 
 372:Drivers/STM32F4xx_HAL_Driver/Src/stm32f4xx_hal_exti.c **** /**
ARM GAS  /var/folders/vq/qt4vp3kd5rxf7v2b6_fdtdt80000gn/T//ccYRRUak.s 			page 19


 373:Drivers/STM32F4xx_HAL_Driver/Src/stm32f4xx_hal_exti.c ****   * @brief  Register callback for a dedicated Exti line.
 374:Drivers/STM32F4xx_HAL_Driver/Src/stm32f4xx_hal_exti.c ****   * @param  hexti Exti handle.
 375:Drivers/STM32F4xx_HAL_Driver/Src/stm32f4xx_hal_exti.c ****   * @param  CallbackID User callback identifier.
 376:Drivers/STM32F4xx_HAL_Driver/Src/stm32f4xx_hal_exti.c ****   *         This parameter can be one of @arg @ref EXTI_CallbackIDTypeDef values.
 377:Drivers/STM32F4xx_HAL_Driver/Src/stm32f4xx_hal_exti.c ****   * @param  pPendingCbfn function pointer to be stored as callback.
 378:Drivers/STM32F4xx_HAL_Driver/Src/stm32f4xx_hal_exti.c ****   * @retval HAL Status.
 379:Drivers/STM32F4xx_HAL_Driver/Src/stm32f4xx_hal_exti.c ****   */
 380:Drivers/STM32F4xx_HAL_Driver/Src/stm32f4xx_hal_exti.c **** HAL_StatusTypeDef HAL_EXTI_RegisterCallback(EXTI_HandleTypeDef *hexti, EXTI_CallbackIDTypeDef Callb
 381:Drivers/STM32F4xx_HAL_Driver/Src/stm32f4xx_hal_exti.c **** {
 662              		.loc 1 381 1
 663              		.cfi_startproc
 664              		@ args = 0, pretend = 0, frame = 24
 665              		@ frame_needed = 1, uses_anonymous_args = 0
 666              		@ link register save eliminated.
 667 0000 80B4     		push	{r7}
 668              	.LCFI18:
 669              		.cfi_def_cfa_offset 4
 670              		.cfi_offset 7, -4
 671 0002 87B0     		sub	sp, sp, #28
 672              	.LCFI19:
 673              		.cfi_def_cfa_offset 32
 674 0004 00AF     		add	r7, sp, #0
 675              	.LCFI20:
 676              		.cfi_def_cfa_register 7
 677 0006 F860     		str	r0, [r7, #12]
 678 0008 0B46     		mov	r3, r1
 679 000a 7A60     		str	r2, [r7, #4]
 680 000c FB72     		strb	r3, [r7, #11]
 382:Drivers/STM32F4xx_HAL_Driver/Src/stm32f4xx_hal_exti.c ****   HAL_StatusTypeDef status = HAL_OK;
 681              		.loc 1 382 21
 682 000e 0023     		movs	r3, #0
 683 0010 FB75     		strb	r3, [r7, #23]
 383:Drivers/STM32F4xx_HAL_Driver/Src/stm32f4xx_hal_exti.c **** 
 384:Drivers/STM32F4xx_HAL_Driver/Src/stm32f4xx_hal_exti.c ****   switch (CallbackID)
 684              		.loc 1 384 3
 685 0012 FB7A     		ldrb	r3, [r7, #11]	@ zero_extendqisi2
 686 0014 002B     		cmp	r3, #0
 687 0016 03D1     		bne	.L38
 385:Drivers/STM32F4xx_HAL_Driver/Src/stm32f4xx_hal_exti.c ****   {
 386:Drivers/STM32F4xx_HAL_Driver/Src/stm32f4xx_hal_exti.c ****     case  HAL_EXTI_COMMON_CB_ID:
 387:Drivers/STM32F4xx_HAL_Driver/Src/stm32f4xx_hal_exti.c ****       hexti->PendingCallback = pPendingCbfn;
 688              		.loc 1 387 30
 689 0018 FB68     		ldr	r3, [r7, #12]
 690 001a 7A68     		ldr	r2, [r7, #4]
 691 001c 5A60     		str	r2, [r3, #4]
 388:Drivers/STM32F4xx_HAL_Driver/Src/stm32f4xx_hal_exti.c ****       break;
 692              		.loc 1 388 7
 693 001e 02E0     		b	.L39
 694              	.L38:
 389:Drivers/STM32F4xx_HAL_Driver/Src/stm32f4xx_hal_exti.c **** 
 390:Drivers/STM32F4xx_HAL_Driver/Src/stm32f4xx_hal_exti.c ****     default:
 391:Drivers/STM32F4xx_HAL_Driver/Src/stm32f4xx_hal_exti.c ****       status = HAL_ERROR;
 695              		.loc 1 391 14
 696 0020 0123     		movs	r3, #1
 697 0022 FB75     		strb	r3, [r7, #23]
 392:Drivers/STM32F4xx_HAL_Driver/Src/stm32f4xx_hal_exti.c ****       break;
 698              		.loc 1 392 7
ARM GAS  /var/folders/vq/qt4vp3kd5rxf7v2b6_fdtdt80000gn/T//ccYRRUak.s 			page 20


 699 0024 00BF     		nop
 700              	.L39:
 393:Drivers/STM32F4xx_HAL_Driver/Src/stm32f4xx_hal_exti.c ****   }
 394:Drivers/STM32F4xx_HAL_Driver/Src/stm32f4xx_hal_exti.c **** 
 395:Drivers/STM32F4xx_HAL_Driver/Src/stm32f4xx_hal_exti.c ****   return status;
 701              		.loc 1 395 10
 702 0026 FB7D     		ldrb	r3, [r7, #23]	@ zero_extendqisi2
 396:Drivers/STM32F4xx_HAL_Driver/Src/stm32f4xx_hal_exti.c **** }
 703              		.loc 1 396 1
 704 0028 1846     		mov	r0, r3
 705 002a 1C37     		adds	r7, r7, #28
 706              	.LCFI21:
 707              		.cfi_def_cfa_offset 4
 708 002c BD46     		mov	sp, r7
 709              	.LCFI22:
 710              		.cfi_def_cfa_register 13
 711              		@ sp needed
 712 002e 5DF8047B 		ldr	r7, [sp], #4
 713              	.LCFI23:
 714              		.cfi_restore 7
 715              		.cfi_def_cfa_offset 0
 716 0032 7047     		bx	lr
 717              		.cfi_endproc
 718              	.LFE133:
 720              		.section	.text.HAL_EXTI_GetHandle,"ax",%progbits
 721              		.align	1
 722              		.global	HAL_EXTI_GetHandle
 723              		.syntax unified
 724              		.thumb
 725              		.thumb_func
 726              		.fpu fpv4-sp-d16
 728              	HAL_EXTI_GetHandle:
 729              	.LFB134:
 397:Drivers/STM32F4xx_HAL_Driver/Src/stm32f4xx_hal_exti.c **** 
 398:Drivers/STM32F4xx_HAL_Driver/Src/stm32f4xx_hal_exti.c **** /**
 399:Drivers/STM32F4xx_HAL_Driver/Src/stm32f4xx_hal_exti.c ****   * @brief  Store line number as handle private field.
 400:Drivers/STM32F4xx_HAL_Driver/Src/stm32f4xx_hal_exti.c ****   * @param  hexti Exti handle.
 401:Drivers/STM32F4xx_HAL_Driver/Src/stm32f4xx_hal_exti.c ****   * @param  ExtiLine Exti line number.
 402:Drivers/STM32F4xx_HAL_Driver/Src/stm32f4xx_hal_exti.c ****   *         This parameter can be from 0 to @ref EXTI_LINE_NB.
 403:Drivers/STM32F4xx_HAL_Driver/Src/stm32f4xx_hal_exti.c ****   * @retval HAL Status.
 404:Drivers/STM32F4xx_HAL_Driver/Src/stm32f4xx_hal_exti.c ****   */
 405:Drivers/STM32F4xx_HAL_Driver/Src/stm32f4xx_hal_exti.c **** HAL_StatusTypeDef HAL_EXTI_GetHandle(EXTI_HandleTypeDef *hexti, uint32_t ExtiLine)
 406:Drivers/STM32F4xx_HAL_Driver/Src/stm32f4xx_hal_exti.c **** {
 730              		.loc 1 406 1
 731              		.cfi_startproc
 732              		@ args = 0, pretend = 0, frame = 8
 733              		@ frame_needed = 1, uses_anonymous_args = 0
 734              		@ link register save eliminated.
 735 0000 80B4     		push	{r7}
 736              	.LCFI24:
 737              		.cfi_def_cfa_offset 4
 738              		.cfi_offset 7, -4
 739 0002 83B0     		sub	sp, sp, #12
 740              	.LCFI25:
 741              		.cfi_def_cfa_offset 16
 742 0004 00AF     		add	r7, sp, #0
 743              	.LCFI26:
ARM GAS  /var/folders/vq/qt4vp3kd5rxf7v2b6_fdtdt80000gn/T//ccYRRUak.s 			page 21


 744              		.cfi_def_cfa_register 7
 745 0006 7860     		str	r0, [r7, #4]
 746 0008 3960     		str	r1, [r7]
 407:Drivers/STM32F4xx_HAL_Driver/Src/stm32f4xx_hal_exti.c ****   /* Check the parameters */
 408:Drivers/STM32F4xx_HAL_Driver/Src/stm32f4xx_hal_exti.c ****   assert_param(IS_EXTI_LINE(ExtiLine));
 409:Drivers/STM32F4xx_HAL_Driver/Src/stm32f4xx_hal_exti.c **** 
 410:Drivers/STM32F4xx_HAL_Driver/Src/stm32f4xx_hal_exti.c ****   /* Check null pointer */
 411:Drivers/STM32F4xx_HAL_Driver/Src/stm32f4xx_hal_exti.c ****   if (hexti == NULL)
 747              		.loc 1 411 6
 748 000a 7B68     		ldr	r3, [r7, #4]
 749 000c 002B     		cmp	r3, #0
 750 000e 01D1     		bne	.L42
 412:Drivers/STM32F4xx_HAL_Driver/Src/stm32f4xx_hal_exti.c ****   {
 413:Drivers/STM32F4xx_HAL_Driver/Src/stm32f4xx_hal_exti.c ****     return HAL_ERROR;
 751              		.loc 1 413 12
 752 0010 0123     		movs	r3, #1
 753 0012 03E0     		b	.L43
 754              	.L42:
 414:Drivers/STM32F4xx_HAL_Driver/Src/stm32f4xx_hal_exti.c ****   }
 415:Drivers/STM32F4xx_HAL_Driver/Src/stm32f4xx_hal_exti.c ****   else
 416:Drivers/STM32F4xx_HAL_Driver/Src/stm32f4xx_hal_exti.c ****   {
 417:Drivers/STM32F4xx_HAL_Driver/Src/stm32f4xx_hal_exti.c ****     /* Store line number as handle private field */
 418:Drivers/STM32F4xx_HAL_Driver/Src/stm32f4xx_hal_exti.c ****     hexti->Line = ExtiLine;
 755              		.loc 1 418 17
 756 0014 7B68     		ldr	r3, [r7, #4]
 757 0016 3A68     		ldr	r2, [r7]
 758 0018 1A60     		str	r2, [r3]
 419:Drivers/STM32F4xx_HAL_Driver/Src/stm32f4xx_hal_exti.c **** 
 420:Drivers/STM32F4xx_HAL_Driver/Src/stm32f4xx_hal_exti.c ****     return HAL_OK;
 759              		.loc 1 420 12
 760 001a 0023     		movs	r3, #0
 761              	.L43:
 421:Drivers/STM32F4xx_HAL_Driver/Src/stm32f4xx_hal_exti.c ****   }
 422:Drivers/STM32F4xx_HAL_Driver/Src/stm32f4xx_hal_exti.c **** }
 762              		.loc 1 422 1
 763 001c 1846     		mov	r0, r3
 764 001e 0C37     		adds	r7, r7, #12
 765              	.LCFI27:
 766              		.cfi_def_cfa_offset 4
 767 0020 BD46     		mov	sp, r7
 768              	.LCFI28:
 769              		.cfi_def_cfa_register 13
 770              		@ sp needed
 771 0022 5DF8047B 		ldr	r7, [sp], #4
 772              	.LCFI29:
 773              		.cfi_restore 7
 774              		.cfi_def_cfa_offset 0
 775 0026 7047     		bx	lr
 776              		.cfi_endproc
 777              	.LFE134:
 779              		.section	.text.HAL_EXTI_IRQHandler,"ax",%progbits
 780              		.align	1
 781              		.global	HAL_EXTI_IRQHandler
 782              		.syntax unified
 783              		.thumb
 784              		.thumb_func
 785              		.fpu fpv4-sp-d16
ARM GAS  /var/folders/vq/qt4vp3kd5rxf7v2b6_fdtdt80000gn/T//ccYRRUak.s 			page 22


 787              	HAL_EXTI_IRQHandler:
 788              	.LFB135:
 423:Drivers/STM32F4xx_HAL_Driver/Src/stm32f4xx_hal_exti.c **** 
 424:Drivers/STM32F4xx_HAL_Driver/Src/stm32f4xx_hal_exti.c **** /**
 425:Drivers/STM32F4xx_HAL_Driver/Src/stm32f4xx_hal_exti.c ****   * @}
 426:Drivers/STM32F4xx_HAL_Driver/Src/stm32f4xx_hal_exti.c ****   */
 427:Drivers/STM32F4xx_HAL_Driver/Src/stm32f4xx_hal_exti.c **** 
 428:Drivers/STM32F4xx_HAL_Driver/Src/stm32f4xx_hal_exti.c **** /** @addtogroup EXTI_Exported_Functions_Group2
 429:Drivers/STM32F4xx_HAL_Driver/Src/stm32f4xx_hal_exti.c ****   *  @brief EXTI IO functions.
 430:Drivers/STM32F4xx_HAL_Driver/Src/stm32f4xx_hal_exti.c ****   *
 431:Drivers/STM32F4xx_HAL_Driver/Src/stm32f4xx_hal_exti.c **** @verbatim
 432:Drivers/STM32F4xx_HAL_Driver/Src/stm32f4xx_hal_exti.c ****  ===============================================================================
 433:Drivers/STM32F4xx_HAL_Driver/Src/stm32f4xx_hal_exti.c ****                        ##### IO operation functions #####
 434:Drivers/STM32F4xx_HAL_Driver/Src/stm32f4xx_hal_exti.c ****  ===============================================================================
 435:Drivers/STM32F4xx_HAL_Driver/Src/stm32f4xx_hal_exti.c **** 
 436:Drivers/STM32F4xx_HAL_Driver/Src/stm32f4xx_hal_exti.c **** @endverbatim
 437:Drivers/STM32F4xx_HAL_Driver/Src/stm32f4xx_hal_exti.c ****   * @{
 438:Drivers/STM32F4xx_HAL_Driver/Src/stm32f4xx_hal_exti.c ****   */
 439:Drivers/STM32F4xx_HAL_Driver/Src/stm32f4xx_hal_exti.c **** 
 440:Drivers/STM32F4xx_HAL_Driver/Src/stm32f4xx_hal_exti.c **** /**
 441:Drivers/STM32F4xx_HAL_Driver/Src/stm32f4xx_hal_exti.c ****   * @brief  Handle EXTI interrupt request.
 442:Drivers/STM32F4xx_HAL_Driver/Src/stm32f4xx_hal_exti.c ****   * @param  hexti Exti handle.
 443:Drivers/STM32F4xx_HAL_Driver/Src/stm32f4xx_hal_exti.c ****   * @retval none.
 444:Drivers/STM32F4xx_HAL_Driver/Src/stm32f4xx_hal_exti.c ****   */
 445:Drivers/STM32F4xx_HAL_Driver/Src/stm32f4xx_hal_exti.c **** void HAL_EXTI_IRQHandler(EXTI_HandleTypeDef *hexti)
 446:Drivers/STM32F4xx_HAL_Driver/Src/stm32f4xx_hal_exti.c **** {
 789              		.loc 1 446 1
 790              		.cfi_startproc
 791              		@ args = 0, pretend = 0, frame = 16
 792              		@ frame_needed = 1, uses_anonymous_args = 0
 793 0000 80B5     		push	{r7, lr}
 794              	.LCFI30:
 795              		.cfi_def_cfa_offset 8
 796              		.cfi_offset 7, -8
 797              		.cfi_offset 14, -4
 798 0002 84B0     		sub	sp, sp, #16
 799              	.LCFI31:
 800              		.cfi_def_cfa_offset 24
 801 0004 00AF     		add	r7, sp, #0
 802              	.LCFI32:
 803              		.cfi_def_cfa_register 7
 804 0006 7860     		str	r0, [r7, #4]
 447:Drivers/STM32F4xx_HAL_Driver/Src/stm32f4xx_hal_exti.c ****   uint32_t regval;
 448:Drivers/STM32F4xx_HAL_Driver/Src/stm32f4xx_hal_exti.c ****   uint32_t maskline;
 449:Drivers/STM32F4xx_HAL_Driver/Src/stm32f4xx_hal_exti.c **** 
 450:Drivers/STM32F4xx_HAL_Driver/Src/stm32f4xx_hal_exti.c ****   /* Compute line mask */
 451:Drivers/STM32F4xx_HAL_Driver/Src/stm32f4xx_hal_exti.c ****   maskline = (1uL << (hexti->Line & EXTI_PIN_MASK));
 805              		.loc 1 451 28
 806 0008 7B68     		ldr	r3, [r7, #4]
 807 000a 1B68     		ldr	r3, [r3]
 808              		.loc 1 451 35
 809 000c 03F01F03 		and	r3, r3, #31
 810              		.loc 1 451 12
 811 0010 0122     		movs	r2, #1
 812 0012 02FA03F3 		lsl	r3, r2, r3
 813 0016 FB60     		str	r3, [r7, #12]
 452:Drivers/STM32F4xx_HAL_Driver/Src/stm32f4xx_hal_exti.c **** 
ARM GAS  /var/folders/vq/qt4vp3kd5rxf7v2b6_fdtdt80000gn/T//ccYRRUak.s 			page 23


 453:Drivers/STM32F4xx_HAL_Driver/Src/stm32f4xx_hal_exti.c ****   /* Get pending bit  */
 454:Drivers/STM32F4xx_HAL_Driver/Src/stm32f4xx_hal_exti.c ****   regval = (EXTI->PR & maskline);
 814              		.loc 1 454 17
 815 0018 0A4B     		ldr	r3, .L47
 816 001a 5B69     		ldr	r3, [r3, #20]
 817              		.loc 1 454 10
 818 001c FA68     		ldr	r2, [r7, #12]
 819 001e 1340     		ands	r3, r3, r2
 820 0020 BB60     		str	r3, [r7, #8]
 455:Drivers/STM32F4xx_HAL_Driver/Src/stm32f4xx_hal_exti.c ****   if (regval != 0x00u)
 821              		.loc 1 455 6
 822 0022 BB68     		ldr	r3, [r7, #8]
 823 0024 002B     		cmp	r3, #0
 824 0026 09D0     		beq	.L46
 456:Drivers/STM32F4xx_HAL_Driver/Src/stm32f4xx_hal_exti.c ****   {
 457:Drivers/STM32F4xx_HAL_Driver/Src/stm32f4xx_hal_exti.c ****     /* Clear pending bit */
 458:Drivers/STM32F4xx_HAL_Driver/Src/stm32f4xx_hal_exti.c ****     EXTI->PR = maskline;
 825              		.loc 1 458 9
 826 0028 064A     		ldr	r2, .L47
 827              		.loc 1 458 14
 828 002a FB68     		ldr	r3, [r7, #12]
 829 002c 5361     		str	r3, [r2, #20]
 459:Drivers/STM32F4xx_HAL_Driver/Src/stm32f4xx_hal_exti.c **** 
 460:Drivers/STM32F4xx_HAL_Driver/Src/stm32f4xx_hal_exti.c ****     /* Call callback */
 461:Drivers/STM32F4xx_HAL_Driver/Src/stm32f4xx_hal_exti.c ****     if (hexti->PendingCallback != NULL)
 830              		.loc 1 461 14
 831 002e 7B68     		ldr	r3, [r7, #4]
 832 0030 5B68     		ldr	r3, [r3, #4]
 833              		.loc 1 461 8
 834 0032 002B     		cmp	r3, #0
 835 0034 02D0     		beq	.L46
 462:Drivers/STM32F4xx_HAL_Driver/Src/stm32f4xx_hal_exti.c ****     {
 463:Drivers/STM32F4xx_HAL_Driver/Src/stm32f4xx_hal_exti.c ****       hexti->PendingCallback();
 836              		.loc 1 463 12
 837 0036 7B68     		ldr	r3, [r7, #4]
 838 0038 5B68     		ldr	r3, [r3, #4]
 839              		.loc 1 463 7
 840 003a 9847     		blx	r3
 841              	.LVL0:
 842              	.L46:
 464:Drivers/STM32F4xx_HAL_Driver/Src/stm32f4xx_hal_exti.c ****     }
 465:Drivers/STM32F4xx_HAL_Driver/Src/stm32f4xx_hal_exti.c ****   }
 466:Drivers/STM32F4xx_HAL_Driver/Src/stm32f4xx_hal_exti.c **** }
 843              		.loc 1 466 1
 844 003c 00BF     		nop
 845 003e 1037     		adds	r7, r7, #16
 846              	.LCFI33:
 847              		.cfi_def_cfa_offset 8
 848 0040 BD46     		mov	sp, r7
 849              	.LCFI34:
 850              		.cfi_def_cfa_register 13
 851              		@ sp needed
 852 0042 80BD     		pop	{r7, pc}
 853              	.L48:
 854              		.align	2
 855              	.L47:
 856 0044 003C0140 		.word	1073822720
ARM GAS  /var/folders/vq/qt4vp3kd5rxf7v2b6_fdtdt80000gn/T//ccYRRUak.s 			page 24


 857              		.cfi_endproc
 858              	.LFE135:
 860              		.section	.text.HAL_EXTI_GetPending,"ax",%progbits
 861              		.align	1
 862              		.global	HAL_EXTI_GetPending
 863              		.syntax unified
 864              		.thumb
 865              		.thumb_func
 866              		.fpu fpv4-sp-d16
 868              	HAL_EXTI_GetPending:
 869              	.LFB136:
 467:Drivers/STM32F4xx_HAL_Driver/Src/stm32f4xx_hal_exti.c **** 
 468:Drivers/STM32F4xx_HAL_Driver/Src/stm32f4xx_hal_exti.c **** /**
 469:Drivers/STM32F4xx_HAL_Driver/Src/stm32f4xx_hal_exti.c ****   * @brief  Get interrupt pending bit of a dedicated line.
 470:Drivers/STM32F4xx_HAL_Driver/Src/stm32f4xx_hal_exti.c ****   * @param  hexti Exti handle.
 471:Drivers/STM32F4xx_HAL_Driver/Src/stm32f4xx_hal_exti.c ****   * @param  Edge Specify which pending edge as to be checked.
 472:Drivers/STM32F4xx_HAL_Driver/Src/stm32f4xx_hal_exti.c ****   *         This parameter can be one of the following values:
 473:Drivers/STM32F4xx_HAL_Driver/Src/stm32f4xx_hal_exti.c ****   *           @arg @ref EXTI_TRIGGER_RISING_FALLING
 474:Drivers/STM32F4xx_HAL_Driver/Src/stm32f4xx_hal_exti.c ****   *         This parameter is kept for compatibility with other series.
 475:Drivers/STM32F4xx_HAL_Driver/Src/stm32f4xx_hal_exti.c ****   * @retval 1 if interrupt is pending else 0.
 476:Drivers/STM32F4xx_HAL_Driver/Src/stm32f4xx_hal_exti.c ****   */
 477:Drivers/STM32F4xx_HAL_Driver/Src/stm32f4xx_hal_exti.c **** uint32_t HAL_EXTI_GetPending(EXTI_HandleTypeDef *hexti, uint32_t Edge)
 478:Drivers/STM32F4xx_HAL_Driver/Src/stm32f4xx_hal_exti.c **** {
 870              		.loc 1 478 1
 871              		.cfi_startproc
 872              		@ args = 0, pretend = 0, frame = 24
 873              		@ frame_needed = 1, uses_anonymous_args = 0
 874              		@ link register save eliminated.
 875 0000 80B4     		push	{r7}
 876              	.LCFI35:
 877              		.cfi_def_cfa_offset 4
 878              		.cfi_offset 7, -4
 879 0002 87B0     		sub	sp, sp, #28
 880              	.LCFI36:
 881              		.cfi_def_cfa_offset 32
 882 0004 00AF     		add	r7, sp, #0
 883              	.LCFI37:
 884              		.cfi_def_cfa_register 7
 885 0006 7860     		str	r0, [r7, #4]
 886 0008 3960     		str	r1, [r7]
 479:Drivers/STM32F4xx_HAL_Driver/Src/stm32f4xx_hal_exti.c ****   uint32_t regval;
 480:Drivers/STM32F4xx_HAL_Driver/Src/stm32f4xx_hal_exti.c ****   uint32_t linepos;
 481:Drivers/STM32F4xx_HAL_Driver/Src/stm32f4xx_hal_exti.c ****   uint32_t maskline;
 482:Drivers/STM32F4xx_HAL_Driver/Src/stm32f4xx_hal_exti.c **** 
 483:Drivers/STM32F4xx_HAL_Driver/Src/stm32f4xx_hal_exti.c ****   /* Check parameters */
 484:Drivers/STM32F4xx_HAL_Driver/Src/stm32f4xx_hal_exti.c ****   assert_param(IS_EXTI_LINE(hexti->Line));
 485:Drivers/STM32F4xx_HAL_Driver/Src/stm32f4xx_hal_exti.c ****   assert_param(IS_EXTI_CONFIG_LINE(hexti->Line));
 486:Drivers/STM32F4xx_HAL_Driver/Src/stm32f4xx_hal_exti.c ****   assert_param(IS_EXTI_PENDING_EDGE(Edge));
 487:Drivers/STM32F4xx_HAL_Driver/Src/stm32f4xx_hal_exti.c **** 
 488:Drivers/STM32F4xx_HAL_Driver/Src/stm32f4xx_hal_exti.c ****   /* Compute line mask */
 489:Drivers/STM32F4xx_HAL_Driver/Src/stm32f4xx_hal_exti.c ****   linepos = (hexti->Line & EXTI_PIN_MASK);
 887              		.loc 1 489 19
 888 000a 7B68     		ldr	r3, [r7, #4]
 889 000c 1B68     		ldr	r3, [r3]
 890              		.loc 1 489 11
 891 000e 03F01F03 		and	r3, r3, #31
 892 0012 7B61     		str	r3, [r7, #20]
ARM GAS  /var/folders/vq/qt4vp3kd5rxf7v2b6_fdtdt80000gn/T//ccYRRUak.s 			page 25


 490:Drivers/STM32F4xx_HAL_Driver/Src/stm32f4xx_hal_exti.c ****   maskline = (1uL << linepos);
 893              		.loc 1 490 12
 894 0014 0122     		movs	r2, #1
 895 0016 7B69     		ldr	r3, [r7, #20]
 896 0018 02FA03F3 		lsl	r3, r2, r3
 897 001c 3B61     		str	r3, [r7, #16]
 491:Drivers/STM32F4xx_HAL_Driver/Src/stm32f4xx_hal_exti.c **** 
 492:Drivers/STM32F4xx_HAL_Driver/Src/stm32f4xx_hal_exti.c ****   /* return 1 if bit is set else 0 */
 493:Drivers/STM32F4xx_HAL_Driver/Src/stm32f4xx_hal_exti.c ****   regval = ((EXTI->PR & maskline) >> linepos);
 898              		.loc 1 493 18
 899 001e 074B     		ldr	r3, .L51
 900 0020 5A69     		ldr	r2, [r3, #20]
 901              		.loc 1 493 23
 902 0022 3B69     		ldr	r3, [r7, #16]
 903 0024 1A40     		ands	r2, r2, r3
 904              		.loc 1 493 10
 905 0026 7B69     		ldr	r3, [r7, #20]
 906 0028 22FA03F3 		lsr	r3, r2, r3
 907 002c FB60     		str	r3, [r7, #12]
 494:Drivers/STM32F4xx_HAL_Driver/Src/stm32f4xx_hal_exti.c ****   return regval;
 908              		.loc 1 494 10
 909 002e FB68     		ldr	r3, [r7, #12]
 495:Drivers/STM32F4xx_HAL_Driver/Src/stm32f4xx_hal_exti.c **** }
 910              		.loc 1 495 1
 911 0030 1846     		mov	r0, r3
 912 0032 1C37     		adds	r7, r7, #28
 913              	.LCFI38:
 914              		.cfi_def_cfa_offset 4
 915 0034 BD46     		mov	sp, r7
 916              	.LCFI39:
 917              		.cfi_def_cfa_register 13
 918              		@ sp needed
 919 0036 5DF8047B 		ldr	r7, [sp], #4
 920              	.LCFI40:
 921              		.cfi_restore 7
 922              		.cfi_def_cfa_offset 0
 923 003a 7047     		bx	lr
 924              	.L52:
 925              		.align	2
 926              	.L51:
 927 003c 003C0140 		.word	1073822720
 928              		.cfi_endproc
 929              	.LFE136:
 931              		.section	.text.HAL_EXTI_ClearPending,"ax",%progbits
 932              		.align	1
 933              		.global	HAL_EXTI_ClearPending
 934              		.syntax unified
 935              		.thumb
 936              		.thumb_func
 937              		.fpu fpv4-sp-d16
 939              	HAL_EXTI_ClearPending:
 940              	.LFB137:
 496:Drivers/STM32F4xx_HAL_Driver/Src/stm32f4xx_hal_exti.c **** 
 497:Drivers/STM32F4xx_HAL_Driver/Src/stm32f4xx_hal_exti.c **** /**
 498:Drivers/STM32F4xx_HAL_Driver/Src/stm32f4xx_hal_exti.c ****   * @brief  Clear interrupt pending bit of a dedicated line.
 499:Drivers/STM32F4xx_HAL_Driver/Src/stm32f4xx_hal_exti.c ****   * @param  hexti Exti handle.
 500:Drivers/STM32F4xx_HAL_Driver/Src/stm32f4xx_hal_exti.c ****   * @param  Edge Specify which pending edge as to be clear.
ARM GAS  /var/folders/vq/qt4vp3kd5rxf7v2b6_fdtdt80000gn/T//ccYRRUak.s 			page 26


 501:Drivers/STM32F4xx_HAL_Driver/Src/stm32f4xx_hal_exti.c ****   *         This parameter can be one of the following values:
 502:Drivers/STM32F4xx_HAL_Driver/Src/stm32f4xx_hal_exti.c ****   *           @arg @ref EXTI_TRIGGER_RISING_FALLING
 503:Drivers/STM32F4xx_HAL_Driver/Src/stm32f4xx_hal_exti.c ****   *         This parameter is kept for compatibility with other series.
 504:Drivers/STM32F4xx_HAL_Driver/Src/stm32f4xx_hal_exti.c ****   * @retval None.
 505:Drivers/STM32F4xx_HAL_Driver/Src/stm32f4xx_hal_exti.c ****   */
 506:Drivers/STM32F4xx_HAL_Driver/Src/stm32f4xx_hal_exti.c **** void HAL_EXTI_ClearPending(EXTI_HandleTypeDef *hexti, uint32_t Edge)
 507:Drivers/STM32F4xx_HAL_Driver/Src/stm32f4xx_hal_exti.c **** {
 941              		.loc 1 507 1
 942              		.cfi_startproc
 943              		@ args = 0, pretend = 0, frame = 16
 944              		@ frame_needed = 1, uses_anonymous_args = 0
 945              		@ link register save eliminated.
 946 0000 80B4     		push	{r7}
 947              	.LCFI41:
 948              		.cfi_def_cfa_offset 4
 949              		.cfi_offset 7, -4
 950 0002 85B0     		sub	sp, sp, #20
 951              	.LCFI42:
 952              		.cfi_def_cfa_offset 24
 953 0004 00AF     		add	r7, sp, #0
 954              	.LCFI43:
 955              		.cfi_def_cfa_register 7
 956 0006 7860     		str	r0, [r7, #4]
 957 0008 3960     		str	r1, [r7]
 508:Drivers/STM32F4xx_HAL_Driver/Src/stm32f4xx_hal_exti.c ****   uint32_t maskline;
 509:Drivers/STM32F4xx_HAL_Driver/Src/stm32f4xx_hal_exti.c **** 
 510:Drivers/STM32F4xx_HAL_Driver/Src/stm32f4xx_hal_exti.c ****   /* Check parameters */
 511:Drivers/STM32F4xx_HAL_Driver/Src/stm32f4xx_hal_exti.c ****   assert_param(IS_EXTI_LINE(hexti->Line));
 512:Drivers/STM32F4xx_HAL_Driver/Src/stm32f4xx_hal_exti.c ****   assert_param(IS_EXTI_CONFIG_LINE(hexti->Line));
 513:Drivers/STM32F4xx_HAL_Driver/Src/stm32f4xx_hal_exti.c ****   assert_param(IS_EXTI_PENDING_EDGE(Edge));
 514:Drivers/STM32F4xx_HAL_Driver/Src/stm32f4xx_hal_exti.c **** 
 515:Drivers/STM32F4xx_HAL_Driver/Src/stm32f4xx_hal_exti.c ****   /* Compute line mask */
 516:Drivers/STM32F4xx_HAL_Driver/Src/stm32f4xx_hal_exti.c ****   maskline = (1uL << (hexti->Line & EXTI_PIN_MASK));
 958              		.loc 1 516 28
 959 000a 7B68     		ldr	r3, [r7, #4]
 960 000c 1B68     		ldr	r3, [r3]
 961              		.loc 1 516 35
 962 000e 03F01F03 		and	r3, r3, #31
 963              		.loc 1 516 12
 964 0012 0122     		movs	r2, #1
 965 0014 02FA03F3 		lsl	r3, r2, r3
 966 0018 FB60     		str	r3, [r7, #12]
 517:Drivers/STM32F4xx_HAL_Driver/Src/stm32f4xx_hal_exti.c **** 
 518:Drivers/STM32F4xx_HAL_Driver/Src/stm32f4xx_hal_exti.c ****   /* Clear Pending bit */
 519:Drivers/STM32F4xx_HAL_Driver/Src/stm32f4xx_hal_exti.c ****   EXTI->PR =  maskline;
 967              		.loc 1 519 7
 968 001a 044A     		ldr	r2, .L54
 969              		.loc 1 519 12
 970 001c FB68     		ldr	r3, [r7, #12]
 971 001e 5361     		str	r3, [r2, #20]
 520:Drivers/STM32F4xx_HAL_Driver/Src/stm32f4xx_hal_exti.c **** }
 972              		.loc 1 520 1
 973 0020 00BF     		nop
 974 0022 1437     		adds	r7, r7, #20
 975              	.LCFI44:
 976              		.cfi_def_cfa_offset 4
 977 0024 BD46     		mov	sp, r7
ARM GAS  /var/folders/vq/qt4vp3kd5rxf7v2b6_fdtdt80000gn/T//ccYRRUak.s 			page 27


 978              	.LCFI45:
 979              		.cfi_def_cfa_register 13
 980              		@ sp needed
 981 0026 5DF8047B 		ldr	r7, [sp], #4
 982              	.LCFI46:
 983              		.cfi_restore 7
 984              		.cfi_def_cfa_offset 0
 985 002a 7047     		bx	lr
 986              	.L55:
 987              		.align	2
 988              	.L54:
 989 002c 003C0140 		.word	1073822720
 990              		.cfi_endproc
 991              	.LFE137:
 993              		.section	.text.HAL_EXTI_GenerateSWI,"ax",%progbits
 994              		.align	1
 995              		.global	HAL_EXTI_GenerateSWI
 996              		.syntax unified
 997              		.thumb
 998              		.thumb_func
 999              		.fpu fpv4-sp-d16
 1001              	HAL_EXTI_GenerateSWI:
 1002              	.LFB138:
 521:Drivers/STM32F4xx_HAL_Driver/Src/stm32f4xx_hal_exti.c **** 
 522:Drivers/STM32F4xx_HAL_Driver/Src/stm32f4xx_hal_exti.c **** /**
 523:Drivers/STM32F4xx_HAL_Driver/Src/stm32f4xx_hal_exti.c ****   * @brief  Generate a software interrupt for a dedicated line.
 524:Drivers/STM32F4xx_HAL_Driver/Src/stm32f4xx_hal_exti.c ****   * @param  hexti Exti handle.
 525:Drivers/STM32F4xx_HAL_Driver/Src/stm32f4xx_hal_exti.c ****   * @retval None.
 526:Drivers/STM32F4xx_HAL_Driver/Src/stm32f4xx_hal_exti.c ****   */
 527:Drivers/STM32F4xx_HAL_Driver/Src/stm32f4xx_hal_exti.c **** void HAL_EXTI_GenerateSWI(EXTI_HandleTypeDef *hexti)
 528:Drivers/STM32F4xx_HAL_Driver/Src/stm32f4xx_hal_exti.c **** {
 1003              		.loc 1 528 1
 1004              		.cfi_startproc
 1005              		@ args = 0, pretend = 0, frame = 16
 1006              		@ frame_needed = 1, uses_anonymous_args = 0
 1007              		@ link register save eliminated.
 1008 0000 80B4     		push	{r7}
 1009              	.LCFI47:
 1010              		.cfi_def_cfa_offset 4
 1011              		.cfi_offset 7, -4
 1012 0002 85B0     		sub	sp, sp, #20
 1013              	.LCFI48:
 1014              		.cfi_def_cfa_offset 24
 1015 0004 00AF     		add	r7, sp, #0
 1016              	.LCFI49:
 1017              		.cfi_def_cfa_register 7
 1018 0006 7860     		str	r0, [r7, #4]
 529:Drivers/STM32F4xx_HAL_Driver/Src/stm32f4xx_hal_exti.c ****   uint32_t maskline;
 530:Drivers/STM32F4xx_HAL_Driver/Src/stm32f4xx_hal_exti.c **** 
 531:Drivers/STM32F4xx_HAL_Driver/Src/stm32f4xx_hal_exti.c ****   /* Check parameters */
 532:Drivers/STM32F4xx_HAL_Driver/Src/stm32f4xx_hal_exti.c ****   assert_param(IS_EXTI_LINE(hexti->Line));
 533:Drivers/STM32F4xx_HAL_Driver/Src/stm32f4xx_hal_exti.c ****   assert_param(IS_EXTI_CONFIG_LINE(hexti->Line));
 534:Drivers/STM32F4xx_HAL_Driver/Src/stm32f4xx_hal_exti.c **** 
 535:Drivers/STM32F4xx_HAL_Driver/Src/stm32f4xx_hal_exti.c ****   /* Compute line mask */
 536:Drivers/STM32F4xx_HAL_Driver/Src/stm32f4xx_hal_exti.c ****   maskline = (1uL << (hexti->Line & EXTI_PIN_MASK));
 1019              		.loc 1 536 28
 1020 0008 7B68     		ldr	r3, [r7, #4]
ARM GAS  /var/folders/vq/qt4vp3kd5rxf7v2b6_fdtdt80000gn/T//ccYRRUak.s 			page 28


 1021 000a 1B68     		ldr	r3, [r3]
 1022              		.loc 1 536 35
 1023 000c 03F01F03 		and	r3, r3, #31
 1024              		.loc 1 536 12
 1025 0010 0122     		movs	r2, #1
 1026 0012 02FA03F3 		lsl	r3, r2, r3
 1027 0016 FB60     		str	r3, [r7, #12]
 537:Drivers/STM32F4xx_HAL_Driver/Src/stm32f4xx_hal_exti.c **** 
 538:Drivers/STM32F4xx_HAL_Driver/Src/stm32f4xx_hal_exti.c ****   /* Generate Software interrupt */
 539:Drivers/STM32F4xx_HAL_Driver/Src/stm32f4xx_hal_exti.c ****   EXTI->SWIER = maskline;
 1028              		.loc 1 539 7
 1029 0018 044A     		ldr	r2, .L57
 1030              		.loc 1 539 15
 1031 001a FB68     		ldr	r3, [r7, #12]
 1032 001c 1361     		str	r3, [r2, #16]
 540:Drivers/STM32F4xx_HAL_Driver/Src/stm32f4xx_hal_exti.c **** }
 1033              		.loc 1 540 1
 1034 001e 00BF     		nop
 1035 0020 1437     		adds	r7, r7, #20
 1036              	.LCFI50:
 1037              		.cfi_def_cfa_offset 4
 1038 0022 BD46     		mov	sp, r7
 1039              	.LCFI51:
 1040              		.cfi_def_cfa_register 13
 1041              		@ sp needed
 1042 0024 5DF8047B 		ldr	r7, [sp], #4
 1043              	.LCFI52:
 1044              		.cfi_restore 7
 1045              		.cfi_def_cfa_offset 0
 1046 0028 7047     		bx	lr
 1047              	.L58:
 1048 002a 00BF     		.align	2
 1049              	.L57:
 1050 002c 003C0140 		.word	1073822720
 1051              		.cfi_endproc
 1052              	.LFE138:
 1054              		.text
 1055              	.Letext0:
 1056              		.file 2 "/usr/local/Cellar/arm-none-eabi-gcc/9-2019-q4-major/gcc/arm-none-eabi/include/machine/_de
 1057              		.file 3 "/usr/local/Cellar/arm-none-eabi-gcc/9-2019-q4-major/gcc/arm-none-eabi/include/sys/_stdint
 1058              		.file 4 "Drivers/CMSIS/Include/core_cm4.h"
 1059              		.file 5 "Drivers/CMSIS/Device/ST/STM32F4xx/Include/system_stm32f4xx.h"
 1060              		.file 6 "Drivers/CMSIS/Device/ST/STM32F4xx/Include/stm32f407xx.h"
 1061              		.file 7 "Drivers/STM32F4xx_HAL_Driver/Inc/stm32f4xx_hal_def.h"
 1062              		.file 8 "Drivers/STM32F4xx_HAL_Driver/Inc/stm32f4xx_hal_exti.h"
 1063              		.file 9 "Drivers/STM32F4xx_HAL_Driver/Inc/stm32f4xx_hal.h"
ARM GAS  /var/folders/vq/qt4vp3kd5rxf7v2b6_fdtdt80000gn/T//ccYRRUak.s 			page 29

