ARM GAS  /var/folders/vq/qt4vp3kd5rxf7v2b6_fdtdt80000gn/T//ccifplQS.s 			page 1


   1              		.cpu cortex-m4
   2              		.eabi_attribute 27, 1
   3              		.eabi_attribute 20, 1
   4              		.eabi_attribute 21, 1
   5              		.eabi_attribute 23, 3
   6              		.eabi_attribute 24, 1
   7              		.eabi_attribute 25, 1
   8              		.eabi_attribute 26, 1
   9              		.eabi_attribute 30, 6
  10              		.eabi_attribute 34, 1
  11              		.eabi_attribute 18, 4
  12              		.file	"usbd_cdc_if.c"
  13              		.text
  14              	.Ltext0:
  15              		.cfi_sections	.debug_frame
  16              		.comm	UserRxBufferFS,2048,4
  17              		.comm	UserTxBufferFS,2048,4
  18              		.global	USBD_Interface_fops_FS
  19              		.section	.data.USBD_Interface_fops_FS,"aw"
  20              		.align	2
  23              	USBD_Interface_fops_FS:
  24 0000 00000000 		.word	CDC_Init_FS
  25 0004 00000000 		.word	CDC_DeInit_FS
  26 0008 00000000 		.word	CDC_Control_FS
  27 000c 00000000 		.word	CDC_Receive_FS
  28 0010 00000000 		.word	CDC_TransmitCplt_FS
  29              		.section	.text.CDC_Init_FS,"ax",%progbits
  30              		.align	1
  31              		.arch armv7e-m
  32              		.syntax unified
  33              		.thumb
  34              		.thumb_func
  35              		.fpu fpv4-sp-d16
  37              	CDC_Init_FS:
  38              	.LFB134:
  39              		.file 1 "USB_DEVICE/App/usbd_cdc_if.c"
   1:USB_DEVICE/App/usbd_cdc_if.c **** /* USER CODE BEGIN Header */
   2:USB_DEVICE/App/usbd_cdc_if.c **** /**
   3:USB_DEVICE/App/usbd_cdc_if.c ****   ******************************************************************************
   4:USB_DEVICE/App/usbd_cdc_if.c ****   * @file           : usbd_cdc_if.c
   5:USB_DEVICE/App/usbd_cdc_if.c ****   * @version        : v1.0_Cube
   6:USB_DEVICE/App/usbd_cdc_if.c ****   * @brief          : Usb device for Virtual Com Port.
   7:USB_DEVICE/App/usbd_cdc_if.c ****   ******************************************************************************
   8:USB_DEVICE/App/usbd_cdc_if.c ****   * @attention
   9:USB_DEVICE/App/usbd_cdc_if.c ****   *
  10:USB_DEVICE/App/usbd_cdc_if.c ****   * <h2><center>&copy; Copyright (c) 2021 STMicroelectronics.
  11:USB_DEVICE/App/usbd_cdc_if.c ****   * All rights reserved.</center></h2>
  12:USB_DEVICE/App/usbd_cdc_if.c ****   *
  13:USB_DEVICE/App/usbd_cdc_if.c ****   * This software component is licensed by ST under Ultimate Liberty license
  14:USB_DEVICE/App/usbd_cdc_if.c ****   * SLA0044, the "License"; You may not use this file except in compliance with
  15:USB_DEVICE/App/usbd_cdc_if.c ****   * the License. You may obtain a copy of the License at:
  16:USB_DEVICE/App/usbd_cdc_if.c ****   *                             www.st.com/SLA0044
  17:USB_DEVICE/App/usbd_cdc_if.c ****   *
  18:USB_DEVICE/App/usbd_cdc_if.c ****   ******************************************************************************
  19:USB_DEVICE/App/usbd_cdc_if.c ****   */
  20:USB_DEVICE/App/usbd_cdc_if.c **** /* USER CODE END Header */
  21:USB_DEVICE/App/usbd_cdc_if.c **** 
ARM GAS  /var/folders/vq/qt4vp3kd5rxf7v2b6_fdtdt80000gn/T//ccifplQS.s 			page 2


  22:USB_DEVICE/App/usbd_cdc_if.c **** /* Includes ------------------------------------------------------------------*/
  23:USB_DEVICE/App/usbd_cdc_if.c **** #include "usbd_cdc_if.h"
  24:USB_DEVICE/App/usbd_cdc_if.c **** #include <string.h>
  25:USB_DEVICE/App/usbd_cdc_if.c **** 
  26:USB_DEVICE/App/usbd_cdc_if.c **** /* USER CODE BEGIN INCLUDE */
  27:USB_DEVICE/App/usbd_cdc_if.c **** 
  28:USB_DEVICE/App/usbd_cdc_if.c **** /* USER CODE END INCLUDE */
  29:USB_DEVICE/App/usbd_cdc_if.c **** 
  30:USB_DEVICE/App/usbd_cdc_if.c **** /* Private typedef -----------------------------------------------------------*/
  31:USB_DEVICE/App/usbd_cdc_if.c **** /* Private define ------------------------------------------------------------*/
  32:USB_DEVICE/App/usbd_cdc_if.c **** /* Private macro -------------------------------------------------------------*/
  33:USB_DEVICE/App/usbd_cdc_if.c **** 
  34:USB_DEVICE/App/usbd_cdc_if.c **** /* USER CODE BEGIN PV */
  35:USB_DEVICE/App/usbd_cdc_if.c **** /* Private variables ---------------------------------------------------------*/
  36:USB_DEVICE/App/usbd_cdc_if.c **** //uint8_t buffer[7];
  37:USB_DEVICE/App/usbd_cdc_if.c **** /* USER CODE END PV */
  38:USB_DEVICE/App/usbd_cdc_if.c **** 
  39:USB_DEVICE/App/usbd_cdc_if.c **** /** @addtogroup STM32_USB_OTG_DEVICE_LIBRARY
  40:USB_DEVICE/App/usbd_cdc_if.c ****   * @brief Usb device library.
  41:USB_DEVICE/App/usbd_cdc_if.c ****   * @{
  42:USB_DEVICE/App/usbd_cdc_if.c ****   */
  43:USB_DEVICE/App/usbd_cdc_if.c **** 
  44:USB_DEVICE/App/usbd_cdc_if.c **** /** @addtogroup USBD_CDC_IF
  45:USB_DEVICE/App/usbd_cdc_if.c ****   * @{
  46:USB_DEVICE/App/usbd_cdc_if.c ****   */
  47:USB_DEVICE/App/usbd_cdc_if.c **** 
  48:USB_DEVICE/App/usbd_cdc_if.c **** /** @defgroup USBD_CDC_IF_Private_TypesDefinitions USBD_CDC_IF_Private_TypesDefinitions
  49:USB_DEVICE/App/usbd_cdc_if.c ****   * @brief Private types.
  50:USB_DEVICE/App/usbd_cdc_if.c ****   * @{
  51:USB_DEVICE/App/usbd_cdc_if.c ****   */
  52:USB_DEVICE/App/usbd_cdc_if.c **** 
  53:USB_DEVICE/App/usbd_cdc_if.c **** /* USER CODE BEGIN PRIVATE_TYPES */
  54:USB_DEVICE/App/usbd_cdc_if.c **** 
  55:USB_DEVICE/App/usbd_cdc_if.c **** /* USER CODE END PRIVATE_TYPES */
  56:USB_DEVICE/App/usbd_cdc_if.c **** 
  57:USB_DEVICE/App/usbd_cdc_if.c **** /**
  58:USB_DEVICE/App/usbd_cdc_if.c ****   * @}
  59:USB_DEVICE/App/usbd_cdc_if.c ****   */
  60:USB_DEVICE/App/usbd_cdc_if.c **** 
  61:USB_DEVICE/App/usbd_cdc_if.c **** /** @defgroup USBD_CDC_IF_Private_Defines USBD_CDC_IF_Private_Defines
  62:USB_DEVICE/App/usbd_cdc_if.c ****   * @brief Private defines.
  63:USB_DEVICE/App/usbd_cdc_if.c ****   * @{
  64:USB_DEVICE/App/usbd_cdc_if.c ****   */
  65:USB_DEVICE/App/usbd_cdc_if.c **** 
  66:USB_DEVICE/App/usbd_cdc_if.c **** /* USER CODE BEGIN PRIVATE_DEFINES */
  67:USB_DEVICE/App/usbd_cdc_if.c **** /* USER CODE END PRIVATE_DEFINES */
  68:USB_DEVICE/App/usbd_cdc_if.c **** 
  69:USB_DEVICE/App/usbd_cdc_if.c **** /**
  70:USB_DEVICE/App/usbd_cdc_if.c ****   * @}
  71:USB_DEVICE/App/usbd_cdc_if.c ****   */
  72:USB_DEVICE/App/usbd_cdc_if.c **** 
  73:USB_DEVICE/App/usbd_cdc_if.c **** /** @defgroup USBD_CDC_IF_Private_Macros USBD_CDC_IF_Private_Macros
  74:USB_DEVICE/App/usbd_cdc_if.c ****   * @brief Private macros.
  75:USB_DEVICE/App/usbd_cdc_if.c ****   * @{
  76:USB_DEVICE/App/usbd_cdc_if.c ****   */
  77:USB_DEVICE/App/usbd_cdc_if.c **** 
  78:USB_DEVICE/App/usbd_cdc_if.c **** /* USER CODE BEGIN PRIVATE_MACRO */
ARM GAS  /var/folders/vq/qt4vp3kd5rxf7v2b6_fdtdt80000gn/T//ccifplQS.s 			page 3


  79:USB_DEVICE/App/usbd_cdc_if.c **** 
  80:USB_DEVICE/App/usbd_cdc_if.c **** /* USER CODE END PRIVATE_MACRO */
  81:USB_DEVICE/App/usbd_cdc_if.c **** 
  82:USB_DEVICE/App/usbd_cdc_if.c **** /**
  83:USB_DEVICE/App/usbd_cdc_if.c ****   * @}
  84:USB_DEVICE/App/usbd_cdc_if.c ****   */
  85:USB_DEVICE/App/usbd_cdc_if.c **** 
  86:USB_DEVICE/App/usbd_cdc_if.c **** /** @defgroup USBD_CDC_IF_Private_Variables USBD_CDC_IF_Private_Variables
  87:USB_DEVICE/App/usbd_cdc_if.c ****   * @brief Private variables.
  88:USB_DEVICE/App/usbd_cdc_if.c ****   * @{
  89:USB_DEVICE/App/usbd_cdc_if.c ****   */
  90:USB_DEVICE/App/usbd_cdc_if.c **** /* Create buffer for reception and transmission           */
  91:USB_DEVICE/App/usbd_cdc_if.c **** /* It's up to user to redefine and/or remove those define */
  92:USB_DEVICE/App/usbd_cdc_if.c **** /** Received data over USB are stored in this buffer      */
  93:USB_DEVICE/App/usbd_cdc_if.c **** uint8_t UserRxBufferFS[APP_RX_DATA_SIZE];
  94:USB_DEVICE/App/usbd_cdc_if.c **** 
  95:USB_DEVICE/App/usbd_cdc_if.c **** /** Data to send over USB CDC are stored in this buffer   */
  96:USB_DEVICE/App/usbd_cdc_if.c **** uint8_t UserTxBufferFS[APP_TX_DATA_SIZE];
  97:USB_DEVICE/App/usbd_cdc_if.c **** 
  98:USB_DEVICE/App/usbd_cdc_if.c **** /* USER CODE BEGIN PRIVATE_VARIABLES */
  99:USB_DEVICE/App/usbd_cdc_if.c **** 
 100:USB_DEVICE/App/usbd_cdc_if.c **** /* USER CODE END PRIVATE_VARIABLES */
 101:USB_DEVICE/App/usbd_cdc_if.c **** 
 102:USB_DEVICE/App/usbd_cdc_if.c **** /**
 103:USB_DEVICE/App/usbd_cdc_if.c ****   * @}
 104:USB_DEVICE/App/usbd_cdc_if.c ****   */
 105:USB_DEVICE/App/usbd_cdc_if.c **** 
 106:USB_DEVICE/App/usbd_cdc_if.c **** /** @defgroup USBD_CDC_IF_Exported_Variables USBD_CDC_IF_Exported_Variables
 107:USB_DEVICE/App/usbd_cdc_if.c ****   * @brief Public variables.
 108:USB_DEVICE/App/usbd_cdc_if.c ****   * @{
 109:USB_DEVICE/App/usbd_cdc_if.c ****   */
 110:USB_DEVICE/App/usbd_cdc_if.c **** 
 111:USB_DEVICE/App/usbd_cdc_if.c **** extern USBD_HandleTypeDef hUsbDeviceFS;
 112:USB_DEVICE/App/usbd_cdc_if.c **** 
 113:USB_DEVICE/App/usbd_cdc_if.c **** /* USER CODE BEGIN EXPORTED_VARIABLES */
 114:USB_DEVICE/App/usbd_cdc_if.c **** 
 115:USB_DEVICE/App/usbd_cdc_if.c **** /* USER CODE END EXPORTED_VARIABLES */
 116:USB_DEVICE/App/usbd_cdc_if.c **** 
 117:USB_DEVICE/App/usbd_cdc_if.c **** /**
 118:USB_DEVICE/App/usbd_cdc_if.c ****   * @}
 119:USB_DEVICE/App/usbd_cdc_if.c ****   */
 120:USB_DEVICE/App/usbd_cdc_if.c **** 
 121:USB_DEVICE/App/usbd_cdc_if.c **** /** @defgroup USBD_CDC_IF_Private_FunctionPrototypes USBD_CDC_IF_Private_FunctionPrototypes
 122:USB_DEVICE/App/usbd_cdc_if.c ****   * @brief Private functions declaration.
 123:USB_DEVICE/App/usbd_cdc_if.c ****   * @{
 124:USB_DEVICE/App/usbd_cdc_if.c ****   */
 125:USB_DEVICE/App/usbd_cdc_if.c **** 
 126:USB_DEVICE/App/usbd_cdc_if.c **** static int8_t CDC_Init_FS(void);
 127:USB_DEVICE/App/usbd_cdc_if.c **** static int8_t CDC_DeInit_FS(void);
 128:USB_DEVICE/App/usbd_cdc_if.c **** static int8_t CDC_Control_FS(uint8_t cmd, uint8_t* pbuf, uint16_t length);
 129:USB_DEVICE/App/usbd_cdc_if.c **** static int8_t CDC_Receive_FS(uint8_t* pbuf, uint32_t *Len);
 130:USB_DEVICE/App/usbd_cdc_if.c **** static int8_t CDC_TransmitCplt_FS(uint8_t *pbuf, uint32_t *Len, uint8_t epnum);
 131:USB_DEVICE/App/usbd_cdc_if.c **** 
 132:USB_DEVICE/App/usbd_cdc_if.c **** /* USER CODE BEGIN PRIVATE_FUNCTIONS_DECLARATION */
 133:USB_DEVICE/App/usbd_cdc_if.c **** 
 134:USB_DEVICE/App/usbd_cdc_if.c **** /* USER CODE END PRIVATE_FUNCTIONS_DECLARATION */
 135:USB_DEVICE/App/usbd_cdc_if.c **** 
ARM GAS  /var/folders/vq/qt4vp3kd5rxf7v2b6_fdtdt80000gn/T//ccifplQS.s 			page 4


 136:USB_DEVICE/App/usbd_cdc_if.c **** /**
 137:USB_DEVICE/App/usbd_cdc_if.c ****   * @}
 138:USB_DEVICE/App/usbd_cdc_if.c ****   */
 139:USB_DEVICE/App/usbd_cdc_if.c **** 
 140:USB_DEVICE/App/usbd_cdc_if.c **** USBD_CDC_ItfTypeDef USBD_Interface_fops_FS =
 141:USB_DEVICE/App/usbd_cdc_if.c **** {
 142:USB_DEVICE/App/usbd_cdc_if.c ****   CDC_Init_FS,
 143:USB_DEVICE/App/usbd_cdc_if.c ****   CDC_DeInit_FS,
 144:USB_DEVICE/App/usbd_cdc_if.c ****   CDC_Control_FS,
 145:USB_DEVICE/App/usbd_cdc_if.c ****   CDC_Receive_FS,
 146:USB_DEVICE/App/usbd_cdc_if.c ****   CDC_TransmitCplt_FS
 147:USB_DEVICE/App/usbd_cdc_if.c **** };
 148:USB_DEVICE/App/usbd_cdc_if.c **** 
 149:USB_DEVICE/App/usbd_cdc_if.c **** /* Private functions ---------------------------------------------------------*/
 150:USB_DEVICE/App/usbd_cdc_if.c **** /**
 151:USB_DEVICE/App/usbd_cdc_if.c ****   * @brief  Initializes the CDC media low layer over the FS USB IP
 152:USB_DEVICE/App/usbd_cdc_if.c ****   * @retval USBD_OK if all operations are OK else USBD_FAIL
 153:USB_DEVICE/App/usbd_cdc_if.c ****   */
 154:USB_DEVICE/App/usbd_cdc_if.c **** static int8_t CDC_Init_FS(void)
 155:USB_DEVICE/App/usbd_cdc_if.c **** {
  40              		.loc 1 155 1
  41              		.cfi_startproc
  42              		@ args = 0, pretend = 0, frame = 0
  43              		@ frame_needed = 1, uses_anonymous_args = 0
  44 0000 80B5     		push	{r7, lr}
  45              	.LCFI0:
  46              		.cfi_def_cfa_offset 8
  47              		.cfi_offset 7, -8
  48              		.cfi_offset 14, -4
  49 0002 00AF     		add	r7, sp, #0
  50              	.LCFI1:
  51              		.cfi_def_cfa_register 7
 156:USB_DEVICE/App/usbd_cdc_if.c ****   /* USER CODE BEGIN 3 */
 157:USB_DEVICE/App/usbd_cdc_if.c ****   /* Set Application Buffers */
 158:USB_DEVICE/App/usbd_cdc_if.c ****   USBD_CDC_SetTxBuffer(&hUsbDeviceFS, UserTxBufferFS, 0);
  52              		.loc 1 158 3
  53 0004 0022     		movs	r2, #0
  54 0006 0549     		ldr	r1, .L3
  55 0008 0548     		ldr	r0, .L3+4
  56 000a FFF7FEFF 		bl	USBD_CDC_SetTxBuffer
 159:USB_DEVICE/App/usbd_cdc_if.c ****   USBD_CDC_SetRxBuffer(&hUsbDeviceFS, UserRxBufferFS);
  57              		.loc 1 159 3
  58 000e 0549     		ldr	r1, .L3+8
  59 0010 0348     		ldr	r0, .L3+4
  60 0012 FFF7FEFF 		bl	USBD_CDC_SetRxBuffer
 160:USB_DEVICE/App/usbd_cdc_if.c ****   return (USBD_OK);
  61              		.loc 1 160 10
  62 0016 0023     		movs	r3, #0
 161:USB_DEVICE/App/usbd_cdc_if.c ****   /* USER CODE END 3 */
 162:USB_DEVICE/App/usbd_cdc_if.c **** }
  63              		.loc 1 162 1
  64 0018 1846     		mov	r0, r3
  65 001a 80BD     		pop	{r7, pc}
  66              	.L4:
  67              		.align	2
  68              	.L3:
  69 001c 00000000 		.word	UserTxBufferFS
ARM GAS  /var/folders/vq/qt4vp3kd5rxf7v2b6_fdtdt80000gn/T//ccifplQS.s 			page 5


  70 0020 00000000 		.word	hUsbDeviceFS
  71 0024 00000000 		.word	UserRxBufferFS
  72              		.cfi_endproc
  73              	.LFE134:
  75              		.section	.text.CDC_DeInit_FS,"ax",%progbits
  76              		.align	1
  77              		.syntax unified
  78              		.thumb
  79              		.thumb_func
  80              		.fpu fpv4-sp-d16
  82              	CDC_DeInit_FS:
  83              	.LFB135:
 163:USB_DEVICE/App/usbd_cdc_if.c **** 
 164:USB_DEVICE/App/usbd_cdc_if.c **** /**
 165:USB_DEVICE/App/usbd_cdc_if.c ****   * @brief  DeInitializes the CDC media low layer
 166:USB_DEVICE/App/usbd_cdc_if.c ****   * @retval USBD_OK if all operations are OK else USBD_FAIL
 167:USB_DEVICE/App/usbd_cdc_if.c ****   */
 168:USB_DEVICE/App/usbd_cdc_if.c **** static int8_t CDC_DeInit_FS(void)
 169:USB_DEVICE/App/usbd_cdc_if.c **** {
  84              		.loc 1 169 1
  85              		.cfi_startproc
  86              		@ args = 0, pretend = 0, frame = 0
  87              		@ frame_needed = 1, uses_anonymous_args = 0
  88              		@ link register save eliminated.
  89 0000 80B4     		push	{r7}
  90              	.LCFI2:
  91              		.cfi_def_cfa_offset 4
  92              		.cfi_offset 7, -4
  93 0002 00AF     		add	r7, sp, #0
  94              	.LCFI3:
  95              		.cfi_def_cfa_register 7
 170:USB_DEVICE/App/usbd_cdc_if.c ****   /* USER CODE BEGIN 4 */
 171:USB_DEVICE/App/usbd_cdc_if.c ****   return (USBD_OK);
  96              		.loc 1 171 10
  97 0004 0023     		movs	r3, #0
 172:USB_DEVICE/App/usbd_cdc_if.c ****   /* USER CODE END 4 */
 173:USB_DEVICE/App/usbd_cdc_if.c **** }
  98              		.loc 1 173 1
  99 0006 1846     		mov	r0, r3
 100 0008 BD46     		mov	sp, r7
 101              	.LCFI4:
 102              		.cfi_def_cfa_register 13
 103              		@ sp needed
 104 000a 5DF8047B 		ldr	r7, [sp], #4
 105              	.LCFI5:
 106              		.cfi_restore 7
 107              		.cfi_def_cfa_offset 0
 108 000e 7047     		bx	lr
 109              		.cfi_endproc
 110              	.LFE135:
 112              		.section	.text.CDC_Control_FS,"ax",%progbits
 113              		.align	1
 114              		.syntax unified
 115              		.thumb
 116              		.thumb_func
 117              		.fpu fpv4-sp-d16
 119              	CDC_Control_FS:
ARM GAS  /var/folders/vq/qt4vp3kd5rxf7v2b6_fdtdt80000gn/T//ccifplQS.s 			page 6


 120              	.LFB136:
 174:USB_DEVICE/App/usbd_cdc_if.c **** 
 175:USB_DEVICE/App/usbd_cdc_if.c **** /**
 176:USB_DEVICE/App/usbd_cdc_if.c ****   * @brief  Manage the CDC class requests
 177:USB_DEVICE/App/usbd_cdc_if.c ****   * @param  cmd: Command code
 178:USB_DEVICE/App/usbd_cdc_if.c ****   * @param  pbuf: Buffer containing command data (request parameters)
 179:USB_DEVICE/App/usbd_cdc_if.c ****   * @param  length: Number of data to be sent (in bytes)
 180:USB_DEVICE/App/usbd_cdc_if.c ****   * @retval Result of the operation: USBD_OK if all operations are OK else USBD_FAIL
 181:USB_DEVICE/App/usbd_cdc_if.c ****   */
 182:USB_DEVICE/App/usbd_cdc_if.c **** static int8_t CDC_Control_FS(uint8_t cmd, uint8_t* pbuf, uint16_t length)
 183:USB_DEVICE/App/usbd_cdc_if.c **** {
 121              		.loc 1 183 1
 122              		.cfi_startproc
 123              		@ args = 0, pretend = 0, frame = 8
 124              		@ frame_needed = 1, uses_anonymous_args = 0
 125              		@ link register save eliminated.
 126 0000 80B4     		push	{r7}
 127              	.LCFI6:
 128              		.cfi_def_cfa_offset 4
 129              		.cfi_offset 7, -4
 130 0002 83B0     		sub	sp, sp, #12
 131              	.LCFI7:
 132              		.cfi_def_cfa_offset 16
 133 0004 00AF     		add	r7, sp, #0
 134              	.LCFI8:
 135              		.cfi_def_cfa_register 7
 136 0006 0346     		mov	r3, r0
 137 0008 3960     		str	r1, [r7]
 138 000a FB71     		strb	r3, [r7, #7]
 139 000c 1346     		mov	r3, r2	@ movhi
 140 000e BB80     		strh	r3, [r7, #4]	@ movhi
 184:USB_DEVICE/App/usbd_cdc_if.c ****   /* USER CODE BEGIN 5 */
 185:USB_DEVICE/App/usbd_cdc_if.c ****   switch(cmd)
 141              		.loc 1 185 3
 142 0010 FB79     		ldrb	r3, [r7, #7]	@ zero_extendqisi2
 143 0012 232B     		cmp	r3, #35
 144 0014 4AD8     		bhi	.L21
 145 0016 01A2     		adr	r2, .L10
 146 0018 52F823F0 		ldr	pc, [r2, r3, lsl #2]
 147              		.p2align 2
 148              	.L10:
 149 001c AD000000 		.word	.L21+1
 150 0020 AD000000 		.word	.L21+1
 151 0024 AD000000 		.word	.L21+1
 152 0028 AD000000 		.word	.L21+1
 153 002c AD000000 		.word	.L21+1
 154 0030 AD000000 		.word	.L21+1
 155 0034 AD000000 		.word	.L21+1
 156 0038 AD000000 		.word	.L21+1
 157 003c AD000000 		.word	.L21+1
 158 0040 AD000000 		.word	.L21+1
 159 0044 AD000000 		.word	.L21+1
 160 0048 AD000000 		.word	.L21+1
 161 004c AD000000 		.word	.L21+1
 162 0050 AD000000 		.word	.L21+1
 163 0054 AD000000 		.word	.L21+1
 164 0058 AD000000 		.word	.L21+1
ARM GAS  /var/folders/vq/qt4vp3kd5rxf7v2b6_fdtdt80000gn/T//ccifplQS.s 			page 7


 165 005c AD000000 		.word	.L21+1
 166 0060 AD000000 		.word	.L21+1
 167 0064 AD000000 		.word	.L21+1
 168 0068 AD000000 		.word	.L21+1
 169 006c AD000000 		.word	.L21+1
 170 0070 AD000000 		.word	.L21+1
 171 0074 AD000000 		.word	.L21+1
 172 0078 AD000000 		.word	.L21+1
 173 007c AD000000 		.word	.L21+1
 174 0080 AD000000 		.word	.L21+1
 175 0084 AD000000 		.word	.L21+1
 176 0088 AD000000 		.word	.L21+1
 177 008c AD000000 		.word	.L21+1
 178 0090 AD000000 		.word	.L21+1
 179 0094 AD000000 		.word	.L21+1
 180 0098 AD000000 		.word	.L21+1
 181 009c AD000000 		.word	.L21+1
 182 00a0 AD000000 		.word	.L21+1
 183 00a4 AD000000 		.word	.L21+1
 184 00a8 AD000000 		.word	.L21+1
 185              		.p2align 1
 186              	.L21:
 186:USB_DEVICE/App/usbd_cdc_if.c ****   {
 187:USB_DEVICE/App/usbd_cdc_if.c ****     case CDC_SEND_ENCAPSULATED_COMMAND:
 188:USB_DEVICE/App/usbd_cdc_if.c **** 
 189:USB_DEVICE/App/usbd_cdc_if.c ****     break;
 190:USB_DEVICE/App/usbd_cdc_if.c **** 
 191:USB_DEVICE/App/usbd_cdc_if.c ****     case CDC_GET_ENCAPSULATED_RESPONSE:
 192:USB_DEVICE/App/usbd_cdc_if.c **** 
 193:USB_DEVICE/App/usbd_cdc_if.c ****     break;
 194:USB_DEVICE/App/usbd_cdc_if.c **** 
 195:USB_DEVICE/App/usbd_cdc_if.c ****     case CDC_SET_COMM_FEATURE:
 196:USB_DEVICE/App/usbd_cdc_if.c **** 
 197:USB_DEVICE/App/usbd_cdc_if.c ****     break;
 198:USB_DEVICE/App/usbd_cdc_if.c **** 
 199:USB_DEVICE/App/usbd_cdc_if.c ****     case CDC_GET_COMM_FEATURE:
 200:USB_DEVICE/App/usbd_cdc_if.c **** 
 201:USB_DEVICE/App/usbd_cdc_if.c ****     break;
 202:USB_DEVICE/App/usbd_cdc_if.c **** 
 203:USB_DEVICE/App/usbd_cdc_if.c ****     case CDC_CLEAR_COMM_FEATURE:
 204:USB_DEVICE/App/usbd_cdc_if.c **** 
 205:USB_DEVICE/App/usbd_cdc_if.c ****     break;
 206:USB_DEVICE/App/usbd_cdc_if.c **** 
 207:USB_DEVICE/App/usbd_cdc_if.c ****   /*******************************************************************************/
 208:USB_DEVICE/App/usbd_cdc_if.c ****   /* Line Coding Structure                                                       */
 209:USB_DEVICE/App/usbd_cdc_if.c ****   /*-----------------------------------------------------------------------------*/
 210:USB_DEVICE/App/usbd_cdc_if.c ****   /* Offset | Field       | Size | Value  | Description                          */
 211:USB_DEVICE/App/usbd_cdc_if.c ****   /* 0      | dwDTERate   |   4  | Number |Data terminal rate, in bits per second*/
 212:USB_DEVICE/App/usbd_cdc_if.c ****   /* 4      | bCharFormat |   1  | Number | Stop bits                            */
 213:USB_DEVICE/App/usbd_cdc_if.c ****   /*                                        0 - 1 Stop bit                       */
 214:USB_DEVICE/App/usbd_cdc_if.c ****   /*                                        1 - 1.5 Stop bits                    */
 215:USB_DEVICE/App/usbd_cdc_if.c ****   /*                                        2 - 2 Stop bits                      */
 216:USB_DEVICE/App/usbd_cdc_if.c ****   /* 5      | bParityType |  1   | Number | Parity                               */
 217:USB_DEVICE/App/usbd_cdc_if.c ****   /*                                        0 - None                             */
 218:USB_DEVICE/App/usbd_cdc_if.c ****   /*                                        1 - Odd                              */
 219:USB_DEVICE/App/usbd_cdc_if.c ****   /*                                        2 - Even                             */
 220:USB_DEVICE/App/usbd_cdc_if.c ****   /*                                        3 - Mark                             */
ARM GAS  /var/folders/vq/qt4vp3kd5rxf7v2b6_fdtdt80000gn/T//ccifplQS.s 			page 8


 221:USB_DEVICE/App/usbd_cdc_if.c ****   /*                                        4 - Space                            */
 222:USB_DEVICE/App/usbd_cdc_if.c ****   /* 6      | bDataBits  |   1   | Number Data bits (5, 6, 7, 8 or 16).          */
 223:USB_DEVICE/App/usbd_cdc_if.c ****   /*******************************************************************************/
 224:USB_DEVICE/App/usbd_cdc_if.c ****     case CDC_SET_LINE_CODING:
 225:USB_DEVICE/App/usbd_cdc_if.c ****         //memcpy(buffer, pbuf, length);
 226:USB_DEVICE/App/usbd_cdc_if.c ****     break;
 227:USB_DEVICE/App/usbd_cdc_if.c **** 
 228:USB_DEVICE/App/usbd_cdc_if.c ****     case CDC_GET_LINE_CODING:
 229:USB_DEVICE/App/usbd_cdc_if.c **** 
 230:USB_DEVICE/App/usbd_cdc_if.c ****     break;
 231:USB_DEVICE/App/usbd_cdc_if.c **** 
 232:USB_DEVICE/App/usbd_cdc_if.c ****     case CDC_SET_CONTROL_LINE_STATE:
 233:USB_DEVICE/App/usbd_cdc_if.c **** 
 234:USB_DEVICE/App/usbd_cdc_if.c ****     break;
 235:USB_DEVICE/App/usbd_cdc_if.c **** 
 236:USB_DEVICE/App/usbd_cdc_if.c ****     case CDC_SEND_BREAK:
 237:USB_DEVICE/App/usbd_cdc_if.c **** 
 238:USB_DEVICE/App/usbd_cdc_if.c ****     break;
 239:USB_DEVICE/App/usbd_cdc_if.c **** 
 240:USB_DEVICE/App/usbd_cdc_if.c ****   default:
 241:USB_DEVICE/App/usbd_cdc_if.c ****     break;
 187              		.loc 1 241 5
 188 00ac 00BF     		nop
 242:USB_DEVICE/App/usbd_cdc_if.c ****   }
 243:USB_DEVICE/App/usbd_cdc_if.c **** 
 244:USB_DEVICE/App/usbd_cdc_if.c ****   return (USBD_OK);
 189              		.loc 1 244 10
 190 00ae 0023     		movs	r3, #0
 245:USB_DEVICE/App/usbd_cdc_if.c ****   /* USER CODE END 5 */
 246:USB_DEVICE/App/usbd_cdc_if.c **** }
 191              		.loc 1 246 1
 192 00b0 1846     		mov	r0, r3
 193 00b2 0C37     		adds	r7, r7, #12
 194              	.LCFI9:
 195              		.cfi_def_cfa_offset 4
 196 00b4 BD46     		mov	sp, r7
 197              	.LCFI10:
 198              		.cfi_def_cfa_register 13
 199              		@ sp needed
 200 00b6 5DF8047B 		ldr	r7, [sp], #4
 201              	.LCFI11:
 202              		.cfi_restore 7
 203              		.cfi_def_cfa_offset 0
 204 00ba 7047     		bx	lr
 205              		.cfi_endproc
 206              	.LFE136:
 208              		.section	.text.CDC_Receive_FS,"ax",%progbits
 209              		.align	1
 210              		.syntax unified
 211              		.thumb
 212              		.thumb_func
 213              		.fpu fpv4-sp-d16
 215              	CDC_Receive_FS:
 216              	.LFB137:
 247:USB_DEVICE/App/usbd_cdc_if.c **** 
 248:USB_DEVICE/App/usbd_cdc_if.c **** /**
 249:USB_DEVICE/App/usbd_cdc_if.c ****   * @brief  Data received over USB OUT endpoint are sent over CDC interface
ARM GAS  /var/folders/vq/qt4vp3kd5rxf7v2b6_fdtdt80000gn/T//ccifplQS.s 			page 9


 250:USB_DEVICE/App/usbd_cdc_if.c ****   *         through this function.
 251:USB_DEVICE/App/usbd_cdc_if.c ****   *
 252:USB_DEVICE/App/usbd_cdc_if.c ****   *         @note
 253:USB_DEVICE/App/usbd_cdc_if.c ****   *         This function will issue a NAK packet on any OUT packet received on
 254:USB_DEVICE/App/usbd_cdc_if.c ****   *         USB endpoint until exiting this function. If you exit this function
 255:USB_DEVICE/App/usbd_cdc_if.c ****   *         before transfer is complete on CDC interface (ie. using DMA controller)
 256:USB_DEVICE/App/usbd_cdc_if.c ****   *         it will result in receiving more data while previous ones are still
 257:USB_DEVICE/App/usbd_cdc_if.c ****   *         not sent.
 258:USB_DEVICE/App/usbd_cdc_if.c ****   *
 259:USB_DEVICE/App/usbd_cdc_if.c ****   * @param  Buf: Buffer of data to be received
 260:USB_DEVICE/App/usbd_cdc_if.c ****   * @param  Len: Number of data received (in bytes)
 261:USB_DEVICE/App/usbd_cdc_if.c ****   * @retval Result of the operation: USBD_OK if all operations are OK else USBD_FAIL
 262:USB_DEVICE/App/usbd_cdc_if.c ****   */
 263:USB_DEVICE/App/usbd_cdc_if.c **** static int8_t CDC_Receive_FS(uint8_t* Buf, uint32_t *Len)
 264:USB_DEVICE/App/usbd_cdc_if.c **** {
 217              		.loc 1 264 1
 218              		.cfi_startproc
 219              		@ args = 0, pretend = 0, frame = 8
 220              		@ frame_needed = 1, uses_anonymous_args = 0
 221 0000 80B5     		push	{r7, lr}
 222              	.LCFI12:
 223              		.cfi_def_cfa_offset 8
 224              		.cfi_offset 7, -8
 225              		.cfi_offset 14, -4
 226 0002 82B0     		sub	sp, sp, #8
 227              	.LCFI13:
 228              		.cfi_def_cfa_offset 16
 229 0004 00AF     		add	r7, sp, #0
 230              	.LCFI14:
 231              		.cfi_def_cfa_register 7
 232 0006 7860     		str	r0, [r7, #4]
 233 0008 3960     		str	r1, [r7]
 265:USB_DEVICE/App/usbd_cdc_if.c ****   /* USER CODE BEGIN 6 */
 266:USB_DEVICE/App/usbd_cdc_if.c ****   USBD_CDC_SetRxBuffer(&hUsbDeviceFS, &Buf[0]);
 234              		.loc 1 266 3
 235 000a 7968     		ldr	r1, [r7, #4]
 236 000c 0548     		ldr	r0, .L24
 237 000e FFF7FEFF 		bl	USBD_CDC_SetRxBuffer
 267:USB_DEVICE/App/usbd_cdc_if.c ****   USBD_CDC_ReceivePacket(&hUsbDeviceFS);
 238              		.loc 1 267 3
 239 0012 0448     		ldr	r0, .L24
 240 0014 FFF7FEFF 		bl	USBD_CDC_ReceivePacket
 268:USB_DEVICE/App/usbd_cdc_if.c **** 
 269:USB_DEVICE/App/usbd_cdc_if.c ****   //CDC_Transmit_FS(Buf, *Len);
 270:USB_DEVICE/App/usbd_cdc_if.c ****   return (USBD_OK);
 241              		.loc 1 270 10
 242 0018 0023     		movs	r3, #0
 271:USB_DEVICE/App/usbd_cdc_if.c ****   /* USER CODE END 6 */
 272:USB_DEVICE/App/usbd_cdc_if.c **** }
 243              		.loc 1 272 1
 244 001a 1846     		mov	r0, r3
 245 001c 0837     		adds	r7, r7, #8
 246              	.LCFI15:
 247              		.cfi_def_cfa_offset 8
 248 001e BD46     		mov	sp, r7
 249              	.LCFI16:
 250              		.cfi_def_cfa_register 13
ARM GAS  /var/folders/vq/qt4vp3kd5rxf7v2b6_fdtdt80000gn/T//ccifplQS.s 			page 10


 251              		@ sp needed
 252 0020 80BD     		pop	{r7, pc}
 253              	.L25:
 254 0022 00BF     		.align	2
 255              	.L24:
 256 0024 00000000 		.word	hUsbDeviceFS
 257              		.cfi_endproc
 258              	.LFE137:
 260              		.section	.text.CDC_Transmit_FS,"ax",%progbits
 261              		.align	1
 262              		.global	CDC_Transmit_FS
 263              		.syntax unified
 264              		.thumb
 265              		.thumb_func
 266              		.fpu fpv4-sp-d16
 268              	CDC_Transmit_FS:
 269              	.LFB138:
 273:USB_DEVICE/App/usbd_cdc_if.c **** 
 274:USB_DEVICE/App/usbd_cdc_if.c **** /**
 275:USB_DEVICE/App/usbd_cdc_if.c ****   * @brief  CDC_Transmit_FS
 276:USB_DEVICE/App/usbd_cdc_if.c ****   *         Data to send over USB IN endpoint are sent over CDC interface
 277:USB_DEVICE/App/usbd_cdc_if.c ****   *         through this function.
 278:USB_DEVICE/App/usbd_cdc_if.c ****   *         @note
 279:USB_DEVICE/App/usbd_cdc_if.c ****   *
 280:USB_DEVICE/App/usbd_cdc_if.c ****   *
 281:USB_DEVICE/App/usbd_cdc_if.c ****   * @param  Buf: Buffer of data to be sent
 282:USB_DEVICE/App/usbd_cdc_if.c ****   * @param  Len: Number of data to be sent (in bytes)
 283:USB_DEVICE/App/usbd_cdc_if.c ****   * @retval USBD_OK if all operations are OK else USBD_FAIL or USBD_BUSY
 284:USB_DEVICE/App/usbd_cdc_if.c ****   */
 285:USB_DEVICE/App/usbd_cdc_if.c **** uint8_t CDC_Transmit_FS(uint8_t* Buf, uint16_t Len)
 286:USB_DEVICE/App/usbd_cdc_if.c **** {
 270              		.loc 1 286 1
 271              		.cfi_startproc
 272              		@ args = 0, pretend = 0, frame = 16
 273              		@ frame_needed = 1, uses_anonymous_args = 0
 274 0000 80B5     		push	{r7, lr}
 275              	.LCFI17:
 276              		.cfi_def_cfa_offset 8
 277              		.cfi_offset 7, -8
 278              		.cfi_offset 14, -4
 279 0002 84B0     		sub	sp, sp, #16
 280              	.LCFI18:
 281              		.cfi_def_cfa_offset 24
 282 0004 00AF     		add	r7, sp, #0
 283              	.LCFI19:
 284              		.cfi_def_cfa_register 7
 285 0006 7860     		str	r0, [r7, #4]
 286 0008 0B46     		mov	r3, r1
 287 000a 7B80     		strh	r3, [r7, #2]	@ movhi
 287:USB_DEVICE/App/usbd_cdc_if.c ****   uint8_t result = USBD_OK;
 288              		.loc 1 287 11
 289 000c 0023     		movs	r3, #0
 290 000e FB73     		strb	r3, [r7, #15]
 288:USB_DEVICE/App/usbd_cdc_if.c ****   /* USER CODE BEGIN 7 */
 289:USB_DEVICE/App/usbd_cdc_if.c ****   USBD_CDC_HandleTypeDef *hcdc = (USBD_CDC_HandleTypeDef*)hUsbDeviceFS.pClassData;
 291              		.loc 1 289 27
 292 0010 0D4B     		ldr	r3, .L29
ARM GAS  /var/folders/vq/qt4vp3kd5rxf7v2b6_fdtdt80000gn/T//ccifplQS.s 			page 11


 293 0012 D3F8BC32 		ldr	r3, [r3, #700]
 294 0016 BB60     		str	r3, [r7, #8]
 290:USB_DEVICE/App/usbd_cdc_if.c ****   if (hcdc->TxState != 0){
 295              		.loc 1 290 11
 296 0018 BB68     		ldr	r3, [r7, #8]
 297 001a D3F81432 		ldr	r3, [r3, #532]
 298              		.loc 1 290 6
 299 001e 002B     		cmp	r3, #0
 300 0020 01D0     		beq	.L27
 291:USB_DEVICE/App/usbd_cdc_if.c ****     return USBD_BUSY;
 301              		.loc 1 291 12
 302 0022 0123     		movs	r3, #1
 303 0024 0BE0     		b	.L28
 304              	.L27:
 292:USB_DEVICE/App/usbd_cdc_if.c ****   }
 293:USB_DEVICE/App/usbd_cdc_if.c ****   USBD_CDC_SetTxBuffer(&hUsbDeviceFS, Buf, Len);
 305              		.loc 1 293 3
 306 0026 7B88     		ldrh	r3, [r7, #2]
 307 0028 1A46     		mov	r2, r3
 308 002a 7968     		ldr	r1, [r7, #4]
 309 002c 0648     		ldr	r0, .L29
 310 002e FFF7FEFF 		bl	USBD_CDC_SetTxBuffer
 294:USB_DEVICE/App/usbd_cdc_if.c ****   result = USBD_CDC_TransmitPacket(&hUsbDeviceFS);
 311              		.loc 1 294 12
 312 0032 0548     		ldr	r0, .L29
 313 0034 FFF7FEFF 		bl	USBD_CDC_TransmitPacket
 314 0038 0346     		mov	r3, r0
 315 003a FB73     		strb	r3, [r7, #15]
 295:USB_DEVICE/App/usbd_cdc_if.c ****   /* USER CODE END 7 */
 296:USB_DEVICE/App/usbd_cdc_if.c ****   return result;
 316              		.loc 1 296 10
 317 003c FB7B     		ldrb	r3, [r7, #15]	@ zero_extendqisi2
 318              	.L28:
 297:USB_DEVICE/App/usbd_cdc_if.c **** }
 319              		.loc 1 297 1
 320 003e 1846     		mov	r0, r3
 321 0040 1037     		adds	r7, r7, #16
 322              	.LCFI20:
 323              		.cfi_def_cfa_offset 8
 324 0042 BD46     		mov	sp, r7
 325              	.LCFI21:
 326              		.cfi_def_cfa_register 13
 327              		@ sp needed
 328 0044 80BD     		pop	{r7, pc}
 329              	.L30:
 330 0046 00BF     		.align	2
 331              	.L29:
 332 0048 00000000 		.word	hUsbDeviceFS
 333              		.cfi_endproc
 334              	.LFE138:
 336              		.section	.text.CDC_TransmitCplt_FS,"ax",%progbits
 337              		.align	1
 338              		.syntax unified
 339              		.thumb
 340              		.thumb_func
 341              		.fpu fpv4-sp-d16
 343              	CDC_TransmitCplt_FS:
ARM GAS  /var/folders/vq/qt4vp3kd5rxf7v2b6_fdtdt80000gn/T//ccifplQS.s 			page 12


 344              	.LFB139:
 298:USB_DEVICE/App/usbd_cdc_if.c **** 
 299:USB_DEVICE/App/usbd_cdc_if.c **** /**
 300:USB_DEVICE/App/usbd_cdc_if.c ****   * @brief  CDC_TransmitCplt_FS
 301:USB_DEVICE/App/usbd_cdc_if.c ****   *         Data transmited callback
 302:USB_DEVICE/App/usbd_cdc_if.c ****   *
 303:USB_DEVICE/App/usbd_cdc_if.c ****   *         @note
 304:USB_DEVICE/App/usbd_cdc_if.c ****   *         This function is IN transfer complete callback used to inform user that
 305:USB_DEVICE/App/usbd_cdc_if.c ****   *         the submitted Data is successfully sent over USB.
 306:USB_DEVICE/App/usbd_cdc_if.c ****   *
 307:USB_DEVICE/App/usbd_cdc_if.c ****   * @param  Buf: Buffer of data to be received
 308:USB_DEVICE/App/usbd_cdc_if.c ****   * @param  Len: Number of data received (in bytes)
 309:USB_DEVICE/App/usbd_cdc_if.c ****   * @retval Result of the operation: USBD_OK if all operations are OK else USBD_FAIL
 310:USB_DEVICE/App/usbd_cdc_if.c ****   */
 311:USB_DEVICE/App/usbd_cdc_if.c **** static int8_t CDC_TransmitCplt_FS(uint8_t *Buf, uint32_t *Len, uint8_t epnum)
 312:USB_DEVICE/App/usbd_cdc_if.c **** {
 345              		.loc 1 312 1
 346              		.cfi_startproc
 347              		@ args = 0, pretend = 0, frame = 24
 348              		@ frame_needed = 1, uses_anonymous_args = 0
 349              		@ link register save eliminated.
 350 0000 80B4     		push	{r7}
 351              	.LCFI22:
 352              		.cfi_def_cfa_offset 4
 353              		.cfi_offset 7, -4
 354 0002 87B0     		sub	sp, sp, #28
 355              	.LCFI23:
 356              		.cfi_def_cfa_offset 32
 357 0004 00AF     		add	r7, sp, #0
 358              	.LCFI24:
 359              		.cfi_def_cfa_register 7
 360 0006 F860     		str	r0, [r7, #12]
 361 0008 B960     		str	r1, [r7, #8]
 362 000a 1346     		mov	r3, r2
 363 000c FB71     		strb	r3, [r7, #7]
 313:USB_DEVICE/App/usbd_cdc_if.c ****   uint8_t result = USBD_OK;
 364              		.loc 1 313 11
 365 000e 0023     		movs	r3, #0
 366 0010 FB75     		strb	r3, [r7, #23]
 314:USB_DEVICE/App/usbd_cdc_if.c ****   /* USER CODE BEGIN 13 */
 315:USB_DEVICE/App/usbd_cdc_if.c ****   UNUSED(Buf);
 316:USB_DEVICE/App/usbd_cdc_if.c ****   UNUSED(Len);
 317:USB_DEVICE/App/usbd_cdc_if.c ****   UNUSED(epnum);
 318:USB_DEVICE/App/usbd_cdc_if.c ****   /* USER CODE END 13 */
 319:USB_DEVICE/App/usbd_cdc_if.c ****   return result;
 367              		.loc 1 319 10
 368 0012 97F91730 		ldrsb	r3, [r7, #23]
 320:USB_DEVICE/App/usbd_cdc_if.c **** }
 369              		.loc 1 320 1
 370 0016 1846     		mov	r0, r3
 371 0018 1C37     		adds	r7, r7, #28
 372              	.LCFI25:
 373              		.cfi_def_cfa_offset 4
 374 001a BD46     		mov	sp, r7
 375              	.LCFI26:
 376              		.cfi_def_cfa_register 13
 377              		@ sp needed
ARM GAS  /var/folders/vq/qt4vp3kd5rxf7v2b6_fdtdt80000gn/T//ccifplQS.s 			page 13


 378 001c 5DF8047B 		ldr	r7, [sp], #4
 379              	.LCFI27:
 380              		.cfi_restore 7
 381              		.cfi_def_cfa_offset 0
 382 0020 7047     		bx	lr
 383              		.cfi_endproc
 384              	.LFE139:
 386              		.text
 387              	.Letext0:
 388              		.file 2 "/usr/local/Cellar/arm-none-eabi-gcc/9-2019-q4-major/gcc/arm-none-eabi/include/machine/_de
 389              		.file 3 "/usr/local/Cellar/arm-none-eabi-gcc/9-2019-q4-major/gcc/arm-none-eabi/include/sys/lock.h"
 390              		.file 4 "/usr/local/Cellar/arm-none-eabi-gcc/9-2019-q4-major/gcc/arm-none-eabi/include/sys/_types.
 391              		.file 5 "/usr/local/Cellar/arm-none-eabi-gcc/9-2019-q4-major/gcc/lib/gcc/arm-none-eabi/9.2.1/inclu
 392              		.file 6 "/usr/local/Cellar/arm-none-eabi-gcc/9-2019-q4-major/gcc/arm-none-eabi/include/sys/reent.h
 393              		.file 7 "/usr/local/Cellar/arm-none-eabi-gcc/9-2019-q4-major/gcc/arm-none-eabi/include/sys/_stdint
 394              		.file 8 "/usr/local/Cellar/arm-none-eabi-gcc/9-2019-q4-major/gcc/arm-none-eabi/include/stdlib.h"
 395              		.file 9 "Drivers/CMSIS/Include/core_cm4.h"
 396              		.file 10 "Drivers/CMSIS/Device/ST/STM32F4xx/Include/system_stm32f4xx.h"
 397              		.file 11 "Drivers/STM32F4xx_HAL_Driver/Inc/stm32f4xx_hal.h"
 398              		.file 12 "Middlewares/ST/STM32_USB_Device_Library/Core/Inc/usbd_def.h"
 399              		.file 13 "Middlewares/ST/STM32_USB_Device_Library/Class/CDC/Inc/usbd_cdc.h"
 400              		.file 14 "USB_DEVICE/App/usbd_cdc_if.h"
ARM GAS  /var/folders/vq/qt4vp3kd5rxf7v2b6_fdtdt80000gn/T//ccifplQS.s 			page 14

