ARM GAS  /var/folders/vq/qt4vp3kd5rxf7v2b6_fdtdt80000gn/T//ccMfaxe0.s 			page 1


   1              		.cpu cortex-m4
   2              		.eabi_attribute 27, 1
   3              		.eabi_attribute 20, 1
   4              		.eabi_attribute 21, 1
   5              		.eabi_attribute 23, 3
   6              		.eabi_attribute 24, 1
   7              		.eabi_attribute 25, 1
   8              		.eabi_attribute 26, 1
   9              		.eabi_attribute 30, 6
  10              		.eabi_attribute 34, 1
  11              		.eabi_attribute 18, 4
  12              		.file	"usbd_desc.c"
  13              		.text
  14              	.Ltext0:
  15              		.cfi_sections	.debug_frame
  16              		.global	FS_Desc
  17              		.section	.data.FS_Desc,"aw"
  18              		.align	2
  21              	FS_Desc:
  22 0000 00000000 		.word	USBD_FS_DeviceDescriptor
  23 0004 00000000 		.word	USBD_FS_LangIDStrDescriptor
  24 0008 00000000 		.word	USBD_FS_ManufacturerStrDescriptor
  25 000c 00000000 		.word	USBD_FS_ProductStrDescriptor
  26 0010 00000000 		.word	USBD_FS_SerialStrDescriptor
  27 0014 00000000 		.word	USBD_FS_ConfigStrDescriptor
  28 0018 00000000 		.word	USBD_FS_InterfaceStrDescriptor
  29              		.global	USBD_FS_DeviceDesc
  30              		.section	.data.USBD_FS_DeviceDesc,"aw"
  31              		.align	2
  34              	USBD_FS_DeviceDesc:
  35 0000 12010002 		.ascii	"\022\001\000\002\002\002\000@\203\004@W\000\002\001"
  35      02020040 
  35      83044057 
  35      000201
  36 000f 020301   		.ascii	"\002\003\001"
  37              		.global	USBD_LangIDDesc
  38              		.section	.data.USBD_LangIDDesc,"aw"
  39              		.align	2
  42              	USBD_LangIDDesc:
  43 0000 04030904 		.ascii	"\004\003\011\004"
  44              		.comm	USBD_StrDesc,512,4
  45              		.global	USBD_StringSerial
  46              		.section	.data.USBD_StringSerial,"aw"
  47              		.align	2
  50              	USBD_StringSerial:
  51 0000 1A0300   		.ascii	"\032\003\000"
  52 0003 00000000 		.space	23
  52      00000000 
  52      00000000 
  52      00000000 
  52      00000000 
  53              		.section	.text.USBD_FS_DeviceDescriptor,"ax",%progbits
  54              		.align	1
  55              		.global	USBD_FS_DeviceDescriptor
  56              		.arch armv7e-m
  57              		.syntax unified
  58              		.thumb
ARM GAS  /var/folders/vq/qt4vp3kd5rxf7v2b6_fdtdt80000gn/T//ccMfaxe0.s 			page 2


  59              		.thumb_func
  60              		.fpu fpv4-sp-d16
  62              	USBD_FS_DeviceDescriptor:
  63              	.LFB134:
  64              		.file 1 "USB_DEVICE/App/usbd_desc.c"
   1:USB_DEVICE/App/usbd_desc.c **** /* USER CODE BEGIN Header */
   2:USB_DEVICE/App/usbd_desc.c **** /**
   3:USB_DEVICE/App/usbd_desc.c ****   ******************************************************************************
   4:USB_DEVICE/App/usbd_desc.c ****   * @file           : App/usbd_desc.c
   5:USB_DEVICE/App/usbd_desc.c ****   * @version        : v1.0_Cube
   6:USB_DEVICE/App/usbd_desc.c ****   * @brief          : This file implements the USB device descriptors.
   7:USB_DEVICE/App/usbd_desc.c ****   ******************************************************************************
   8:USB_DEVICE/App/usbd_desc.c ****   * @attention
   9:USB_DEVICE/App/usbd_desc.c ****   *
  10:USB_DEVICE/App/usbd_desc.c ****   * <h2><center>&copy; Copyright (c) 2021 STMicroelectronics.
  11:USB_DEVICE/App/usbd_desc.c ****   * All rights reserved.</center></h2>
  12:USB_DEVICE/App/usbd_desc.c ****   *
  13:USB_DEVICE/App/usbd_desc.c ****   * This software component is licensed by ST under Ultimate Liberty license
  14:USB_DEVICE/App/usbd_desc.c ****   * SLA0044, the "License"; You may not use this file except in compliance with
  15:USB_DEVICE/App/usbd_desc.c ****   * the License. You may obtain a copy of the License at:
  16:USB_DEVICE/App/usbd_desc.c ****   *                             www.st.com/SLA0044
  17:USB_DEVICE/App/usbd_desc.c ****   *
  18:USB_DEVICE/App/usbd_desc.c ****   ******************************************************************************
  19:USB_DEVICE/App/usbd_desc.c ****   */
  20:USB_DEVICE/App/usbd_desc.c **** /* USER CODE END Header */
  21:USB_DEVICE/App/usbd_desc.c **** 
  22:USB_DEVICE/App/usbd_desc.c **** /* Includes ------------------------------------------------------------------*/
  23:USB_DEVICE/App/usbd_desc.c **** #include "usbd_core.h"
  24:USB_DEVICE/App/usbd_desc.c **** #include "usbd_desc.h"
  25:USB_DEVICE/App/usbd_desc.c **** #include "usbd_conf.h"
  26:USB_DEVICE/App/usbd_desc.c **** 
  27:USB_DEVICE/App/usbd_desc.c **** /* USER CODE BEGIN INCLUDE */
  28:USB_DEVICE/App/usbd_desc.c **** 
  29:USB_DEVICE/App/usbd_desc.c **** /* USER CODE END INCLUDE */
  30:USB_DEVICE/App/usbd_desc.c **** 
  31:USB_DEVICE/App/usbd_desc.c **** /* Private typedef -----------------------------------------------------------*/
  32:USB_DEVICE/App/usbd_desc.c **** /* Private define ------------------------------------------------------------*/
  33:USB_DEVICE/App/usbd_desc.c **** /* Private macro -------------------------------------------------------------*/
  34:USB_DEVICE/App/usbd_desc.c **** 
  35:USB_DEVICE/App/usbd_desc.c **** /* USER CODE BEGIN PV */
  36:USB_DEVICE/App/usbd_desc.c **** /* Private variables ---------------------------------------------------------*/
  37:USB_DEVICE/App/usbd_desc.c **** 
  38:USB_DEVICE/App/usbd_desc.c **** /* USER CODE END PV */
  39:USB_DEVICE/App/usbd_desc.c **** 
  40:USB_DEVICE/App/usbd_desc.c **** /** @addtogroup STM32_USB_OTG_DEVICE_LIBRARY
  41:USB_DEVICE/App/usbd_desc.c ****   * @{
  42:USB_DEVICE/App/usbd_desc.c ****   */
  43:USB_DEVICE/App/usbd_desc.c **** 
  44:USB_DEVICE/App/usbd_desc.c **** /** @addtogroup USBD_DESC
  45:USB_DEVICE/App/usbd_desc.c ****   * @{
  46:USB_DEVICE/App/usbd_desc.c ****   */
  47:USB_DEVICE/App/usbd_desc.c **** 
  48:USB_DEVICE/App/usbd_desc.c **** /** @defgroup USBD_DESC_Private_TypesDefinitions USBD_DESC_Private_TypesDefinitions
  49:USB_DEVICE/App/usbd_desc.c ****   * @brief Private types.
  50:USB_DEVICE/App/usbd_desc.c ****   * @{
  51:USB_DEVICE/App/usbd_desc.c ****   */
  52:USB_DEVICE/App/usbd_desc.c **** 
ARM GAS  /var/folders/vq/qt4vp3kd5rxf7v2b6_fdtdt80000gn/T//ccMfaxe0.s 			page 3


  53:USB_DEVICE/App/usbd_desc.c **** /* USER CODE BEGIN PRIVATE_TYPES */
  54:USB_DEVICE/App/usbd_desc.c **** 
  55:USB_DEVICE/App/usbd_desc.c **** /* USER CODE END PRIVATE_TYPES */
  56:USB_DEVICE/App/usbd_desc.c **** 
  57:USB_DEVICE/App/usbd_desc.c **** /**
  58:USB_DEVICE/App/usbd_desc.c ****   * @}
  59:USB_DEVICE/App/usbd_desc.c ****   */
  60:USB_DEVICE/App/usbd_desc.c **** 
  61:USB_DEVICE/App/usbd_desc.c **** /** @defgroup USBD_DESC_Private_Defines USBD_DESC_Private_Defines
  62:USB_DEVICE/App/usbd_desc.c ****   * @brief Private defines.
  63:USB_DEVICE/App/usbd_desc.c ****   * @{
  64:USB_DEVICE/App/usbd_desc.c ****   */
  65:USB_DEVICE/App/usbd_desc.c **** 
  66:USB_DEVICE/App/usbd_desc.c **** #define USBD_VID     1155
  67:USB_DEVICE/App/usbd_desc.c **** #define USBD_LANGID_STRING     1033
  68:USB_DEVICE/App/usbd_desc.c **** #define USBD_MANUFACTURER_STRING     "STMicroelectronics"
  69:USB_DEVICE/App/usbd_desc.c **** #define USBD_PID_FS     22336
  70:USB_DEVICE/App/usbd_desc.c **** #define USBD_PRODUCT_STRING_FS     "STM32 Virtual ComPort"
  71:USB_DEVICE/App/usbd_desc.c **** #define USBD_CONFIGURATION_STRING_FS     "CDC Config"
  72:USB_DEVICE/App/usbd_desc.c **** #define USBD_INTERFACE_STRING_FS     "CDC Interface"
  73:USB_DEVICE/App/usbd_desc.c **** 
  74:USB_DEVICE/App/usbd_desc.c **** #define USB_SIZ_BOS_DESC            0x0C
  75:USB_DEVICE/App/usbd_desc.c **** 
  76:USB_DEVICE/App/usbd_desc.c **** /* USER CODE BEGIN PRIVATE_DEFINES */
  77:USB_DEVICE/App/usbd_desc.c **** 
  78:USB_DEVICE/App/usbd_desc.c **** /* USER CODE END PRIVATE_DEFINES */
  79:USB_DEVICE/App/usbd_desc.c **** 
  80:USB_DEVICE/App/usbd_desc.c **** /**
  81:USB_DEVICE/App/usbd_desc.c ****   * @}
  82:USB_DEVICE/App/usbd_desc.c ****   */
  83:USB_DEVICE/App/usbd_desc.c **** 
  84:USB_DEVICE/App/usbd_desc.c **** /* USER CODE BEGIN 0 */
  85:USB_DEVICE/App/usbd_desc.c **** 
  86:USB_DEVICE/App/usbd_desc.c **** /* USER CODE END 0 */
  87:USB_DEVICE/App/usbd_desc.c **** 
  88:USB_DEVICE/App/usbd_desc.c **** /** @defgroup USBD_DESC_Private_Macros USBD_DESC_Private_Macros
  89:USB_DEVICE/App/usbd_desc.c ****   * @brief Private macros.
  90:USB_DEVICE/App/usbd_desc.c ****   * @{
  91:USB_DEVICE/App/usbd_desc.c ****   */
  92:USB_DEVICE/App/usbd_desc.c **** 
  93:USB_DEVICE/App/usbd_desc.c **** /* USER CODE BEGIN PRIVATE_MACRO */
  94:USB_DEVICE/App/usbd_desc.c **** 
  95:USB_DEVICE/App/usbd_desc.c **** /* USER CODE END PRIVATE_MACRO */
  96:USB_DEVICE/App/usbd_desc.c **** 
  97:USB_DEVICE/App/usbd_desc.c **** /**
  98:USB_DEVICE/App/usbd_desc.c ****   * @}
  99:USB_DEVICE/App/usbd_desc.c ****   */
 100:USB_DEVICE/App/usbd_desc.c **** 
 101:USB_DEVICE/App/usbd_desc.c **** /** @defgroup USBD_DESC_Private_FunctionPrototypes USBD_DESC_Private_FunctionPrototypes
 102:USB_DEVICE/App/usbd_desc.c ****   * @brief Private functions declaration.
 103:USB_DEVICE/App/usbd_desc.c ****   * @{
 104:USB_DEVICE/App/usbd_desc.c ****   */
 105:USB_DEVICE/App/usbd_desc.c **** 
 106:USB_DEVICE/App/usbd_desc.c **** static void Get_SerialNum(void);
 107:USB_DEVICE/App/usbd_desc.c **** static void IntToUnicode(uint32_t value, uint8_t * pbuf, uint8_t len);
 108:USB_DEVICE/App/usbd_desc.c **** 
 109:USB_DEVICE/App/usbd_desc.c **** /**
ARM GAS  /var/folders/vq/qt4vp3kd5rxf7v2b6_fdtdt80000gn/T//ccMfaxe0.s 			page 4


 110:USB_DEVICE/App/usbd_desc.c ****   * @}
 111:USB_DEVICE/App/usbd_desc.c ****   */
 112:USB_DEVICE/App/usbd_desc.c **** 
 113:USB_DEVICE/App/usbd_desc.c **** /** @defgroup USBD_DESC_Private_FunctionPrototypes USBD_DESC_Private_FunctionPrototypes
 114:USB_DEVICE/App/usbd_desc.c ****   * @brief Private functions declaration for FS.
 115:USB_DEVICE/App/usbd_desc.c ****   * @{
 116:USB_DEVICE/App/usbd_desc.c ****   */
 117:USB_DEVICE/App/usbd_desc.c **** 
 118:USB_DEVICE/App/usbd_desc.c **** uint8_t * USBD_FS_DeviceDescriptor(USBD_SpeedTypeDef speed, uint16_t *length);
 119:USB_DEVICE/App/usbd_desc.c **** uint8_t * USBD_FS_LangIDStrDescriptor(USBD_SpeedTypeDef speed, uint16_t *length);
 120:USB_DEVICE/App/usbd_desc.c **** uint8_t * USBD_FS_ManufacturerStrDescriptor(USBD_SpeedTypeDef speed, uint16_t *length);
 121:USB_DEVICE/App/usbd_desc.c **** uint8_t * USBD_FS_ProductStrDescriptor(USBD_SpeedTypeDef speed, uint16_t *length);
 122:USB_DEVICE/App/usbd_desc.c **** uint8_t * USBD_FS_SerialStrDescriptor(USBD_SpeedTypeDef speed, uint16_t *length);
 123:USB_DEVICE/App/usbd_desc.c **** uint8_t * USBD_FS_ConfigStrDescriptor(USBD_SpeedTypeDef speed, uint16_t *length);
 124:USB_DEVICE/App/usbd_desc.c **** uint8_t * USBD_FS_InterfaceStrDescriptor(USBD_SpeedTypeDef speed, uint16_t *length);
 125:USB_DEVICE/App/usbd_desc.c **** #if (USBD_LPM_ENABLED == 1)
 126:USB_DEVICE/App/usbd_desc.c **** uint8_t * USBD_FS_USR_BOSDescriptor(USBD_SpeedTypeDef speed, uint16_t *length);
 127:USB_DEVICE/App/usbd_desc.c **** #endif /* (USBD_LPM_ENABLED == 1) */
 128:USB_DEVICE/App/usbd_desc.c **** 
 129:USB_DEVICE/App/usbd_desc.c **** /**
 130:USB_DEVICE/App/usbd_desc.c ****   * @}
 131:USB_DEVICE/App/usbd_desc.c ****   */
 132:USB_DEVICE/App/usbd_desc.c **** 
 133:USB_DEVICE/App/usbd_desc.c **** /** @defgroup USBD_DESC_Private_Variables USBD_DESC_Private_Variables
 134:USB_DEVICE/App/usbd_desc.c ****   * @brief Private variables.
 135:USB_DEVICE/App/usbd_desc.c ****   * @{
 136:USB_DEVICE/App/usbd_desc.c ****   */
 137:USB_DEVICE/App/usbd_desc.c **** 
 138:USB_DEVICE/App/usbd_desc.c **** USBD_DescriptorsTypeDef FS_Desc =
 139:USB_DEVICE/App/usbd_desc.c **** {
 140:USB_DEVICE/App/usbd_desc.c ****   USBD_FS_DeviceDescriptor
 141:USB_DEVICE/App/usbd_desc.c **** , USBD_FS_LangIDStrDescriptor
 142:USB_DEVICE/App/usbd_desc.c **** , USBD_FS_ManufacturerStrDescriptor
 143:USB_DEVICE/App/usbd_desc.c **** , USBD_FS_ProductStrDescriptor
 144:USB_DEVICE/App/usbd_desc.c **** , USBD_FS_SerialStrDescriptor
 145:USB_DEVICE/App/usbd_desc.c **** , USBD_FS_ConfigStrDescriptor
 146:USB_DEVICE/App/usbd_desc.c **** , USBD_FS_InterfaceStrDescriptor
 147:USB_DEVICE/App/usbd_desc.c **** #if (USBD_LPM_ENABLED == 1)
 148:USB_DEVICE/App/usbd_desc.c **** , USBD_FS_USR_BOSDescriptor
 149:USB_DEVICE/App/usbd_desc.c **** #endif /* (USBD_LPM_ENABLED == 1) */
 150:USB_DEVICE/App/usbd_desc.c **** };
 151:USB_DEVICE/App/usbd_desc.c **** 
 152:USB_DEVICE/App/usbd_desc.c **** #if defined ( __ICCARM__ ) /* IAR Compiler */
 153:USB_DEVICE/App/usbd_desc.c ****   #pragma data_alignment=4
 154:USB_DEVICE/App/usbd_desc.c **** #endif /* defined ( __ICCARM__ ) */
 155:USB_DEVICE/App/usbd_desc.c **** /** USB standard device descriptor. */
 156:USB_DEVICE/App/usbd_desc.c **** __ALIGN_BEGIN uint8_t USBD_FS_DeviceDesc[USB_LEN_DEV_DESC] __ALIGN_END =
 157:USB_DEVICE/App/usbd_desc.c **** {
 158:USB_DEVICE/App/usbd_desc.c ****   0x12,                       /*bLength */
 159:USB_DEVICE/App/usbd_desc.c ****   USB_DESC_TYPE_DEVICE,       /*bDescriptorType*/
 160:USB_DEVICE/App/usbd_desc.c **** #if (USBD_LPM_ENABLED == 1)
 161:USB_DEVICE/App/usbd_desc.c ****   0x01,                       /*bcdUSB */ /* changed to USB version 2.01
 162:USB_DEVICE/App/usbd_desc.c ****                                              in order to support LPM L1 suspend
 163:USB_DEVICE/App/usbd_desc.c ****                                              resume test of USBCV3.0*/
 164:USB_DEVICE/App/usbd_desc.c **** #else
 165:USB_DEVICE/App/usbd_desc.c ****   0x00,                       /*bcdUSB */
 166:USB_DEVICE/App/usbd_desc.c **** #endif /* (USBD_LPM_ENABLED == 1) */
ARM GAS  /var/folders/vq/qt4vp3kd5rxf7v2b6_fdtdt80000gn/T//ccMfaxe0.s 			page 5


 167:USB_DEVICE/App/usbd_desc.c ****   0x02,
 168:USB_DEVICE/App/usbd_desc.c ****   0x02,                       /*bDeviceClass*/
 169:USB_DEVICE/App/usbd_desc.c ****   0x02,                       /*bDeviceSubClass*/
 170:USB_DEVICE/App/usbd_desc.c ****   0x00,                       /*bDeviceProtocol*/
 171:USB_DEVICE/App/usbd_desc.c ****   USB_MAX_EP0_SIZE,           /*bMaxPacketSize*/
 172:USB_DEVICE/App/usbd_desc.c ****   LOBYTE(USBD_VID),           /*idVendor*/
 173:USB_DEVICE/App/usbd_desc.c ****   HIBYTE(USBD_VID),           /*idVendor*/
 174:USB_DEVICE/App/usbd_desc.c ****   LOBYTE(USBD_PID_FS),        /*idProduct*/
 175:USB_DEVICE/App/usbd_desc.c ****   HIBYTE(USBD_PID_FS),        /*idProduct*/
 176:USB_DEVICE/App/usbd_desc.c ****   0x00,                       /*bcdDevice rel. 2.00*/
 177:USB_DEVICE/App/usbd_desc.c ****   0x02,
 178:USB_DEVICE/App/usbd_desc.c ****   USBD_IDX_MFC_STR,           /*Index of manufacturer  string*/
 179:USB_DEVICE/App/usbd_desc.c ****   USBD_IDX_PRODUCT_STR,       /*Index of product string*/
 180:USB_DEVICE/App/usbd_desc.c ****   USBD_IDX_SERIAL_STR,        /*Index of serial number string*/
 181:USB_DEVICE/App/usbd_desc.c ****   USBD_MAX_NUM_CONFIGURATION  /*bNumConfigurations*/
 182:USB_DEVICE/App/usbd_desc.c **** };
 183:USB_DEVICE/App/usbd_desc.c **** 
 184:USB_DEVICE/App/usbd_desc.c **** /* USB_DeviceDescriptor */
 185:USB_DEVICE/App/usbd_desc.c **** /** BOS descriptor. */
 186:USB_DEVICE/App/usbd_desc.c **** #if (USBD_LPM_ENABLED == 1)
 187:USB_DEVICE/App/usbd_desc.c **** #if defined ( __ICCARM__ ) /* IAR Compiler */
 188:USB_DEVICE/App/usbd_desc.c ****   #pragma data_alignment=4
 189:USB_DEVICE/App/usbd_desc.c **** #endif /* defined ( __ICCARM__ ) */
 190:USB_DEVICE/App/usbd_desc.c **** __ALIGN_BEGIN uint8_t USBD_FS_BOSDesc[USB_SIZ_BOS_DESC] __ALIGN_END =
 191:USB_DEVICE/App/usbd_desc.c **** {
 192:USB_DEVICE/App/usbd_desc.c ****   0x5,
 193:USB_DEVICE/App/usbd_desc.c ****   USB_DESC_TYPE_BOS,
 194:USB_DEVICE/App/usbd_desc.c ****   0xC,
 195:USB_DEVICE/App/usbd_desc.c ****   0x0,
 196:USB_DEVICE/App/usbd_desc.c ****   0x1,  /* 1 device capability*/
 197:USB_DEVICE/App/usbd_desc.c ****         /* device capability*/
 198:USB_DEVICE/App/usbd_desc.c ****   0x7,
 199:USB_DEVICE/App/usbd_desc.c ****   USB_DEVICE_CAPABITY_TYPE,
 200:USB_DEVICE/App/usbd_desc.c ****   0x2,
 201:USB_DEVICE/App/usbd_desc.c ****   0x2,  /* LPM capability bit set*/
 202:USB_DEVICE/App/usbd_desc.c ****   0x0,
 203:USB_DEVICE/App/usbd_desc.c ****   0x0,
 204:USB_DEVICE/App/usbd_desc.c ****   0x0
 205:USB_DEVICE/App/usbd_desc.c **** };
 206:USB_DEVICE/App/usbd_desc.c **** #endif /* (USBD_LPM_ENABLED == 1) */
 207:USB_DEVICE/App/usbd_desc.c **** 
 208:USB_DEVICE/App/usbd_desc.c **** /**
 209:USB_DEVICE/App/usbd_desc.c ****   * @}
 210:USB_DEVICE/App/usbd_desc.c ****   */
 211:USB_DEVICE/App/usbd_desc.c **** 
 212:USB_DEVICE/App/usbd_desc.c **** /** @defgroup USBD_DESC_Private_Variables USBD_DESC_Private_Variables
 213:USB_DEVICE/App/usbd_desc.c ****   * @brief Private variables.
 214:USB_DEVICE/App/usbd_desc.c ****   * @{
 215:USB_DEVICE/App/usbd_desc.c ****   */
 216:USB_DEVICE/App/usbd_desc.c **** 
 217:USB_DEVICE/App/usbd_desc.c **** #if defined ( __ICCARM__ ) /* IAR Compiler */
 218:USB_DEVICE/App/usbd_desc.c ****   #pragma data_alignment=4
 219:USB_DEVICE/App/usbd_desc.c **** #endif /* defined ( __ICCARM__ ) */
 220:USB_DEVICE/App/usbd_desc.c **** 
 221:USB_DEVICE/App/usbd_desc.c **** /** USB lang indentifier descriptor. */
 222:USB_DEVICE/App/usbd_desc.c **** __ALIGN_BEGIN uint8_t USBD_LangIDDesc[USB_LEN_LANGID_STR_DESC] __ALIGN_END =
 223:USB_DEVICE/App/usbd_desc.c **** {
ARM GAS  /var/folders/vq/qt4vp3kd5rxf7v2b6_fdtdt80000gn/T//ccMfaxe0.s 			page 6


 224:USB_DEVICE/App/usbd_desc.c ****      USB_LEN_LANGID_STR_DESC,
 225:USB_DEVICE/App/usbd_desc.c ****      USB_DESC_TYPE_STRING,
 226:USB_DEVICE/App/usbd_desc.c ****      LOBYTE(USBD_LANGID_STRING),
 227:USB_DEVICE/App/usbd_desc.c ****      HIBYTE(USBD_LANGID_STRING)
 228:USB_DEVICE/App/usbd_desc.c **** };
 229:USB_DEVICE/App/usbd_desc.c **** 
 230:USB_DEVICE/App/usbd_desc.c **** #if defined ( __ICCARM__ ) /* IAR Compiler */
 231:USB_DEVICE/App/usbd_desc.c ****   #pragma data_alignment=4
 232:USB_DEVICE/App/usbd_desc.c **** #endif /* defined ( __ICCARM__ ) */
 233:USB_DEVICE/App/usbd_desc.c **** /* Internal string descriptor. */
 234:USB_DEVICE/App/usbd_desc.c **** __ALIGN_BEGIN uint8_t USBD_StrDesc[USBD_MAX_STR_DESC_SIZ] __ALIGN_END;
 235:USB_DEVICE/App/usbd_desc.c **** 
 236:USB_DEVICE/App/usbd_desc.c **** #if defined ( __ICCARM__ ) /*!< IAR Compiler */
 237:USB_DEVICE/App/usbd_desc.c ****   #pragma data_alignment=4
 238:USB_DEVICE/App/usbd_desc.c **** #endif
 239:USB_DEVICE/App/usbd_desc.c **** __ALIGN_BEGIN uint8_t USBD_StringSerial[USB_SIZ_STRING_SERIAL] __ALIGN_END = {
 240:USB_DEVICE/App/usbd_desc.c ****   USB_SIZ_STRING_SERIAL,
 241:USB_DEVICE/App/usbd_desc.c ****   USB_DESC_TYPE_STRING,
 242:USB_DEVICE/App/usbd_desc.c **** };
 243:USB_DEVICE/App/usbd_desc.c **** 
 244:USB_DEVICE/App/usbd_desc.c **** /**
 245:USB_DEVICE/App/usbd_desc.c ****   * @}
 246:USB_DEVICE/App/usbd_desc.c ****   */
 247:USB_DEVICE/App/usbd_desc.c **** 
 248:USB_DEVICE/App/usbd_desc.c **** /** @defgroup USBD_DESC_Private_Functions USBD_DESC_Private_Functions
 249:USB_DEVICE/App/usbd_desc.c ****   * @brief Private functions.
 250:USB_DEVICE/App/usbd_desc.c ****   * @{
 251:USB_DEVICE/App/usbd_desc.c ****   */
 252:USB_DEVICE/App/usbd_desc.c **** 
 253:USB_DEVICE/App/usbd_desc.c **** /**
 254:USB_DEVICE/App/usbd_desc.c ****   * @brief  Return the device descriptor
 255:USB_DEVICE/App/usbd_desc.c ****   * @param  speed : Current device speed
 256:USB_DEVICE/App/usbd_desc.c ****   * @param  length : Pointer to data length variable
 257:USB_DEVICE/App/usbd_desc.c ****   * @retval Pointer to descriptor buffer
 258:USB_DEVICE/App/usbd_desc.c ****   */
 259:USB_DEVICE/App/usbd_desc.c **** uint8_t * USBD_FS_DeviceDescriptor(USBD_SpeedTypeDef speed, uint16_t *length)
 260:USB_DEVICE/App/usbd_desc.c **** {
  65              		.loc 1 260 1
  66              		.cfi_startproc
  67              		@ args = 0, pretend = 0, frame = 8
  68              		@ frame_needed = 1, uses_anonymous_args = 0
  69              		@ link register save eliminated.
  70 0000 80B4     		push	{r7}
  71              	.LCFI0:
  72              		.cfi_def_cfa_offset 4
  73              		.cfi_offset 7, -4
  74 0002 83B0     		sub	sp, sp, #12
  75              	.LCFI1:
  76              		.cfi_def_cfa_offset 16
  77 0004 00AF     		add	r7, sp, #0
  78              	.LCFI2:
  79              		.cfi_def_cfa_register 7
  80 0006 0346     		mov	r3, r0
  81 0008 3960     		str	r1, [r7]
  82 000a FB71     		strb	r3, [r7, #7]
 261:USB_DEVICE/App/usbd_desc.c ****   UNUSED(speed);
 262:USB_DEVICE/App/usbd_desc.c ****   *length = sizeof(USBD_FS_DeviceDesc);
ARM GAS  /var/folders/vq/qt4vp3kd5rxf7v2b6_fdtdt80000gn/T//ccMfaxe0.s 			page 7


  83              		.loc 1 262 11
  84 000c 3B68     		ldr	r3, [r7]
  85 000e 1222     		movs	r2, #18
  86 0010 1A80     		strh	r2, [r3]	@ movhi
 263:USB_DEVICE/App/usbd_desc.c ****   return USBD_FS_DeviceDesc;
  87              		.loc 1 263 10
  88 0012 034B     		ldr	r3, .L3
 264:USB_DEVICE/App/usbd_desc.c **** }
  89              		.loc 1 264 1
  90 0014 1846     		mov	r0, r3
  91 0016 0C37     		adds	r7, r7, #12
  92              	.LCFI3:
  93              		.cfi_def_cfa_offset 4
  94 0018 BD46     		mov	sp, r7
  95              	.LCFI4:
  96              		.cfi_def_cfa_register 13
  97              		@ sp needed
  98 001a 5DF8047B 		ldr	r7, [sp], #4
  99              	.LCFI5:
 100              		.cfi_restore 7
 101              		.cfi_def_cfa_offset 0
 102 001e 7047     		bx	lr
 103              	.L4:
 104              		.align	2
 105              	.L3:
 106 0020 00000000 		.word	USBD_FS_DeviceDesc
 107              		.cfi_endproc
 108              	.LFE134:
 110              		.section	.text.USBD_FS_LangIDStrDescriptor,"ax",%progbits
 111              		.align	1
 112              		.global	USBD_FS_LangIDStrDescriptor
 113              		.syntax unified
 114              		.thumb
 115              		.thumb_func
 116              		.fpu fpv4-sp-d16
 118              	USBD_FS_LangIDStrDescriptor:
 119              	.LFB135:
 265:USB_DEVICE/App/usbd_desc.c **** 
 266:USB_DEVICE/App/usbd_desc.c **** /**
 267:USB_DEVICE/App/usbd_desc.c ****   * @brief  Return the LangID string descriptor
 268:USB_DEVICE/App/usbd_desc.c ****   * @param  speed : Current device speed
 269:USB_DEVICE/App/usbd_desc.c ****   * @param  length : Pointer to data length variable
 270:USB_DEVICE/App/usbd_desc.c ****   * @retval Pointer to descriptor buffer
 271:USB_DEVICE/App/usbd_desc.c ****   */
 272:USB_DEVICE/App/usbd_desc.c **** uint8_t * USBD_FS_LangIDStrDescriptor(USBD_SpeedTypeDef speed, uint16_t *length)
 273:USB_DEVICE/App/usbd_desc.c **** {
 120              		.loc 1 273 1
 121              		.cfi_startproc
 122              		@ args = 0, pretend = 0, frame = 8
 123              		@ frame_needed = 1, uses_anonymous_args = 0
 124              		@ link register save eliminated.
 125 0000 80B4     		push	{r7}
 126              	.LCFI6:
 127              		.cfi_def_cfa_offset 4
 128              		.cfi_offset 7, -4
 129 0002 83B0     		sub	sp, sp, #12
 130              	.LCFI7:
ARM GAS  /var/folders/vq/qt4vp3kd5rxf7v2b6_fdtdt80000gn/T//ccMfaxe0.s 			page 8


 131              		.cfi_def_cfa_offset 16
 132 0004 00AF     		add	r7, sp, #0
 133              	.LCFI8:
 134              		.cfi_def_cfa_register 7
 135 0006 0346     		mov	r3, r0
 136 0008 3960     		str	r1, [r7]
 137 000a FB71     		strb	r3, [r7, #7]
 274:USB_DEVICE/App/usbd_desc.c ****   UNUSED(speed);
 275:USB_DEVICE/App/usbd_desc.c ****   *length = sizeof(USBD_LangIDDesc);
 138              		.loc 1 275 11
 139 000c 3B68     		ldr	r3, [r7]
 140 000e 0422     		movs	r2, #4
 141 0010 1A80     		strh	r2, [r3]	@ movhi
 276:USB_DEVICE/App/usbd_desc.c ****   return USBD_LangIDDesc;
 142              		.loc 1 276 10
 143 0012 034B     		ldr	r3, .L7
 277:USB_DEVICE/App/usbd_desc.c **** }
 144              		.loc 1 277 1
 145 0014 1846     		mov	r0, r3
 146 0016 0C37     		adds	r7, r7, #12
 147              	.LCFI9:
 148              		.cfi_def_cfa_offset 4
 149 0018 BD46     		mov	sp, r7
 150              	.LCFI10:
 151              		.cfi_def_cfa_register 13
 152              		@ sp needed
 153 001a 5DF8047B 		ldr	r7, [sp], #4
 154              	.LCFI11:
 155              		.cfi_restore 7
 156              		.cfi_def_cfa_offset 0
 157 001e 7047     		bx	lr
 158              	.L8:
 159              		.align	2
 160              	.L7:
 161 0020 00000000 		.word	USBD_LangIDDesc
 162              		.cfi_endproc
 163              	.LFE135:
 165              		.section	.rodata
 166              		.align	2
 167              	.LC0:
 168 0000 53544D33 		.ascii	"STM32 Virtual ComPort\000"
 168      32205669 
 168      72747561 
 168      6C20436F 
 168      6D506F72 
 169              		.section	.text.USBD_FS_ProductStrDescriptor,"ax",%progbits
 170              		.align	1
 171              		.global	USBD_FS_ProductStrDescriptor
 172              		.syntax unified
 173              		.thumb
 174              		.thumb_func
 175              		.fpu fpv4-sp-d16
 177              	USBD_FS_ProductStrDescriptor:
 178              	.LFB136:
 278:USB_DEVICE/App/usbd_desc.c **** 
 279:USB_DEVICE/App/usbd_desc.c **** /**
 280:USB_DEVICE/App/usbd_desc.c ****   * @brief  Return the product string descriptor
ARM GAS  /var/folders/vq/qt4vp3kd5rxf7v2b6_fdtdt80000gn/T//ccMfaxe0.s 			page 9


 281:USB_DEVICE/App/usbd_desc.c ****   * @param  speed : Current device speed
 282:USB_DEVICE/App/usbd_desc.c ****   * @param  length : Pointer to data length variable
 283:USB_DEVICE/App/usbd_desc.c ****   * @retval Pointer to descriptor buffer
 284:USB_DEVICE/App/usbd_desc.c ****   */
 285:USB_DEVICE/App/usbd_desc.c **** uint8_t * USBD_FS_ProductStrDescriptor(USBD_SpeedTypeDef speed, uint16_t *length)
 286:USB_DEVICE/App/usbd_desc.c **** {
 179              		.loc 1 286 1
 180              		.cfi_startproc
 181              		@ args = 0, pretend = 0, frame = 8
 182              		@ frame_needed = 1, uses_anonymous_args = 0
 183 0000 80B5     		push	{r7, lr}
 184              	.LCFI12:
 185              		.cfi_def_cfa_offset 8
 186              		.cfi_offset 7, -8
 187              		.cfi_offset 14, -4
 188 0002 82B0     		sub	sp, sp, #8
 189              	.LCFI13:
 190              		.cfi_def_cfa_offset 16
 191 0004 00AF     		add	r7, sp, #0
 192              	.LCFI14:
 193              		.cfi_def_cfa_register 7
 194 0006 0346     		mov	r3, r0
 195 0008 3960     		str	r1, [r7]
 196 000a FB71     		strb	r3, [r7, #7]
 287:USB_DEVICE/App/usbd_desc.c ****   if(speed == 0)
 197              		.loc 1 287 5
 198 000c FB79     		ldrb	r3, [r7, #7]	@ zero_extendqisi2
 199 000e 002B     		cmp	r3, #0
 200 0010 05D1     		bne	.L10
 288:USB_DEVICE/App/usbd_desc.c ****   {
 289:USB_DEVICE/App/usbd_desc.c ****     USBD_GetString((uint8_t *)USBD_PRODUCT_STRING_FS, USBD_StrDesc, length);
 201              		.loc 1 289 5
 202 0012 3A68     		ldr	r2, [r7]
 203 0014 0749     		ldr	r1, .L13
 204 0016 0848     		ldr	r0, .L13+4
 205 0018 FFF7FEFF 		bl	USBD_GetString
 206 001c 04E0     		b	.L11
 207              	.L10:
 290:USB_DEVICE/App/usbd_desc.c ****   }
 291:USB_DEVICE/App/usbd_desc.c ****   else
 292:USB_DEVICE/App/usbd_desc.c ****   {
 293:USB_DEVICE/App/usbd_desc.c ****     USBD_GetString((uint8_t *)USBD_PRODUCT_STRING_FS, USBD_StrDesc, length);
 208              		.loc 1 293 5
 209 001e 3A68     		ldr	r2, [r7]
 210 0020 0449     		ldr	r1, .L13
 211 0022 0548     		ldr	r0, .L13+4
 212 0024 FFF7FEFF 		bl	USBD_GetString
 213              	.L11:
 294:USB_DEVICE/App/usbd_desc.c ****   }
 295:USB_DEVICE/App/usbd_desc.c ****   return USBD_StrDesc;
 214              		.loc 1 295 10
 215 0028 024B     		ldr	r3, .L13
 296:USB_DEVICE/App/usbd_desc.c **** }
 216              		.loc 1 296 1
 217 002a 1846     		mov	r0, r3
 218 002c 0837     		adds	r7, r7, #8
 219              	.LCFI15:
ARM GAS  /var/folders/vq/qt4vp3kd5rxf7v2b6_fdtdt80000gn/T//ccMfaxe0.s 			page 10


 220              		.cfi_def_cfa_offset 8
 221 002e BD46     		mov	sp, r7
 222              	.LCFI16:
 223              		.cfi_def_cfa_register 13
 224              		@ sp needed
 225 0030 80BD     		pop	{r7, pc}
 226              	.L14:
 227 0032 00BF     		.align	2
 228              	.L13:
 229 0034 00000000 		.word	USBD_StrDesc
 230 0038 00000000 		.word	.LC0
 231              		.cfi_endproc
 232              	.LFE136:
 234              		.section	.rodata
 235 0016 0000     		.align	2
 236              	.LC1:
 237 0018 53544D69 		.ascii	"STMicroelectronics\000"
 237      63726F65 
 237      6C656374 
 237      726F6E69 
 237      637300
 238              		.section	.text.USBD_FS_ManufacturerStrDescriptor,"ax",%progbits
 239              		.align	1
 240              		.global	USBD_FS_ManufacturerStrDescriptor
 241              		.syntax unified
 242              		.thumb
 243              		.thumb_func
 244              		.fpu fpv4-sp-d16
 246              	USBD_FS_ManufacturerStrDescriptor:
 247              	.LFB137:
 297:USB_DEVICE/App/usbd_desc.c **** 
 298:USB_DEVICE/App/usbd_desc.c **** /**
 299:USB_DEVICE/App/usbd_desc.c ****   * @brief  Return the manufacturer string descriptor
 300:USB_DEVICE/App/usbd_desc.c ****   * @param  speed : Current device speed
 301:USB_DEVICE/App/usbd_desc.c ****   * @param  length : Pointer to data length variable
 302:USB_DEVICE/App/usbd_desc.c ****   * @retval Pointer to descriptor buffer
 303:USB_DEVICE/App/usbd_desc.c ****   */
 304:USB_DEVICE/App/usbd_desc.c **** uint8_t * USBD_FS_ManufacturerStrDescriptor(USBD_SpeedTypeDef speed, uint16_t *length)
 305:USB_DEVICE/App/usbd_desc.c **** {
 248              		.loc 1 305 1
 249              		.cfi_startproc
 250              		@ args = 0, pretend = 0, frame = 8
 251              		@ frame_needed = 1, uses_anonymous_args = 0
 252 0000 80B5     		push	{r7, lr}
 253              	.LCFI17:
 254              		.cfi_def_cfa_offset 8
 255              		.cfi_offset 7, -8
 256              		.cfi_offset 14, -4
 257 0002 82B0     		sub	sp, sp, #8
 258              	.LCFI18:
 259              		.cfi_def_cfa_offset 16
 260 0004 00AF     		add	r7, sp, #0
 261              	.LCFI19:
 262              		.cfi_def_cfa_register 7
 263 0006 0346     		mov	r3, r0
 264 0008 3960     		str	r1, [r7]
 265 000a FB71     		strb	r3, [r7, #7]
ARM GAS  /var/folders/vq/qt4vp3kd5rxf7v2b6_fdtdt80000gn/T//ccMfaxe0.s 			page 11


 306:USB_DEVICE/App/usbd_desc.c ****   UNUSED(speed);
 307:USB_DEVICE/App/usbd_desc.c ****   USBD_GetString((uint8_t *)USBD_MANUFACTURER_STRING, USBD_StrDesc, length);
 266              		.loc 1 307 3
 267 000c 3A68     		ldr	r2, [r7]
 268 000e 0449     		ldr	r1, .L17
 269 0010 0448     		ldr	r0, .L17+4
 270 0012 FFF7FEFF 		bl	USBD_GetString
 308:USB_DEVICE/App/usbd_desc.c ****   return USBD_StrDesc;
 271              		.loc 1 308 10
 272 0016 024B     		ldr	r3, .L17
 309:USB_DEVICE/App/usbd_desc.c **** }
 273              		.loc 1 309 1
 274 0018 1846     		mov	r0, r3
 275 001a 0837     		adds	r7, r7, #8
 276              	.LCFI20:
 277              		.cfi_def_cfa_offset 8
 278 001c BD46     		mov	sp, r7
 279              	.LCFI21:
 280              		.cfi_def_cfa_register 13
 281              		@ sp needed
 282 001e 80BD     		pop	{r7, pc}
 283              	.L18:
 284              		.align	2
 285              	.L17:
 286 0020 00000000 		.word	USBD_StrDesc
 287 0024 18000000 		.word	.LC1
 288              		.cfi_endproc
 289              	.LFE137:
 291              		.section	.text.USBD_FS_SerialStrDescriptor,"ax",%progbits
 292              		.align	1
 293              		.global	USBD_FS_SerialStrDescriptor
 294              		.syntax unified
 295              		.thumb
 296              		.thumb_func
 297              		.fpu fpv4-sp-d16
 299              	USBD_FS_SerialStrDescriptor:
 300              	.LFB138:
 310:USB_DEVICE/App/usbd_desc.c **** 
 311:USB_DEVICE/App/usbd_desc.c **** /**
 312:USB_DEVICE/App/usbd_desc.c ****   * @brief  Return the serial number string descriptor
 313:USB_DEVICE/App/usbd_desc.c ****   * @param  speed : Current device speed
 314:USB_DEVICE/App/usbd_desc.c ****   * @param  length : Pointer to data length variable
 315:USB_DEVICE/App/usbd_desc.c ****   * @retval Pointer to descriptor buffer
 316:USB_DEVICE/App/usbd_desc.c ****   */
 317:USB_DEVICE/App/usbd_desc.c **** uint8_t * USBD_FS_SerialStrDescriptor(USBD_SpeedTypeDef speed, uint16_t *length)
 318:USB_DEVICE/App/usbd_desc.c **** {
 301              		.loc 1 318 1
 302              		.cfi_startproc
 303              		@ args = 0, pretend = 0, frame = 8
 304              		@ frame_needed = 1, uses_anonymous_args = 0
 305 0000 80B5     		push	{r7, lr}
 306              	.LCFI22:
 307              		.cfi_def_cfa_offset 8
 308              		.cfi_offset 7, -8
 309              		.cfi_offset 14, -4
 310 0002 82B0     		sub	sp, sp, #8
 311              	.LCFI23:
ARM GAS  /var/folders/vq/qt4vp3kd5rxf7v2b6_fdtdt80000gn/T//ccMfaxe0.s 			page 12


 312              		.cfi_def_cfa_offset 16
 313 0004 00AF     		add	r7, sp, #0
 314              	.LCFI24:
 315              		.cfi_def_cfa_register 7
 316 0006 0346     		mov	r3, r0
 317 0008 3960     		str	r1, [r7]
 318 000a FB71     		strb	r3, [r7, #7]
 319:USB_DEVICE/App/usbd_desc.c ****   UNUSED(speed);
 320:USB_DEVICE/App/usbd_desc.c ****   *length = USB_SIZ_STRING_SERIAL;
 319              		.loc 1 320 11
 320 000c 3B68     		ldr	r3, [r7]
 321 000e 1A22     		movs	r2, #26
 322 0010 1A80     		strh	r2, [r3]	@ movhi
 321:USB_DEVICE/App/usbd_desc.c **** 
 322:USB_DEVICE/App/usbd_desc.c ****   /* Update the serial number string descriptor with the data from the unique
 323:USB_DEVICE/App/usbd_desc.c ****    * ID */
 324:USB_DEVICE/App/usbd_desc.c ****   Get_SerialNum();
 323              		.loc 1 324 3
 324 0012 FFF7FEFF 		bl	Get_SerialNum
 325:USB_DEVICE/App/usbd_desc.c ****   /* USER CODE BEGIN USBD_FS_SerialStrDescriptor */
 326:USB_DEVICE/App/usbd_desc.c **** 
 327:USB_DEVICE/App/usbd_desc.c ****   /* USER CODE END USBD_FS_SerialStrDescriptor */
 328:USB_DEVICE/App/usbd_desc.c ****   return (uint8_t *) USBD_StringSerial;
 325              		.loc 1 328 10
 326 0016 024B     		ldr	r3, .L21
 329:USB_DEVICE/App/usbd_desc.c **** }
 327              		.loc 1 329 1
 328 0018 1846     		mov	r0, r3
 329 001a 0837     		adds	r7, r7, #8
 330              	.LCFI25:
 331              		.cfi_def_cfa_offset 8
 332 001c BD46     		mov	sp, r7
 333              	.LCFI26:
 334              		.cfi_def_cfa_register 13
 335              		@ sp needed
 336 001e 80BD     		pop	{r7, pc}
 337              	.L22:
 338              		.align	2
 339              	.L21:
 340 0020 00000000 		.word	USBD_StringSerial
 341              		.cfi_endproc
 342              	.LFE138:
 344              		.section	.rodata
 345 002b 00       		.align	2
 346              	.LC2:
 347 002c 43444320 		.ascii	"CDC Config\000"
 347      436F6E66 
 347      696700
 348              		.section	.text.USBD_FS_ConfigStrDescriptor,"ax",%progbits
 349              		.align	1
 350              		.global	USBD_FS_ConfigStrDescriptor
 351              		.syntax unified
 352              		.thumb
 353              		.thumb_func
 354              		.fpu fpv4-sp-d16
 356              	USBD_FS_ConfigStrDescriptor:
 357              	.LFB139:
ARM GAS  /var/folders/vq/qt4vp3kd5rxf7v2b6_fdtdt80000gn/T//ccMfaxe0.s 			page 13


 330:USB_DEVICE/App/usbd_desc.c **** 
 331:USB_DEVICE/App/usbd_desc.c **** /**
 332:USB_DEVICE/App/usbd_desc.c ****   * @brief  Return the configuration string descriptor
 333:USB_DEVICE/App/usbd_desc.c ****   * @param  speed : Current device speed
 334:USB_DEVICE/App/usbd_desc.c ****   * @param  length : Pointer to data length variable
 335:USB_DEVICE/App/usbd_desc.c ****   * @retval Pointer to descriptor buffer
 336:USB_DEVICE/App/usbd_desc.c ****   */
 337:USB_DEVICE/App/usbd_desc.c **** uint8_t * USBD_FS_ConfigStrDescriptor(USBD_SpeedTypeDef speed, uint16_t *length)
 338:USB_DEVICE/App/usbd_desc.c **** {
 358              		.loc 1 338 1
 359              		.cfi_startproc
 360              		@ args = 0, pretend = 0, frame = 8
 361              		@ frame_needed = 1, uses_anonymous_args = 0
 362 0000 80B5     		push	{r7, lr}
 363              	.LCFI27:
 364              		.cfi_def_cfa_offset 8
 365              		.cfi_offset 7, -8
 366              		.cfi_offset 14, -4
 367 0002 82B0     		sub	sp, sp, #8
 368              	.LCFI28:
 369              		.cfi_def_cfa_offset 16
 370 0004 00AF     		add	r7, sp, #0
 371              	.LCFI29:
 372              		.cfi_def_cfa_register 7
 373 0006 0346     		mov	r3, r0
 374 0008 3960     		str	r1, [r7]
 375 000a FB71     		strb	r3, [r7, #7]
 339:USB_DEVICE/App/usbd_desc.c ****   if(speed == USBD_SPEED_HIGH)
 376              		.loc 1 339 5
 377 000c FB79     		ldrb	r3, [r7, #7]	@ zero_extendqisi2
 378 000e 002B     		cmp	r3, #0
 379 0010 05D1     		bne	.L24
 340:USB_DEVICE/App/usbd_desc.c ****   {
 341:USB_DEVICE/App/usbd_desc.c ****     USBD_GetString((uint8_t *)USBD_CONFIGURATION_STRING_FS, USBD_StrDesc, length);
 380              		.loc 1 341 5
 381 0012 3A68     		ldr	r2, [r7]
 382 0014 0749     		ldr	r1, .L27
 383 0016 0848     		ldr	r0, .L27+4
 384 0018 FFF7FEFF 		bl	USBD_GetString
 385 001c 04E0     		b	.L25
 386              	.L24:
 342:USB_DEVICE/App/usbd_desc.c ****   }
 343:USB_DEVICE/App/usbd_desc.c ****   else
 344:USB_DEVICE/App/usbd_desc.c ****   {
 345:USB_DEVICE/App/usbd_desc.c ****     USBD_GetString((uint8_t *)USBD_CONFIGURATION_STRING_FS, USBD_StrDesc, length);
 387              		.loc 1 345 5
 388 001e 3A68     		ldr	r2, [r7]
 389 0020 0449     		ldr	r1, .L27
 390 0022 0548     		ldr	r0, .L27+4
 391 0024 FFF7FEFF 		bl	USBD_GetString
 392              	.L25:
 346:USB_DEVICE/App/usbd_desc.c ****   }
 347:USB_DEVICE/App/usbd_desc.c ****   return USBD_StrDesc;
 393              		.loc 1 347 10
 394 0028 024B     		ldr	r3, .L27
 348:USB_DEVICE/App/usbd_desc.c **** }
 395              		.loc 1 348 1
ARM GAS  /var/folders/vq/qt4vp3kd5rxf7v2b6_fdtdt80000gn/T//ccMfaxe0.s 			page 14


 396 002a 1846     		mov	r0, r3
 397 002c 0837     		adds	r7, r7, #8
 398              	.LCFI30:
 399              		.cfi_def_cfa_offset 8
 400 002e BD46     		mov	sp, r7
 401              	.LCFI31:
 402              		.cfi_def_cfa_register 13
 403              		@ sp needed
 404 0030 80BD     		pop	{r7, pc}
 405              	.L28:
 406 0032 00BF     		.align	2
 407              	.L27:
 408 0034 00000000 		.word	USBD_StrDesc
 409 0038 2C000000 		.word	.LC2
 410              		.cfi_endproc
 411              	.LFE139:
 413              		.section	.rodata
 414 0037 00       		.align	2
 415              	.LC3:
 416 0038 43444320 		.ascii	"CDC Interface\000"
 416      496E7465 
 416      72666163 
 416      6500
 417              		.section	.text.USBD_FS_InterfaceStrDescriptor,"ax",%progbits
 418              		.align	1
 419              		.global	USBD_FS_InterfaceStrDescriptor
 420              		.syntax unified
 421              		.thumb
 422              		.thumb_func
 423              		.fpu fpv4-sp-d16
 425              	USBD_FS_InterfaceStrDescriptor:
 426              	.LFB140:
 349:USB_DEVICE/App/usbd_desc.c **** 
 350:USB_DEVICE/App/usbd_desc.c **** /**
 351:USB_DEVICE/App/usbd_desc.c ****   * @brief  Return the interface string descriptor
 352:USB_DEVICE/App/usbd_desc.c ****   * @param  speed : Current device speed
 353:USB_DEVICE/App/usbd_desc.c ****   * @param  length : Pointer to data length variable
 354:USB_DEVICE/App/usbd_desc.c ****   * @retval Pointer to descriptor buffer
 355:USB_DEVICE/App/usbd_desc.c ****   */
 356:USB_DEVICE/App/usbd_desc.c **** uint8_t * USBD_FS_InterfaceStrDescriptor(USBD_SpeedTypeDef speed, uint16_t *length)
 357:USB_DEVICE/App/usbd_desc.c **** {
 427              		.loc 1 357 1
 428              		.cfi_startproc
 429              		@ args = 0, pretend = 0, frame = 8
 430              		@ frame_needed = 1, uses_anonymous_args = 0
 431 0000 80B5     		push	{r7, lr}
 432              	.LCFI32:
 433              		.cfi_def_cfa_offset 8
 434              		.cfi_offset 7, -8
 435              		.cfi_offset 14, -4
 436 0002 82B0     		sub	sp, sp, #8
 437              	.LCFI33:
 438              		.cfi_def_cfa_offset 16
 439 0004 00AF     		add	r7, sp, #0
 440              	.LCFI34:
 441              		.cfi_def_cfa_register 7
 442 0006 0346     		mov	r3, r0
ARM GAS  /var/folders/vq/qt4vp3kd5rxf7v2b6_fdtdt80000gn/T//ccMfaxe0.s 			page 15


 443 0008 3960     		str	r1, [r7]
 444 000a FB71     		strb	r3, [r7, #7]
 358:USB_DEVICE/App/usbd_desc.c ****   if(speed == 0)
 445              		.loc 1 358 5
 446 000c FB79     		ldrb	r3, [r7, #7]	@ zero_extendqisi2
 447 000e 002B     		cmp	r3, #0
 448 0010 05D1     		bne	.L30
 359:USB_DEVICE/App/usbd_desc.c ****   {
 360:USB_DEVICE/App/usbd_desc.c ****     USBD_GetString((uint8_t *)USBD_INTERFACE_STRING_FS, USBD_StrDesc, length);
 449              		.loc 1 360 5
 450 0012 3A68     		ldr	r2, [r7]
 451 0014 0749     		ldr	r1, .L33
 452 0016 0848     		ldr	r0, .L33+4
 453 0018 FFF7FEFF 		bl	USBD_GetString
 454 001c 04E0     		b	.L31
 455              	.L30:
 361:USB_DEVICE/App/usbd_desc.c ****   }
 362:USB_DEVICE/App/usbd_desc.c ****   else
 363:USB_DEVICE/App/usbd_desc.c ****   {
 364:USB_DEVICE/App/usbd_desc.c ****     USBD_GetString((uint8_t *)USBD_INTERFACE_STRING_FS, USBD_StrDesc, length);
 456              		.loc 1 364 5
 457 001e 3A68     		ldr	r2, [r7]
 458 0020 0449     		ldr	r1, .L33
 459 0022 0548     		ldr	r0, .L33+4
 460 0024 FFF7FEFF 		bl	USBD_GetString
 461              	.L31:
 365:USB_DEVICE/App/usbd_desc.c ****   }
 366:USB_DEVICE/App/usbd_desc.c ****   return USBD_StrDesc;
 462              		.loc 1 366 10
 463 0028 024B     		ldr	r3, .L33
 367:USB_DEVICE/App/usbd_desc.c **** }
 464              		.loc 1 367 1
 465 002a 1846     		mov	r0, r3
 466 002c 0837     		adds	r7, r7, #8
 467              	.LCFI35:
 468              		.cfi_def_cfa_offset 8
 469 002e BD46     		mov	sp, r7
 470              	.LCFI36:
 471              		.cfi_def_cfa_register 13
 472              		@ sp needed
 473 0030 80BD     		pop	{r7, pc}
 474              	.L34:
 475 0032 00BF     		.align	2
 476              	.L33:
 477 0034 00000000 		.word	USBD_StrDesc
 478 0038 38000000 		.word	.LC3
 479              		.cfi_endproc
 480              	.LFE140:
 482              		.section	.text.Get_SerialNum,"ax",%progbits
 483              		.align	1
 484              		.syntax unified
 485              		.thumb
 486              		.thumb_func
 487              		.fpu fpv4-sp-d16
 489              	Get_SerialNum:
 490              	.LFB141:
 368:USB_DEVICE/App/usbd_desc.c **** 
ARM GAS  /var/folders/vq/qt4vp3kd5rxf7v2b6_fdtdt80000gn/T//ccMfaxe0.s 			page 16


 369:USB_DEVICE/App/usbd_desc.c **** #if (USBD_LPM_ENABLED == 1)
 370:USB_DEVICE/App/usbd_desc.c **** /**
 371:USB_DEVICE/App/usbd_desc.c ****   * @brief  Return the BOS descriptor
 372:USB_DEVICE/App/usbd_desc.c ****   * @param  speed : Current device speed
 373:USB_DEVICE/App/usbd_desc.c ****   * @param  length : Pointer to data length variable
 374:USB_DEVICE/App/usbd_desc.c ****   * @retval Pointer to descriptor buffer
 375:USB_DEVICE/App/usbd_desc.c ****   */
 376:USB_DEVICE/App/usbd_desc.c **** uint8_t * USBD_FS_USR_BOSDescriptor(USBD_SpeedTypeDef speed, uint16_t *length)
 377:USB_DEVICE/App/usbd_desc.c **** {
 378:USB_DEVICE/App/usbd_desc.c ****   UNUSED(speed);
 379:USB_DEVICE/App/usbd_desc.c ****   *length = sizeof(USBD_FS_BOSDesc);
 380:USB_DEVICE/App/usbd_desc.c ****   return (uint8_t*)USBD_FS_BOSDesc;
 381:USB_DEVICE/App/usbd_desc.c **** }
 382:USB_DEVICE/App/usbd_desc.c **** #endif /* (USBD_LPM_ENABLED == 1) */
 383:USB_DEVICE/App/usbd_desc.c **** 
 384:USB_DEVICE/App/usbd_desc.c **** /**
 385:USB_DEVICE/App/usbd_desc.c ****   * @brief  Create the serial number string descriptor
 386:USB_DEVICE/App/usbd_desc.c ****   * @param  None
 387:USB_DEVICE/App/usbd_desc.c ****   * @retval None
 388:USB_DEVICE/App/usbd_desc.c ****   */
 389:USB_DEVICE/App/usbd_desc.c **** static void Get_SerialNum(void)
 390:USB_DEVICE/App/usbd_desc.c **** {
 491              		.loc 1 390 1
 492              		.cfi_startproc
 493              		@ args = 0, pretend = 0, frame = 16
 494              		@ frame_needed = 1, uses_anonymous_args = 0
 495 0000 80B5     		push	{r7, lr}
 496              	.LCFI37:
 497              		.cfi_def_cfa_offset 8
 498              		.cfi_offset 7, -8
 499              		.cfi_offset 14, -4
 500 0002 84B0     		sub	sp, sp, #16
 501              	.LCFI38:
 502              		.cfi_def_cfa_offset 24
 503 0004 00AF     		add	r7, sp, #0
 504              	.LCFI39:
 505              		.cfi_def_cfa_register 7
 391:USB_DEVICE/App/usbd_desc.c ****   uint32_t deviceserial0, deviceserial1, deviceserial2;
 392:USB_DEVICE/App/usbd_desc.c **** 
 393:USB_DEVICE/App/usbd_desc.c ****   deviceserial0 = *(uint32_t *) DEVICE_ID1;
 506              		.loc 1 393 19
 507 0006 0F4B     		ldr	r3, .L38
 508              		.loc 1 393 17
 509 0008 1B68     		ldr	r3, [r3]
 510 000a FB60     		str	r3, [r7, #12]
 394:USB_DEVICE/App/usbd_desc.c ****   deviceserial1 = *(uint32_t *) DEVICE_ID2;
 511              		.loc 1 394 19
 512 000c 0E4B     		ldr	r3, .L38+4
 513              		.loc 1 394 17
 514 000e 1B68     		ldr	r3, [r3]
 515 0010 BB60     		str	r3, [r7, #8]
 395:USB_DEVICE/App/usbd_desc.c ****   deviceserial2 = *(uint32_t *) DEVICE_ID3;
 516              		.loc 1 395 19
 517 0012 0E4B     		ldr	r3, .L38+8
 518              		.loc 1 395 17
 519 0014 1B68     		ldr	r3, [r3]
 520 0016 7B60     		str	r3, [r7, #4]
ARM GAS  /var/folders/vq/qt4vp3kd5rxf7v2b6_fdtdt80000gn/T//ccMfaxe0.s 			page 17


 396:USB_DEVICE/App/usbd_desc.c **** 
 397:USB_DEVICE/App/usbd_desc.c ****   deviceserial0 += deviceserial2;
 521              		.loc 1 397 17
 522 0018 FA68     		ldr	r2, [r7, #12]
 523 001a 7B68     		ldr	r3, [r7, #4]
 524 001c 1344     		add	r3, r3, r2
 525 001e FB60     		str	r3, [r7, #12]
 398:USB_DEVICE/App/usbd_desc.c **** 
 399:USB_DEVICE/App/usbd_desc.c ****   if (deviceserial0 != 0)
 526              		.loc 1 399 6
 527 0020 FB68     		ldr	r3, [r7, #12]
 528 0022 002B     		cmp	r3, #0
 529 0024 09D0     		beq	.L37
 400:USB_DEVICE/App/usbd_desc.c ****   {
 401:USB_DEVICE/App/usbd_desc.c ****     IntToUnicode(deviceserial0, &USBD_StringSerial[2], 8);
 530              		.loc 1 401 5
 531 0026 0822     		movs	r2, #8
 532 0028 0949     		ldr	r1, .L38+12
 533 002a F868     		ldr	r0, [r7, #12]
 534 002c FFF7FEFF 		bl	IntToUnicode
 402:USB_DEVICE/App/usbd_desc.c ****     IntToUnicode(deviceserial1, &USBD_StringSerial[18], 4);
 535              		.loc 1 402 5
 536 0030 0422     		movs	r2, #4
 537 0032 0849     		ldr	r1, .L38+16
 538 0034 B868     		ldr	r0, [r7, #8]
 539 0036 FFF7FEFF 		bl	IntToUnicode
 540              	.L37:
 403:USB_DEVICE/App/usbd_desc.c ****   }
 404:USB_DEVICE/App/usbd_desc.c **** }
 541              		.loc 1 404 1
 542 003a 00BF     		nop
 543 003c 1037     		adds	r7, r7, #16
 544              	.LCFI40:
 545              		.cfi_def_cfa_offset 8
 546 003e BD46     		mov	sp, r7
 547              	.LCFI41:
 548              		.cfi_def_cfa_register 13
 549              		@ sp needed
 550 0040 80BD     		pop	{r7, pc}
 551              	.L39:
 552 0042 00BF     		.align	2
 553              	.L38:
 554 0044 107AFF1F 		.word	536836624
 555 0048 147AFF1F 		.word	536836628
 556 004c 187AFF1F 		.word	536836632
 557 0050 02000000 		.word	USBD_StringSerial+2
 558 0054 12000000 		.word	USBD_StringSerial+18
 559              		.cfi_endproc
 560              	.LFE141:
 562              		.section	.text.IntToUnicode,"ax",%progbits
 563              		.align	1
 564              		.syntax unified
 565              		.thumb
 566              		.thumb_func
 567              		.fpu fpv4-sp-d16
 569              	IntToUnicode:
 570              	.LFB142:
ARM GAS  /var/folders/vq/qt4vp3kd5rxf7v2b6_fdtdt80000gn/T//ccMfaxe0.s 			page 18


 405:USB_DEVICE/App/usbd_desc.c **** 
 406:USB_DEVICE/App/usbd_desc.c **** /**
 407:USB_DEVICE/App/usbd_desc.c ****   * @brief  Convert Hex 32Bits value into char
 408:USB_DEVICE/App/usbd_desc.c ****   * @param  value: value to convert
 409:USB_DEVICE/App/usbd_desc.c ****   * @param  pbuf: pointer to the buffer
 410:USB_DEVICE/App/usbd_desc.c ****   * @param  len: buffer length
 411:USB_DEVICE/App/usbd_desc.c ****   * @retval None
 412:USB_DEVICE/App/usbd_desc.c ****   */
 413:USB_DEVICE/App/usbd_desc.c **** static void IntToUnicode(uint32_t value, uint8_t * pbuf, uint8_t len)
 414:USB_DEVICE/App/usbd_desc.c **** {
 571              		.loc 1 414 1
 572              		.cfi_startproc
 573              		@ args = 0, pretend = 0, frame = 24
 574              		@ frame_needed = 1, uses_anonymous_args = 0
 575              		@ link register save eliminated.
 576 0000 80B4     		push	{r7}
 577              	.LCFI42:
 578              		.cfi_def_cfa_offset 4
 579              		.cfi_offset 7, -4
 580 0002 87B0     		sub	sp, sp, #28
 581              	.LCFI43:
 582              		.cfi_def_cfa_offset 32
 583 0004 00AF     		add	r7, sp, #0
 584              	.LCFI44:
 585              		.cfi_def_cfa_register 7
 586 0006 F860     		str	r0, [r7, #12]
 587 0008 B960     		str	r1, [r7, #8]
 588 000a 1346     		mov	r3, r2
 589 000c FB71     		strb	r3, [r7, #7]
 415:USB_DEVICE/App/usbd_desc.c ****   uint8_t idx = 0;
 590              		.loc 1 415 11
 591 000e 0023     		movs	r3, #0
 592 0010 FB75     		strb	r3, [r7, #23]
 416:USB_DEVICE/App/usbd_desc.c **** 
 417:USB_DEVICE/App/usbd_desc.c ****   for (idx = 0; idx < len; idx++)
 593              		.loc 1 417 12
 594 0012 0023     		movs	r3, #0
 595 0014 FB75     		strb	r3, [r7, #23]
 596              		.loc 1 417 3
 597 0016 27E0     		b	.L41
 598              	.L44:
 418:USB_DEVICE/App/usbd_desc.c ****   {
 419:USB_DEVICE/App/usbd_desc.c ****     if (((value >> 28)) < 0xA)
 599              		.loc 1 419 17
 600 0018 FB68     		ldr	r3, [r7, #12]
 601 001a 1B0F     		lsrs	r3, r3, #28
 602              		.loc 1 419 8
 603 001c 092B     		cmp	r3, #9
 604 001e 0BD8     		bhi	.L42
 420:USB_DEVICE/App/usbd_desc.c ****     {
 421:USB_DEVICE/App/usbd_desc.c ****       pbuf[2 * idx] = (value >> 28) + '0';
 605              		.loc 1 421 30
 606 0020 FB68     		ldr	r3, [r7, #12]
 607 0022 1B0F     		lsrs	r3, r3, #28
 608              		.loc 1 421 37
 609 0024 DAB2     		uxtb	r2, r3
 610              		.loc 1 421 14
ARM GAS  /var/folders/vq/qt4vp3kd5rxf7v2b6_fdtdt80000gn/T//ccMfaxe0.s 			page 19


 611 0026 FB7D     		ldrb	r3, [r7, #23]	@ zero_extendqisi2
 612 0028 5B00     		lsls	r3, r3, #1
 613 002a 1946     		mov	r1, r3
 614              		.loc 1 421 11
 615 002c BB68     		ldr	r3, [r7, #8]
 616 002e 0B44     		add	r3, r3, r1
 617              		.loc 1 421 37
 618 0030 3032     		adds	r2, r2, #48
 619 0032 D2B2     		uxtb	r2, r2
 620              		.loc 1 421 21
 621 0034 1A70     		strb	r2, [r3]
 622 0036 0AE0     		b	.L43
 623              	.L42:
 422:USB_DEVICE/App/usbd_desc.c ****     }
 423:USB_DEVICE/App/usbd_desc.c ****     else
 424:USB_DEVICE/App/usbd_desc.c ****     {
 425:USB_DEVICE/App/usbd_desc.c ****       pbuf[2 * idx] = (value >> 28) + 'A' - 10;
 624              		.loc 1 425 30
 625 0038 FB68     		ldr	r3, [r7, #12]
 626 003a 1B0F     		lsrs	r3, r3, #28
 627              		.loc 1 425 43
 628 003c DAB2     		uxtb	r2, r3
 629              		.loc 1 425 14
 630 003e FB7D     		ldrb	r3, [r7, #23]	@ zero_extendqisi2
 631 0040 5B00     		lsls	r3, r3, #1
 632 0042 1946     		mov	r1, r3
 633              		.loc 1 425 11
 634 0044 BB68     		ldr	r3, [r7, #8]
 635 0046 0B44     		add	r3, r3, r1
 636              		.loc 1 425 43
 637 0048 3732     		adds	r2, r2, #55
 638 004a D2B2     		uxtb	r2, r2
 639              		.loc 1 425 21
 640 004c 1A70     		strb	r2, [r3]
 641              	.L43:
 426:USB_DEVICE/App/usbd_desc.c ****     }
 427:USB_DEVICE/App/usbd_desc.c **** 
 428:USB_DEVICE/App/usbd_desc.c ****     value = value << 4;
 642              		.loc 1 428 11 discriminator 2
 643 004e FB68     		ldr	r3, [r7, #12]
 644 0050 1B01     		lsls	r3, r3, #4
 645 0052 FB60     		str	r3, [r7, #12]
 429:USB_DEVICE/App/usbd_desc.c **** 
 430:USB_DEVICE/App/usbd_desc.c ****     pbuf[2 * idx + 1] = 0;
 646              		.loc 1 430 12 discriminator 2
 647 0054 FB7D     		ldrb	r3, [r7, #23]	@ zero_extendqisi2
 648 0056 5B00     		lsls	r3, r3, #1
 649              		.loc 1 430 9 discriminator 2
 650 0058 0133     		adds	r3, r3, #1
 651 005a BA68     		ldr	r2, [r7, #8]
 652 005c 1344     		add	r3, r3, r2
 653              		.loc 1 430 23 discriminator 2
 654 005e 0022     		movs	r2, #0
 655 0060 1A70     		strb	r2, [r3]
 417:USB_DEVICE/App/usbd_desc.c ****   {
 656              		.loc 1 417 31 discriminator 2
 657 0062 FB7D     		ldrb	r3, [r7, #23]	@ zero_extendqisi2
ARM GAS  /var/folders/vq/qt4vp3kd5rxf7v2b6_fdtdt80000gn/T//ccMfaxe0.s 			page 20


 658 0064 0133     		adds	r3, r3, #1
 659 0066 FB75     		strb	r3, [r7, #23]
 660              	.L41:
 417:USB_DEVICE/App/usbd_desc.c ****   {
 661              		.loc 1 417 3 discriminator 1
 662 0068 FA7D     		ldrb	r2, [r7, #23]	@ zero_extendqisi2
 663 006a FB79     		ldrb	r3, [r7, #7]	@ zero_extendqisi2
 664 006c 9A42     		cmp	r2, r3
 665 006e D3D3     		bcc	.L44
 431:USB_DEVICE/App/usbd_desc.c ****   }
 432:USB_DEVICE/App/usbd_desc.c **** }
 666              		.loc 1 432 1
 667 0070 00BF     		nop
 668 0072 00BF     		nop
 669 0074 1C37     		adds	r7, r7, #28
 670              	.LCFI45:
 671              		.cfi_def_cfa_offset 4
 672 0076 BD46     		mov	sp, r7
 673              	.LCFI46:
 674              		.cfi_def_cfa_register 13
 675              		@ sp needed
 676 0078 5DF8047B 		ldr	r7, [sp], #4
 677              	.LCFI47:
 678              		.cfi_restore 7
 679              		.cfi_def_cfa_offset 0
 680 007c 7047     		bx	lr
 681              		.cfi_endproc
 682              	.LFE142:
 684              		.text
 685              	.Letext0:
 686              		.file 2 "/usr/local/Cellar/arm-none-eabi-gcc/9-2019-q4-major/gcc/arm-none-eabi/include/machine/_de
 687              		.file 3 "/usr/local/Cellar/arm-none-eabi-gcc/9-2019-q4-major/gcc/arm-none-eabi/include/sys/lock.h"
 688              		.file 4 "/usr/local/Cellar/arm-none-eabi-gcc/9-2019-q4-major/gcc/arm-none-eabi/include/sys/_types.
 689              		.file 5 "/usr/local/Cellar/arm-none-eabi-gcc/9-2019-q4-major/gcc/lib/gcc/arm-none-eabi/9.2.1/inclu
 690              		.file 6 "/usr/local/Cellar/arm-none-eabi-gcc/9-2019-q4-major/gcc/arm-none-eabi/include/sys/reent.h
 691              		.file 7 "/usr/local/Cellar/arm-none-eabi-gcc/9-2019-q4-major/gcc/arm-none-eabi/include/sys/_stdint
 692              		.file 8 "/usr/local/Cellar/arm-none-eabi-gcc/9-2019-q4-major/gcc/arm-none-eabi/include/stdlib.h"
 693              		.file 9 "Drivers/CMSIS/Include/core_cm4.h"
 694              		.file 10 "Drivers/CMSIS/Device/ST/STM32F4xx/Include/system_stm32f4xx.h"
 695              		.file 11 "Drivers/STM32F4xx_HAL_Driver/Inc/stm32f4xx_hal.h"
 696              		.file 12 "Middlewares/ST/STM32_USB_Device_Library/Core/Inc/usbd_def.h"
 697              		.file 13 "USB_DEVICE/App/usbd_desc.h"
ARM GAS  /var/folders/vq/qt4vp3kd5rxf7v2b6_fdtdt80000gn/T//ccMfaxe0.s 			page 21

