ARM GAS  /var/folders/vq/qt4vp3kd5rxf7v2b6_fdtdt80000gn/T//ccb7F33r.s 			page 1


   1              		.cpu cortex-m4
   2              		.eabi_attribute 27, 1
   3              		.eabi_attribute 20, 1
   4              		.eabi_attribute 21, 1
   5              		.eabi_attribute 23, 3
   6              		.eabi_attribute 24, 1
   7              		.eabi_attribute 25, 1
   8              		.eabi_attribute 26, 1
   9              		.eabi_attribute 30, 6
  10              		.eabi_attribute 34, 1
  11              		.eabi_attribute 18, 4
  12              		.file	"usbd_ctlreq.c"
  13              		.text
  14              	.Ltext0:
  15              		.cfi_sections	.debug_frame
  16              		.section	.text.SWAPBYTE,"ax",%progbits
  17              		.align	1
  18              		.arch armv7e-m
  19              		.syntax unified
  20              		.thumb
  21              		.thumb_func
  22              		.fpu fpv4-sp-d16
  24              	SWAPBYTE:
  25              	.LFB133:
  26              		.file 1 "Middlewares/ST/STM32_USB_Device_Library/Core/Inc/usbd_def.h"
   1:Middlewares/ST/STM32_USB_Device_Library/Core/Inc/usbd_def.h **** /**
   2:Middlewares/ST/STM32_USB_Device_Library/Core/Inc/usbd_def.h ****   ******************************************************************************
   3:Middlewares/ST/STM32_USB_Device_Library/Core/Inc/usbd_def.h ****   * @file    usbd_def.h
   4:Middlewares/ST/STM32_USB_Device_Library/Core/Inc/usbd_def.h ****   * @author  MCD Application Team
   5:Middlewares/ST/STM32_USB_Device_Library/Core/Inc/usbd_def.h ****   * @brief   General defines for the usb device library
   6:Middlewares/ST/STM32_USB_Device_Library/Core/Inc/usbd_def.h ****   ******************************************************************************
   7:Middlewares/ST/STM32_USB_Device_Library/Core/Inc/usbd_def.h ****   * @attention
   8:Middlewares/ST/STM32_USB_Device_Library/Core/Inc/usbd_def.h ****   *
   9:Middlewares/ST/STM32_USB_Device_Library/Core/Inc/usbd_def.h ****   * <h2><center>&copy; Copyright (c) 2015 STMicroelectronics.
  10:Middlewares/ST/STM32_USB_Device_Library/Core/Inc/usbd_def.h ****   * All rights reserved.</center></h2>
  11:Middlewares/ST/STM32_USB_Device_Library/Core/Inc/usbd_def.h ****   *
  12:Middlewares/ST/STM32_USB_Device_Library/Core/Inc/usbd_def.h ****   * This software component is licensed by ST under Ultimate Liberty license
  13:Middlewares/ST/STM32_USB_Device_Library/Core/Inc/usbd_def.h ****   * SLA0044, the "License"; You may not use this file except in compliance with
  14:Middlewares/ST/STM32_USB_Device_Library/Core/Inc/usbd_def.h ****   * the License. You may obtain a copy of the License at:
  15:Middlewares/ST/STM32_USB_Device_Library/Core/Inc/usbd_def.h ****   *                      www.st.com/SLA0044
  16:Middlewares/ST/STM32_USB_Device_Library/Core/Inc/usbd_def.h ****   *
  17:Middlewares/ST/STM32_USB_Device_Library/Core/Inc/usbd_def.h ****   ******************************************************************************
  18:Middlewares/ST/STM32_USB_Device_Library/Core/Inc/usbd_def.h ****   */
  19:Middlewares/ST/STM32_USB_Device_Library/Core/Inc/usbd_def.h **** 
  20:Middlewares/ST/STM32_USB_Device_Library/Core/Inc/usbd_def.h **** /* Define to prevent recursive inclusion -------------------------------------*/
  21:Middlewares/ST/STM32_USB_Device_Library/Core/Inc/usbd_def.h **** #ifndef __USBD_DEF_H
  22:Middlewares/ST/STM32_USB_Device_Library/Core/Inc/usbd_def.h **** #define __USBD_DEF_H
  23:Middlewares/ST/STM32_USB_Device_Library/Core/Inc/usbd_def.h **** 
  24:Middlewares/ST/STM32_USB_Device_Library/Core/Inc/usbd_def.h **** #ifdef __cplusplus
  25:Middlewares/ST/STM32_USB_Device_Library/Core/Inc/usbd_def.h **** extern "C" {
  26:Middlewares/ST/STM32_USB_Device_Library/Core/Inc/usbd_def.h **** #endif
  27:Middlewares/ST/STM32_USB_Device_Library/Core/Inc/usbd_def.h **** 
  28:Middlewares/ST/STM32_USB_Device_Library/Core/Inc/usbd_def.h **** /* Includes ------------------------------------------------------------------*/
  29:Middlewares/ST/STM32_USB_Device_Library/Core/Inc/usbd_def.h **** #include "usbd_conf.h"
  30:Middlewares/ST/STM32_USB_Device_Library/Core/Inc/usbd_def.h **** 
  31:Middlewares/ST/STM32_USB_Device_Library/Core/Inc/usbd_def.h **** /** @addtogroup STM32_USBD_DEVICE_LIBRARY
  32:Middlewares/ST/STM32_USB_Device_Library/Core/Inc/usbd_def.h ****   * @{
ARM GAS  /var/folders/vq/qt4vp3kd5rxf7v2b6_fdtdt80000gn/T//ccb7F33r.s 			page 2


  33:Middlewares/ST/STM32_USB_Device_Library/Core/Inc/usbd_def.h ****   */
  34:Middlewares/ST/STM32_USB_Device_Library/Core/Inc/usbd_def.h **** 
  35:Middlewares/ST/STM32_USB_Device_Library/Core/Inc/usbd_def.h **** /** @defgroup USB_DEF
  36:Middlewares/ST/STM32_USB_Device_Library/Core/Inc/usbd_def.h ****   * @brief general defines for the usb device library file
  37:Middlewares/ST/STM32_USB_Device_Library/Core/Inc/usbd_def.h ****   * @{
  38:Middlewares/ST/STM32_USB_Device_Library/Core/Inc/usbd_def.h ****   */
  39:Middlewares/ST/STM32_USB_Device_Library/Core/Inc/usbd_def.h **** 
  40:Middlewares/ST/STM32_USB_Device_Library/Core/Inc/usbd_def.h **** /** @defgroup USB_DEF_Exported_Defines
  41:Middlewares/ST/STM32_USB_Device_Library/Core/Inc/usbd_def.h ****   * @{
  42:Middlewares/ST/STM32_USB_Device_Library/Core/Inc/usbd_def.h ****   */
  43:Middlewares/ST/STM32_USB_Device_Library/Core/Inc/usbd_def.h **** 
  44:Middlewares/ST/STM32_USB_Device_Library/Core/Inc/usbd_def.h **** #ifndef NULL
  45:Middlewares/ST/STM32_USB_Device_Library/Core/Inc/usbd_def.h **** #define NULL                                            0U
  46:Middlewares/ST/STM32_USB_Device_Library/Core/Inc/usbd_def.h **** #endif /* NULL */
  47:Middlewares/ST/STM32_USB_Device_Library/Core/Inc/usbd_def.h **** 
  48:Middlewares/ST/STM32_USB_Device_Library/Core/Inc/usbd_def.h **** #ifndef USBD_MAX_NUM_INTERFACES
  49:Middlewares/ST/STM32_USB_Device_Library/Core/Inc/usbd_def.h **** #define USBD_MAX_NUM_INTERFACES                         1U
  50:Middlewares/ST/STM32_USB_Device_Library/Core/Inc/usbd_def.h **** #endif /* USBD_MAX_NUM_CONFIGURATION */
  51:Middlewares/ST/STM32_USB_Device_Library/Core/Inc/usbd_def.h **** 
  52:Middlewares/ST/STM32_USB_Device_Library/Core/Inc/usbd_def.h **** #ifndef USBD_MAX_NUM_CONFIGURATION
  53:Middlewares/ST/STM32_USB_Device_Library/Core/Inc/usbd_def.h **** #define USBD_MAX_NUM_CONFIGURATION                      1U
  54:Middlewares/ST/STM32_USB_Device_Library/Core/Inc/usbd_def.h **** #endif /* USBD_MAX_NUM_CONFIGURATION */
  55:Middlewares/ST/STM32_USB_Device_Library/Core/Inc/usbd_def.h **** 
  56:Middlewares/ST/STM32_USB_Device_Library/Core/Inc/usbd_def.h **** #ifndef USBD_LPM_ENABLED
  57:Middlewares/ST/STM32_USB_Device_Library/Core/Inc/usbd_def.h **** #define USBD_LPM_ENABLED                                0U
  58:Middlewares/ST/STM32_USB_Device_Library/Core/Inc/usbd_def.h **** #endif /* USBD_LPM_ENABLED */
  59:Middlewares/ST/STM32_USB_Device_Library/Core/Inc/usbd_def.h **** 
  60:Middlewares/ST/STM32_USB_Device_Library/Core/Inc/usbd_def.h **** #ifndef USBD_SELF_POWERED
  61:Middlewares/ST/STM32_USB_Device_Library/Core/Inc/usbd_def.h **** #define USBD_SELF_POWERED                               1U
  62:Middlewares/ST/STM32_USB_Device_Library/Core/Inc/usbd_def.h **** #endif /*USBD_SELF_POWERED */
  63:Middlewares/ST/STM32_USB_Device_Library/Core/Inc/usbd_def.h **** 
  64:Middlewares/ST/STM32_USB_Device_Library/Core/Inc/usbd_def.h **** #ifndef USBD_MAX_POWER
  65:Middlewares/ST/STM32_USB_Device_Library/Core/Inc/usbd_def.h **** #define USBD_MAX_POWER                                  0x32U /* 100 mA */
  66:Middlewares/ST/STM32_USB_Device_Library/Core/Inc/usbd_def.h **** #endif /* USBD_MAX_POWER */
  67:Middlewares/ST/STM32_USB_Device_Library/Core/Inc/usbd_def.h **** 
  68:Middlewares/ST/STM32_USB_Device_Library/Core/Inc/usbd_def.h **** #ifndef USBD_SUPPORT_USER_STRING_DESC
  69:Middlewares/ST/STM32_USB_Device_Library/Core/Inc/usbd_def.h **** #define USBD_SUPPORT_USER_STRING_DESC                   0U
  70:Middlewares/ST/STM32_USB_Device_Library/Core/Inc/usbd_def.h **** #endif /* USBD_SUPPORT_USER_STRING_DESC */
  71:Middlewares/ST/STM32_USB_Device_Library/Core/Inc/usbd_def.h **** 
  72:Middlewares/ST/STM32_USB_Device_Library/Core/Inc/usbd_def.h **** #ifndef USBD_CLASS_USER_STRING_DESC
  73:Middlewares/ST/STM32_USB_Device_Library/Core/Inc/usbd_def.h **** #define USBD_CLASS_USER_STRING_DESC                     0U
  74:Middlewares/ST/STM32_USB_Device_Library/Core/Inc/usbd_def.h **** #endif /* USBD_CLASS_USER_STRING_DESC */
  75:Middlewares/ST/STM32_USB_Device_Library/Core/Inc/usbd_def.h **** 
  76:Middlewares/ST/STM32_USB_Device_Library/Core/Inc/usbd_def.h **** #define  USB_LEN_DEV_QUALIFIER_DESC                     0x0AU
  77:Middlewares/ST/STM32_USB_Device_Library/Core/Inc/usbd_def.h **** #define  USB_LEN_DEV_DESC                               0x12U
  78:Middlewares/ST/STM32_USB_Device_Library/Core/Inc/usbd_def.h **** #define  USB_LEN_CFG_DESC                               0x09U
  79:Middlewares/ST/STM32_USB_Device_Library/Core/Inc/usbd_def.h **** #define  USB_LEN_IF_DESC                                0x09U
  80:Middlewares/ST/STM32_USB_Device_Library/Core/Inc/usbd_def.h **** #define  USB_LEN_EP_DESC                                0x07U
  81:Middlewares/ST/STM32_USB_Device_Library/Core/Inc/usbd_def.h **** #define  USB_LEN_OTG_DESC                               0x03U
  82:Middlewares/ST/STM32_USB_Device_Library/Core/Inc/usbd_def.h **** #define  USB_LEN_LANGID_STR_DESC                        0x04U
  83:Middlewares/ST/STM32_USB_Device_Library/Core/Inc/usbd_def.h **** #define  USB_LEN_OTHER_SPEED_DESC_SIZ                   0x09U
  84:Middlewares/ST/STM32_USB_Device_Library/Core/Inc/usbd_def.h **** 
  85:Middlewares/ST/STM32_USB_Device_Library/Core/Inc/usbd_def.h **** #define  USBD_IDX_LANGID_STR                            0x00U
  86:Middlewares/ST/STM32_USB_Device_Library/Core/Inc/usbd_def.h **** #define  USBD_IDX_MFC_STR                               0x01U
  87:Middlewares/ST/STM32_USB_Device_Library/Core/Inc/usbd_def.h **** #define  USBD_IDX_PRODUCT_STR                           0x02U
  88:Middlewares/ST/STM32_USB_Device_Library/Core/Inc/usbd_def.h **** #define  USBD_IDX_SERIAL_STR                            0x03U
  89:Middlewares/ST/STM32_USB_Device_Library/Core/Inc/usbd_def.h **** #define  USBD_IDX_CONFIG_STR                            0x04U
ARM GAS  /var/folders/vq/qt4vp3kd5rxf7v2b6_fdtdt80000gn/T//ccb7F33r.s 			page 3


  90:Middlewares/ST/STM32_USB_Device_Library/Core/Inc/usbd_def.h **** #define  USBD_IDX_INTERFACE_STR                         0x05U
  91:Middlewares/ST/STM32_USB_Device_Library/Core/Inc/usbd_def.h **** 
  92:Middlewares/ST/STM32_USB_Device_Library/Core/Inc/usbd_def.h **** #define  USB_REQ_TYPE_STANDARD                          0x00U
  93:Middlewares/ST/STM32_USB_Device_Library/Core/Inc/usbd_def.h **** #define  USB_REQ_TYPE_CLASS                             0x20U
  94:Middlewares/ST/STM32_USB_Device_Library/Core/Inc/usbd_def.h **** #define  USB_REQ_TYPE_VENDOR                            0x40U
  95:Middlewares/ST/STM32_USB_Device_Library/Core/Inc/usbd_def.h **** #define  USB_REQ_TYPE_MASK                              0x60U
  96:Middlewares/ST/STM32_USB_Device_Library/Core/Inc/usbd_def.h **** 
  97:Middlewares/ST/STM32_USB_Device_Library/Core/Inc/usbd_def.h **** #define  USB_REQ_RECIPIENT_DEVICE                       0x00U
  98:Middlewares/ST/STM32_USB_Device_Library/Core/Inc/usbd_def.h **** #define  USB_REQ_RECIPIENT_INTERFACE                    0x01U
  99:Middlewares/ST/STM32_USB_Device_Library/Core/Inc/usbd_def.h **** #define  USB_REQ_RECIPIENT_ENDPOINT                     0x02U
 100:Middlewares/ST/STM32_USB_Device_Library/Core/Inc/usbd_def.h **** #define  USB_REQ_RECIPIENT_MASK                         0x03U
 101:Middlewares/ST/STM32_USB_Device_Library/Core/Inc/usbd_def.h **** 
 102:Middlewares/ST/STM32_USB_Device_Library/Core/Inc/usbd_def.h **** #define  USB_REQ_GET_STATUS                             0x00U
 103:Middlewares/ST/STM32_USB_Device_Library/Core/Inc/usbd_def.h **** #define  USB_REQ_CLEAR_FEATURE                          0x01U
 104:Middlewares/ST/STM32_USB_Device_Library/Core/Inc/usbd_def.h **** #define  USB_REQ_SET_FEATURE                            0x03U
 105:Middlewares/ST/STM32_USB_Device_Library/Core/Inc/usbd_def.h **** #define  USB_REQ_SET_ADDRESS                            0x05U
 106:Middlewares/ST/STM32_USB_Device_Library/Core/Inc/usbd_def.h **** #define  USB_REQ_GET_DESCRIPTOR                         0x06U
 107:Middlewares/ST/STM32_USB_Device_Library/Core/Inc/usbd_def.h **** #define  USB_REQ_SET_DESCRIPTOR                         0x07U
 108:Middlewares/ST/STM32_USB_Device_Library/Core/Inc/usbd_def.h **** #define  USB_REQ_GET_CONFIGURATION                      0x08U
 109:Middlewares/ST/STM32_USB_Device_Library/Core/Inc/usbd_def.h **** #define  USB_REQ_SET_CONFIGURATION                      0x09U
 110:Middlewares/ST/STM32_USB_Device_Library/Core/Inc/usbd_def.h **** #define  USB_REQ_GET_INTERFACE                          0x0AU
 111:Middlewares/ST/STM32_USB_Device_Library/Core/Inc/usbd_def.h **** #define  USB_REQ_SET_INTERFACE                          0x0BU
 112:Middlewares/ST/STM32_USB_Device_Library/Core/Inc/usbd_def.h **** #define  USB_REQ_SYNCH_FRAME                            0x0CU
 113:Middlewares/ST/STM32_USB_Device_Library/Core/Inc/usbd_def.h **** 
 114:Middlewares/ST/STM32_USB_Device_Library/Core/Inc/usbd_def.h **** #define  USB_DESC_TYPE_DEVICE                           0x01U
 115:Middlewares/ST/STM32_USB_Device_Library/Core/Inc/usbd_def.h **** #define  USB_DESC_TYPE_CONFIGURATION                    0x02U
 116:Middlewares/ST/STM32_USB_Device_Library/Core/Inc/usbd_def.h **** #define  USB_DESC_TYPE_STRING                           0x03U
 117:Middlewares/ST/STM32_USB_Device_Library/Core/Inc/usbd_def.h **** #define  USB_DESC_TYPE_INTERFACE                        0x04U
 118:Middlewares/ST/STM32_USB_Device_Library/Core/Inc/usbd_def.h **** #define  USB_DESC_TYPE_ENDPOINT                         0x05U
 119:Middlewares/ST/STM32_USB_Device_Library/Core/Inc/usbd_def.h **** #define  USB_DESC_TYPE_DEVICE_QUALIFIER                 0x06U
 120:Middlewares/ST/STM32_USB_Device_Library/Core/Inc/usbd_def.h **** #define  USB_DESC_TYPE_OTHER_SPEED_CONFIGURATION        0x07U
 121:Middlewares/ST/STM32_USB_Device_Library/Core/Inc/usbd_def.h **** #define  USB_DESC_TYPE_IAD                              0x0BU
 122:Middlewares/ST/STM32_USB_Device_Library/Core/Inc/usbd_def.h **** #define  USB_DESC_TYPE_BOS                              0x0FU
 123:Middlewares/ST/STM32_USB_Device_Library/Core/Inc/usbd_def.h **** 
 124:Middlewares/ST/STM32_USB_Device_Library/Core/Inc/usbd_def.h **** #define USB_CONFIG_REMOTE_WAKEUP                        0x02U
 125:Middlewares/ST/STM32_USB_Device_Library/Core/Inc/usbd_def.h **** #define USB_CONFIG_SELF_POWERED                         0x01U
 126:Middlewares/ST/STM32_USB_Device_Library/Core/Inc/usbd_def.h **** 
 127:Middlewares/ST/STM32_USB_Device_Library/Core/Inc/usbd_def.h **** #define USB_FEATURE_EP_HALT                             0x00U
 128:Middlewares/ST/STM32_USB_Device_Library/Core/Inc/usbd_def.h **** #define USB_FEATURE_REMOTE_WAKEUP                       0x01U
 129:Middlewares/ST/STM32_USB_Device_Library/Core/Inc/usbd_def.h **** #define USB_FEATURE_TEST_MODE                           0x02U
 130:Middlewares/ST/STM32_USB_Device_Library/Core/Inc/usbd_def.h **** 
 131:Middlewares/ST/STM32_USB_Device_Library/Core/Inc/usbd_def.h **** #define USB_DEVICE_CAPABITY_TYPE                        0x10U
 132:Middlewares/ST/STM32_USB_Device_Library/Core/Inc/usbd_def.h **** 
 133:Middlewares/ST/STM32_USB_Device_Library/Core/Inc/usbd_def.h **** #define USB_CONF_DESC_SIZE                              0x09U
 134:Middlewares/ST/STM32_USB_Device_Library/Core/Inc/usbd_def.h **** #define USB_IF_DESC_SIZE                                0x09U
 135:Middlewares/ST/STM32_USB_Device_Library/Core/Inc/usbd_def.h **** #define USB_EP_DESC_SIZE                                0x07U
 136:Middlewares/ST/STM32_USB_Device_Library/Core/Inc/usbd_def.h **** #define USB_IAD_DESC_SIZE                               0x08U
 137:Middlewares/ST/STM32_USB_Device_Library/Core/Inc/usbd_def.h **** 
 138:Middlewares/ST/STM32_USB_Device_Library/Core/Inc/usbd_def.h **** #define USB_HS_MAX_PACKET_SIZE                          512U
 139:Middlewares/ST/STM32_USB_Device_Library/Core/Inc/usbd_def.h **** #define USB_FS_MAX_PACKET_SIZE                          64U
 140:Middlewares/ST/STM32_USB_Device_Library/Core/Inc/usbd_def.h **** #define USB_MAX_EP0_SIZE                                64U
 141:Middlewares/ST/STM32_USB_Device_Library/Core/Inc/usbd_def.h **** 
 142:Middlewares/ST/STM32_USB_Device_Library/Core/Inc/usbd_def.h **** /*  Device Status */
 143:Middlewares/ST/STM32_USB_Device_Library/Core/Inc/usbd_def.h **** #define USBD_STATE_DEFAULT                              0x01U
 144:Middlewares/ST/STM32_USB_Device_Library/Core/Inc/usbd_def.h **** #define USBD_STATE_ADDRESSED                            0x02U
 145:Middlewares/ST/STM32_USB_Device_Library/Core/Inc/usbd_def.h **** #define USBD_STATE_CONFIGURED                           0x03U
 146:Middlewares/ST/STM32_USB_Device_Library/Core/Inc/usbd_def.h **** #define USBD_STATE_SUSPENDED                            0x04U
ARM GAS  /var/folders/vq/qt4vp3kd5rxf7v2b6_fdtdt80000gn/T//ccb7F33r.s 			page 4


 147:Middlewares/ST/STM32_USB_Device_Library/Core/Inc/usbd_def.h **** 
 148:Middlewares/ST/STM32_USB_Device_Library/Core/Inc/usbd_def.h **** 
 149:Middlewares/ST/STM32_USB_Device_Library/Core/Inc/usbd_def.h **** /*  EP0 State */
 150:Middlewares/ST/STM32_USB_Device_Library/Core/Inc/usbd_def.h **** #define USBD_EP0_IDLE                                   0x00U
 151:Middlewares/ST/STM32_USB_Device_Library/Core/Inc/usbd_def.h **** #define USBD_EP0_SETUP                                  0x01U
 152:Middlewares/ST/STM32_USB_Device_Library/Core/Inc/usbd_def.h **** #define USBD_EP0_DATA_IN                                0x02U
 153:Middlewares/ST/STM32_USB_Device_Library/Core/Inc/usbd_def.h **** #define USBD_EP0_DATA_OUT                               0x03U
 154:Middlewares/ST/STM32_USB_Device_Library/Core/Inc/usbd_def.h **** #define USBD_EP0_STATUS_IN                              0x04U
 155:Middlewares/ST/STM32_USB_Device_Library/Core/Inc/usbd_def.h **** #define USBD_EP0_STATUS_OUT                             0x05U
 156:Middlewares/ST/STM32_USB_Device_Library/Core/Inc/usbd_def.h **** #define USBD_EP0_STALL                                  0x06U
 157:Middlewares/ST/STM32_USB_Device_Library/Core/Inc/usbd_def.h **** 
 158:Middlewares/ST/STM32_USB_Device_Library/Core/Inc/usbd_def.h **** #define USBD_EP_TYPE_CTRL                               0x00U
 159:Middlewares/ST/STM32_USB_Device_Library/Core/Inc/usbd_def.h **** #define USBD_EP_TYPE_ISOC                               0x01U
 160:Middlewares/ST/STM32_USB_Device_Library/Core/Inc/usbd_def.h **** #define USBD_EP_TYPE_BULK                               0x02U
 161:Middlewares/ST/STM32_USB_Device_Library/Core/Inc/usbd_def.h **** #define USBD_EP_TYPE_INTR                               0x03U
 162:Middlewares/ST/STM32_USB_Device_Library/Core/Inc/usbd_def.h **** 
 163:Middlewares/ST/STM32_USB_Device_Library/Core/Inc/usbd_def.h **** /**
 164:Middlewares/ST/STM32_USB_Device_Library/Core/Inc/usbd_def.h ****   * @}
 165:Middlewares/ST/STM32_USB_Device_Library/Core/Inc/usbd_def.h ****   */
 166:Middlewares/ST/STM32_USB_Device_Library/Core/Inc/usbd_def.h **** 
 167:Middlewares/ST/STM32_USB_Device_Library/Core/Inc/usbd_def.h **** 
 168:Middlewares/ST/STM32_USB_Device_Library/Core/Inc/usbd_def.h **** /** @defgroup USBD_DEF_Exported_TypesDefinitions
 169:Middlewares/ST/STM32_USB_Device_Library/Core/Inc/usbd_def.h ****   * @{
 170:Middlewares/ST/STM32_USB_Device_Library/Core/Inc/usbd_def.h ****   */
 171:Middlewares/ST/STM32_USB_Device_Library/Core/Inc/usbd_def.h **** 
 172:Middlewares/ST/STM32_USB_Device_Library/Core/Inc/usbd_def.h **** typedef  struct  usb_setup_req
 173:Middlewares/ST/STM32_USB_Device_Library/Core/Inc/usbd_def.h **** {
 174:Middlewares/ST/STM32_USB_Device_Library/Core/Inc/usbd_def.h ****   uint8_t   bmRequest;
 175:Middlewares/ST/STM32_USB_Device_Library/Core/Inc/usbd_def.h ****   uint8_t   bRequest;
 176:Middlewares/ST/STM32_USB_Device_Library/Core/Inc/usbd_def.h ****   uint16_t  wValue;
 177:Middlewares/ST/STM32_USB_Device_Library/Core/Inc/usbd_def.h ****   uint16_t  wIndex;
 178:Middlewares/ST/STM32_USB_Device_Library/Core/Inc/usbd_def.h ****   uint16_t  wLength;
 179:Middlewares/ST/STM32_USB_Device_Library/Core/Inc/usbd_def.h **** } USBD_SetupReqTypedef;
 180:Middlewares/ST/STM32_USB_Device_Library/Core/Inc/usbd_def.h **** 
 181:Middlewares/ST/STM32_USB_Device_Library/Core/Inc/usbd_def.h **** typedef struct
 182:Middlewares/ST/STM32_USB_Device_Library/Core/Inc/usbd_def.h **** {
 183:Middlewares/ST/STM32_USB_Device_Library/Core/Inc/usbd_def.h ****   uint8_t   bLength;
 184:Middlewares/ST/STM32_USB_Device_Library/Core/Inc/usbd_def.h ****   uint8_t   bDescriptorType;
 185:Middlewares/ST/STM32_USB_Device_Library/Core/Inc/usbd_def.h ****   uint16_t  wTotalLength;
 186:Middlewares/ST/STM32_USB_Device_Library/Core/Inc/usbd_def.h ****   uint8_t   bNumInterfaces;
 187:Middlewares/ST/STM32_USB_Device_Library/Core/Inc/usbd_def.h ****   uint8_t   bConfigurationValue;
 188:Middlewares/ST/STM32_USB_Device_Library/Core/Inc/usbd_def.h ****   uint8_t   iConfiguration;
 189:Middlewares/ST/STM32_USB_Device_Library/Core/Inc/usbd_def.h ****   uint8_t   bmAttributes;
 190:Middlewares/ST/STM32_USB_Device_Library/Core/Inc/usbd_def.h ****   uint8_t   bMaxPower;
 191:Middlewares/ST/STM32_USB_Device_Library/Core/Inc/usbd_def.h **** } USBD_ConfigDescTypedef;
 192:Middlewares/ST/STM32_USB_Device_Library/Core/Inc/usbd_def.h **** 
 193:Middlewares/ST/STM32_USB_Device_Library/Core/Inc/usbd_def.h **** typedef struct
 194:Middlewares/ST/STM32_USB_Device_Library/Core/Inc/usbd_def.h **** {
 195:Middlewares/ST/STM32_USB_Device_Library/Core/Inc/usbd_def.h ****   uint8_t   bLength;
 196:Middlewares/ST/STM32_USB_Device_Library/Core/Inc/usbd_def.h ****   uint8_t   bDescriptorType;
 197:Middlewares/ST/STM32_USB_Device_Library/Core/Inc/usbd_def.h ****   uint16_t  wTotalLength;
 198:Middlewares/ST/STM32_USB_Device_Library/Core/Inc/usbd_def.h ****   uint8_t   bNumDeviceCaps;
 199:Middlewares/ST/STM32_USB_Device_Library/Core/Inc/usbd_def.h **** } USBD_BosDescTypedef;
 200:Middlewares/ST/STM32_USB_Device_Library/Core/Inc/usbd_def.h **** 
 201:Middlewares/ST/STM32_USB_Device_Library/Core/Inc/usbd_def.h **** typedef struct
 202:Middlewares/ST/STM32_USB_Device_Library/Core/Inc/usbd_def.h **** {
 203:Middlewares/ST/STM32_USB_Device_Library/Core/Inc/usbd_def.h ****   uint8_t   bLength;
ARM GAS  /var/folders/vq/qt4vp3kd5rxf7v2b6_fdtdt80000gn/T//ccb7F33r.s 			page 5


 204:Middlewares/ST/STM32_USB_Device_Library/Core/Inc/usbd_def.h ****   uint8_t   bDescriptorType;
 205:Middlewares/ST/STM32_USB_Device_Library/Core/Inc/usbd_def.h ****   uint8_t   bEndpointAddress;
 206:Middlewares/ST/STM32_USB_Device_Library/Core/Inc/usbd_def.h ****   uint8_t   bmAttributes;
 207:Middlewares/ST/STM32_USB_Device_Library/Core/Inc/usbd_def.h ****   uint16_t  wMaxPacketSize;
 208:Middlewares/ST/STM32_USB_Device_Library/Core/Inc/usbd_def.h ****   uint8_t   bInterval;
 209:Middlewares/ST/STM32_USB_Device_Library/Core/Inc/usbd_def.h **** } USBD_EpDescTypedef;
 210:Middlewares/ST/STM32_USB_Device_Library/Core/Inc/usbd_def.h **** 
 211:Middlewares/ST/STM32_USB_Device_Library/Core/Inc/usbd_def.h **** struct _USBD_HandleTypeDef;
 212:Middlewares/ST/STM32_USB_Device_Library/Core/Inc/usbd_def.h **** 
 213:Middlewares/ST/STM32_USB_Device_Library/Core/Inc/usbd_def.h **** typedef struct _Device_cb
 214:Middlewares/ST/STM32_USB_Device_Library/Core/Inc/usbd_def.h **** {
 215:Middlewares/ST/STM32_USB_Device_Library/Core/Inc/usbd_def.h ****   uint8_t (*Init)(struct _USBD_HandleTypeDef *pdev, uint8_t cfgidx);
 216:Middlewares/ST/STM32_USB_Device_Library/Core/Inc/usbd_def.h ****   uint8_t (*DeInit)(struct _USBD_HandleTypeDef *pdev, uint8_t cfgidx);
 217:Middlewares/ST/STM32_USB_Device_Library/Core/Inc/usbd_def.h ****   /* Control Endpoints*/
 218:Middlewares/ST/STM32_USB_Device_Library/Core/Inc/usbd_def.h ****   uint8_t (*Setup)(struct _USBD_HandleTypeDef *pdev, USBD_SetupReqTypedef  *req);
 219:Middlewares/ST/STM32_USB_Device_Library/Core/Inc/usbd_def.h ****   uint8_t (*EP0_TxSent)(struct _USBD_HandleTypeDef *pdev);
 220:Middlewares/ST/STM32_USB_Device_Library/Core/Inc/usbd_def.h ****   uint8_t (*EP0_RxReady)(struct _USBD_HandleTypeDef *pdev);
 221:Middlewares/ST/STM32_USB_Device_Library/Core/Inc/usbd_def.h ****   /* Class Specific Endpoints*/
 222:Middlewares/ST/STM32_USB_Device_Library/Core/Inc/usbd_def.h ****   uint8_t (*DataIn)(struct _USBD_HandleTypeDef *pdev, uint8_t epnum);
 223:Middlewares/ST/STM32_USB_Device_Library/Core/Inc/usbd_def.h ****   uint8_t (*DataOut)(struct _USBD_HandleTypeDef *pdev, uint8_t epnum);
 224:Middlewares/ST/STM32_USB_Device_Library/Core/Inc/usbd_def.h ****   uint8_t (*SOF)(struct _USBD_HandleTypeDef *pdev);
 225:Middlewares/ST/STM32_USB_Device_Library/Core/Inc/usbd_def.h ****   uint8_t (*IsoINIncomplete)(struct _USBD_HandleTypeDef *pdev, uint8_t epnum);
 226:Middlewares/ST/STM32_USB_Device_Library/Core/Inc/usbd_def.h ****   uint8_t (*IsoOUTIncomplete)(struct _USBD_HandleTypeDef *pdev, uint8_t epnum);
 227:Middlewares/ST/STM32_USB_Device_Library/Core/Inc/usbd_def.h **** 
 228:Middlewares/ST/STM32_USB_Device_Library/Core/Inc/usbd_def.h ****   uint8_t  *(*GetHSConfigDescriptor)(uint16_t *length);
 229:Middlewares/ST/STM32_USB_Device_Library/Core/Inc/usbd_def.h ****   uint8_t  *(*GetFSConfigDescriptor)(uint16_t *length);
 230:Middlewares/ST/STM32_USB_Device_Library/Core/Inc/usbd_def.h ****   uint8_t  *(*GetOtherSpeedConfigDescriptor)(uint16_t *length);
 231:Middlewares/ST/STM32_USB_Device_Library/Core/Inc/usbd_def.h ****   uint8_t  *(*GetDeviceQualifierDescriptor)(uint16_t *length);
 232:Middlewares/ST/STM32_USB_Device_Library/Core/Inc/usbd_def.h **** #if (USBD_SUPPORT_USER_STRING_DESC == 1U)
 233:Middlewares/ST/STM32_USB_Device_Library/Core/Inc/usbd_def.h ****   uint8_t  *(*GetUsrStrDescriptor)(struct _USBD_HandleTypeDef *pdev, uint8_t index,  uint16_t *leng
 234:Middlewares/ST/STM32_USB_Device_Library/Core/Inc/usbd_def.h **** #endif
 235:Middlewares/ST/STM32_USB_Device_Library/Core/Inc/usbd_def.h **** 
 236:Middlewares/ST/STM32_USB_Device_Library/Core/Inc/usbd_def.h **** } USBD_ClassTypeDef;
 237:Middlewares/ST/STM32_USB_Device_Library/Core/Inc/usbd_def.h **** 
 238:Middlewares/ST/STM32_USB_Device_Library/Core/Inc/usbd_def.h **** /* Following USB Device Speed */
 239:Middlewares/ST/STM32_USB_Device_Library/Core/Inc/usbd_def.h **** typedef enum
 240:Middlewares/ST/STM32_USB_Device_Library/Core/Inc/usbd_def.h **** {
 241:Middlewares/ST/STM32_USB_Device_Library/Core/Inc/usbd_def.h ****   USBD_SPEED_HIGH  = 0U,
 242:Middlewares/ST/STM32_USB_Device_Library/Core/Inc/usbd_def.h ****   USBD_SPEED_FULL  = 1U,
 243:Middlewares/ST/STM32_USB_Device_Library/Core/Inc/usbd_def.h ****   USBD_SPEED_LOW   = 2U,
 244:Middlewares/ST/STM32_USB_Device_Library/Core/Inc/usbd_def.h **** } USBD_SpeedTypeDef;
 245:Middlewares/ST/STM32_USB_Device_Library/Core/Inc/usbd_def.h **** 
 246:Middlewares/ST/STM32_USB_Device_Library/Core/Inc/usbd_def.h **** /* Following USB Device status */
 247:Middlewares/ST/STM32_USB_Device_Library/Core/Inc/usbd_def.h **** typedef enum
 248:Middlewares/ST/STM32_USB_Device_Library/Core/Inc/usbd_def.h **** {
 249:Middlewares/ST/STM32_USB_Device_Library/Core/Inc/usbd_def.h ****   USBD_OK = 0U,
 250:Middlewares/ST/STM32_USB_Device_Library/Core/Inc/usbd_def.h ****   USBD_BUSY,
 251:Middlewares/ST/STM32_USB_Device_Library/Core/Inc/usbd_def.h ****   USBD_EMEM,
 252:Middlewares/ST/STM32_USB_Device_Library/Core/Inc/usbd_def.h ****   USBD_FAIL,
 253:Middlewares/ST/STM32_USB_Device_Library/Core/Inc/usbd_def.h **** } USBD_StatusTypeDef;
 254:Middlewares/ST/STM32_USB_Device_Library/Core/Inc/usbd_def.h **** 
 255:Middlewares/ST/STM32_USB_Device_Library/Core/Inc/usbd_def.h **** /* USB Device descriptors structure */
 256:Middlewares/ST/STM32_USB_Device_Library/Core/Inc/usbd_def.h **** typedef struct
 257:Middlewares/ST/STM32_USB_Device_Library/Core/Inc/usbd_def.h **** {
 258:Middlewares/ST/STM32_USB_Device_Library/Core/Inc/usbd_def.h ****   uint8_t *(*GetDeviceDescriptor)(USBD_SpeedTypeDef speed, uint16_t *length);
 259:Middlewares/ST/STM32_USB_Device_Library/Core/Inc/usbd_def.h ****   uint8_t *(*GetLangIDStrDescriptor)(USBD_SpeedTypeDef speed, uint16_t *length);
 260:Middlewares/ST/STM32_USB_Device_Library/Core/Inc/usbd_def.h ****   uint8_t *(*GetManufacturerStrDescriptor)(USBD_SpeedTypeDef speed, uint16_t *length);
ARM GAS  /var/folders/vq/qt4vp3kd5rxf7v2b6_fdtdt80000gn/T//ccb7F33r.s 			page 6


 261:Middlewares/ST/STM32_USB_Device_Library/Core/Inc/usbd_def.h ****   uint8_t *(*GetProductStrDescriptor)(USBD_SpeedTypeDef speed, uint16_t *length);
 262:Middlewares/ST/STM32_USB_Device_Library/Core/Inc/usbd_def.h ****   uint8_t *(*GetSerialStrDescriptor)(USBD_SpeedTypeDef speed, uint16_t *length);
 263:Middlewares/ST/STM32_USB_Device_Library/Core/Inc/usbd_def.h ****   uint8_t *(*GetConfigurationStrDescriptor)(USBD_SpeedTypeDef speed, uint16_t *length);
 264:Middlewares/ST/STM32_USB_Device_Library/Core/Inc/usbd_def.h ****   uint8_t *(*GetInterfaceStrDescriptor)(USBD_SpeedTypeDef speed, uint16_t *length);
 265:Middlewares/ST/STM32_USB_Device_Library/Core/Inc/usbd_def.h **** #if (USBD_CLASS_USER_STRING_DESC == 1)
 266:Middlewares/ST/STM32_USB_Device_Library/Core/Inc/usbd_def.h ****   uint8_t *(*GetUserStrDescriptor)(USBD_SpeedTypeDef speed, uint8_t idx, uint16_t *length);
 267:Middlewares/ST/STM32_USB_Device_Library/Core/Inc/usbd_def.h **** #endif
 268:Middlewares/ST/STM32_USB_Device_Library/Core/Inc/usbd_def.h **** #if ((USBD_LPM_ENABLED == 1U) || (USBD_CLASS_BOS_ENABLED == 1))
 269:Middlewares/ST/STM32_USB_Device_Library/Core/Inc/usbd_def.h ****   uint8_t *(*GetBOSDescriptor)(USBD_SpeedTypeDef speed, uint16_t *length);
 270:Middlewares/ST/STM32_USB_Device_Library/Core/Inc/usbd_def.h **** #endif
 271:Middlewares/ST/STM32_USB_Device_Library/Core/Inc/usbd_def.h **** } USBD_DescriptorsTypeDef;
 272:Middlewares/ST/STM32_USB_Device_Library/Core/Inc/usbd_def.h **** 
 273:Middlewares/ST/STM32_USB_Device_Library/Core/Inc/usbd_def.h **** /* USB Device handle structure */
 274:Middlewares/ST/STM32_USB_Device_Library/Core/Inc/usbd_def.h **** typedef struct
 275:Middlewares/ST/STM32_USB_Device_Library/Core/Inc/usbd_def.h **** {
 276:Middlewares/ST/STM32_USB_Device_Library/Core/Inc/usbd_def.h ****   uint32_t status;
 277:Middlewares/ST/STM32_USB_Device_Library/Core/Inc/usbd_def.h ****   uint32_t total_length;
 278:Middlewares/ST/STM32_USB_Device_Library/Core/Inc/usbd_def.h ****   uint32_t rem_length;
 279:Middlewares/ST/STM32_USB_Device_Library/Core/Inc/usbd_def.h ****   uint32_t maxpacket;
 280:Middlewares/ST/STM32_USB_Device_Library/Core/Inc/usbd_def.h ****   uint16_t is_used;
 281:Middlewares/ST/STM32_USB_Device_Library/Core/Inc/usbd_def.h ****   uint16_t bInterval;
 282:Middlewares/ST/STM32_USB_Device_Library/Core/Inc/usbd_def.h **** } USBD_EndpointTypeDef;
 283:Middlewares/ST/STM32_USB_Device_Library/Core/Inc/usbd_def.h **** 
 284:Middlewares/ST/STM32_USB_Device_Library/Core/Inc/usbd_def.h **** /* USB Device handle structure */
 285:Middlewares/ST/STM32_USB_Device_Library/Core/Inc/usbd_def.h **** typedef struct _USBD_HandleTypeDef
 286:Middlewares/ST/STM32_USB_Device_Library/Core/Inc/usbd_def.h **** {
 287:Middlewares/ST/STM32_USB_Device_Library/Core/Inc/usbd_def.h ****   uint8_t                 id;
 288:Middlewares/ST/STM32_USB_Device_Library/Core/Inc/usbd_def.h ****   uint32_t                dev_config;
 289:Middlewares/ST/STM32_USB_Device_Library/Core/Inc/usbd_def.h ****   uint32_t                dev_default_config;
 290:Middlewares/ST/STM32_USB_Device_Library/Core/Inc/usbd_def.h ****   uint32_t                dev_config_status;
 291:Middlewares/ST/STM32_USB_Device_Library/Core/Inc/usbd_def.h ****   USBD_SpeedTypeDef       dev_speed;
 292:Middlewares/ST/STM32_USB_Device_Library/Core/Inc/usbd_def.h ****   USBD_EndpointTypeDef    ep_in[16];
 293:Middlewares/ST/STM32_USB_Device_Library/Core/Inc/usbd_def.h ****   USBD_EndpointTypeDef    ep_out[16];
 294:Middlewares/ST/STM32_USB_Device_Library/Core/Inc/usbd_def.h ****   __IO uint32_t           ep0_state;
 295:Middlewares/ST/STM32_USB_Device_Library/Core/Inc/usbd_def.h ****   uint32_t                ep0_data_len;
 296:Middlewares/ST/STM32_USB_Device_Library/Core/Inc/usbd_def.h ****   __IO uint8_t            dev_state;
 297:Middlewares/ST/STM32_USB_Device_Library/Core/Inc/usbd_def.h ****   __IO uint8_t            dev_old_state;
 298:Middlewares/ST/STM32_USB_Device_Library/Core/Inc/usbd_def.h ****   uint8_t                 dev_address;
 299:Middlewares/ST/STM32_USB_Device_Library/Core/Inc/usbd_def.h ****   uint8_t                 dev_connection_status;
 300:Middlewares/ST/STM32_USB_Device_Library/Core/Inc/usbd_def.h ****   uint8_t                 dev_test_mode;
 301:Middlewares/ST/STM32_USB_Device_Library/Core/Inc/usbd_def.h ****   uint32_t                dev_remote_wakeup;
 302:Middlewares/ST/STM32_USB_Device_Library/Core/Inc/usbd_def.h ****   uint8_t                 ConfIdx;
 303:Middlewares/ST/STM32_USB_Device_Library/Core/Inc/usbd_def.h **** 
 304:Middlewares/ST/STM32_USB_Device_Library/Core/Inc/usbd_def.h ****   USBD_SetupReqTypedef    request;
 305:Middlewares/ST/STM32_USB_Device_Library/Core/Inc/usbd_def.h ****   USBD_DescriptorsTypeDef *pDesc;
 306:Middlewares/ST/STM32_USB_Device_Library/Core/Inc/usbd_def.h ****   USBD_ClassTypeDef       *pClass;
 307:Middlewares/ST/STM32_USB_Device_Library/Core/Inc/usbd_def.h ****   void                    *pClassData;
 308:Middlewares/ST/STM32_USB_Device_Library/Core/Inc/usbd_def.h ****   void                    *pUserData;
 309:Middlewares/ST/STM32_USB_Device_Library/Core/Inc/usbd_def.h ****   void                    *pData;
 310:Middlewares/ST/STM32_USB_Device_Library/Core/Inc/usbd_def.h ****   void                    *pBosDesc;
 311:Middlewares/ST/STM32_USB_Device_Library/Core/Inc/usbd_def.h ****   void                    *pConfDesc;
 312:Middlewares/ST/STM32_USB_Device_Library/Core/Inc/usbd_def.h **** } USBD_HandleTypeDef;
 313:Middlewares/ST/STM32_USB_Device_Library/Core/Inc/usbd_def.h **** 
 314:Middlewares/ST/STM32_USB_Device_Library/Core/Inc/usbd_def.h **** /**
 315:Middlewares/ST/STM32_USB_Device_Library/Core/Inc/usbd_def.h ****   * @}
 316:Middlewares/ST/STM32_USB_Device_Library/Core/Inc/usbd_def.h ****   */
 317:Middlewares/ST/STM32_USB_Device_Library/Core/Inc/usbd_def.h **** 
ARM GAS  /var/folders/vq/qt4vp3kd5rxf7v2b6_fdtdt80000gn/T//ccb7F33r.s 			page 7


 318:Middlewares/ST/STM32_USB_Device_Library/Core/Inc/usbd_def.h **** 
 319:Middlewares/ST/STM32_USB_Device_Library/Core/Inc/usbd_def.h **** 
 320:Middlewares/ST/STM32_USB_Device_Library/Core/Inc/usbd_def.h **** /** @defgroup USBD_DEF_Exported_Macros
 321:Middlewares/ST/STM32_USB_Device_Library/Core/Inc/usbd_def.h ****   * @{
 322:Middlewares/ST/STM32_USB_Device_Library/Core/Inc/usbd_def.h ****   */
 323:Middlewares/ST/STM32_USB_Device_Library/Core/Inc/usbd_def.h **** __STATIC_INLINE uint16_t SWAPBYTE(uint8_t *addr)
 324:Middlewares/ST/STM32_USB_Device_Library/Core/Inc/usbd_def.h **** {
  27              		.loc 1 324 1
  28              		.cfi_startproc
  29              		@ args = 0, pretend = 0, frame = 24
  30              		@ frame_needed = 1, uses_anonymous_args = 0
  31              		@ link register save eliminated.
  32 0000 80B4     		push	{r7}
  33              	.LCFI0:
  34              		.cfi_def_cfa_offset 4
  35              		.cfi_offset 7, -4
  36 0002 87B0     		sub	sp, sp, #28
  37              	.LCFI1:
  38              		.cfi_def_cfa_offset 32
  39 0004 00AF     		add	r7, sp, #0
  40              	.LCFI2:
  41              		.cfi_def_cfa_register 7
  42 0006 7860     		str	r0, [r7, #4]
 325:Middlewares/ST/STM32_USB_Device_Library/Core/Inc/usbd_def.h ****   uint16_t _SwapVal, _Byte1, _Byte2;
 326:Middlewares/ST/STM32_USB_Device_Library/Core/Inc/usbd_def.h ****   uint8_t *_pbuff = addr;
  43              		.loc 1 326 12
  44 0008 7B68     		ldr	r3, [r7, #4]
  45 000a 7B61     		str	r3, [r7, #20]
 327:Middlewares/ST/STM32_USB_Device_Library/Core/Inc/usbd_def.h **** 
 328:Middlewares/ST/STM32_USB_Device_Library/Core/Inc/usbd_def.h ****   _Byte1 = *(uint8_t *)_pbuff;
  46              		.loc 1 328 12
  47 000c 7B69     		ldr	r3, [r7, #20]
  48 000e 1B78     		ldrb	r3, [r3]	@ zero_extendqisi2
  49              		.loc 1 328 10
  50 0010 7B82     		strh	r3, [r7, #18]	@ movhi
 329:Middlewares/ST/STM32_USB_Device_Library/Core/Inc/usbd_def.h ****   _pbuff++;
  51              		.loc 1 329 9
  52 0012 7B69     		ldr	r3, [r7, #20]
  53 0014 0133     		adds	r3, r3, #1
  54 0016 7B61     		str	r3, [r7, #20]
 330:Middlewares/ST/STM32_USB_Device_Library/Core/Inc/usbd_def.h ****   _Byte2 = *(uint8_t *)_pbuff;
  55              		.loc 1 330 12
  56 0018 7B69     		ldr	r3, [r7, #20]
  57 001a 1B78     		ldrb	r3, [r3]	@ zero_extendqisi2
  58              		.loc 1 330 10
  59 001c 3B82     		strh	r3, [r7, #16]	@ movhi
 331:Middlewares/ST/STM32_USB_Device_Library/Core/Inc/usbd_def.h **** 
 332:Middlewares/ST/STM32_USB_Device_Library/Core/Inc/usbd_def.h ****   _SwapVal = (_Byte2 << 8) | _Byte1;
  60              		.loc 1 332 22
  61 001e 3B8A     		ldrh	r3, [r7, #16]
  62 0020 1B02     		lsls	r3, r3, #8
  63              		.loc 1 332 28
  64 0022 1AB2     		sxth	r2, r3
  65 0024 B7F91230 		ldrsh	r3, [r7, #18]
  66 0028 1343     		orrs	r3, r3, r2
  67 002a 1BB2     		sxth	r3, r3
  68              		.loc 1 332 12
ARM GAS  /var/folders/vq/qt4vp3kd5rxf7v2b6_fdtdt80000gn/T//ccb7F33r.s 			page 8


  69 002c FB81     		strh	r3, [r7, #14]	@ movhi
 333:Middlewares/ST/STM32_USB_Device_Library/Core/Inc/usbd_def.h **** 
 334:Middlewares/ST/STM32_USB_Device_Library/Core/Inc/usbd_def.h ****   return _SwapVal;
  70              		.loc 1 334 10
  71 002e FB89     		ldrh	r3, [r7, #14]
 335:Middlewares/ST/STM32_USB_Device_Library/Core/Inc/usbd_def.h **** }
  72              		.loc 1 335 1
  73 0030 1846     		mov	r0, r3
  74 0032 1C37     		adds	r7, r7, #28
  75              	.LCFI3:
  76              		.cfi_def_cfa_offset 4
  77 0034 BD46     		mov	sp, r7
  78              	.LCFI4:
  79              		.cfi_def_cfa_register 13
  80              		@ sp needed
  81 0036 5DF8047B 		ldr	r7, [sp], #4
  82              	.LCFI5:
  83              		.cfi_restore 7
  84              		.cfi_def_cfa_offset 0
  85 003a 7047     		bx	lr
  86              		.cfi_endproc
  87              	.LFE133:
  89              		.section	.text.USBD_StdDevReq,"ax",%progbits
  90              		.align	1
  91              		.global	USBD_StdDevReq
  92              		.syntax unified
  93              		.thumb
  94              		.thumb_func
  95              		.fpu fpv4-sp-d16
  97              	USBD_StdDevReq:
  98              	.LFB134:
  99              		.file 2 "Middlewares/ST/STM32_USB_Device_Library/Core/Src/usbd_ctlreq.c"
   1:Middlewares/ST/STM32_USB_Device_Library/Core/Src/usbd_ctlreq.c **** /**
   2:Middlewares/ST/STM32_USB_Device_Library/Core/Src/usbd_ctlreq.c ****   ******************************************************************************
   3:Middlewares/ST/STM32_USB_Device_Library/Core/Src/usbd_ctlreq.c ****   * @file    usbd_req.c
   4:Middlewares/ST/STM32_USB_Device_Library/Core/Src/usbd_ctlreq.c ****   * @author  MCD Application Team
   5:Middlewares/ST/STM32_USB_Device_Library/Core/Src/usbd_ctlreq.c ****   * @brief   This file provides the standard USB requests following chapter 9.
   6:Middlewares/ST/STM32_USB_Device_Library/Core/Src/usbd_ctlreq.c ****   ******************************************************************************
   7:Middlewares/ST/STM32_USB_Device_Library/Core/Src/usbd_ctlreq.c ****   * @attention
   8:Middlewares/ST/STM32_USB_Device_Library/Core/Src/usbd_ctlreq.c ****   *
   9:Middlewares/ST/STM32_USB_Device_Library/Core/Src/usbd_ctlreq.c ****   * <h2><center>&copy; Copyright (c) 2015 STMicroelectronics.
  10:Middlewares/ST/STM32_USB_Device_Library/Core/Src/usbd_ctlreq.c ****   * All rights reserved.</center></h2>
  11:Middlewares/ST/STM32_USB_Device_Library/Core/Src/usbd_ctlreq.c ****   *
  12:Middlewares/ST/STM32_USB_Device_Library/Core/Src/usbd_ctlreq.c ****   * This software component is licensed by ST under Ultimate Liberty license
  13:Middlewares/ST/STM32_USB_Device_Library/Core/Src/usbd_ctlreq.c ****   * SLA0044, the "License"; You may not use this file except in compliance with
  14:Middlewares/ST/STM32_USB_Device_Library/Core/Src/usbd_ctlreq.c ****   * the License. You may obtain a copy of the License at:
  15:Middlewares/ST/STM32_USB_Device_Library/Core/Src/usbd_ctlreq.c ****   *                      www.st.com/SLA0044
  16:Middlewares/ST/STM32_USB_Device_Library/Core/Src/usbd_ctlreq.c ****   *
  17:Middlewares/ST/STM32_USB_Device_Library/Core/Src/usbd_ctlreq.c ****   ******************************************************************************
  18:Middlewares/ST/STM32_USB_Device_Library/Core/Src/usbd_ctlreq.c ****   */
  19:Middlewares/ST/STM32_USB_Device_Library/Core/Src/usbd_ctlreq.c **** 
  20:Middlewares/ST/STM32_USB_Device_Library/Core/Src/usbd_ctlreq.c **** /* Includes ------------------------------------------------------------------*/
  21:Middlewares/ST/STM32_USB_Device_Library/Core/Src/usbd_ctlreq.c **** #include "usbd_ctlreq.h"
  22:Middlewares/ST/STM32_USB_Device_Library/Core/Src/usbd_ctlreq.c **** #include "usbd_ioreq.h"
  23:Middlewares/ST/STM32_USB_Device_Library/Core/Src/usbd_ctlreq.c **** 
  24:Middlewares/ST/STM32_USB_Device_Library/Core/Src/usbd_ctlreq.c **** 
  25:Middlewares/ST/STM32_USB_Device_Library/Core/Src/usbd_ctlreq.c **** /** @addtogroup STM32_USBD_STATE_DEVICE_LIBRARY
ARM GAS  /var/folders/vq/qt4vp3kd5rxf7v2b6_fdtdt80000gn/T//ccb7F33r.s 			page 9


  26:Middlewares/ST/STM32_USB_Device_Library/Core/Src/usbd_ctlreq.c ****   * @{
  27:Middlewares/ST/STM32_USB_Device_Library/Core/Src/usbd_ctlreq.c ****   */
  28:Middlewares/ST/STM32_USB_Device_Library/Core/Src/usbd_ctlreq.c **** 
  29:Middlewares/ST/STM32_USB_Device_Library/Core/Src/usbd_ctlreq.c **** 
  30:Middlewares/ST/STM32_USB_Device_Library/Core/Src/usbd_ctlreq.c **** /** @defgroup USBD_REQ
  31:Middlewares/ST/STM32_USB_Device_Library/Core/Src/usbd_ctlreq.c ****   * @brief USB standard requests module
  32:Middlewares/ST/STM32_USB_Device_Library/Core/Src/usbd_ctlreq.c ****   * @{
  33:Middlewares/ST/STM32_USB_Device_Library/Core/Src/usbd_ctlreq.c ****   */
  34:Middlewares/ST/STM32_USB_Device_Library/Core/Src/usbd_ctlreq.c **** 
  35:Middlewares/ST/STM32_USB_Device_Library/Core/Src/usbd_ctlreq.c **** /** @defgroup USBD_REQ_Private_TypesDefinitions
  36:Middlewares/ST/STM32_USB_Device_Library/Core/Src/usbd_ctlreq.c ****   * @{
  37:Middlewares/ST/STM32_USB_Device_Library/Core/Src/usbd_ctlreq.c ****   */
  38:Middlewares/ST/STM32_USB_Device_Library/Core/Src/usbd_ctlreq.c **** 
  39:Middlewares/ST/STM32_USB_Device_Library/Core/Src/usbd_ctlreq.c **** /**
  40:Middlewares/ST/STM32_USB_Device_Library/Core/Src/usbd_ctlreq.c ****   * @}
  41:Middlewares/ST/STM32_USB_Device_Library/Core/Src/usbd_ctlreq.c ****   */
  42:Middlewares/ST/STM32_USB_Device_Library/Core/Src/usbd_ctlreq.c **** 
  43:Middlewares/ST/STM32_USB_Device_Library/Core/Src/usbd_ctlreq.c **** 
  44:Middlewares/ST/STM32_USB_Device_Library/Core/Src/usbd_ctlreq.c **** /** @defgroup USBD_REQ_Private_Defines
  45:Middlewares/ST/STM32_USB_Device_Library/Core/Src/usbd_ctlreq.c ****   * @{
  46:Middlewares/ST/STM32_USB_Device_Library/Core/Src/usbd_ctlreq.c ****   */
  47:Middlewares/ST/STM32_USB_Device_Library/Core/Src/usbd_ctlreq.c **** 
  48:Middlewares/ST/STM32_USB_Device_Library/Core/Src/usbd_ctlreq.c **** /**
  49:Middlewares/ST/STM32_USB_Device_Library/Core/Src/usbd_ctlreq.c ****   * @}
  50:Middlewares/ST/STM32_USB_Device_Library/Core/Src/usbd_ctlreq.c ****   */
  51:Middlewares/ST/STM32_USB_Device_Library/Core/Src/usbd_ctlreq.c **** 
  52:Middlewares/ST/STM32_USB_Device_Library/Core/Src/usbd_ctlreq.c **** 
  53:Middlewares/ST/STM32_USB_Device_Library/Core/Src/usbd_ctlreq.c **** /** @defgroup USBD_REQ_Private_Macros
  54:Middlewares/ST/STM32_USB_Device_Library/Core/Src/usbd_ctlreq.c ****   * @{
  55:Middlewares/ST/STM32_USB_Device_Library/Core/Src/usbd_ctlreq.c ****   */
  56:Middlewares/ST/STM32_USB_Device_Library/Core/Src/usbd_ctlreq.c **** 
  57:Middlewares/ST/STM32_USB_Device_Library/Core/Src/usbd_ctlreq.c **** /**
  58:Middlewares/ST/STM32_USB_Device_Library/Core/Src/usbd_ctlreq.c ****   * @}
  59:Middlewares/ST/STM32_USB_Device_Library/Core/Src/usbd_ctlreq.c ****   */
  60:Middlewares/ST/STM32_USB_Device_Library/Core/Src/usbd_ctlreq.c **** 
  61:Middlewares/ST/STM32_USB_Device_Library/Core/Src/usbd_ctlreq.c **** 
  62:Middlewares/ST/STM32_USB_Device_Library/Core/Src/usbd_ctlreq.c **** /** @defgroup USBD_REQ_Private_Variables
  63:Middlewares/ST/STM32_USB_Device_Library/Core/Src/usbd_ctlreq.c ****   * @{
  64:Middlewares/ST/STM32_USB_Device_Library/Core/Src/usbd_ctlreq.c ****   */
  65:Middlewares/ST/STM32_USB_Device_Library/Core/Src/usbd_ctlreq.c **** 
  66:Middlewares/ST/STM32_USB_Device_Library/Core/Src/usbd_ctlreq.c **** /**
  67:Middlewares/ST/STM32_USB_Device_Library/Core/Src/usbd_ctlreq.c ****   * @}
  68:Middlewares/ST/STM32_USB_Device_Library/Core/Src/usbd_ctlreq.c ****   */
  69:Middlewares/ST/STM32_USB_Device_Library/Core/Src/usbd_ctlreq.c **** 
  70:Middlewares/ST/STM32_USB_Device_Library/Core/Src/usbd_ctlreq.c **** 
  71:Middlewares/ST/STM32_USB_Device_Library/Core/Src/usbd_ctlreq.c **** /** @defgroup USBD_REQ_Private_FunctionPrototypes
  72:Middlewares/ST/STM32_USB_Device_Library/Core/Src/usbd_ctlreq.c ****   * @{
  73:Middlewares/ST/STM32_USB_Device_Library/Core/Src/usbd_ctlreq.c ****   */
  74:Middlewares/ST/STM32_USB_Device_Library/Core/Src/usbd_ctlreq.c **** static void USBD_GetDescriptor(USBD_HandleTypeDef *pdev, USBD_SetupReqTypedef *req);
  75:Middlewares/ST/STM32_USB_Device_Library/Core/Src/usbd_ctlreq.c **** static void USBD_SetAddress(USBD_HandleTypeDef *pdev, USBD_SetupReqTypedef *req);
  76:Middlewares/ST/STM32_USB_Device_Library/Core/Src/usbd_ctlreq.c **** static USBD_StatusTypeDef USBD_SetConfig(USBD_HandleTypeDef *pdev, USBD_SetupReqTypedef *req);
  77:Middlewares/ST/STM32_USB_Device_Library/Core/Src/usbd_ctlreq.c **** static void USBD_GetConfig(USBD_HandleTypeDef *pdev, USBD_SetupReqTypedef *req);
  78:Middlewares/ST/STM32_USB_Device_Library/Core/Src/usbd_ctlreq.c **** static void USBD_GetStatus(USBD_HandleTypeDef *pdev, USBD_SetupReqTypedef *req);
  79:Middlewares/ST/STM32_USB_Device_Library/Core/Src/usbd_ctlreq.c **** static void USBD_SetFeature(USBD_HandleTypeDef *pdev, USBD_SetupReqTypedef *req);
  80:Middlewares/ST/STM32_USB_Device_Library/Core/Src/usbd_ctlreq.c **** static void USBD_ClrFeature(USBD_HandleTypeDef *pdev, USBD_SetupReqTypedef *req);
  81:Middlewares/ST/STM32_USB_Device_Library/Core/Src/usbd_ctlreq.c **** static uint8_t USBD_GetLen(uint8_t *buf);
  82:Middlewares/ST/STM32_USB_Device_Library/Core/Src/usbd_ctlreq.c **** 
ARM GAS  /var/folders/vq/qt4vp3kd5rxf7v2b6_fdtdt80000gn/T//ccb7F33r.s 			page 10


  83:Middlewares/ST/STM32_USB_Device_Library/Core/Src/usbd_ctlreq.c **** /**
  84:Middlewares/ST/STM32_USB_Device_Library/Core/Src/usbd_ctlreq.c ****   * @}
  85:Middlewares/ST/STM32_USB_Device_Library/Core/Src/usbd_ctlreq.c ****   */
  86:Middlewares/ST/STM32_USB_Device_Library/Core/Src/usbd_ctlreq.c **** 
  87:Middlewares/ST/STM32_USB_Device_Library/Core/Src/usbd_ctlreq.c **** 
  88:Middlewares/ST/STM32_USB_Device_Library/Core/Src/usbd_ctlreq.c **** /** @defgroup USBD_REQ_Private_Functions
  89:Middlewares/ST/STM32_USB_Device_Library/Core/Src/usbd_ctlreq.c ****   * @{
  90:Middlewares/ST/STM32_USB_Device_Library/Core/Src/usbd_ctlreq.c ****   */
  91:Middlewares/ST/STM32_USB_Device_Library/Core/Src/usbd_ctlreq.c **** 
  92:Middlewares/ST/STM32_USB_Device_Library/Core/Src/usbd_ctlreq.c **** 
  93:Middlewares/ST/STM32_USB_Device_Library/Core/Src/usbd_ctlreq.c **** /**
  94:Middlewares/ST/STM32_USB_Device_Library/Core/Src/usbd_ctlreq.c ****   * @brief  USBD_StdDevReq
  95:Middlewares/ST/STM32_USB_Device_Library/Core/Src/usbd_ctlreq.c ****   *         Handle standard usb device requests
  96:Middlewares/ST/STM32_USB_Device_Library/Core/Src/usbd_ctlreq.c ****   * @param  pdev: device instance
  97:Middlewares/ST/STM32_USB_Device_Library/Core/Src/usbd_ctlreq.c ****   * @param  req: usb request
  98:Middlewares/ST/STM32_USB_Device_Library/Core/Src/usbd_ctlreq.c ****   * @retval status
  99:Middlewares/ST/STM32_USB_Device_Library/Core/Src/usbd_ctlreq.c ****   */
 100:Middlewares/ST/STM32_USB_Device_Library/Core/Src/usbd_ctlreq.c **** USBD_StatusTypeDef USBD_StdDevReq(USBD_HandleTypeDef *pdev, USBD_SetupReqTypedef *req)
 101:Middlewares/ST/STM32_USB_Device_Library/Core/Src/usbd_ctlreq.c **** {
 100              		.loc 2 101 1
 101              		.cfi_startproc
 102              		@ args = 0, pretend = 0, frame = 16
 103              		@ frame_needed = 1, uses_anonymous_args = 0
 104 0000 80B5     		push	{r7, lr}
 105              	.LCFI6:
 106              		.cfi_def_cfa_offset 8
 107              		.cfi_offset 7, -8
 108              		.cfi_offset 14, -4
 109 0002 84B0     		sub	sp, sp, #16
 110              	.LCFI7:
 111              		.cfi_def_cfa_offset 24
 112 0004 00AF     		add	r7, sp, #0
 113              	.LCFI8:
 114              		.cfi_def_cfa_register 7
 115 0006 7860     		str	r0, [r7, #4]
 116 0008 3960     		str	r1, [r7]
 102:Middlewares/ST/STM32_USB_Device_Library/Core/Src/usbd_ctlreq.c ****   USBD_StatusTypeDef ret = USBD_OK;
 117              		.loc 2 102 22
 118 000a 0023     		movs	r3, #0
 119 000c FB73     		strb	r3, [r7, #15]
 103:Middlewares/ST/STM32_USB_Device_Library/Core/Src/usbd_ctlreq.c **** 
 104:Middlewares/ST/STM32_USB_Device_Library/Core/Src/usbd_ctlreq.c ****   switch (req->bmRequest & USB_REQ_TYPE_MASK)
 120              		.loc 2 104 14
 121 000e 3B68     		ldr	r3, [r7]
 122 0010 1B78     		ldrb	r3, [r3]	@ zero_extendqisi2
 123              		.loc 2 104 26
 124 0012 03F06003 		and	r3, r3, #96
 125              		.loc 2 104 3
 126 0016 402B     		cmp	r3, #64
 127 0018 05D0     		beq	.L4
 128 001a 402B     		cmp	r3, #64
 129 001c 53D8     		bhi	.L5
 130 001e 002B     		cmp	r3, #0
 131 0020 0BD0     		beq	.L6
 132 0022 202B     		cmp	r3, #32
 133 0024 4FD1     		bne	.L5
 134              	.L4:
ARM GAS  /var/folders/vq/qt4vp3kd5rxf7v2b6_fdtdt80000gn/T//ccb7F33r.s 			page 11


 105:Middlewares/ST/STM32_USB_Device_Library/Core/Src/usbd_ctlreq.c ****   {
 106:Middlewares/ST/STM32_USB_Device_Library/Core/Src/usbd_ctlreq.c ****     case USB_REQ_TYPE_CLASS:
 107:Middlewares/ST/STM32_USB_Device_Library/Core/Src/usbd_ctlreq.c ****     case USB_REQ_TYPE_VENDOR:
 108:Middlewares/ST/STM32_USB_Device_Library/Core/Src/usbd_ctlreq.c ****       ret = (USBD_StatusTypeDef)pdev->pClass->Setup(pdev, req);
 135              		.loc 2 108 37
 136 0026 7B68     		ldr	r3, [r7, #4]
 137 0028 D3F8B832 		ldr	r3, [r3, #696]
 138              		.loc 2 108 45
 139 002c 9B68     		ldr	r3, [r3, #8]
 140              		.loc 2 108 33
 141 002e 3968     		ldr	r1, [r7]
 142 0030 7868     		ldr	r0, [r7, #4]
 143 0032 9847     		blx	r3
 144              	.LVL0:
 145 0034 0346     		mov	r3, r0
 146 0036 FB73     		strb	r3, [r7, #15]
 109:Middlewares/ST/STM32_USB_Device_Library/Core/Src/usbd_ctlreq.c ****       break;
 147              		.loc 2 109 7
 148 0038 4AE0     		b	.L7
 149              	.L6:
 110:Middlewares/ST/STM32_USB_Device_Library/Core/Src/usbd_ctlreq.c **** 
 111:Middlewares/ST/STM32_USB_Device_Library/Core/Src/usbd_ctlreq.c ****     case USB_REQ_TYPE_STANDARD:
 112:Middlewares/ST/STM32_USB_Device_Library/Core/Src/usbd_ctlreq.c ****       switch (req->bRequest)
 150              		.loc 2 112 18
 151 003a 3B68     		ldr	r3, [r7]
 152 003c 5B78     		ldrb	r3, [r3, #1]	@ zero_extendqisi2
 153 003e 092B     		cmp	r3, #9
 154 0040 3BD8     		bhi	.L8
 155 0042 01A2     		adr	r2, .L10
 156 0044 52F823F0 		ldr	pc, [r2, r3, lsl #2]
 157              		.p2align 2
 158              	.L10:
 159 0048 9D000000 		.word	.L16+1
 160 004c B1000000 		.word	.L15+1
 161 0050 BB000000 		.word	.L8+1
 162 0054 A7000000 		.word	.L14+1
 163 0058 BB000000 		.word	.L8+1
 164 005c 7B000000 		.word	.L13+1
 165 0060 71000000 		.word	.L12+1
 166 0064 BB000000 		.word	.L8+1
 167 0068 93000000 		.word	.L11+1
 168 006c 85000000 		.word	.L9+1
 169              		.p2align 1
 170              	.L12:
 113:Middlewares/ST/STM32_USB_Device_Library/Core/Src/usbd_ctlreq.c ****       {
 114:Middlewares/ST/STM32_USB_Device_Library/Core/Src/usbd_ctlreq.c ****         case USB_REQ_GET_DESCRIPTOR:
 115:Middlewares/ST/STM32_USB_Device_Library/Core/Src/usbd_ctlreq.c ****           USBD_GetDescriptor(pdev, req);
 171              		.loc 2 115 11
 172 0070 3968     		ldr	r1, [r7]
 173 0072 7868     		ldr	r0, [r7, #4]
 174 0074 FFF7FEFF 		bl	USBD_GetDescriptor
 116:Middlewares/ST/STM32_USB_Device_Library/Core/Src/usbd_ctlreq.c ****           break;
 175              		.loc 2 116 11
 176 0078 24E0     		b	.L17
 177              	.L13:
 117:Middlewares/ST/STM32_USB_Device_Library/Core/Src/usbd_ctlreq.c **** 
 118:Middlewares/ST/STM32_USB_Device_Library/Core/Src/usbd_ctlreq.c ****         case USB_REQ_SET_ADDRESS:
ARM GAS  /var/folders/vq/qt4vp3kd5rxf7v2b6_fdtdt80000gn/T//ccb7F33r.s 			page 12


 119:Middlewares/ST/STM32_USB_Device_Library/Core/Src/usbd_ctlreq.c ****           USBD_SetAddress(pdev, req);
 178              		.loc 2 119 11
 179 007a 3968     		ldr	r1, [r7]
 180 007c 7868     		ldr	r0, [r7, #4]
 181 007e FFF7FEFF 		bl	USBD_SetAddress
 120:Middlewares/ST/STM32_USB_Device_Library/Core/Src/usbd_ctlreq.c ****           break;
 182              		.loc 2 120 11
 183 0082 1FE0     		b	.L17
 184              	.L9:
 121:Middlewares/ST/STM32_USB_Device_Library/Core/Src/usbd_ctlreq.c **** 
 122:Middlewares/ST/STM32_USB_Device_Library/Core/Src/usbd_ctlreq.c ****         case USB_REQ_SET_CONFIGURATION:
 123:Middlewares/ST/STM32_USB_Device_Library/Core/Src/usbd_ctlreq.c ****           ret = USBD_SetConfig(pdev, req);
 185              		.loc 2 123 17
 186 0084 3968     		ldr	r1, [r7]
 187 0086 7868     		ldr	r0, [r7, #4]
 188 0088 FFF7FEFF 		bl	USBD_SetConfig
 189 008c 0346     		mov	r3, r0
 190 008e FB73     		strb	r3, [r7, #15]
 124:Middlewares/ST/STM32_USB_Device_Library/Core/Src/usbd_ctlreq.c ****           break;
 191              		.loc 2 124 11
 192 0090 18E0     		b	.L17
 193              	.L11:
 125:Middlewares/ST/STM32_USB_Device_Library/Core/Src/usbd_ctlreq.c **** 
 126:Middlewares/ST/STM32_USB_Device_Library/Core/Src/usbd_ctlreq.c ****         case USB_REQ_GET_CONFIGURATION:
 127:Middlewares/ST/STM32_USB_Device_Library/Core/Src/usbd_ctlreq.c ****           USBD_GetConfig(pdev, req);
 194              		.loc 2 127 11
 195 0092 3968     		ldr	r1, [r7]
 196 0094 7868     		ldr	r0, [r7, #4]
 197 0096 FFF7FEFF 		bl	USBD_GetConfig
 128:Middlewares/ST/STM32_USB_Device_Library/Core/Src/usbd_ctlreq.c ****           break;
 198              		.loc 2 128 11
 199 009a 13E0     		b	.L17
 200              	.L16:
 129:Middlewares/ST/STM32_USB_Device_Library/Core/Src/usbd_ctlreq.c **** 
 130:Middlewares/ST/STM32_USB_Device_Library/Core/Src/usbd_ctlreq.c ****         case USB_REQ_GET_STATUS:
 131:Middlewares/ST/STM32_USB_Device_Library/Core/Src/usbd_ctlreq.c ****           USBD_GetStatus(pdev, req);
 201              		.loc 2 131 11
 202 009c 3968     		ldr	r1, [r7]
 203 009e 7868     		ldr	r0, [r7, #4]
 204 00a0 FFF7FEFF 		bl	USBD_GetStatus
 132:Middlewares/ST/STM32_USB_Device_Library/Core/Src/usbd_ctlreq.c ****           break;
 205              		.loc 2 132 11
 206 00a4 0EE0     		b	.L17
 207              	.L14:
 133:Middlewares/ST/STM32_USB_Device_Library/Core/Src/usbd_ctlreq.c **** 
 134:Middlewares/ST/STM32_USB_Device_Library/Core/Src/usbd_ctlreq.c ****         case USB_REQ_SET_FEATURE:
 135:Middlewares/ST/STM32_USB_Device_Library/Core/Src/usbd_ctlreq.c ****           USBD_SetFeature(pdev, req);
 208              		.loc 2 135 11
 209 00a6 3968     		ldr	r1, [r7]
 210 00a8 7868     		ldr	r0, [r7, #4]
 211 00aa FFF7FEFF 		bl	USBD_SetFeature
 136:Middlewares/ST/STM32_USB_Device_Library/Core/Src/usbd_ctlreq.c ****           break;
 212              		.loc 2 136 11
 213 00ae 09E0     		b	.L17
 214              	.L15:
 137:Middlewares/ST/STM32_USB_Device_Library/Core/Src/usbd_ctlreq.c **** 
 138:Middlewares/ST/STM32_USB_Device_Library/Core/Src/usbd_ctlreq.c ****         case USB_REQ_CLEAR_FEATURE:
ARM GAS  /var/folders/vq/qt4vp3kd5rxf7v2b6_fdtdt80000gn/T//ccb7F33r.s 			page 13


 139:Middlewares/ST/STM32_USB_Device_Library/Core/Src/usbd_ctlreq.c ****           USBD_ClrFeature(pdev, req);
 215              		.loc 2 139 11
 216 00b0 3968     		ldr	r1, [r7]
 217 00b2 7868     		ldr	r0, [r7, #4]
 218 00b4 FFF7FEFF 		bl	USBD_ClrFeature
 140:Middlewares/ST/STM32_USB_Device_Library/Core/Src/usbd_ctlreq.c ****           break;
 219              		.loc 2 140 11
 220 00b8 04E0     		b	.L17
 221              	.L8:
 141:Middlewares/ST/STM32_USB_Device_Library/Core/Src/usbd_ctlreq.c **** 
 142:Middlewares/ST/STM32_USB_Device_Library/Core/Src/usbd_ctlreq.c ****         default:
 143:Middlewares/ST/STM32_USB_Device_Library/Core/Src/usbd_ctlreq.c ****           USBD_CtlError(pdev, req);
 222              		.loc 2 143 11
 223 00ba 3968     		ldr	r1, [r7]
 224 00bc 7868     		ldr	r0, [r7, #4]
 225 00be FFF7FEFF 		bl	USBD_CtlError
 144:Middlewares/ST/STM32_USB_Device_Library/Core/Src/usbd_ctlreq.c ****           break;
 226              		.loc 2 144 11
 227 00c2 00BF     		nop
 228              	.L17:
 145:Middlewares/ST/STM32_USB_Device_Library/Core/Src/usbd_ctlreq.c ****       }
 146:Middlewares/ST/STM32_USB_Device_Library/Core/Src/usbd_ctlreq.c ****       break;
 229              		.loc 2 146 7
 230 00c4 04E0     		b	.L7
 231              	.L5:
 147:Middlewares/ST/STM32_USB_Device_Library/Core/Src/usbd_ctlreq.c **** 
 148:Middlewares/ST/STM32_USB_Device_Library/Core/Src/usbd_ctlreq.c ****     default:
 149:Middlewares/ST/STM32_USB_Device_Library/Core/Src/usbd_ctlreq.c ****       USBD_CtlError(pdev, req);
 232              		.loc 2 149 7
 233 00c6 3968     		ldr	r1, [r7]
 234 00c8 7868     		ldr	r0, [r7, #4]
 235 00ca FFF7FEFF 		bl	USBD_CtlError
 150:Middlewares/ST/STM32_USB_Device_Library/Core/Src/usbd_ctlreq.c ****       break;
 236              		.loc 2 150 7
 237 00ce 00BF     		nop
 238              	.L7:
 151:Middlewares/ST/STM32_USB_Device_Library/Core/Src/usbd_ctlreq.c ****   }
 152:Middlewares/ST/STM32_USB_Device_Library/Core/Src/usbd_ctlreq.c **** 
 153:Middlewares/ST/STM32_USB_Device_Library/Core/Src/usbd_ctlreq.c ****   return ret;
 239              		.loc 2 153 10
 240 00d0 FB7B     		ldrb	r3, [r7, #15]	@ zero_extendqisi2
 154:Middlewares/ST/STM32_USB_Device_Library/Core/Src/usbd_ctlreq.c **** }
 241              		.loc 2 154 1
 242 00d2 1846     		mov	r0, r3
 243 00d4 1037     		adds	r7, r7, #16
 244              	.LCFI9:
 245              		.cfi_def_cfa_offset 8
 246 00d6 BD46     		mov	sp, r7
 247              	.LCFI10:
 248              		.cfi_def_cfa_register 13
 249              		@ sp needed
 250 00d8 80BD     		pop	{r7, pc}
 251              		.cfi_endproc
 252              	.LFE134:
 254 00da 00BF     		.section	.text.USBD_StdItfReq,"ax",%progbits
 255              		.align	1
 256              		.global	USBD_StdItfReq
ARM GAS  /var/folders/vq/qt4vp3kd5rxf7v2b6_fdtdt80000gn/T//ccb7F33r.s 			page 14


 257              		.syntax unified
 258              		.thumb
 259              		.thumb_func
 260              		.fpu fpv4-sp-d16
 262              	USBD_StdItfReq:
 263              	.LFB135:
 155:Middlewares/ST/STM32_USB_Device_Library/Core/Src/usbd_ctlreq.c **** 
 156:Middlewares/ST/STM32_USB_Device_Library/Core/Src/usbd_ctlreq.c **** /**
 157:Middlewares/ST/STM32_USB_Device_Library/Core/Src/usbd_ctlreq.c ****   * @brief  USBD_StdItfReq
 158:Middlewares/ST/STM32_USB_Device_Library/Core/Src/usbd_ctlreq.c ****   *         Handle standard usb interface requests
 159:Middlewares/ST/STM32_USB_Device_Library/Core/Src/usbd_ctlreq.c ****   * @param  pdev: device instance
 160:Middlewares/ST/STM32_USB_Device_Library/Core/Src/usbd_ctlreq.c ****   * @param  req: usb request
 161:Middlewares/ST/STM32_USB_Device_Library/Core/Src/usbd_ctlreq.c ****   * @retval status
 162:Middlewares/ST/STM32_USB_Device_Library/Core/Src/usbd_ctlreq.c ****   */
 163:Middlewares/ST/STM32_USB_Device_Library/Core/Src/usbd_ctlreq.c **** USBD_StatusTypeDef USBD_StdItfReq(USBD_HandleTypeDef *pdev, USBD_SetupReqTypedef *req)
 164:Middlewares/ST/STM32_USB_Device_Library/Core/Src/usbd_ctlreq.c **** {
 264              		.loc 2 164 1
 265              		.cfi_startproc
 266              		@ args = 0, pretend = 0, frame = 16
 267              		@ frame_needed = 1, uses_anonymous_args = 0
 268 0000 80B5     		push	{r7, lr}
 269              	.LCFI11:
 270              		.cfi_def_cfa_offset 8
 271              		.cfi_offset 7, -8
 272              		.cfi_offset 14, -4
 273 0002 84B0     		sub	sp, sp, #16
 274              	.LCFI12:
 275              		.cfi_def_cfa_offset 24
 276 0004 00AF     		add	r7, sp, #0
 277              	.LCFI13:
 278              		.cfi_def_cfa_register 7
 279 0006 7860     		str	r0, [r7, #4]
 280 0008 3960     		str	r1, [r7]
 165:Middlewares/ST/STM32_USB_Device_Library/Core/Src/usbd_ctlreq.c ****   USBD_StatusTypeDef ret = USBD_OK;
 281              		.loc 2 165 22
 282 000a 0023     		movs	r3, #0
 283 000c FB73     		strb	r3, [r7, #15]
 166:Middlewares/ST/STM32_USB_Device_Library/Core/Src/usbd_ctlreq.c **** 
 167:Middlewares/ST/STM32_USB_Device_Library/Core/Src/usbd_ctlreq.c ****   switch (req->bmRequest & USB_REQ_TYPE_MASK)
 284              		.loc 2 167 14
 285 000e 3B68     		ldr	r3, [r7]
 286 0010 1B78     		ldrb	r3, [r3]	@ zero_extendqisi2
 287              		.loc 2 167 26
 288 0012 03F06003 		and	r3, r3, #96
 289              		.loc 2 167 3
 290 0016 402B     		cmp	r3, #64
 291 0018 05D0     		beq	.L20
 292 001a 402B     		cmp	r3, #64
 293 001c 2FD8     		bhi	.L21
 294 001e 002B     		cmp	r3, #0
 295 0020 01D0     		beq	.L20
 296 0022 202B     		cmp	r3, #32
 297 0024 2BD1     		bne	.L21
 298              	.L20:
 168:Middlewares/ST/STM32_USB_Device_Library/Core/Src/usbd_ctlreq.c ****   {
 169:Middlewares/ST/STM32_USB_Device_Library/Core/Src/usbd_ctlreq.c ****     case USB_REQ_TYPE_CLASS:
 170:Middlewares/ST/STM32_USB_Device_Library/Core/Src/usbd_ctlreq.c ****     case USB_REQ_TYPE_VENDOR:
ARM GAS  /var/folders/vq/qt4vp3kd5rxf7v2b6_fdtdt80000gn/T//ccb7F33r.s 			page 15


 171:Middlewares/ST/STM32_USB_Device_Library/Core/Src/usbd_ctlreq.c ****     case USB_REQ_TYPE_STANDARD:
 172:Middlewares/ST/STM32_USB_Device_Library/Core/Src/usbd_ctlreq.c ****       switch (pdev->dev_state)
 299              		.loc 2 172 19
 300 0026 7B68     		ldr	r3, [r7, #4]
 301 0028 93F89C32 		ldrb	r3, [r3, #668]
 302 002c DBB2     		uxtb	r3, r3
 303 002e 013B     		subs	r3, r3, #1
 304 0030 022B     		cmp	r3, #2
 305 0032 1DD8     		bhi	.L22
 173:Middlewares/ST/STM32_USB_Device_Library/Core/Src/usbd_ctlreq.c ****       {
 174:Middlewares/ST/STM32_USB_Device_Library/Core/Src/usbd_ctlreq.c ****         case USBD_STATE_DEFAULT:
 175:Middlewares/ST/STM32_USB_Device_Library/Core/Src/usbd_ctlreq.c ****         case USBD_STATE_ADDRESSED:
 176:Middlewares/ST/STM32_USB_Device_Library/Core/Src/usbd_ctlreq.c ****         case USBD_STATE_CONFIGURED:
 177:Middlewares/ST/STM32_USB_Device_Library/Core/Src/usbd_ctlreq.c **** 
 178:Middlewares/ST/STM32_USB_Device_Library/Core/Src/usbd_ctlreq.c ****           if (LOBYTE(req->wIndex) <= USBD_MAX_NUM_INTERFACES)
 306              		.loc 2 178 15
 307 0034 3B68     		ldr	r3, [r7]
 308 0036 9B88     		ldrh	r3, [r3, #4]
 309 0038 DBB2     		uxtb	r3, r3
 310              		.loc 2 178 14
 311 003a 012B     		cmp	r3, #1
 312 003c 13D8     		bhi	.L23
 179:Middlewares/ST/STM32_USB_Device_Library/Core/Src/usbd_ctlreq.c ****           {
 180:Middlewares/ST/STM32_USB_Device_Library/Core/Src/usbd_ctlreq.c ****             ret = (USBD_StatusTypeDef)pdev->pClass->Setup(pdev, req);
 313              		.loc 2 180 43
 314 003e 7B68     		ldr	r3, [r7, #4]
 315 0040 D3F8B832 		ldr	r3, [r3, #696]
 316              		.loc 2 180 51
 317 0044 9B68     		ldr	r3, [r3, #8]
 318              		.loc 2 180 39
 319 0046 3968     		ldr	r1, [r7]
 320 0048 7868     		ldr	r0, [r7, #4]
 321 004a 9847     		blx	r3
 322              	.LVL1:
 323 004c 0346     		mov	r3, r0
 324 004e FB73     		strb	r3, [r7, #15]
 181:Middlewares/ST/STM32_USB_Device_Library/Core/Src/usbd_ctlreq.c **** 
 182:Middlewares/ST/STM32_USB_Device_Library/Core/Src/usbd_ctlreq.c ****             if ((req->wLength == 0U) && (ret == USBD_OK))
 325              		.loc 2 182 21
 326 0050 3B68     		ldr	r3, [r7]
 327 0052 DB88     		ldrh	r3, [r3, #6]
 328              		.loc 2 182 16
 329 0054 002B     		cmp	r3, #0
 330 0056 10D1     		bne	.L28
 331              		.loc 2 182 38 discriminator 1
 332 0058 FB7B     		ldrb	r3, [r7, #15]	@ zero_extendqisi2
 333 005a 002B     		cmp	r3, #0
 334 005c 0DD1     		bne	.L28
 183:Middlewares/ST/STM32_USB_Device_Library/Core/Src/usbd_ctlreq.c ****             {
 184:Middlewares/ST/STM32_USB_Device_Library/Core/Src/usbd_ctlreq.c ****               (void)USBD_CtlSendStatus(pdev);
 335              		.loc 2 184 21
 336 005e 7868     		ldr	r0, [r7, #4]
 337 0060 FFF7FEFF 		bl	USBD_CtlSendStatus
 185:Middlewares/ST/STM32_USB_Device_Library/Core/Src/usbd_ctlreq.c ****             }
 186:Middlewares/ST/STM32_USB_Device_Library/Core/Src/usbd_ctlreq.c ****           }
 187:Middlewares/ST/STM32_USB_Device_Library/Core/Src/usbd_ctlreq.c ****           else
 188:Middlewares/ST/STM32_USB_Device_Library/Core/Src/usbd_ctlreq.c ****           {
ARM GAS  /var/folders/vq/qt4vp3kd5rxf7v2b6_fdtdt80000gn/T//ccb7F33r.s 			page 16


 189:Middlewares/ST/STM32_USB_Device_Library/Core/Src/usbd_ctlreq.c ****             USBD_CtlError(pdev, req);
 190:Middlewares/ST/STM32_USB_Device_Library/Core/Src/usbd_ctlreq.c ****           }
 191:Middlewares/ST/STM32_USB_Device_Library/Core/Src/usbd_ctlreq.c ****           break;
 338              		.loc 2 191 11
 339 0064 09E0     		b	.L28
 340              	.L23:
 189:Middlewares/ST/STM32_USB_Device_Library/Core/Src/usbd_ctlreq.c ****           }
 341              		.loc 2 189 13
 342 0066 3968     		ldr	r1, [r7]
 343 0068 7868     		ldr	r0, [r7, #4]
 344 006a FFF7FEFF 		bl	USBD_CtlError
 345              		.loc 2 191 11
 346 006e 04E0     		b	.L28
 347              	.L22:
 192:Middlewares/ST/STM32_USB_Device_Library/Core/Src/usbd_ctlreq.c **** 
 193:Middlewares/ST/STM32_USB_Device_Library/Core/Src/usbd_ctlreq.c ****         default:
 194:Middlewares/ST/STM32_USB_Device_Library/Core/Src/usbd_ctlreq.c ****           USBD_CtlError(pdev, req);
 348              		.loc 2 194 11
 349 0070 3968     		ldr	r1, [r7]
 350 0072 7868     		ldr	r0, [r7, #4]
 351 0074 FFF7FEFF 		bl	USBD_CtlError
 195:Middlewares/ST/STM32_USB_Device_Library/Core/Src/usbd_ctlreq.c ****           break;
 352              		.loc 2 195 11
 353 0078 00E0     		b	.L25
 354              	.L28:
 191:Middlewares/ST/STM32_USB_Device_Library/Core/Src/usbd_ctlreq.c **** 
 355              		.loc 2 191 11
 356 007a 00BF     		nop
 357              	.L25:
 196:Middlewares/ST/STM32_USB_Device_Library/Core/Src/usbd_ctlreq.c ****       }
 197:Middlewares/ST/STM32_USB_Device_Library/Core/Src/usbd_ctlreq.c ****       break;
 358              		.loc 2 197 7
 359 007c 04E0     		b	.L26
 360              	.L21:
 198:Middlewares/ST/STM32_USB_Device_Library/Core/Src/usbd_ctlreq.c **** 
 199:Middlewares/ST/STM32_USB_Device_Library/Core/Src/usbd_ctlreq.c ****     default:
 200:Middlewares/ST/STM32_USB_Device_Library/Core/Src/usbd_ctlreq.c ****       USBD_CtlError(pdev, req);
 361              		.loc 2 200 7
 362 007e 3968     		ldr	r1, [r7]
 363 0080 7868     		ldr	r0, [r7, #4]
 364 0082 FFF7FEFF 		bl	USBD_CtlError
 201:Middlewares/ST/STM32_USB_Device_Library/Core/Src/usbd_ctlreq.c ****       break;
 365              		.loc 2 201 7
 366 0086 00BF     		nop
 367              	.L26:
 202:Middlewares/ST/STM32_USB_Device_Library/Core/Src/usbd_ctlreq.c ****   }
 203:Middlewares/ST/STM32_USB_Device_Library/Core/Src/usbd_ctlreq.c **** 
 204:Middlewares/ST/STM32_USB_Device_Library/Core/Src/usbd_ctlreq.c ****   return ret;
 368              		.loc 2 204 10
 369 0088 FB7B     		ldrb	r3, [r7, #15]	@ zero_extendqisi2
 205:Middlewares/ST/STM32_USB_Device_Library/Core/Src/usbd_ctlreq.c **** }
 370              		.loc 2 205 1
 371 008a 1846     		mov	r0, r3
 372 008c 1037     		adds	r7, r7, #16
 373              	.LCFI14:
 374              		.cfi_def_cfa_offset 8
 375 008e BD46     		mov	sp, r7
ARM GAS  /var/folders/vq/qt4vp3kd5rxf7v2b6_fdtdt80000gn/T//ccb7F33r.s 			page 17


 376              	.LCFI15:
 377              		.cfi_def_cfa_register 13
 378              		@ sp needed
 379 0090 80BD     		pop	{r7, pc}
 380              		.cfi_endproc
 381              	.LFE135:
 383              		.section	.text.USBD_StdEPReq,"ax",%progbits
 384              		.align	1
 385              		.global	USBD_StdEPReq
 386              		.syntax unified
 387              		.thumb
 388              		.thumb_func
 389              		.fpu fpv4-sp-d16
 391              	USBD_StdEPReq:
 392              	.LFB136:
 206:Middlewares/ST/STM32_USB_Device_Library/Core/Src/usbd_ctlreq.c **** 
 207:Middlewares/ST/STM32_USB_Device_Library/Core/Src/usbd_ctlreq.c **** /**
 208:Middlewares/ST/STM32_USB_Device_Library/Core/Src/usbd_ctlreq.c ****   * @brief  USBD_StdEPReq
 209:Middlewares/ST/STM32_USB_Device_Library/Core/Src/usbd_ctlreq.c ****   *         Handle standard usb endpoint requests
 210:Middlewares/ST/STM32_USB_Device_Library/Core/Src/usbd_ctlreq.c ****   * @param  pdev: device instance
 211:Middlewares/ST/STM32_USB_Device_Library/Core/Src/usbd_ctlreq.c ****   * @param  req: usb request
 212:Middlewares/ST/STM32_USB_Device_Library/Core/Src/usbd_ctlreq.c ****   * @retval status
 213:Middlewares/ST/STM32_USB_Device_Library/Core/Src/usbd_ctlreq.c ****   */
 214:Middlewares/ST/STM32_USB_Device_Library/Core/Src/usbd_ctlreq.c **** USBD_StatusTypeDef USBD_StdEPReq(USBD_HandleTypeDef *pdev, USBD_SetupReqTypedef *req)
 215:Middlewares/ST/STM32_USB_Device_Library/Core/Src/usbd_ctlreq.c **** {
 393              		.loc 2 215 1
 394              		.cfi_startproc
 395              		@ args = 0, pretend = 0, frame = 16
 396              		@ frame_needed = 1, uses_anonymous_args = 0
 397 0000 80B5     		push	{r7, lr}
 398              	.LCFI16:
 399              		.cfi_def_cfa_offset 8
 400              		.cfi_offset 7, -8
 401              		.cfi_offset 14, -4
 402 0002 84B0     		sub	sp, sp, #16
 403              	.LCFI17:
 404              		.cfi_def_cfa_offset 24
 405 0004 00AF     		add	r7, sp, #0
 406              	.LCFI18:
 407              		.cfi_def_cfa_register 7
 408 0006 7860     		str	r0, [r7, #4]
 409 0008 3960     		str	r1, [r7]
 216:Middlewares/ST/STM32_USB_Device_Library/Core/Src/usbd_ctlreq.c ****   USBD_EndpointTypeDef *pep;
 217:Middlewares/ST/STM32_USB_Device_Library/Core/Src/usbd_ctlreq.c ****   uint8_t ep_addr;
 218:Middlewares/ST/STM32_USB_Device_Library/Core/Src/usbd_ctlreq.c ****   USBD_StatusTypeDef ret = USBD_OK;
 410              		.loc 2 218 22
 411 000a 0023     		movs	r3, #0
 412 000c FB73     		strb	r3, [r7, #15]
 219:Middlewares/ST/STM32_USB_Device_Library/Core/Src/usbd_ctlreq.c ****   ep_addr = LOBYTE(req->wIndex);
 413              		.loc 2 219 13
 414 000e 3B68     		ldr	r3, [r7]
 415 0010 9B88     		ldrh	r3, [r3, #4]
 416              		.loc 2 219 11
 417 0012 BB73     		strb	r3, [r7, #14]
 220:Middlewares/ST/STM32_USB_Device_Library/Core/Src/usbd_ctlreq.c **** 
 221:Middlewares/ST/STM32_USB_Device_Library/Core/Src/usbd_ctlreq.c ****   switch (req->bmRequest & USB_REQ_TYPE_MASK)
 418              		.loc 2 221 14
ARM GAS  /var/folders/vq/qt4vp3kd5rxf7v2b6_fdtdt80000gn/T//ccb7F33r.s 			page 18


 419 0014 3B68     		ldr	r3, [r7]
 420 0016 1B78     		ldrb	r3, [r3]	@ zero_extendqisi2
 421              		.loc 2 221 26
 422 0018 03F06003 		and	r3, r3, #96
 423              		.loc 2 221 3
 424 001c 402B     		cmp	r3, #64
 425 001e 07D0     		beq	.L30
 426 0020 402B     		cmp	r3, #64
 427 0022 00F24581 		bhi	.L31
 428 0026 002B     		cmp	r3, #0
 429 0028 0CD0     		beq	.L32
 430 002a 202B     		cmp	r3, #32
 431 002c 40F04081 		bne	.L31
 432              	.L30:
 222:Middlewares/ST/STM32_USB_Device_Library/Core/Src/usbd_ctlreq.c ****   {
 223:Middlewares/ST/STM32_USB_Device_Library/Core/Src/usbd_ctlreq.c ****     case USB_REQ_TYPE_CLASS:
 224:Middlewares/ST/STM32_USB_Device_Library/Core/Src/usbd_ctlreq.c ****     case USB_REQ_TYPE_VENDOR:
 225:Middlewares/ST/STM32_USB_Device_Library/Core/Src/usbd_ctlreq.c ****       ret = (USBD_StatusTypeDef)pdev->pClass->Setup(pdev, req);
 433              		.loc 2 225 37
 434 0030 7B68     		ldr	r3, [r7, #4]
 435 0032 D3F8B832 		ldr	r3, [r3, #696]
 436              		.loc 2 225 45
 437 0036 9B68     		ldr	r3, [r3, #8]
 438              		.loc 2 225 33
 439 0038 3968     		ldr	r1, [r7]
 440 003a 7868     		ldr	r0, [r7, #4]
 441 003c 9847     		blx	r3
 442              	.LVL2:
 443 003e 0346     		mov	r3, r0
 444 0040 FB73     		strb	r3, [r7, #15]
 226:Middlewares/ST/STM32_USB_Device_Library/Core/Src/usbd_ctlreq.c ****       break;
 445              		.loc 2 226 7
 446 0042 3AE1     		b	.L33
 447              	.L32:
 227:Middlewares/ST/STM32_USB_Device_Library/Core/Src/usbd_ctlreq.c **** 
 228:Middlewares/ST/STM32_USB_Device_Library/Core/Src/usbd_ctlreq.c ****     case USB_REQ_TYPE_STANDARD:
 229:Middlewares/ST/STM32_USB_Device_Library/Core/Src/usbd_ctlreq.c ****       switch (req->bRequest)
 448              		.loc 2 229 18
 449 0044 3B68     		ldr	r3, [r7]
 450 0046 5B78     		ldrb	r3, [r3, #1]	@ zero_extendqisi2
 451 0048 032B     		cmp	r3, #3
 452 004a 07D0     		beq	.L34
 453 004c 032B     		cmp	r3, #3
 454 004e 00F32981 		bgt	.L35
 455 0052 002B     		cmp	r3, #0
 456 0054 7FD0     		beq	.L36
 457 0056 012B     		cmp	r3, #1
 458 0058 3CD0     		beq	.L37
 459 005a 23E1     		b	.L35
 460              	.L34:
 230:Middlewares/ST/STM32_USB_Device_Library/Core/Src/usbd_ctlreq.c ****       {
 231:Middlewares/ST/STM32_USB_Device_Library/Core/Src/usbd_ctlreq.c ****         case USB_REQ_SET_FEATURE:
 232:Middlewares/ST/STM32_USB_Device_Library/Core/Src/usbd_ctlreq.c ****           switch (pdev->dev_state)
 461              		.loc 2 232 23 discriminator 3
 462 005c 7B68     		ldr	r3, [r7, #4]
 463 005e 93F89C32 		ldrb	r3, [r3, #668]
 464 0062 DBB2     		uxtb	r3, r3
ARM GAS  /var/folders/vq/qt4vp3kd5rxf7v2b6_fdtdt80000gn/T//ccb7F33r.s 			page 19


 465 0064 022B     		cmp	r3, #2
 466 0066 02D0     		beq	.L38
 467 0068 032B     		cmp	r3, #3
 468 006a 16D0     		beq	.L39
 469 006c 2CE0     		b	.L70
 470              	.L38:
 233:Middlewares/ST/STM32_USB_Device_Library/Core/Src/usbd_ctlreq.c ****           {
 234:Middlewares/ST/STM32_USB_Device_Library/Core/Src/usbd_ctlreq.c ****             case USBD_STATE_ADDRESSED:
 235:Middlewares/ST/STM32_USB_Device_Library/Core/Src/usbd_ctlreq.c ****               if ((ep_addr != 0x00U) && (ep_addr != 0x80U))
 471              		.loc 2 235 18
 472 006e BB7B     		ldrb	r3, [r7, #14]	@ zero_extendqisi2
 473 0070 002B     		cmp	r3, #0
 474 0072 0DD0     		beq	.L41
 475              		.loc 2 235 38 discriminator 1
 476 0074 BB7B     		ldrb	r3, [r7, #14]	@ zero_extendqisi2
 477 0076 802B     		cmp	r3, #128
 478 0078 0AD0     		beq	.L41
 236:Middlewares/ST/STM32_USB_Device_Library/Core/Src/usbd_ctlreq.c ****               {
 237:Middlewares/ST/STM32_USB_Device_Library/Core/Src/usbd_ctlreq.c ****                 (void)USBD_LL_StallEP(pdev, ep_addr);
 479              		.loc 2 237 23
 480 007a BB7B     		ldrb	r3, [r7, #14]	@ zero_extendqisi2
 481 007c 1946     		mov	r1, r3
 482 007e 7868     		ldr	r0, [r7, #4]
 483 0080 FFF7FEFF 		bl	USBD_LL_StallEP
 238:Middlewares/ST/STM32_USB_Device_Library/Core/Src/usbd_ctlreq.c ****                 (void)USBD_LL_StallEP(pdev, 0x80U);
 484              		.loc 2 238 23
 485 0084 8021     		movs	r1, #128
 486 0086 7868     		ldr	r0, [r7, #4]
 487 0088 FFF7FEFF 		bl	USBD_LL_StallEP
 488              		.loc 2 238 17
 489 008c 00BF     		nop
 239:Middlewares/ST/STM32_USB_Device_Library/Core/Src/usbd_ctlreq.c ****               }
 240:Middlewares/ST/STM32_USB_Device_Library/Core/Src/usbd_ctlreq.c ****               else
 241:Middlewares/ST/STM32_USB_Device_Library/Core/Src/usbd_ctlreq.c ****               {
 242:Middlewares/ST/STM32_USB_Device_Library/Core/Src/usbd_ctlreq.c ****                 USBD_CtlError(pdev, req);
 243:Middlewares/ST/STM32_USB_Device_Library/Core/Src/usbd_ctlreq.c ****               }
 244:Middlewares/ST/STM32_USB_Device_Library/Core/Src/usbd_ctlreq.c ****               break;
 490              		.loc 2 244 15
 491 008e 20E0     		b	.L43
 492              	.L41:
 242:Middlewares/ST/STM32_USB_Device_Library/Core/Src/usbd_ctlreq.c ****               }
 493              		.loc 2 242 17
 494 0090 3968     		ldr	r1, [r7]
 495 0092 7868     		ldr	r0, [r7, #4]
 496 0094 FFF7FEFF 		bl	USBD_CtlError
 497              		.loc 2 244 15
 498 0098 1BE0     		b	.L43
 499              	.L39:
 245:Middlewares/ST/STM32_USB_Device_Library/Core/Src/usbd_ctlreq.c **** 
 246:Middlewares/ST/STM32_USB_Device_Library/Core/Src/usbd_ctlreq.c ****             case USBD_STATE_CONFIGURED:
 247:Middlewares/ST/STM32_USB_Device_Library/Core/Src/usbd_ctlreq.c ****               if (req->wValue == USB_FEATURE_EP_HALT)
 500              		.loc 2 247 22
 501 009a 3B68     		ldr	r3, [r7]
 502 009c 5B88     		ldrh	r3, [r3, #2]
 503              		.loc 2 247 18
 504 009e 002B     		cmp	r3, #0
 505 00a0 0ED1     		bne	.L44
ARM GAS  /var/folders/vq/qt4vp3kd5rxf7v2b6_fdtdt80000gn/T//ccb7F33r.s 			page 20


 248:Middlewares/ST/STM32_USB_Device_Library/Core/Src/usbd_ctlreq.c ****               {
 249:Middlewares/ST/STM32_USB_Device_Library/Core/Src/usbd_ctlreq.c ****                 if ((ep_addr != 0x00U) && (ep_addr != 0x80U) && (req->wLength == 0x00U))
 506              		.loc 2 249 20
 507 00a2 BB7B     		ldrb	r3, [r7, #14]	@ zero_extendqisi2
 508 00a4 002B     		cmp	r3, #0
 509 00a6 0BD0     		beq	.L44
 510              		.loc 2 249 40 discriminator 1
 511 00a8 BB7B     		ldrb	r3, [r7, #14]	@ zero_extendqisi2
 512 00aa 802B     		cmp	r3, #128
 513 00ac 08D0     		beq	.L44
 514              		.loc 2 249 69 discriminator 2
 515 00ae 3B68     		ldr	r3, [r7]
 516 00b0 DB88     		ldrh	r3, [r3, #6]
 517              		.loc 2 249 62 discriminator 2
 518 00b2 002B     		cmp	r3, #0
 519 00b4 04D1     		bne	.L44
 250:Middlewares/ST/STM32_USB_Device_Library/Core/Src/usbd_ctlreq.c ****                 {
 251:Middlewares/ST/STM32_USB_Device_Library/Core/Src/usbd_ctlreq.c ****                   (void)USBD_LL_StallEP(pdev, ep_addr);
 520              		.loc 2 251 25
 521 00b6 BB7B     		ldrb	r3, [r7, #14]	@ zero_extendqisi2
 522 00b8 1946     		mov	r1, r3
 523 00ba 7868     		ldr	r0, [r7, #4]
 524 00bc FFF7FEFF 		bl	USBD_LL_StallEP
 525              	.L44:
 252:Middlewares/ST/STM32_USB_Device_Library/Core/Src/usbd_ctlreq.c ****                 }
 253:Middlewares/ST/STM32_USB_Device_Library/Core/Src/usbd_ctlreq.c ****               }
 254:Middlewares/ST/STM32_USB_Device_Library/Core/Src/usbd_ctlreq.c ****               (void)USBD_CtlSendStatus(pdev);
 526              		.loc 2 254 21
 527 00c0 7868     		ldr	r0, [r7, #4]
 528 00c2 FFF7FEFF 		bl	USBD_CtlSendStatus
 255:Middlewares/ST/STM32_USB_Device_Library/Core/Src/usbd_ctlreq.c **** 
 256:Middlewares/ST/STM32_USB_Device_Library/Core/Src/usbd_ctlreq.c ****               break;
 529              		.loc 2 256 15
 530 00c6 04E0     		b	.L43
 531              	.L70:
 257:Middlewares/ST/STM32_USB_Device_Library/Core/Src/usbd_ctlreq.c **** 
 258:Middlewares/ST/STM32_USB_Device_Library/Core/Src/usbd_ctlreq.c ****             default:
 259:Middlewares/ST/STM32_USB_Device_Library/Core/Src/usbd_ctlreq.c ****               USBD_CtlError(pdev, req);
 532              		.loc 2 259 15
 533 00c8 3968     		ldr	r1, [r7]
 534 00ca 7868     		ldr	r0, [r7, #4]
 535 00cc FFF7FEFF 		bl	USBD_CtlError
 260:Middlewares/ST/STM32_USB_Device_Library/Core/Src/usbd_ctlreq.c ****               break;
 536              		.loc 2 260 15
 537 00d0 00BF     		nop
 538              	.L43:
 261:Middlewares/ST/STM32_USB_Device_Library/Core/Src/usbd_ctlreq.c ****           }
 262:Middlewares/ST/STM32_USB_Device_Library/Core/Src/usbd_ctlreq.c ****           break;
 539              		.loc 2 262 11
 540 00d2 ECE0     		b	.L45
 541              	.L37:
 263:Middlewares/ST/STM32_USB_Device_Library/Core/Src/usbd_ctlreq.c **** 
 264:Middlewares/ST/STM32_USB_Device_Library/Core/Src/usbd_ctlreq.c ****         case USB_REQ_CLEAR_FEATURE:
 265:Middlewares/ST/STM32_USB_Device_Library/Core/Src/usbd_ctlreq.c **** 
 266:Middlewares/ST/STM32_USB_Device_Library/Core/Src/usbd_ctlreq.c ****           switch (pdev->dev_state)
 542              		.loc 2 266 23 discriminator 2
 543 00d4 7B68     		ldr	r3, [r7, #4]
ARM GAS  /var/folders/vq/qt4vp3kd5rxf7v2b6_fdtdt80000gn/T//ccb7F33r.s 			page 21


 544 00d6 93F89C32 		ldrb	r3, [r3, #668]
 545 00da DBB2     		uxtb	r3, r3
 546 00dc 022B     		cmp	r3, #2
 547 00de 02D0     		beq	.L46
 548 00e0 032B     		cmp	r3, #3
 549 00e2 16D0     		beq	.L47
 550 00e4 30E0     		b	.L71
 551              	.L46:
 267:Middlewares/ST/STM32_USB_Device_Library/Core/Src/usbd_ctlreq.c ****           {
 268:Middlewares/ST/STM32_USB_Device_Library/Core/Src/usbd_ctlreq.c ****             case USBD_STATE_ADDRESSED:
 269:Middlewares/ST/STM32_USB_Device_Library/Core/Src/usbd_ctlreq.c ****               if ((ep_addr != 0x00U) && (ep_addr != 0x80U))
 552              		.loc 2 269 18
 553 00e6 BB7B     		ldrb	r3, [r7, #14]	@ zero_extendqisi2
 554 00e8 002B     		cmp	r3, #0
 555 00ea 0DD0     		beq	.L49
 556              		.loc 2 269 38 discriminator 1
 557 00ec BB7B     		ldrb	r3, [r7, #14]	@ zero_extendqisi2
 558 00ee 802B     		cmp	r3, #128
 559 00f0 0AD0     		beq	.L49
 270:Middlewares/ST/STM32_USB_Device_Library/Core/Src/usbd_ctlreq.c ****               {
 271:Middlewares/ST/STM32_USB_Device_Library/Core/Src/usbd_ctlreq.c ****                 (void)USBD_LL_StallEP(pdev, ep_addr);
 560              		.loc 2 271 23
 561 00f2 BB7B     		ldrb	r3, [r7, #14]	@ zero_extendqisi2
 562 00f4 1946     		mov	r1, r3
 563 00f6 7868     		ldr	r0, [r7, #4]
 564 00f8 FFF7FEFF 		bl	USBD_LL_StallEP
 272:Middlewares/ST/STM32_USB_Device_Library/Core/Src/usbd_ctlreq.c ****                 (void)USBD_LL_StallEP(pdev, 0x80U);
 565              		.loc 2 272 23
 566 00fc 8021     		movs	r1, #128
 567 00fe 7868     		ldr	r0, [r7, #4]
 568 0100 FFF7FEFF 		bl	USBD_LL_StallEP
 569              		.loc 2 272 17
 570 0104 00BF     		nop
 273:Middlewares/ST/STM32_USB_Device_Library/Core/Src/usbd_ctlreq.c ****               }
 274:Middlewares/ST/STM32_USB_Device_Library/Core/Src/usbd_ctlreq.c ****               else
 275:Middlewares/ST/STM32_USB_Device_Library/Core/Src/usbd_ctlreq.c ****               {
 276:Middlewares/ST/STM32_USB_Device_Library/Core/Src/usbd_ctlreq.c ****                 USBD_CtlError(pdev, req);
 277:Middlewares/ST/STM32_USB_Device_Library/Core/Src/usbd_ctlreq.c ****               }
 278:Middlewares/ST/STM32_USB_Device_Library/Core/Src/usbd_ctlreq.c ****               break;
 571              		.loc 2 278 15
 572 0106 25E0     		b	.L51
 573              	.L49:
 276:Middlewares/ST/STM32_USB_Device_Library/Core/Src/usbd_ctlreq.c ****               }
 574              		.loc 2 276 17
 575 0108 3968     		ldr	r1, [r7]
 576 010a 7868     		ldr	r0, [r7, #4]
 577 010c FFF7FEFF 		bl	USBD_CtlError
 578              		.loc 2 278 15
 579 0110 20E0     		b	.L51
 580              	.L47:
 279:Middlewares/ST/STM32_USB_Device_Library/Core/Src/usbd_ctlreq.c **** 
 280:Middlewares/ST/STM32_USB_Device_Library/Core/Src/usbd_ctlreq.c ****             case USBD_STATE_CONFIGURED:
 281:Middlewares/ST/STM32_USB_Device_Library/Core/Src/usbd_ctlreq.c ****               if (req->wValue == USB_FEATURE_EP_HALT)
 581              		.loc 2 281 22
 582 0112 3B68     		ldr	r3, [r7]
 583 0114 5B88     		ldrh	r3, [r3, #2]
 584              		.loc 2 281 18
ARM GAS  /var/folders/vq/qt4vp3kd5rxf7v2b6_fdtdt80000gn/T//ccb7F33r.s 			page 22


 585 0116 002B     		cmp	r3, #0
 586 0118 1BD1     		bne	.L73
 282:Middlewares/ST/STM32_USB_Device_Library/Core/Src/usbd_ctlreq.c ****               {
 283:Middlewares/ST/STM32_USB_Device_Library/Core/Src/usbd_ctlreq.c ****                 if ((ep_addr & 0x7FU) != 0x00U)
 587              		.loc 2 283 30
 588 011a BB7B     		ldrb	r3, [r7, #14]	@ zero_extendqisi2
 589 011c 03F07F03 		and	r3, r3, #127
 590              		.loc 2 283 20
 591 0120 002B     		cmp	r3, #0
 592 0122 04D0     		beq	.L53
 284:Middlewares/ST/STM32_USB_Device_Library/Core/Src/usbd_ctlreq.c ****                 {
 285:Middlewares/ST/STM32_USB_Device_Library/Core/Src/usbd_ctlreq.c ****                   (void)USBD_LL_ClearStallEP(pdev, ep_addr);
 593              		.loc 2 285 25
 594 0124 BB7B     		ldrb	r3, [r7, #14]	@ zero_extendqisi2
 595 0126 1946     		mov	r1, r3
 596 0128 7868     		ldr	r0, [r7, #4]
 597 012a FFF7FEFF 		bl	USBD_LL_ClearStallEP
 598              	.L53:
 286:Middlewares/ST/STM32_USB_Device_Library/Core/Src/usbd_ctlreq.c ****                 }
 287:Middlewares/ST/STM32_USB_Device_Library/Core/Src/usbd_ctlreq.c ****                 (void)USBD_CtlSendStatus(pdev);
 599              		.loc 2 287 23
 600 012e 7868     		ldr	r0, [r7, #4]
 601 0130 FFF7FEFF 		bl	USBD_CtlSendStatus
 288:Middlewares/ST/STM32_USB_Device_Library/Core/Src/usbd_ctlreq.c ****                 ret = (USBD_StatusTypeDef)pdev->pClass->Setup(pdev, req);
 602              		.loc 2 288 47
 603 0134 7B68     		ldr	r3, [r7, #4]
 604 0136 D3F8B832 		ldr	r3, [r3, #696]
 605              		.loc 2 288 55
 606 013a 9B68     		ldr	r3, [r3, #8]
 607              		.loc 2 288 43
 608 013c 3968     		ldr	r1, [r7]
 609 013e 7868     		ldr	r0, [r7, #4]
 610 0140 9847     		blx	r3
 611              	.LVL3:
 612 0142 0346     		mov	r3, r0
 613 0144 FB73     		strb	r3, [r7, #15]
 289:Middlewares/ST/STM32_USB_Device_Library/Core/Src/usbd_ctlreq.c ****               }
 290:Middlewares/ST/STM32_USB_Device_Library/Core/Src/usbd_ctlreq.c ****               break;
 614              		.loc 2 290 15
 615 0146 04E0     		b	.L73
 616              	.L71:
 291:Middlewares/ST/STM32_USB_Device_Library/Core/Src/usbd_ctlreq.c **** 
 292:Middlewares/ST/STM32_USB_Device_Library/Core/Src/usbd_ctlreq.c ****             default:
 293:Middlewares/ST/STM32_USB_Device_Library/Core/Src/usbd_ctlreq.c ****               USBD_CtlError(pdev, req);
 617              		.loc 2 293 15
 618 0148 3968     		ldr	r1, [r7]
 619 014a 7868     		ldr	r0, [r7, #4]
 620 014c FFF7FEFF 		bl	USBD_CtlError
 294:Middlewares/ST/STM32_USB_Device_Library/Core/Src/usbd_ctlreq.c ****               break;
 621              		.loc 2 294 15
 622 0150 00E0     		b	.L51
 623              	.L73:
 290:Middlewares/ST/STM32_USB_Device_Library/Core/Src/usbd_ctlreq.c **** 
 624              		.loc 2 290 15
 625 0152 00BF     		nop
 626              	.L51:
 295:Middlewares/ST/STM32_USB_Device_Library/Core/Src/usbd_ctlreq.c ****           }
ARM GAS  /var/folders/vq/qt4vp3kd5rxf7v2b6_fdtdt80000gn/T//ccb7F33r.s 			page 23


 296:Middlewares/ST/STM32_USB_Device_Library/Core/Src/usbd_ctlreq.c ****           break;
 627              		.loc 2 296 11
 628 0154 ABE0     		b	.L45
 629              	.L36:
 297:Middlewares/ST/STM32_USB_Device_Library/Core/Src/usbd_ctlreq.c **** 
 298:Middlewares/ST/STM32_USB_Device_Library/Core/Src/usbd_ctlreq.c ****         case USB_REQ_GET_STATUS:
 299:Middlewares/ST/STM32_USB_Device_Library/Core/Src/usbd_ctlreq.c ****           switch (pdev->dev_state)
 630              		.loc 2 299 23 discriminator 1
 631 0156 7B68     		ldr	r3, [r7, #4]
 632 0158 93F89C32 		ldrb	r3, [r3, #668]
 633 015c DBB2     		uxtb	r3, r3
 634 015e 022B     		cmp	r3, #2
 635 0160 02D0     		beq	.L54
 636 0162 032B     		cmp	r3, #3
 637 0164 32D0     		beq	.L55
 638 0166 97E0     		b	.L72
 639              	.L54:
 300:Middlewares/ST/STM32_USB_Device_Library/Core/Src/usbd_ctlreq.c ****           {
 301:Middlewares/ST/STM32_USB_Device_Library/Core/Src/usbd_ctlreq.c ****             case USBD_STATE_ADDRESSED:
 302:Middlewares/ST/STM32_USB_Device_Library/Core/Src/usbd_ctlreq.c ****               if ((ep_addr != 0x00U) && (ep_addr != 0x80U))
 640              		.loc 2 302 18
 641 0168 BB7B     		ldrb	r3, [r7, #14]	@ zero_extendqisi2
 642 016a 002B     		cmp	r3, #0
 643 016c 07D0     		beq	.L57
 644              		.loc 2 302 38 discriminator 1
 645 016e BB7B     		ldrb	r3, [r7, #14]	@ zero_extendqisi2
 646 0170 802B     		cmp	r3, #128
 647 0172 04D0     		beq	.L57
 303:Middlewares/ST/STM32_USB_Device_Library/Core/Src/usbd_ctlreq.c ****               {
 304:Middlewares/ST/STM32_USB_Device_Library/Core/Src/usbd_ctlreq.c ****                 USBD_CtlError(pdev, req);
 648              		.loc 2 304 17
 649 0174 3968     		ldr	r1, [r7]
 650 0176 7868     		ldr	r0, [r7, #4]
 651 0178 FFF7FEFF 		bl	USBD_CtlError
 305:Middlewares/ST/STM32_USB_Device_Library/Core/Src/usbd_ctlreq.c ****                 break;
 652              		.loc 2 305 17
 653 017c 91E0     		b	.L58
 654              	.L57:
 306:Middlewares/ST/STM32_USB_Device_Library/Core/Src/usbd_ctlreq.c ****               }
 307:Middlewares/ST/STM32_USB_Device_Library/Core/Src/usbd_ctlreq.c ****               pep = ((ep_addr & 0x80U) == 0x80U) ? &pdev->ep_in[ep_addr & 0x7FU] : \
 655              		.loc 2 307 40
 656 017e 97F90E30 		ldrsb	r3, [r7, #14]
 657              		.loc 2 307 82
 658 0182 002B     		cmp	r3, #0
 659 0184 0BDA     		bge	.L59
 660              		.loc 2 307 73 discriminator 1
 661 0186 BB7B     		ldrb	r3, [r7, #14]	@ zero_extendqisi2
 662 0188 03F07F02 		and	r2, r3, #127
 663              		.loc 2 307 82 discriminator 1
 664 018c 1346     		mov	r3, r2
 665 018e 9B00     		lsls	r3, r3, #2
 666 0190 1344     		add	r3, r3, r2
 667 0192 9B00     		lsls	r3, r3, #2
 668 0194 1033     		adds	r3, r3, #16
 669 0196 7A68     		ldr	r2, [r7, #4]
 670 0198 1344     		add	r3, r3, r2
 671 019a 0433     		adds	r3, r3, #4
ARM GAS  /var/folders/vq/qt4vp3kd5rxf7v2b6_fdtdt80000gn/T//ccb7F33r.s 			page 24


 672 019c 0BE0     		b	.L60
 673              	.L59:
 308:Middlewares/ST/STM32_USB_Device_Library/Core/Src/usbd_ctlreq.c ****                     &pdev->ep_out[ep_addr & 0x7FU];
 674              		.loc 2 308 43 discriminator 2
 675 019e BB7B     		ldrb	r3, [r7, #14]	@ zero_extendqisi2
 676 01a0 03F07F02 		and	r2, r3, #127
 307:Middlewares/ST/STM32_USB_Device_Library/Core/Src/usbd_ctlreq.c ****                     &pdev->ep_out[ep_addr & 0x7FU];
 677              		.loc 2 307 82 discriminator 2
 678 01a4 1346     		mov	r3, r2
 679 01a6 9B00     		lsls	r3, r3, #2
 680 01a8 1344     		add	r3, r3, r2
 681 01aa 9B00     		lsls	r3, r3, #2
 682 01ac 03F5A873 		add	r3, r3, #336
 683 01b0 7A68     		ldr	r2, [r7, #4]
 684 01b2 1344     		add	r3, r3, r2
 685 01b4 0433     		adds	r3, r3, #4
 686              	.L60:
 307:Middlewares/ST/STM32_USB_Device_Library/Core/Src/usbd_ctlreq.c ****                     &pdev->ep_out[ep_addr & 0x7FU];
 687              		.loc 2 307 19 discriminator 4
 688 01b6 BB60     		str	r3, [r7, #8]
 309:Middlewares/ST/STM32_USB_Device_Library/Core/Src/usbd_ctlreq.c **** 
 310:Middlewares/ST/STM32_USB_Device_Library/Core/Src/usbd_ctlreq.c ****               pep->status = 0x0000U;
 689              		.loc 2 310 27 discriminator 4
 690 01b8 BB68     		ldr	r3, [r7, #8]
 691 01ba 0022     		movs	r2, #0
 692 01bc 1A60     		str	r2, [r3]
 311:Middlewares/ST/STM32_USB_Device_Library/Core/Src/usbd_ctlreq.c **** 
 312:Middlewares/ST/STM32_USB_Device_Library/Core/Src/usbd_ctlreq.c ****               (void)USBD_CtlSendData(pdev, (uint8_t *)&pep->status, 2U);
 693              		.loc 2 312 55 discriminator 4
 694 01be BB68     		ldr	r3, [r7, #8]
 695              		.loc 2 312 21 discriminator 4
 696 01c0 0222     		movs	r2, #2
 697 01c2 1946     		mov	r1, r3
 698 01c4 7868     		ldr	r0, [r7, #4]
 699 01c6 FFF7FEFF 		bl	USBD_CtlSendData
 313:Middlewares/ST/STM32_USB_Device_Library/Core/Src/usbd_ctlreq.c ****               break;
 700              		.loc 2 313 15 discriminator 4
 701 01ca 6AE0     		b	.L58
 702              	.L55:
 314:Middlewares/ST/STM32_USB_Device_Library/Core/Src/usbd_ctlreq.c **** 
 315:Middlewares/ST/STM32_USB_Device_Library/Core/Src/usbd_ctlreq.c ****             case USBD_STATE_CONFIGURED:
 316:Middlewares/ST/STM32_USB_Device_Library/Core/Src/usbd_ctlreq.c ****               if ((ep_addr & 0x80U) == 0x80U)
 703              		.loc 2 316 37
 704 01cc 97F90E30 		ldrsb	r3, [r7, #14]
 705              		.loc 2 316 18
 706 01d0 002B     		cmp	r3, #0
 707 01d2 11DA     		bge	.L61
 317:Middlewares/ST/STM32_USB_Device_Library/Core/Src/usbd_ctlreq.c ****               {
 318:Middlewares/ST/STM32_USB_Device_Library/Core/Src/usbd_ctlreq.c ****                 if (pdev->ep_in[ep_addr & 0xFU].is_used == 0U)
 708              		.loc 2 318 41
 709 01d4 BB7B     		ldrb	r3, [r7, #14]	@ zero_extendqisi2
 710 01d6 03F00F02 		and	r2, r3, #15
 711              		.loc 2 318 48
 712 01da 7968     		ldr	r1, [r7, #4]
 713 01dc 1346     		mov	r3, r2
 714 01de 9B00     		lsls	r3, r3, #2
 715 01e0 1344     		add	r3, r3, r2
ARM GAS  /var/folders/vq/qt4vp3kd5rxf7v2b6_fdtdt80000gn/T//ccb7F33r.s 			page 25


 716 01e2 9B00     		lsls	r3, r3, #2
 717 01e4 0B44     		add	r3, r3, r1
 718 01e6 2433     		adds	r3, r3, #36
 719 01e8 1B88     		ldrh	r3, [r3]
 720              		.loc 2 318 20
 721 01ea 002B     		cmp	r3, #0
 722 01ec 17D1     		bne	.L62
 319:Middlewares/ST/STM32_USB_Device_Library/Core/Src/usbd_ctlreq.c ****                 {
 320:Middlewares/ST/STM32_USB_Device_Library/Core/Src/usbd_ctlreq.c ****                   USBD_CtlError(pdev, req);
 723              		.loc 2 320 19
 724 01ee 3968     		ldr	r1, [r7]
 725 01f0 7868     		ldr	r0, [r7, #4]
 726 01f2 FFF7FEFF 		bl	USBD_CtlError
 321:Middlewares/ST/STM32_USB_Device_Library/Core/Src/usbd_ctlreq.c ****                   break;
 727              		.loc 2 321 19
 728 01f6 54E0     		b	.L58
 729              	.L61:
 322:Middlewares/ST/STM32_USB_Device_Library/Core/Src/usbd_ctlreq.c ****                 }
 323:Middlewares/ST/STM32_USB_Device_Library/Core/Src/usbd_ctlreq.c ****               }
 324:Middlewares/ST/STM32_USB_Device_Library/Core/Src/usbd_ctlreq.c ****               else
 325:Middlewares/ST/STM32_USB_Device_Library/Core/Src/usbd_ctlreq.c ****               {
 326:Middlewares/ST/STM32_USB_Device_Library/Core/Src/usbd_ctlreq.c ****                 if (pdev->ep_out[ep_addr & 0xFU].is_used == 0U)
 730              		.loc 2 326 42
 731 01f8 BB7B     		ldrb	r3, [r7, #14]	@ zero_extendqisi2
 732 01fa 03F00F02 		and	r2, r3, #15
 733              		.loc 2 326 49
 734 01fe 7968     		ldr	r1, [r7, #4]
 735 0200 1346     		mov	r3, r2
 736 0202 9B00     		lsls	r3, r3, #2
 737 0204 1344     		add	r3, r3, r2
 738 0206 9B00     		lsls	r3, r3, #2
 739 0208 0B44     		add	r3, r3, r1
 740 020a 03F5B273 		add	r3, r3, #356
 741 020e 1B88     		ldrh	r3, [r3]
 742              		.loc 2 326 20
 743 0210 002B     		cmp	r3, #0
 744 0212 04D1     		bne	.L62
 327:Middlewares/ST/STM32_USB_Device_Library/Core/Src/usbd_ctlreq.c ****                 {
 328:Middlewares/ST/STM32_USB_Device_Library/Core/Src/usbd_ctlreq.c ****                   USBD_CtlError(pdev, req);
 745              		.loc 2 328 19
 746 0214 3968     		ldr	r1, [r7]
 747 0216 7868     		ldr	r0, [r7, #4]
 748 0218 FFF7FEFF 		bl	USBD_CtlError
 329:Middlewares/ST/STM32_USB_Device_Library/Core/Src/usbd_ctlreq.c ****                   break;
 749              		.loc 2 329 19
 750 021c 41E0     		b	.L58
 751              	.L62:
 330:Middlewares/ST/STM32_USB_Device_Library/Core/Src/usbd_ctlreq.c ****                 }
 331:Middlewares/ST/STM32_USB_Device_Library/Core/Src/usbd_ctlreq.c ****               }
 332:Middlewares/ST/STM32_USB_Device_Library/Core/Src/usbd_ctlreq.c **** 
 333:Middlewares/ST/STM32_USB_Device_Library/Core/Src/usbd_ctlreq.c ****               pep = ((ep_addr & 0x80U) == 0x80U) ? &pdev->ep_in[ep_addr & 0x7FU] : \
 752              		.loc 2 333 40
 753 021e 97F90E30 		ldrsb	r3, [r7, #14]
 754              		.loc 2 333 82
 755 0222 002B     		cmp	r3, #0
 756 0224 0BDA     		bge	.L63
 757              		.loc 2 333 73 discriminator 1
ARM GAS  /var/folders/vq/qt4vp3kd5rxf7v2b6_fdtdt80000gn/T//ccb7F33r.s 			page 26


 758 0226 BB7B     		ldrb	r3, [r7, #14]	@ zero_extendqisi2
 759 0228 03F07F02 		and	r2, r3, #127
 760              		.loc 2 333 82 discriminator 1
 761 022c 1346     		mov	r3, r2
 762 022e 9B00     		lsls	r3, r3, #2
 763 0230 1344     		add	r3, r3, r2
 764 0232 9B00     		lsls	r3, r3, #2
 765 0234 1033     		adds	r3, r3, #16
 766 0236 7A68     		ldr	r2, [r7, #4]
 767 0238 1344     		add	r3, r3, r2
 768 023a 0433     		adds	r3, r3, #4
 769 023c 0BE0     		b	.L64
 770              	.L63:
 334:Middlewares/ST/STM32_USB_Device_Library/Core/Src/usbd_ctlreq.c ****                     &pdev->ep_out[ep_addr & 0x7FU];
 771              		.loc 2 334 43 discriminator 2
 772 023e BB7B     		ldrb	r3, [r7, #14]	@ zero_extendqisi2
 773 0240 03F07F02 		and	r2, r3, #127
 333:Middlewares/ST/STM32_USB_Device_Library/Core/Src/usbd_ctlreq.c ****                     &pdev->ep_out[ep_addr & 0x7FU];
 774              		.loc 2 333 82 discriminator 2
 775 0244 1346     		mov	r3, r2
 776 0246 9B00     		lsls	r3, r3, #2
 777 0248 1344     		add	r3, r3, r2
 778 024a 9B00     		lsls	r3, r3, #2
 779 024c 03F5A873 		add	r3, r3, #336
 780 0250 7A68     		ldr	r2, [r7, #4]
 781 0252 1344     		add	r3, r3, r2
 782 0254 0433     		adds	r3, r3, #4
 783              	.L64:
 333:Middlewares/ST/STM32_USB_Device_Library/Core/Src/usbd_ctlreq.c ****                     &pdev->ep_out[ep_addr & 0x7FU];
 784              		.loc 2 333 19 discriminator 4
 785 0256 BB60     		str	r3, [r7, #8]
 335:Middlewares/ST/STM32_USB_Device_Library/Core/Src/usbd_ctlreq.c **** 
 336:Middlewares/ST/STM32_USB_Device_Library/Core/Src/usbd_ctlreq.c ****               if ((ep_addr == 0x00U) || (ep_addr == 0x80U))
 786              		.loc 2 336 18 discriminator 4
 787 0258 BB7B     		ldrb	r3, [r7, #14]	@ zero_extendqisi2
 788 025a 002B     		cmp	r3, #0
 789 025c 02D0     		beq	.L65
 790              		.loc 2 336 38 discriminator 1
 791 025e BB7B     		ldrb	r3, [r7, #14]	@ zero_extendqisi2
 792 0260 802B     		cmp	r3, #128
 793 0262 03D1     		bne	.L66
 794              	.L65:
 337:Middlewares/ST/STM32_USB_Device_Library/Core/Src/usbd_ctlreq.c ****               {
 338:Middlewares/ST/STM32_USB_Device_Library/Core/Src/usbd_ctlreq.c ****                 pep->status = 0x0000U;
 795              		.loc 2 338 29
 796 0264 BB68     		ldr	r3, [r7, #8]
 797 0266 0022     		movs	r2, #0
 798 0268 1A60     		str	r2, [r3]
 799 026a 0EE0     		b	.L67
 800              	.L66:
 339:Middlewares/ST/STM32_USB_Device_Library/Core/Src/usbd_ctlreq.c ****               }
 340:Middlewares/ST/STM32_USB_Device_Library/Core/Src/usbd_ctlreq.c ****               else if (USBD_LL_IsStallEP(pdev, ep_addr) != 0U)
 801              		.loc 2 340 24
 802 026c BB7B     		ldrb	r3, [r7, #14]	@ zero_extendqisi2
 803 026e 1946     		mov	r1, r3
 804 0270 7868     		ldr	r0, [r7, #4]
 805 0272 FFF7FEFF 		bl	USBD_LL_IsStallEP
ARM GAS  /var/folders/vq/qt4vp3kd5rxf7v2b6_fdtdt80000gn/T//ccb7F33r.s 			page 27


 806 0276 0346     		mov	r3, r0
 807              		.loc 2 340 23
 808 0278 002B     		cmp	r3, #0
 809 027a 03D0     		beq	.L68
 341:Middlewares/ST/STM32_USB_Device_Library/Core/Src/usbd_ctlreq.c ****               {
 342:Middlewares/ST/STM32_USB_Device_Library/Core/Src/usbd_ctlreq.c ****                 pep->status = 0x0001U;
 810              		.loc 2 342 29
 811 027c BB68     		ldr	r3, [r7, #8]
 812 027e 0122     		movs	r2, #1
 813 0280 1A60     		str	r2, [r3]
 814 0282 02E0     		b	.L67
 815              	.L68:
 343:Middlewares/ST/STM32_USB_Device_Library/Core/Src/usbd_ctlreq.c ****               }
 344:Middlewares/ST/STM32_USB_Device_Library/Core/Src/usbd_ctlreq.c ****               else
 345:Middlewares/ST/STM32_USB_Device_Library/Core/Src/usbd_ctlreq.c ****               {
 346:Middlewares/ST/STM32_USB_Device_Library/Core/Src/usbd_ctlreq.c ****                 pep->status = 0x0000U;
 816              		.loc 2 346 29
 817 0284 BB68     		ldr	r3, [r7, #8]
 818 0286 0022     		movs	r2, #0
 819 0288 1A60     		str	r2, [r3]
 820              	.L67:
 347:Middlewares/ST/STM32_USB_Device_Library/Core/Src/usbd_ctlreq.c ****               }
 348:Middlewares/ST/STM32_USB_Device_Library/Core/Src/usbd_ctlreq.c **** 
 349:Middlewares/ST/STM32_USB_Device_Library/Core/Src/usbd_ctlreq.c ****               (void)USBD_CtlSendData(pdev, (uint8_t *)&pep->status, 2U);
 821              		.loc 2 349 55
 822 028a BB68     		ldr	r3, [r7, #8]
 823              		.loc 2 349 21
 824 028c 0222     		movs	r2, #2
 825 028e 1946     		mov	r1, r3
 826 0290 7868     		ldr	r0, [r7, #4]
 827 0292 FFF7FEFF 		bl	USBD_CtlSendData
 350:Middlewares/ST/STM32_USB_Device_Library/Core/Src/usbd_ctlreq.c ****               break;
 828              		.loc 2 350 15
 829 0296 04E0     		b	.L58
 830              	.L72:
 351:Middlewares/ST/STM32_USB_Device_Library/Core/Src/usbd_ctlreq.c **** 
 352:Middlewares/ST/STM32_USB_Device_Library/Core/Src/usbd_ctlreq.c ****             default:
 353:Middlewares/ST/STM32_USB_Device_Library/Core/Src/usbd_ctlreq.c ****               USBD_CtlError(pdev, req);
 831              		.loc 2 353 15
 832 0298 3968     		ldr	r1, [r7]
 833 029a 7868     		ldr	r0, [r7, #4]
 834 029c FFF7FEFF 		bl	USBD_CtlError
 354:Middlewares/ST/STM32_USB_Device_Library/Core/Src/usbd_ctlreq.c ****               break;
 835              		.loc 2 354 15
 836 02a0 00BF     		nop
 837              	.L58:
 355:Middlewares/ST/STM32_USB_Device_Library/Core/Src/usbd_ctlreq.c ****           }
 356:Middlewares/ST/STM32_USB_Device_Library/Core/Src/usbd_ctlreq.c ****           break;
 838              		.loc 2 356 11
 839 02a2 04E0     		b	.L45
 840              	.L35:
 357:Middlewares/ST/STM32_USB_Device_Library/Core/Src/usbd_ctlreq.c **** 
 358:Middlewares/ST/STM32_USB_Device_Library/Core/Src/usbd_ctlreq.c ****         default:
 359:Middlewares/ST/STM32_USB_Device_Library/Core/Src/usbd_ctlreq.c ****           USBD_CtlError(pdev, req);
 841              		.loc 2 359 11
 842 02a4 3968     		ldr	r1, [r7]
 843 02a6 7868     		ldr	r0, [r7, #4]
ARM GAS  /var/folders/vq/qt4vp3kd5rxf7v2b6_fdtdt80000gn/T//ccb7F33r.s 			page 28


 844 02a8 FFF7FEFF 		bl	USBD_CtlError
 360:Middlewares/ST/STM32_USB_Device_Library/Core/Src/usbd_ctlreq.c ****           break;
 845              		.loc 2 360 11
 846 02ac 00BF     		nop
 847              	.L45:
 361:Middlewares/ST/STM32_USB_Device_Library/Core/Src/usbd_ctlreq.c ****       }
 362:Middlewares/ST/STM32_USB_Device_Library/Core/Src/usbd_ctlreq.c ****       break;
 848              		.loc 2 362 7
 849 02ae 04E0     		b	.L33
 850              	.L31:
 363:Middlewares/ST/STM32_USB_Device_Library/Core/Src/usbd_ctlreq.c **** 
 364:Middlewares/ST/STM32_USB_Device_Library/Core/Src/usbd_ctlreq.c ****     default:
 365:Middlewares/ST/STM32_USB_Device_Library/Core/Src/usbd_ctlreq.c ****       USBD_CtlError(pdev, req);
 851              		.loc 2 365 7
 852 02b0 3968     		ldr	r1, [r7]
 853 02b2 7868     		ldr	r0, [r7, #4]
 854 02b4 FFF7FEFF 		bl	USBD_CtlError
 366:Middlewares/ST/STM32_USB_Device_Library/Core/Src/usbd_ctlreq.c ****       break;
 855              		.loc 2 366 7
 856 02b8 00BF     		nop
 857              	.L33:
 367:Middlewares/ST/STM32_USB_Device_Library/Core/Src/usbd_ctlreq.c ****   }
 368:Middlewares/ST/STM32_USB_Device_Library/Core/Src/usbd_ctlreq.c **** 
 369:Middlewares/ST/STM32_USB_Device_Library/Core/Src/usbd_ctlreq.c ****   return ret;
 858              		.loc 2 369 10
 859 02ba FB7B     		ldrb	r3, [r7, #15]	@ zero_extendqisi2
 370:Middlewares/ST/STM32_USB_Device_Library/Core/Src/usbd_ctlreq.c **** }
 860              		.loc 2 370 1
 861 02bc 1846     		mov	r0, r3
 862 02be 1037     		adds	r7, r7, #16
 863              	.LCFI19:
 864              		.cfi_def_cfa_offset 8
 865 02c0 BD46     		mov	sp, r7
 866              	.LCFI20:
 867              		.cfi_def_cfa_register 13
 868              		@ sp needed
 869 02c2 80BD     		pop	{r7, pc}
 870              		.cfi_endproc
 871              	.LFE136:
 873              		.section	.text.USBD_GetDescriptor,"ax",%progbits
 874              		.align	1
 875              		.syntax unified
 876              		.thumb
 877              		.thumb_func
 878              		.fpu fpv4-sp-d16
 880              	USBD_GetDescriptor:
 881              	.LFB137:
 371:Middlewares/ST/STM32_USB_Device_Library/Core/Src/usbd_ctlreq.c **** 
 372:Middlewares/ST/STM32_USB_Device_Library/Core/Src/usbd_ctlreq.c **** 
 373:Middlewares/ST/STM32_USB_Device_Library/Core/Src/usbd_ctlreq.c **** /**
 374:Middlewares/ST/STM32_USB_Device_Library/Core/Src/usbd_ctlreq.c ****   * @brief  USBD_GetDescriptor
 375:Middlewares/ST/STM32_USB_Device_Library/Core/Src/usbd_ctlreq.c ****   *         Handle Get Descriptor requests
 376:Middlewares/ST/STM32_USB_Device_Library/Core/Src/usbd_ctlreq.c ****   * @param  pdev: device instance
 377:Middlewares/ST/STM32_USB_Device_Library/Core/Src/usbd_ctlreq.c ****   * @param  req: usb request
 378:Middlewares/ST/STM32_USB_Device_Library/Core/Src/usbd_ctlreq.c ****   * @retval status
 379:Middlewares/ST/STM32_USB_Device_Library/Core/Src/usbd_ctlreq.c ****   */
 380:Middlewares/ST/STM32_USB_Device_Library/Core/Src/usbd_ctlreq.c **** static void USBD_GetDescriptor(USBD_HandleTypeDef *pdev, USBD_SetupReqTypedef *req)
ARM GAS  /var/folders/vq/qt4vp3kd5rxf7v2b6_fdtdt80000gn/T//ccb7F33r.s 			page 29


 381:Middlewares/ST/STM32_USB_Device_Library/Core/Src/usbd_ctlreq.c **** {
 882              		.loc 2 381 1
 883              		.cfi_startproc
 884              		@ args = 0, pretend = 0, frame = 16
 885              		@ frame_needed = 1, uses_anonymous_args = 0
 886 0000 80B5     		push	{r7, lr}
 887              	.LCFI21:
 888              		.cfi_def_cfa_offset 8
 889              		.cfi_offset 7, -8
 890              		.cfi_offset 14, -4
 891 0002 84B0     		sub	sp, sp, #16
 892              	.LCFI22:
 893              		.cfi_def_cfa_offset 24
 894 0004 00AF     		add	r7, sp, #0
 895              	.LCFI23:
 896              		.cfi_def_cfa_register 7
 897 0006 7860     		str	r0, [r7, #4]
 898 0008 3960     		str	r1, [r7]
 382:Middlewares/ST/STM32_USB_Device_Library/Core/Src/usbd_ctlreq.c ****   uint16_t len = 0U;
 899              		.loc 2 382 12
 900 000a 0023     		movs	r3, #0
 901 000c 3B81     		strh	r3, [r7, #8]	@ movhi
 383:Middlewares/ST/STM32_USB_Device_Library/Core/Src/usbd_ctlreq.c ****   uint8_t *pbuf = NULL;
 902              		.loc 2 383 12
 903 000e 0023     		movs	r3, #0
 904 0010 FB60     		str	r3, [r7, #12]
 384:Middlewares/ST/STM32_USB_Device_Library/Core/Src/usbd_ctlreq.c ****   uint8_t err = 0U;
 905              		.loc 2 384 11
 906 0012 0023     		movs	r3, #0
 907 0014 FB72     		strb	r3, [r7, #11]
 385:Middlewares/ST/STM32_USB_Device_Library/Core/Src/usbd_ctlreq.c **** 
 386:Middlewares/ST/STM32_USB_Device_Library/Core/Src/usbd_ctlreq.c ****   switch (req->wValue >> 8)
 908              		.loc 2 386 14
 909 0016 3B68     		ldr	r3, [r7]
 910 0018 5B88     		ldrh	r3, [r3, #2]
 911              		.loc 2 386 23
 912 001a 1B0A     		lsrs	r3, r3, #8
 913 001c 9BB2     		uxth	r3, r3
 914 001e 013B     		subs	r3, r3, #1
 915 0020 062B     		cmp	r3, #6
 916 0022 00F22881 		bhi	.L75
 917 0026 01A2     		adr	r2, .L77
 918 0028 52F823F0 		ldr	pc, [r2, r3, lsl #2]
 919              		.p2align 2
 920              	.L77:
 921 002c 49000000 		.word	.L81+1
 922 0030 61000000 		.word	.L80+1
 923 0034 A1000000 		.word	.L79+1
 924 0038 77020000 		.word	.L75+1
 925 003c 77020000 		.word	.L75+1
 926 0040 17020000 		.word	.L78+1
 927 0044 43020000 		.word	.L76+1
 928              		.p2align 1
 929              	.L81:
 387:Middlewares/ST/STM32_USB_Device_Library/Core/Src/usbd_ctlreq.c ****   {
 388:Middlewares/ST/STM32_USB_Device_Library/Core/Src/usbd_ctlreq.c **** #if ((USBD_LPM_ENABLED == 1U) || (USBD_CLASS_BOS_ENABLED == 1U))
 389:Middlewares/ST/STM32_USB_Device_Library/Core/Src/usbd_ctlreq.c ****     case USB_DESC_TYPE_BOS:
ARM GAS  /var/folders/vq/qt4vp3kd5rxf7v2b6_fdtdt80000gn/T//ccb7F33r.s 			page 30


 390:Middlewares/ST/STM32_USB_Device_Library/Core/Src/usbd_ctlreq.c ****       if (pdev->pDesc->GetBOSDescriptor != NULL)
 391:Middlewares/ST/STM32_USB_Device_Library/Core/Src/usbd_ctlreq.c ****       {
 392:Middlewares/ST/STM32_USB_Device_Library/Core/Src/usbd_ctlreq.c ****         pbuf = pdev->pDesc->GetBOSDescriptor(pdev->dev_speed, &len);
 393:Middlewares/ST/STM32_USB_Device_Library/Core/Src/usbd_ctlreq.c ****       }
 394:Middlewares/ST/STM32_USB_Device_Library/Core/Src/usbd_ctlreq.c ****       else
 395:Middlewares/ST/STM32_USB_Device_Library/Core/Src/usbd_ctlreq.c ****       {
 396:Middlewares/ST/STM32_USB_Device_Library/Core/Src/usbd_ctlreq.c ****         USBD_CtlError(pdev, req);
 397:Middlewares/ST/STM32_USB_Device_Library/Core/Src/usbd_ctlreq.c ****         err++;
 398:Middlewares/ST/STM32_USB_Device_Library/Core/Src/usbd_ctlreq.c ****       }
 399:Middlewares/ST/STM32_USB_Device_Library/Core/Src/usbd_ctlreq.c ****       break;
 400:Middlewares/ST/STM32_USB_Device_Library/Core/Src/usbd_ctlreq.c **** #endif
 401:Middlewares/ST/STM32_USB_Device_Library/Core/Src/usbd_ctlreq.c ****     case USB_DESC_TYPE_DEVICE:
 402:Middlewares/ST/STM32_USB_Device_Library/Core/Src/usbd_ctlreq.c ****       pbuf = pdev->pDesc->GetDeviceDescriptor(pdev->dev_speed, &len);
 930              		.loc 2 402 18
 931 0048 7B68     		ldr	r3, [r7, #4]
 932 004a D3F8B432 		ldr	r3, [r3, #692]
 933              		.loc 2 402 25
 934 004e 1B68     		ldr	r3, [r3]
 935              		.loc 2 402 14
 936 0050 7A68     		ldr	r2, [r7, #4]
 937 0052 127C     		ldrb	r2, [r2, #16]	@ zero_extendqisi2
 938 0054 07F10801 		add	r1, r7, #8
 939 0058 1046     		mov	r0, r2
 940 005a 9847     		blx	r3
 941              	.LVL4:
 942 005c F860     		str	r0, [r7, #12]
 403:Middlewares/ST/STM32_USB_Device_Library/Core/Src/usbd_ctlreq.c ****       break;
 943              		.loc 2 403 7
 944 005e 12E1     		b	.L82
 945              	.L80:
 404:Middlewares/ST/STM32_USB_Device_Library/Core/Src/usbd_ctlreq.c **** 
 405:Middlewares/ST/STM32_USB_Device_Library/Core/Src/usbd_ctlreq.c ****     case USB_DESC_TYPE_CONFIGURATION:
 406:Middlewares/ST/STM32_USB_Device_Library/Core/Src/usbd_ctlreq.c ****       if (pdev->dev_speed == USBD_SPEED_HIGH)
 946              		.loc 2 406 15
 947 0060 7B68     		ldr	r3, [r7, #4]
 948 0062 1B7C     		ldrb	r3, [r3, #16]	@ zero_extendqisi2
 949              		.loc 2 406 10
 950 0064 002B     		cmp	r3, #0
 951 0066 0DD1     		bne	.L83
 407:Middlewares/ST/STM32_USB_Device_Library/Core/Src/usbd_ctlreq.c ****       {
 408:Middlewares/ST/STM32_USB_Device_Library/Core/Src/usbd_ctlreq.c ****         pbuf = pdev->pClass->GetHSConfigDescriptor(&len);
 952              		.loc 2 408 20
 953 0068 7B68     		ldr	r3, [r7, #4]
 954 006a D3F8B832 		ldr	r3, [r3, #696]
 955              		.loc 2 408 28
 956 006e 9B6A     		ldr	r3, [r3, #40]
 957              		.loc 2 408 16
 958 0070 07F10802 		add	r2, r7, #8
 959 0074 1046     		mov	r0, r2
 960 0076 9847     		blx	r3
 961              	.LVL5:
 962 0078 F860     		str	r0, [r7, #12]
 409:Middlewares/ST/STM32_USB_Device_Library/Core/Src/usbd_ctlreq.c ****         pbuf[1] = USB_DESC_TYPE_CONFIGURATION;
 963              		.loc 2 409 13
 964 007a FB68     		ldr	r3, [r7, #12]
 965 007c 0133     		adds	r3, r3, #1
 966              		.loc 2 409 17
ARM GAS  /var/folders/vq/qt4vp3kd5rxf7v2b6_fdtdt80000gn/T//ccb7F33r.s 			page 31


 967 007e 0222     		movs	r2, #2
 968 0080 1A70     		strb	r2, [r3]
 410:Middlewares/ST/STM32_USB_Device_Library/Core/Src/usbd_ctlreq.c ****       }
 411:Middlewares/ST/STM32_USB_Device_Library/Core/Src/usbd_ctlreq.c ****       else
 412:Middlewares/ST/STM32_USB_Device_Library/Core/Src/usbd_ctlreq.c ****       {
 413:Middlewares/ST/STM32_USB_Device_Library/Core/Src/usbd_ctlreq.c ****         pbuf = pdev->pClass->GetFSConfigDescriptor(&len);
 414:Middlewares/ST/STM32_USB_Device_Library/Core/Src/usbd_ctlreq.c ****         pbuf[1] = USB_DESC_TYPE_CONFIGURATION;
 415:Middlewares/ST/STM32_USB_Device_Library/Core/Src/usbd_ctlreq.c ****       }
 416:Middlewares/ST/STM32_USB_Device_Library/Core/Src/usbd_ctlreq.c ****       break;
 969              		.loc 2 416 7
 970 0082 00E1     		b	.L82
 971              	.L83:
 413:Middlewares/ST/STM32_USB_Device_Library/Core/Src/usbd_ctlreq.c ****         pbuf[1] = USB_DESC_TYPE_CONFIGURATION;
 972              		.loc 2 413 20
 973 0084 7B68     		ldr	r3, [r7, #4]
 974 0086 D3F8B832 		ldr	r3, [r3, #696]
 413:Middlewares/ST/STM32_USB_Device_Library/Core/Src/usbd_ctlreq.c ****         pbuf[1] = USB_DESC_TYPE_CONFIGURATION;
 975              		.loc 2 413 28
 976 008a DB6A     		ldr	r3, [r3, #44]
 413:Middlewares/ST/STM32_USB_Device_Library/Core/Src/usbd_ctlreq.c ****         pbuf[1] = USB_DESC_TYPE_CONFIGURATION;
 977              		.loc 2 413 16
 978 008c 07F10802 		add	r2, r7, #8
 979 0090 1046     		mov	r0, r2
 980 0092 9847     		blx	r3
 981              	.LVL6:
 982 0094 F860     		str	r0, [r7, #12]
 414:Middlewares/ST/STM32_USB_Device_Library/Core/Src/usbd_ctlreq.c ****       }
 983              		.loc 2 414 13
 984 0096 FB68     		ldr	r3, [r7, #12]
 985 0098 0133     		adds	r3, r3, #1
 414:Middlewares/ST/STM32_USB_Device_Library/Core/Src/usbd_ctlreq.c ****       }
 986              		.loc 2 414 17
 987 009a 0222     		movs	r2, #2
 988 009c 1A70     		strb	r2, [r3]
 989              		.loc 2 416 7
 990 009e F2E0     		b	.L82
 991              	.L79:
 417:Middlewares/ST/STM32_USB_Device_Library/Core/Src/usbd_ctlreq.c **** 
 418:Middlewares/ST/STM32_USB_Device_Library/Core/Src/usbd_ctlreq.c ****     case USB_DESC_TYPE_STRING:
 419:Middlewares/ST/STM32_USB_Device_Library/Core/Src/usbd_ctlreq.c ****       switch ((uint8_t)(req->wValue))
 992              		.loc 2 419 28
 993 00a0 3B68     		ldr	r3, [r7]
 994 00a2 5B88     		ldrh	r3, [r3, #2]
 995              		.loc 2 419 15
 996 00a4 DBB2     		uxtb	r3, r3
 997 00a6 052B     		cmp	r3, #5
 998 00a8 00F2AC80 		bhi	.L85
 999 00ac 01A2     		adr	r2, .L87
 1000 00ae 52F823F0 		ldr	pc, [r2, r3, lsl #2]
 1001 00b2 00BF     		.p2align 2
 1002              	.L87:
 1003 00b4 CD000000 		.word	.L92+1
 1004 00b8 01010000 		.word	.L91+1
 1005 00bc 35010000 		.word	.L90+1
 1006 00c0 69010000 		.word	.L89+1
 1007 00c4 9D010000 		.word	.L88+1
 1008 00c8 D1010000 		.word	.L86+1
ARM GAS  /var/folders/vq/qt4vp3kd5rxf7v2b6_fdtdt80000gn/T//ccb7F33r.s 			page 32


 1009              		.p2align 1
 1010              	.L92:
 420:Middlewares/ST/STM32_USB_Device_Library/Core/Src/usbd_ctlreq.c ****       {
 421:Middlewares/ST/STM32_USB_Device_Library/Core/Src/usbd_ctlreq.c ****         case USBD_IDX_LANGID_STR:
 422:Middlewares/ST/STM32_USB_Device_Library/Core/Src/usbd_ctlreq.c ****           if (pdev->pDesc->GetLangIDStrDescriptor != NULL)
 1011              		.loc 2 422 19
 1012 00cc 7B68     		ldr	r3, [r7, #4]
 1013 00ce D3F8B432 		ldr	r3, [r3, #692]
 1014              		.loc 2 422 26
 1015 00d2 5B68     		ldr	r3, [r3, #4]
 1016              		.loc 2 422 14
 1017 00d4 002B     		cmp	r3, #0
 1018 00d6 0BD0     		beq	.L93
 423:Middlewares/ST/STM32_USB_Device_Library/Core/Src/usbd_ctlreq.c ****           {
 424:Middlewares/ST/STM32_USB_Device_Library/Core/Src/usbd_ctlreq.c ****             pbuf = pdev->pDesc->GetLangIDStrDescriptor(pdev->dev_speed, &len);
 1019              		.loc 2 424 24
 1020 00d8 7B68     		ldr	r3, [r7, #4]
 1021 00da D3F8B432 		ldr	r3, [r3, #692]
 1022              		.loc 2 424 31
 1023 00de 5B68     		ldr	r3, [r3, #4]
 1024              		.loc 2 424 20
 1025 00e0 7A68     		ldr	r2, [r7, #4]
 1026 00e2 127C     		ldrb	r2, [r2, #16]	@ zero_extendqisi2
 1027 00e4 07F10801 		add	r1, r7, #8
 1028 00e8 1046     		mov	r0, r2
 1029 00ea 9847     		blx	r3
 1030              	.LVL7:
 1031 00ec F860     		str	r0, [r7, #12]
 425:Middlewares/ST/STM32_USB_Device_Library/Core/Src/usbd_ctlreq.c ****           }
 426:Middlewares/ST/STM32_USB_Device_Library/Core/Src/usbd_ctlreq.c ****           else
 427:Middlewares/ST/STM32_USB_Device_Library/Core/Src/usbd_ctlreq.c ****           {
 428:Middlewares/ST/STM32_USB_Device_Library/Core/Src/usbd_ctlreq.c ****             USBD_CtlError(pdev, req);
 429:Middlewares/ST/STM32_USB_Device_Library/Core/Src/usbd_ctlreq.c ****             err++;
 430:Middlewares/ST/STM32_USB_Device_Library/Core/Src/usbd_ctlreq.c ****           }
 431:Middlewares/ST/STM32_USB_Device_Library/Core/Src/usbd_ctlreq.c ****           break;
 1032              		.loc 2 431 11
 1033 00ee 91E0     		b	.L95
 1034              	.L93:
 428:Middlewares/ST/STM32_USB_Device_Library/Core/Src/usbd_ctlreq.c ****             err++;
 1035              		.loc 2 428 13
 1036 00f0 3968     		ldr	r1, [r7]
 1037 00f2 7868     		ldr	r0, [r7, #4]
 1038 00f4 FFF7FEFF 		bl	USBD_CtlError
 429:Middlewares/ST/STM32_USB_Device_Library/Core/Src/usbd_ctlreq.c ****           }
 1039              		.loc 2 429 16
 1040 00f8 FB7A     		ldrb	r3, [r7, #11]	@ zero_extendqisi2
 1041 00fa 0133     		adds	r3, r3, #1
 1042 00fc FB72     		strb	r3, [r7, #11]
 1043              		.loc 2 431 11
 1044 00fe 89E0     		b	.L95
 1045              	.L91:
 432:Middlewares/ST/STM32_USB_Device_Library/Core/Src/usbd_ctlreq.c **** 
 433:Middlewares/ST/STM32_USB_Device_Library/Core/Src/usbd_ctlreq.c ****         case USBD_IDX_MFC_STR:
 434:Middlewares/ST/STM32_USB_Device_Library/Core/Src/usbd_ctlreq.c ****           if (pdev->pDesc->GetManufacturerStrDescriptor != NULL)
 1046              		.loc 2 434 19
 1047 0100 7B68     		ldr	r3, [r7, #4]
 1048 0102 D3F8B432 		ldr	r3, [r3, #692]
ARM GAS  /var/folders/vq/qt4vp3kd5rxf7v2b6_fdtdt80000gn/T//ccb7F33r.s 			page 33


 1049              		.loc 2 434 26
 1050 0106 9B68     		ldr	r3, [r3, #8]
 1051              		.loc 2 434 14
 1052 0108 002B     		cmp	r3, #0
 1053 010a 0BD0     		beq	.L96
 435:Middlewares/ST/STM32_USB_Device_Library/Core/Src/usbd_ctlreq.c ****           {
 436:Middlewares/ST/STM32_USB_Device_Library/Core/Src/usbd_ctlreq.c ****             pbuf = pdev->pDesc->GetManufacturerStrDescriptor(pdev->dev_speed, &len);
 1054              		.loc 2 436 24
 1055 010c 7B68     		ldr	r3, [r7, #4]
 1056 010e D3F8B432 		ldr	r3, [r3, #692]
 1057              		.loc 2 436 31
 1058 0112 9B68     		ldr	r3, [r3, #8]
 1059              		.loc 2 436 20
 1060 0114 7A68     		ldr	r2, [r7, #4]
 1061 0116 127C     		ldrb	r2, [r2, #16]	@ zero_extendqisi2
 1062 0118 07F10801 		add	r1, r7, #8
 1063 011c 1046     		mov	r0, r2
 1064 011e 9847     		blx	r3
 1065              	.LVL8:
 1066 0120 F860     		str	r0, [r7, #12]
 437:Middlewares/ST/STM32_USB_Device_Library/Core/Src/usbd_ctlreq.c ****           }
 438:Middlewares/ST/STM32_USB_Device_Library/Core/Src/usbd_ctlreq.c ****           else
 439:Middlewares/ST/STM32_USB_Device_Library/Core/Src/usbd_ctlreq.c ****           {
 440:Middlewares/ST/STM32_USB_Device_Library/Core/Src/usbd_ctlreq.c ****             USBD_CtlError(pdev, req);
 441:Middlewares/ST/STM32_USB_Device_Library/Core/Src/usbd_ctlreq.c ****             err++;
 442:Middlewares/ST/STM32_USB_Device_Library/Core/Src/usbd_ctlreq.c ****           }
 443:Middlewares/ST/STM32_USB_Device_Library/Core/Src/usbd_ctlreq.c ****           break;
 1067              		.loc 2 443 11
 1068 0122 77E0     		b	.L95
 1069              	.L96:
 440:Middlewares/ST/STM32_USB_Device_Library/Core/Src/usbd_ctlreq.c ****             err++;
 1070              		.loc 2 440 13
 1071 0124 3968     		ldr	r1, [r7]
 1072 0126 7868     		ldr	r0, [r7, #4]
 1073 0128 FFF7FEFF 		bl	USBD_CtlError
 441:Middlewares/ST/STM32_USB_Device_Library/Core/Src/usbd_ctlreq.c ****           }
 1074              		.loc 2 441 16
 1075 012c FB7A     		ldrb	r3, [r7, #11]	@ zero_extendqisi2
 1076 012e 0133     		adds	r3, r3, #1
 1077 0130 FB72     		strb	r3, [r7, #11]
 1078              		.loc 2 443 11
 1079 0132 6FE0     		b	.L95
 1080              	.L90:
 444:Middlewares/ST/STM32_USB_Device_Library/Core/Src/usbd_ctlreq.c **** 
 445:Middlewares/ST/STM32_USB_Device_Library/Core/Src/usbd_ctlreq.c ****         case USBD_IDX_PRODUCT_STR:
 446:Middlewares/ST/STM32_USB_Device_Library/Core/Src/usbd_ctlreq.c ****           if (pdev->pDesc->GetProductStrDescriptor != NULL)
 1081              		.loc 2 446 19
 1082 0134 7B68     		ldr	r3, [r7, #4]
 1083 0136 D3F8B432 		ldr	r3, [r3, #692]
 1084              		.loc 2 446 26
 1085 013a DB68     		ldr	r3, [r3, #12]
 1086              		.loc 2 446 14
 1087 013c 002B     		cmp	r3, #0
 1088 013e 0BD0     		beq	.L98
 447:Middlewares/ST/STM32_USB_Device_Library/Core/Src/usbd_ctlreq.c ****           {
 448:Middlewares/ST/STM32_USB_Device_Library/Core/Src/usbd_ctlreq.c ****             pbuf = pdev->pDesc->GetProductStrDescriptor(pdev->dev_speed, &len);
 1089              		.loc 2 448 24
ARM GAS  /var/folders/vq/qt4vp3kd5rxf7v2b6_fdtdt80000gn/T//ccb7F33r.s 			page 34


 1090 0140 7B68     		ldr	r3, [r7, #4]
 1091 0142 D3F8B432 		ldr	r3, [r3, #692]
 1092              		.loc 2 448 31
 1093 0146 DB68     		ldr	r3, [r3, #12]
 1094              		.loc 2 448 20
 1095 0148 7A68     		ldr	r2, [r7, #4]
 1096 014a 127C     		ldrb	r2, [r2, #16]	@ zero_extendqisi2
 1097 014c 07F10801 		add	r1, r7, #8
 1098 0150 1046     		mov	r0, r2
 1099 0152 9847     		blx	r3
 1100              	.LVL9:
 1101 0154 F860     		str	r0, [r7, #12]
 449:Middlewares/ST/STM32_USB_Device_Library/Core/Src/usbd_ctlreq.c ****           }
 450:Middlewares/ST/STM32_USB_Device_Library/Core/Src/usbd_ctlreq.c ****           else
 451:Middlewares/ST/STM32_USB_Device_Library/Core/Src/usbd_ctlreq.c ****           {
 452:Middlewares/ST/STM32_USB_Device_Library/Core/Src/usbd_ctlreq.c ****             USBD_CtlError(pdev, req);
 453:Middlewares/ST/STM32_USB_Device_Library/Core/Src/usbd_ctlreq.c ****             err++;
 454:Middlewares/ST/STM32_USB_Device_Library/Core/Src/usbd_ctlreq.c ****           }
 455:Middlewares/ST/STM32_USB_Device_Library/Core/Src/usbd_ctlreq.c ****           break;
 1102              		.loc 2 455 11
 1103 0156 5DE0     		b	.L95
 1104              	.L98:
 452:Middlewares/ST/STM32_USB_Device_Library/Core/Src/usbd_ctlreq.c ****             err++;
 1105              		.loc 2 452 13
 1106 0158 3968     		ldr	r1, [r7]
 1107 015a 7868     		ldr	r0, [r7, #4]
 1108 015c FFF7FEFF 		bl	USBD_CtlError
 453:Middlewares/ST/STM32_USB_Device_Library/Core/Src/usbd_ctlreq.c ****           }
 1109              		.loc 2 453 16
 1110 0160 FB7A     		ldrb	r3, [r7, #11]	@ zero_extendqisi2
 1111 0162 0133     		adds	r3, r3, #1
 1112 0164 FB72     		strb	r3, [r7, #11]
 1113              		.loc 2 455 11
 1114 0166 55E0     		b	.L95
 1115              	.L89:
 456:Middlewares/ST/STM32_USB_Device_Library/Core/Src/usbd_ctlreq.c **** 
 457:Middlewares/ST/STM32_USB_Device_Library/Core/Src/usbd_ctlreq.c ****         case USBD_IDX_SERIAL_STR:
 458:Middlewares/ST/STM32_USB_Device_Library/Core/Src/usbd_ctlreq.c ****           if (pdev->pDesc->GetSerialStrDescriptor != NULL)
 1116              		.loc 2 458 19
 1117 0168 7B68     		ldr	r3, [r7, #4]
 1118 016a D3F8B432 		ldr	r3, [r3, #692]
 1119              		.loc 2 458 26
 1120 016e 1B69     		ldr	r3, [r3, #16]
 1121              		.loc 2 458 14
 1122 0170 002B     		cmp	r3, #0
 1123 0172 0BD0     		beq	.L100
 459:Middlewares/ST/STM32_USB_Device_Library/Core/Src/usbd_ctlreq.c ****           {
 460:Middlewares/ST/STM32_USB_Device_Library/Core/Src/usbd_ctlreq.c ****             pbuf = pdev->pDesc->GetSerialStrDescriptor(pdev->dev_speed, &len);
 1124              		.loc 2 460 24
 1125 0174 7B68     		ldr	r3, [r7, #4]
 1126 0176 D3F8B432 		ldr	r3, [r3, #692]
 1127              		.loc 2 460 31
 1128 017a 1B69     		ldr	r3, [r3, #16]
 1129              		.loc 2 460 20
 1130 017c 7A68     		ldr	r2, [r7, #4]
 1131 017e 127C     		ldrb	r2, [r2, #16]	@ zero_extendqisi2
 1132 0180 07F10801 		add	r1, r7, #8
ARM GAS  /var/folders/vq/qt4vp3kd5rxf7v2b6_fdtdt80000gn/T//ccb7F33r.s 			page 35


 1133 0184 1046     		mov	r0, r2
 1134 0186 9847     		blx	r3
 1135              	.LVL10:
 1136 0188 F860     		str	r0, [r7, #12]
 461:Middlewares/ST/STM32_USB_Device_Library/Core/Src/usbd_ctlreq.c ****           }
 462:Middlewares/ST/STM32_USB_Device_Library/Core/Src/usbd_ctlreq.c ****           else
 463:Middlewares/ST/STM32_USB_Device_Library/Core/Src/usbd_ctlreq.c ****           {
 464:Middlewares/ST/STM32_USB_Device_Library/Core/Src/usbd_ctlreq.c ****             USBD_CtlError(pdev, req);
 465:Middlewares/ST/STM32_USB_Device_Library/Core/Src/usbd_ctlreq.c ****             err++;
 466:Middlewares/ST/STM32_USB_Device_Library/Core/Src/usbd_ctlreq.c ****           }
 467:Middlewares/ST/STM32_USB_Device_Library/Core/Src/usbd_ctlreq.c ****           break;
 1137              		.loc 2 467 11
 1138 018a 43E0     		b	.L95
 1139              	.L100:
 464:Middlewares/ST/STM32_USB_Device_Library/Core/Src/usbd_ctlreq.c ****             err++;
 1140              		.loc 2 464 13
 1141 018c 3968     		ldr	r1, [r7]
 1142 018e 7868     		ldr	r0, [r7, #4]
 1143 0190 FFF7FEFF 		bl	USBD_CtlError
 465:Middlewares/ST/STM32_USB_Device_Library/Core/Src/usbd_ctlreq.c ****           }
 1144              		.loc 2 465 16
 1145 0194 FB7A     		ldrb	r3, [r7, #11]	@ zero_extendqisi2
 1146 0196 0133     		adds	r3, r3, #1
 1147 0198 FB72     		strb	r3, [r7, #11]
 1148              		.loc 2 467 11
 1149 019a 3BE0     		b	.L95
 1150              	.L88:
 468:Middlewares/ST/STM32_USB_Device_Library/Core/Src/usbd_ctlreq.c **** 
 469:Middlewares/ST/STM32_USB_Device_Library/Core/Src/usbd_ctlreq.c ****         case USBD_IDX_CONFIG_STR:
 470:Middlewares/ST/STM32_USB_Device_Library/Core/Src/usbd_ctlreq.c ****           if (pdev->pDesc->GetConfigurationStrDescriptor != NULL)
 1151              		.loc 2 470 19
 1152 019c 7B68     		ldr	r3, [r7, #4]
 1153 019e D3F8B432 		ldr	r3, [r3, #692]
 1154              		.loc 2 470 26
 1155 01a2 5B69     		ldr	r3, [r3, #20]
 1156              		.loc 2 470 14
 1157 01a4 002B     		cmp	r3, #0
 1158 01a6 0BD0     		beq	.L102
 471:Middlewares/ST/STM32_USB_Device_Library/Core/Src/usbd_ctlreq.c ****           {
 472:Middlewares/ST/STM32_USB_Device_Library/Core/Src/usbd_ctlreq.c ****             pbuf = pdev->pDesc->GetConfigurationStrDescriptor(pdev->dev_speed, &len);
 1159              		.loc 2 472 24
 1160 01a8 7B68     		ldr	r3, [r7, #4]
 1161 01aa D3F8B432 		ldr	r3, [r3, #692]
 1162              		.loc 2 472 31
 1163 01ae 5B69     		ldr	r3, [r3, #20]
 1164              		.loc 2 472 20
 1165 01b0 7A68     		ldr	r2, [r7, #4]
 1166 01b2 127C     		ldrb	r2, [r2, #16]	@ zero_extendqisi2
 1167 01b4 07F10801 		add	r1, r7, #8
 1168 01b8 1046     		mov	r0, r2
 1169 01ba 9847     		blx	r3
 1170              	.LVL11:
 1171 01bc F860     		str	r0, [r7, #12]
 473:Middlewares/ST/STM32_USB_Device_Library/Core/Src/usbd_ctlreq.c ****           }
 474:Middlewares/ST/STM32_USB_Device_Library/Core/Src/usbd_ctlreq.c ****           else
 475:Middlewares/ST/STM32_USB_Device_Library/Core/Src/usbd_ctlreq.c ****           {
 476:Middlewares/ST/STM32_USB_Device_Library/Core/Src/usbd_ctlreq.c ****             USBD_CtlError(pdev, req);
ARM GAS  /var/folders/vq/qt4vp3kd5rxf7v2b6_fdtdt80000gn/T//ccb7F33r.s 			page 36


 477:Middlewares/ST/STM32_USB_Device_Library/Core/Src/usbd_ctlreq.c ****             err++;
 478:Middlewares/ST/STM32_USB_Device_Library/Core/Src/usbd_ctlreq.c ****           }
 479:Middlewares/ST/STM32_USB_Device_Library/Core/Src/usbd_ctlreq.c ****           break;
 1172              		.loc 2 479 11
 1173 01be 29E0     		b	.L95
 1174              	.L102:
 476:Middlewares/ST/STM32_USB_Device_Library/Core/Src/usbd_ctlreq.c ****             err++;
 1175              		.loc 2 476 13
 1176 01c0 3968     		ldr	r1, [r7]
 1177 01c2 7868     		ldr	r0, [r7, #4]
 1178 01c4 FFF7FEFF 		bl	USBD_CtlError
 477:Middlewares/ST/STM32_USB_Device_Library/Core/Src/usbd_ctlreq.c ****           }
 1179              		.loc 2 477 16
 1180 01c8 FB7A     		ldrb	r3, [r7, #11]	@ zero_extendqisi2
 1181 01ca 0133     		adds	r3, r3, #1
 1182 01cc FB72     		strb	r3, [r7, #11]
 1183              		.loc 2 479 11
 1184 01ce 21E0     		b	.L95
 1185              	.L86:
 480:Middlewares/ST/STM32_USB_Device_Library/Core/Src/usbd_ctlreq.c **** 
 481:Middlewares/ST/STM32_USB_Device_Library/Core/Src/usbd_ctlreq.c ****         case USBD_IDX_INTERFACE_STR:
 482:Middlewares/ST/STM32_USB_Device_Library/Core/Src/usbd_ctlreq.c ****           if (pdev->pDesc->GetInterfaceStrDescriptor != NULL)
 1186              		.loc 2 482 19
 1187 01d0 7B68     		ldr	r3, [r7, #4]
 1188 01d2 D3F8B432 		ldr	r3, [r3, #692]
 1189              		.loc 2 482 26
 1190 01d6 9B69     		ldr	r3, [r3, #24]
 1191              		.loc 2 482 14
 1192 01d8 002B     		cmp	r3, #0
 1193 01da 0BD0     		beq	.L104
 483:Middlewares/ST/STM32_USB_Device_Library/Core/Src/usbd_ctlreq.c ****           {
 484:Middlewares/ST/STM32_USB_Device_Library/Core/Src/usbd_ctlreq.c ****             pbuf = pdev->pDesc->GetInterfaceStrDescriptor(pdev->dev_speed, &len);
 1194              		.loc 2 484 24
 1195 01dc 7B68     		ldr	r3, [r7, #4]
 1196 01de D3F8B432 		ldr	r3, [r3, #692]
 1197              		.loc 2 484 31
 1198 01e2 9B69     		ldr	r3, [r3, #24]
 1199              		.loc 2 484 20
 1200 01e4 7A68     		ldr	r2, [r7, #4]
 1201 01e6 127C     		ldrb	r2, [r2, #16]	@ zero_extendqisi2
 1202 01e8 07F10801 		add	r1, r7, #8
 1203 01ec 1046     		mov	r0, r2
 1204 01ee 9847     		blx	r3
 1205              	.LVL12:
 1206 01f0 F860     		str	r0, [r7, #12]
 485:Middlewares/ST/STM32_USB_Device_Library/Core/Src/usbd_ctlreq.c ****           }
 486:Middlewares/ST/STM32_USB_Device_Library/Core/Src/usbd_ctlreq.c ****           else
 487:Middlewares/ST/STM32_USB_Device_Library/Core/Src/usbd_ctlreq.c ****           {
 488:Middlewares/ST/STM32_USB_Device_Library/Core/Src/usbd_ctlreq.c ****             USBD_CtlError(pdev, req);
 489:Middlewares/ST/STM32_USB_Device_Library/Core/Src/usbd_ctlreq.c ****             err++;
 490:Middlewares/ST/STM32_USB_Device_Library/Core/Src/usbd_ctlreq.c ****           }
 491:Middlewares/ST/STM32_USB_Device_Library/Core/Src/usbd_ctlreq.c ****           break;
 1207              		.loc 2 491 11
 1208 01f2 0FE0     		b	.L95
 1209              	.L104:
 488:Middlewares/ST/STM32_USB_Device_Library/Core/Src/usbd_ctlreq.c ****             err++;
 1210              		.loc 2 488 13
ARM GAS  /var/folders/vq/qt4vp3kd5rxf7v2b6_fdtdt80000gn/T//ccb7F33r.s 			page 37


 1211 01f4 3968     		ldr	r1, [r7]
 1212 01f6 7868     		ldr	r0, [r7, #4]
 1213 01f8 FFF7FEFF 		bl	USBD_CtlError
 489:Middlewares/ST/STM32_USB_Device_Library/Core/Src/usbd_ctlreq.c ****           }
 1214              		.loc 2 489 16
 1215 01fc FB7A     		ldrb	r3, [r7, #11]	@ zero_extendqisi2
 1216 01fe 0133     		adds	r3, r3, #1
 1217 0200 FB72     		strb	r3, [r7, #11]
 1218              		.loc 2 491 11
 1219 0202 07E0     		b	.L95
 1220              	.L85:
 492:Middlewares/ST/STM32_USB_Device_Library/Core/Src/usbd_ctlreq.c **** 
 493:Middlewares/ST/STM32_USB_Device_Library/Core/Src/usbd_ctlreq.c ****         default:
 494:Middlewares/ST/STM32_USB_Device_Library/Core/Src/usbd_ctlreq.c **** #if (USBD_SUPPORT_USER_STRING_DESC == 1U)
 495:Middlewares/ST/STM32_USB_Device_Library/Core/Src/usbd_ctlreq.c ****           if (pdev->pClass->GetUsrStrDescriptor != NULL)
 496:Middlewares/ST/STM32_USB_Device_Library/Core/Src/usbd_ctlreq.c ****           {
 497:Middlewares/ST/STM32_USB_Device_Library/Core/Src/usbd_ctlreq.c ****             pbuf = pdev->pClass->GetUsrStrDescriptor(pdev, (req->wValue), &len);
 498:Middlewares/ST/STM32_USB_Device_Library/Core/Src/usbd_ctlreq.c ****           }
 499:Middlewares/ST/STM32_USB_Device_Library/Core/Src/usbd_ctlreq.c ****           else
 500:Middlewares/ST/STM32_USB_Device_Library/Core/Src/usbd_ctlreq.c ****           {
 501:Middlewares/ST/STM32_USB_Device_Library/Core/Src/usbd_ctlreq.c ****             USBD_CtlError(pdev, req);
 502:Middlewares/ST/STM32_USB_Device_Library/Core/Src/usbd_ctlreq.c ****             err++;
 503:Middlewares/ST/STM32_USB_Device_Library/Core/Src/usbd_ctlreq.c ****           }
 504:Middlewares/ST/STM32_USB_Device_Library/Core/Src/usbd_ctlreq.c **** #endif
 505:Middlewares/ST/STM32_USB_Device_Library/Core/Src/usbd_ctlreq.c **** 
 506:Middlewares/ST/STM32_USB_Device_Library/Core/Src/usbd_ctlreq.c **** #if (USBD_CLASS_USER_STRING_DESC == 1U)
 507:Middlewares/ST/STM32_USB_Device_Library/Core/Src/usbd_ctlreq.c ****           if (pdev->pDesc->GetUserStrDescriptor != NULL)
 508:Middlewares/ST/STM32_USB_Device_Library/Core/Src/usbd_ctlreq.c ****           {
 509:Middlewares/ST/STM32_USB_Device_Library/Core/Src/usbd_ctlreq.c ****             pbuf = pdev->pDesc->GetUserStrDescriptor(pdev->dev_speed, (req->wValue), &len);
 510:Middlewares/ST/STM32_USB_Device_Library/Core/Src/usbd_ctlreq.c ****           }
 511:Middlewares/ST/STM32_USB_Device_Library/Core/Src/usbd_ctlreq.c ****           else
 512:Middlewares/ST/STM32_USB_Device_Library/Core/Src/usbd_ctlreq.c ****           {
 513:Middlewares/ST/STM32_USB_Device_Library/Core/Src/usbd_ctlreq.c ****             USBD_CtlError(pdev, req);
 514:Middlewares/ST/STM32_USB_Device_Library/Core/Src/usbd_ctlreq.c ****             err++;
 515:Middlewares/ST/STM32_USB_Device_Library/Core/Src/usbd_ctlreq.c ****           }
 516:Middlewares/ST/STM32_USB_Device_Library/Core/Src/usbd_ctlreq.c **** #endif
 517:Middlewares/ST/STM32_USB_Device_Library/Core/Src/usbd_ctlreq.c **** 
 518:Middlewares/ST/STM32_USB_Device_Library/Core/Src/usbd_ctlreq.c **** #if ((USBD_CLASS_USER_STRING_DESC == 0U) && (USBD_SUPPORT_USER_STRING_DESC == 0U))
 519:Middlewares/ST/STM32_USB_Device_Library/Core/Src/usbd_ctlreq.c ****           USBD_CtlError(pdev, req);
 1221              		.loc 2 519 11
 1222 0204 3968     		ldr	r1, [r7]
 1223 0206 7868     		ldr	r0, [r7, #4]
 1224 0208 FFF7FEFF 		bl	USBD_CtlError
 520:Middlewares/ST/STM32_USB_Device_Library/Core/Src/usbd_ctlreq.c ****           err++;
 1225              		.loc 2 520 14
 1226 020c FB7A     		ldrb	r3, [r7, #11]	@ zero_extendqisi2
 1227 020e 0133     		adds	r3, r3, #1
 1228 0210 FB72     		strb	r3, [r7, #11]
 521:Middlewares/ST/STM32_USB_Device_Library/Core/Src/usbd_ctlreq.c **** #endif
 522:Middlewares/ST/STM32_USB_Device_Library/Core/Src/usbd_ctlreq.c ****           break;
 1229              		.loc 2 522 11
 1230 0212 00BF     		nop
 1231              	.L95:
 523:Middlewares/ST/STM32_USB_Device_Library/Core/Src/usbd_ctlreq.c ****       }
 524:Middlewares/ST/STM32_USB_Device_Library/Core/Src/usbd_ctlreq.c ****       break;
 1232              		.loc 2 524 7
 1233 0214 37E0     		b	.L82
ARM GAS  /var/folders/vq/qt4vp3kd5rxf7v2b6_fdtdt80000gn/T//ccb7F33r.s 			page 38


 1234              	.L78:
 525:Middlewares/ST/STM32_USB_Device_Library/Core/Src/usbd_ctlreq.c **** 
 526:Middlewares/ST/STM32_USB_Device_Library/Core/Src/usbd_ctlreq.c ****     case USB_DESC_TYPE_DEVICE_QUALIFIER:
 527:Middlewares/ST/STM32_USB_Device_Library/Core/Src/usbd_ctlreq.c ****       if (pdev->dev_speed == USBD_SPEED_HIGH)
 1235              		.loc 2 527 15
 1236 0216 7B68     		ldr	r3, [r7, #4]
 1237 0218 1B7C     		ldrb	r3, [r3, #16]	@ zero_extendqisi2
 1238              		.loc 2 527 10
 1239 021a 002B     		cmp	r3, #0
 1240 021c 09D1     		bne	.L106
 528:Middlewares/ST/STM32_USB_Device_Library/Core/Src/usbd_ctlreq.c ****       {
 529:Middlewares/ST/STM32_USB_Device_Library/Core/Src/usbd_ctlreq.c ****         pbuf = pdev->pClass->GetDeviceQualifierDescriptor(&len);
 1241              		.loc 2 529 20
 1242 021e 7B68     		ldr	r3, [r7, #4]
 1243 0220 D3F8B832 		ldr	r3, [r3, #696]
 1244              		.loc 2 529 28
 1245 0224 5B6B     		ldr	r3, [r3, #52]
 1246              		.loc 2 529 16
 1247 0226 07F10802 		add	r2, r7, #8
 1248 022a 1046     		mov	r0, r2
 1249 022c 9847     		blx	r3
 1250              	.LVL13:
 1251 022e F860     		str	r0, [r7, #12]
 530:Middlewares/ST/STM32_USB_Device_Library/Core/Src/usbd_ctlreq.c ****       }
 531:Middlewares/ST/STM32_USB_Device_Library/Core/Src/usbd_ctlreq.c ****       else
 532:Middlewares/ST/STM32_USB_Device_Library/Core/Src/usbd_ctlreq.c ****       {
 533:Middlewares/ST/STM32_USB_Device_Library/Core/Src/usbd_ctlreq.c ****         USBD_CtlError(pdev, req);
 534:Middlewares/ST/STM32_USB_Device_Library/Core/Src/usbd_ctlreq.c ****         err++;
 535:Middlewares/ST/STM32_USB_Device_Library/Core/Src/usbd_ctlreq.c ****       }
 536:Middlewares/ST/STM32_USB_Device_Library/Core/Src/usbd_ctlreq.c ****       break;
 1252              		.loc 2 536 7
 1253 0230 29E0     		b	.L82
 1254              	.L106:
 533:Middlewares/ST/STM32_USB_Device_Library/Core/Src/usbd_ctlreq.c ****         err++;
 1255              		.loc 2 533 9
 1256 0232 3968     		ldr	r1, [r7]
 1257 0234 7868     		ldr	r0, [r7, #4]
 1258 0236 FFF7FEFF 		bl	USBD_CtlError
 534:Middlewares/ST/STM32_USB_Device_Library/Core/Src/usbd_ctlreq.c ****       }
 1259              		.loc 2 534 12
 1260 023a FB7A     		ldrb	r3, [r7, #11]	@ zero_extendqisi2
 1261 023c 0133     		adds	r3, r3, #1
 1262 023e FB72     		strb	r3, [r7, #11]
 1263              		.loc 2 536 7
 1264 0240 21E0     		b	.L82
 1265              	.L76:
 537:Middlewares/ST/STM32_USB_Device_Library/Core/Src/usbd_ctlreq.c **** 
 538:Middlewares/ST/STM32_USB_Device_Library/Core/Src/usbd_ctlreq.c ****     case USB_DESC_TYPE_OTHER_SPEED_CONFIGURATION:
 539:Middlewares/ST/STM32_USB_Device_Library/Core/Src/usbd_ctlreq.c ****       if (pdev->dev_speed == USBD_SPEED_HIGH)
 1266              		.loc 2 539 15
 1267 0242 7B68     		ldr	r3, [r7, #4]
 1268 0244 1B7C     		ldrb	r3, [r3, #16]	@ zero_extendqisi2
 1269              		.loc 2 539 10
 1270 0246 002B     		cmp	r3, #0
 1271 0248 0DD1     		bne	.L108
 540:Middlewares/ST/STM32_USB_Device_Library/Core/Src/usbd_ctlreq.c ****       {
 541:Middlewares/ST/STM32_USB_Device_Library/Core/Src/usbd_ctlreq.c ****         pbuf = pdev->pClass->GetOtherSpeedConfigDescriptor(&len);
ARM GAS  /var/folders/vq/qt4vp3kd5rxf7v2b6_fdtdt80000gn/T//ccb7F33r.s 			page 39


 1272              		.loc 2 541 20
 1273 024a 7B68     		ldr	r3, [r7, #4]
 1274 024c D3F8B832 		ldr	r3, [r3, #696]
 1275              		.loc 2 541 28
 1276 0250 1B6B     		ldr	r3, [r3, #48]
 1277              		.loc 2 541 16
 1278 0252 07F10802 		add	r2, r7, #8
 1279 0256 1046     		mov	r0, r2
 1280 0258 9847     		blx	r3
 1281              	.LVL14:
 1282 025a F860     		str	r0, [r7, #12]
 542:Middlewares/ST/STM32_USB_Device_Library/Core/Src/usbd_ctlreq.c ****         pbuf[1] = USB_DESC_TYPE_OTHER_SPEED_CONFIGURATION;
 1283              		.loc 2 542 13
 1284 025c FB68     		ldr	r3, [r7, #12]
 1285 025e 0133     		adds	r3, r3, #1
 1286              		.loc 2 542 17
 1287 0260 0722     		movs	r2, #7
 1288 0262 1A70     		strb	r2, [r3]
 543:Middlewares/ST/STM32_USB_Device_Library/Core/Src/usbd_ctlreq.c ****       }
 544:Middlewares/ST/STM32_USB_Device_Library/Core/Src/usbd_ctlreq.c ****       else
 545:Middlewares/ST/STM32_USB_Device_Library/Core/Src/usbd_ctlreq.c ****       {
 546:Middlewares/ST/STM32_USB_Device_Library/Core/Src/usbd_ctlreq.c ****         USBD_CtlError(pdev, req);
 547:Middlewares/ST/STM32_USB_Device_Library/Core/Src/usbd_ctlreq.c ****         err++;
 548:Middlewares/ST/STM32_USB_Device_Library/Core/Src/usbd_ctlreq.c ****       }
 549:Middlewares/ST/STM32_USB_Device_Library/Core/Src/usbd_ctlreq.c ****       break;
 1289              		.loc 2 549 7
 1290 0264 0FE0     		b	.L82
 1291              	.L108:
 546:Middlewares/ST/STM32_USB_Device_Library/Core/Src/usbd_ctlreq.c ****         err++;
 1292              		.loc 2 546 9
 1293 0266 3968     		ldr	r1, [r7]
 1294 0268 7868     		ldr	r0, [r7, #4]
 1295 026a FFF7FEFF 		bl	USBD_CtlError
 547:Middlewares/ST/STM32_USB_Device_Library/Core/Src/usbd_ctlreq.c ****       }
 1296              		.loc 2 547 12
 1297 026e FB7A     		ldrb	r3, [r7, #11]	@ zero_extendqisi2
 1298 0270 0133     		adds	r3, r3, #1
 1299 0272 FB72     		strb	r3, [r7, #11]
 1300              		.loc 2 549 7
 1301 0274 07E0     		b	.L82
 1302              	.L75:
 550:Middlewares/ST/STM32_USB_Device_Library/Core/Src/usbd_ctlreq.c **** 
 551:Middlewares/ST/STM32_USB_Device_Library/Core/Src/usbd_ctlreq.c ****     default:
 552:Middlewares/ST/STM32_USB_Device_Library/Core/Src/usbd_ctlreq.c ****       USBD_CtlError(pdev, req);
 1303              		.loc 2 552 7
 1304 0276 3968     		ldr	r1, [r7]
 1305 0278 7868     		ldr	r0, [r7, #4]
 1306 027a FFF7FEFF 		bl	USBD_CtlError
 553:Middlewares/ST/STM32_USB_Device_Library/Core/Src/usbd_ctlreq.c ****       err++;
 1307              		.loc 2 553 10
 1308 027e FB7A     		ldrb	r3, [r7, #11]	@ zero_extendqisi2
 1309 0280 0133     		adds	r3, r3, #1
 1310 0282 FB72     		strb	r3, [r7, #11]
 554:Middlewares/ST/STM32_USB_Device_Library/Core/Src/usbd_ctlreq.c ****       break;
 1311              		.loc 2 554 7
 1312 0284 00BF     		nop
 1313              	.L82:
ARM GAS  /var/folders/vq/qt4vp3kd5rxf7v2b6_fdtdt80000gn/T//ccb7F33r.s 			page 40


 555:Middlewares/ST/STM32_USB_Device_Library/Core/Src/usbd_ctlreq.c ****   }
 556:Middlewares/ST/STM32_USB_Device_Library/Core/Src/usbd_ctlreq.c **** 
 557:Middlewares/ST/STM32_USB_Device_Library/Core/Src/usbd_ctlreq.c ****   if (err != 0U)
 1314              		.loc 2 557 6
 1315 0286 FB7A     		ldrb	r3, [r7, #11]	@ zero_extendqisi2
 1316 0288 002B     		cmp	r3, #0
 1317 028a 1ED1     		bne	.L115
 558:Middlewares/ST/STM32_USB_Device_Library/Core/Src/usbd_ctlreq.c ****   {
 559:Middlewares/ST/STM32_USB_Device_Library/Core/Src/usbd_ctlreq.c ****     return;
 560:Middlewares/ST/STM32_USB_Device_Library/Core/Src/usbd_ctlreq.c ****   }
 561:Middlewares/ST/STM32_USB_Device_Library/Core/Src/usbd_ctlreq.c **** 
 562:Middlewares/ST/STM32_USB_Device_Library/Core/Src/usbd_ctlreq.c ****   if (req->wLength != 0U)
 1318              		.loc 2 562 10
 1319 028c 3B68     		ldr	r3, [r7]
 1320 028e DB88     		ldrh	r3, [r3, #6]
 1321              		.loc 2 562 6
 1322 0290 002B     		cmp	r3, #0
 1323 0292 16D0     		beq	.L112
 563:Middlewares/ST/STM32_USB_Device_Library/Core/Src/usbd_ctlreq.c ****   {
 564:Middlewares/ST/STM32_USB_Device_Library/Core/Src/usbd_ctlreq.c ****     if (len != 0U)
 1324              		.loc 2 564 13
 1325 0294 3B89     		ldrh	r3, [r7, #8]
 1326              		.loc 2 564 8
 1327 0296 002B     		cmp	r3, #0
 1328 0298 0ED0     		beq	.L113
 565:Middlewares/ST/STM32_USB_Device_Library/Core/Src/usbd_ctlreq.c ****     {
 566:Middlewares/ST/STM32_USB_Device_Library/Core/Src/usbd_ctlreq.c ****       len = MIN(len, req->wLength);
 1329              		.loc 2 566 13
 1330 029a 3B68     		ldr	r3, [r7]
 1331 029c DA88     		ldrh	r2, [r3, #6]
 1332 029e 3B89     		ldrh	r3, [r7, #8]
 1333 02a0 9342     		cmp	r3, r2
 1334 02a2 28BF     		it	cs
 1335 02a4 1346     		movcs	r3, r2
 1336 02a6 9BB2     		uxth	r3, r3
 1337              		.loc 2 566 11
 1338 02a8 3B81     		strh	r3, [r7, #8]	@ movhi
 567:Middlewares/ST/STM32_USB_Device_Library/Core/Src/usbd_ctlreq.c ****       (void)USBD_CtlSendData(pdev, pbuf, len);
 1339              		.loc 2 567 13
 1340 02aa 3B89     		ldrh	r3, [r7, #8]
 1341 02ac 1A46     		mov	r2, r3
 1342 02ae F968     		ldr	r1, [r7, #12]
 1343 02b0 7868     		ldr	r0, [r7, #4]
 1344 02b2 FFF7FEFF 		bl	USBD_CtlSendData
 1345 02b6 09E0     		b	.L74
 1346              	.L113:
 568:Middlewares/ST/STM32_USB_Device_Library/Core/Src/usbd_ctlreq.c ****     }
 569:Middlewares/ST/STM32_USB_Device_Library/Core/Src/usbd_ctlreq.c ****     else
 570:Middlewares/ST/STM32_USB_Device_Library/Core/Src/usbd_ctlreq.c ****     {
 571:Middlewares/ST/STM32_USB_Device_Library/Core/Src/usbd_ctlreq.c ****       USBD_CtlError(pdev, req);
 1347              		.loc 2 571 7
 1348 02b8 3968     		ldr	r1, [r7]
 1349 02ba 7868     		ldr	r0, [r7, #4]
 1350 02bc FFF7FEFF 		bl	USBD_CtlError
 1351 02c0 04E0     		b	.L74
 1352              	.L112:
 572:Middlewares/ST/STM32_USB_Device_Library/Core/Src/usbd_ctlreq.c ****     }
ARM GAS  /var/folders/vq/qt4vp3kd5rxf7v2b6_fdtdt80000gn/T//ccb7F33r.s 			page 41


 573:Middlewares/ST/STM32_USB_Device_Library/Core/Src/usbd_ctlreq.c ****   }
 574:Middlewares/ST/STM32_USB_Device_Library/Core/Src/usbd_ctlreq.c ****   else
 575:Middlewares/ST/STM32_USB_Device_Library/Core/Src/usbd_ctlreq.c ****   {
 576:Middlewares/ST/STM32_USB_Device_Library/Core/Src/usbd_ctlreq.c ****     (void)USBD_CtlSendStatus(pdev);
 1353              		.loc 2 576 11
 1354 02c2 7868     		ldr	r0, [r7, #4]
 1355 02c4 FFF7FEFF 		bl	USBD_CtlSendStatus
 1356 02c8 00E0     		b	.L74
 1357              	.L115:
 559:Middlewares/ST/STM32_USB_Device_Library/Core/Src/usbd_ctlreq.c ****   }
 1358              		.loc 2 559 5
 1359 02ca 00BF     		nop
 1360              	.L74:
 577:Middlewares/ST/STM32_USB_Device_Library/Core/Src/usbd_ctlreq.c ****   }
 578:Middlewares/ST/STM32_USB_Device_Library/Core/Src/usbd_ctlreq.c **** }
 1361              		.loc 2 578 1
 1362 02cc 1037     		adds	r7, r7, #16
 1363              	.LCFI24:
 1364              		.cfi_def_cfa_offset 8
 1365 02ce BD46     		mov	sp, r7
 1366              	.LCFI25:
 1367              		.cfi_def_cfa_register 13
 1368              		@ sp needed
 1369 02d0 80BD     		pop	{r7, pc}
 1370              		.cfi_endproc
 1371              	.LFE137:
 1373 02d2 00BF     		.section	.text.USBD_SetAddress,"ax",%progbits
 1374              		.align	1
 1375              		.syntax unified
 1376              		.thumb
 1377              		.thumb_func
 1378              		.fpu fpv4-sp-d16
 1380              	USBD_SetAddress:
 1381              	.LFB138:
 579:Middlewares/ST/STM32_USB_Device_Library/Core/Src/usbd_ctlreq.c **** 
 580:Middlewares/ST/STM32_USB_Device_Library/Core/Src/usbd_ctlreq.c **** 
 581:Middlewares/ST/STM32_USB_Device_Library/Core/Src/usbd_ctlreq.c **** /**
 582:Middlewares/ST/STM32_USB_Device_Library/Core/Src/usbd_ctlreq.c ****   * @brief  USBD_SetAddress
 583:Middlewares/ST/STM32_USB_Device_Library/Core/Src/usbd_ctlreq.c ****   *         Set device address
 584:Middlewares/ST/STM32_USB_Device_Library/Core/Src/usbd_ctlreq.c ****   * @param  pdev: device instance
 585:Middlewares/ST/STM32_USB_Device_Library/Core/Src/usbd_ctlreq.c ****   * @param  req: usb request
 586:Middlewares/ST/STM32_USB_Device_Library/Core/Src/usbd_ctlreq.c ****   * @retval status
 587:Middlewares/ST/STM32_USB_Device_Library/Core/Src/usbd_ctlreq.c ****   */
 588:Middlewares/ST/STM32_USB_Device_Library/Core/Src/usbd_ctlreq.c **** static void USBD_SetAddress(USBD_HandleTypeDef *pdev, USBD_SetupReqTypedef *req)
 589:Middlewares/ST/STM32_USB_Device_Library/Core/Src/usbd_ctlreq.c **** {
 1382              		.loc 2 589 1
 1383              		.cfi_startproc
 1384              		@ args = 0, pretend = 0, frame = 16
 1385              		@ frame_needed = 1, uses_anonymous_args = 0
 1386 0000 80B5     		push	{r7, lr}
 1387              	.LCFI26:
 1388              		.cfi_def_cfa_offset 8
 1389              		.cfi_offset 7, -8
 1390              		.cfi_offset 14, -4
 1391 0002 84B0     		sub	sp, sp, #16
 1392              	.LCFI27:
 1393              		.cfi_def_cfa_offset 24
ARM GAS  /var/folders/vq/qt4vp3kd5rxf7v2b6_fdtdt80000gn/T//ccb7F33r.s 			page 42


 1394 0004 00AF     		add	r7, sp, #0
 1395              	.LCFI28:
 1396              		.cfi_def_cfa_register 7
 1397 0006 7860     		str	r0, [r7, #4]
 1398 0008 3960     		str	r1, [r7]
 590:Middlewares/ST/STM32_USB_Device_Library/Core/Src/usbd_ctlreq.c ****   uint8_t  dev_addr;
 591:Middlewares/ST/STM32_USB_Device_Library/Core/Src/usbd_ctlreq.c **** 
 592:Middlewares/ST/STM32_USB_Device_Library/Core/Src/usbd_ctlreq.c ****   if ((req->wIndex == 0U) && (req->wLength == 0U) && (req->wValue < 128U))
 1399              		.loc 2 592 11
 1400 000a 3B68     		ldr	r3, [r7]
 1401 000c 9B88     		ldrh	r3, [r3, #4]
 1402              		.loc 2 592 6
 1403 000e 002B     		cmp	r3, #0
 1404 0010 31D1     		bne	.L117
 1405              		.loc 2 592 34 discriminator 1
 1406 0012 3B68     		ldr	r3, [r7]
 1407 0014 DB88     		ldrh	r3, [r3, #6]
 1408              		.loc 2 592 27 discriminator 1
 1409 0016 002B     		cmp	r3, #0
 1410 0018 2DD1     		bne	.L117
 1411              		.loc 2 592 58 discriminator 2
 1412 001a 3B68     		ldr	r3, [r7]
 1413 001c 5B88     		ldrh	r3, [r3, #2]
 1414              		.loc 2 592 51 discriminator 2
 1415 001e 7F2B     		cmp	r3, #127
 1416 0020 29D8     		bhi	.L117
 593:Middlewares/ST/STM32_USB_Device_Library/Core/Src/usbd_ctlreq.c ****   {
 594:Middlewares/ST/STM32_USB_Device_Library/Core/Src/usbd_ctlreq.c ****     dev_addr = (uint8_t)(req->wValue) & 0x7FU;
 1417              		.loc 2 594 29
 1418 0022 3B68     		ldr	r3, [r7]
 1419 0024 5B88     		ldrh	r3, [r3, #2]
 1420              		.loc 2 594 16
 1421 0026 DBB2     		uxtb	r3, r3
 1422              		.loc 2 594 14
 1423 0028 03F07F03 		and	r3, r3, #127
 1424 002c FB73     		strb	r3, [r7, #15]
 595:Middlewares/ST/STM32_USB_Device_Library/Core/Src/usbd_ctlreq.c **** 
 596:Middlewares/ST/STM32_USB_Device_Library/Core/Src/usbd_ctlreq.c ****     if (pdev->dev_state == USBD_STATE_CONFIGURED)
 1425              		.loc 2 596 13
 1426 002e 7B68     		ldr	r3, [r7, #4]
 1427 0030 93F89C32 		ldrb	r3, [r3, #668]
 1428 0034 DBB2     		uxtb	r3, r3
 1429              		.loc 2 596 8
 1430 0036 032B     		cmp	r3, #3
 1431 0038 04D1     		bne	.L118
 597:Middlewares/ST/STM32_USB_Device_Library/Core/Src/usbd_ctlreq.c ****     {
 598:Middlewares/ST/STM32_USB_Device_Library/Core/Src/usbd_ctlreq.c ****       USBD_CtlError(pdev, req);
 1432              		.loc 2 598 7
 1433 003a 3968     		ldr	r1, [r7]
 1434 003c 7868     		ldr	r0, [r7, #4]
 1435 003e FFF7FEFF 		bl	USBD_CtlError
 596:Middlewares/ST/STM32_USB_Device_Library/Core/Src/usbd_ctlreq.c ****     {
 1436              		.loc 2 596 8
 1437 0042 1DE0     		b	.L121
 1438              	.L118:
 599:Middlewares/ST/STM32_USB_Device_Library/Core/Src/usbd_ctlreq.c ****     }
 600:Middlewares/ST/STM32_USB_Device_Library/Core/Src/usbd_ctlreq.c ****     else
ARM GAS  /var/folders/vq/qt4vp3kd5rxf7v2b6_fdtdt80000gn/T//ccb7F33r.s 			page 43


 601:Middlewares/ST/STM32_USB_Device_Library/Core/Src/usbd_ctlreq.c ****     {
 602:Middlewares/ST/STM32_USB_Device_Library/Core/Src/usbd_ctlreq.c ****       pdev->dev_address = dev_addr;
 1439              		.loc 2 602 25
 1440 0044 7B68     		ldr	r3, [r7, #4]
 1441 0046 FA7B     		ldrb	r2, [r7, #15]
 1442 0048 83F89E22 		strb	r2, [r3, #670]
 603:Middlewares/ST/STM32_USB_Device_Library/Core/Src/usbd_ctlreq.c ****       (void)USBD_LL_SetUSBAddress(pdev, dev_addr);
 1443              		.loc 2 603 13
 1444 004c FB7B     		ldrb	r3, [r7, #15]	@ zero_extendqisi2
 1445 004e 1946     		mov	r1, r3
 1446 0050 7868     		ldr	r0, [r7, #4]
 1447 0052 FFF7FEFF 		bl	USBD_LL_SetUSBAddress
 604:Middlewares/ST/STM32_USB_Device_Library/Core/Src/usbd_ctlreq.c ****       (void)USBD_CtlSendStatus(pdev);
 1448              		.loc 2 604 13
 1449 0056 7868     		ldr	r0, [r7, #4]
 1450 0058 FFF7FEFF 		bl	USBD_CtlSendStatus
 605:Middlewares/ST/STM32_USB_Device_Library/Core/Src/usbd_ctlreq.c **** 
 606:Middlewares/ST/STM32_USB_Device_Library/Core/Src/usbd_ctlreq.c ****       if (dev_addr != 0U)
 1451              		.loc 2 606 10
 1452 005c FB7B     		ldrb	r3, [r7, #15]	@ zero_extendqisi2
 1453 005e 002B     		cmp	r3, #0
 1454 0060 04D0     		beq	.L120
 607:Middlewares/ST/STM32_USB_Device_Library/Core/Src/usbd_ctlreq.c ****       {
 608:Middlewares/ST/STM32_USB_Device_Library/Core/Src/usbd_ctlreq.c ****         pdev->dev_state = USBD_STATE_ADDRESSED;
 1455              		.loc 2 608 25
 1456 0062 7B68     		ldr	r3, [r7, #4]
 1457 0064 0222     		movs	r2, #2
 1458 0066 83F89C22 		strb	r2, [r3, #668]
 596:Middlewares/ST/STM32_USB_Device_Library/Core/Src/usbd_ctlreq.c ****     {
 1459              		.loc 2 596 8
 1460 006a 09E0     		b	.L121
 1461              	.L120:
 609:Middlewares/ST/STM32_USB_Device_Library/Core/Src/usbd_ctlreq.c ****       }
 610:Middlewares/ST/STM32_USB_Device_Library/Core/Src/usbd_ctlreq.c ****       else
 611:Middlewares/ST/STM32_USB_Device_Library/Core/Src/usbd_ctlreq.c ****       {
 612:Middlewares/ST/STM32_USB_Device_Library/Core/Src/usbd_ctlreq.c ****         pdev->dev_state = USBD_STATE_DEFAULT;
 1462              		.loc 2 612 25
 1463 006c 7B68     		ldr	r3, [r7, #4]
 1464 006e 0122     		movs	r2, #1
 1465 0070 83F89C22 		strb	r2, [r3, #668]
 596:Middlewares/ST/STM32_USB_Device_Library/Core/Src/usbd_ctlreq.c ****     {
 1466              		.loc 2 596 8
 1467 0074 04E0     		b	.L121
 1468              	.L117:
 613:Middlewares/ST/STM32_USB_Device_Library/Core/Src/usbd_ctlreq.c ****       }
 614:Middlewares/ST/STM32_USB_Device_Library/Core/Src/usbd_ctlreq.c ****     }
 615:Middlewares/ST/STM32_USB_Device_Library/Core/Src/usbd_ctlreq.c ****   }
 616:Middlewares/ST/STM32_USB_Device_Library/Core/Src/usbd_ctlreq.c ****   else
 617:Middlewares/ST/STM32_USB_Device_Library/Core/Src/usbd_ctlreq.c ****   {
 618:Middlewares/ST/STM32_USB_Device_Library/Core/Src/usbd_ctlreq.c ****     USBD_CtlError(pdev, req);
 1469              		.loc 2 618 5
 1470 0076 3968     		ldr	r1, [r7]
 1471 0078 7868     		ldr	r0, [r7, #4]
 1472 007a FFF7FEFF 		bl	USBD_CtlError
 619:Middlewares/ST/STM32_USB_Device_Library/Core/Src/usbd_ctlreq.c ****   }
 620:Middlewares/ST/STM32_USB_Device_Library/Core/Src/usbd_ctlreq.c **** }
 1473              		.loc 2 620 1
ARM GAS  /var/folders/vq/qt4vp3kd5rxf7v2b6_fdtdt80000gn/T//ccb7F33r.s 			page 44


 1474 007e 00BF     		nop
 1475              	.L121:
 1476 0080 00BF     		nop
 1477 0082 1037     		adds	r7, r7, #16
 1478              	.LCFI29:
 1479              		.cfi_def_cfa_offset 8
 1480 0084 BD46     		mov	sp, r7
 1481              	.LCFI30:
 1482              		.cfi_def_cfa_register 13
 1483              		@ sp needed
 1484 0086 80BD     		pop	{r7, pc}
 1485              		.cfi_endproc
 1486              	.LFE138:
 1488              		.section	.text.USBD_SetConfig,"ax",%progbits
 1489              		.align	1
 1490              		.syntax unified
 1491              		.thumb
 1492              		.thumb_func
 1493              		.fpu fpv4-sp-d16
 1495              	USBD_SetConfig:
 1496              	.LFB139:
 621:Middlewares/ST/STM32_USB_Device_Library/Core/Src/usbd_ctlreq.c **** 
 622:Middlewares/ST/STM32_USB_Device_Library/Core/Src/usbd_ctlreq.c **** /**
 623:Middlewares/ST/STM32_USB_Device_Library/Core/Src/usbd_ctlreq.c ****   * @brief  USBD_SetConfig
 624:Middlewares/ST/STM32_USB_Device_Library/Core/Src/usbd_ctlreq.c ****   *         Handle Set device configuration request
 625:Middlewares/ST/STM32_USB_Device_Library/Core/Src/usbd_ctlreq.c ****   * @param  pdev: device instance
 626:Middlewares/ST/STM32_USB_Device_Library/Core/Src/usbd_ctlreq.c ****   * @param  req: usb request
 627:Middlewares/ST/STM32_USB_Device_Library/Core/Src/usbd_ctlreq.c ****   * @retval status
 628:Middlewares/ST/STM32_USB_Device_Library/Core/Src/usbd_ctlreq.c ****   */
 629:Middlewares/ST/STM32_USB_Device_Library/Core/Src/usbd_ctlreq.c **** static USBD_StatusTypeDef USBD_SetConfig(USBD_HandleTypeDef *pdev, USBD_SetupReqTypedef *req)
 630:Middlewares/ST/STM32_USB_Device_Library/Core/Src/usbd_ctlreq.c **** {
 1497              		.loc 2 630 1
 1498              		.cfi_startproc
 1499              		@ args = 0, pretend = 0, frame = 16
 1500              		@ frame_needed = 1, uses_anonymous_args = 0
 1501 0000 80B5     		push	{r7, lr}
 1502              	.LCFI31:
 1503              		.cfi_def_cfa_offset 8
 1504              		.cfi_offset 7, -8
 1505              		.cfi_offset 14, -4
 1506 0002 84B0     		sub	sp, sp, #16
 1507              	.LCFI32:
 1508              		.cfi_def_cfa_offset 24
 1509 0004 00AF     		add	r7, sp, #0
 1510              	.LCFI33:
 1511              		.cfi_def_cfa_register 7
 1512 0006 7860     		str	r0, [r7, #4]
 1513 0008 3960     		str	r1, [r7]
 631:Middlewares/ST/STM32_USB_Device_Library/Core/Src/usbd_ctlreq.c ****   USBD_StatusTypeDef ret = USBD_OK;
 1514              		.loc 2 631 22
 1515 000a 0023     		movs	r3, #0
 1516 000c FB73     		strb	r3, [r7, #15]
 632:Middlewares/ST/STM32_USB_Device_Library/Core/Src/usbd_ctlreq.c ****   static uint8_t cfgidx;
 633:Middlewares/ST/STM32_USB_Device_Library/Core/Src/usbd_ctlreq.c **** 
 634:Middlewares/ST/STM32_USB_Device_Library/Core/Src/usbd_ctlreq.c ****   cfgidx = (uint8_t)(req->wValue);
 1517              		.loc 2 634 25
 1518 000e 3B68     		ldr	r3, [r7]
ARM GAS  /var/folders/vq/qt4vp3kd5rxf7v2b6_fdtdt80000gn/T//ccb7F33r.s 			page 45


 1519 0010 5B88     		ldrh	r3, [r3, #2]
 1520              		.loc 2 634 12
 1521 0012 DAB2     		uxtb	r2, r3
 1522              		.loc 2 634 10
 1523 0014 4C4B     		ldr	r3, .L137
 1524 0016 1A70     		strb	r2, [r3]
 635:Middlewares/ST/STM32_USB_Device_Library/Core/Src/usbd_ctlreq.c **** 
 636:Middlewares/ST/STM32_USB_Device_Library/Core/Src/usbd_ctlreq.c ****   if (cfgidx > USBD_MAX_NUM_CONFIGURATION)
 1525              		.loc 2 636 14
 1526 0018 4B4B     		ldr	r3, .L137
 1527 001a 1B78     		ldrb	r3, [r3]	@ zero_extendqisi2
 1528              		.loc 2 636 6
 1529 001c 012B     		cmp	r3, #1
 1530 001e 05D9     		bls	.L123
 637:Middlewares/ST/STM32_USB_Device_Library/Core/Src/usbd_ctlreq.c ****   {
 638:Middlewares/ST/STM32_USB_Device_Library/Core/Src/usbd_ctlreq.c ****     USBD_CtlError(pdev, req);
 1531              		.loc 2 638 5
 1532 0020 3968     		ldr	r1, [r7]
 1533 0022 7868     		ldr	r0, [r7, #4]
 1534 0024 FFF7FEFF 		bl	USBD_CtlError
 639:Middlewares/ST/STM32_USB_Device_Library/Core/Src/usbd_ctlreq.c ****     return USBD_FAIL;
 1535              		.loc 2 639 12
 1536 0028 0323     		movs	r3, #3
 1537 002a 88E0     		b	.L124
 1538              	.L123:
 640:Middlewares/ST/STM32_USB_Device_Library/Core/Src/usbd_ctlreq.c ****   }
 641:Middlewares/ST/STM32_USB_Device_Library/Core/Src/usbd_ctlreq.c **** 
 642:Middlewares/ST/STM32_USB_Device_Library/Core/Src/usbd_ctlreq.c ****   switch (pdev->dev_state)
 1539              		.loc 2 642 15
 1540 002c 7B68     		ldr	r3, [r7, #4]
 1541 002e 93F89C32 		ldrb	r3, [r3, #668]
 1542 0032 DBB2     		uxtb	r3, r3
 1543              		.loc 2 642 3
 1544 0034 022B     		cmp	r3, #2
 1545 0036 02D0     		beq	.L125
 1546 0038 032B     		cmp	r3, #3
 1547 003a 25D0     		beq	.L126
 1548 003c 71E0     		b	.L136
 1549              	.L125:
 643:Middlewares/ST/STM32_USB_Device_Library/Core/Src/usbd_ctlreq.c ****   {
 644:Middlewares/ST/STM32_USB_Device_Library/Core/Src/usbd_ctlreq.c ****     case USBD_STATE_ADDRESSED:
 645:Middlewares/ST/STM32_USB_Device_Library/Core/Src/usbd_ctlreq.c ****       if (cfgidx != 0U)
 1550              		.loc 2 645 18
 1551 003e 424B     		ldr	r3, .L137
 1552 0040 1B78     		ldrb	r3, [r3]	@ zero_extendqisi2
 1553              		.loc 2 645 10
 1554 0042 002B     		cmp	r3, #0
 1555 0044 1CD0     		beq	.L128
 646:Middlewares/ST/STM32_USB_Device_Library/Core/Src/usbd_ctlreq.c ****       {
 647:Middlewares/ST/STM32_USB_Device_Library/Core/Src/usbd_ctlreq.c ****         pdev->dev_config = cfgidx;
 1556              		.loc 2 647 26
 1557 0046 404B     		ldr	r3, .L137
 1558 0048 1B78     		ldrb	r3, [r3]	@ zero_extendqisi2
 1559 004a 1A46     		mov	r2, r3
 1560 004c 7B68     		ldr	r3, [r7, #4]
 1561 004e 5A60     		str	r2, [r3, #4]
 648:Middlewares/ST/STM32_USB_Device_Library/Core/Src/usbd_ctlreq.c **** 
ARM GAS  /var/folders/vq/qt4vp3kd5rxf7v2b6_fdtdt80000gn/T//ccb7F33r.s 			page 46


 649:Middlewares/ST/STM32_USB_Device_Library/Core/Src/usbd_ctlreq.c ****         ret = USBD_SetClassConfig(pdev, cfgidx);
 1562              		.loc 2 649 15
 1563 0050 3D4B     		ldr	r3, .L137
 1564 0052 1B78     		ldrb	r3, [r3]	@ zero_extendqisi2
 1565 0054 1946     		mov	r1, r3
 1566 0056 7868     		ldr	r0, [r7, #4]
 1567 0058 FFF7FEFF 		bl	USBD_SetClassConfig
 1568 005c 0346     		mov	r3, r0
 1569 005e FB73     		strb	r3, [r7, #15]
 650:Middlewares/ST/STM32_USB_Device_Library/Core/Src/usbd_ctlreq.c **** 
 651:Middlewares/ST/STM32_USB_Device_Library/Core/Src/usbd_ctlreq.c ****         if (ret != USBD_OK)
 1570              		.loc 2 651 12
 1571 0060 FB7B     		ldrb	r3, [r7, #15]	@ zero_extendqisi2
 1572 0062 002B     		cmp	r3, #0
 1573 0064 04D0     		beq	.L129
 652:Middlewares/ST/STM32_USB_Device_Library/Core/Src/usbd_ctlreq.c ****         {
 653:Middlewares/ST/STM32_USB_Device_Library/Core/Src/usbd_ctlreq.c ****           USBD_CtlError(pdev, req);
 1574              		.loc 2 653 11
 1575 0066 3968     		ldr	r1, [r7]
 1576 0068 7868     		ldr	r0, [r7, #4]
 1577 006a FFF7FEFF 		bl	USBD_CtlError
 654:Middlewares/ST/STM32_USB_Device_Library/Core/Src/usbd_ctlreq.c ****         }
 655:Middlewares/ST/STM32_USB_Device_Library/Core/Src/usbd_ctlreq.c ****         else
 656:Middlewares/ST/STM32_USB_Device_Library/Core/Src/usbd_ctlreq.c ****         {
 657:Middlewares/ST/STM32_USB_Device_Library/Core/Src/usbd_ctlreq.c ****           (void)USBD_CtlSendStatus(pdev);
 658:Middlewares/ST/STM32_USB_Device_Library/Core/Src/usbd_ctlreq.c ****           pdev->dev_state = USBD_STATE_CONFIGURED;
 659:Middlewares/ST/STM32_USB_Device_Library/Core/Src/usbd_ctlreq.c ****         }
 660:Middlewares/ST/STM32_USB_Device_Library/Core/Src/usbd_ctlreq.c ****       }
 661:Middlewares/ST/STM32_USB_Device_Library/Core/Src/usbd_ctlreq.c ****       else
 662:Middlewares/ST/STM32_USB_Device_Library/Core/Src/usbd_ctlreq.c ****       {
 663:Middlewares/ST/STM32_USB_Device_Library/Core/Src/usbd_ctlreq.c ****         (void)USBD_CtlSendStatus(pdev);
 664:Middlewares/ST/STM32_USB_Device_Library/Core/Src/usbd_ctlreq.c ****       }
 665:Middlewares/ST/STM32_USB_Device_Library/Core/Src/usbd_ctlreq.c ****       break;
 1578              		.loc 2 665 7
 1579 006e 65E0     		b	.L131
 1580              	.L129:
 657:Middlewares/ST/STM32_USB_Device_Library/Core/Src/usbd_ctlreq.c ****           pdev->dev_state = USBD_STATE_CONFIGURED;
 1581              		.loc 2 657 17
 1582 0070 7868     		ldr	r0, [r7, #4]
 1583 0072 FFF7FEFF 		bl	USBD_CtlSendStatus
 658:Middlewares/ST/STM32_USB_Device_Library/Core/Src/usbd_ctlreq.c ****         }
 1584              		.loc 2 658 27
 1585 0076 7B68     		ldr	r3, [r7, #4]
 1586 0078 0322     		movs	r2, #3
 1587 007a 83F89C22 		strb	r2, [r3, #668]
 1588              		.loc 2 665 7
 1589 007e 5DE0     		b	.L131
 1590              	.L128:
 663:Middlewares/ST/STM32_USB_Device_Library/Core/Src/usbd_ctlreq.c ****       }
 1591              		.loc 2 663 15
 1592 0080 7868     		ldr	r0, [r7, #4]
 1593 0082 FFF7FEFF 		bl	USBD_CtlSendStatus
 1594              		.loc 2 665 7
 1595 0086 59E0     		b	.L131
 1596              	.L126:
 666:Middlewares/ST/STM32_USB_Device_Library/Core/Src/usbd_ctlreq.c **** 
 667:Middlewares/ST/STM32_USB_Device_Library/Core/Src/usbd_ctlreq.c ****     case USBD_STATE_CONFIGURED:
ARM GAS  /var/folders/vq/qt4vp3kd5rxf7v2b6_fdtdt80000gn/T//ccb7F33r.s 			page 47


 668:Middlewares/ST/STM32_USB_Device_Library/Core/Src/usbd_ctlreq.c ****       if (cfgidx == 0U)
 1597              		.loc 2 668 18
 1598 0088 2F4B     		ldr	r3, .L137
 1599 008a 1B78     		ldrb	r3, [r3]	@ zero_extendqisi2
 1600              		.loc 2 668 10
 1601 008c 002B     		cmp	r3, #0
 1602 008e 12D1     		bne	.L132
 669:Middlewares/ST/STM32_USB_Device_Library/Core/Src/usbd_ctlreq.c ****       {
 670:Middlewares/ST/STM32_USB_Device_Library/Core/Src/usbd_ctlreq.c ****         pdev->dev_state = USBD_STATE_ADDRESSED;
 1603              		.loc 2 670 25
 1604 0090 7B68     		ldr	r3, [r7, #4]
 1605 0092 0222     		movs	r2, #2
 1606 0094 83F89C22 		strb	r2, [r3, #668]
 671:Middlewares/ST/STM32_USB_Device_Library/Core/Src/usbd_ctlreq.c ****         pdev->dev_config = cfgidx;
 1607              		.loc 2 671 26
 1608 0098 2B4B     		ldr	r3, .L137
 1609 009a 1B78     		ldrb	r3, [r3]	@ zero_extendqisi2
 1610 009c 1A46     		mov	r2, r3
 1611 009e 7B68     		ldr	r3, [r7, #4]
 1612 00a0 5A60     		str	r2, [r3, #4]
 672:Middlewares/ST/STM32_USB_Device_Library/Core/Src/usbd_ctlreq.c ****         (void)USBD_ClrClassConfig(pdev, cfgidx);
 1613              		.loc 2 672 9
 1614 00a2 294B     		ldr	r3, .L137
 1615 00a4 1B78     		ldrb	r3, [r3]	@ zero_extendqisi2
 1616              		.loc 2 672 15
 1617 00a6 1946     		mov	r1, r3
 1618 00a8 7868     		ldr	r0, [r7, #4]
 1619 00aa FFF7FEFF 		bl	USBD_ClrClassConfig
 673:Middlewares/ST/STM32_USB_Device_Library/Core/Src/usbd_ctlreq.c ****         (void)USBD_CtlSendStatus(pdev);
 1620              		.loc 2 673 15
 1621 00ae 7868     		ldr	r0, [r7, #4]
 1622 00b0 FFF7FEFF 		bl	USBD_CtlSendStatus
 674:Middlewares/ST/STM32_USB_Device_Library/Core/Src/usbd_ctlreq.c ****       }
 675:Middlewares/ST/STM32_USB_Device_Library/Core/Src/usbd_ctlreq.c ****       else if (cfgidx != pdev->dev_config)
 676:Middlewares/ST/STM32_USB_Device_Library/Core/Src/usbd_ctlreq.c ****       {
 677:Middlewares/ST/STM32_USB_Device_Library/Core/Src/usbd_ctlreq.c ****         /* Clear old configuration */
 678:Middlewares/ST/STM32_USB_Device_Library/Core/Src/usbd_ctlreq.c ****         (void)USBD_ClrClassConfig(pdev, (uint8_t)pdev->dev_config);
 679:Middlewares/ST/STM32_USB_Device_Library/Core/Src/usbd_ctlreq.c **** 
 680:Middlewares/ST/STM32_USB_Device_Library/Core/Src/usbd_ctlreq.c ****         /* set new configuration */
 681:Middlewares/ST/STM32_USB_Device_Library/Core/Src/usbd_ctlreq.c ****         pdev->dev_config = cfgidx;
 682:Middlewares/ST/STM32_USB_Device_Library/Core/Src/usbd_ctlreq.c **** 
 683:Middlewares/ST/STM32_USB_Device_Library/Core/Src/usbd_ctlreq.c ****         ret = USBD_SetClassConfig(pdev, cfgidx);
 684:Middlewares/ST/STM32_USB_Device_Library/Core/Src/usbd_ctlreq.c **** 
 685:Middlewares/ST/STM32_USB_Device_Library/Core/Src/usbd_ctlreq.c ****         if (ret != USBD_OK)
 686:Middlewares/ST/STM32_USB_Device_Library/Core/Src/usbd_ctlreq.c ****         {
 687:Middlewares/ST/STM32_USB_Device_Library/Core/Src/usbd_ctlreq.c ****           USBD_CtlError(pdev, req);
 688:Middlewares/ST/STM32_USB_Device_Library/Core/Src/usbd_ctlreq.c ****           (void)USBD_ClrClassConfig(pdev, (uint8_t)pdev->dev_config);
 689:Middlewares/ST/STM32_USB_Device_Library/Core/Src/usbd_ctlreq.c ****           pdev->dev_state = USBD_STATE_ADDRESSED;
 690:Middlewares/ST/STM32_USB_Device_Library/Core/Src/usbd_ctlreq.c ****         }
 691:Middlewares/ST/STM32_USB_Device_Library/Core/Src/usbd_ctlreq.c ****         else
 692:Middlewares/ST/STM32_USB_Device_Library/Core/Src/usbd_ctlreq.c ****         {
 693:Middlewares/ST/STM32_USB_Device_Library/Core/Src/usbd_ctlreq.c ****           (void)USBD_CtlSendStatus(pdev);
 694:Middlewares/ST/STM32_USB_Device_Library/Core/Src/usbd_ctlreq.c ****         }
 695:Middlewares/ST/STM32_USB_Device_Library/Core/Src/usbd_ctlreq.c ****       }
 696:Middlewares/ST/STM32_USB_Device_Library/Core/Src/usbd_ctlreq.c ****       else
 697:Middlewares/ST/STM32_USB_Device_Library/Core/Src/usbd_ctlreq.c ****       {
 698:Middlewares/ST/STM32_USB_Device_Library/Core/Src/usbd_ctlreq.c ****         (void)USBD_CtlSendStatus(pdev);
ARM GAS  /var/folders/vq/qt4vp3kd5rxf7v2b6_fdtdt80000gn/T//ccb7F33r.s 			page 48


 699:Middlewares/ST/STM32_USB_Device_Library/Core/Src/usbd_ctlreq.c ****       }
 700:Middlewares/ST/STM32_USB_Device_Library/Core/Src/usbd_ctlreq.c ****       break;
 1623              		.loc 2 700 7
 1624 00b4 42E0     		b	.L131
 1625              	.L132:
 675:Middlewares/ST/STM32_USB_Device_Library/Core/Src/usbd_ctlreq.c ****       {
 1626              		.loc 2 675 23
 1627 00b6 244B     		ldr	r3, .L137
 1628 00b8 1B78     		ldrb	r3, [r3]	@ zero_extendqisi2
 1629 00ba 1A46     		mov	r2, r3
 675:Middlewares/ST/STM32_USB_Device_Library/Core/Src/usbd_ctlreq.c ****       {
 1630              		.loc 2 675 30
 1631 00bc 7B68     		ldr	r3, [r7, #4]
 1632 00be 5B68     		ldr	r3, [r3, #4]
 675:Middlewares/ST/STM32_USB_Device_Library/Core/Src/usbd_ctlreq.c ****       {
 1633              		.loc 2 675 15
 1634 00c0 9A42     		cmp	r2, r3
 1635 00c2 2AD0     		beq	.L134
 678:Middlewares/ST/STM32_USB_Device_Library/Core/Src/usbd_ctlreq.c **** 
 1636              		.loc 2 678 54
 1637 00c4 7B68     		ldr	r3, [r7, #4]
 1638 00c6 5B68     		ldr	r3, [r3, #4]
 678:Middlewares/ST/STM32_USB_Device_Library/Core/Src/usbd_ctlreq.c **** 
 1639              		.loc 2 678 15
 1640 00c8 DBB2     		uxtb	r3, r3
 1641 00ca 1946     		mov	r1, r3
 1642 00cc 7868     		ldr	r0, [r7, #4]
 1643 00ce FFF7FEFF 		bl	USBD_ClrClassConfig
 681:Middlewares/ST/STM32_USB_Device_Library/Core/Src/usbd_ctlreq.c **** 
 1644              		.loc 2 681 26
 1645 00d2 1D4B     		ldr	r3, .L137
 1646 00d4 1B78     		ldrb	r3, [r3]	@ zero_extendqisi2
 1647 00d6 1A46     		mov	r2, r3
 1648 00d8 7B68     		ldr	r3, [r7, #4]
 1649 00da 5A60     		str	r2, [r3, #4]
 683:Middlewares/ST/STM32_USB_Device_Library/Core/Src/usbd_ctlreq.c **** 
 1650              		.loc 2 683 15
 1651 00dc 1A4B     		ldr	r3, .L137
 1652 00de 1B78     		ldrb	r3, [r3]	@ zero_extendqisi2
 1653 00e0 1946     		mov	r1, r3
 1654 00e2 7868     		ldr	r0, [r7, #4]
 1655 00e4 FFF7FEFF 		bl	USBD_SetClassConfig
 1656 00e8 0346     		mov	r3, r0
 1657 00ea FB73     		strb	r3, [r7, #15]
 685:Middlewares/ST/STM32_USB_Device_Library/Core/Src/usbd_ctlreq.c ****         {
 1658              		.loc 2 685 12
 1659 00ec FB7B     		ldrb	r3, [r7, #15]	@ zero_extendqisi2
 1660 00ee 002B     		cmp	r3, #0
 1661 00f0 0FD0     		beq	.L135
 687:Middlewares/ST/STM32_USB_Device_Library/Core/Src/usbd_ctlreq.c ****           (void)USBD_ClrClassConfig(pdev, (uint8_t)pdev->dev_config);
 1662              		.loc 2 687 11
 1663 00f2 3968     		ldr	r1, [r7]
 1664 00f4 7868     		ldr	r0, [r7, #4]
 1665 00f6 FFF7FEFF 		bl	USBD_CtlError
 688:Middlewares/ST/STM32_USB_Device_Library/Core/Src/usbd_ctlreq.c ****           pdev->dev_state = USBD_STATE_ADDRESSED;
 1666              		.loc 2 688 56
 1667 00fa 7B68     		ldr	r3, [r7, #4]
ARM GAS  /var/folders/vq/qt4vp3kd5rxf7v2b6_fdtdt80000gn/T//ccb7F33r.s 			page 49


 1668 00fc 5B68     		ldr	r3, [r3, #4]
 688:Middlewares/ST/STM32_USB_Device_Library/Core/Src/usbd_ctlreq.c ****           pdev->dev_state = USBD_STATE_ADDRESSED;
 1669              		.loc 2 688 17
 1670 00fe DBB2     		uxtb	r3, r3
 1671 0100 1946     		mov	r1, r3
 1672 0102 7868     		ldr	r0, [r7, #4]
 1673 0104 FFF7FEFF 		bl	USBD_ClrClassConfig
 689:Middlewares/ST/STM32_USB_Device_Library/Core/Src/usbd_ctlreq.c ****         }
 1674              		.loc 2 689 27
 1675 0108 7B68     		ldr	r3, [r7, #4]
 1676 010a 0222     		movs	r2, #2
 1677 010c 83F89C22 		strb	r2, [r3, #668]
 1678              		.loc 2 700 7
 1679 0110 14E0     		b	.L131
 1680              	.L135:
 693:Middlewares/ST/STM32_USB_Device_Library/Core/Src/usbd_ctlreq.c ****         }
 1681              		.loc 2 693 17
 1682 0112 7868     		ldr	r0, [r7, #4]
 1683 0114 FFF7FEFF 		bl	USBD_CtlSendStatus
 1684              		.loc 2 700 7
 1685 0118 10E0     		b	.L131
 1686              	.L134:
 698:Middlewares/ST/STM32_USB_Device_Library/Core/Src/usbd_ctlreq.c ****       }
 1687              		.loc 2 698 15
 1688 011a 7868     		ldr	r0, [r7, #4]
 1689 011c FFF7FEFF 		bl	USBD_CtlSendStatus
 1690              		.loc 2 700 7
 1691 0120 0CE0     		b	.L131
 1692              	.L136:
 701:Middlewares/ST/STM32_USB_Device_Library/Core/Src/usbd_ctlreq.c **** 
 702:Middlewares/ST/STM32_USB_Device_Library/Core/Src/usbd_ctlreq.c ****     default:
 703:Middlewares/ST/STM32_USB_Device_Library/Core/Src/usbd_ctlreq.c ****       USBD_CtlError(pdev, req);
 1693              		.loc 2 703 7
 1694 0122 3968     		ldr	r1, [r7]
 1695 0124 7868     		ldr	r0, [r7, #4]
 1696 0126 FFF7FEFF 		bl	USBD_CtlError
 704:Middlewares/ST/STM32_USB_Device_Library/Core/Src/usbd_ctlreq.c ****       (void)USBD_ClrClassConfig(pdev, cfgidx);
 1697              		.loc 2 704 7
 1698 012a 074B     		ldr	r3, .L137
 1699 012c 1B78     		ldrb	r3, [r3]	@ zero_extendqisi2
 1700              		.loc 2 704 13
 1701 012e 1946     		mov	r1, r3
 1702 0130 7868     		ldr	r0, [r7, #4]
 1703 0132 FFF7FEFF 		bl	USBD_ClrClassConfig
 705:Middlewares/ST/STM32_USB_Device_Library/Core/Src/usbd_ctlreq.c ****       ret = USBD_FAIL;
 1704              		.loc 2 705 11
 1705 0136 0323     		movs	r3, #3
 1706 0138 FB73     		strb	r3, [r7, #15]
 706:Middlewares/ST/STM32_USB_Device_Library/Core/Src/usbd_ctlreq.c ****       break;
 1707              		.loc 2 706 7
 1708 013a 00BF     		nop
 1709              	.L131:
 707:Middlewares/ST/STM32_USB_Device_Library/Core/Src/usbd_ctlreq.c ****   }
 708:Middlewares/ST/STM32_USB_Device_Library/Core/Src/usbd_ctlreq.c **** 
 709:Middlewares/ST/STM32_USB_Device_Library/Core/Src/usbd_ctlreq.c ****   return ret;
 1710              		.loc 2 709 10
 1711 013c FB7B     		ldrb	r3, [r7, #15]	@ zero_extendqisi2
ARM GAS  /var/folders/vq/qt4vp3kd5rxf7v2b6_fdtdt80000gn/T//ccb7F33r.s 			page 50


 1712              	.L124:
 710:Middlewares/ST/STM32_USB_Device_Library/Core/Src/usbd_ctlreq.c **** }
 1713              		.loc 2 710 1
 1714 013e 1846     		mov	r0, r3
 1715 0140 1037     		adds	r7, r7, #16
 1716              	.LCFI34:
 1717              		.cfi_def_cfa_offset 8
 1718 0142 BD46     		mov	sp, r7
 1719              	.LCFI35:
 1720              		.cfi_def_cfa_register 13
 1721              		@ sp needed
 1722 0144 80BD     		pop	{r7, pc}
 1723              	.L138:
 1724 0146 00BF     		.align	2
 1725              	.L137:
 1726 0148 00000000 		.word	cfgidx.9901
 1727              		.cfi_endproc
 1728              	.LFE139:
 1730              		.section	.text.USBD_GetConfig,"ax",%progbits
 1731              		.align	1
 1732              		.syntax unified
 1733              		.thumb
 1734              		.thumb_func
 1735              		.fpu fpv4-sp-d16
 1737              	USBD_GetConfig:
 1738              	.LFB140:
 711:Middlewares/ST/STM32_USB_Device_Library/Core/Src/usbd_ctlreq.c **** 
 712:Middlewares/ST/STM32_USB_Device_Library/Core/Src/usbd_ctlreq.c **** /**
 713:Middlewares/ST/STM32_USB_Device_Library/Core/Src/usbd_ctlreq.c ****   * @brief  USBD_GetConfig
 714:Middlewares/ST/STM32_USB_Device_Library/Core/Src/usbd_ctlreq.c ****   *         Handle Get device configuration request
 715:Middlewares/ST/STM32_USB_Device_Library/Core/Src/usbd_ctlreq.c ****   * @param  pdev: device instance
 716:Middlewares/ST/STM32_USB_Device_Library/Core/Src/usbd_ctlreq.c ****   * @param  req: usb request
 717:Middlewares/ST/STM32_USB_Device_Library/Core/Src/usbd_ctlreq.c ****   * @retval status
 718:Middlewares/ST/STM32_USB_Device_Library/Core/Src/usbd_ctlreq.c ****   */
 719:Middlewares/ST/STM32_USB_Device_Library/Core/Src/usbd_ctlreq.c **** static void USBD_GetConfig(USBD_HandleTypeDef *pdev, USBD_SetupReqTypedef *req)
 720:Middlewares/ST/STM32_USB_Device_Library/Core/Src/usbd_ctlreq.c **** {
 1739              		.loc 2 720 1
 1740              		.cfi_startproc
 1741              		@ args = 0, pretend = 0, frame = 8
 1742              		@ frame_needed = 1, uses_anonymous_args = 0
 1743 0000 80B5     		push	{r7, lr}
 1744              	.LCFI36:
 1745              		.cfi_def_cfa_offset 8
 1746              		.cfi_offset 7, -8
 1747              		.cfi_offset 14, -4
 1748 0002 82B0     		sub	sp, sp, #8
 1749              	.LCFI37:
 1750              		.cfi_def_cfa_offset 16
 1751 0004 00AF     		add	r7, sp, #0
 1752              	.LCFI38:
 1753              		.cfi_def_cfa_register 7
 1754 0006 7860     		str	r0, [r7, #4]
 1755 0008 3960     		str	r1, [r7]
 721:Middlewares/ST/STM32_USB_Device_Library/Core/Src/usbd_ctlreq.c ****   if (req->wLength != 1U)
 1756              		.loc 2 721 10
 1757 000a 3B68     		ldr	r3, [r7]
 1758 000c DB88     		ldrh	r3, [r3, #6]
ARM GAS  /var/folders/vq/qt4vp3kd5rxf7v2b6_fdtdt80000gn/T//ccb7F33r.s 			page 51


 1759              		.loc 2 721 6
 1760 000e 012B     		cmp	r3, #1
 1761 0010 04D0     		beq	.L140
 722:Middlewares/ST/STM32_USB_Device_Library/Core/Src/usbd_ctlreq.c ****   {
 723:Middlewares/ST/STM32_USB_Device_Library/Core/Src/usbd_ctlreq.c ****     USBD_CtlError(pdev, req);
 1762              		.loc 2 723 5
 1763 0012 3968     		ldr	r1, [r7]
 1764 0014 7868     		ldr	r0, [r7, #4]
 1765 0016 FFF7FEFF 		bl	USBD_CtlError
 724:Middlewares/ST/STM32_USB_Device_Library/Core/Src/usbd_ctlreq.c ****   }
 725:Middlewares/ST/STM32_USB_Device_Library/Core/Src/usbd_ctlreq.c ****   else
 726:Middlewares/ST/STM32_USB_Device_Library/Core/Src/usbd_ctlreq.c ****   {
 727:Middlewares/ST/STM32_USB_Device_Library/Core/Src/usbd_ctlreq.c ****     switch (pdev->dev_state)
 728:Middlewares/ST/STM32_USB_Device_Library/Core/Src/usbd_ctlreq.c ****     {
 729:Middlewares/ST/STM32_USB_Device_Library/Core/Src/usbd_ctlreq.c ****       case USBD_STATE_DEFAULT:
 730:Middlewares/ST/STM32_USB_Device_Library/Core/Src/usbd_ctlreq.c ****       case USBD_STATE_ADDRESSED:
 731:Middlewares/ST/STM32_USB_Device_Library/Core/Src/usbd_ctlreq.c ****         pdev->dev_default_config = 0U;
 732:Middlewares/ST/STM32_USB_Device_Library/Core/Src/usbd_ctlreq.c ****         (void)USBD_CtlSendData(pdev, (uint8_t *)&pdev->dev_default_config, 1U);
 733:Middlewares/ST/STM32_USB_Device_Library/Core/Src/usbd_ctlreq.c ****         break;
 734:Middlewares/ST/STM32_USB_Device_Library/Core/Src/usbd_ctlreq.c **** 
 735:Middlewares/ST/STM32_USB_Device_Library/Core/Src/usbd_ctlreq.c ****       case USBD_STATE_CONFIGURED:
 736:Middlewares/ST/STM32_USB_Device_Library/Core/Src/usbd_ctlreq.c ****         (void)USBD_CtlSendData(pdev, (uint8_t *)&pdev->dev_config, 1U);
 737:Middlewares/ST/STM32_USB_Device_Library/Core/Src/usbd_ctlreq.c ****         break;
 738:Middlewares/ST/STM32_USB_Device_Library/Core/Src/usbd_ctlreq.c **** 
 739:Middlewares/ST/STM32_USB_Device_Library/Core/Src/usbd_ctlreq.c ****       default:
 740:Middlewares/ST/STM32_USB_Device_Library/Core/Src/usbd_ctlreq.c ****         USBD_CtlError(pdev, req);
 741:Middlewares/ST/STM32_USB_Device_Library/Core/Src/usbd_ctlreq.c ****         break;
 742:Middlewares/ST/STM32_USB_Device_Library/Core/Src/usbd_ctlreq.c ****     }
 743:Middlewares/ST/STM32_USB_Device_Library/Core/Src/usbd_ctlreq.c ****   }
 744:Middlewares/ST/STM32_USB_Device_Library/Core/Src/usbd_ctlreq.c **** }
 1766              		.loc 2 744 1
 1767 001a 23E0     		b	.L146
 1768              	.L140:
 727:Middlewares/ST/STM32_USB_Device_Library/Core/Src/usbd_ctlreq.c ****     {
 1769              		.loc 2 727 17
 1770 001c 7B68     		ldr	r3, [r7, #4]
 1771 001e 93F89C32 		ldrb	r3, [r3, #668]
 1772 0022 DBB2     		uxtb	r3, r3
 727:Middlewares/ST/STM32_USB_Device_Library/Core/Src/usbd_ctlreq.c ****     {
 1773              		.loc 2 727 5
 1774 0024 022B     		cmp	r3, #2
 1775 0026 02DC     		bgt	.L142
 1776 0028 002B     		cmp	r3, #0
 1777 002a 03DC     		bgt	.L143
 1778 002c 15E0     		b	.L144
 1779              	.L142:
 1780 002e 032B     		cmp	r3, #3
 1781 0030 0BD0     		beq	.L145
 1782 0032 12E0     		b	.L144
 1783              	.L143:
 731:Middlewares/ST/STM32_USB_Device_Library/Core/Src/usbd_ctlreq.c ****         (void)USBD_CtlSendData(pdev, (uint8_t *)&pdev->dev_default_config, 1U);
 1784              		.loc 2 731 34
 1785 0034 7B68     		ldr	r3, [r7, #4]
 1786 0036 0022     		movs	r2, #0
 1787 0038 9A60     		str	r2, [r3, #8]
 732:Middlewares/ST/STM32_USB_Device_Library/Core/Src/usbd_ctlreq.c ****         break;
 1788              		.loc 2 732 49
ARM GAS  /var/folders/vq/qt4vp3kd5rxf7v2b6_fdtdt80000gn/T//ccb7F33r.s 			page 52


 1789 003a 7B68     		ldr	r3, [r7, #4]
 1790 003c 0833     		adds	r3, r3, #8
 732:Middlewares/ST/STM32_USB_Device_Library/Core/Src/usbd_ctlreq.c ****         break;
 1791              		.loc 2 732 15
 1792 003e 0122     		movs	r2, #1
 1793 0040 1946     		mov	r1, r3
 1794 0042 7868     		ldr	r0, [r7, #4]
 1795 0044 FFF7FEFF 		bl	USBD_CtlSendData
 733:Middlewares/ST/STM32_USB_Device_Library/Core/Src/usbd_ctlreq.c **** 
 1796              		.loc 2 733 9
 1797 0048 0CE0     		b	.L141
 1798              	.L145:
 736:Middlewares/ST/STM32_USB_Device_Library/Core/Src/usbd_ctlreq.c ****         break;
 1799              		.loc 2 736 49
 1800 004a 7B68     		ldr	r3, [r7, #4]
 1801 004c 0433     		adds	r3, r3, #4
 736:Middlewares/ST/STM32_USB_Device_Library/Core/Src/usbd_ctlreq.c ****         break;
 1802              		.loc 2 736 15
 1803 004e 0122     		movs	r2, #1
 1804 0050 1946     		mov	r1, r3
 1805 0052 7868     		ldr	r0, [r7, #4]
 1806 0054 FFF7FEFF 		bl	USBD_CtlSendData
 737:Middlewares/ST/STM32_USB_Device_Library/Core/Src/usbd_ctlreq.c **** 
 1807              		.loc 2 737 9
 1808 0058 04E0     		b	.L141
 1809              	.L144:
 740:Middlewares/ST/STM32_USB_Device_Library/Core/Src/usbd_ctlreq.c ****         break;
 1810              		.loc 2 740 9
 1811 005a 3968     		ldr	r1, [r7]
 1812 005c 7868     		ldr	r0, [r7, #4]
 1813 005e FFF7FEFF 		bl	USBD_CtlError
 741:Middlewares/ST/STM32_USB_Device_Library/Core/Src/usbd_ctlreq.c ****     }
 1814              		.loc 2 741 9
 1815 0062 00BF     		nop
 1816              	.L141:
 1817              	.L146:
 1818              		.loc 2 744 1
 1819 0064 00BF     		nop
 1820 0066 0837     		adds	r7, r7, #8
 1821              	.LCFI39:
 1822              		.cfi_def_cfa_offset 8
 1823 0068 BD46     		mov	sp, r7
 1824              	.LCFI40:
 1825              		.cfi_def_cfa_register 13
 1826              		@ sp needed
 1827 006a 80BD     		pop	{r7, pc}
 1828              		.cfi_endproc
 1829              	.LFE140:
 1831              		.section	.text.USBD_GetStatus,"ax",%progbits
 1832              		.align	1
 1833              		.syntax unified
 1834              		.thumb
 1835              		.thumb_func
 1836              		.fpu fpv4-sp-d16
 1838              	USBD_GetStatus:
 1839              	.LFB141:
 745:Middlewares/ST/STM32_USB_Device_Library/Core/Src/usbd_ctlreq.c **** 
ARM GAS  /var/folders/vq/qt4vp3kd5rxf7v2b6_fdtdt80000gn/T//ccb7F33r.s 			page 53


 746:Middlewares/ST/STM32_USB_Device_Library/Core/Src/usbd_ctlreq.c **** /**
 747:Middlewares/ST/STM32_USB_Device_Library/Core/Src/usbd_ctlreq.c ****   * @brief  USBD_GetStatus
 748:Middlewares/ST/STM32_USB_Device_Library/Core/Src/usbd_ctlreq.c ****   *         Handle Get Status request
 749:Middlewares/ST/STM32_USB_Device_Library/Core/Src/usbd_ctlreq.c ****   * @param  pdev: device instance
 750:Middlewares/ST/STM32_USB_Device_Library/Core/Src/usbd_ctlreq.c ****   * @param  req: usb request
 751:Middlewares/ST/STM32_USB_Device_Library/Core/Src/usbd_ctlreq.c ****   * @retval status
 752:Middlewares/ST/STM32_USB_Device_Library/Core/Src/usbd_ctlreq.c ****   */
 753:Middlewares/ST/STM32_USB_Device_Library/Core/Src/usbd_ctlreq.c **** static void USBD_GetStatus(USBD_HandleTypeDef *pdev, USBD_SetupReqTypedef *req)
 754:Middlewares/ST/STM32_USB_Device_Library/Core/Src/usbd_ctlreq.c **** {
 1840              		.loc 2 754 1
 1841              		.cfi_startproc
 1842              		@ args = 0, pretend = 0, frame = 8
 1843              		@ frame_needed = 1, uses_anonymous_args = 0
 1844 0000 80B5     		push	{r7, lr}
 1845              	.LCFI41:
 1846              		.cfi_def_cfa_offset 8
 1847              		.cfi_offset 7, -8
 1848              		.cfi_offset 14, -4
 1849 0002 82B0     		sub	sp, sp, #8
 1850              	.LCFI42:
 1851              		.cfi_def_cfa_offset 16
 1852 0004 00AF     		add	r7, sp, #0
 1853              	.LCFI43:
 1854              		.cfi_def_cfa_register 7
 1855 0006 7860     		str	r0, [r7, #4]
 1856 0008 3960     		str	r1, [r7]
 755:Middlewares/ST/STM32_USB_Device_Library/Core/Src/usbd_ctlreq.c ****   switch (pdev->dev_state)
 1857              		.loc 2 755 15
 1858 000a 7B68     		ldr	r3, [r7, #4]
 1859 000c 93F89C32 		ldrb	r3, [r3, #668]
 1860 0010 DBB2     		uxtb	r3, r3
 1861 0012 013B     		subs	r3, r3, #1
 1862              		.loc 2 755 3
 1863 0014 022B     		cmp	r3, #2
 1864 0016 1ED8     		bhi	.L148
 756:Middlewares/ST/STM32_USB_Device_Library/Core/Src/usbd_ctlreq.c ****   {
 757:Middlewares/ST/STM32_USB_Device_Library/Core/Src/usbd_ctlreq.c ****     case USBD_STATE_DEFAULT:
 758:Middlewares/ST/STM32_USB_Device_Library/Core/Src/usbd_ctlreq.c ****     case USBD_STATE_ADDRESSED:
 759:Middlewares/ST/STM32_USB_Device_Library/Core/Src/usbd_ctlreq.c ****     case USBD_STATE_CONFIGURED:
 760:Middlewares/ST/STM32_USB_Device_Library/Core/Src/usbd_ctlreq.c ****       if (req->wLength != 0x2U)
 1865              		.loc 2 760 14
 1866 0018 3B68     		ldr	r3, [r7]
 1867 001a DB88     		ldrh	r3, [r3, #6]
 1868              		.loc 2 760 10
 1869 001c 022B     		cmp	r3, #2
 1870 001e 04D0     		beq	.L149
 761:Middlewares/ST/STM32_USB_Device_Library/Core/Src/usbd_ctlreq.c ****       {
 762:Middlewares/ST/STM32_USB_Device_Library/Core/Src/usbd_ctlreq.c ****         USBD_CtlError(pdev, req);
 1871              		.loc 2 762 9
 1872 0020 3968     		ldr	r1, [r7]
 1873 0022 7868     		ldr	r0, [r7, #4]
 1874 0024 FFF7FEFF 		bl	USBD_CtlError
 763:Middlewares/ST/STM32_USB_Device_Library/Core/Src/usbd_ctlreq.c ****         break;
 1875              		.loc 2 763 9
 1876 0028 1AE0     		b	.L150
 1877              	.L149:
 764:Middlewares/ST/STM32_USB_Device_Library/Core/Src/usbd_ctlreq.c ****       }
ARM GAS  /var/folders/vq/qt4vp3kd5rxf7v2b6_fdtdt80000gn/T//ccb7F33r.s 			page 54


 765:Middlewares/ST/STM32_USB_Device_Library/Core/Src/usbd_ctlreq.c **** 
 766:Middlewares/ST/STM32_USB_Device_Library/Core/Src/usbd_ctlreq.c **** #if (USBD_SELF_POWERED == 1U)
 767:Middlewares/ST/STM32_USB_Device_Library/Core/Src/usbd_ctlreq.c ****       pdev->dev_config_status = USB_CONFIG_SELF_POWERED;
 1878              		.loc 2 767 31
 1879 002a 7B68     		ldr	r3, [r7, #4]
 1880 002c 0122     		movs	r2, #1
 1881 002e DA60     		str	r2, [r3, #12]
 768:Middlewares/ST/STM32_USB_Device_Library/Core/Src/usbd_ctlreq.c **** #else
 769:Middlewares/ST/STM32_USB_Device_Library/Core/Src/usbd_ctlreq.c ****       pdev->dev_config_status = 0U;
 770:Middlewares/ST/STM32_USB_Device_Library/Core/Src/usbd_ctlreq.c **** #endif
 771:Middlewares/ST/STM32_USB_Device_Library/Core/Src/usbd_ctlreq.c **** 
 772:Middlewares/ST/STM32_USB_Device_Library/Core/Src/usbd_ctlreq.c ****       if (pdev->dev_remote_wakeup != 0U)
 1882              		.loc 2 772 15
 1883 0030 7B68     		ldr	r3, [r7, #4]
 1884 0032 D3F8A432 		ldr	r3, [r3, #676]
 1885              		.loc 2 772 10
 1886 0036 002B     		cmp	r3, #0
 1887 0038 05D0     		beq	.L151
 773:Middlewares/ST/STM32_USB_Device_Library/Core/Src/usbd_ctlreq.c ****       {
 774:Middlewares/ST/STM32_USB_Device_Library/Core/Src/usbd_ctlreq.c ****         pdev->dev_config_status |= USB_CONFIG_REMOTE_WAKEUP;
 1888              		.loc 2 774 33
 1889 003a 7B68     		ldr	r3, [r7, #4]
 1890 003c DB68     		ldr	r3, [r3, #12]
 1891 003e 43F00202 		orr	r2, r3, #2
 1892 0042 7B68     		ldr	r3, [r7, #4]
 1893 0044 DA60     		str	r2, [r3, #12]
 1894              	.L151:
 775:Middlewares/ST/STM32_USB_Device_Library/Core/Src/usbd_ctlreq.c ****       }
 776:Middlewares/ST/STM32_USB_Device_Library/Core/Src/usbd_ctlreq.c **** 
 777:Middlewares/ST/STM32_USB_Device_Library/Core/Src/usbd_ctlreq.c ****       (void)USBD_CtlSendData(pdev, (uint8_t *)&pdev->dev_config_status, 2U);
 1895              		.loc 2 777 47
 1896 0046 7B68     		ldr	r3, [r7, #4]
 1897 0048 0C33     		adds	r3, r3, #12
 1898              		.loc 2 777 13
 1899 004a 0222     		movs	r2, #2
 1900 004c 1946     		mov	r1, r3
 1901 004e 7868     		ldr	r0, [r7, #4]
 1902 0050 FFF7FEFF 		bl	USBD_CtlSendData
 778:Middlewares/ST/STM32_USB_Device_Library/Core/Src/usbd_ctlreq.c ****       break;
 1903              		.loc 2 778 7
 1904 0054 04E0     		b	.L150
 1905              	.L148:
 779:Middlewares/ST/STM32_USB_Device_Library/Core/Src/usbd_ctlreq.c **** 
 780:Middlewares/ST/STM32_USB_Device_Library/Core/Src/usbd_ctlreq.c ****     default:
 781:Middlewares/ST/STM32_USB_Device_Library/Core/Src/usbd_ctlreq.c ****       USBD_CtlError(pdev, req);
 1906              		.loc 2 781 7
 1907 0056 3968     		ldr	r1, [r7]
 1908 0058 7868     		ldr	r0, [r7, #4]
 1909 005a FFF7FEFF 		bl	USBD_CtlError
 782:Middlewares/ST/STM32_USB_Device_Library/Core/Src/usbd_ctlreq.c ****       break;
 1910              		.loc 2 782 7
 1911 005e 00BF     		nop
 1912              	.L150:
 783:Middlewares/ST/STM32_USB_Device_Library/Core/Src/usbd_ctlreq.c ****   }
 784:Middlewares/ST/STM32_USB_Device_Library/Core/Src/usbd_ctlreq.c **** }
 1913              		.loc 2 784 1
 1914 0060 00BF     		nop
ARM GAS  /var/folders/vq/qt4vp3kd5rxf7v2b6_fdtdt80000gn/T//ccb7F33r.s 			page 55


 1915 0062 0837     		adds	r7, r7, #8
 1916              	.LCFI44:
 1917              		.cfi_def_cfa_offset 8
 1918 0064 BD46     		mov	sp, r7
 1919              	.LCFI45:
 1920              		.cfi_def_cfa_register 13
 1921              		@ sp needed
 1922 0066 80BD     		pop	{r7, pc}
 1923              		.cfi_endproc
 1924              	.LFE141:
 1926              		.section	.text.USBD_SetFeature,"ax",%progbits
 1927              		.align	1
 1928              		.syntax unified
 1929              		.thumb
 1930              		.thumb_func
 1931              		.fpu fpv4-sp-d16
 1933              	USBD_SetFeature:
 1934              	.LFB142:
 785:Middlewares/ST/STM32_USB_Device_Library/Core/Src/usbd_ctlreq.c **** 
 786:Middlewares/ST/STM32_USB_Device_Library/Core/Src/usbd_ctlreq.c **** 
 787:Middlewares/ST/STM32_USB_Device_Library/Core/Src/usbd_ctlreq.c **** /**
 788:Middlewares/ST/STM32_USB_Device_Library/Core/Src/usbd_ctlreq.c ****   * @brief  USBD_SetFeature
 789:Middlewares/ST/STM32_USB_Device_Library/Core/Src/usbd_ctlreq.c ****   *         Handle Set device feature request
 790:Middlewares/ST/STM32_USB_Device_Library/Core/Src/usbd_ctlreq.c ****   * @param  pdev: device instance
 791:Middlewares/ST/STM32_USB_Device_Library/Core/Src/usbd_ctlreq.c ****   * @param  req: usb request
 792:Middlewares/ST/STM32_USB_Device_Library/Core/Src/usbd_ctlreq.c ****   * @retval status
 793:Middlewares/ST/STM32_USB_Device_Library/Core/Src/usbd_ctlreq.c ****   */
 794:Middlewares/ST/STM32_USB_Device_Library/Core/Src/usbd_ctlreq.c **** static void USBD_SetFeature(USBD_HandleTypeDef *pdev, USBD_SetupReqTypedef *req)
 795:Middlewares/ST/STM32_USB_Device_Library/Core/Src/usbd_ctlreq.c **** {
 1935              		.loc 2 795 1
 1936              		.cfi_startproc
 1937              		@ args = 0, pretend = 0, frame = 8
 1938              		@ frame_needed = 1, uses_anonymous_args = 0
 1939 0000 80B5     		push	{r7, lr}
 1940              	.LCFI46:
 1941              		.cfi_def_cfa_offset 8
 1942              		.cfi_offset 7, -8
 1943              		.cfi_offset 14, -4
 1944 0002 82B0     		sub	sp, sp, #8
 1945              	.LCFI47:
 1946              		.cfi_def_cfa_offset 16
 1947 0004 00AF     		add	r7, sp, #0
 1948              	.LCFI48:
 1949              		.cfi_def_cfa_register 7
 1950 0006 7860     		str	r0, [r7, #4]
 1951 0008 3960     		str	r1, [r7]
 796:Middlewares/ST/STM32_USB_Device_Library/Core/Src/usbd_ctlreq.c ****   if (req->wValue == USB_FEATURE_REMOTE_WAKEUP)
 1952              		.loc 2 796 10
 1953 000a 3B68     		ldr	r3, [r7]
 1954 000c 5B88     		ldrh	r3, [r3, #2]
 1955              		.loc 2 796 6
 1956 000e 012B     		cmp	r3, #1
 1957 0010 06D1     		bne	.L154
 797:Middlewares/ST/STM32_USB_Device_Library/Core/Src/usbd_ctlreq.c ****   {
 798:Middlewares/ST/STM32_USB_Device_Library/Core/Src/usbd_ctlreq.c ****     pdev->dev_remote_wakeup = 1U;
 1958              		.loc 2 798 29
 1959 0012 7B68     		ldr	r3, [r7, #4]
ARM GAS  /var/folders/vq/qt4vp3kd5rxf7v2b6_fdtdt80000gn/T//ccb7F33r.s 			page 56


 1960 0014 0122     		movs	r2, #1
 1961 0016 C3F8A422 		str	r2, [r3, #676]
 799:Middlewares/ST/STM32_USB_Device_Library/Core/Src/usbd_ctlreq.c ****     (void)USBD_CtlSendStatus(pdev);
 1962              		.loc 2 799 11
 1963 001a 7868     		ldr	r0, [r7, #4]
 1964 001c FFF7FEFF 		bl	USBD_CtlSendStatus
 1965              	.L154:
 800:Middlewares/ST/STM32_USB_Device_Library/Core/Src/usbd_ctlreq.c ****   }
 801:Middlewares/ST/STM32_USB_Device_Library/Core/Src/usbd_ctlreq.c **** }
 1966              		.loc 2 801 1
 1967 0020 00BF     		nop
 1968 0022 0837     		adds	r7, r7, #8
 1969              	.LCFI49:
 1970              		.cfi_def_cfa_offset 8
 1971 0024 BD46     		mov	sp, r7
 1972              	.LCFI50:
 1973              		.cfi_def_cfa_register 13
 1974              		@ sp needed
 1975 0026 80BD     		pop	{r7, pc}
 1976              		.cfi_endproc
 1977              	.LFE142:
 1979              		.section	.text.USBD_ClrFeature,"ax",%progbits
 1980              		.align	1
 1981              		.syntax unified
 1982              		.thumb
 1983              		.thumb_func
 1984              		.fpu fpv4-sp-d16
 1986              	USBD_ClrFeature:
 1987              	.LFB143:
 802:Middlewares/ST/STM32_USB_Device_Library/Core/Src/usbd_ctlreq.c **** 
 803:Middlewares/ST/STM32_USB_Device_Library/Core/Src/usbd_ctlreq.c **** 
 804:Middlewares/ST/STM32_USB_Device_Library/Core/Src/usbd_ctlreq.c **** /**
 805:Middlewares/ST/STM32_USB_Device_Library/Core/Src/usbd_ctlreq.c ****   * @brief  USBD_ClrFeature
 806:Middlewares/ST/STM32_USB_Device_Library/Core/Src/usbd_ctlreq.c ****   *         Handle clear device feature request
 807:Middlewares/ST/STM32_USB_Device_Library/Core/Src/usbd_ctlreq.c ****   * @param  pdev: device instance
 808:Middlewares/ST/STM32_USB_Device_Library/Core/Src/usbd_ctlreq.c ****   * @param  req: usb request
 809:Middlewares/ST/STM32_USB_Device_Library/Core/Src/usbd_ctlreq.c ****   * @retval status
 810:Middlewares/ST/STM32_USB_Device_Library/Core/Src/usbd_ctlreq.c ****   */
 811:Middlewares/ST/STM32_USB_Device_Library/Core/Src/usbd_ctlreq.c **** static void USBD_ClrFeature(USBD_HandleTypeDef *pdev, USBD_SetupReqTypedef *req)
 812:Middlewares/ST/STM32_USB_Device_Library/Core/Src/usbd_ctlreq.c **** {
 1988              		.loc 2 812 1
 1989              		.cfi_startproc
 1990              		@ args = 0, pretend = 0, frame = 8
 1991              		@ frame_needed = 1, uses_anonymous_args = 0
 1992 0000 80B5     		push	{r7, lr}
 1993              	.LCFI51:
 1994              		.cfi_def_cfa_offset 8
 1995              		.cfi_offset 7, -8
 1996              		.cfi_offset 14, -4
 1997 0002 82B0     		sub	sp, sp, #8
 1998              	.LCFI52:
 1999              		.cfi_def_cfa_offset 16
 2000 0004 00AF     		add	r7, sp, #0
 2001              	.LCFI53:
 2002              		.cfi_def_cfa_register 7
 2003 0006 7860     		str	r0, [r7, #4]
 2004 0008 3960     		str	r1, [r7]
ARM GAS  /var/folders/vq/qt4vp3kd5rxf7v2b6_fdtdt80000gn/T//ccb7F33r.s 			page 57


 813:Middlewares/ST/STM32_USB_Device_Library/Core/Src/usbd_ctlreq.c ****   switch (pdev->dev_state)
 2005              		.loc 2 813 15
 2006 000a 7B68     		ldr	r3, [r7, #4]
 2007 000c 93F89C32 		ldrb	r3, [r3, #668]
 2008 0010 DBB2     		uxtb	r3, r3
 2009 0012 013B     		subs	r3, r3, #1
 2010              		.loc 2 813 3
 2011 0014 022B     		cmp	r3, #2
 2012 0016 0BD8     		bhi	.L156
 814:Middlewares/ST/STM32_USB_Device_Library/Core/Src/usbd_ctlreq.c ****   {
 815:Middlewares/ST/STM32_USB_Device_Library/Core/Src/usbd_ctlreq.c ****     case USBD_STATE_DEFAULT:
 816:Middlewares/ST/STM32_USB_Device_Library/Core/Src/usbd_ctlreq.c ****     case USBD_STATE_ADDRESSED:
 817:Middlewares/ST/STM32_USB_Device_Library/Core/Src/usbd_ctlreq.c ****     case USBD_STATE_CONFIGURED:
 818:Middlewares/ST/STM32_USB_Device_Library/Core/Src/usbd_ctlreq.c ****       if (req->wValue == USB_FEATURE_REMOTE_WAKEUP)
 2013              		.loc 2 818 14
 2014 0018 3B68     		ldr	r3, [r7]
 2015 001a 5B88     		ldrh	r3, [r3, #2]
 2016              		.loc 2 818 10
 2017 001c 012B     		cmp	r3, #1
 2018 001e 0CD1     		bne	.L159
 819:Middlewares/ST/STM32_USB_Device_Library/Core/Src/usbd_ctlreq.c ****       {
 820:Middlewares/ST/STM32_USB_Device_Library/Core/Src/usbd_ctlreq.c ****         pdev->dev_remote_wakeup = 0U;
 2019              		.loc 2 820 33
 2020 0020 7B68     		ldr	r3, [r7, #4]
 2021 0022 0022     		movs	r2, #0
 2022 0024 C3F8A422 		str	r2, [r3, #676]
 821:Middlewares/ST/STM32_USB_Device_Library/Core/Src/usbd_ctlreq.c ****         (void)USBD_CtlSendStatus(pdev);
 2023              		.loc 2 821 15
 2024 0028 7868     		ldr	r0, [r7, #4]
 2025 002a FFF7FEFF 		bl	USBD_CtlSendStatus
 822:Middlewares/ST/STM32_USB_Device_Library/Core/Src/usbd_ctlreq.c ****       }
 823:Middlewares/ST/STM32_USB_Device_Library/Core/Src/usbd_ctlreq.c ****       break;
 2026              		.loc 2 823 7
 2027 002e 04E0     		b	.L159
 2028              	.L156:
 824:Middlewares/ST/STM32_USB_Device_Library/Core/Src/usbd_ctlreq.c **** 
 825:Middlewares/ST/STM32_USB_Device_Library/Core/Src/usbd_ctlreq.c ****     default:
 826:Middlewares/ST/STM32_USB_Device_Library/Core/Src/usbd_ctlreq.c ****       USBD_CtlError(pdev, req);
 2029              		.loc 2 826 7
 2030 0030 3968     		ldr	r1, [r7]
 2031 0032 7868     		ldr	r0, [r7, #4]
 2032 0034 FFF7FEFF 		bl	USBD_CtlError
 827:Middlewares/ST/STM32_USB_Device_Library/Core/Src/usbd_ctlreq.c ****       break;
 2033              		.loc 2 827 7
 2034 0038 00E0     		b	.L158
 2035              	.L159:
 823:Middlewares/ST/STM32_USB_Device_Library/Core/Src/usbd_ctlreq.c **** 
 2036              		.loc 2 823 7
 2037 003a 00BF     		nop
 2038              	.L158:
 828:Middlewares/ST/STM32_USB_Device_Library/Core/Src/usbd_ctlreq.c ****   }
 829:Middlewares/ST/STM32_USB_Device_Library/Core/Src/usbd_ctlreq.c **** }
 2039              		.loc 2 829 1
 2040 003c 00BF     		nop
 2041 003e 0837     		adds	r7, r7, #8
 2042              	.LCFI54:
 2043              		.cfi_def_cfa_offset 8
ARM GAS  /var/folders/vq/qt4vp3kd5rxf7v2b6_fdtdt80000gn/T//ccb7F33r.s 			page 58


 2044 0040 BD46     		mov	sp, r7
 2045              	.LCFI55:
 2046              		.cfi_def_cfa_register 13
 2047              		@ sp needed
 2048 0042 80BD     		pop	{r7, pc}
 2049              		.cfi_endproc
 2050              	.LFE143:
 2052              		.section	.text.USBD_ParseSetupRequest,"ax",%progbits
 2053              		.align	1
 2054              		.global	USBD_ParseSetupRequest
 2055              		.syntax unified
 2056              		.thumb
 2057              		.thumb_func
 2058              		.fpu fpv4-sp-d16
 2060              	USBD_ParseSetupRequest:
 2061              	.LFB144:
 830:Middlewares/ST/STM32_USB_Device_Library/Core/Src/usbd_ctlreq.c **** 
 831:Middlewares/ST/STM32_USB_Device_Library/Core/Src/usbd_ctlreq.c **** 
 832:Middlewares/ST/STM32_USB_Device_Library/Core/Src/usbd_ctlreq.c **** /**
 833:Middlewares/ST/STM32_USB_Device_Library/Core/Src/usbd_ctlreq.c ****   * @brief  USBD_ParseSetupRequest
 834:Middlewares/ST/STM32_USB_Device_Library/Core/Src/usbd_ctlreq.c ****   *         Copy buffer into setup structure
 835:Middlewares/ST/STM32_USB_Device_Library/Core/Src/usbd_ctlreq.c ****   * @param  pdev: device instance
 836:Middlewares/ST/STM32_USB_Device_Library/Core/Src/usbd_ctlreq.c ****   * @param  req: usb request
 837:Middlewares/ST/STM32_USB_Device_Library/Core/Src/usbd_ctlreq.c ****   * @retval None
 838:Middlewares/ST/STM32_USB_Device_Library/Core/Src/usbd_ctlreq.c ****   */
 839:Middlewares/ST/STM32_USB_Device_Library/Core/Src/usbd_ctlreq.c **** void USBD_ParseSetupRequest(USBD_SetupReqTypedef *req, uint8_t *pdata)
 840:Middlewares/ST/STM32_USB_Device_Library/Core/Src/usbd_ctlreq.c **** {
 2062              		.loc 2 840 1
 2063              		.cfi_startproc
 2064              		@ args = 0, pretend = 0, frame = 16
 2065              		@ frame_needed = 1, uses_anonymous_args = 0
 2066 0000 80B5     		push	{r7, lr}
 2067              	.LCFI56:
 2068              		.cfi_def_cfa_offset 8
 2069              		.cfi_offset 7, -8
 2070              		.cfi_offset 14, -4
 2071 0002 84B0     		sub	sp, sp, #16
 2072              	.LCFI57:
 2073              		.cfi_def_cfa_offset 24
 2074 0004 00AF     		add	r7, sp, #0
 2075              	.LCFI58:
 2076              		.cfi_def_cfa_register 7
 2077 0006 7860     		str	r0, [r7, #4]
 2078 0008 3960     		str	r1, [r7]
 841:Middlewares/ST/STM32_USB_Device_Library/Core/Src/usbd_ctlreq.c ****   uint8_t *pbuff = pdata;
 2079              		.loc 2 841 12
 2080 000a 3B68     		ldr	r3, [r7]
 2081 000c FB60     		str	r3, [r7, #12]
 842:Middlewares/ST/STM32_USB_Device_Library/Core/Src/usbd_ctlreq.c **** 
 843:Middlewares/ST/STM32_USB_Device_Library/Core/Src/usbd_ctlreq.c ****   req->bmRequest = *(uint8_t *)(pbuff);
 2082              		.loc 2 843 20
 2083 000e FB68     		ldr	r3, [r7, #12]
 2084 0010 1A78     		ldrb	r2, [r3]	@ zero_extendqisi2
 2085              		.loc 2 843 18
 2086 0012 7B68     		ldr	r3, [r7, #4]
 2087 0014 1A70     		strb	r2, [r3]
 844:Middlewares/ST/STM32_USB_Device_Library/Core/Src/usbd_ctlreq.c **** 
ARM GAS  /var/folders/vq/qt4vp3kd5rxf7v2b6_fdtdt80000gn/T//ccb7F33r.s 			page 59


 845:Middlewares/ST/STM32_USB_Device_Library/Core/Src/usbd_ctlreq.c ****   pbuff++;
 2088              		.loc 2 845 8
 2089 0016 FB68     		ldr	r3, [r7, #12]
 2090 0018 0133     		adds	r3, r3, #1
 2091 001a FB60     		str	r3, [r7, #12]
 846:Middlewares/ST/STM32_USB_Device_Library/Core/Src/usbd_ctlreq.c ****   req->bRequest = *(uint8_t *)(pbuff);
 2092              		.loc 2 846 19
 2093 001c FB68     		ldr	r3, [r7, #12]
 2094 001e 1A78     		ldrb	r2, [r3]	@ zero_extendqisi2
 2095              		.loc 2 846 17
 2096 0020 7B68     		ldr	r3, [r7, #4]
 2097 0022 5A70     		strb	r2, [r3, #1]
 847:Middlewares/ST/STM32_USB_Device_Library/Core/Src/usbd_ctlreq.c **** 
 848:Middlewares/ST/STM32_USB_Device_Library/Core/Src/usbd_ctlreq.c ****   pbuff++;
 2098              		.loc 2 848 8
 2099 0024 FB68     		ldr	r3, [r7, #12]
 2100 0026 0133     		adds	r3, r3, #1
 2101 0028 FB60     		str	r3, [r7, #12]
 849:Middlewares/ST/STM32_USB_Device_Library/Core/Src/usbd_ctlreq.c ****   req->wValue = SWAPBYTE(pbuff);
 2102              		.loc 2 849 17
 2103 002a F868     		ldr	r0, [r7, #12]
 2104 002c FFF7FEFF 		bl	SWAPBYTE
 2105 0030 0346     		mov	r3, r0
 2106 0032 1A46     		mov	r2, r3
 2107              		.loc 2 849 15
 2108 0034 7B68     		ldr	r3, [r7, #4]
 2109 0036 5A80     		strh	r2, [r3, #2]	@ movhi
 850:Middlewares/ST/STM32_USB_Device_Library/Core/Src/usbd_ctlreq.c **** 
 851:Middlewares/ST/STM32_USB_Device_Library/Core/Src/usbd_ctlreq.c ****   pbuff++;
 2110              		.loc 2 851 8
 2111 0038 FB68     		ldr	r3, [r7, #12]
 2112 003a 0133     		adds	r3, r3, #1
 2113 003c FB60     		str	r3, [r7, #12]
 852:Middlewares/ST/STM32_USB_Device_Library/Core/Src/usbd_ctlreq.c ****   pbuff++;
 2114              		.loc 2 852 8
 2115 003e FB68     		ldr	r3, [r7, #12]
 2116 0040 0133     		adds	r3, r3, #1
 2117 0042 FB60     		str	r3, [r7, #12]
 853:Middlewares/ST/STM32_USB_Device_Library/Core/Src/usbd_ctlreq.c ****   req->wIndex = SWAPBYTE(pbuff);
 2118              		.loc 2 853 17
 2119 0044 F868     		ldr	r0, [r7, #12]
 2120 0046 FFF7FEFF 		bl	SWAPBYTE
 2121 004a 0346     		mov	r3, r0
 2122 004c 1A46     		mov	r2, r3
 2123              		.loc 2 853 15
 2124 004e 7B68     		ldr	r3, [r7, #4]
 2125 0050 9A80     		strh	r2, [r3, #4]	@ movhi
 854:Middlewares/ST/STM32_USB_Device_Library/Core/Src/usbd_ctlreq.c **** 
 855:Middlewares/ST/STM32_USB_Device_Library/Core/Src/usbd_ctlreq.c ****   pbuff++;
 2126              		.loc 2 855 8
 2127 0052 FB68     		ldr	r3, [r7, #12]
 2128 0054 0133     		adds	r3, r3, #1
 2129 0056 FB60     		str	r3, [r7, #12]
 856:Middlewares/ST/STM32_USB_Device_Library/Core/Src/usbd_ctlreq.c ****   pbuff++;
 2130              		.loc 2 856 8
 2131 0058 FB68     		ldr	r3, [r7, #12]
 2132 005a 0133     		adds	r3, r3, #1
ARM GAS  /var/folders/vq/qt4vp3kd5rxf7v2b6_fdtdt80000gn/T//ccb7F33r.s 			page 60


 2133 005c FB60     		str	r3, [r7, #12]
 857:Middlewares/ST/STM32_USB_Device_Library/Core/Src/usbd_ctlreq.c ****   req->wLength = SWAPBYTE(pbuff);
 2134              		.loc 2 857 18
 2135 005e F868     		ldr	r0, [r7, #12]
 2136 0060 FFF7FEFF 		bl	SWAPBYTE
 2137 0064 0346     		mov	r3, r0
 2138 0066 1A46     		mov	r2, r3
 2139              		.loc 2 857 16
 2140 0068 7B68     		ldr	r3, [r7, #4]
 2141 006a DA80     		strh	r2, [r3, #6]	@ movhi
 858:Middlewares/ST/STM32_USB_Device_Library/Core/Src/usbd_ctlreq.c **** }
 2142              		.loc 2 858 1
 2143 006c 00BF     		nop
 2144 006e 1037     		adds	r7, r7, #16
 2145              	.LCFI59:
 2146              		.cfi_def_cfa_offset 8
 2147 0070 BD46     		mov	sp, r7
 2148              	.LCFI60:
 2149              		.cfi_def_cfa_register 13
 2150              		@ sp needed
 2151 0072 80BD     		pop	{r7, pc}
 2152              		.cfi_endproc
 2153              	.LFE144:
 2155              		.section	.text.USBD_CtlError,"ax",%progbits
 2156              		.align	1
 2157              		.global	USBD_CtlError
 2158              		.syntax unified
 2159              		.thumb
 2160              		.thumb_func
 2161              		.fpu fpv4-sp-d16
 2163              	USBD_CtlError:
 2164              	.LFB145:
 859:Middlewares/ST/STM32_USB_Device_Library/Core/Src/usbd_ctlreq.c **** 
 860:Middlewares/ST/STM32_USB_Device_Library/Core/Src/usbd_ctlreq.c **** 
 861:Middlewares/ST/STM32_USB_Device_Library/Core/Src/usbd_ctlreq.c **** /**
 862:Middlewares/ST/STM32_USB_Device_Library/Core/Src/usbd_ctlreq.c ****   * @brief  USBD_CtlError
 863:Middlewares/ST/STM32_USB_Device_Library/Core/Src/usbd_ctlreq.c ****   *         Handle USB low level Error
 864:Middlewares/ST/STM32_USB_Device_Library/Core/Src/usbd_ctlreq.c ****   * @param  pdev: device instance
 865:Middlewares/ST/STM32_USB_Device_Library/Core/Src/usbd_ctlreq.c ****   * @param  req: usb request
 866:Middlewares/ST/STM32_USB_Device_Library/Core/Src/usbd_ctlreq.c ****   * @retval None
 867:Middlewares/ST/STM32_USB_Device_Library/Core/Src/usbd_ctlreq.c ****   */
 868:Middlewares/ST/STM32_USB_Device_Library/Core/Src/usbd_ctlreq.c **** void USBD_CtlError(USBD_HandleTypeDef *pdev, USBD_SetupReqTypedef *req)
 869:Middlewares/ST/STM32_USB_Device_Library/Core/Src/usbd_ctlreq.c **** {
 2165              		.loc 2 869 1
 2166              		.cfi_startproc
 2167              		@ args = 0, pretend = 0, frame = 8
 2168              		@ frame_needed = 1, uses_anonymous_args = 0
 2169 0000 80B5     		push	{r7, lr}
 2170              	.LCFI61:
 2171              		.cfi_def_cfa_offset 8
 2172              		.cfi_offset 7, -8
 2173              		.cfi_offset 14, -4
 2174 0002 82B0     		sub	sp, sp, #8
 2175              	.LCFI62:
 2176              		.cfi_def_cfa_offset 16
 2177 0004 00AF     		add	r7, sp, #0
 2178              	.LCFI63:
ARM GAS  /var/folders/vq/qt4vp3kd5rxf7v2b6_fdtdt80000gn/T//ccb7F33r.s 			page 61


 2179              		.cfi_def_cfa_register 7
 2180 0006 7860     		str	r0, [r7, #4]
 2181 0008 3960     		str	r1, [r7]
 870:Middlewares/ST/STM32_USB_Device_Library/Core/Src/usbd_ctlreq.c ****   UNUSED(req);
 871:Middlewares/ST/STM32_USB_Device_Library/Core/Src/usbd_ctlreq.c **** 
 872:Middlewares/ST/STM32_USB_Device_Library/Core/Src/usbd_ctlreq.c ****   (void)USBD_LL_StallEP(pdev, 0x80U);
 2182              		.loc 2 872 9
 2183 000a 8021     		movs	r1, #128
 2184 000c 7868     		ldr	r0, [r7, #4]
 2185 000e FFF7FEFF 		bl	USBD_LL_StallEP
 873:Middlewares/ST/STM32_USB_Device_Library/Core/Src/usbd_ctlreq.c ****   (void)USBD_LL_StallEP(pdev, 0U);
 2186              		.loc 2 873 9
 2187 0012 0021     		movs	r1, #0
 2188 0014 7868     		ldr	r0, [r7, #4]
 2189 0016 FFF7FEFF 		bl	USBD_LL_StallEP
 874:Middlewares/ST/STM32_USB_Device_Library/Core/Src/usbd_ctlreq.c **** }
 2190              		.loc 2 874 1
 2191 001a 00BF     		nop
 2192 001c 0837     		adds	r7, r7, #8
 2193              	.LCFI64:
 2194              		.cfi_def_cfa_offset 8
 2195 001e BD46     		mov	sp, r7
 2196              	.LCFI65:
 2197              		.cfi_def_cfa_register 13
 2198              		@ sp needed
 2199 0020 80BD     		pop	{r7, pc}
 2200              		.cfi_endproc
 2201              	.LFE145:
 2203              		.section	.text.USBD_GetString,"ax",%progbits
 2204              		.align	1
 2205              		.global	USBD_GetString
 2206              		.syntax unified
 2207              		.thumb
 2208              		.thumb_func
 2209              		.fpu fpv4-sp-d16
 2211              	USBD_GetString:
 2212              	.LFB146:
 875:Middlewares/ST/STM32_USB_Device_Library/Core/Src/usbd_ctlreq.c **** 
 876:Middlewares/ST/STM32_USB_Device_Library/Core/Src/usbd_ctlreq.c **** 
 877:Middlewares/ST/STM32_USB_Device_Library/Core/Src/usbd_ctlreq.c **** /**
 878:Middlewares/ST/STM32_USB_Device_Library/Core/Src/usbd_ctlreq.c ****   * @brief  USBD_GetString
 879:Middlewares/ST/STM32_USB_Device_Library/Core/Src/usbd_ctlreq.c ****   *         Convert Ascii string into unicode one
 880:Middlewares/ST/STM32_USB_Device_Library/Core/Src/usbd_ctlreq.c ****   * @param  desc : descriptor buffer
 881:Middlewares/ST/STM32_USB_Device_Library/Core/Src/usbd_ctlreq.c ****   * @param  unicode : Formatted string buffer (unicode)
 882:Middlewares/ST/STM32_USB_Device_Library/Core/Src/usbd_ctlreq.c ****   * @param  len : descriptor length
 883:Middlewares/ST/STM32_USB_Device_Library/Core/Src/usbd_ctlreq.c ****   * @retval None
 884:Middlewares/ST/STM32_USB_Device_Library/Core/Src/usbd_ctlreq.c ****   */
 885:Middlewares/ST/STM32_USB_Device_Library/Core/Src/usbd_ctlreq.c **** void USBD_GetString(uint8_t *desc, uint8_t *unicode, uint16_t *len)
 886:Middlewares/ST/STM32_USB_Device_Library/Core/Src/usbd_ctlreq.c **** {
 2213              		.loc 2 886 1
 2214              		.cfi_startproc
 2215              		@ args = 0, pretend = 0, frame = 24
 2216              		@ frame_needed = 1, uses_anonymous_args = 0
 2217 0000 80B5     		push	{r7, lr}
 2218              	.LCFI66:
 2219              		.cfi_def_cfa_offset 8
 2220              		.cfi_offset 7, -8
ARM GAS  /var/folders/vq/qt4vp3kd5rxf7v2b6_fdtdt80000gn/T//ccb7F33r.s 			page 62


 2221              		.cfi_offset 14, -4
 2222 0002 86B0     		sub	sp, sp, #24
 2223              	.LCFI67:
 2224              		.cfi_def_cfa_offset 32
 2225 0004 00AF     		add	r7, sp, #0
 2226              	.LCFI68:
 2227              		.cfi_def_cfa_register 7
 2228 0006 F860     		str	r0, [r7, #12]
 2229 0008 B960     		str	r1, [r7, #8]
 2230 000a 7A60     		str	r2, [r7, #4]
 887:Middlewares/ST/STM32_USB_Device_Library/Core/Src/usbd_ctlreq.c ****   uint8_t idx = 0U;
 2231              		.loc 2 887 11
 2232 000c 0023     		movs	r3, #0
 2233 000e FB75     		strb	r3, [r7, #23]
 888:Middlewares/ST/STM32_USB_Device_Library/Core/Src/usbd_ctlreq.c ****   uint8_t *pdesc;
 889:Middlewares/ST/STM32_USB_Device_Library/Core/Src/usbd_ctlreq.c **** 
 890:Middlewares/ST/STM32_USB_Device_Library/Core/Src/usbd_ctlreq.c ****   if (desc == NULL)
 2234              		.loc 2 890 6
 2235 0010 FB68     		ldr	r3, [r7, #12]
 2236 0012 002B     		cmp	r3, #0
 2237 0014 36D0     		beq	.L167
 891:Middlewares/ST/STM32_USB_Device_Library/Core/Src/usbd_ctlreq.c ****   {
 892:Middlewares/ST/STM32_USB_Device_Library/Core/Src/usbd_ctlreq.c ****     return;
 893:Middlewares/ST/STM32_USB_Device_Library/Core/Src/usbd_ctlreq.c ****   }
 894:Middlewares/ST/STM32_USB_Device_Library/Core/Src/usbd_ctlreq.c **** 
 895:Middlewares/ST/STM32_USB_Device_Library/Core/Src/usbd_ctlreq.c ****   pdesc = desc;
 2238              		.loc 2 895 9
 2239 0016 FB68     		ldr	r3, [r7, #12]
 2240 0018 3B61     		str	r3, [r7, #16]
 896:Middlewares/ST/STM32_USB_Device_Library/Core/Src/usbd_ctlreq.c ****   *len = ((uint16_t)USBD_GetLen(pdesc) * 2U) + 2U;
 2241              		.loc 2 896 21
 2242 001a 3869     		ldr	r0, [r7, #16]
 2243 001c FFF7FEFF 		bl	USBD_GetLen
 2244 0020 0346     		mov	r3, r0
 2245              		.loc 2 896 46
 2246 0022 0133     		adds	r3, r3, #1
 2247              		.loc 2 896 8
 2248 0024 9BB2     		uxth	r3, r3
 2249 0026 5B00     		lsls	r3, r3, #1
 2250 0028 9AB2     		uxth	r2, r3
 2251 002a 7B68     		ldr	r3, [r7, #4]
 2252 002c 1A80     		strh	r2, [r3]	@ movhi
 897:Middlewares/ST/STM32_USB_Device_Library/Core/Src/usbd_ctlreq.c **** 
 898:Middlewares/ST/STM32_USB_Device_Library/Core/Src/usbd_ctlreq.c ****   unicode[idx] = *(uint8_t *)len;
 2253              		.loc 2 898 10
 2254 002e FB7D     		ldrb	r3, [r7, #23]	@ zero_extendqisi2
 2255 0030 BA68     		ldr	r2, [r7, #8]
 2256 0032 1344     		add	r3, r3, r2
 2257              		.loc 2 898 18
 2258 0034 7A68     		ldr	r2, [r7, #4]
 2259 0036 1278     		ldrb	r2, [r2]	@ zero_extendqisi2
 2260              		.loc 2 898 16
 2261 0038 1A70     		strb	r2, [r3]
 899:Middlewares/ST/STM32_USB_Device_Library/Core/Src/usbd_ctlreq.c ****   idx++;
 2262              		.loc 2 899 6
 2263 003a FB7D     		ldrb	r3, [r7, #23]	@ zero_extendqisi2
 2264 003c 0133     		adds	r3, r3, #1
ARM GAS  /var/folders/vq/qt4vp3kd5rxf7v2b6_fdtdt80000gn/T//ccb7F33r.s 			page 63


 2265 003e FB75     		strb	r3, [r7, #23]
 900:Middlewares/ST/STM32_USB_Device_Library/Core/Src/usbd_ctlreq.c ****   unicode[idx] = USB_DESC_TYPE_STRING;
 2266              		.loc 2 900 10
 2267 0040 FB7D     		ldrb	r3, [r7, #23]	@ zero_extendqisi2
 2268 0042 BA68     		ldr	r2, [r7, #8]
 2269 0044 1344     		add	r3, r3, r2
 2270              		.loc 2 900 16
 2271 0046 0322     		movs	r2, #3
 2272 0048 1A70     		strb	r2, [r3]
 901:Middlewares/ST/STM32_USB_Device_Library/Core/Src/usbd_ctlreq.c ****   idx++;
 2273              		.loc 2 901 6
 2274 004a FB7D     		ldrb	r3, [r7, #23]	@ zero_extendqisi2
 2275 004c 0133     		adds	r3, r3, #1
 2276 004e FB75     		strb	r3, [r7, #23]
 902:Middlewares/ST/STM32_USB_Device_Library/Core/Src/usbd_ctlreq.c **** 
 903:Middlewares/ST/STM32_USB_Device_Library/Core/Src/usbd_ctlreq.c ****   while (*pdesc != (uint8_t)'\0')
 2277              		.loc 2 903 9
 2278 0050 13E0     		b	.L165
 2279              	.L166:
 904:Middlewares/ST/STM32_USB_Device_Library/Core/Src/usbd_ctlreq.c ****   {
 905:Middlewares/ST/STM32_USB_Device_Library/Core/Src/usbd_ctlreq.c ****     unicode[idx] = *pdesc;
 2280              		.loc 2 905 12
 2281 0052 FB7D     		ldrb	r3, [r7, #23]	@ zero_extendqisi2
 2282 0054 BA68     		ldr	r2, [r7, #8]
 2283 0056 1344     		add	r3, r3, r2
 2284              		.loc 2 905 20
 2285 0058 3A69     		ldr	r2, [r7, #16]
 2286 005a 1278     		ldrb	r2, [r2]	@ zero_extendqisi2
 2287              		.loc 2 905 18
 2288 005c 1A70     		strb	r2, [r3]
 906:Middlewares/ST/STM32_USB_Device_Library/Core/Src/usbd_ctlreq.c ****     pdesc++;
 2289              		.loc 2 906 10
 2290 005e 3B69     		ldr	r3, [r7, #16]
 2291 0060 0133     		adds	r3, r3, #1
 2292 0062 3B61     		str	r3, [r7, #16]
 907:Middlewares/ST/STM32_USB_Device_Library/Core/Src/usbd_ctlreq.c ****     idx++;
 2293              		.loc 2 907 8
 2294 0064 FB7D     		ldrb	r3, [r7, #23]	@ zero_extendqisi2
 2295 0066 0133     		adds	r3, r3, #1
 2296 0068 FB75     		strb	r3, [r7, #23]
 908:Middlewares/ST/STM32_USB_Device_Library/Core/Src/usbd_ctlreq.c **** 
 909:Middlewares/ST/STM32_USB_Device_Library/Core/Src/usbd_ctlreq.c ****     unicode[idx] = 0U;
 2297              		.loc 2 909 12
 2298 006a FB7D     		ldrb	r3, [r7, #23]	@ zero_extendqisi2
 2299 006c BA68     		ldr	r2, [r7, #8]
 2300 006e 1344     		add	r3, r3, r2
 2301              		.loc 2 909 18
 2302 0070 0022     		movs	r2, #0
 2303 0072 1A70     		strb	r2, [r3]
 910:Middlewares/ST/STM32_USB_Device_Library/Core/Src/usbd_ctlreq.c ****     idx++;
 2304              		.loc 2 910 8
 2305 0074 FB7D     		ldrb	r3, [r7, #23]	@ zero_extendqisi2
 2306 0076 0133     		adds	r3, r3, #1
 2307 0078 FB75     		strb	r3, [r7, #23]
 2308              	.L165:
 903:Middlewares/ST/STM32_USB_Device_Library/Core/Src/usbd_ctlreq.c ****   {
 2309              		.loc 2 903 10
ARM GAS  /var/folders/vq/qt4vp3kd5rxf7v2b6_fdtdt80000gn/T//ccb7F33r.s 			page 64


 2310 007a 3B69     		ldr	r3, [r7, #16]
 2311 007c 1B78     		ldrb	r3, [r3]	@ zero_extendqisi2
 903:Middlewares/ST/STM32_USB_Device_Library/Core/Src/usbd_ctlreq.c ****   {
 2312              		.loc 2 903 9
 2313 007e 002B     		cmp	r3, #0
 2314 0080 E7D1     		bne	.L166
 2315 0082 00E0     		b	.L162
 2316              	.L167:
 892:Middlewares/ST/STM32_USB_Device_Library/Core/Src/usbd_ctlreq.c ****   }
 2317              		.loc 2 892 5
 2318 0084 00BF     		nop
 2319              	.L162:
 911:Middlewares/ST/STM32_USB_Device_Library/Core/Src/usbd_ctlreq.c ****   }
 912:Middlewares/ST/STM32_USB_Device_Library/Core/Src/usbd_ctlreq.c **** }
 2320              		.loc 2 912 1
 2321 0086 1837     		adds	r7, r7, #24
 2322              	.LCFI69:
 2323              		.cfi_def_cfa_offset 8
 2324 0088 BD46     		mov	sp, r7
 2325              	.LCFI70:
 2326              		.cfi_def_cfa_register 13
 2327              		@ sp needed
 2328 008a 80BD     		pop	{r7, pc}
 2329              		.cfi_endproc
 2330              	.LFE146:
 2332              		.section	.text.USBD_GetLen,"ax",%progbits
 2333              		.align	1
 2334              		.syntax unified
 2335              		.thumb
 2336              		.thumb_func
 2337              		.fpu fpv4-sp-d16
 2339              	USBD_GetLen:
 2340              	.LFB147:
 913:Middlewares/ST/STM32_USB_Device_Library/Core/Src/usbd_ctlreq.c **** 
 914:Middlewares/ST/STM32_USB_Device_Library/Core/Src/usbd_ctlreq.c **** 
 915:Middlewares/ST/STM32_USB_Device_Library/Core/Src/usbd_ctlreq.c **** /**
 916:Middlewares/ST/STM32_USB_Device_Library/Core/Src/usbd_ctlreq.c ****   * @brief  USBD_GetLen
 917:Middlewares/ST/STM32_USB_Device_Library/Core/Src/usbd_ctlreq.c ****   *         return the string length
 918:Middlewares/ST/STM32_USB_Device_Library/Core/Src/usbd_ctlreq.c ****    * @param  buf : pointer to the ascii string buffer
 919:Middlewares/ST/STM32_USB_Device_Library/Core/Src/usbd_ctlreq.c ****   * @retval string length
 920:Middlewares/ST/STM32_USB_Device_Library/Core/Src/usbd_ctlreq.c ****   */
 921:Middlewares/ST/STM32_USB_Device_Library/Core/Src/usbd_ctlreq.c **** static uint8_t USBD_GetLen(uint8_t *buf)
 922:Middlewares/ST/STM32_USB_Device_Library/Core/Src/usbd_ctlreq.c **** {
 2341              		.loc 2 922 1
 2342              		.cfi_startproc
 2343              		@ args = 0, pretend = 0, frame = 16
 2344              		@ frame_needed = 1, uses_anonymous_args = 0
 2345              		@ link register save eliminated.
 2346 0000 80B4     		push	{r7}
 2347              	.LCFI71:
 2348              		.cfi_def_cfa_offset 4
 2349              		.cfi_offset 7, -4
 2350 0002 85B0     		sub	sp, sp, #20
 2351              	.LCFI72:
 2352              		.cfi_def_cfa_offset 24
 2353 0004 00AF     		add	r7, sp, #0
 2354              	.LCFI73:
ARM GAS  /var/folders/vq/qt4vp3kd5rxf7v2b6_fdtdt80000gn/T//ccb7F33r.s 			page 65


 2355              		.cfi_def_cfa_register 7
 2356 0006 7860     		str	r0, [r7, #4]
 923:Middlewares/ST/STM32_USB_Device_Library/Core/Src/usbd_ctlreq.c ****   uint8_t  len = 0U;
 2357              		.loc 2 923 12
 2358 0008 0023     		movs	r3, #0
 2359 000a FB73     		strb	r3, [r7, #15]
 924:Middlewares/ST/STM32_USB_Device_Library/Core/Src/usbd_ctlreq.c ****   uint8_t *pbuff = buf;
 2360              		.loc 2 924 12
 2361 000c 7B68     		ldr	r3, [r7, #4]
 2362 000e BB60     		str	r3, [r7, #8]
 925:Middlewares/ST/STM32_USB_Device_Library/Core/Src/usbd_ctlreq.c **** 
 926:Middlewares/ST/STM32_USB_Device_Library/Core/Src/usbd_ctlreq.c ****   while (*pbuff != (uint8_t)'\0')
 2363              		.loc 2 926 9
 2364 0010 05E0     		b	.L169
 2365              	.L170:
 927:Middlewares/ST/STM32_USB_Device_Library/Core/Src/usbd_ctlreq.c ****   {
 928:Middlewares/ST/STM32_USB_Device_Library/Core/Src/usbd_ctlreq.c ****     len++;
 2366              		.loc 2 928 8
 2367 0012 FB7B     		ldrb	r3, [r7, #15]	@ zero_extendqisi2
 2368 0014 0133     		adds	r3, r3, #1
 2369 0016 FB73     		strb	r3, [r7, #15]
 929:Middlewares/ST/STM32_USB_Device_Library/Core/Src/usbd_ctlreq.c ****     pbuff++;
 2370              		.loc 2 929 10
 2371 0018 BB68     		ldr	r3, [r7, #8]
 2372 001a 0133     		adds	r3, r3, #1
 2373 001c BB60     		str	r3, [r7, #8]
 2374              	.L169:
 926:Middlewares/ST/STM32_USB_Device_Library/Core/Src/usbd_ctlreq.c ****   {
 2375              		.loc 2 926 10
 2376 001e BB68     		ldr	r3, [r7, #8]
 2377 0020 1B78     		ldrb	r3, [r3]	@ zero_extendqisi2
 926:Middlewares/ST/STM32_USB_Device_Library/Core/Src/usbd_ctlreq.c ****   {
 2378              		.loc 2 926 9
 2379 0022 002B     		cmp	r3, #0
 2380 0024 F5D1     		bne	.L170
 930:Middlewares/ST/STM32_USB_Device_Library/Core/Src/usbd_ctlreq.c ****   }
 931:Middlewares/ST/STM32_USB_Device_Library/Core/Src/usbd_ctlreq.c **** 
 932:Middlewares/ST/STM32_USB_Device_Library/Core/Src/usbd_ctlreq.c ****   return len;
 2381              		.loc 2 932 10
 2382 0026 FB7B     		ldrb	r3, [r7, #15]	@ zero_extendqisi2
 933:Middlewares/ST/STM32_USB_Device_Library/Core/Src/usbd_ctlreq.c **** }
 2383              		.loc 2 933 1
 2384 0028 1846     		mov	r0, r3
 2385 002a 1437     		adds	r7, r7, #20
 2386              	.LCFI74:
 2387              		.cfi_def_cfa_offset 4
 2388 002c BD46     		mov	sp, r7
 2389              	.LCFI75:
 2390              		.cfi_def_cfa_register 13
 2391              		@ sp needed
 2392 002e 5DF8047B 		ldr	r7, [sp], #4
 2393              	.LCFI76:
 2394              		.cfi_restore 7
 2395              		.cfi_def_cfa_offset 0
 2396 0032 7047     		bx	lr
 2397              		.cfi_endproc
 2398              	.LFE147:
ARM GAS  /var/folders/vq/qt4vp3kd5rxf7v2b6_fdtdt80000gn/T//ccb7F33r.s 			page 66


 2400              		.section	.bss.cfgidx.9901,"aw",%nobits
 2403              	cfgidx.9901:
 2404 0000 00       		.space	1
 2405              		.text
 2406              	.Letext0:
 2407              		.file 3 "/usr/local/Cellar/arm-none-eabi-gcc/9-2019-q4-major/gcc/arm-none-eabi/include/machine/_de
 2408              		.file 4 "/usr/local/Cellar/arm-none-eabi-gcc/9-2019-q4-major/gcc/arm-none-eabi/include/sys/lock.h"
 2409              		.file 5 "/usr/local/Cellar/arm-none-eabi-gcc/9-2019-q4-major/gcc/arm-none-eabi/include/sys/_types.
 2410              		.file 6 "/usr/local/Cellar/arm-none-eabi-gcc/9-2019-q4-major/gcc/lib/gcc/arm-none-eabi/9.2.1/inclu
 2411              		.file 7 "/usr/local/Cellar/arm-none-eabi-gcc/9-2019-q4-major/gcc/arm-none-eabi/include/sys/reent.h
 2412              		.file 8 "/usr/local/Cellar/arm-none-eabi-gcc/9-2019-q4-major/gcc/arm-none-eabi/include/sys/_stdint
 2413              		.file 9 "/usr/local/Cellar/arm-none-eabi-gcc/9-2019-q4-major/gcc/arm-none-eabi/include/stdlib.h"
 2414              		.file 10 "Drivers/CMSIS/Include/core_cm4.h"
 2415              		.file 11 "Drivers/CMSIS/Device/ST/STM32F4xx/Include/system_stm32f4xx.h"
 2416              		.file 12 "Drivers/STM32F4xx_HAL_Driver/Inc/stm32f4xx_hal.h"
ARM GAS  /var/folders/vq/qt4vp3kd5rxf7v2b6_fdtdt80000gn/T//ccb7F33r.s 			page 67

