Archive member included to satisfy reference by file (symbol)

/usr/local/Cellar/arm-none-eabi-gcc/9-2019-q4-major/gcc/bin/../lib/gcc/arm-none-eabi/9.2.1/../../../../arm-none-eabi/lib/thumb/v7e-m+fp/softfp/libc_nano.a(lib_a-exit.o)
                              /usr/local/Cellar/arm-none-eabi-gcc/9-2019-q4-major/gcc/bin/../lib/gcc/arm-none-eabi/9.2.1/../../../../arm-none-eabi/lib/thumb/v7e-m+fp/softfp/crt0.o (exit)
/usr/local/Cellar/arm-none-eabi-gcc/9-2019-q4-major/gcc/bin/../lib/gcc/arm-none-eabi/9.2.1/../../../../arm-none-eabi/lib/thumb/v7e-m+fp/softfp/libc_nano.a(lib_a-impure.o)
                              /usr/local/Cellar/arm-none-eabi-gcc/9-2019-q4-major/gcc/bin/../lib/gcc/arm-none-eabi/9.2.1/../../../../arm-none-eabi/lib/thumb/v7e-m+fp/softfp/libc_nano.a(lib_a-exit.o) (_global_impure_ptr)
/usr/local/Cellar/arm-none-eabi-gcc/9-2019-q4-major/gcc/bin/../lib/gcc/arm-none-eabi/9.2.1/../../../../arm-none-eabi/lib/thumb/v7e-m+fp/softfp/libc_nano.a(lib_a-init.o)
                              /usr/local/Cellar/arm-none-eabi-gcc/9-2019-q4-major/gcc/bin/../lib/gcc/arm-none-eabi/9.2.1/../../../../arm-none-eabi/lib/thumb/v7e-m+fp/softfp/crt0.o (__libc_init_array)
/usr/local/Cellar/arm-none-eabi-gcc/9-2019-q4-major/gcc/bin/../lib/gcc/arm-none-eabi/9.2.1/../../../../arm-none-eabi/lib/thumb/v7e-m+fp/softfp/libc_nano.a(lib_a-malloc.o)
                              build/main.o (malloc)
/usr/local/Cellar/arm-none-eabi-gcc/9-2019-q4-major/gcc/bin/../lib/gcc/arm-none-eabi/9.2.1/../../../../arm-none-eabi/lib/thumb/v7e-m+fp/softfp/libc_nano.a(lib_a-memset.o)
                              /usr/local/Cellar/arm-none-eabi-gcc/9-2019-q4-major/gcc/bin/../lib/gcc/arm-none-eabi/9.2.1/../../../../arm-none-eabi/lib/thumb/v7e-m+fp/softfp/crt0.o (memset)
/usr/local/Cellar/arm-none-eabi-gcc/9-2019-q4-major/gcc/bin/../lib/gcc/arm-none-eabi/9.2.1/../../../../arm-none-eabi/lib/thumb/v7e-m+fp/softfp/libc_nano.a(lib_a-nano-freer.o)
                              /usr/local/Cellar/arm-none-eabi-gcc/9-2019-q4-major/gcc/bin/../lib/gcc/arm-none-eabi/9.2.1/../../../../arm-none-eabi/lib/thumb/v7e-m+fp/softfp/libc_nano.a(lib_a-malloc.o) (_free_r)
/usr/local/Cellar/arm-none-eabi-gcc/9-2019-q4-major/gcc/bin/../lib/gcc/arm-none-eabi/9.2.1/../../../../arm-none-eabi/lib/thumb/v7e-m+fp/softfp/libc_nano.a(lib_a-nano-mallocr.o)
                              /usr/local/Cellar/arm-none-eabi-gcc/9-2019-q4-major/gcc/bin/../lib/gcc/arm-none-eabi/9.2.1/../../../../arm-none-eabi/lib/thumb/v7e-m+fp/softfp/libc_nano.a(lib_a-malloc.o) (_malloc_r)
/usr/local/Cellar/arm-none-eabi-gcc/9-2019-q4-major/gcc/bin/../lib/gcc/arm-none-eabi/9.2.1/../../../../arm-none-eabi/lib/thumb/v7e-m+fp/softfp/libc_nano.a(lib_a-sbrkr.o)
                              /usr/local/Cellar/arm-none-eabi-gcc/9-2019-q4-major/gcc/bin/../lib/gcc/arm-none-eabi/9.2.1/../../../../arm-none-eabi/lib/thumb/v7e-m+fp/softfp/libc_nano.a(lib_a-nano-mallocr.o) (_sbrk_r)
/usr/local/Cellar/arm-none-eabi-gcc/9-2019-q4-major/gcc/bin/../lib/gcc/arm-none-eabi/9.2.1/../../../../arm-none-eabi/lib/thumb/v7e-m+fp/softfp/libc_nano.a(lib_a-sprintf.o)
                              build/main.o (sprintf)
/usr/local/Cellar/arm-none-eabi-gcc/9-2019-q4-major/gcc/bin/../lib/gcc/arm-none-eabi/9.2.1/../../../../arm-none-eabi/lib/thumb/v7e-m+fp/softfp/libc_nano.a(lib_a-mlock.o)
                              /usr/local/Cellar/arm-none-eabi-gcc/9-2019-q4-major/gcc/bin/../lib/gcc/arm-none-eabi/9.2.1/../../../../arm-none-eabi/lib/thumb/v7e-m+fp/softfp/libc_nano.a(lib_a-nano-freer.o) (__malloc_lock)
/usr/local/Cellar/arm-none-eabi-gcc/9-2019-q4-major/gcc/bin/../lib/gcc/arm-none-eabi/9.2.1/../../../../arm-none-eabi/lib/thumb/v7e-m+fp/softfp/libc_nano.a(lib_a-nano-svfprintf.o)
                              /usr/local/Cellar/arm-none-eabi-gcc/9-2019-q4-major/gcc/bin/../lib/gcc/arm-none-eabi/9.2.1/../../../../arm-none-eabi/lib/thumb/v7e-m+fp/softfp/libc_nano.a(lib_a-sprintf.o) (_svfprintf_r)
/usr/local/Cellar/arm-none-eabi-gcc/9-2019-q4-major/gcc/bin/../lib/gcc/arm-none-eabi/9.2.1/../../../../arm-none-eabi/lib/thumb/v7e-m+fp/softfp/libc_nano.a(lib_a-nano-vfprintf_i.o)
                              /usr/local/Cellar/arm-none-eabi-gcc/9-2019-q4-major/gcc/bin/../lib/gcc/arm-none-eabi/9.2.1/../../../../arm-none-eabi/lib/thumb/v7e-m+fp/softfp/libc_nano.a(lib_a-nano-svfprintf.o) (_printf_i)
/usr/local/Cellar/arm-none-eabi-gcc/9-2019-q4-major/gcc/bin/../lib/gcc/arm-none-eabi/9.2.1/../../../../arm-none-eabi/lib/thumb/v7e-m+fp/softfp/libc_nano.a(lib_a-reent.o)
                              /usr/local/Cellar/arm-none-eabi-gcc/9-2019-q4-major/gcc/bin/../lib/gcc/arm-none-eabi/9.2.1/../../../../arm-none-eabi/lib/thumb/v7e-m+fp/softfp/libc_nano.a(lib_a-sbrkr.o) (errno)
/usr/local/Cellar/arm-none-eabi-gcc/9-2019-q4-major/gcc/bin/../lib/gcc/arm-none-eabi/9.2.1/../../../../arm-none-eabi/lib/thumb/v7e-m+fp/softfp/libc_nano.a(lib_a-lock.o)
                              /usr/local/Cellar/arm-none-eabi-gcc/9-2019-q4-major/gcc/bin/../lib/gcc/arm-none-eabi/9.2.1/../../../../arm-none-eabi/lib/thumb/v7e-m+fp/softfp/libc_nano.a(lib_a-mlock.o) (__retarget_lock_acquire_recursive)
/usr/local/Cellar/arm-none-eabi-gcc/9-2019-q4-major/gcc/bin/../lib/gcc/arm-none-eabi/9.2.1/../../../../arm-none-eabi/lib/thumb/v7e-m+fp/softfp/libc_nano.a(lib_a-memchr.o)
                              /usr/local/Cellar/arm-none-eabi-gcc/9-2019-q4-major/gcc/bin/../lib/gcc/arm-none-eabi/9.2.1/../../../../arm-none-eabi/lib/thumb/v7e-m+fp/softfp/libc_nano.a(lib_a-nano-svfprintf.o) (memchr)
/usr/local/Cellar/arm-none-eabi-gcc/9-2019-q4-major/gcc/bin/../lib/gcc/arm-none-eabi/9.2.1/../../../../arm-none-eabi/lib/thumb/v7e-m+fp/softfp/libc_nano.a(lib_a-memcpy-stub.o)
                              /usr/local/Cellar/arm-none-eabi-gcc/9-2019-q4-major/gcc/bin/../lib/gcc/arm-none-eabi/9.2.1/../../../../arm-none-eabi/lib/thumb/v7e-m+fp/softfp/libc_nano.a(lib_a-nano-svfprintf.o) (memcpy)
/usr/local/Cellar/arm-none-eabi-gcc/9-2019-q4-major/gcc/bin/../lib/gcc/arm-none-eabi/9.2.1/../../../../arm-none-eabi/lib/thumb/v7e-m+fp/softfp/libc_nano.a(lib_a-memmove.o)
                              /usr/local/Cellar/arm-none-eabi-gcc/9-2019-q4-major/gcc/bin/../lib/gcc/arm-none-eabi/9.2.1/../../../../arm-none-eabi/lib/thumb/v7e-m+fp/softfp/libc_nano.a(lib_a-nano-svfprintf.o) (memmove)
/usr/local/Cellar/arm-none-eabi-gcc/9-2019-q4-major/gcc/bin/../lib/gcc/arm-none-eabi/9.2.1/../../../../arm-none-eabi/lib/thumb/v7e-m+fp/softfp/libc_nano.a(lib_a-nano-reallocr.o)
                              /usr/local/Cellar/arm-none-eabi-gcc/9-2019-q4-major/gcc/bin/../lib/gcc/arm-none-eabi/9.2.1/../../../../arm-none-eabi/lib/thumb/v7e-m+fp/softfp/libc_nano.a(lib_a-nano-svfprintf.o) (_realloc_r)
/usr/local/Cellar/arm-none-eabi-gcc/9-2019-q4-major/gcc/bin/../lib/gcc/arm-none-eabi/9.2.1/../../../../arm-none-eabi/lib/thumb/v7e-m+fp/softfp/libc_nano.a(lib_a-nano-msizer.o)
                              /usr/local/Cellar/arm-none-eabi-gcc/9-2019-q4-major/gcc/bin/../lib/gcc/arm-none-eabi/9.2.1/../../../../arm-none-eabi/lib/thumb/v7e-m+fp/softfp/libc_nano.a(lib_a-nano-reallocr.o) (_malloc_usable_size_r)
/usr/local/Cellar/arm-none-eabi-gcc/9-2019-q4-major/gcc/bin/../lib/gcc/arm-none-eabi/9.2.1/../../../../arm-none-eabi/lib/thumb/v7e-m+fp/softfp/libnosys.a(sbrk.o)
                              /usr/local/Cellar/arm-none-eabi-gcc/9-2019-q4-major/gcc/bin/../lib/gcc/arm-none-eabi/9.2.1/../../../../arm-none-eabi/lib/thumb/v7e-m+fp/softfp/libc_nano.a(lib_a-sbrkr.o) (_sbrk)
/usr/local/Cellar/arm-none-eabi-gcc/9-2019-q4-major/gcc/bin/../lib/gcc/arm-none-eabi/9.2.1/../../../../arm-none-eabi/lib/thumb/v7e-m+fp/softfp/libnosys.a(_exit.o)
                              /usr/local/Cellar/arm-none-eabi-gcc/9-2019-q4-major/gcc/bin/../lib/gcc/arm-none-eabi/9.2.1/../../../../arm-none-eabi/lib/thumb/v7e-m+fp/softfp/libc_nano.a(lib_a-exit.o) (_exit)
Middlewares/ST/STM32_Cryptographic/Lib/libSTM32CryptographicV3.0.0_CM4_GCC.a(crypto.o)
                              build/main.o (AES_CBC_Encrypt_Init)
/usr/local/Cellar/arm-none-eabi-gcc/9-2019-q4-major/gcc/bin/../lib/gcc/arm-none-eabi/9.2.1/thumb/v7e-m+fp/softfp/libgcc.a(_aeabi_uldivmod.o)
                              build/stm32f4xx_hal_rcc.o (__aeabi_uldivmod)
/usr/local/Cellar/arm-none-eabi-gcc/9-2019-q4-major/gcc/bin/../lib/gcc/arm-none-eabi/9.2.1/thumb/v7e-m+fp/softfp/libgcc.a(_udivmoddi4.o)
                              /usr/local/Cellar/arm-none-eabi-gcc/9-2019-q4-major/gcc/bin/../lib/gcc/arm-none-eabi/9.2.1/thumb/v7e-m+fp/softfp/libgcc.a(_aeabi_uldivmod.o) (__udivmoddi4)
/usr/local/Cellar/arm-none-eabi-gcc/9-2019-q4-major/gcc/bin/../lib/gcc/arm-none-eabi/9.2.1/thumb/v7e-m+fp/softfp/libgcc.a(_dvmd_tls.o)
                              /usr/local/Cellar/arm-none-eabi-gcc/9-2019-q4-major/gcc/bin/../lib/gcc/arm-none-eabi/9.2.1/thumb/v7e-m+fp/softfp/libgcc.a(_aeabi_uldivmod.o) (__aeabi_ldiv0)

Allocating common symbols
Common symbol       size              file

hUsbDeviceFS        0x2d0             build/usb_device.o
__lock___atexit_recursive_mutex
                    0x1               /usr/local/Cellar/arm-none-eabi-gcc/9-2019-q4-major/gcc/bin/../lib/gcc/arm-none-eabi/9.2.1/../../../../arm-none-eabi/lib/thumb/v7e-m+fp/softfp/libc_nano.a(lib_a-lock.o)
__lock___arc4random_mutex
                    0x1               /usr/local/Cellar/arm-none-eabi-gcc/9-2019-q4-major/gcc/bin/../lib/gcc/arm-none-eabi/9.2.1/../../../../arm-none-eabi/lib/thumb/v7e-m+fp/softfp/libc_nano.a(lib_a-lock.o)
errno               0x4               /usr/local/Cellar/arm-none-eabi-gcc/9-2019-q4-major/gcc/bin/../lib/gcc/arm-none-eabi/9.2.1/../../../../arm-none-eabi/lib/thumb/v7e-m+fp/softfp/libc_nano.a(lib_a-reent.o)
hpcd_USB_OTG_FS     0x408             build/usbd_conf.o
uwTick              0x4               build/stm32f4xx_hal.o
pFlash              0x20              build/stm32f4xx_hal_flash.o
__lock___env_recursive_mutex
                    0x1               /usr/local/Cellar/arm-none-eabi-gcc/9-2019-q4-major/gcc/bin/../lib/gcc/arm-none-eabi/9.2.1/../../../../arm-none-eabi/lib/thumb/v7e-m+fp/softfp/libc_nano.a(lib_a-lock.o)
__lock___sinit_recursive_mutex
                    0x1               /usr/local/Cellar/arm-none-eabi-gcc/9-2019-q4-major/gcc/bin/../lib/gcc/arm-none-eabi/9.2.1/../../../../arm-none-eabi/lib/thumb/v7e-m+fp/softfp/libc_nano.a(lib_a-lock.o)
UserRxBufferFS      0x800             build/usbd_cdc_if.o
__lock___malloc_recursive_mutex
                    0x1               /usr/local/Cellar/arm-none-eabi-gcc/9-2019-q4-major/gcc/bin/../lib/gcc/arm-none-eabi/9.2.1/../../../../arm-none-eabi/lib/thumb/v7e-m+fp/softfp/libc_nano.a(lib_a-lock.o)
OutputMessage       0x6               build/main.o
UserTxBufferFS      0x800             build/usbd_cdc_if.o
__lock___at_quick_exit_mutex
                    0x1               /usr/local/Cellar/arm-none-eabi-gcc/9-2019-q4-major/gcc/bin/../lib/gcc/arm-none-eabi/9.2.1/../../../../arm-none-eabi/lib/thumb/v7e-m+fp/softfp/libc_nano.a(lib_a-lock.o)
USBD_StrDesc        0x200             build/usbd_desc.o
__lock___dd_hash_mutex
                    0x1               /usr/local/Cellar/arm-none-eabi-gcc/9-2019-q4-major/gcc/bin/../lib/gcc/arm-none-eabi/9.2.1/../../../../arm-none-eabi/lib/thumb/v7e-m+fp/softfp/libc_nano.a(lib_a-lock.o)
__lock___tz_mutex   0x1               /usr/local/Cellar/arm-none-eabi-gcc/9-2019-q4-major/gcc/bin/../lib/gcc/arm-none-eabi/9.2.1/../../../../arm-none-eabi/lib/thumb/v7e-m+fp/softfp/libc_nano.a(lib_a-lock.o)
__lock___sfp_recursive_mutex
                    0x1               /usr/local/Cellar/arm-none-eabi-gcc/9-2019-q4-major/gcc/bin/../lib/gcc/arm-none-eabi/9.2.1/../../../../arm-none-eabi/lib/thumb/v7e-m+fp/softfp/libc_nano.a(lib_a-lock.o)

Discarded input sections

 .text          0x0000000000000000        0x0 /usr/local/Cellar/arm-none-eabi-gcc/9-2019-q4-major/gcc/bin/../lib/gcc/arm-none-eabi/9.2.1/thumb/v7e-m+fp/softfp/crti.o
 .data          0x0000000000000000        0x0 /usr/local/Cellar/arm-none-eabi-gcc/9-2019-q4-major/gcc/bin/../lib/gcc/arm-none-eabi/9.2.1/thumb/v7e-m+fp/softfp/crti.o
 .bss           0x0000000000000000        0x0 /usr/local/Cellar/arm-none-eabi-gcc/9-2019-q4-major/gcc/bin/../lib/gcc/arm-none-eabi/9.2.1/thumb/v7e-m+fp/softfp/crti.o
 .data          0x0000000000000000        0x4 /usr/local/Cellar/arm-none-eabi-gcc/9-2019-q4-major/gcc/bin/../lib/gcc/arm-none-eabi/9.2.1/thumb/v7e-m+fp/softfp/crtbegin.o
 .text          0x0000000000000000       0x74 /usr/local/Cellar/arm-none-eabi-gcc/9-2019-q4-major/gcc/bin/../lib/gcc/arm-none-eabi/9.2.1/../../../../arm-none-eabi/lib/thumb/v7e-m+fp/softfp/crt0.o
 .data          0x0000000000000000        0x0 /usr/local/Cellar/arm-none-eabi-gcc/9-2019-q4-major/gcc/bin/../lib/gcc/arm-none-eabi/9.2.1/../../../../arm-none-eabi/lib/thumb/v7e-m+fp/softfp/crt0.o
 .bss           0x0000000000000000        0x0 /usr/local/Cellar/arm-none-eabi-gcc/9-2019-q4-major/gcc/bin/../lib/gcc/arm-none-eabi/9.2.1/../../../../arm-none-eabi/lib/thumb/v7e-m+fp/softfp/crt0.o
 .ARM.extab     0x0000000000000000        0x0 /usr/local/Cellar/arm-none-eabi-gcc/9-2019-q4-major/gcc/bin/../lib/gcc/arm-none-eabi/9.2.1/../../../../arm-none-eabi/lib/thumb/v7e-m+fp/softfp/crt0.o
 .ARM.exidx     0x0000000000000000        0x8 /usr/local/Cellar/arm-none-eabi-gcc/9-2019-q4-major/gcc/bin/../lib/gcc/arm-none-eabi/9.2.1/../../../../arm-none-eabi/lib/thumb/v7e-m+fp/softfp/crt0.o
 .ARM.attributes
                0x0000000000000000       0x1c /usr/local/Cellar/arm-none-eabi-gcc/9-2019-q4-major/gcc/bin/../lib/gcc/arm-none-eabi/9.2.1/../../../../arm-none-eabi/lib/thumb/v7e-m+fp/softfp/crt0.o
 .text          0x0000000000000000        0x0 build/main.o
 .data          0x0000000000000000        0x0 build/main.o
 .bss           0x0000000000000000        0x0 build/main.o
 .text          0x0000000000000000        0x0 build/stm32f4xx_it.o
 .data          0x0000000000000000        0x0 build/stm32f4xx_it.o
 .bss           0x0000000000000000        0x0 build/stm32f4xx_it.o
 .text          0x0000000000000000        0x0 build/stm32f4xx_hal_msp.o
 .data          0x0000000000000000        0x0 build/stm32f4xx_hal_msp.o
 .bss           0x0000000000000000        0x0 build/stm32f4xx_hal_msp.o
 .text          0x0000000000000000        0x0 build/usb_device.o
 .data          0x0000000000000000        0x0 build/usb_device.o
 .bss           0x0000000000000000        0x0 build/usb_device.o
 .text          0x0000000000000000        0x0 build/usbd_desc.o
 .data          0x0000000000000000        0x0 build/usbd_desc.o
 .bss           0x0000000000000000        0x0 build/usbd_desc.o
 .text          0x0000000000000000        0x0 build/usbd_cdc_if.o
 .data          0x0000000000000000        0x0 build/usbd_cdc_if.o
 .bss           0x0000000000000000        0x0 build/usbd_cdc_if.o
 .text.CDC_Transmit_FS
                0x0000000000000000       0x4c build/usbd_cdc_if.o
 .text          0x0000000000000000        0x0 build/usbd_conf.o
 .data          0x0000000000000000        0x0 build/usbd_conf.o
 .bss           0x0000000000000000        0x0 build/usbd_conf.o
 .text.HAL_PCD_MspDeInit
                0x0000000000000000       0x40 build/usbd_conf.o
 .text.USBD_LL_DeInit
                0x0000000000000000       0x36 build/usbd_conf.o
 .text.USBD_LL_Stop
                0x0000000000000000       0x36 build/usbd_conf.o
 .text.USBD_LL_FlushEP
                0x0000000000000000       0x3e build/usbd_conf.o
 .text.USBD_LL_Delay
                0x0000000000000000       0x16 build/usbd_conf.o
 .text          0x0000000000000000        0x0 build/stm32f4xx_hal_pcd.o
 .data          0x0000000000000000        0x0 build/stm32f4xx_hal_pcd.o
 .bss           0x0000000000000000        0x0 build/stm32f4xx_hal_pcd.o
 .text.HAL_PCD_DeInit
                0x0000000000000000       0x46 build/stm32f4xx_hal_pcd.o
 .text.HAL_PCD_MspInit
                0x0000000000000000       0x14 build/stm32f4xx_hal_pcd.o
 .text.HAL_PCD_MspDeInit
                0x0000000000000000       0x14 build/stm32f4xx_hal_pcd.o
 .text.HAL_PCD_Stop
                0x0000000000000000       0x72 build/stm32f4xx_hal_pcd.o
 .text.HAL_PCD_WKUP_IRQHandler
                0x0000000000000000       0x3c build/stm32f4xx_hal_pcd.o
 .text.HAL_PCD_DataOutStageCallback
                0x0000000000000000       0x18 build/stm32f4xx_hal_pcd.o
 .text.HAL_PCD_DataInStageCallback
                0x0000000000000000       0x18 build/stm32f4xx_hal_pcd.o
 .text.HAL_PCD_SetupStageCallback
                0x0000000000000000       0x14 build/stm32f4xx_hal_pcd.o
 .text.HAL_PCD_SOFCallback
                0x0000000000000000       0x14 build/stm32f4xx_hal_pcd.o
 .text.HAL_PCD_ResetCallback
                0x0000000000000000       0x14 build/stm32f4xx_hal_pcd.o
 .text.HAL_PCD_SuspendCallback
                0x0000000000000000       0x14 build/stm32f4xx_hal_pcd.o
 .text.HAL_PCD_ResumeCallback
                0x0000000000000000       0x14 build/stm32f4xx_hal_pcd.o
 .text.HAL_PCD_ISOOUTIncompleteCallback
                0x0000000000000000       0x18 build/stm32f4xx_hal_pcd.o
 .text.HAL_PCD_ISOINIncompleteCallback
                0x0000000000000000       0x18 build/stm32f4xx_hal_pcd.o
 .text.HAL_PCD_ConnectCallback
                0x0000000000000000       0x14 build/stm32f4xx_hal_pcd.o
 .text.HAL_PCD_DisconnectCallback
                0x0000000000000000       0x14 build/stm32f4xx_hal_pcd.o
 .text.HAL_PCD_DevConnect
                0x0000000000000000       0x5c build/stm32f4xx_hal_pcd.o
 .text.HAL_PCD_DevDisconnect
                0x0000000000000000       0x5c build/stm32f4xx_hal_pcd.o
 .text.HAL_PCD_EP_Flush
                0x0000000000000000       0x5a build/stm32f4xx_hal_pcd.o
 .text.HAL_PCD_ActivateRemoteWakeup
                0x0000000000000000       0x1c build/stm32f4xx_hal_pcd.o
 .text.HAL_PCD_DeActivateRemoteWakeup
                0x0000000000000000       0x1c build/stm32f4xx_hal_pcd.o
 .text.HAL_PCD_GetState
                0x0000000000000000       0x1c build/stm32f4xx_hal_pcd.o
 .text          0x0000000000000000        0x0 build/stm32f4xx_hal_pcd_ex.o
 .data          0x0000000000000000        0x0 build/stm32f4xx_hal_pcd_ex.o
 .bss           0x0000000000000000        0x0 build/stm32f4xx_hal_pcd_ex.o
 .text.HAL_PCDEx_BCD_Callback
                0x0000000000000000       0x18 build/stm32f4xx_hal_pcd_ex.o
 .text          0x0000000000000000        0x0 build/stm32f4xx_ll_usb.o
 .data          0x0000000000000000        0x0 build/stm32f4xx_ll_usb.o
 .bss           0x0000000000000000        0x0 build/stm32f4xx_ll_usb.o
 .text.USB_ActivateDedicatedEndpoint
                0x0000000000000000      0x110 build/stm32f4xx_ll_usb.o
 .text.USB_DeactivateDedicatedEndpoint
                0x0000000000000000      0x164 build/stm32f4xx_ll_usb.o
 .text.USB_StopDevice
                0x0000000000000000       0x9e build/stm32f4xx_ll_usb.o
 .text.USB_ClearInterrupts
                0x0000000000000000       0x22 build/stm32f4xx_ll_usb.o
 .text.USB_HostInit
                0x0000000000000000      0x178 build/stm32f4xx_ll_usb.o
 .text.USB_InitFSLSPClkSel
                0x0000000000000000       0x74 build/stm32f4xx_ll_usb.o
 .text.USB_ResetPort
                0x0000000000000000       0x54 build/stm32f4xx_ll_usb.o
 .text.USB_DriveVbus
                0x0000000000000000       0x72 build/stm32f4xx_ll_usb.o
 .text.USB_GetHostSpeed
                0x0000000000000000       0x2e build/stm32f4xx_ll_usb.o
 .text.USB_GetCurrentFrame
                0x0000000000000000       0x22 build/stm32f4xx_ll_usb.o
 .text.USB_HC_Init
                0x0000000000000000      0x21c build/stm32f4xx_ll_usb.o
 .text.USB_HC_StartXfer
                0x0000000000000000      0x284 build/stm32f4xx_ll_usb.o
 .text.USB_HC_ReadInterrupt
                0x0000000000000000       0x22 build/stm32f4xx_ll_usb.o
 .text.USB_HC_Halt
                0x0000000000000000      0x238 build/stm32f4xx_ll_usb.o
 .text.USB_DoPing
                0x0000000000000000       0x78 build/stm32f4xx_ll_usb.o
 .text.USB_StopHost
                0x0000000000000000      0x10c build/stm32f4xx_ll_usb.o
 .text.USB_ActivateRemoteWakeup
                0x0000000000000000       0x3e build/stm32f4xx_ll_usb.o
 .text.USB_DeActivateRemoteWakeup
                0x0000000000000000       0x2e build/stm32f4xx_ll_usb.o
 .text          0x0000000000000000        0x0 build/stm32f4xx_hal_rcc.o
 .data          0x0000000000000000        0x0 build/stm32f4xx_hal_rcc.o
 .bss           0x0000000000000000        0x0 build/stm32f4xx_hal_rcc.o
 .text.HAL_RCC_DeInit
                0x0000000000000000       0x10 build/stm32f4xx_hal_rcc.o
 .text.HAL_RCC_MCOConfig
                0x0000000000000000       0xd0 build/stm32f4xx_hal_rcc.o
 .text.HAL_RCC_EnableCSS
                0x0000000000000000       0x18 build/stm32f4xx_hal_rcc.o
 .text.HAL_RCC_DisableCSS
                0x0000000000000000       0x18 build/stm32f4xx_hal_rcc.o
 .text.HAL_RCC_GetPCLK1Freq
                0x0000000000000000       0x28 build/stm32f4xx_hal_rcc.o
 .text.HAL_RCC_GetPCLK2Freq
                0x0000000000000000       0x28 build/stm32f4xx_hal_rcc.o
 .text.HAL_RCC_GetOscConfig
                0x0000000000000000      0x128 build/stm32f4xx_hal_rcc.o
 .text.HAL_RCC_GetClockConfig
                0x0000000000000000       0x64 build/stm32f4xx_hal_rcc.o
 .text.HAL_RCC_NMI_IRQHandler
                0x0000000000000000       0x28 build/stm32f4xx_hal_rcc.o
 .text.HAL_RCC_CSSCallback
                0x0000000000000000        0xe build/stm32f4xx_hal_rcc.o
 .text          0x0000000000000000        0x0 build/stm32f4xx_hal_rcc_ex.o
 .data          0x0000000000000000        0x0 build/stm32f4xx_hal_rcc_ex.o
 .bss           0x0000000000000000        0x0 build/stm32f4xx_hal_rcc_ex.o
 .text.HAL_RCCEx_PeriphCLKConfig
                0x0000000000000000      0x1c4 build/stm32f4xx_hal_rcc_ex.o
 .text.HAL_RCCEx_GetPeriphCLKConfig
                0x0000000000000000       0x58 build/stm32f4xx_hal_rcc_ex.o
 .text.HAL_RCCEx_GetPeriphCLKFreq
                0x0000000000000000       0xbc build/stm32f4xx_hal_rcc_ex.o
 .text.HAL_RCCEx_EnablePLLI2S
                0x0000000000000000       0x88 build/stm32f4xx_hal_rcc_ex.o
 .text.HAL_RCCEx_DisablePLLI2S
                0x0000000000000000       0x44 build/stm32f4xx_hal_rcc_ex.o
 .text.HAL_RCC_DeInit
                0x0000000000000000      0x19c build/stm32f4xx_hal_rcc_ex.o
 .debug_info    0x0000000000000000      0x67b build/stm32f4xx_hal_rcc_ex.o
 .debug_abbrev  0x0000000000000000      0x18e build/stm32f4xx_hal_rcc_ex.o
 .debug_loc     0x0000000000000000      0x1f8 build/stm32f4xx_hal_rcc_ex.o
 .debug_aranges
                0x0000000000000000       0x48 build/stm32f4xx_hal_rcc_ex.o
 .debug_ranges  0x0000000000000000       0x38 build/stm32f4xx_hal_rcc_ex.o
 .debug_line    0x0000000000000000      0x50f build/stm32f4xx_hal_rcc_ex.o
 .debug_str     0x0000000000000000      0x616 build/stm32f4xx_hal_rcc_ex.o
 .comment       0x0000000000000000       0x7a build/stm32f4xx_hal_rcc_ex.o
 .debug_frame   0x0000000000000000      0x100 build/stm32f4xx_hal_rcc_ex.o
 .ARM.attributes
                0x0000000000000000       0x32 build/stm32f4xx_hal_rcc_ex.o
 .text          0x0000000000000000        0x0 build/stm32f4xx_hal_flash.o
 .data          0x0000000000000000        0x0 build/stm32f4xx_hal_flash.o
 .bss           0x0000000000000000        0x0 build/stm32f4xx_hal_flash.o
 .text.HAL_FLASH_Program
                0x0000000000000000       0xa8 build/stm32f4xx_hal_flash.o
 .text.HAL_FLASH_Program_IT
                0x0000000000000000       0x9c build/stm32f4xx_hal_flash.o
 .text.HAL_FLASH_IRQHandler
                0x0000000000000000      0x140 build/stm32f4xx_hal_flash.o
 .text.HAL_FLASH_EndOfOperationCallback
                0x0000000000000000       0x14 build/stm32f4xx_hal_flash.o
 .text.HAL_FLASH_OperationErrorCallback
                0x0000000000000000       0x14 build/stm32f4xx_hal_flash.o
 .text.HAL_FLASH_Unlock
                0x0000000000000000       0x44 build/stm32f4xx_hal_flash.o
 .text.HAL_FLASH_Lock
                0x0000000000000000       0x20 build/stm32f4xx_hal_flash.o
 .text.HAL_FLASH_OB_Unlock
                0x0000000000000000       0x38 build/stm32f4xx_hal_flash.o
 .text.HAL_FLASH_OB_Lock
                0x0000000000000000       0x20 build/stm32f4xx_hal_flash.o
 .text.HAL_FLASH_OB_Launch
                0x0000000000000000       0x28 build/stm32f4xx_hal_flash.o
 .text.HAL_FLASH_GetError
                0x0000000000000000       0x18 build/stm32f4xx_hal_flash.o
 .text.FLASH_WaitForLastOperation
                0x0000000000000000       0x80 build/stm32f4xx_hal_flash.o
 .text.FLASH_Program_DoubleWord
                0x0000000000000000       0x64 build/stm32f4xx_hal_flash.o
 .text.FLASH_Program_Word
                0x0000000000000000       0x44 build/stm32f4xx_hal_flash.o
 .text.FLASH_Program_HalfWord
                0x0000000000000000       0x48 build/stm32f4xx_hal_flash.o
 .text.FLASH_Program_Byte
                0x0000000000000000       0x44 build/stm32f4xx_hal_flash.o
 .text.FLASH_SetErrorCode
                0x0000000000000000       0xac build/stm32f4xx_hal_flash.o
 .debug_info    0x0000000000000000      0x6f7 build/stm32f4xx_hal_flash.o
 .debug_abbrev  0x0000000000000000      0x27b build/stm32f4xx_hal_flash.o
 .debug_loc     0x0000000000000000      0x544 build/stm32f4xx_hal_flash.o
 .debug_aranges
                0x0000000000000000       0xa0 build/stm32f4xx_hal_flash.o
 .debug_ranges  0x0000000000000000       0x90 build/stm32f4xx_hal_flash.o
 .debug_line    0x0000000000000000      0x58f build/stm32f4xx_hal_flash.o
 .debug_str     0x0000000000000000      0x69c build/stm32f4xx_hal_flash.o
 .comment       0x0000000000000000       0x7a build/stm32f4xx_hal_flash.o
 .debug_frame   0x0000000000000000      0x298 build/stm32f4xx_hal_flash.o
 .ARM.attributes
                0x0000000000000000       0x32 build/stm32f4xx_hal_flash.o
 COMMON         0x0000000000000000       0x20 build/stm32f4xx_hal_flash.o
 .text          0x0000000000000000        0x0 build/stm32f4xx_hal_flash_ex.o
 .data          0x0000000000000000        0x0 build/stm32f4xx_hal_flash_ex.o
 .bss           0x0000000000000000        0x0 build/stm32f4xx_hal_flash_ex.o
 .text.HAL_FLASHEx_Erase
                0x0000000000000000       0xe0 build/stm32f4xx_hal_flash_ex.o
 .text.HAL_FLASHEx_Erase_IT
                0x0000000000000000       0xac build/stm32f4xx_hal_flash_ex.o
 .text.HAL_FLASHEx_OBProgram
                0x0000000000000000       0xdc build/stm32f4xx_hal_flash_ex.o
 .text.HAL_FLASHEx_OBGetConfig
                0x0000000000000000       0x46 build/stm32f4xx_hal_flash_ex.o
 .text.FLASH_MassErase
                0x0000000000000000       0x48 build/stm32f4xx_hal_flash_ex.o
 .text.FLASH_Erase_Sector
                0x0000000000000000       0x90 build/stm32f4xx_hal_flash_ex.o
 .text.FLASH_OB_EnableWRP
                0x0000000000000000       0x44 build/stm32f4xx_hal_flash_ex.o
 .text.FLASH_OB_DisableWRP
                0x0000000000000000       0x40 build/stm32f4xx_hal_flash_ex.o
 .text.FLASH_OB_RDP_LevelConfig
                0x0000000000000000       0x34 build/stm32f4xx_hal_flash_ex.o
 .text.FLASH_OB_UserConfig
                0x0000000000000000       0x60 build/stm32f4xx_hal_flash_ex.o
 .text.FLASH_OB_BOR_LevelConfig
                0x0000000000000000       0x3c build/stm32f4xx_hal_flash_ex.o
 .text.FLASH_OB_GetUser
                0x0000000000000000       0x20 build/stm32f4xx_hal_flash_ex.o
 .text.FLASH_OB_GetWRP
                0x0000000000000000       0x18 build/stm32f4xx_hal_flash_ex.o
 .text.FLASH_OB_GetRDP
                0x0000000000000000       0x40 build/stm32f4xx_hal_flash_ex.o
 .text.FLASH_OB_GetBOR
                0x0000000000000000       0x20 build/stm32f4xx_hal_flash_ex.o
 .text.FLASH_FlushCaches
                0x0000000000000000       0x8c build/stm32f4xx_hal_flash_ex.o
 .debug_info    0x0000000000000000      0x816 build/stm32f4xx_hal_flash_ex.o
 .debug_abbrev  0x0000000000000000      0x24d build/stm32f4xx_hal_flash_ex.o
 .debug_loc     0x0000000000000000      0x500 build/stm32f4xx_hal_flash_ex.o
 .debug_aranges
                0x0000000000000000       0x98 build/stm32f4xx_hal_flash_ex.o
 .debug_ranges  0x0000000000000000       0x88 build/stm32f4xx_hal_flash_ex.o
 .debug_line    0x0000000000000000      0x5b4 build/stm32f4xx_hal_flash_ex.o
 .debug_str     0x0000000000000000      0x702 build/stm32f4xx_hal_flash_ex.o
 .comment       0x0000000000000000       0x7a build/stm32f4xx_hal_flash_ex.o
 .debug_frame   0x0000000000000000      0x280 build/stm32f4xx_hal_flash_ex.o
 .ARM.attributes
                0x0000000000000000       0x32 build/stm32f4xx_hal_flash_ex.o
 .text          0x0000000000000000        0x0 build/stm32f4xx_hal_flash_ramfunc.o
 .data          0x0000000000000000        0x0 build/stm32f4xx_hal_flash_ramfunc.o
 .bss           0x0000000000000000        0x0 build/stm32f4xx_hal_flash_ramfunc.o
 .debug_info    0x0000000000000000      0x182 build/stm32f4xx_hal_flash_ramfunc.o
 .debug_abbrev  0x0000000000000000       0x97 build/stm32f4xx_hal_flash_ramfunc.o
 .debug_aranges
                0x0000000000000000       0x18 build/stm32f4xx_hal_flash_ramfunc.o
 .debug_line    0x0000000000000000      0x17e build/stm32f4xx_hal_flash_ramfunc.o
 .debug_str     0x0000000000000000      0x363 build/stm32f4xx_hal_flash_ramfunc.o
 .comment       0x0000000000000000       0x7a build/stm32f4xx_hal_flash_ramfunc.o
 .ARM.attributes
                0x0000000000000000       0x37 build/stm32f4xx_hal_flash_ramfunc.o
 .text          0x0000000000000000        0x0 build/stm32f4xx_hal_gpio.o
 .data          0x0000000000000000        0x0 build/stm32f4xx_hal_gpio.o
 .bss           0x0000000000000000        0x0 build/stm32f4xx_hal_gpio.o
 .text.HAL_GPIO_DeInit
                0x0000000000000000      0x1f8 build/stm32f4xx_hal_gpio.o
 .text.HAL_GPIO_ReadPin
                0x0000000000000000       0x30 build/stm32f4xx_hal_gpio.o
 .text.HAL_GPIO_WritePin
                0x0000000000000000       0x32 build/stm32f4xx_hal_gpio.o
 .text.HAL_GPIO_TogglePin
                0x0000000000000000       0x34 build/stm32f4xx_hal_gpio.o
 .text.HAL_GPIO_LockPin
                0x0000000000000000       0x50 build/stm32f4xx_hal_gpio.o
 .text.HAL_GPIO_EXTI_IRQHandler
                0x0000000000000000       0x30 build/stm32f4xx_hal_gpio.o
 .text.HAL_GPIO_EXTI_Callback
                0x0000000000000000       0x16 build/stm32f4xx_hal_gpio.o
 .text          0x0000000000000000        0x0 build/stm32f4xx_hal_dma_ex.o
 .data          0x0000000000000000        0x0 build/stm32f4xx_hal_dma_ex.o
 .bss           0x0000000000000000        0x0 build/stm32f4xx_hal_dma_ex.o
 .text.HAL_DMAEx_MultiBufferStart
                0x0000000000000000       0x96 build/stm32f4xx_hal_dma_ex.o
 .text.HAL_DMAEx_MultiBufferStart_IT
                0x0000000000000000     0x1290 build/stm32f4xx_hal_dma_ex.o
 .text.HAL_DMAEx_ChangeMemory
                0x0000000000000000       0x34 build/stm32f4xx_hal_dma_ex.o
 .text.DMA_MultiBufferSetConfig
                0x0000000000000000       0x4c build/stm32f4xx_hal_dma_ex.o
 .debug_info    0x0000000000000000      0x697 build/stm32f4xx_hal_dma_ex.o
 .debug_abbrev  0x0000000000000000      0x1d3 build/stm32f4xx_hal_dma_ex.o
 .debug_loc     0x0000000000000000      0x158 build/stm32f4xx_hal_dma_ex.o
 .debug_aranges
                0x0000000000000000       0x38 build/stm32f4xx_hal_dma_ex.o
 .debug_ranges  0x0000000000000000       0x28 build/stm32f4xx_hal_dma_ex.o
 .debug_line    0x0000000000000000      0xe94 build/stm32f4xx_hal_dma_ex.o
 .debug_str     0x0000000000000000      0x6de build/stm32f4xx_hal_dma_ex.o
 .comment       0x0000000000000000       0x7a build/stm32f4xx_hal_dma_ex.o
 .debug_frame   0x0000000000000000       0xb0 build/stm32f4xx_hal_dma_ex.o
 .ARM.attributes
                0x0000000000000000       0x32 build/stm32f4xx_hal_dma_ex.o
 .text          0x0000000000000000        0x0 build/stm32f4xx_hal_dma.o
 .data          0x0000000000000000        0x0 build/stm32f4xx_hal_dma.o
 .bss           0x0000000000000000        0x0 build/stm32f4xx_hal_dma.o
 .text.HAL_DMA_Init
                0x0000000000000000      0x15c build/stm32f4xx_hal_dma.o
 .text.HAL_DMA_DeInit
                0x0000000000000000       0xbc build/stm32f4xx_hal_dma.o
 .text.HAL_DMA_Start
                0x0000000000000000       0x76 build/stm32f4xx_hal_dma.o
 .text.HAL_DMA_Start_IT
                0x0000000000000000       0xb0 build/stm32f4xx_hal_dma.o
 .text.HAL_DMA_Abort
                0x0000000000000000       0xe0 build/stm32f4xx_hal_dma.o
 .text.HAL_DMA_Abort_IT
                0x0000000000000000       0x44 build/stm32f4xx_hal_dma.o
 .text.HAL_DMA_PollForTransfer
                0x0000000000000000      0x1be build/stm32f4xx_hal_dma.o
 .text.HAL_DMA_IRQHandler
                0x0000000000000000      0x314 build/stm32f4xx_hal_dma.o
 .text.HAL_DMA_RegisterCallback
                0x0000000000000000       0xa8 build/stm32f4xx_hal_dma.o
 .text.HAL_DMA_UnRegisterCallback
                0x0000000000000000       0xd4 build/stm32f4xx_hal_dma.o
 .text.HAL_DMA_GetState
                0x0000000000000000       0x1c build/stm32f4xx_hal_dma.o
 .text.HAL_DMA_GetError
                0x0000000000000000       0x18 build/stm32f4xx_hal_dma.o
 .text.DMA_SetConfig
                0x0000000000000000       0x5c build/stm32f4xx_hal_dma.o
 .text.DMA_CalcBaseAndBitshift
                0x0000000000000000       0x6c build/stm32f4xx_hal_dma.o
 .text.DMA_CheckFifoParam
                0x0000000000000000       0xf8 build/stm32f4xx_hal_dma.o
 .rodata.flagBitshiftOffset.7981
                0x0000000000000000        0x8 build/stm32f4xx_hal_dma.o
 .debug_info    0x0000000000000000      0xa8f build/stm32f4xx_hal_dma.o
 .debug_abbrev  0x0000000000000000      0x258 build/stm32f4xx_hal_dma.o
 .debug_loc     0x0000000000000000      0x510 build/stm32f4xx_hal_dma.o
 .debug_aranges
                0x0000000000000000       0x90 build/stm32f4xx_hal_dma.o
 .debug_ranges  0x0000000000000000       0x80 build/stm32f4xx_hal_dma.o
 .debug_line    0x0000000000000000      0xa5f build/stm32f4xx_hal_dma.o
 .debug_str     0x0000000000000000      0x8dd build/stm32f4xx_hal_dma.o
 .comment       0x0000000000000000       0x7a build/stm32f4xx_hal_dma.o
 .debug_frame   0x0000000000000000      0x268 build/stm32f4xx_hal_dma.o
 .ARM.attributes
                0x0000000000000000       0x32 build/stm32f4xx_hal_dma.o
 .text          0x0000000000000000        0x0 build/stm32f4xx_hal_pwr.o
 .data          0x0000000000000000        0x0 build/stm32f4xx_hal_pwr.o
 .bss           0x0000000000000000        0x0 build/stm32f4xx_hal_pwr.o
 .text.HAL_PWR_DeInit
                0x0000000000000000       0x2c build/stm32f4xx_hal_pwr.o
 .text.HAL_PWR_EnableBkUpAccess
                0x0000000000000000       0x28 build/stm32f4xx_hal_pwr.o
 .text.HAL_PWR_DisableBkUpAccess
                0x0000000000000000       0x28 build/stm32f4xx_hal_pwr.o
 .text.HAL_PWR_ConfigPVD
                0x0000000000000000       0xc0 build/stm32f4xx_hal_pwr.o
 .text.HAL_PWR_EnablePVD
                0x0000000000000000       0x18 build/stm32f4xx_hal_pwr.o
 .text.HAL_PWR_DisablePVD
                0x0000000000000000       0x18 build/stm32f4xx_hal_pwr.o
 .text.HAL_PWR_EnableWakeUpPin
                0x0000000000000000       0x24 build/stm32f4xx_hal_pwr.o
 .text.HAL_PWR_DisableWakeUpPin
                0x0000000000000000       0x28 build/stm32f4xx_hal_pwr.o
 .text.HAL_PWR_EnterSLEEPMode
                0x0000000000000000       0x38 build/stm32f4xx_hal_pwr.o
 .text.HAL_PWR_EnterSTOPMode
                0x0000000000000000       0x58 build/stm32f4xx_hal_pwr.o
 .text.HAL_PWR_EnterSTANDBYMode
                0x0000000000000000       0x30 build/stm32f4xx_hal_pwr.o
 .text.HAL_PWR_PVD_IRQHandler
                0x0000000000000000       0x24 build/stm32f4xx_hal_pwr.o
 .text.HAL_PWR_PVDCallback
                0x0000000000000000        0xe build/stm32f4xx_hal_pwr.o
 .text.HAL_PWR_EnableSleepOnExit
                0x0000000000000000       0x20 build/stm32f4xx_hal_pwr.o
 .text.HAL_PWR_DisableSleepOnExit
                0x0000000000000000       0x20 build/stm32f4xx_hal_pwr.o
 .text.HAL_PWR_EnableSEVOnPend
                0x0000000000000000       0x20 build/stm32f4xx_hal_pwr.o
 .text.HAL_PWR_DisableSEVOnPend
                0x0000000000000000       0x20 build/stm32f4xx_hal_pwr.o
 .debug_info    0x0000000000000000      0x8e1 build/stm32f4xx_hal_pwr.o
 .debug_abbrev  0x0000000000000000      0x1b7 build/stm32f4xx_hal_pwr.o
 .debug_loc     0x0000000000000000      0x514 build/stm32f4xx_hal_pwr.o
 .debug_aranges
                0x0000000000000000       0xa0 build/stm32f4xx_hal_pwr.o
 .debug_ranges  0x0000000000000000       0x90 build/stm32f4xx_hal_pwr.o
 .debug_line    0x0000000000000000      0x3eb build/stm32f4xx_hal_pwr.o
 .debug_str     0x0000000000000000      0x6c4 build/stm32f4xx_hal_pwr.o
 .comment       0x0000000000000000       0x7a build/stm32f4xx_hal_pwr.o
 .debug_frame   0x0000000000000000      0x288 build/stm32f4xx_hal_pwr.o
 .ARM.attributes
                0x0000000000000000       0x32 build/stm32f4xx_hal_pwr.o
 .text          0x0000000000000000        0x0 build/stm32f4xx_hal_pwr_ex.o
 .data          0x0000000000000000        0x0 build/stm32f4xx_hal_pwr_ex.o
 .bss           0x0000000000000000        0x0 build/stm32f4xx_hal_pwr_ex.o
 .text.HAL_PWREx_EnableBkUpReg
                0x0000000000000000       0x4c build/stm32f4xx_hal_pwr_ex.o
 .text.HAL_PWREx_DisableBkUpReg
                0x0000000000000000       0x4c build/stm32f4xx_hal_pwr_ex.o
 .text.HAL_PWREx_EnableFlashPowerDown
                0x0000000000000000       0x18 build/stm32f4xx_hal_pwr_ex.o
 .text.HAL_PWREx_DisableFlashPowerDown
                0x0000000000000000       0x18 build/stm32f4xx_hal_pwr_ex.o
 .text.HAL_PWREx_GetVoltageRange
                0x0000000000000000       0x1c build/stm32f4xx_hal_pwr_ex.o
 .text.HAL_PWREx_ControlVoltageScaling
                0x0000000000000000       0x84 build/stm32f4xx_hal_pwr_ex.o
 .debug_info    0x0000000000000000      0x54e build/stm32f4xx_hal_pwr_ex.o
 .debug_abbrev  0x0000000000000000      0x18c build/stm32f4xx_hal_pwr_ex.o
 .debug_loc     0x0000000000000000      0x1bc build/stm32f4xx_hal_pwr_ex.o
 .debug_aranges
                0x0000000000000000       0x48 build/stm32f4xx_hal_pwr_ex.o
 .debug_ranges  0x0000000000000000       0x38 build/stm32f4xx_hal_pwr_ex.o
 .debug_line    0x0000000000000000      0x2ea build/stm32f4xx_hal_pwr_ex.o
 .debug_str     0x0000000000000000      0x57b build/stm32f4xx_hal_pwr_ex.o
 .comment       0x0000000000000000       0x7a build/stm32f4xx_hal_pwr_ex.o
 .debug_frame   0x0000000000000000       0xf4 build/stm32f4xx_hal_pwr_ex.o
 .ARM.attributes
                0x0000000000000000       0x32 build/stm32f4xx_hal_pwr_ex.o
 .text          0x0000000000000000        0x0 build/stm32f4xx_hal_cortex.o
 .data          0x0000000000000000        0x0 build/stm32f4xx_hal_cortex.o
 .bss           0x0000000000000000        0x0 build/stm32f4xx_hal_cortex.o
 .text.__NVIC_DisableIRQ
                0x0000000000000000       0x48 build/stm32f4xx_hal_cortex.o
 .text.__NVIC_GetPendingIRQ
                0x0000000000000000       0x44 build/stm32f4xx_hal_cortex.o
 .text.__NVIC_SetPendingIRQ
                0x0000000000000000       0x3c build/stm32f4xx_hal_cortex.o
 .text.__NVIC_ClearPendingIRQ
                0x0000000000000000       0x3c build/stm32f4xx_hal_cortex.o
 .text.__NVIC_GetActive
                0x0000000000000000       0x44 build/stm32f4xx_hal_cortex.o
 .text.__NVIC_GetPriority
                0x0000000000000000       0x50 build/stm32f4xx_hal_cortex.o
 .text.NVIC_DecodePriority
                0x0000000000000000       0x6e build/stm32f4xx_hal_cortex.o
 .text.__NVIC_SystemReset
                0x0000000000000000       0x2c build/stm32f4xx_hal_cortex.o
 .text.HAL_NVIC_DisableIRQ
                0x0000000000000000       0x1c build/stm32f4xx_hal_cortex.o
 .text.HAL_NVIC_SystemReset
                0x0000000000000000        0x8 build/stm32f4xx_hal_cortex.o
 .text.HAL_MPU_Disable
                0x0000000000000000       0x30 build/stm32f4xx_hal_cortex.o
 .text.HAL_MPU_Enable
                0x0000000000000000       0x40 build/stm32f4xx_hal_cortex.o
 .text.HAL_MPU_ConfigRegion
                0x0000000000000000       0x88 build/stm32f4xx_hal_cortex.o
 .text.HAL_NVIC_GetPriorityGrouping
                0x0000000000000000        0xe build/stm32f4xx_hal_cortex.o
 .text.HAL_NVIC_GetPriority
                0x0000000000000000       0x2c build/stm32f4xx_hal_cortex.o
 .text.HAL_NVIC_SetPendingIRQ
                0x0000000000000000       0x1c build/stm32f4xx_hal_cortex.o
 .text.HAL_NVIC_GetPendingIRQ
                0x0000000000000000       0x1e build/stm32f4xx_hal_cortex.o
 .text.HAL_NVIC_ClearPendingIRQ
                0x0000000000000000       0x1c build/stm32f4xx_hal_cortex.o
 .text.HAL_NVIC_GetActive
                0x0000000000000000       0x1e build/stm32f4xx_hal_cortex.o
 .text.HAL_SYSTICK_CLKSourceConfig
                0x0000000000000000       0x38 build/stm32f4xx_hal_cortex.o
 .text.HAL_SYSTICK_IRQHandler
                0x0000000000000000        0xc build/stm32f4xx_hal_cortex.o
 .text.HAL_SYSTICK_Callback
                0x0000000000000000        0xe build/stm32f4xx_hal_cortex.o
 .text          0x0000000000000000        0x0 build/stm32f4xx_hal.o
 .data          0x0000000000000000        0x0 build/stm32f4xx_hal.o
 .bss           0x0000000000000000        0x0 build/stm32f4xx_hal.o
 .text.HAL_DeInit
                0x0000000000000000       0x58 build/stm32f4xx_hal.o
 .text.HAL_MspInit
                0x0000000000000000        0xe build/stm32f4xx_hal.o
 .text.HAL_MspDeInit
                0x0000000000000000        0xe build/stm32f4xx_hal.o
 .text.HAL_GetTickPrio
                0x0000000000000000       0x18 build/stm32f4xx_hal.o
 .text.HAL_SetTickFreq
                0x0000000000000000       0x50 build/stm32f4xx_hal.o
 .text.HAL_GetTickFreq
                0x0000000000000000       0x18 build/stm32f4xx_hal.o
 .text.HAL_SuspendTick
                0x0000000000000000       0x20 build/stm32f4xx_hal.o
 .text.HAL_ResumeTick
                0x0000000000000000       0x20 build/stm32f4xx_hal.o
 .text.HAL_GetHalVersion
                0x0000000000000000       0x14 build/stm32f4xx_hal.o
 .text.HAL_GetREVID
                0x0000000000000000       0x18 build/stm32f4xx_hal.o
 .text.HAL_GetDEVID
                0x0000000000000000       0x1c build/stm32f4xx_hal.o
 .text.HAL_DBGMCU_EnableDBGSleepMode
                0x0000000000000000       0x20 build/stm32f4xx_hal.o
 .text.HAL_DBGMCU_DisableDBGSleepMode
                0x0000000000000000       0x20 build/stm32f4xx_hal.o
 .text.HAL_DBGMCU_EnableDBGStopMode
                0x0000000000000000       0x20 build/stm32f4xx_hal.o
 .text.HAL_DBGMCU_DisableDBGStopMode
                0x0000000000000000       0x20 build/stm32f4xx_hal.o
 .text.HAL_DBGMCU_EnableDBGStandbyMode
                0x0000000000000000       0x20 build/stm32f4xx_hal.o
 .text.HAL_DBGMCU_DisableDBGStandbyMode
                0x0000000000000000       0x20 build/stm32f4xx_hal.o
 .text.HAL_EnableCompensationCell
                0x0000000000000000       0x18 build/stm32f4xx_hal.o
 .text.HAL_DisableCompensationCell
                0x0000000000000000       0x18 build/stm32f4xx_hal.o
 .text.HAL_GetUIDw0
                0x0000000000000000       0x18 build/stm32f4xx_hal.o
 .text.HAL_GetUIDw1
                0x0000000000000000       0x18 build/stm32f4xx_hal.o
 .text.HAL_GetUIDw2
                0x0000000000000000       0x18 build/stm32f4xx_hal.o
 .text          0x0000000000000000        0x0 build/stm32f4xx_hal_exti.o
 .data          0x0000000000000000        0x0 build/stm32f4xx_hal_exti.o
 .bss           0x0000000000000000        0x0 build/stm32f4xx_hal_exti.o
 .text.HAL_EXTI_SetConfigLine
                0x0000000000000000      0x150 build/stm32f4xx_hal_exti.o
 .text.HAL_EXTI_GetConfigLine
                0x0000000000000000      0x104 build/stm32f4xx_hal_exti.o
 .text.HAL_EXTI_ClearConfigLine
                0x0000000000000000       0xc0 build/stm32f4xx_hal_exti.o
 .text.HAL_EXTI_RegisterCallback
                0x0000000000000000       0x34 build/stm32f4xx_hal_exti.o
 .text.HAL_EXTI_GetHandle
                0x0000000000000000       0x28 build/stm32f4xx_hal_exti.o
 .text.HAL_EXTI_IRQHandler
                0x0000000000000000       0x48 build/stm32f4xx_hal_exti.o
 .text.HAL_EXTI_GetPending
                0x0000000000000000       0x40 build/stm32f4xx_hal_exti.o
 .text.HAL_EXTI_ClearPending
                0x0000000000000000       0x30 build/stm32f4xx_hal_exti.o
 .text.HAL_EXTI_GenerateSWI
                0x0000000000000000       0x30 build/stm32f4xx_hal_exti.o
 .debug_info    0x0000000000000000      0x69d build/stm32f4xx_hal_exti.o
 .debug_abbrev  0x0000000000000000      0x1e1 build/stm32f4xx_hal_exti.o
 .debug_loc     0x0000000000000000      0x330 build/stm32f4xx_hal_exti.o
 .debug_aranges
                0x0000000000000000       0x60 build/stm32f4xx_hal_exti.o
 .debug_ranges  0x0000000000000000       0x50 build/stm32f4xx_hal_exti.o
 .debug_line    0x0000000000000000      0x4d6 build/stm32f4xx_hal_exti.o
 .debug_str     0x0000000000000000      0x576 build/stm32f4xx_hal_exti.o
 .comment       0x0000000000000000       0x7a build/stm32f4xx_hal_exti.o
 .debug_frame   0x0000000000000000      0x178 build/stm32f4xx_hal_exti.o
 .ARM.attributes
                0x0000000000000000       0x32 build/stm32f4xx_hal_exti.o
 .text          0x0000000000000000        0x0 build/stm32f4xx_hal_tim.o
 .data          0x0000000000000000        0x0 build/stm32f4xx_hal_tim.o
 .bss           0x0000000000000000        0x0 build/stm32f4xx_hal_tim.o
 .debug_info    0x0000000000000000      0x182 build/stm32f4xx_hal_tim.o
 .debug_abbrev  0x0000000000000000       0x97 build/stm32f4xx_hal_tim.o
 .debug_aranges
                0x0000000000000000       0x18 build/stm32f4xx_hal_tim.o
 .debug_line    0x0000000000000000      0x17e build/stm32f4xx_hal_tim.o
 .debug_str     0x0000000000000000      0x359 build/stm32f4xx_hal_tim.o
 .comment       0x0000000000000000       0x7a build/stm32f4xx_hal_tim.o
 .ARM.attributes
                0x0000000000000000       0x37 build/stm32f4xx_hal_tim.o
 .text          0x0000000000000000        0x0 build/stm32f4xx_hal_tim_ex.o
 .data          0x0000000000000000        0x0 build/stm32f4xx_hal_tim_ex.o
 .bss           0x0000000000000000        0x0 build/stm32f4xx_hal_tim_ex.o
 .debug_info    0x0000000000000000      0x182 build/stm32f4xx_hal_tim_ex.o
 .debug_abbrev  0x0000000000000000       0x97 build/stm32f4xx_hal_tim_ex.o
 .debug_aranges
                0x0000000000000000       0x18 build/stm32f4xx_hal_tim_ex.o
 .debug_line    0x0000000000000000      0x17e build/stm32f4xx_hal_tim_ex.o
 .debug_str     0x0000000000000000      0x35c build/stm32f4xx_hal_tim_ex.o
 .comment       0x0000000000000000       0x7a build/stm32f4xx_hal_tim_ex.o
 .ARM.attributes
                0x0000000000000000       0x37 build/stm32f4xx_hal_tim_ex.o
 .text          0x0000000000000000        0x0 build/system_stm32f4xx.o
 .data          0x0000000000000000        0x0 build/system_stm32f4xx.o
 .bss           0x0000000000000000        0x0 build/system_stm32f4xx.o
 .rodata.APBPrescTable
                0x0000000000000000        0x8 build/system_stm32f4xx.o
 .text.SystemCoreClockUpdate
                0x0000000000000000      0x100 build/system_stm32f4xx.o
 .text          0x0000000000000000        0x0 build/usbd_core.o
 .data          0x0000000000000000        0x0 build/usbd_core.o
 .bss           0x0000000000000000        0x0 build/usbd_core.o
 .text.USBD_DeInit
                0x0000000000000000       0x68 build/usbd_core.o
 .text.USBD_Stop
                0x0000000000000000       0x36 build/usbd_core.o
 .text          0x0000000000000000        0x0 build/usbd_ctlreq.o
 .data          0x0000000000000000        0x0 build/usbd_ctlreq.o
 .bss           0x0000000000000000        0x0 build/usbd_ctlreq.o
 .text          0x0000000000000000        0x0 build/usbd_ioreq.o
 .data          0x0000000000000000        0x0 build/usbd_ioreq.o
 .bss           0x0000000000000000        0x0 build/usbd_ioreq.o
 .text.USBD_GetRxCount
                0x0000000000000000       0x20 build/usbd_ioreq.o
 .text          0x0000000000000000        0x0 build/usbd_cdc.o
 .data          0x0000000000000000        0x0 build/usbd_cdc.o
 .bss           0x0000000000000000        0x0 build/usbd_cdc.o
 .text.USBD_CDC_TransmitPacket
                0x0000000000000000       0x60 build/usbd_cdc.o
 .text          0x0000000000000000       0x14 build/startup_stm32f407xx.o
 .data          0x0000000000000000        0x0 build/startup_stm32f407xx.o
 .bss           0x0000000000000000        0x0 build/startup_stm32f407xx.o
 .text          0x0000000000000000        0x0 /usr/local/Cellar/arm-none-eabi-gcc/9-2019-q4-major/gcc/bin/../lib/gcc/arm-none-eabi/9.2.1/../../../../arm-none-eabi/lib/thumb/v7e-m+fp/softfp/libc_nano.a(lib_a-exit.o)
 .data          0x0000000000000000        0x0 /usr/local/Cellar/arm-none-eabi-gcc/9-2019-q4-major/gcc/bin/../lib/gcc/arm-none-eabi/9.2.1/../../../../arm-none-eabi/lib/thumb/v7e-m+fp/softfp/libc_nano.a(lib_a-exit.o)
 .bss           0x0000000000000000        0x0 /usr/local/Cellar/arm-none-eabi-gcc/9-2019-q4-major/gcc/bin/../lib/gcc/arm-none-eabi/9.2.1/../../../../arm-none-eabi/lib/thumb/v7e-m+fp/softfp/libc_nano.a(lib_a-exit.o)
 .text.exit     0x0000000000000000       0x28 /usr/local/Cellar/arm-none-eabi-gcc/9-2019-q4-major/gcc/bin/../lib/gcc/arm-none-eabi/9.2.1/../../../../arm-none-eabi/lib/thumb/v7e-m+fp/softfp/libc_nano.a(lib_a-exit.o)
 .debug_frame   0x0000000000000000       0x28 /usr/local/Cellar/arm-none-eabi-gcc/9-2019-q4-major/gcc/bin/../lib/gcc/arm-none-eabi/9.2.1/../../../../arm-none-eabi/lib/thumb/v7e-m+fp/softfp/libc_nano.a(lib_a-exit.o)
 .ARM.attributes
                0x0000000000000000       0x32 /usr/local/Cellar/arm-none-eabi-gcc/9-2019-q4-major/gcc/bin/../lib/gcc/arm-none-eabi/9.2.1/../../../../arm-none-eabi/lib/thumb/v7e-m+fp/softfp/libc_nano.a(lib_a-exit.o)
 .text          0x0000000000000000        0x0 /usr/local/Cellar/arm-none-eabi-gcc/9-2019-q4-major/gcc/bin/../lib/gcc/arm-none-eabi/9.2.1/../../../../arm-none-eabi/lib/thumb/v7e-m+fp/softfp/libc_nano.a(lib_a-impure.o)
 .data          0x0000000000000000        0x0 /usr/local/Cellar/arm-none-eabi-gcc/9-2019-q4-major/gcc/bin/../lib/gcc/arm-none-eabi/9.2.1/../../../../arm-none-eabi/lib/thumb/v7e-m+fp/softfp/libc_nano.a(lib_a-impure.o)
 .bss           0x0000000000000000        0x0 /usr/local/Cellar/arm-none-eabi-gcc/9-2019-q4-major/gcc/bin/../lib/gcc/arm-none-eabi/9.2.1/../../../../arm-none-eabi/lib/thumb/v7e-m+fp/softfp/libc_nano.a(lib_a-impure.o)
 .rodata._global_impure_ptr
                0x0000000000000000        0x4 /usr/local/Cellar/arm-none-eabi-gcc/9-2019-q4-major/gcc/bin/../lib/gcc/arm-none-eabi/9.2.1/../../../../arm-none-eabi/lib/thumb/v7e-m+fp/softfp/libc_nano.a(lib_a-impure.o)
 .text          0x0000000000000000        0x0 /usr/local/Cellar/arm-none-eabi-gcc/9-2019-q4-major/gcc/bin/../lib/gcc/arm-none-eabi/9.2.1/../../../../arm-none-eabi/lib/thumb/v7e-m+fp/softfp/libc_nano.a(lib_a-init.o)
 .data          0x0000000000000000        0x0 /usr/local/Cellar/arm-none-eabi-gcc/9-2019-q4-major/gcc/bin/../lib/gcc/arm-none-eabi/9.2.1/../../../../arm-none-eabi/lib/thumb/v7e-m+fp/softfp/libc_nano.a(lib_a-init.o)
 .bss           0x0000000000000000        0x0 /usr/local/Cellar/arm-none-eabi-gcc/9-2019-q4-major/gcc/bin/../lib/gcc/arm-none-eabi/9.2.1/../../../../arm-none-eabi/lib/thumb/v7e-m+fp/softfp/libc_nano.a(lib_a-init.o)
 .text          0x0000000000000000        0x0 /usr/local/Cellar/arm-none-eabi-gcc/9-2019-q4-major/gcc/bin/../lib/gcc/arm-none-eabi/9.2.1/../../../../arm-none-eabi/lib/thumb/v7e-m+fp/softfp/libc_nano.a(lib_a-malloc.o)
 .data          0x0000000000000000        0x0 /usr/local/Cellar/arm-none-eabi-gcc/9-2019-q4-major/gcc/bin/../lib/gcc/arm-none-eabi/9.2.1/../../../../arm-none-eabi/lib/thumb/v7e-m+fp/softfp/libc_nano.a(lib_a-malloc.o)
 .bss           0x0000000000000000        0x0 /usr/local/Cellar/arm-none-eabi-gcc/9-2019-q4-major/gcc/bin/../lib/gcc/arm-none-eabi/9.2.1/../../../../arm-none-eabi/lib/thumb/v7e-m+fp/softfp/libc_nano.a(lib_a-malloc.o)
 .text.free     0x0000000000000000       0x10 /usr/local/Cellar/arm-none-eabi-gcc/9-2019-q4-major/gcc/bin/../lib/gcc/arm-none-eabi/9.2.1/../../../../arm-none-eabi/lib/thumb/v7e-m+fp/softfp/libc_nano.a(lib_a-malloc.o)
 .text          0x0000000000000000        0x0 /usr/local/Cellar/arm-none-eabi-gcc/9-2019-q4-major/gcc/bin/../lib/gcc/arm-none-eabi/9.2.1/../../../../arm-none-eabi/lib/thumb/v7e-m+fp/softfp/libc_nano.a(lib_a-memset.o)
 .data          0x0000000000000000        0x0 /usr/local/Cellar/arm-none-eabi-gcc/9-2019-q4-major/gcc/bin/../lib/gcc/arm-none-eabi/9.2.1/../../../../arm-none-eabi/lib/thumb/v7e-m+fp/softfp/libc_nano.a(lib_a-memset.o)
 .bss           0x0000000000000000        0x0 /usr/local/Cellar/arm-none-eabi-gcc/9-2019-q4-major/gcc/bin/../lib/gcc/arm-none-eabi/9.2.1/../../../../arm-none-eabi/lib/thumb/v7e-m+fp/softfp/libc_nano.a(lib_a-memset.o)
 .text          0x0000000000000000        0x0 /usr/local/Cellar/arm-none-eabi-gcc/9-2019-q4-major/gcc/bin/../lib/gcc/arm-none-eabi/9.2.1/../../../../arm-none-eabi/lib/thumb/v7e-m+fp/softfp/libc_nano.a(lib_a-nano-freer.o)
 .data          0x0000000000000000        0x0 /usr/local/Cellar/arm-none-eabi-gcc/9-2019-q4-major/gcc/bin/../lib/gcc/arm-none-eabi/9.2.1/../../../../arm-none-eabi/lib/thumb/v7e-m+fp/softfp/libc_nano.a(lib_a-nano-freer.o)
 .bss           0x0000000000000000        0x0 /usr/local/Cellar/arm-none-eabi-gcc/9-2019-q4-major/gcc/bin/../lib/gcc/arm-none-eabi/9.2.1/../../../../arm-none-eabi/lib/thumb/v7e-m+fp/softfp/libc_nano.a(lib_a-nano-freer.o)
 .text          0x0000000000000000        0x0 /usr/local/Cellar/arm-none-eabi-gcc/9-2019-q4-major/gcc/bin/../lib/gcc/arm-none-eabi/9.2.1/../../../../arm-none-eabi/lib/thumb/v7e-m+fp/softfp/libc_nano.a(lib_a-nano-mallocr.o)
 .data          0x0000000000000000        0x0 /usr/local/Cellar/arm-none-eabi-gcc/9-2019-q4-major/gcc/bin/../lib/gcc/arm-none-eabi/9.2.1/../../../../arm-none-eabi/lib/thumb/v7e-m+fp/softfp/libc_nano.a(lib_a-nano-mallocr.o)
 .bss           0x0000000000000000        0x0 /usr/local/Cellar/arm-none-eabi-gcc/9-2019-q4-major/gcc/bin/../lib/gcc/arm-none-eabi/9.2.1/../../../../arm-none-eabi/lib/thumb/v7e-m+fp/softfp/libc_nano.a(lib_a-nano-mallocr.o)
 .text          0x0000000000000000        0x0 /usr/local/Cellar/arm-none-eabi-gcc/9-2019-q4-major/gcc/bin/../lib/gcc/arm-none-eabi/9.2.1/../../../../arm-none-eabi/lib/thumb/v7e-m+fp/softfp/libc_nano.a(lib_a-sbrkr.o)
 .data          0x0000000000000000        0x0 /usr/local/Cellar/arm-none-eabi-gcc/9-2019-q4-major/gcc/bin/../lib/gcc/arm-none-eabi/9.2.1/../../../../arm-none-eabi/lib/thumb/v7e-m+fp/softfp/libc_nano.a(lib_a-sbrkr.o)
 .bss           0x0000000000000000        0x0 /usr/local/Cellar/arm-none-eabi-gcc/9-2019-q4-major/gcc/bin/../lib/gcc/arm-none-eabi/9.2.1/../../../../arm-none-eabi/lib/thumb/v7e-m+fp/softfp/libc_nano.a(lib_a-sbrkr.o)
 .text          0x0000000000000000        0x0 /usr/local/Cellar/arm-none-eabi-gcc/9-2019-q4-major/gcc/bin/../lib/gcc/arm-none-eabi/9.2.1/../../../../arm-none-eabi/lib/thumb/v7e-m+fp/softfp/libc_nano.a(lib_a-sprintf.o)
 .data          0x0000000000000000        0x0 /usr/local/Cellar/arm-none-eabi-gcc/9-2019-q4-major/gcc/bin/../lib/gcc/arm-none-eabi/9.2.1/../../../../arm-none-eabi/lib/thumb/v7e-m+fp/softfp/libc_nano.a(lib_a-sprintf.o)
 .bss           0x0000000000000000        0x0 /usr/local/Cellar/arm-none-eabi-gcc/9-2019-q4-major/gcc/bin/../lib/gcc/arm-none-eabi/9.2.1/../../../../arm-none-eabi/lib/thumb/v7e-m+fp/softfp/libc_nano.a(lib_a-sprintf.o)
 .text._sprintf_r
                0x0000000000000000       0x38 /usr/local/Cellar/arm-none-eabi-gcc/9-2019-q4-major/gcc/bin/../lib/gcc/arm-none-eabi/9.2.1/../../../../arm-none-eabi/lib/thumb/v7e-m+fp/softfp/libc_nano.a(lib_a-sprintf.o)
 .text          0x0000000000000000        0x0 /usr/local/Cellar/arm-none-eabi-gcc/9-2019-q4-major/gcc/bin/../lib/gcc/arm-none-eabi/9.2.1/../../../../arm-none-eabi/lib/thumb/v7e-m+fp/softfp/libc_nano.a(lib_a-mlock.o)
 .data          0x0000000000000000        0x0 /usr/local/Cellar/arm-none-eabi-gcc/9-2019-q4-major/gcc/bin/../lib/gcc/arm-none-eabi/9.2.1/../../../../arm-none-eabi/lib/thumb/v7e-m+fp/softfp/libc_nano.a(lib_a-mlock.o)
 .bss           0x0000000000000000        0x0 /usr/local/Cellar/arm-none-eabi-gcc/9-2019-q4-major/gcc/bin/../lib/gcc/arm-none-eabi/9.2.1/../../../../arm-none-eabi/lib/thumb/v7e-m+fp/softfp/libc_nano.a(lib_a-mlock.o)
 .text          0x0000000000000000        0x0 /usr/local/Cellar/arm-none-eabi-gcc/9-2019-q4-major/gcc/bin/../lib/gcc/arm-none-eabi/9.2.1/../../../../arm-none-eabi/lib/thumb/v7e-m+fp/softfp/libc_nano.a(lib_a-nano-svfprintf.o)
 .data          0x0000000000000000        0x0 /usr/local/Cellar/arm-none-eabi-gcc/9-2019-q4-major/gcc/bin/../lib/gcc/arm-none-eabi/9.2.1/../../../../arm-none-eabi/lib/thumb/v7e-m+fp/softfp/libc_nano.a(lib_a-nano-svfprintf.o)
 .bss           0x0000000000000000        0x0 /usr/local/Cellar/arm-none-eabi-gcc/9-2019-q4-major/gcc/bin/../lib/gcc/arm-none-eabi/9.2.1/../../../../arm-none-eabi/lib/thumb/v7e-m+fp/softfp/libc_nano.a(lib_a-nano-svfprintf.o)
 .text.__ssprint_r
                0x0000000000000000       0xf6 /usr/local/Cellar/arm-none-eabi-gcc/9-2019-q4-major/gcc/bin/../lib/gcc/arm-none-eabi/9.2.1/../../../../arm-none-eabi/lib/thumb/v7e-m+fp/softfp/libc_nano.a(lib_a-nano-svfprintf.o)
 .text          0x0000000000000000        0x0 /usr/local/Cellar/arm-none-eabi-gcc/9-2019-q4-major/gcc/bin/../lib/gcc/arm-none-eabi/9.2.1/../../../../arm-none-eabi/lib/thumb/v7e-m+fp/softfp/libc_nano.a(lib_a-nano-vfprintf_i.o)
 .data          0x0000000000000000        0x0 /usr/local/Cellar/arm-none-eabi-gcc/9-2019-q4-major/gcc/bin/../lib/gcc/arm-none-eabi/9.2.1/../../../../arm-none-eabi/lib/thumb/v7e-m+fp/softfp/libc_nano.a(lib_a-nano-vfprintf_i.o)
 .bss           0x0000000000000000        0x0 /usr/local/Cellar/arm-none-eabi-gcc/9-2019-q4-major/gcc/bin/../lib/gcc/arm-none-eabi/9.2.1/../../../../arm-none-eabi/lib/thumb/v7e-m+fp/softfp/libc_nano.a(lib_a-nano-vfprintf_i.o)
 .text          0x0000000000000000        0x0 /usr/local/Cellar/arm-none-eabi-gcc/9-2019-q4-major/gcc/bin/../lib/gcc/arm-none-eabi/9.2.1/../../../../arm-none-eabi/lib/thumb/v7e-m+fp/softfp/libc_nano.a(lib_a-reent.o)
 .data          0x0000000000000000        0x0 /usr/local/Cellar/arm-none-eabi-gcc/9-2019-q4-major/gcc/bin/../lib/gcc/arm-none-eabi/9.2.1/../../../../arm-none-eabi/lib/thumb/v7e-m+fp/softfp/libc_nano.a(lib_a-reent.o)
 .bss           0x0000000000000000        0x0 /usr/local/Cellar/arm-none-eabi-gcc/9-2019-q4-major/gcc/bin/../lib/gcc/arm-none-eabi/9.2.1/../../../../arm-none-eabi/lib/thumb/v7e-m+fp/softfp/libc_nano.a(lib_a-reent.o)
 .text.cleanup_glue
                0x0000000000000000       0x1a /usr/local/Cellar/arm-none-eabi-gcc/9-2019-q4-major/gcc/bin/../lib/gcc/arm-none-eabi/9.2.1/../../../../arm-none-eabi/lib/thumb/v7e-m+fp/softfp/libc_nano.a(lib_a-reent.o)
 .text._reclaim_reent
                0x0000000000000000       0xb8 /usr/local/Cellar/arm-none-eabi-gcc/9-2019-q4-major/gcc/bin/../lib/gcc/arm-none-eabi/9.2.1/../../../../arm-none-eabi/lib/thumb/v7e-m+fp/softfp/libc_nano.a(lib_a-reent.o)
 .text          0x0000000000000000        0x0 /usr/local/Cellar/arm-none-eabi-gcc/9-2019-q4-major/gcc/bin/../lib/gcc/arm-none-eabi/9.2.1/../../../../arm-none-eabi/lib/thumb/v7e-m+fp/softfp/libc_nano.a(lib_a-lock.o)
 .data          0x0000000000000000        0x0 /usr/local/Cellar/arm-none-eabi-gcc/9-2019-q4-major/gcc/bin/../lib/gcc/arm-none-eabi/9.2.1/../../../../arm-none-eabi/lib/thumb/v7e-m+fp/softfp/libc_nano.a(lib_a-lock.o)
 .bss           0x0000000000000000        0x0 /usr/local/Cellar/arm-none-eabi-gcc/9-2019-q4-major/gcc/bin/../lib/gcc/arm-none-eabi/9.2.1/../../../../arm-none-eabi/lib/thumb/v7e-m+fp/softfp/libc_nano.a(lib_a-lock.o)
 .text.__retarget_lock_init
                0x0000000000000000        0x2 /usr/local/Cellar/arm-none-eabi-gcc/9-2019-q4-major/gcc/bin/../lib/gcc/arm-none-eabi/9.2.1/../../../../arm-none-eabi/lib/thumb/v7e-m+fp/softfp/libc_nano.a(lib_a-lock.o)
 .text.__retarget_lock_init_recursive
                0x0000000000000000        0x2 /usr/local/Cellar/arm-none-eabi-gcc/9-2019-q4-major/gcc/bin/../lib/gcc/arm-none-eabi/9.2.1/../../../../arm-none-eabi/lib/thumb/v7e-m+fp/softfp/libc_nano.a(lib_a-lock.o)
 .text.__retarget_lock_close
                0x0000000000000000        0x2 /usr/local/Cellar/arm-none-eabi-gcc/9-2019-q4-major/gcc/bin/../lib/gcc/arm-none-eabi/9.2.1/../../../../arm-none-eabi/lib/thumb/v7e-m+fp/softfp/libc_nano.a(lib_a-lock.o)
 .text.__retarget_lock_close_recursive
                0x0000000000000000        0x2 /usr/local/Cellar/arm-none-eabi-gcc/9-2019-q4-major/gcc/bin/../lib/gcc/arm-none-eabi/9.2.1/../../../../arm-none-eabi/lib/thumb/v7e-m+fp/softfp/libc_nano.a(lib_a-lock.o)
 .text.__retarget_lock_acquire
                0x0000000000000000        0x2 /usr/local/Cellar/arm-none-eabi-gcc/9-2019-q4-major/gcc/bin/../lib/gcc/arm-none-eabi/9.2.1/../../../../arm-none-eabi/lib/thumb/v7e-m+fp/softfp/libc_nano.a(lib_a-lock.o)
 .text.__retarget_lock_try_acquire
                0x0000000000000000        0x4 /usr/local/Cellar/arm-none-eabi-gcc/9-2019-q4-major/gcc/bin/../lib/gcc/arm-none-eabi/9.2.1/../../../../arm-none-eabi/lib/thumb/v7e-m+fp/softfp/libc_nano.a(lib_a-lock.o)
 .text.__retarget_lock_try_acquire_recursive
                0x0000000000000000        0x4 /usr/local/Cellar/arm-none-eabi-gcc/9-2019-q4-major/gcc/bin/../lib/gcc/arm-none-eabi/9.2.1/../../../../arm-none-eabi/lib/thumb/v7e-m+fp/softfp/libc_nano.a(lib_a-lock.o)
 .text.__retarget_lock_release
                0x0000000000000000        0x2 /usr/local/Cellar/arm-none-eabi-gcc/9-2019-q4-major/gcc/bin/../lib/gcc/arm-none-eabi/9.2.1/../../../../arm-none-eabi/lib/thumb/v7e-m+fp/softfp/libc_nano.a(lib_a-lock.o)
 .data          0x0000000000000000        0x0 /usr/local/Cellar/arm-none-eabi-gcc/9-2019-q4-major/gcc/bin/../lib/gcc/arm-none-eabi/9.2.1/../../../../arm-none-eabi/lib/thumb/v7e-m+fp/softfp/libc_nano.a(lib_a-memchr.o)
 .bss           0x0000000000000000        0x0 /usr/local/Cellar/arm-none-eabi-gcc/9-2019-q4-major/gcc/bin/../lib/gcc/arm-none-eabi/9.2.1/../../../../arm-none-eabi/lib/thumb/v7e-m+fp/softfp/libc_nano.a(lib_a-memchr.o)
 .text          0x0000000000000000        0x0 /usr/local/Cellar/arm-none-eabi-gcc/9-2019-q4-major/gcc/bin/../lib/gcc/arm-none-eabi/9.2.1/../../../../arm-none-eabi/lib/thumb/v7e-m+fp/softfp/libc_nano.a(lib_a-memcpy-stub.o)
 .data          0x0000000000000000        0x0 /usr/local/Cellar/arm-none-eabi-gcc/9-2019-q4-major/gcc/bin/../lib/gcc/arm-none-eabi/9.2.1/../../../../arm-none-eabi/lib/thumb/v7e-m+fp/softfp/libc_nano.a(lib_a-memcpy-stub.o)
 .bss           0x0000000000000000        0x0 /usr/local/Cellar/arm-none-eabi-gcc/9-2019-q4-major/gcc/bin/../lib/gcc/arm-none-eabi/9.2.1/../../../../arm-none-eabi/lib/thumb/v7e-m+fp/softfp/libc_nano.a(lib_a-memcpy-stub.o)
 .text          0x0000000000000000        0x0 /usr/local/Cellar/arm-none-eabi-gcc/9-2019-q4-major/gcc/bin/../lib/gcc/arm-none-eabi/9.2.1/../../../../arm-none-eabi/lib/thumb/v7e-m+fp/softfp/libc_nano.a(lib_a-memmove.o)
 .data          0x0000000000000000        0x0 /usr/local/Cellar/arm-none-eabi-gcc/9-2019-q4-major/gcc/bin/../lib/gcc/arm-none-eabi/9.2.1/../../../../arm-none-eabi/lib/thumb/v7e-m+fp/softfp/libc_nano.a(lib_a-memmove.o)
 .bss           0x0000000000000000        0x0 /usr/local/Cellar/arm-none-eabi-gcc/9-2019-q4-major/gcc/bin/../lib/gcc/arm-none-eabi/9.2.1/../../../../arm-none-eabi/lib/thumb/v7e-m+fp/softfp/libc_nano.a(lib_a-memmove.o)
 .text          0x0000000000000000        0x0 /usr/local/Cellar/arm-none-eabi-gcc/9-2019-q4-major/gcc/bin/../lib/gcc/arm-none-eabi/9.2.1/../../../../arm-none-eabi/lib/thumb/v7e-m+fp/softfp/libc_nano.a(lib_a-nano-reallocr.o)
 .data          0x0000000000000000        0x0 /usr/local/Cellar/arm-none-eabi-gcc/9-2019-q4-major/gcc/bin/../lib/gcc/arm-none-eabi/9.2.1/../../../../arm-none-eabi/lib/thumb/v7e-m+fp/softfp/libc_nano.a(lib_a-nano-reallocr.o)
 .bss           0x0000000000000000        0x0 /usr/local/Cellar/arm-none-eabi-gcc/9-2019-q4-major/gcc/bin/../lib/gcc/arm-none-eabi/9.2.1/../../../../arm-none-eabi/lib/thumb/v7e-m+fp/softfp/libc_nano.a(lib_a-nano-reallocr.o)
 .text          0x0000000000000000        0x0 /usr/local/Cellar/arm-none-eabi-gcc/9-2019-q4-major/gcc/bin/../lib/gcc/arm-none-eabi/9.2.1/../../../../arm-none-eabi/lib/thumb/v7e-m+fp/softfp/libc_nano.a(lib_a-nano-msizer.o)
 .data          0x0000000000000000        0x0 /usr/local/Cellar/arm-none-eabi-gcc/9-2019-q4-major/gcc/bin/../lib/gcc/arm-none-eabi/9.2.1/../../../../arm-none-eabi/lib/thumb/v7e-m+fp/softfp/libc_nano.a(lib_a-nano-msizer.o)
 .bss           0x0000000000000000        0x0 /usr/local/Cellar/arm-none-eabi-gcc/9-2019-q4-major/gcc/bin/../lib/gcc/arm-none-eabi/9.2.1/../../../../arm-none-eabi/lib/thumb/v7e-m+fp/softfp/libc_nano.a(lib_a-nano-msizer.o)
 .text          0x0000000000000000        0x0 /usr/local/Cellar/arm-none-eabi-gcc/9-2019-q4-major/gcc/bin/../lib/gcc/arm-none-eabi/9.2.1/../../../../arm-none-eabi/lib/thumb/v7e-m+fp/softfp/libnosys.a(sbrk.o)
 .data          0x0000000000000000        0x0 /usr/local/Cellar/arm-none-eabi-gcc/9-2019-q4-major/gcc/bin/../lib/gcc/arm-none-eabi/9.2.1/../../../../arm-none-eabi/lib/thumb/v7e-m+fp/softfp/libnosys.a(sbrk.o)
 .bss           0x0000000000000000        0x0 /usr/local/Cellar/arm-none-eabi-gcc/9-2019-q4-major/gcc/bin/../lib/gcc/arm-none-eabi/9.2.1/../../../../arm-none-eabi/lib/thumb/v7e-m+fp/softfp/libnosys.a(sbrk.o)
 .text          0x0000000000000000        0x0 /usr/local/Cellar/arm-none-eabi-gcc/9-2019-q4-major/gcc/bin/../lib/gcc/arm-none-eabi/9.2.1/../../../../arm-none-eabi/lib/thumb/v7e-m+fp/softfp/libnosys.a(_exit.o)
 .data          0x0000000000000000        0x0 /usr/local/Cellar/arm-none-eabi-gcc/9-2019-q4-major/gcc/bin/../lib/gcc/arm-none-eabi/9.2.1/../../../../arm-none-eabi/lib/thumb/v7e-m+fp/softfp/libnosys.a(_exit.o)
 .bss           0x0000000000000000        0x0 /usr/local/Cellar/arm-none-eabi-gcc/9-2019-q4-major/gcc/bin/../lib/gcc/arm-none-eabi/9.2.1/../../../../arm-none-eabi/lib/thumb/v7e-m+fp/softfp/libnosys.a(_exit.o)
 .text._exit    0x0000000000000000        0x4 /usr/local/Cellar/arm-none-eabi-gcc/9-2019-q4-major/gcc/bin/../lib/gcc/arm-none-eabi/9.2.1/../../../../arm-none-eabi/lib/thumb/v7e-m+fp/softfp/libnosys.a(_exit.o)
 .debug_frame   0x0000000000000000       0x20 /usr/local/Cellar/arm-none-eabi-gcc/9-2019-q4-major/gcc/bin/../lib/gcc/arm-none-eabi/9.2.1/../../../../arm-none-eabi/lib/thumb/v7e-m+fp/softfp/libnosys.a(_exit.o)
 .ARM.attributes
                0x0000000000000000       0x32 /usr/local/Cellar/arm-none-eabi-gcc/9-2019-q4-major/gcc/bin/../lib/gcc/arm-none-eabi/9.2.1/../../../../arm-none-eabi/lib/thumb/v7e-m+fp/softfp/libnosys.a(_exit.o)
 .text          0x0000000000000000        0x0 Middlewares/ST/STM32_Cryptographic/Lib/libSTM32CryptographicV3.0.0_CM4_GCC.a(crypto.o)
 .data          0x0000000000000000        0x0 Middlewares/ST/STM32_Cryptographic/Lib/libSTM32CryptographicV3.0.0_CM4_GCC.a(crypto.o)
 .bss           0x0000000000000000        0x0 Middlewares/ST/STM32_Cryptographic/Lib/libSTM32CryptographicV3.0.0_CM4_GCC.a(crypto.o)
 .text.poly_xor
                0x0000000000000000       0x24 Middlewares/ST/STM32_Cryptographic/Lib/libSTM32CryptographicV3.0.0_CM4_GCC.a(crypto.o)
 .text.gfmul_x8
                0x0000000000000000       0x40 Middlewares/ST/STM32_Cryptographic/Lib/libSTM32CryptographicV3.0.0_CM4_GCC.a(crypto.o)
 .text.gfmul_x4
                0x0000000000000000       0x40 Middlewares/ST/STM32_Cryptographic/Lib/libSTM32CryptographicV3.0.0_CM4_GCC.a(crypto.o)
 .text.xts_new_tweak
                0x0000000000000000       0x3c Middlewares/ST/STM32_Cryptographic/Lib/libSTM32CryptographicV3.0.0_CM4_GCC.a(crypto.o)
 .text.desfunc  0x0000000000000000      0x1ec Middlewares/ST/STM32_Cryptographic/Lib/libSTM32CryptographicV3.0.0_CM4_GCC.a(crypto.o)
 .text.deskey   0x0000000000000000      0x1cc Middlewares/ST/STM32_Cryptographic/Lib/libSTM32CryptographicV3.0.0_CM4_GCC.a(crypto.o)
 .text.reduce_add_sub
                0x0000000000000000       0x54 Middlewares/ST/STM32_Cryptographic/Lib/libSTM32CryptographicV3.0.0_CM4_GCC.a(crypto.o)
 .text.barrett_reduce
                0x0000000000000000      0x1b8 Middlewares/ST/STM32_Cryptographic/Lib/libSTM32CryptographicV3.0.0_CM4_GCC.a(crypto.o)
 .text.reduceRS
                0x0000000000000000       0x7a Middlewares/ST/STM32_Cryptographic/Lib/libSTM32CryptographicV3.0.0_CM4_GCC.a(crypto.o)
 .text.c25519_select
                0x0000000000000000      0x128 Middlewares/ST/STM32_Cryptographic/Lib/libSTM32CryptographicV3.0.0_CM4_GCC.a(crypto.o)
 .text.SHA1Transform
                0x0000000000000000      0x394 Middlewares/ST/STM32_Cryptographic/Lib/libSTM32CryptographicV3.0.0_CM4_GCC.a(crypto.o)
 .text.SHA256Transform
                0x0000000000000000      0x270 Middlewares/ST/STM32_Cryptographic/Lib/libSTM32CryptographicV3.0.0_CM4_GCC.a(crypto.o)
 .text.SHA512Transform
                0x0000000000000000      0x488 Middlewares/ST/STM32_Cryptographic/Lib/libSTM32CryptographicV3.0.0_CM4_GCC.a(crypto.o)
 .text.md5_process
                0x0000000000000000      0x7a4 Middlewares/ST/STM32_Cryptographic/Lib/libSTM32CryptographicV3.0.0_CM4_GCC.a(crypto.o)
 .text.DESstdInit
                0x0000000000000000       0x8e Middlewares/ST/STM32_Cryptographic/Lib/libSTM32CryptographicV3.0.0_CM4_GCC.a(crypto.o)
 .text.TDESstdInit
                0x0000000000000000       0xc2 Middlewares/ST/STM32_Cryptographic/Lib/libSTM32CryptographicV3.0.0_CM4_GCC.a(crypto.o)
 .text.DRBG_AES128_Increment_v
                0x0000000000000000       0x20 Middlewares/ST/STM32_Cryptographic/Lib/libSTM32CryptographicV3.0.0_CM4_GCC.a(crypto.o)
 .text.gfmul    0x0000000000000000       0xa6 Middlewares/ST/STM32_Cryptographic/Lib/libSTM32CryptographicV3.0.0_CM4_GCC.a(crypto.o)
 .text.AESgcmAppend
                0x0000000000000000      0x390 Middlewares/ST/STM32_Cryptographic/Lib/libSTM32CryptographicV3.0.0_CM4_GCC.a(crypto.o)
 .text.AESgcmFinal
                0x0000000000000000      0x168 Middlewares/ST/STM32_Cryptographic/Lib/libSTM32CryptographicV3.0.0_CM4_GCC.a(crypto.o)
 .text.AESccmFinal
                0x0000000000000000       0x30 Middlewares/ST/STM32_Cryptographic/Lib/libSTM32CryptographicV3.0.0_CM4_GCC.a(crypto.o)
 .text.DRBG_AES128_Bcc
                0x0000000000000000       0x4c Middlewares/ST/STM32_Cryptographic/Lib/libSTM32CryptographicV3.0.0_CM4_GCC.a(crypto.o)
 .text.DRBG_AES128_Update
                0x0000000000000000       0x5a Middlewares/ST/STM32_Cryptographic/Lib/libSTM32CryptographicV3.0.0_CM4_GCC.a(crypto.o)
 .text.DRBG_AES128_Block_cipher_df.constprop.37
                0x0000000000000000       0xcc Middlewares/ST/STM32_Cryptographic/Lib/libSTM32CryptographicV3.0.0_CM4_GCC.a(crypto.o)
 .text.crl_DRBG_AES128_Generate.part.31
                0x0000000000000000      0x148 Middlewares/ST/STM32_Cryptographic/Lib/libSTM32CryptographicV3.0.0_CM4_GCC.a(crypto.o)
 .text.AES_XTS_Common_Init
                0x0000000000000000       0x92 Middlewares/ST/STM32_Cryptographic/Lib/libSTM32CryptographicV3.0.0_CM4_GCC.a(crypto.o)
 .text.AES_general_SW_dec
                0x0000000000000000      0x2b4 Middlewares/ST/STM32_Cryptographic/Lib/libSTM32CryptographicV3.0.0_CM4_GCC.a(crypto.o)
 .text.AES_XTS_Common_Append.part.5
                0x0000000000000000      0x2c0 Middlewares/ST/STM32_Cryptographic/Lib/libSTM32CryptographicV3.0.0_CM4_GCC.a(crypto.o)
 .text.AES_ECB_Encrypt_Init
                0x0000000000000000        0x6 Middlewares/ST/STM32_Cryptographic/Lib/libSTM32CryptographicV3.0.0_CM4_GCC.a(crypto.o)
 .text.AES_ECB_Encrypt_Append
                0x0000000000000000       0x8e Middlewares/ST/STM32_Cryptographic/Lib/libSTM32CryptographicV3.0.0_CM4_GCC.a(crypto.o)
 .text.AES_ECB_Encrypt_Finish
                0x0000000000000000       0x18 Middlewares/ST/STM32_Cryptographic/Lib/libSTM32CryptographicV3.0.0_CM4_GCC.a(crypto.o)
 .text.AES_ECB_Decrypt_Init
                0x0000000000000000        0x6 Middlewares/ST/STM32_Cryptographic/Lib/libSTM32CryptographicV3.0.0_CM4_GCC.a(crypto.o)
 .text.AES_ECB_Decrypt_Append
                0x0000000000000000       0x86 Middlewares/ST/STM32_Cryptographic/Lib/libSTM32CryptographicV3.0.0_CM4_GCC.a(crypto.o)
 .text.AES_ECB_Decrypt_Finish
                0x0000000000000000       0x18 Middlewares/ST/STM32_Cryptographic/Lib/libSTM32CryptographicV3.0.0_CM4_GCC.a(crypto.o)
 .text.AES_CBC_Decrypt_Init
                0x0000000000000000        0x6 Middlewares/ST/STM32_Cryptographic/Lib/libSTM32CryptographicV3.0.0_CM4_GCC.a(crypto.o)
 .text.AES_CBC_Decrypt_Append
                0x0000000000000000      0x224 Middlewares/ST/STM32_Cryptographic/Lib/libSTM32CryptographicV3.0.0_CM4_GCC.a(crypto.o)
 .text.AES_CBC_Decrypt_Finish
                0x0000000000000000       0x18 Middlewares/ST/STM32_Cryptographic/Lib/libSTM32CryptographicV3.0.0_CM4_GCC.a(crypto.o)
 .text.AES_CTR_Encrypt_Init
                0x0000000000000000        0x6 Middlewares/ST/STM32_Cryptographic/Lib/libSTM32CryptographicV3.0.0_CM4_GCC.a(crypto.o)
 .text.AES_CTR_Encrypt_Append
                0x0000000000000000      0x1f4 Middlewares/ST/STM32_Cryptographic/Lib/libSTM32CryptographicV3.0.0_CM4_GCC.a(crypto.o)
 .text.AES_CTR_Encrypt_Finish
                0x0000000000000000       0x18 Middlewares/ST/STM32_Cryptographic/Lib/libSTM32CryptographicV3.0.0_CM4_GCC.a(crypto.o)
 .text.AES_CTR_Decrypt_Init
                0x0000000000000000        0x6 Middlewares/ST/STM32_Cryptographic/Lib/libSTM32CryptographicV3.0.0_CM4_GCC.a(crypto.o)
 .text.AES_CTR_Decrypt_Append
                0x0000000000000000        0x4 Middlewares/ST/STM32_Cryptographic/Lib/libSTM32CryptographicV3.0.0_CM4_GCC.a(crypto.o)
 .text.AES_CTR_Decrypt_Finish
                0x0000000000000000        0x4 Middlewares/ST/STM32_Cryptographic/Lib/libSTM32CryptographicV3.0.0_CM4_GCC.a(crypto.o)
 .text.AES_GCM_Encrypt_Init
                0x0000000000000000      0x1d2 Middlewares/ST/STM32_Cryptographic/Lib/libSTM32CryptographicV3.0.0_CM4_GCC.a(crypto.o)
 .text.AES_GCM_Header_Append
                0x0000000000000000      0x11e Middlewares/ST/STM32_Cryptographic/Lib/libSTM32CryptographicV3.0.0_CM4_GCC.a(crypto.o)
 .text.AES_GCM_Encrypt_Append
                0x0000000000000000       0x12 Middlewares/ST/STM32_Cryptographic/Lib/libSTM32CryptographicV3.0.0_CM4_GCC.a(crypto.o)
 .text.AES_GCM_Encrypt_Finish
                0x0000000000000000        0x6 Middlewares/ST/STM32_Cryptographic/Lib/libSTM32CryptographicV3.0.0_CM4_GCC.a(crypto.o)
 .text.AES_GCM_Decrypt_Init
                0x0000000000000000        0x4 Middlewares/ST/STM32_Cryptographic/Lib/libSTM32CryptographicV3.0.0_CM4_GCC.a(crypto.o)
 .text.AES_GCM_Decrypt_Append
                0x0000000000000000       0x12 Middlewares/ST/STM32_Cryptographic/Lib/libSTM32CryptographicV3.0.0_CM4_GCC.a(crypto.o)
 .text.AES_GCM_Decrypt_Finish
                0x0000000000000000        0x8 Middlewares/ST/STM32_Cryptographic/Lib/libSTM32CryptographicV3.0.0_CM4_GCC.a(crypto.o)
 .text.AES_CCM_Encrypt_Init
                0x0000000000000000      0x1ce Middlewares/ST/STM32_Cryptographic/Lib/libSTM32CryptographicV3.0.0_CM4_GCC.a(crypto.o)
 .text.AES_CCM_Header_Append
                0x0000000000000000      0x19c Middlewares/ST/STM32_Cryptographic/Lib/libSTM32CryptographicV3.0.0_CM4_GCC.a(crypto.o)
 .text.AES_CCM_Encrypt_Append
                0x0000000000000000      0x314 Middlewares/ST/STM32_Cryptographic/Lib/libSTM32CryptographicV3.0.0_CM4_GCC.a(crypto.o)
 .text.AES_CCM_Encrypt_Finish
                0x0000000000000000       0x76 Middlewares/ST/STM32_Cryptographic/Lib/libSTM32CryptographicV3.0.0_CM4_GCC.a(crypto.o)
 .text.AES_CCM_Decrypt_Init
                0x0000000000000000        0x4 Middlewares/ST/STM32_Cryptographic/Lib/libSTM32CryptographicV3.0.0_CM4_GCC.a(crypto.o)
 .text.AES_CCM_Decrypt_Append
                0x0000000000000000      0x1a4 Middlewares/ST/STM32_Cryptographic/Lib/libSTM32CryptographicV3.0.0_CM4_GCC.a(crypto.o)
 .text.AES_CCM_Decrypt_Finish
                0x0000000000000000       0xc4 Middlewares/ST/STM32_Cryptographic/Lib/libSTM32CryptographicV3.0.0_CM4_GCC.a(crypto.o)
 .text.AES_CMAC_Encrypt_Init
                0x0000000000000000       0x26 Middlewares/ST/STM32_Cryptographic/Lib/libSTM32CryptographicV3.0.0_CM4_GCC.a(crypto.o)
 .text.AES_CMAC_Encrypt_Append
                0x0000000000000000      0x2f8 Middlewares/ST/STM32_Cryptographic/Lib/libSTM32CryptographicV3.0.0_CM4_GCC.a(crypto.o)
 .text.AES_CMAC_Encrypt_Finish
                0x0000000000000000       0x6a Middlewares/ST/STM32_Cryptographic/Lib/libSTM32CryptographicV3.0.0_CM4_GCC.a(crypto.o)
 .text.AES_CMAC_Decrypt_Init
                0x0000000000000000        0x4 Middlewares/ST/STM32_Cryptographic/Lib/libSTM32CryptographicV3.0.0_CM4_GCC.a(crypto.o)
 .text.AES_CMAC_Decrypt_Append
                0x0000000000000000        0x4 Middlewares/ST/STM32_Cryptographic/Lib/libSTM32CryptographicV3.0.0_CM4_GCC.a(crypto.o)
 .text.AES_CMAC_Decrypt_Finish
                0x0000000000000000       0xa6 Middlewares/ST/STM32_Cryptographic/Lib/libSTM32CryptographicV3.0.0_CM4_GCC.a(crypto.o)
 .text.AES_KeyWrap_Encrypt_Init
                0x0000000000000000       0x18 Middlewares/ST/STM32_Cryptographic/Lib/libSTM32CryptographicV3.0.0_CM4_GCC.a(crypto.o)
 .text.AES_KeyWrap_Encrypt_Append
                0x0000000000000000      0x12e Middlewares/ST/STM32_Cryptographic/Lib/libSTM32CryptographicV3.0.0_CM4_GCC.a(crypto.o)
 .text.AES_KeyWrap_Encrypt_Finish
                0x0000000000000000       0x18 Middlewares/ST/STM32_Cryptographic/Lib/libSTM32CryptographicV3.0.0_CM4_GCC.a(crypto.o)
 .text.AES_KeyWrap_Decrypt_Init
                0x0000000000000000       0x18 Middlewares/ST/STM32_Cryptographic/Lib/libSTM32CryptographicV3.0.0_CM4_GCC.a(crypto.o)
 .text.AES_KeyWrap_Decrypt_Append
                0x0000000000000000      0x12a Middlewares/ST/STM32_Cryptographic/Lib/libSTM32CryptographicV3.0.0_CM4_GCC.a(crypto.o)
 .text.AES_KeyWrap_Decrypt_Finish
                0x0000000000000000       0x30 Middlewares/ST/STM32_Cryptographic/Lib/libSTM32CryptographicV3.0.0_CM4_GCC.a(crypto.o)
 .text.AES_XTS_Encrypt_Init
                0x0000000000000000        0x6 Middlewares/ST/STM32_Cryptographic/Lib/libSTM32CryptographicV3.0.0_CM4_GCC.a(crypto.o)
 .text.AES_XTS_Encrypt_Append
                0x0000000000000000       0x22 Middlewares/ST/STM32_Cryptographic/Lib/libSTM32CryptographicV3.0.0_CM4_GCC.a(crypto.o)
 .text.AES_XTS_Encrypt_Finish
                0x0000000000000000       0x18 Middlewares/ST/STM32_Cryptographic/Lib/libSTM32CryptographicV3.0.0_CM4_GCC.a(crypto.o)
 .text.AES_XTS_Decrypt_Init
                0x0000000000000000        0x6 Middlewares/ST/STM32_Cryptographic/Lib/libSTM32CryptographicV3.0.0_CM4_GCC.a(crypto.o)
 .text.AES_XTS_Decrypt_Append
                0x0000000000000000       0x22 Middlewares/ST/STM32_Cryptographic/Lib/libSTM32CryptographicV3.0.0_CM4_GCC.a(crypto.o)
 .text.AES_XTS_Decrypt_Finish
                0x0000000000000000        0x4 Middlewares/ST/STM32_Cryptographic/Lib/libSTM32CryptographicV3.0.0_CM4_GCC.a(crypto.o)
 .text.AES_OFB_Encrypt_Init
                0x0000000000000000       0x54 Middlewares/ST/STM32_Cryptographic/Lib/libSTM32CryptographicV3.0.0_CM4_GCC.a(crypto.o)
 .text.AES_OFB_Encrypt_Append
                0x0000000000000000      0x11e Middlewares/ST/STM32_Cryptographic/Lib/libSTM32CryptographicV3.0.0_CM4_GCC.a(crypto.o)
 .text.AES_OFB_Encrypt_Finish
                0x0000000000000000       0x18 Middlewares/ST/STM32_Cryptographic/Lib/libSTM32CryptographicV3.0.0_CM4_GCC.a(crypto.o)
 .text.AES_OFB_Decrypt_Init
                0x0000000000000000        0x4 Middlewares/ST/STM32_Cryptographic/Lib/libSTM32CryptographicV3.0.0_CM4_GCC.a(crypto.o)
 .text.AES_OFB_Decrypt_Append
                0x0000000000000000        0x4 Middlewares/ST/STM32_Cryptographic/Lib/libSTM32CryptographicV3.0.0_CM4_GCC.a(crypto.o)
 .text.AES_OFB_Decrypt_Finish
                0x0000000000000000        0x4 Middlewares/ST/STM32_Cryptographic/Lib/libSTM32CryptographicV3.0.0_CM4_GCC.a(crypto.o)
 .text.AES_CFB_Encrypt_Init
                0x0000000000000000       0x54 Middlewares/ST/STM32_Cryptographic/Lib/libSTM32CryptographicV3.0.0_CM4_GCC.a(crypto.o)
 .text.AES_CFB_Encrypt_Append
                0x0000000000000000      0x11e Middlewares/ST/STM32_Cryptographic/Lib/libSTM32CryptographicV3.0.0_CM4_GCC.a(crypto.o)
 .text.AES_CFB_Encrypt_Finish
                0x0000000000000000       0x18 Middlewares/ST/STM32_Cryptographic/Lib/libSTM32CryptographicV3.0.0_CM4_GCC.a(crypto.o)
 .text.AES_CFB_Decrypt_Init
                0x0000000000000000        0x4 Middlewares/ST/STM32_Cryptographic/Lib/libSTM32CryptographicV3.0.0_CM4_GCC.a(crypto.o)
 .text.AES_CFB_Decrypt_Append
                0x0000000000000000      0x124 Middlewares/ST/STM32_Cryptographic/Lib/libSTM32CryptographicV3.0.0_CM4_GCC.a(crypto.o)
 .text.AES_CFB_Decrypt_Finish
                0x0000000000000000       0x18 Middlewares/ST/STM32_Cryptographic/Lib/libSTM32CryptographicV3.0.0_CM4_GCC.a(crypto.o)
 .text.DES_ECB_Encrypt_Init
                0x0000000000000000        0x6 Middlewares/ST/STM32_Cryptographic/Lib/libSTM32CryptographicV3.0.0_CM4_GCC.a(crypto.o)
 .text.DES_ECB_Encrypt_Append
                0x0000000000000000       0x84 Middlewares/ST/STM32_Cryptographic/Lib/libSTM32CryptographicV3.0.0_CM4_GCC.a(crypto.o)
 .text.DES_ECB_Encrypt_Finish
                0x0000000000000000       0x18 Middlewares/ST/STM32_Cryptographic/Lib/libSTM32CryptographicV3.0.0_CM4_GCC.a(crypto.o)
 .text.DES_ECB_Decrypt_Init
                0x0000000000000000        0x6 Middlewares/ST/STM32_Cryptographic/Lib/libSTM32CryptographicV3.0.0_CM4_GCC.a(crypto.o)
 .text.DES_ECB_Decrypt_Append
                0x0000000000000000        0x4 Middlewares/ST/STM32_Cryptographic/Lib/libSTM32CryptographicV3.0.0_CM4_GCC.a(crypto.o)
 .text.DES_ECB_Decrypt_Finish
                0x0000000000000000       0x18 Middlewares/ST/STM32_Cryptographic/Lib/libSTM32CryptographicV3.0.0_CM4_GCC.a(crypto.o)
 .text.DES_CBC_Encrypt_Init
                0x0000000000000000        0x6 Middlewares/ST/STM32_Cryptographic/Lib/libSTM32CryptographicV3.0.0_CM4_GCC.a(crypto.o)
 .text.DES_CBC_Encrypt_Append
                0x0000000000000000       0x88 Middlewares/ST/STM32_Cryptographic/Lib/libSTM32CryptographicV3.0.0_CM4_GCC.a(crypto.o)
 .text.DES_CBC_Encrypt_Finish
                0x0000000000000000       0x18 Middlewares/ST/STM32_Cryptographic/Lib/libSTM32CryptographicV3.0.0_CM4_GCC.a(crypto.o)
 .text.DES_CBC_Decrypt_Init
                0x0000000000000000        0x6 Middlewares/ST/STM32_Cryptographic/Lib/libSTM32CryptographicV3.0.0_CM4_GCC.a(crypto.o)
 .text.DES_CBC_Decrypt_Append
                0x0000000000000000       0x98 Middlewares/ST/STM32_Cryptographic/Lib/libSTM32CryptographicV3.0.0_CM4_GCC.a(crypto.o)
 .text.DES_CBC_Decrypt_Finish
                0x0000000000000000       0x18 Middlewares/ST/STM32_Cryptographic/Lib/libSTM32CryptographicV3.0.0_CM4_GCC.a(crypto.o)
 .text.TDES_ECB_Encrypt_Init
                0x0000000000000000        0x6 Middlewares/ST/STM32_Cryptographic/Lib/libSTM32CryptographicV3.0.0_CM4_GCC.a(crypto.o)
 .text.TDES_ECB_Encrypt_Append
                0x0000000000000000       0xa2 Middlewares/ST/STM32_Cryptographic/Lib/libSTM32CryptographicV3.0.0_CM4_GCC.a(crypto.o)
 .text.TDES_ECB_Encrypt_Finish
                0x0000000000000000       0x18 Middlewares/ST/STM32_Cryptographic/Lib/libSTM32CryptographicV3.0.0_CM4_GCC.a(crypto.o)
 .text.TDES_ECB_Decrypt_Init
                0x0000000000000000        0x6 Middlewares/ST/STM32_Cryptographic/Lib/libSTM32CryptographicV3.0.0_CM4_GCC.a(crypto.o)
 .text.TDES_ECB_Decrypt_Append
                0x0000000000000000        0x4 Middlewares/ST/STM32_Cryptographic/Lib/libSTM32CryptographicV3.0.0_CM4_GCC.a(crypto.o)
 .text.TDES_ECB_Decrypt_Finish
                0x0000000000000000       0x18 Middlewares/ST/STM32_Cryptographic/Lib/libSTM32CryptographicV3.0.0_CM4_GCC.a(crypto.o)
 .text.TDES_CBC_Encrypt_Init
                0x0000000000000000        0x6 Middlewares/ST/STM32_Cryptographic/Lib/libSTM32CryptographicV3.0.0_CM4_GCC.a(crypto.o)
 .text.TDES_CBC_Encrypt_Append
                0x0000000000000000       0xa4 Middlewares/ST/STM32_Cryptographic/Lib/libSTM32CryptographicV3.0.0_CM4_GCC.a(crypto.o)
 .text.TDES_CBC_Encrypt_Finish
                0x0000000000000000       0x18 Middlewares/ST/STM32_Cryptographic/Lib/libSTM32CryptographicV3.0.0_CM4_GCC.a(crypto.o)
 .text.TDES_CBC_Decrypt_Init
                0x0000000000000000        0x6 Middlewares/ST/STM32_Cryptographic/Lib/libSTM32CryptographicV3.0.0_CM4_GCC.a(crypto.o)
 .text.TDES_CBC_Decrypt_Append
                0x0000000000000000       0xae Middlewares/ST/STM32_Cryptographic/Lib/libSTM32CryptographicV3.0.0_CM4_GCC.a(crypto.o)
 .text.TDES_CBC_Decrypt_Finish
                0x0000000000000000       0x18 Middlewares/ST/STM32_Cryptographic/Lib/libSTM32CryptographicV3.0.0_CM4_GCC.a(crypto.o)
 .text.ARC4_Encrypt_Init
                0x0000000000000000       0x68 Middlewares/ST/STM32_Cryptographic/Lib/libSTM32CryptographicV3.0.0_CM4_GCC.a(crypto.o)
 .text.ARC4_Encrypt_Append
                0x0000000000000000      0x174 Middlewares/ST/STM32_Cryptographic/Lib/libSTM32CryptographicV3.0.0_CM4_GCC.a(crypto.o)
 .text.ARC4_Encrypt_Finish
                0x0000000000000000       0x18 Middlewares/ST/STM32_Cryptographic/Lib/libSTM32CryptographicV3.0.0_CM4_GCC.a(crypto.o)
 .text.ARC4_Decrypt_Init
                0x0000000000000000        0x4 Middlewares/ST/STM32_Cryptographic/Lib/libSTM32CryptographicV3.0.0_CM4_GCC.a(crypto.o)
 .text.ARC4_Decrypt_Append
                0x0000000000000000        0x4 Middlewares/ST/STM32_Cryptographic/Lib/libSTM32CryptographicV3.0.0_CM4_GCC.a(crypto.o)
 .text.ARC4_Decrypt_Finish
                0x0000000000000000        0x4 Middlewares/ST/STM32_Cryptographic/Lib/libSTM32CryptographicV3.0.0_CM4_GCC.a(crypto.o)
 .text.crl_u_MD5_Init
                0x0000000000000000       0x2c Middlewares/ST/STM32_Cryptographic/Lib/libSTM32CryptographicV3.0.0_CM4_GCC.a(crypto.o)
 .text.MD5_Init
                0x0000000000000000       0x1a Middlewares/ST/STM32_Cryptographic/Lib/libSTM32CryptographicV3.0.0_CM4_GCC.a(crypto.o)
 .text.crl_u_MD5_Update
                0x0000000000000000       0x8a Middlewares/ST/STM32_Cryptographic/Lib/libSTM32CryptographicV3.0.0_CM4_GCC.a(crypto.o)
 .text.MD5_Append
                0x0000000000000000       0x2a Middlewares/ST/STM32_Cryptographic/Lib/libSTM32CryptographicV3.0.0_CM4_GCC.a(crypto.o)
 .text.crl_u_MD5_Finish
                0x0000000000000000       0x78 Middlewares/ST/STM32_Cryptographic/Lib/libSTM32CryptographicV3.0.0_CM4_GCC.a(crypto.o)
 .text.MD5_Finish
                0x0000000000000000       0x4c Middlewares/ST/STM32_Cryptographic/Lib/libSTM32CryptographicV3.0.0_CM4_GCC.a(crypto.o)
 .text.HMAC_MD5_Init
                0x0000000000000000       0xd4 Middlewares/ST/STM32_Cryptographic/Lib/libSTM32CryptographicV3.0.0_CM4_GCC.a(crypto.o)
 .text.HMAC_MD5_Append
                0x0000000000000000        0xe Middlewares/ST/STM32_Cryptographic/Lib/libSTM32CryptographicV3.0.0_CM4_GCC.a(crypto.o)
 .text.HMAC_MD5_Finish
                0x0000000000000000       0x62 Middlewares/ST/STM32_Cryptographic/Lib/libSTM32CryptographicV3.0.0_CM4_GCC.a(crypto.o)
 .text.SHA1Init
                0x0000000000000000       0x34 Middlewares/ST/STM32_Cryptographic/Lib/libSTM32CryptographicV3.0.0_CM4_GCC.a(crypto.o)
 .text.SHA1_Init
                0x0000000000000000       0x1a Middlewares/ST/STM32_Cryptographic/Lib/libSTM32CryptographicV3.0.0_CM4_GCC.a(crypto.o)
 .text.SHA1Update
                0x0000000000000000       0x94 Middlewares/ST/STM32_Cryptographic/Lib/libSTM32CryptographicV3.0.0_CM4_GCC.a(crypto.o)
 .text.SHA1_Append
                0x0000000000000000       0x2a Middlewares/ST/STM32_Cryptographic/Lib/libSTM32CryptographicV3.0.0_CM4_GCC.a(crypto.o)
 .text.SHA1Final
                0x0000000000000000      0x100 Middlewares/ST/STM32_Cryptographic/Lib/libSTM32CryptographicV3.0.0_CM4_GCC.a(crypto.o)
 .text.SHA1_Finish
                0x0000000000000000       0x4c Middlewares/ST/STM32_Cryptographic/Lib/libSTM32CryptographicV3.0.0_CM4_GCC.a(crypto.o)
 .text.HMAC_SHA1_Init
                0x0000000000000000       0xd4 Middlewares/ST/STM32_Cryptographic/Lib/libSTM32CryptographicV3.0.0_CM4_GCC.a(crypto.o)
 .text.HMAC_SHA1_Append
                0x0000000000000000        0xe Middlewares/ST/STM32_Cryptographic/Lib/libSTM32CryptographicV3.0.0_CM4_GCC.a(crypto.o)
 .text.HMAC_SHA1_Finish
                0x0000000000000000       0x60 Middlewares/ST/STM32_Cryptographic/Lib/libSTM32CryptographicV3.0.0_CM4_GCC.a(crypto.o)
 .text.SHA256Update
                0x0000000000000000       0x94 Middlewares/ST/STM32_Cryptographic/Lib/libSTM32CryptographicV3.0.0_CM4_GCC.a(crypto.o)
 .text.SHA224_Append
                0x0000000000000000       0x2a Middlewares/ST/STM32_Cryptographic/Lib/libSTM32CryptographicV3.0.0_CM4_GCC.a(crypto.o)
 .text.SHA224Init
                0x0000000000000000       0x54 Middlewares/ST/STM32_Cryptographic/Lib/libSTM32CryptographicV3.0.0_CM4_GCC.a(crypto.o)
 .text.SHA224_Init
                0x0000000000000000       0x1a Middlewares/ST/STM32_Cryptographic/Lib/libSTM32CryptographicV3.0.0_CM4_GCC.a(crypto.o)
 .text.SHA224Final
                0x0000000000000000      0x100 Middlewares/ST/STM32_Cryptographic/Lib/libSTM32CryptographicV3.0.0_CM4_GCC.a(crypto.o)
 .text.SHA224_Finish
                0x0000000000000000       0x4c Middlewares/ST/STM32_Cryptographic/Lib/libSTM32CryptographicV3.0.0_CM4_GCC.a(crypto.o)
 .text.HMAC_SHA224_Init
                0x0000000000000000       0xd4 Middlewares/ST/STM32_Cryptographic/Lib/libSTM32CryptographicV3.0.0_CM4_GCC.a(crypto.o)
 .text.HMAC_SHA224_Append
                0x0000000000000000        0xe Middlewares/ST/STM32_Cryptographic/Lib/libSTM32CryptographicV3.0.0_CM4_GCC.a(crypto.o)
 .text.HMAC_SHA224_Finish
                0x0000000000000000       0x62 Middlewares/ST/STM32_Cryptographic/Lib/libSTM32CryptographicV3.0.0_CM4_GCC.a(crypto.o)
 .text.SHA256_Append
                0x0000000000000000       0x2a Middlewares/ST/STM32_Cryptographic/Lib/libSTM32CryptographicV3.0.0_CM4_GCC.a(crypto.o)
 .text.SHA256Init
                0x0000000000000000       0x50 Middlewares/ST/STM32_Cryptographic/Lib/libSTM32CryptographicV3.0.0_CM4_GCC.a(crypto.o)
 .text.SHA256_Init
                0x0000000000000000       0x1a Middlewares/ST/STM32_Cryptographic/Lib/libSTM32CryptographicV3.0.0_CM4_GCC.a(crypto.o)
 .text.SHA256Final
                0x0000000000000000      0x100 Middlewares/ST/STM32_Cryptographic/Lib/libSTM32CryptographicV3.0.0_CM4_GCC.a(crypto.o)
 .text.SHA256_Finish
                0x0000000000000000       0x4c Middlewares/ST/STM32_Cryptographic/Lib/libSTM32CryptographicV3.0.0_CM4_GCC.a(crypto.o)
 .text.HMAC_SHA256_Init
                0x0000000000000000       0xd4 Middlewares/ST/STM32_Cryptographic/Lib/libSTM32CryptographicV3.0.0_CM4_GCC.a(crypto.o)
 .text.HMAC_SHA256_Append
                0x0000000000000000        0xe Middlewares/ST/STM32_Cryptographic/Lib/libSTM32CryptographicV3.0.0_CM4_GCC.a(crypto.o)
 .text.HMAC_SHA256_Finish
                0x0000000000000000       0x62 Middlewares/ST/STM32_Cryptographic/Lib/libSTM32CryptographicV3.0.0_CM4_GCC.a(crypto.o)
 .text.SHA512Update
                0x0000000000000000       0x96 Middlewares/ST/STM32_Cryptographic/Lib/libSTM32CryptographicV3.0.0_CM4_GCC.a(crypto.o)
 .text.SHA384_Append
                0x0000000000000000       0x26 Middlewares/ST/STM32_Cryptographic/Lib/libSTM32CryptographicV3.0.0_CM4_GCC.a(crypto.o)
 .text.SHA512_Append.part.21
                0x0000000000000000       0x1c Middlewares/ST/STM32_Cryptographic/Lib/libSTM32CryptographicV3.0.0_CM4_GCC.a(crypto.o)
 .text.SHA384Init
                0x0000000000000000       0xa0 Middlewares/ST/STM32_Cryptographic/Lib/libSTM32CryptographicV3.0.0_CM4_GCC.a(crypto.o)
 .text.SHA384_Init
                0x0000000000000000       0x1a Middlewares/ST/STM32_Cryptographic/Lib/libSTM32CryptographicV3.0.0_CM4_GCC.a(crypto.o)
 .text.SHA384Final
                0x0000000000000000      0x128 Middlewares/ST/STM32_Cryptographic/Lib/libSTM32CryptographicV3.0.0_CM4_GCC.a(crypto.o)
 .text.SHA384_Finish
                0x0000000000000000       0x4c Middlewares/ST/STM32_Cryptographic/Lib/libSTM32CryptographicV3.0.0_CM4_GCC.a(crypto.o)
 .text.HMAC_SHA384_Init
                0x0000000000000000       0xd6 Middlewares/ST/STM32_Cryptographic/Lib/libSTM32CryptographicV3.0.0_CM4_GCC.a(crypto.o)
 .text.HMAC_SHA384_Append
                0x0000000000000000        0x6 Middlewares/ST/STM32_Cryptographic/Lib/libSTM32CryptographicV3.0.0_CM4_GCC.a(crypto.o)
 .text.HMAC_SHA384_Finish
                0x0000000000000000       0x66 Middlewares/ST/STM32_Cryptographic/Lib/libSTM32CryptographicV3.0.0_CM4_GCC.a(crypto.o)
 .text.SHA512_Append
                0x0000000000000000        0xe Middlewares/ST/STM32_Cryptographic/Lib/libSTM32CryptographicV3.0.0_CM4_GCC.a(crypto.o)
 .text.SHA512Init
                0x0000000000000000       0xa0 Middlewares/ST/STM32_Cryptographic/Lib/libSTM32CryptographicV3.0.0_CM4_GCC.a(crypto.o)
 .text.SHA512_Init
                0x0000000000000000       0x1a Middlewares/ST/STM32_Cryptographic/Lib/libSTM32CryptographicV3.0.0_CM4_GCC.a(crypto.o)
 .text.SHA512Final
                0x0000000000000000      0x138 Middlewares/ST/STM32_Cryptographic/Lib/libSTM32CryptographicV3.0.0_CM4_GCC.a(crypto.o)
 .text.SHA512_Finish
                0x0000000000000000       0x4c Middlewares/ST/STM32_Cryptographic/Lib/libSTM32CryptographicV3.0.0_CM4_GCC.a(crypto.o)
 .text.HMAC_SHA512_Init
                0x0000000000000000       0xd6 Middlewares/ST/STM32_Cryptographic/Lib/libSTM32CryptographicV3.0.0_CM4_GCC.a(crypto.o)
 .text.HMAC_SHA512_Append
                0x0000000000000000        0x6 Middlewares/ST/STM32_Cryptographic/Lib/libSTM32CryptographicV3.0.0_CM4_GCC.a(crypto.o)
 .text.HMAC_SHA512_Finish
                0x0000000000000000       0x66 Middlewares/ST/STM32_Cryptographic/Lib/libSTM32CryptographicV3.0.0_CM4_GCC.a(crypto.o)
 .text.HKDF_SHA512
                0x0000000000000000      0x170 Middlewares/ST/STM32_Cryptographic/Lib/libSTM32CryptographicV3.0.0_CM4_GCC.a(crypto.o)
 .text.StAllocBig
                0x0000000000000000       0x36 Middlewares/ST/STM32_Cryptographic/Lib/libSTM32CryptographicV3.0.0_CM4_GCC.a(crypto.o)
 .text.StFreeBig
                0x0000000000000000       0x1a Middlewares/ST/STM32_Cryptographic/Lib/libSTM32CryptographicV3.0.0_CM4_GCC.a(crypto.o)
 .text.InitBig  0x0000000000000000       0x2e Middlewares/ST/STM32_Cryptographic/Lib/libSTM32CryptographicV3.0.0_CM4_GCC.a(crypto.o)
 .text.CopyBig  0x0000000000000000       0x54 Middlewares/ST/STM32_Cryptographic/Lib/libSTM32CryptographicV3.0.0_CM4_GCC.a(crypto.o)
 .text.Add_Moduli_Big
                0x0000000000000000       0xd4 Middlewares/ST/STM32_Cryptographic/Lib/libSTM32CryptographicV3.0.0_CM4_GCC.a(crypto.o)
 .text.IsZeroBig
                0x0000000000000000       0x18 Middlewares/ST/STM32_Cryptographic/Lib/libSTM32CryptographicV3.0.0_CM4_GCC.a(crypto.o)
 .text.SetZeroBig
                0x0000000000000000       0x24 Middlewares/ST/STM32_Cryptographic/Lib/libSTM32CryptographicV3.0.0_CM4_GCC.a(crypto.o)
 .text.SignBig  0x0000000000000000        0xc Middlewares/ST/STM32_Cryptographic/Lib/libSTM32CryptographicV3.0.0_CM4_GCC.a(crypto.o)
 .text.EvenBig  0x0000000000000000        0xe Middlewares/ST/STM32_Cryptographic/Lib/libSTM32CryptographicV3.0.0_CM4_GCC.a(crypto.o)
 .text.CompareBig
                0x0000000000000000       0x92 Middlewares/ST/STM32_Cryptographic/Lib/libSTM32CryptographicV3.0.0_CM4_GCC.a(crypto.o)
 .text.CountBits
                0x0000000000000000       0x3c Middlewares/ST/STM32_Cryptographic/Lib/libSTM32CryptographicV3.0.0_CM4_GCC.a(crypto.o)
 .text.CountBytes
                0x0000000000000000       0x30 Middlewares/ST/STM32_Cryptographic/Lib/libSTM32CryptographicV3.0.0_CM4_GCC.a(crypto.o)
 .text.GiveBit  0x0000000000000000       0x1c Middlewares/ST/STM32_Cryptographic/Lib/libSTM32CryptographicV3.0.0_CM4_GCC.a(crypto.o)
 .text.W32_to_W8
                0x0000000000000000       0x4c Middlewares/ST/STM32_Cryptographic/Lib/libSTM32CryptographicV3.0.0_CM4_GCC.a(crypto.o)
 .text.W8_to_Big
                0x0000000000000000       0xb6 Middlewares/ST/STM32_Cryptographic/Lib/libSTM32CryptographicV3.0.0_CM4_GCC.a(crypto.o)
 .text.Big_to_W8
                0x0000000000000000       0x52 Middlewares/ST/STM32_Cryptographic/Lib/libSTM32CryptographicV3.0.0_CM4_GCC.a(crypto.o)
 .text.Big_to_fixedW8
                0x0000000000000000       0x44 Middlewares/ST/STM32_Cryptographic/Lib/libSTM32CryptographicV3.0.0_CM4_GCC.a(crypto.o)
 .text.FastMul2
                0x0000000000000000       0x54 Middlewares/ST/STM32_Cryptographic/Lib/libSTM32CryptographicV3.0.0_CM4_GCC.a(crypto.o)
 .text.FastDiv2
                0x0000000000000000       0x40 Middlewares/ST/STM32_Cryptographic/Lib/libSTM32CryptographicV3.0.0_CM4_GCC.a(crypto.o)
 .text.FastMulInnerBase
                0x0000000000000000       0x62 Middlewares/ST/STM32_Cryptographic/Lib/libSTM32CryptographicV3.0.0_CM4_GCC.a(crypto.o)
 .text.FastDivInnerBase
                0x0000000000000000       0x38 Middlewares/ST/STM32_Cryptographic/Lib/libSTM32CryptographicV3.0.0_CM4_GCC.a(crypto.o)
 .text.LeftShift
                0x0000000000000000       0x74 Middlewares/ST/STM32_Cryptographic/Lib/libSTM32CryptographicV3.0.0_CM4_GCC.a(crypto.o)
 .text.RightShift
                0x0000000000000000       0x4c Middlewares/ST/STM32_Cryptographic/Lib/libSTM32CryptographicV3.0.0_CM4_GCC.a(crypto.o)
 .text.MulBigbyUnInt
                0x0000000000000000       0x58 Middlewares/ST/STM32_Cryptographic/Lib/libSTM32CryptographicV3.0.0_CM4_GCC.a(crypto.o)
 .text.Sub_Moduli_Big
                0x0000000000000000       0xd2 Middlewares/ST/STM32_Cryptographic/Lib/libSTM32CryptographicV3.0.0_CM4_GCC.a(crypto.o)
 .text.AddBig   0x0000000000000000      0x112 Middlewares/ST/STM32_Cryptographic/Lib/libSTM32CryptographicV3.0.0_CM4_GCC.a(crypto.o)
 .text.SubBig   0x0000000000000000       0xbc Middlewares/ST/STM32_Cryptographic/Lib/libSTM32CryptographicV3.0.0_CM4_GCC.a(crypto.o)
 .text.MontyInit
                0x0000000000000000      0x140 Middlewares/ST/STM32_Cryptographic/Lib/libSTM32CryptographicV3.0.0_CM4_GCC.a(crypto.o)
 .text.MontyKillR2
                0x0000000000000000        0xe Middlewares/ST/STM32_Cryptographic/Lib/libSTM32CryptographicV3.0.0_CM4_GCC.a(crypto.o)
 .text.MontyKillAll
                0x0000000000000000       0x18 Middlewares/ST/STM32_Cryptographic/Lib/libSTM32CryptographicV3.0.0_CM4_GCC.a(crypto.o)
 .text.MontyMul
                0x0000000000000000      0x1d6 Middlewares/ST/STM32_Cryptographic/Lib/libSTM32CryptographicV3.0.0_CM4_GCC.a(crypto.o)
 .text.MontyExit
                0x0000000000000000       0x46 Middlewares/ST/STM32_Cryptographic/Lib/libSTM32CryptographicV3.0.0_CM4_GCC.a(crypto.o)
 .text.ModularAddBig
                0x0000000000000000       0x44 Middlewares/ST/STM32_Cryptographic/Lib/libSTM32CryptographicV3.0.0_CM4_GCC.a(crypto.o)
 .text.ModularSubBig
                0x0000000000000000       0x2c Middlewares/ST/STM32_Cryptographic/Lib/libSTM32CryptographicV3.0.0_CM4_GCC.a(crypto.o)
 .text.ModularFastMul2
                0x0000000000000000       0x38 Middlewares/ST/STM32_Cryptographic/Lib/libSTM32CryptographicV3.0.0_CM4_GCC.a(crypto.o)
 .text.ModularInvBig
                0x0000000000000000      0x1ba Middlewares/ST/STM32_Cryptographic/Lib/libSTM32CryptographicV3.0.0_CM4_GCC.a(crypto.o)
 .text.ModularExpSlidWin
                0x0000000000000000      0x25c Middlewares/ST/STM32_Cryptographic/Lib/libSTM32CryptographicV3.0.0_CM4_GCC.a(crypto.o)
 .text.crl_ModularExp
                0x0000000000000000      0x11e Middlewares/ST/STM32_Cryptographic/Lib/libSTM32CryptographicV3.0.0_CM4_GCC.a(crypto.o)
 .text.RSASP1   0x0000000000000000       0x6c Middlewares/ST/STM32_Cryptographic/Lib/libSTM32CryptographicV3.0.0_CM4_GCC.a(crypto.o)
 .text.RSAVP1   0x0000000000000000       0x1e Middlewares/ST/STM32_Cryptographic/Lib/libSTM32CryptographicV3.0.0_CM4_GCC.a(crypto.o)
 .text.RSA_PKCS1v15_Sign
                0x0000000000000000      0x240 Middlewares/ST/STM32_Cryptographic/Lib/libSTM32CryptographicV3.0.0_CM4_GCC.a(crypto.o)
 .text.RSA_PKCS1v15_Verify
                0x0000000000000000      0x278 Middlewares/ST/STM32_Cryptographic/Lib/libSTM32CryptographicV3.0.0_CM4_GCC.a(crypto.o)
 .text.RSA_PKCS1v15_Decrypt
                0x0000000000000000      0x1ac Middlewares/ST/STM32_Cryptographic/Lib/libSTM32CryptographicV3.0.0_CM4_GCC.a(crypto.o)
 .text.crl_DRBG_AES128_Instantiate
                0x0000000000000000       0xb0 Middlewares/ST/STM32_Cryptographic/Lib/libSTM32CryptographicV3.0.0_CM4_GCC.a(crypto.o)
 .text.crl_DRBG_AES128_Generate
                0x0000000000000000       0x22 Middlewares/ST/STM32_Cryptographic/Lib/libSTM32CryptographicV3.0.0_CM4_GCC.a(crypto.o)
 .text.crl_DRBG_AES128_Reseed
                0x0000000000000000       0x82 Middlewares/ST/STM32_Cryptographic/Lib/libSTM32CryptographicV3.0.0_CM4_GCC.a(crypto.o)
 .text.RNGinit  0x0000000000000000       0x34 Middlewares/ST/STM32_Cryptographic/Lib/libSTM32CryptographicV3.0.0_CM4_GCC.a(crypto.o)
 .text.RNGfree  0x0000000000000000       0x24 Middlewares/ST/STM32_Cryptographic/Lib/libSTM32CryptographicV3.0.0_CM4_GCC.a(crypto.o)
 .text.RNGreseed
                0x0000000000000000       0x20 Middlewares/ST/STM32_Cryptographic/Lib/libSTM32CryptographicV3.0.0_CM4_GCC.a(crypto.o)
 .text.RNGgenBytes
                0x0000000000000000       0x7a Middlewares/ST/STM32_Cryptographic/Lib/libSTM32CryptographicV3.0.0_CM4_GCC.a(crypto.o)
 .text.RSA_PKCS1v15_Encrypt
                0x0000000000000000      0x14c Middlewares/ST/STM32_Cryptographic/Lib/libSTM32CryptographicV3.0.0_CM4_GCC.a(crypto.o)
 .text.RNGgenWords
                0x0000000000000000        0x6 Middlewares/ST/STM32_Cryptographic/Lib/libSTM32CryptographicV3.0.0_CM4_GCC.a(crypto.o)
 .text.GenRndBN
                0x0000000000000000       0x7c Middlewares/ST/STM32_Cryptographic/Lib/libSTM32CryptographicV3.0.0_CM4_GCC.a(crypto.o)
 .text.GenRndBNmodN
                0x0000000000000000       0x32 Middlewares/ST/STM32_Cryptographic/Lib/libSTM32CryptographicV3.0.0_CM4_GCC.a(crypto.o)
 .text.ECCpoint2Monty
                0x0000000000000000       0x40 Middlewares/ST/STM32_Cryptographic/Lib/libSTM32CryptographicV3.0.0_CM4_GCC.a(crypto.o)
 .text.ECCpointFromMonty
                0x0000000000000000       0x3e Middlewares/ST/STM32_Cryptographic/Lib/libSTM32CryptographicV3.0.0_CM4_GCC.a(crypto.o)
 .text.MontyJacProjDoublePoint
                0x0000000000000000      0x248 Middlewares/ST/STM32_Cryptographic/Lib/libSTM32CryptographicV3.0.0_CM4_GCC.a(crypto.o)
 .text.ECCinitEC
                0x0000000000000000      0x1ca Middlewares/ST/STM32_Cryptographic/Lib/libSTM32CryptographicV3.0.0_CM4_GCC.a(crypto.o)
 .text.ECCfreeEC
                0x0000000000000000       0x7c Middlewares/ST/STM32_Cryptographic/Lib/libSTM32CryptographicV3.0.0_CM4_GCC.a(crypto.o)
 .text.ECCinitPoint
                0x0000000000000000       0xd2 Middlewares/ST/STM32_Cryptographic/Lib/libSTM32CryptographicV3.0.0_CM4_GCC.a(crypto.o)
 .text.ECCfreePoint
                0x0000000000000000       0x3e Middlewares/ST/STM32_Cryptographic/Lib/libSTM32CryptographicV3.0.0_CM4_GCC.a(crypto.o)
 .text.ECCsetPointCoordinate
                0x0000000000000000       0x50 Middlewares/ST/STM32_Cryptographic/Lib/libSTM32CryptographicV3.0.0_CM4_GCC.a(crypto.o)
 .text.ECCgetPointCoordinate
                0x0000000000000000       0xb8 Middlewares/ST/STM32_Cryptographic/Lib/libSTM32CryptographicV3.0.0_CM4_GCC.a(crypto.o)
 .text.ECCgetPointFlag
                0x0000000000000000        0xc Middlewares/ST/STM32_Cryptographic/Lib/libSTM32CryptographicV3.0.0_CM4_GCC.a(crypto.o)
 .text.ECCsetPointFlag
                0x0000000000000000        0x6 Middlewares/ST/STM32_Cryptographic/Lib/libSTM32CryptographicV3.0.0_CM4_GCC.a(crypto.o)
 .text.ECCcopyPoint
                0x0000000000000000       0x50 Middlewares/ST/STM32_Cryptographic/Lib/libSTM32CryptographicV3.0.0_CM4_GCC.a(crypto.o)
 .text.ECCsymmetricPoint
                0x0000000000000000       0x20 Middlewares/ST/STM32_Cryptographic/Lib/libSTM32CryptographicV3.0.0_CM4_GCC.a(crypto.o)
 .text.Normalize
                0x0000000000000000      0x10a Middlewares/ST/STM32_Cryptographic/Lib/libSTM32CryptographicV3.0.0_CM4_GCC.a(crypto.o)
 .text.MontyJacProjAddPoints
                0x0000000000000000      0x266 Middlewares/ST/STM32_Cryptographic/Lib/libSTM32CryptographicV3.0.0_CM4_GCC.a(crypto.o)
 .text.NAF_Binary_PointMul
                0x0000000000000000      0x288 Middlewares/ST/STM32_Cryptographic/Lib/libSTM32CryptographicV3.0.0_CM4_GCC.a(crypto.o)
 .text.Binary_DoublePointMul
                0x0000000000000000      0x140 Middlewares/ST/STM32_Cryptographic/Lib/libSTM32CryptographicV3.0.0_CM4_GCC.a(crypto.o)
 .text.ECCinitPrivKey
                0x0000000000000000       0x66 Middlewares/ST/STM32_Cryptographic/Lib/libSTM32CryptographicV3.0.0_CM4_GCC.a(crypto.o)
 .text.ECCfreePrivKey
                0x0000000000000000       0x2a Middlewares/ST/STM32_Cryptographic/Lib/libSTM32CryptographicV3.0.0_CM4_GCC.a(crypto.o)
 .text.ECCsetPrivKeyValue
                0x0000000000000000       0x22 Middlewares/ST/STM32_Cryptographic/Lib/libSTM32CryptographicV3.0.0_CM4_GCC.a(crypto.o)
 .text.ECCgetPrivKeyValue
                0x0000000000000000       0x8c Middlewares/ST/STM32_Cryptographic/Lib/libSTM32CryptographicV3.0.0_CM4_GCC.a(crypto.o)
 .text.ECCscalarMul
                0x0000000000000000       0xe0 Middlewares/ST/STM32_Cryptographic/Lib/libSTM32CryptographicV3.0.0_CM4_GCC.a(crypto.o)
 .text.ECCsetPointGenerator
                0x0000000000000000       0x94 Middlewares/ST/STM32_Cryptographic/Lib/libSTM32CryptographicV3.0.0_CM4_GCC.a(crypto.o)
 .text.ECDSAinitSign
                0x0000000000000000       0x6e Middlewares/ST/STM32_Cryptographic/Lib/libSTM32CryptographicV3.0.0_CM4_GCC.a(crypto.o)
 .text.ECDSAfreeSign
                0x0000000000000000       0x2e Middlewares/ST/STM32_Cryptographic/Lib/libSTM32CryptographicV3.0.0_CM4_GCC.a(crypto.o)
 .text.ECDSAsetSignature
                0x0000000000000000       0x2e Middlewares/ST/STM32_Cryptographic/Lib/libSTM32CryptographicV3.0.0_CM4_GCC.a(crypto.o)
 .text.ECDSAgetSignature
                0x0000000000000000       0xac Middlewares/ST/STM32_Cryptographic/Lib/libSTM32CryptographicV3.0.0_CM4_GCC.a(crypto.o)
 .text.ECDSAverify
                0x0000000000000000      0x2fe Middlewares/ST/STM32_Cryptographic/Lib/libSTM32CryptographicV3.0.0_CM4_GCC.a(crypto.o)
 .text.ECCkeyGen
                0x0000000000000000       0xdc Middlewares/ST/STM32_Cryptographic/Lib/libSTM32CryptographicV3.0.0_CM4_GCC.a(crypto.o)
 .text.ECDSAsign
                0x0000000000000000      0x39c Middlewares/ST/STM32_Cryptographic/Lib/libSTM32CryptographicV3.0.0_CM4_GCC.a(crypto.o)
 .text.ECCvalidatePubKey
                0x0000000000000000      0x250 Middlewares/ST/STM32_Cryptographic/Lib/libSTM32CryptographicV3.0.0_CM4_GCC.a(crypto.o)
 .text.salsa20_wordtobyte
                0x0000000000000000      0x354 Middlewares/ST/STM32_Cryptographic/Lib/libSTM32CryptographicV3.0.0_CM4_GCC.a(crypto.o)
 .text.CHACHA_Encrypt_Init
                0x0000000000000000       0xb0 Middlewares/ST/STM32_Cryptographic/Lib/libSTM32CryptographicV3.0.0_CM4_GCC.a(crypto.o)
 .text.CHACHA_Encrypt_Append
                0x0000000000000000       0xfa Middlewares/ST/STM32_Cryptographic/Lib/libSTM32CryptographicV3.0.0_CM4_GCC.a(crypto.o)
 .text.CHACHA_Encrypt_Finish
                0x0000000000000000       0x18 Middlewares/ST/STM32_Cryptographic/Lib/libSTM32CryptographicV3.0.0_CM4_GCC.a(crypto.o)
 .text.CHACHA_Decrypt_Init
                0x0000000000000000        0x4 Middlewares/ST/STM32_Cryptographic/Lib/libSTM32CryptographicV3.0.0_CM4_GCC.a(crypto.o)
 .text.CHACHA_Decrypt_Append
                0x0000000000000000        0x4 Middlewares/ST/STM32_Cryptographic/Lib/libSTM32CryptographicV3.0.0_CM4_GCC.a(crypto.o)
 .text.CHACHA_Decrypt_Finish
                0x0000000000000000        0x4 Middlewares/ST/STM32_Cryptographic/Lib/libSTM32CryptographicV3.0.0_CM4_GCC.a(crypto.o)
 .text.Poly1305_Core_Update
                0x0000000000000000      0x5a4 Middlewares/ST/STM32_Cryptographic/Lib/libSTM32CryptographicV3.0.0_CM4_GCC.a(crypto.o)
 .text.ChaCha20Poly1305_Append.part.36
                0x0000000000000000      0x12e Middlewares/ST/STM32_Cryptographic/Lib/libSTM32CryptographicV3.0.0_CM4_GCC.a(crypto.o)
 .text.Poly1305_Core_Finish
                0x0000000000000000      0x230 Middlewares/ST/STM32_Cryptographic/Lib/libSTM32CryptographicV3.0.0_CM4_GCC.a(crypto.o)
 .text.ChaCha20Poly1305_Common_Finish
                0x0000000000000000       0x46 Middlewares/ST/STM32_Cryptographic/Lib/libSTM32CryptographicV3.0.0_CM4_GCC.a(crypto.o)
 .text.Poly1305_Auth_Init
                0x0000000000000000       0xa8 Middlewares/ST/STM32_Cryptographic/Lib/libSTM32CryptographicV3.0.0_CM4_GCC.a(crypto.o)
 .text.Poly1305_Auth_Append
                0x0000000000000000       0x94 Middlewares/ST/STM32_Cryptographic/Lib/libSTM32CryptographicV3.0.0_CM4_GCC.a(crypto.o)
 .text.Poly1305_Auth_Finish
                0x0000000000000000       0x78 Middlewares/ST/STM32_Cryptographic/Lib/libSTM32CryptographicV3.0.0_CM4_GCC.a(crypto.o)
 .text.Poly1305_Verify_Init
                0x0000000000000000        0x4 Middlewares/ST/STM32_Cryptographic/Lib/libSTM32CryptographicV3.0.0_CM4_GCC.a(crypto.o)
 .text.Poly1305_Verify_Append
                0x0000000000000000        0x4 Middlewares/ST/STM32_Cryptographic/Lib/libSTM32CryptographicV3.0.0_CM4_GCC.a(crypto.o)
 .text.Poly1305_Verify_Finish
                0x0000000000000000       0x82 Middlewares/ST/STM32_Cryptographic/Lib/libSTM32CryptographicV3.0.0_CM4_GCC.a(crypto.o)
 .text.ChaCha20Poly1305_Encrypt_Init
                0x0000000000000000       0xe8 Middlewares/ST/STM32_Cryptographic/Lib/libSTM32CryptographicV3.0.0_CM4_GCC.a(crypto.o)
 .text.ChaCha20Poly1305_Encrypt_Append
                0x0000000000000000       0x2c Middlewares/ST/STM32_Cryptographic/Lib/libSTM32CryptographicV3.0.0_CM4_GCC.a(crypto.o)
 .text.ChaCha20Poly1305_Header_Append
                0x0000000000000000       0x7e Middlewares/ST/STM32_Cryptographic/Lib/libSTM32CryptographicV3.0.0_CM4_GCC.a(crypto.o)
 .text.ChaCha20Poly1305_Encrypt_Finish
                0x0000000000000000       0x48 Middlewares/ST/STM32_Cryptographic/Lib/libSTM32CryptographicV3.0.0_CM4_GCC.a(crypto.o)
 .text.ChaCha20Poly1305_Decrypt_Init
                0x0000000000000000        0x4 Middlewares/ST/STM32_Cryptographic/Lib/libSTM32CryptographicV3.0.0_CM4_GCC.a(crypto.o)
 .text.ChaCha20Poly1305_Decrypt_Append
                0x0000000000000000       0x2e Middlewares/ST/STM32_Cryptographic/Lib/libSTM32CryptographicV3.0.0_CM4_GCC.a(crypto.o)
 .text.ChaCha20Poly1305_Decrypt_Finish
                0x0000000000000000       0x6e Middlewares/ST/STM32_Cryptographic/Lib/libSTM32CryptographicV3.0.0_CM4_GCC.a(crypto.o)
 .text.sc25519_from32bytes
                0x0000000000000000       0x34 Middlewares/ST/STM32_Cryptographic/Lib/libSTM32CryptographicV3.0.0_CM4_GCC.a(crypto.o)
 .text.sc25519_from64bytes
                0x0000000000000000       0x24 Middlewares/ST/STM32_Cryptographic/Lib/libSTM32CryptographicV3.0.0_CM4_GCC.a(crypto.o)
 .text.sc25519_to32bytes
                0x0000000000000000        0xe Middlewares/ST/STM32_Cryptographic/Lib/libSTM32CryptographicV3.0.0_CM4_GCC.a(crypto.o)
 .text.sc25519_add
                0x0000000000000000       0x3a Middlewares/ST/STM32_Cryptographic/Lib/libSTM32CryptographicV3.0.0_CM4_GCC.a(crypto.o)
 .text.sc25519_mul
                0x0000000000000000       0x5e Middlewares/ST/STM32_Cryptographic/Lib/libSTM32CryptographicV3.0.0_CM4_GCC.a(crypto.o)
 .text.fe25519_unpack
                0x0000000000000000       0x1c Middlewares/ST/STM32_Cryptographic/Lib/libSTM32CryptographicV3.0.0_CM4_GCC.a(crypto.o)
 .text.fe25519_cmov
                0x0000000000000000       0x1a Middlewares/ST/STM32_Cryptographic/Lib/libSTM32CryptographicV3.0.0_CM4_GCC.a(crypto.o)
 .text.fe25519_copy
                0x0000000000000000        0xe Middlewares/ST/STM32_Cryptographic/Lib/libSTM32CryptographicV3.0.0_CM4_GCC.a(crypto.o)
 .text.fe25519_setone
                0x0000000000000000       0x14 Middlewares/ST/STM32_Cryptographic/Lib/libSTM32CryptographicV3.0.0_CM4_GCC.a(crypto.o)
 .text.fe25519_setzero
                0x0000000000000000        0xe Middlewares/ST/STM32_Cryptographic/Lib/libSTM32CryptographicV3.0.0_CM4_GCC.a(crypto.o)
 .text.setneutral
                0x0000000000000000       0x24 Middlewares/ST/STM32_Cryptographic/Lib/libSTM32CryptographicV3.0.0_CM4_GCC.a(crypto.o)
 .text.fe25519_add
                0x0000000000000000       0x44 Middlewares/ST/STM32_Cryptographic/Lib/libSTM32CryptographicV3.0.0_CM4_GCC.a(crypto.o)
 .text.fe25519_sub
                0x0000000000000000       0x74 Middlewares/ST/STM32_Cryptographic/Lib/libSTM32CryptographicV3.0.0_CM4_GCC.a(crypto.o)
 .text.fe25519_neg
                0x0000000000000000       0x28 Middlewares/ST/STM32_Cryptographic/Lib/libSTM32CryptographicV3.0.0_CM4_GCC.a(crypto.o)
 .text.fe25519_freeze
                0x0000000000000000       0x74 Middlewares/ST/STM32_Cryptographic/Lib/libSTM32CryptographicV3.0.0_CM4_GCC.a(crypto.o)
 .text.fe25519_pack
                0x0000000000000000       0x2e Middlewares/ST/STM32_Cryptographic/Lib/libSTM32CryptographicV3.0.0_CM4_GCC.a(crypto.o)
 .text.fe25519_iseq_vartime
                0x0000000000000000       0x4e Middlewares/ST/STM32_Cryptographic/Lib/libSTM32CryptographicV3.0.0_CM4_GCC.a(crypto.o)
 .text.fe25519_getparity
                0x0000000000000000       0x24 Middlewares/ST/STM32_Cryptographic/Lib/libSTM32CryptographicV3.0.0_CM4_GCC.a(crypto.o)
 .text.fe25519_mul
                0x0000000000000000      0x1d4 Middlewares/ST/STM32_Cryptographic/Lib/libSTM32CryptographicV3.0.0_CM4_GCC.a(crypto.o)
 .text.ed25519_double
                0x0000000000000000       0xb4 Middlewares/ST/STM32_Cryptographic/Lib/libSTM32CryptographicV3.0.0_CM4_GCC.a(crypto.o)
 .text.ed25519_add
                0x0000000000000000       0xe0 Middlewares/ST/STM32_Cryptographic/Lib/libSTM32CryptographicV3.0.0_CM4_GCC.a(crypto.o)
 .text.ge25519_double_scalarmult_vartime
                0x0000000000000000       0x78 Middlewares/ST/STM32_Cryptographic/Lib/libSTM32CryptographicV3.0.0_CM4_GCC.a(crypto.o)
 .text.ge25519_scalarmult_base
                0x0000000000000000       0x6c Middlewares/ST/STM32_Cryptographic/Lib/libSTM32CryptographicV3.0.0_CM4_GCC.a(crypto.o)
 .text.fe25519_square
                0x0000000000000000        0x6 Middlewares/ST/STM32_Cryptographic/Lib/libSTM32CryptographicV3.0.0_CM4_GCC.a(crypto.o)
 .text.fe25519_invert
                0x0000000000000000      0x1cc Middlewares/ST/STM32_Cryptographic/Lib/libSTM32CryptographicV3.0.0_CM4_GCC.a(crypto.o)
 .text.ge25519_pack
                0x0000000000000000       0x40 Middlewares/ST/STM32_Cryptographic/Lib/libSTM32CryptographicV3.0.0_CM4_GCC.a(crypto.o)
 .text.fe25519_pow2523
                0x0000000000000000      0x142 Middlewares/ST/STM32_Cryptographic/Lib/libSTM32CryptographicV3.0.0_CM4_GCC.a(crypto.o)
 .text.ge25519_unpackneg_vartime
                0x0000000000000000      0x128 Middlewares/ST/STM32_Cryptographic/Lib/libSTM32CryptographicV3.0.0_CM4_GCC.a(crypto.o)
 .text.fe25519_mult121665
                0x0000000000000000       0x34 Middlewares/ST/STM32_Cryptographic/Lib/libSTM32CryptographicV3.0.0_CM4_GCC.a(crypto.o)
 .text.ED25519keyGen
                0x0000000000000000       0x8c Middlewares/ST/STM32_Cryptographic/Lib/libSTM32CryptographicV3.0.0_CM4_GCC.a(crypto.o)
 .text.ED25519sign
                0x0000000000000000      0x15a Middlewares/ST/STM32_Cryptographic/Lib/libSTM32CryptographicV3.0.0_CM4_GCC.a(crypto.o)
 .text.ED25519verify
                0x0000000000000000       0xcc Middlewares/ST/STM32_Cryptographic/Lib/libSTM32CryptographicV3.0.0_CM4_GCC.a(crypto.o)
 .text.C25519keyExchange
                0x0000000000000000      0x184 Middlewares/ST/STM32_Cryptographic/Lib/libSTM32CryptographicV3.0.0_CM4_GCC.a(crypto.o)
 .text.C25519keyGen
                0x0000000000000000       0x46 Middlewares/ST/STM32_Cryptographic/Lib/libSTM32CryptographicV3.0.0_CM4_GCC.a(crypto.o)
 .text.STM32_GetCryptoLibrarySettings
                0x0000000000000000       0x40 Middlewares/ST/STM32_Cryptographic/Lib/libSTM32CryptographicV3.0.0_CM4_GCC.a(crypto.o)
 .rodata        0x0000000000000000      0x2f8 Middlewares/ST/STM32_Cryptographic/Lib/libSTM32CryptographicV3.0.0_CM4_GCC.a(crypto.o)
 .rodata.MAC_CONF
                0x0000000000000000        0x2 Middlewares/ST/STM32_Cryptographic/Lib/libSTM32CryptographicV3.0.0_CM4_GCC.a(crypto.o)
 .rodata.CORTEX_CONF
                0x0000000000000000        0x1 Middlewares/ST/STM32_Cryptographic/Lib/libSTM32CryptographicV3.0.0_CM4_GCC.a(crypto.o)
 .rodata.m      0x0000000000000000       0x20 Middlewares/ST/STM32_Cryptographic/Lib/libSTM32CryptographicV3.0.0_CM4_GCC.a(crypto.o)
 .rodata.IDE_CONF
                0x0000000000000000        0x1 Middlewares/ST/STM32_Cryptographic/Lib/libSTM32CryptographicV3.0.0_CM4_GCC.a(crypto.o)
 .rodata.AES_CONF
                0x0000000000000000        0x1 Middlewares/ST/STM32_Cryptographic/Lib/libSTM32CryptographicV3.0.0_CM4_GCC.a(crypto.o)
 .rodata.sha512_K
                0x0000000000000000      0x280 Middlewares/ST/STM32_Cryptographic/Lib/libSTM32CryptographicV3.0.0_CM4_GCC.a(crypto.o)
 .rodata.ENDIANNESS_CONF
                0x0000000000000000        0x1 Middlewares/ST/STM32_Cryptographic/Lib/libSTM32CryptographicV3.0.0_CM4_GCC.a(crypto.o)
 .rodata.ASYM_KEY_CONF
                0x0000000000000000        0x2 Middlewares/ST/STM32_Cryptographic/Lib/libSTM32CryptographicV3.0.0_CM4_GCC.a(crypto.o)
 .rodata.TYPE_CONF
                0x0000000000000000        0x1 Middlewares/ST/STM32_Cryptographic/Lib/libSTM32CryptographicV3.0.0_CM4_GCC.a(crypto.o)
 .rodata.sigma  0x0000000000000000       0x10 Middlewares/ST/STM32_Cryptographic/Lib/libSTM32CryptographicV3.0.0_CM4_GCC.a(crypto.o)
 .rodata.K256   0x0000000000000000      0x100 Middlewares/ST/STM32_Cryptographic/Lib/libSTM32CryptographicV3.0.0_CM4_GCC.a(crypto.o)
 .rodata.ge25519_ec2d
                0x0000000000000000       0x20 Middlewares/ST/STM32_Cryptographic/Lib/libSTM32CryptographicV3.0.0_CM4_GCC.a(crypto.o)
 .rodata.SP6    0x0000000000000000      0x100 Middlewares/ST/STM32_Cryptographic/Lib/libSTM32CryptographicV3.0.0_CM4_GCC.a(crypto.o)
 .rodata.InvSbox
                0x0000000000000000      0x100 Middlewares/ST/STM32_Cryptographic/Lib/libSTM32CryptographicV3.0.0_CM4_GCC.a(crypto.o)
 .rodata.RSA_CONF
                0x0000000000000000        0x1 Middlewares/ST/STM32_Cryptographic/Lib/libSTM32CryptographicV3.0.0_CM4_GCC.a(crypto.o)
 .rodata.MISALIGNED_CONF
                0x0000000000000000        0x1 Middlewares/ST/STM32_Cryptographic/Lib/libSTM32CryptographicV3.0.0_CM4_GCC.a(crypto.o)
 .rodata.GCM_CONF
                0x0000000000000000        0x1 Middlewares/ST/STM32_Cryptographic/Lib/libSTM32CryptographicV3.0.0_CM4_GCC.a(crypto.o)
 .rodata.IDE_OPTIMIZATION
                0x0000000000000000        0x1 Middlewares/ST/STM32_Cryptographic/Lib/libSTM32CryptographicV3.0.0_CM4_GCC.a(crypto.o)
 .rodata.HASH_CONF
                0x0000000000000000        0x2 Middlewares/ST/STM32_Cryptographic/Lib/libSTM32CryptographicV3.0.0_CM4_GCC.a(crypto.o)
 .rodata.SYM_KEY_CONF
                0x0000000000000000        0x2 Middlewares/ST/STM32_Cryptographic/Lib/libSTM32CryptographicV3.0.0_CM4_GCC.a(crypto.o)
 .rodata.ge25519_sqrtm1
                0x0000000000000000       0x20 Middlewares/ST/STM32_Cryptographic/Lib/libSTM32CryptographicV3.0.0_CM4_GCC.a(crypto.o)
 .rodata.mu     0x0000000000000000       0x24 Middlewares/ST/STM32_Cryptographic/Lib/libSTM32CryptographicV3.0.0_CM4_GCC.a(crypto.o)
 .rodata.SP2    0x0000000000000000      0x100 Middlewares/ST/STM32_Cryptographic/Lib/libSTM32CryptographicV3.0.0_CM4_GCC.a(crypto.o)
 .rodata.SP3    0x0000000000000000      0x100 Middlewares/ST/STM32_Cryptographic/Lib/libSTM32CryptographicV3.0.0_CM4_GCC.a(crypto.o)
 .rodata.SP4    0x0000000000000000      0x100 Middlewares/ST/STM32_Cryptographic/Lib/libSTM32CryptographicV3.0.0_CM4_GCC.a(crypto.o)
 .rodata.SP5    0x0000000000000000      0x100 Middlewares/ST/STM32_Cryptographic/Lib/libSTM32CryptographicV3.0.0_CM4_GCC.a(crypto.o)
 .rodata.SP7    0x0000000000000000      0x100 Middlewares/ST/STM32_Cryptographic/Lib/libSTM32CryptographicV3.0.0_CM4_GCC.a(crypto.o)
 .rodata.SP8    0x0000000000000000      0x100 Middlewares/ST/STM32_Cryptographic/Lib/libSTM32CryptographicV3.0.0_CM4_GCC.a(crypto.o)
 .rodata.ge25519_base
                0x0000000000000000       0x80 Middlewares/ST/STM32_Cryptographic/Lib/libSTM32CryptographicV3.0.0_CM4_GCC.a(crypto.o)
 .rodata.ENC_DEC_CONF
                0x0000000000000000        0x1 Middlewares/ST/STM32_Cryptographic/Lib/libSTM32CryptographicV3.0.0_CM4_GCC.a(crypto.o)
 .rodata.SYM_KEY_MODES_CONF
                0x0000000000000000        0x2 Middlewares/ST/STM32_Cryptographic/Lib/libSTM32CryptographicV3.0.0_CM4_GCC.a(crypto.o)
 .rodata.DRBG_CONF
                0x0000000000000000        0x1 Middlewares/ST/STM32_Cryptographic/Lib/libSTM32CryptographicV3.0.0_CM4_GCC.a(crypto.o)
 .rodata.table_reduction4
                0x0000000000000000       0x20 Middlewares/ST/STM32_Cryptographic/Lib/libSTM32CryptographicV3.0.0_CM4_GCC.a(crypto.o)
 .rodata.SP1    0x0000000000000000      0x100 Middlewares/ST/STM32_Cryptographic/Lib/libSTM32CryptographicV3.0.0_CM4_GCC.a(crypto.o)
 .rodata.tau    0x0000000000000000       0x10 Middlewares/ST/STM32_Cryptographic/Lib/libSTM32CryptographicV3.0.0_CM4_GCC.a(crypto.o)
 .rodata.table_reduction8
                0x0000000000000000      0x200 Middlewares/ST/STM32_Cryptographic/Lib/libSTM32CryptographicV3.0.0_CM4_GCC.a(crypto.o)
 .rodata.ge25519_ecd
                0x0000000000000000       0x20 Middlewares/ST/STM32_Cryptographic/Lib/libSTM32CryptographicV3.0.0_CM4_GCC.a(crypto.o)
 .rodata.pad.9195
                0x0000000000000000       0x40 Middlewares/ST/STM32_Cryptographic/Lib/libSTM32CryptographicV3.0.0_CM4_GCC.a(crypto.o)
 .data          0x0000000000000000        0x0 /usr/local/Cellar/arm-none-eabi-gcc/9-2019-q4-major/gcc/bin/../lib/gcc/arm-none-eabi/9.2.1/thumb/v7e-m+fp/softfp/libgcc.a(_aeabi_uldivmod.o)
 .bss           0x0000000000000000        0x0 /usr/local/Cellar/arm-none-eabi-gcc/9-2019-q4-major/gcc/bin/../lib/gcc/arm-none-eabi/9.2.1/thumb/v7e-m+fp/softfp/libgcc.a(_aeabi_uldivmod.o)
 .data          0x0000000000000000        0x0 /usr/local/Cellar/arm-none-eabi-gcc/9-2019-q4-major/gcc/bin/../lib/gcc/arm-none-eabi/9.2.1/thumb/v7e-m+fp/softfp/libgcc.a(_udivmoddi4.o)
 .bss           0x0000000000000000        0x0 /usr/local/Cellar/arm-none-eabi-gcc/9-2019-q4-major/gcc/bin/../lib/gcc/arm-none-eabi/9.2.1/thumb/v7e-m+fp/softfp/libgcc.a(_udivmoddi4.o)
 .ARM.extab     0x0000000000000000        0x0 /usr/local/Cellar/arm-none-eabi-gcc/9-2019-q4-major/gcc/bin/../lib/gcc/arm-none-eabi/9.2.1/thumb/v7e-m+fp/softfp/libgcc.a(_udivmoddi4.o)
 .data          0x0000000000000000        0x0 /usr/local/Cellar/arm-none-eabi-gcc/9-2019-q4-major/gcc/bin/../lib/gcc/arm-none-eabi/9.2.1/thumb/v7e-m+fp/softfp/libgcc.a(_dvmd_tls.o)
 .bss           0x0000000000000000        0x0 /usr/local/Cellar/arm-none-eabi-gcc/9-2019-q4-major/gcc/bin/../lib/gcc/arm-none-eabi/9.2.1/thumb/v7e-m+fp/softfp/libgcc.a(_dvmd_tls.o)
 .text          0x0000000000000000        0x0 /usr/local/Cellar/arm-none-eabi-gcc/9-2019-q4-major/gcc/bin/../lib/gcc/arm-none-eabi/9.2.1/thumb/v7e-m+fp/softfp/crtend.o
 .data          0x0000000000000000        0x0 /usr/local/Cellar/arm-none-eabi-gcc/9-2019-q4-major/gcc/bin/../lib/gcc/arm-none-eabi/9.2.1/thumb/v7e-m+fp/softfp/crtend.o
 .bss           0x0000000000000000        0x0 /usr/local/Cellar/arm-none-eabi-gcc/9-2019-q4-major/gcc/bin/../lib/gcc/arm-none-eabi/9.2.1/thumb/v7e-m+fp/softfp/crtend.o
 .eh_frame      0x0000000000000000        0x4 /usr/local/Cellar/arm-none-eabi-gcc/9-2019-q4-major/gcc/bin/../lib/gcc/arm-none-eabi/9.2.1/thumb/v7e-m+fp/softfp/crtend.o
 .ARM.attributes
                0x0000000000000000       0x30 /usr/local/Cellar/arm-none-eabi-gcc/9-2019-q4-major/gcc/bin/../lib/gcc/arm-none-eabi/9.2.1/thumb/v7e-m+fp/softfp/crtend.o
 .text          0x0000000000000000        0x0 /usr/local/Cellar/arm-none-eabi-gcc/9-2019-q4-major/gcc/bin/../lib/gcc/arm-none-eabi/9.2.1/thumb/v7e-m+fp/softfp/crtn.o
 .data          0x0000000000000000        0x0 /usr/local/Cellar/arm-none-eabi-gcc/9-2019-q4-major/gcc/bin/../lib/gcc/arm-none-eabi/9.2.1/thumb/v7e-m+fp/softfp/crtn.o
 .bss           0x0000000000000000        0x0 /usr/local/Cellar/arm-none-eabi-gcc/9-2019-q4-major/gcc/bin/../lib/gcc/arm-none-eabi/9.2.1/thumb/v7e-m+fp/softfp/crtn.o

Memory Configuration

Name             Origin             Length             Attributes
RAM              0x0000000020000000 0x0000000000020000 xrw
CCMRAM           0x0000000010000000 0x0000000000010000 xrw
FLASH            0x0000000008000000 0x0000000000100000 xr
*default*        0x0000000000000000 0xffffffffffffffff

Linker script and memory map

LOAD /usr/local/Cellar/arm-none-eabi-gcc/9-2019-q4-major/gcc/bin/../lib/gcc/arm-none-eabi/9.2.1/thumb/v7e-m+fp/softfp/crti.o
LOAD /usr/local/Cellar/arm-none-eabi-gcc/9-2019-q4-major/gcc/bin/../lib/gcc/arm-none-eabi/9.2.1/thumb/v7e-m+fp/softfp/crtbegin.o
LOAD /usr/local/Cellar/arm-none-eabi-gcc/9-2019-q4-major/gcc/bin/../lib/gcc/arm-none-eabi/9.2.1/../../../../arm-none-eabi/lib/thumb/v7e-m+fp/softfp/crt0.o
LOAD build/main.o
LOAD build/stm32f4xx_it.o
LOAD build/stm32f4xx_hal_msp.o
LOAD build/usb_device.o
LOAD build/usbd_desc.o
LOAD build/usbd_cdc_if.o
LOAD build/usbd_conf.o
LOAD build/stm32f4xx_hal_pcd.o
LOAD build/stm32f4xx_hal_pcd_ex.o
LOAD build/stm32f4xx_ll_usb.o
LOAD build/stm32f4xx_hal_rcc.o
LOAD build/stm32f4xx_hal_rcc_ex.o
LOAD build/stm32f4xx_hal_flash.o
LOAD build/stm32f4xx_hal_flash_ex.o
LOAD build/stm32f4xx_hal_flash_ramfunc.o
LOAD build/stm32f4xx_hal_gpio.o
LOAD build/stm32f4xx_hal_dma_ex.o
LOAD build/stm32f4xx_hal_dma.o
LOAD build/stm32f4xx_hal_pwr.o
LOAD build/stm32f4xx_hal_pwr_ex.o
LOAD build/stm32f4xx_hal_cortex.o
LOAD build/stm32f4xx_hal.o
LOAD build/stm32f4xx_hal_exti.o
LOAD build/stm32f4xx_hal_tim.o
LOAD build/stm32f4xx_hal_tim_ex.o
LOAD build/system_stm32f4xx.o
LOAD build/usbd_core.o
LOAD build/usbd_ctlreq.o
LOAD build/usbd_ioreq.o
LOAD build/usbd_cdc.o
LOAD build/startup_stm32f407xx.o
LOAD /usr/local/Cellar/arm-none-eabi-gcc/9-2019-q4-major/gcc/bin/../lib/gcc/arm-none-eabi/9.2.1/../../../../arm-none-eabi/lib/thumb/v7e-m+fp/softfp/libc_nano.a
LOAD /usr/local/Cellar/arm-none-eabi-gcc/9-2019-q4-major/gcc/bin/../lib/gcc/arm-none-eabi/9.2.1/../../../../arm-none-eabi/lib/thumb/v7e-m+fp/softfp/libm.a
LOAD /usr/local/Cellar/arm-none-eabi-gcc/9-2019-q4-major/gcc/bin/../lib/gcc/arm-none-eabi/9.2.1/../../../../arm-none-eabi/lib/thumb/v7e-m+fp/softfp/libnosys.a
LOAD Middlewares/ST/STM32_Cryptographic/Lib/libSTM32CryptographicV3.0.0_CM4_GCC.a
START GROUP
LOAD /usr/local/Cellar/arm-none-eabi-gcc/9-2019-q4-major/gcc/bin/../lib/gcc/arm-none-eabi/9.2.1/thumb/v7e-m+fp/softfp/libgcc.a
LOAD /usr/local/Cellar/arm-none-eabi-gcc/9-2019-q4-major/gcc/bin/../lib/gcc/arm-none-eabi/9.2.1/../../../../arm-none-eabi/lib/thumb/v7e-m+fp/softfp/libc_nano.a
END GROUP
START GROUP
LOAD /usr/local/Cellar/arm-none-eabi-gcc/9-2019-q4-major/gcc/bin/../lib/gcc/arm-none-eabi/9.2.1/thumb/v7e-m+fp/softfp/libgcc.a
LOAD /usr/local/Cellar/arm-none-eabi-gcc/9-2019-q4-major/gcc/bin/../lib/gcc/arm-none-eabi/9.2.1/../../../../arm-none-eabi/lib/thumb/v7e-m+fp/softfp/libc_nano.a
END GROUP
LOAD /usr/local/Cellar/arm-none-eabi-gcc/9-2019-q4-major/gcc/bin/../lib/gcc/arm-none-eabi/9.2.1/thumb/v7e-m+fp/softfp/crtend.o
LOAD /usr/local/Cellar/arm-none-eabi-gcc/9-2019-q4-major/gcc/bin/../lib/gcc/arm-none-eabi/9.2.1/thumb/v7e-m+fp/softfp/crtn.o
                0x0000000020020000                _estack = 0x20020000
                0x0000000000000200                _Min_Heap_Size = 0x200
                0x0000000000000400                _Min_Stack_Size = 0x400

.isr_vector     0x0000000008000000      0x188
                0x0000000008000000                . = ALIGN (0x4)
 *(.isr_vector)
 .isr_vector    0x0000000008000000      0x188 build/startup_stm32f407xx.o
                0x0000000008000000                g_pfnVectors
                0x0000000008000188                . = ALIGN (0x4)

.text           0x0000000008000190     0x7354
                0x0000000008000190                . = ALIGN (0x4)
 *(.text)
 .text          0x0000000008000190       0x40 /usr/local/Cellar/arm-none-eabi-gcc/9-2019-q4-major/gcc/bin/../lib/gcc/arm-none-eabi/9.2.1/thumb/v7e-m+fp/softfp/crtbegin.o
 .text          0x00000000080001d0       0xa0 /usr/local/Cellar/arm-none-eabi-gcc/9-2019-q4-major/gcc/bin/../lib/gcc/arm-none-eabi/9.2.1/../../../../arm-none-eabi/lib/thumb/v7e-m+fp/softfp/libc_nano.a(lib_a-memchr.o)
                0x00000000080001d0                memchr
 .text          0x0000000008000270       0x30 /usr/local/Cellar/arm-none-eabi-gcc/9-2019-q4-major/gcc/bin/../lib/gcc/arm-none-eabi/9.2.1/thumb/v7e-m+fp/softfp/libgcc.a(_aeabi_uldivmod.o)
                0x0000000008000270                __aeabi_uldivmod
 .text          0x00000000080002a0      0x2c4 /usr/local/Cellar/arm-none-eabi-gcc/9-2019-q4-major/gcc/bin/../lib/gcc/arm-none-eabi/9.2.1/thumb/v7e-m+fp/softfp/libgcc.a(_udivmoddi4.o)
                0x00000000080002a0                __udivmoddi4
 .text          0x0000000008000564        0x4 /usr/local/Cellar/arm-none-eabi-gcc/9-2019-q4-major/gcc/bin/../lib/gcc/arm-none-eabi/9.2.1/thumb/v7e-m+fp/softfp/libgcc.a(_dvmd_tls.o)
                0x0000000008000564                __aeabi_ldiv0
                0x0000000008000564                __aeabi_idiv0
 *(.text*)
 .text.main     0x0000000008000568      0x11c build/main.o
                0x0000000008000568                main
 .text.SystemClock_Config
                0x0000000008000684       0xd4 build/main.o
                0x0000000008000684                SystemClock_Config
 .text.MX_GPIO_Init
                0x0000000008000758       0x6c build/main.o
 .text.Error_Handler
                0x00000000080007c4        0xa build/main.o
                0x00000000080007c4                Error_Handler
 .text.NMI_Handler
                0x00000000080007ce        0x6 build/stm32f4xx_it.o
                0x00000000080007ce                NMI_Handler
 .text.HardFault_Handler
                0x00000000080007d4        0x6 build/stm32f4xx_it.o
                0x00000000080007d4                HardFault_Handler
 .text.MemManage_Handler
                0x00000000080007da        0x6 build/stm32f4xx_it.o
                0x00000000080007da                MemManage_Handler
 .text.BusFault_Handler
                0x00000000080007e0        0x6 build/stm32f4xx_it.o
                0x00000000080007e0                BusFault_Handler
 .text.UsageFault_Handler
                0x00000000080007e6        0x6 build/stm32f4xx_it.o
                0x00000000080007e6                UsageFault_Handler
 .text.SVC_Handler
                0x00000000080007ec        0xe build/stm32f4xx_it.o
                0x00000000080007ec                SVC_Handler
 .text.DebugMon_Handler
                0x00000000080007fa        0xe build/stm32f4xx_it.o
                0x00000000080007fa                DebugMon_Handler
 .text.PendSV_Handler
                0x0000000008000808        0xe build/stm32f4xx_it.o
                0x0000000008000808                PendSV_Handler
 .text.SysTick_Handler
                0x0000000008000816        0xc build/stm32f4xx_it.o
                0x0000000008000816                SysTick_Handler
 *fill*         0x0000000008000822        0x2 
 .text.OTG_FS_IRQHandler
                0x0000000008000824       0x14 build/stm32f4xx_it.o
                0x0000000008000824                OTG_FS_IRQHandler
 .text.HAL_MspInit
                0x0000000008000838       0x50 build/stm32f4xx_hal_msp.o
                0x0000000008000838                HAL_MspInit
 .text.MX_USB_DEVICE_Init
                0x0000000008000888       0x60 build/usb_device.o
                0x0000000008000888                MX_USB_DEVICE_Init
 .text.USBD_FS_DeviceDescriptor
                0x00000000080008e8       0x24 build/usbd_desc.o
                0x00000000080008e8                USBD_FS_DeviceDescriptor
 .text.USBD_FS_LangIDStrDescriptor
                0x000000000800090c       0x24 build/usbd_desc.o
                0x000000000800090c                USBD_FS_LangIDStrDescriptor
 .text.USBD_FS_ProductStrDescriptor
                0x0000000008000930       0x3c build/usbd_desc.o
                0x0000000008000930                USBD_FS_ProductStrDescriptor
 .text.USBD_FS_ManufacturerStrDescriptor
                0x000000000800096c       0x28 build/usbd_desc.o
                0x000000000800096c                USBD_FS_ManufacturerStrDescriptor
 .text.USBD_FS_SerialStrDescriptor
                0x0000000008000994       0x24 build/usbd_desc.o
                0x0000000008000994                USBD_FS_SerialStrDescriptor
 .text.USBD_FS_ConfigStrDescriptor
                0x00000000080009b8       0x3c build/usbd_desc.o
                0x00000000080009b8                USBD_FS_ConfigStrDescriptor
 .text.USBD_FS_InterfaceStrDescriptor
                0x00000000080009f4       0x3c build/usbd_desc.o
                0x00000000080009f4                USBD_FS_InterfaceStrDescriptor
 .text.Get_SerialNum
                0x0000000008000a30       0x58 build/usbd_desc.o
 .text.IntToUnicode
                0x0000000008000a88       0x7e build/usbd_desc.o
 *fill*         0x0000000008000b06        0x2 
 .text.CDC_Init_FS
                0x0000000008000b08       0x28 build/usbd_cdc_if.o
 .text.CDC_DeInit_FS
                0x0000000008000b30       0x10 build/usbd_cdc_if.o
 .text.CDC_Control_FS
                0x0000000008000b40       0xbc build/usbd_cdc_if.o
 .text.CDC_Receive_FS
                0x0000000008000bfc       0x28 build/usbd_cdc_if.o
 .text.CDC_TransmitCplt_FS
                0x0000000008000c24       0x22 build/usbd_cdc_if.o
 *fill*         0x0000000008000c46        0x2 
 .text.HAL_PCD_MspInit
                0x0000000008000c48       0xa8 build/usbd_conf.o
                0x0000000008000c48                HAL_PCD_MspInit
 .text.HAL_PCD_SetupStageCallback
                0x0000000008000cf0       0x24 build/usbd_conf.o
                0x0000000008000cf0                HAL_PCD_SetupStageCallback
 .text.HAL_PCD_DataOutStageCallback
                0x0000000008000d14       0x36 build/usbd_conf.o
                0x0000000008000d14                HAL_PCD_DataOutStageCallback
 .text.HAL_PCD_DataInStageCallback
                0x0000000008000d4a       0x34 build/usbd_conf.o
                0x0000000008000d4a                HAL_PCD_DataInStageCallback
 .text.HAL_PCD_SOFCallback
                0x0000000008000d7e       0x1c build/usbd_conf.o
                0x0000000008000d7e                HAL_PCD_SOFCallback
 .text.HAL_PCD_ResetCallback
                0x0000000008000d9a       0x50 build/usbd_conf.o
                0x0000000008000d9a                HAL_PCD_ResetCallback
 *fill*         0x0000000008000dea        0x2 
 .text.HAL_PCD_SuspendCallback
                0x0000000008000dec       0x4c build/usbd_conf.o
                0x0000000008000dec                HAL_PCD_SuspendCallback
 .text.HAL_PCD_ResumeCallback
                0x0000000008000e38       0x1c build/usbd_conf.o
                0x0000000008000e38                HAL_PCD_ResumeCallback
 .text.HAL_PCD_ISOOUTIncompleteCallback
                0x0000000008000e54       0x24 build/usbd_conf.o
                0x0000000008000e54                HAL_PCD_ISOOUTIncompleteCallback
 .text.HAL_PCD_ISOINIncompleteCallback
                0x0000000008000e78       0x24 build/usbd_conf.o
                0x0000000008000e78                HAL_PCD_ISOINIncompleteCallback
 .text.HAL_PCD_ConnectCallback
                0x0000000008000e9c       0x1c build/usbd_conf.o
                0x0000000008000e9c                HAL_PCD_ConnectCallback
 .text.HAL_PCD_DisconnectCallback
                0x0000000008000eb8       0x1c build/usbd_conf.o
                0x0000000008000eb8                HAL_PCD_DisconnectCallback
 .text.USBD_LL_Init
                0x0000000008000ed4       0x98 build/usbd_conf.o
                0x0000000008000ed4                USBD_LL_Init
 .text.USBD_LL_Start
                0x0000000008000f6c       0x36 build/usbd_conf.o
                0x0000000008000f6c                USBD_LL_Start
 .text.USBD_LL_OpenEP
                0x0000000008000fa2       0x4c build/usbd_conf.o
                0x0000000008000fa2                USBD_LL_OpenEP
 .text.USBD_LL_CloseEP
                0x0000000008000fee       0x3e build/usbd_conf.o
                0x0000000008000fee                USBD_LL_CloseEP
 .text.USBD_LL_StallEP
                0x000000000800102c       0x3e build/usbd_conf.o
                0x000000000800102c                USBD_LL_StallEP
 .text.USBD_LL_ClearStallEP
                0x000000000800106a       0x3e build/usbd_conf.o
                0x000000000800106a                USBD_LL_ClearStallEP
 .text.USBD_LL_IsStallEP
                0x00000000080010a8       0x58 build/usbd_conf.o
                0x00000000080010a8                USBD_LL_IsStallEP
 .text.USBD_LL_SetUSBAddress
                0x0000000008001100       0x3e build/usbd_conf.o
                0x0000000008001100                USBD_LL_SetUSBAddress
 .text.USBD_LL_Transmit
                0x000000000800113e       0x42 build/usbd_conf.o
                0x000000000800113e                USBD_LL_Transmit
 .text.USBD_LL_PrepareReceive
                0x0000000008001180       0x42 build/usbd_conf.o
                0x0000000008001180                USBD_LL_PrepareReceive
 .text.USBD_LL_GetRxDataSize
                0x00000000080011c2       0x26 build/usbd_conf.o
                0x00000000080011c2                USBD_LL_GetRxDataSize
 .text.USBD_static_malloc
                0x00000000080011e8       0x1c build/usbd_conf.o
                0x00000000080011e8                USBD_static_malloc
 .text.USBD_static_free
                0x0000000008001204       0x14 build/usbd_conf.o
                0x0000000008001204                USBD_static_free
 .text.USBD_Get_USB_Status
                0x0000000008001218       0x58 build/usbd_conf.o
                0x0000000008001218                USBD_Get_USB_Status
 .text.HAL_PCD_Init
                0x0000000008001270      0x23a build/stm32f4xx_hal_pcd.o
                0x0000000008001270                HAL_PCD_Init
 .text.HAL_PCD_Start
                0x00000000080014aa       0x66 build/stm32f4xx_hal_pcd.o
                0x00000000080014aa                HAL_PCD_Start
 .text.HAL_PCD_IRQHandler
                0x0000000008001510      0x764 build/stm32f4xx_hal_pcd.o
                0x0000000008001510                HAL_PCD_IRQHandler
 .text.HAL_PCD_SetAddress
                0x0000000008001c74       0x4a build/stm32f4xx_hal_pcd.o
                0x0000000008001c74                HAL_PCD_SetAddress
 .text.HAL_PCD_EP_Open
                0x0000000008001cbe       0xd0 build/stm32f4xx_hal_pcd.o
                0x0000000008001cbe                HAL_PCD_EP_Open
 .text.HAL_PCD_EP_Close
                0x0000000008001d8e       0x94 build/stm32f4xx_hal_pcd.o
                0x0000000008001d8e                HAL_PCD_EP_Close
 .text.HAL_PCD_EP_Receive
                0x0000000008001e22       0x96 build/stm32f4xx_hal_pcd.o
                0x0000000008001e22                HAL_PCD_EP_Receive
 .text.HAL_PCD_EP_GetRxCount
                0x0000000008001eb8       0x30 build/stm32f4xx_hal_pcd.o
                0x0000000008001eb8                HAL_PCD_EP_GetRxCount
 .text.HAL_PCD_EP_Transmit
                0x0000000008001ee8       0x94 build/stm32f4xx_hal_pcd.o
                0x0000000008001ee8                HAL_PCD_EP_Transmit
 .text.HAL_PCD_EP_SetStall
                0x0000000008001f7c       0xc8 build/stm32f4xx_hal_pcd.o
                0x0000000008001f7c                HAL_PCD_EP_SetStall
 .text.HAL_PCD_EP_ClrStall
                0x0000000008002044       0xac build/stm32f4xx_hal_pcd.o
                0x0000000008002044                HAL_PCD_EP_ClrStall
 .text.PCD_WriteEmptyTxFifo
                0x00000000080020f0      0x11a build/stm32f4xx_hal_pcd.o
 *fill*         0x000000000800220a        0x2 
 .text.PCD_EP_OutXfrComplete_int
                0x000000000800220c      0x218 build/stm32f4xx_hal_pcd.o
 .text.PCD_EP_OutSetupPacket_int
                0x0000000008002424       0x8c build/stm32f4xx_hal_pcd.o
 .text.HAL_PCDEx_SetTxFiFo
                0x00000000080024b0       0x8e build/stm32f4xx_hal_pcd_ex.o
                0x00000000080024b0                HAL_PCDEx_SetTxFiFo
 .text.HAL_PCDEx_SetRxFiFo
                0x000000000800253e       0x22 build/stm32f4xx_hal_pcd_ex.o
                0x000000000800253e                HAL_PCDEx_SetRxFiFo
 .text.HAL_PCDEx_LPM_Callback
                0x0000000008002560       0x18 build/stm32f4xx_hal_pcd_ex.o
                0x0000000008002560                HAL_PCDEx_LPM_Callback
 .text.USB_CoreInit
                0x0000000008002578       0xc2 build/stm32f4xx_ll_usb.o
                0x0000000008002578                USB_CoreInit
 *fill*         0x000000000800263a        0x2 
 .text.USB_SetTurnaroundTime
                0x000000000800263c      0x144 build/stm32f4xx_ll_usb.o
                0x000000000800263c                USB_SetTurnaroundTime
 .text.USB_EnableGlobalInt
                0x0000000008002780       0x22 build/stm32f4xx_ll_usb.o
                0x0000000008002780                USB_EnableGlobalInt
 .text.USB_DisableGlobalInt
                0x00000000080027a2       0x22 build/stm32f4xx_ll_usb.o
                0x00000000080027a2                USB_DisableGlobalInt
 .text.USB_SetCurrentMode
                0x00000000080027c4       0x54 build/stm32f4xx_ll_usb.o
                0x00000000080027c4                USB_SetCurrentMode
 .text.USB_DevInit
                0x0000000008002818      0x2c8 build/stm32f4xx_ll_usb.o
                0x0000000008002818                USB_DevInit
 .text.USB_FlushTxFifo
                0x0000000008002ae0       0x4c build/stm32f4xx_ll_usb.o
                0x0000000008002ae0                USB_FlushTxFifo
 .text.USB_FlushRxFifo
                0x0000000008002b2c       0x44 build/stm32f4xx_ll_usb.o
                0x0000000008002b2c                USB_FlushRxFifo
 .text.USB_SetDevSpeed
                0x0000000008002b70       0x32 build/stm32f4xx_ll_usb.o
                0x0000000008002b70                USB_SetDevSpeed
 .text.USB_GetDevSpeed
                0x0000000008002ba2       0x4a build/stm32f4xx_ll_usb.o
                0x0000000008002ba2                USB_GetDevSpeed
 .text.USB_ActivateEndpoint
                0x0000000008002bec      0x10e build/stm32f4xx_ll_usb.o
                0x0000000008002bec                USB_ActivateEndpoint
 *fill*         0x0000000008002cfa        0x2 
 .text.USB_DeactivateEndpoint
                0x0000000008002cfc      0x1b8 build/stm32f4xx_ll_usb.o
                0x0000000008002cfc                USB_DeactivateEndpoint
 .text.USB_EPStartXfer
                0x0000000008002eb4      0x488 build/stm32f4xx_ll_usb.o
                0x0000000008002eb4                USB_EPStartXfer
 .text.USB_EP0StartXfer
                0x000000000800333c      0x2a6 build/stm32f4xx_ll_usb.o
                0x000000000800333c                USB_EP0StartXfer
 .text.USB_WritePacket
                0x00000000080035e2       0x6a build/stm32f4xx_ll_usb.o
                0x00000000080035e2                USB_WritePacket
 .text.USB_ReadPacket
                0x000000000800364c       0x52 build/stm32f4xx_ll_usb.o
                0x000000000800364c                USB_ReadPacket
 .text.USB_EPSetStall
                0x000000000800369e       0xdc build/stm32f4xx_ll_usb.o
                0x000000000800369e                USB_EPSetStall
 .text.USB_EPClearStall
                0x000000000800377a       0xcc build/stm32f4xx_ll_usb.o
                0x000000000800377a                USB_EPClearStall
 .text.USB_SetDevAddress
                0x0000000008003846       0x4c build/stm32f4xx_ll_usb.o
                0x0000000008003846                USB_SetDevAddress
 .text.USB_DevConnect
                0x0000000008003892       0x42 build/stm32f4xx_ll_usb.o
                0x0000000008003892                USB_DevConnect
 .text.USB_DevDisconnect
                0x00000000080038d4       0x42 build/stm32f4xx_ll_usb.o
                0x00000000080038d4                USB_DevDisconnect
 .text.USB_ReadInterrupts
                0x0000000008003916       0x26 build/stm32f4xx_ll_usb.o
                0x0000000008003916                USB_ReadInterrupts
 .text.USB_ReadDevAllOutEpInterrupt
                0x000000000800393c       0x34 build/stm32f4xx_ll_usb.o
                0x000000000800393c                USB_ReadDevAllOutEpInterrupt
 .text.USB_ReadDevAllInEpInterrupt
                0x0000000008003970       0x34 build/stm32f4xx_ll_usb.o
                0x0000000008003970                USB_ReadDevAllInEpInterrupt
 .text.USB_ReadDevOutEPInterrupt
                0x00000000080039a4       0x3c build/stm32f4xx_ll_usb.o
                0x00000000080039a4                USB_ReadDevOutEPInterrupt
 .text.USB_ReadDevInEPInterrupt
                0x00000000080039e0       0x5c build/stm32f4xx_ll_usb.o
                0x00000000080039e0                USB_ReadDevInEPInterrupt
 .text.USB_GetMode
                0x0000000008003a3c       0x1c build/stm32f4xx_ll_usb.o
                0x0000000008003a3c                USB_GetMode
 .text.USB_ActivateSetup
                0x0000000008003a58       0x46 build/stm32f4xx_ll_usb.o
                0x0000000008003a58                USB_ActivateSetup
 *fill*         0x0000000008003a9e        0x2 
 .text.USB_EP0_OutStart
                0x0000000008003aa0       0xbc build/stm32f4xx_ll_usb.o
                0x0000000008003aa0                USB_EP0_OutStart
 .text.USB_CoreReset
                0x0000000008003b5c       0x68 build/stm32f4xx_ll_usb.o
 .text.HAL_RCC_OscConfig
                0x0000000008003bc4      0x4f0 build/stm32f4xx_hal_rcc.o
                0x0000000008003bc4                HAL_RCC_OscConfig
 .text.HAL_RCC_ClockConfig
                0x00000000080040b4      0x1cc build/stm32f4xx_hal_rcc.o
                0x00000000080040b4                HAL_RCC_ClockConfig
 .text.HAL_RCC_GetSysClockFreq
                0x0000000008004280      0x1c4 build/stm32f4xx_hal_rcc.o
                0x0000000008004280                HAL_RCC_GetSysClockFreq
 .text.HAL_RCC_GetHCLKFreq
                0x0000000008004444       0x18 build/stm32f4xx_hal_rcc.o
                0x0000000008004444                HAL_RCC_GetHCLKFreq
 .text.HAL_GPIO_Init
                0x000000000800445c      0x338 build/stm32f4xx_hal_gpio.o
                0x000000000800445c                HAL_GPIO_Init
 .text.__NVIC_SetPriorityGrouping
                0x0000000008004794       0x48 build/stm32f4xx_hal_cortex.o
 .text.__NVIC_GetPriorityGrouping
                0x00000000080047dc       0x1c build/stm32f4xx_hal_cortex.o
 .text.__NVIC_EnableIRQ
                0x00000000080047f8       0x3c build/stm32f4xx_hal_cortex.o
 .text.__NVIC_SetPriority
                0x0000000008004834       0x54 build/stm32f4xx_hal_cortex.o
 .text.NVIC_EncodePriority
                0x0000000008004888       0x66 build/stm32f4xx_hal_cortex.o
 *fill*         0x00000000080048ee        0x2 
 .text.SysTick_Config
                0x00000000080048f0       0x44 build/stm32f4xx_hal_cortex.o
 .text.HAL_NVIC_SetPriorityGrouping
                0x0000000008004934       0x16 build/stm32f4xx_hal_cortex.o
                0x0000000008004934                HAL_NVIC_SetPriorityGrouping
 .text.HAL_NVIC_SetPriority
                0x000000000800494a       0x38 build/stm32f4xx_hal_cortex.o
                0x000000000800494a                HAL_NVIC_SetPriority
 .text.HAL_NVIC_EnableIRQ
                0x0000000008004982       0x1c build/stm32f4xx_hal_cortex.o
                0x0000000008004982                HAL_NVIC_EnableIRQ
 .text.HAL_SYSTICK_Config
                0x000000000800499e       0x18 build/stm32f4xx_hal_cortex.o
                0x000000000800499e                HAL_SYSTICK_Config
 *fill*         0x00000000080049b6        0x2 
 .text.HAL_Init
                0x00000000080049b8       0x44 build/stm32f4xx_hal.o
                0x00000000080049b8                HAL_Init
 .text.HAL_InitTick
                0x00000000080049fc       0x60 build/stm32f4xx_hal.o
                0x00000000080049fc                HAL_InitTick
 .text.HAL_IncTick
                0x0000000008004a5c       0x28 build/stm32f4xx_hal.o
                0x0000000008004a5c                HAL_IncTick
 .text.HAL_GetTick
                0x0000000008004a84       0x18 build/stm32f4xx_hal.o
                0x0000000008004a84                HAL_GetTick
 .text.HAL_Delay
                0x0000000008004a9c       0x48 build/stm32f4xx_hal.o
                0x0000000008004a9c                HAL_Delay
 .text.SystemInit
                0x0000000008004ae4       0x24 build/system_stm32f4xx.o
                0x0000000008004ae4                SystemInit
 .text.USBD_Init
                0x0000000008004b08       0x60 build/usbd_core.o
                0x0000000008004b08                USBD_Init
 .text.USBD_RegisterClass
                0x0000000008004b68       0x4e build/usbd_core.o
                0x0000000008004b68                USBD_RegisterClass
 .text.USBD_Start
                0x0000000008004bb6       0x18 build/usbd_core.o
                0x0000000008004bb6                USBD_Start
 .text.USBD_RunTestMode
                0x0000000008004bce       0x16 build/usbd_core.o
                0x0000000008004bce                USBD_RunTestMode
 .text.USBD_SetClassConfig
                0x0000000008004be4       0x38 build/usbd_core.o
                0x0000000008004be4                USBD_SetClassConfig
 .text.USBD_ClrClassConfig
                0x0000000008004c1c       0x30 build/usbd_core.o
                0x0000000008004c1c                USBD_ClrClassConfig
 .text.USBD_LL_SetupStage
                0x0000000008004c4c       0xaa build/usbd_core.o
                0x0000000008004c4c                USBD_LL_SetupStage
 .text.USBD_LL_DataOutStage
                0x0000000008004cf6       0xc6 build/usbd_core.o
                0x0000000008004cf6                USBD_LL_DataOutStage
 .text.USBD_LL_DataInStage
                0x0000000008004dbc      0x12c build/usbd_core.o
                0x0000000008004dbc                USBD_LL_DataInStage
 .text.USBD_LL_Reset
                0x0000000008004ee8       0x9c build/usbd_core.o
                0x0000000008004ee8                USBD_LL_Reset
 .text.USBD_LL_SetSpeed
                0x0000000008004f84       0x20 build/usbd_core.o
                0x0000000008004f84                USBD_LL_SetSpeed
 .text.USBD_LL_Suspend
                0x0000000008004fa4       0x2c build/usbd_core.o
                0x0000000008004fa4                USBD_LL_Suspend
 .text.USBD_LL_Resume
                0x0000000008004fd0       0x30 build/usbd_core.o
                0x0000000008004fd0                USBD_LL_Resume
 .text.USBD_LL_SOF
                0x0000000008005000       0x44 build/usbd_core.o
                0x0000000008005000                USBD_LL_SOF
 .text.USBD_LL_IsoINIncomplete
                0x0000000008005044       0x4c build/usbd_core.o
                0x0000000008005044                USBD_LL_IsoINIncomplete
 .text.USBD_LL_IsoOUTIncomplete
                0x0000000008005090       0x4c build/usbd_core.o
                0x0000000008005090                USBD_LL_IsoOUTIncomplete
 .text.USBD_LL_DevConnected
                0x00000000080050dc       0x16 build/usbd_core.o
                0x00000000080050dc                USBD_LL_DevConnected
 .text.USBD_LL_DevDisconnected
                0x00000000080050f2       0x38 build/usbd_core.o
                0x00000000080050f2                USBD_LL_DevDisconnected
 .text.SWAPBYTE
                0x000000000800512a       0x3c build/usbd_ctlreq.o
 *fill*         0x0000000008005166        0x2 
 .text.USBD_StdDevReq
                0x0000000008005168       0xdc build/usbd_ctlreq.o
                0x0000000008005168                USBD_StdDevReq
 .text.USBD_StdItfReq
                0x0000000008005244       0x92 build/usbd_ctlreq.o
                0x0000000008005244                USBD_StdItfReq
 .text.USBD_StdEPReq
                0x00000000080052d6      0x2c4 build/usbd_ctlreq.o
                0x00000000080052d6                USBD_StdEPReq
 *fill*         0x000000000800559a        0x2 
 .text.USBD_GetDescriptor
                0x000000000800559c      0x2d4 build/usbd_ctlreq.o
 .text.USBD_SetAddress
                0x0000000008005870       0x88 build/usbd_ctlreq.o
 .text.USBD_SetConfig
                0x00000000080058f8      0x14c build/usbd_ctlreq.o
 .text.USBD_GetConfig
                0x0000000008005a44       0x6c build/usbd_ctlreq.o
 .text.USBD_GetStatus
                0x0000000008005ab0       0x68 build/usbd_ctlreq.o
 .text.USBD_SetFeature
                0x0000000008005b18       0x28 build/usbd_ctlreq.o
 .text.USBD_ClrFeature
                0x0000000008005b40       0x44 build/usbd_ctlreq.o
 .text.USBD_ParseSetupRequest
                0x0000000008005b84       0x74 build/usbd_ctlreq.o
                0x0000000008005b84                USBD_ParseSetupRequest
 .text.USBD_CtlError
                0x0000000008005bf8       0x22 build/usbd_ctlreq.o
                0x0000000008005bf8                USBD_CtlError
 .text.USBD_GetString
                0x0000000008005c1a       0x8c build/usbd_ctlreq.o
                0x0000000008005c1a                USBD_GetString
 .text.USBD_GetLen
                0x0000000008005ca6       0x34 build/usbd_ctlreq.o
 .text.USBD_CtlSendData
                0x0000000008005cda       0x36 build/usbd_ioreq.o
                0x0000000008005cda                USBD_CtlSendData
 .text.USBD_CtlContinueSendData
                0x0000000008005d10       0x22 build/usbd_ioreq.o
                0x0000000008005d10                USBD_CtlContinueSendData
 .text.USBD_CtlPrepareRx
                0x0000000008005d32       0x3a build/usbd_ioreq.o
                0x0000000008005d32                USBD_CtlPrepareRx
 .text.USBD_CtlContinueRx
                0x0000000008005d6c       0x22 build/usbd_ioreq.o
                0x0000000008005d6c                USBD_CtlContinueRx
 .text.USBD_CtlSendStatus
                0x0000000008005d8e       0x26 build/usbd_ioreq.o
                0x0000000008005d8e                USBD_CtlSendStatus
 .text.USBD_CtlReceiveStatus
                0x0000000008005db4       0x26 build/usbd_ioreq.o
                0x0000000008005db4                USBD_CtlReceiveStatus
 .text.USBD_CDC_Init
                0x0000000008005dda       0xfe build/usbd_cdc.o
 .text.USBD_CDC_DeInit
                0x0000000008005ed8       0x74 build/usbd_cdc.o
 .text.USBD_CDC_Setup
                0x0000000008005f4c      0x18c build/usbd_cdc.o
 .text.USBD_CDC_DataIn
                0x00000000080060d8       0xca build/usbd_cdc.o
 .text.USBD_CDC_DataOut
                0x00000000080061a2       0x56 build/usbd_cdc.o
 .text.USBD_CDC_EP0_RxReady
                0x00000000080061f8       0x5a build/usbd_cdc.o
 *fill*         0x0000000008006252        0x2 
 .text.USBD_CDC_GetFSCfgDesc
                0x0000000008006254       0x20 build/usbd_cdc.o
 .text.USBD_CDC_GetHSCfgDesc
                0x0000000008006274       0x20 build/usbd_cdc.o
 .text.USBD_CDC_GetOtherSpeedCfgDesc
                0x0000000008006294       0x20 build/usbd_cdc.o
 .text.USBD_CDC_GetDeviceQualifierDescriptor
                0x00000000080062b4       0x20 build/usbd_cdc.o
                0x00000000080062b4                USBD_CDC_GetDeviceQualifierDescriptor
 .text.USBD_CDC_RegisterInterface
                0x00000000080062d4       0x2a build/usbd_cdc.o
                0x00000000080062d4                USBD_CDC_RegisterInterface
 .text.USBD_CDC_SetTxBuffer
                0x00000000080062fe       0x3c build/usbd_cdc.o
                0x00000000080062fe                USBD_CDC_SetTxBuffer
 .text.USBD_CDC_SetRxBuffer
                0x000000000800633a       0x32 build/usbd_cdc.o
                0x000000000800633a                USBD_CDC_SetRxBuffer
 .text.USBD_CDC_ReceivePacket
                0x000000000800636c       0x54 build/usbd_cdc.o
                0x000000000800636c                USBD_CDC_ReceivePacket
 .text.Reset_Handler
                0x00000000080063c0       0x50 build/startup_stm32f407xx.o
                0x00000000080063c0                Reset_Handler
 .text.Default_Handler
                0x0000000008006410        0x2 build/startup_stm32f407xx.o
                0x0000000008006410                DMA1_Stream3_IRQHandler
                0x0000000008006410                HASH_RNG_IRQHandler
                0x0000000008006410                EXTI2_IRQHandler
                0x0000000008006410                TIM8_CC_IRQHandler
                0x0000000008006410                TIM1_CC_IRQHandler
                0x0000000008006410                DMA2_Stream5_IRQHandler
                0x0000000008006410                DMA1_Stream5_IRQHandler
                0x0000000008006410                PVD_IRQHandler
                0x0000000008006410                SDIO_IRQHandler
                0x0000000008006410                TAMP_STAMP_IRQHandler
                0x0000000008006410                CAN2_RX1_IRQHandler
                0x0000000008006410                EXTI3_IRQHandler
                0x0000000008006410                TIM8_TRG_COM_TIM14_IRQHandler
                0x0000000008006410                TIM1_UP_TIM10_IRQHandler
                0x0000000008006410                TIM8_UP_TIM13_IRQHandler
                0x0000000008006410                I2C3_ER_IRQHandler
                0x0000000008006410                EXTI0_IRQHandler
                0x0000000008006410                I2C2_EV_IRQHandler
                0x0000000008006410                DMA1_Stream2_IRQHandler
                0x0000000008006410                CAN1_RX0_IRQHandler
                0x0000000008006410                FPU_IRQHandler
                0x0000000008006410                OTG_HS_WKUP_IRQHandler
                0x0000000008006410                CAN2_SCE_IRQHandler
                0x0000000008006410                DMA2_Stream2_IRQHandler
                0x0000000008006410                SPI1_IRQHandler
                0x0000000008006410                TIM6_DAC_IRQHandler
                0x0000000008006410                TIM1_BRK_TIM9_IRQHandler
                0x0000000008006410                DCMI_IRQHandler
                0x0000000008006410                CAN2_RX0_IRQHandler
                0x0000000008006410                DMA2_Stream3_IRQHandler
                0x0000000008006410                USART6_IRQHandler
                0x0000000008006410                USART3_IRQHandler
                0x0000000008006410                CAN1_RX1_IRQHandler
                0x0000000008006410                UART5_IRQHandler
                0x0000000008006410                DMA2_Stream0_IRQHandler
                0x0000000008006410                TIM4_IRQHandler
                0x0000000008006410                I2C1_EV_IRQHandler
                0x0000000008006410                DMA1_Stream6_IRQHandler
                0x0000000008006410                DMA1_Stream1_IRQHandler
                0x0000000008006410                UART4_IRQHandler
                0x0000000008006410                TIM3_IRQHandler
                0x0000000008006410                RCC_IRQHandler
                0x0000000008006410                TIM8_BRK_TIM12_IRQHandler
                0x0000000008006410                Default_Handler
                0x0000000008006410                EXTI15_10_IRQHandler
                0x0000000008006410                ADC_IRQHandler
                0x0000000008006410                DMA1_Stream7_IRQHandler
                0x0000000008006410                TIM7_IRQHandler
                0x0000000008006410                CAN2_TX_IRQHandler
                0x0000000008006410                TIM5_IRQHandler
                0x0000000008006410                DMA2_Stream7_IRQHandler
                0x0000000008006410                I2C3_EV_IRQHandler
                0x0000000008006410                EXTI9_5_IRQHandler
                0x0000000008006410                RTC_WKUP_IRQHandler
                0x0000000008006410                ETH_WKUP_IRQHandler
                0x0000000008006410                SPI2_IRQHandler
                0x0000000008006410                OTG_HS_EP1_IN_IRQHandler
                0x0000000008006410                DMA1_Stream0_IRQHandler
                0x0000000008006410                CAN1_TX_IRQHandler
                0x0000000008006410                EXTI4_IRQHandler
                0x0000000008006410                FSMC_IRQHandler
                0x0000000008006410                ETH_IRQHandler
                0x0000000008006410                OTG_HS_EP1_OUT_IRQHandler
                0x0000000008006410                WWDG_IRQHandler
                0x0000000008006410                TIM2_IRQHandler
                0x0000000008006410                OTG_FS_WKUP_IRQHandler
                0x0000000008006410                TIM1_TRG_COM_TIM11_IRQHandler
                0x0000000008006410                OTG_HS_IRQHandler
                0x0000000008006410                EXTI1_IRQHandler
                0x0000000008006410                USART2_IRQHandler
                0x0000000008006410                I2C2_ER_IRQHandler
                0x0000000008006410                DMA2_Stream1_IRQHandler
                0x0000000008006410                CAN1_SCE_IRQHandler
                0x0000000008006410                FLASH_IRQHandler
                0x0000000008006410                DMA2_Stream4_IRQHandler
                0x0000000008006410                USART1_IRQHandler
                0x0000000008006410                SPI3_IRQHandler
                0x0000000008006410                DMA1_Stream4_IRQHandler
                0x0000000008006410                I2C1_ER_IRQHandler
                0x0000000008006410                DMA2_Stream6_IRQHandler
                0x0000000008006410                RTC_Alarm_IRQHandler
 *fill*         0x0000000008006412        0x2 
 .text.__libc_init_array
                0x0000000008006414       0x48 /usr/local/Cellar/arm-none-eabi-gcc/9-2019-q4-major/gcc/bin/../lib/gcc/arm-none-eabi/9.2.1/../../../../arm-none-eabi/lib/thumb/v7e-m+fp/softfp/libc_nano.a(lib_a-init.o)
                0x0000000008006414                __libc_init_array
 .text.malloc   0x000000000800645c       0x10 /usr/local/Cellar/arm-none-eabi-gcc/9-2019-q4-major/gcc/bin/../lib/gcc/arm-none-eabi/9.2.1/../../../../arm-none-eabi/lib/thumb/v7e-m+fp/softfp/libc_nano.a(lib_a-malloc.o)
                0x000000000800645c                malloc
 .text.memset   0x000000000800646c       0x10 /usr/local/Cellar/arm-none-eabi-gcc/9-2019-q4-major/gcc/bin/../lib/gcc/arm-none-eabi/9.2.1/../../../../arm-none-eabi/lib/thumb/v7e-m+fp/softfp/libc_nano.a(lib_a-memset.o)
                0x000000000800646c                memset
 .text._free_r  0x000000000800647c       0xa0 /usr/local/Cellar/arm-none-eabi-gcc/9-2019-q4-major/gcc/bin/../lib/gcc/arm-none-eabi/9.2.1/../../../../arm-none-eabi/lib/thumb/v7e-m+fp/softfp/libc_nano.a(lib_a-nano-freer.o)
                0x000000000800647c                _free_r
 .text._malloc_r
                0x000000000800651c       0xb4 /usr/local/Cellar/arm-none-eabi-gcc/9-2019-q4-major/gcc/bin/../lib/gcc/arm-none-eabi/9.2.1/../../../../arm-none-eabi/lib/thumb/v7e-m+fp/softfp/libc_nano.a(lib_a-nano-mallocr.o)
                0x000000000800651c                _malloc_r
 .text._sbrk_r  0x00000000080065d0       0x20 /usr/local/Cellar/arm-none-eabi-gcc/9-2019-q4-major/gcc/bin/../lib/gcc/arm-none-eabi/9.2.1/../../../../arm-none-eabi/lib/thumb/v7e-m+fp/softfp/libc_nano.a(lib_a-sbrkr.o)
                0x00000000080065d0                _sbrk_r
 .text.sprintf  0x00000000080065f0       0x40 /usr/local/Cellar/arm-none-eabi-gcc/9-2019-q4-major/gcc/bin/../lib/gcc/arm-none-eabi/9.2.1/../../../../arm-none-eabi/lib/thumb/v7e-m+fp/softfp/libc_nano.a(lib_a-sprintf.o)
                0x00000000080065f0                sprintf
                0x00000000080065f0                siprintf
 .text.__malloc_lock
                0x0000000008006630        0xc /usr/local/Cellar/arm-none-eabi-gcc/9-2019-q4-major/gcc/bin/../lib/gcc/arm-none-eabi/9.2.1/../../../../arm-none-eabi/lib/thumb/v7e-m+fp/softfp/libc_nano.a(lib_a-mlock.o)
                0x0000000008006630                __malloc_lock
 .text.__malloc_unlock
                0x000000000800663c        0xc /usr/local/Cellar/arm-none-eabi-gcc/9-2019-q4-major/gcc/bin/../lib/gcc/arm-none-eabi/9.2.1/../../../../arm-none-eabi/lib/thumb/v7e-m+fp/softfp/libc_nano.a(lib_a-mlock.o)
                0x000000000800663c                __malloc_unlock
 .text.__ssputs_r
                0x0000000008006648       0xb6 /usr/local/Cellar/arm-none-eabi-gcc/9-2019-q4-major/gcc/bin/../lib/gcc/arm-none-eabi/9.2.1/../../../../arm-none-eabi/lib/thumb/v7e-m+fp/softfp/libc_nano.a(lib_a-nano-svfprintf.o)
                0x0000000008006648                __ssputs_r
 *fill*         0x00000000080066fe        0x2 
 .text._svfprintf_r
                0x0000000008006700      0x200 /usr/local/Cellar/arm-none-eabi-gcc/9-2019-q4-major/gcc/bin/../lib/gcc/arm-none-eabi/9.2.1/../../../../arm-none-eabi/lib/thumb/v7e-m+fp/softfp/libc_nano.a(lib_a-nano-svfprintf.o)
                0x0000000008006700                _svfprintf_r
                0x0000000008006700                _svfiprintf_r
 .text._printf_common
                0x0000000008006900       0xda /usr/local/Cellar/arm-none-eabi-gcc/9-2019-q4-major/gcc/bin/../lib/gcc/arm-none-eabi/9.2.1/../../../../arm-none-eabi/lib/thumb/v7e-m+fp/softfp/libc_nano.a(lib_a-nano-vfprintf_i.o)
                0x0000000008006900                _printf_common
 *fill*         0x00000000080069da        0x2 
 .text._printf_i
                0x00000000080069dc      0x24c /usr/local/Cellar/arm-none-eabi-gcc/9-2019-q4-major/gcc/bin/../lib/gcc/arm-none-eabi/9.2.1/../../../../arm-none-eabi/lib/thumb/v7e-m+fp/softfp/libc_nano.a(lib_a-nano-vfprintf_i.o)
                0x00000000080069dc                _printf_i
 .text.__retarget_lock_acquire_recursive
                0x0000000008006c28        0x2 /usr/local/Cellar/arm-none-eabi-gcc/9-2019-q4-major/gcc/bin/../lib/gcc/arm-none-eabi/9.2.1/../../../../arm-none-eabi/lib/thumb/v7e-m+fp/softfp/libc_nano.a(lib_a-lock.o)
                0x0000000008006c28                __retarget_lock_acquire_recursive
 .text.__retarget_lock_release_recursive
                0x0000000008006c2a        0x2 /usr/local/Cellar/arm-none-eabi-gcc/9-2019-q4-major/gcc/bin/../lib/gcc/arm-none-eabi/9.2.1/../../../../arm-none-eabi/lib/thumb/v7e-m+fp/softfp/libc_nano.a(lib_a-lock.o)
                0x0000000008006c2a                __retarget_lock_release_recursive
 .text.memcpy   0x0000000008006c2c       0x1c /usr/local/Cellar/arm-none-eabi-gcc/9-2019-q4-major/gcc/bin/../lib/gcc/arm-none-eabi/9.2.1/../../../../arm-none-eabi/lib/thumb/v7e-m+fp/softfp/libc_nano.a(lib_a-memcpy-stub.o)
                0x0000000008006c2c                memcpy
 .text.memmove  0x0000000008006c48       0x34 /usr/local/Cellar/arm-none-eabi-gcc/9-2019-q4-major/gcc/bin/../lib/gcc/arm-none-eabi/9.2.1/../../../../arm-none-eabi/lib/thumb/v7e-m+fp/softfp/libc_nano.a(lib_a-memmove.o)
                0x0000000008006c48                memmove
 .text._realloc_r
                0x0000000008006c7c       0x4c /usr/local/Cellar/arm-none-eabi-gcc/9-2019-q4-major/gcc/bin/../lib/gcc/arm-none-eabi/9.2.1/../../../../arm-none-eabi/lib/thumb/v7e-m+fp/softfp/libc_nano.a(lib_a-nano-reallocr.o)
                0x0000000008006c7c                _realloc_r
 .text._malloc_usable_size_r
                0x0000000008006cc8       0x10 /usr/local/Cellar/arm-none-eabi-gcc/9-2019-q4-major/gcc/bin/../lib/gcc/arm-none-eabi/9.2.1/../../../../arm-none-eabi/lib/thumb/v7e-m+fp/softfp/libc_nano.a(lib_a-nano-msizer.o)
                0x0000000008006cc8                _malloc_usable_size_r
 .text._sbrk    0x0000000008006cd8       0x1c /usr/local/Cellar/arm-none-eabi-gcc/9-2019-q4-major/gcc/bin/../lib/gcc/arm-none-eabi/9.2.1/../../../../arm-none-eabi/lib/thumb/v7e-m+fp/softfp/libnosys.a(sbrk.o)
                0x0000000008006cd8                _sbrk
 .text.AES_keyschedule_enc_LL
                0x0000000008006cf4      0x174 Middlewares/ST/STM32_Cryptographic/Lib/libSTM32CryptographicV3.0.0_CM4_GCC.a(crypto.o)
 .text.AES_keyschedule_enc
                0x0000000008006e68       0x22 Middlewares/ST/STM32_Cryptographic/Lib/libSTM32CryptographicV3.0.0_CM4_GCC.a(crypto.o)
                0x0000000008006e68                AES_keyschedule_enc
 *fill*         0x0000000008006e8a        0x2 
 .text.AES_general_SW_enc
                0x0000000008006e8c      0x2b4 Middlewares/ST/STM32_Cryptographic/Lib/libSTM32CryptographicV3.0.0_CM4_GCC.a(crypto.o)
                0x0000000008006e8c                AES_general_SW_enc
 .text.AES_keyschedule_dec
                0x0000000008007140       0xfc Middlewares/ST/STM32_Cryptographic/Lib/libSTM32CryptographicV3.0.0_CM4_GCC.a(crypto.o)
                0x0000000008007140                AES_keyschedule_dec
 .text.AESstdInit
                0x000000000800723c       0xd8 Middlewares/ST/STM32_Cryptographic/Lib/libSTM32CryptographicV3.0.0_CM4_GCC.a(crypto.o)
 .text.AES_CBC_Encrypt_Init
                0x0000000008007314        0x6 Middlewares/ST/STM32_Cryptographic/Lib/libSTM32CryptographicV3.0.0_CM4_GCC.a(crypto.o)
                0x0000000008007314                AES_CBC_Encrypt_Init
 .text.AES_CBC_Encrypt_Append
                0x000000000800731a      0x19a Middlewares/ST/STM32_Cryptographic/Lib/libSTM32CryptographicV3.0.0_CM4_GCC.a(crypto.o)
                0x000000000800731a                AES_CBC_Encrypt_Append
 .text.AES_CBC_Encrypt_Finish
                0x00000000080074b4       0x18 Middlewares/ST/STM32_Cryptographic/Lib/libSTM32CryptographicV3.0.0_CM4_GCC.a(crypto.o)
                0x00000000080074b4                AES_CBC_Encrypt_Finish
 *(.glue_7)
 .glue_7        0x00000000080074cc        0x0 linker stubs
 *(.glue_7t)
 .glue_7t       0x00000000080074cc        0x0 linker stubs
 *(.eh_frame)
 .eh_frame      0x00000000080074cc        0x0 /usr/local/Cellar/arm-none-eabi-gcc/9-2019-q4-major/gcc/bin/../lib/gcc/arm-none-eabi/9.2.1/thumb/v7e-m+fp/softfp/crtbegin.o
 *(.init)
 .init          0x00000000080074cc        0x4 /usr/local/Cellar/arm-none-eabi-gcc/9-2019-q4-major/gcc/bin/../lib/gcc/arm-none-eabi/9.2.1/thumb/v7e-m+fp/softfp/crti.o
                0x00000000080074cc                _init
 .init          0x00000000080074d0        0x8 /usr/local/Cellar/arm-none-eabi-gcc/9-2019-q4-major/gcc/bin/../lib/gcc/arm-none-eabi/9.2.1/thumb/v7e-m+fp/softfp/crtn.o
 *(.fini)
 .fini          0x00000000080074d8        0x4 /usr/local/Cellar/arm-none-eabi-gcc/9-2019-q4-major/gcc/bin/../lib/gcc/arm-none-eabi/9.2.1/thumb/v7e-m+fp/softfp/crti.o
                0x00000000080074d8                _fini
 .fini          0x00000000080074dc        0x8 /usr/local/Cellar/arm-none-eabi-gcc/9-2019-q4-major/gcc/bin/../lib/gcc/arm-none-eabi/9.2.1/thumb/v7e-m+fp/softfp/crtn.o
                0x00000000080074e4                . = ALIGN (0x4)
                0x00000000080074e4                _etext = .

.vfp11_veneer   0x00000000080074e4        0x0
 .vfp11_veneer  0x00000000080074e4        0x0 linker stubs

.v4_bx          0x00000000080074e4        0x0
 .v4_bx         0x00000000080074e4        0x0 linker stubs

.iplt           0x00000000080074e4        0x0
 .iplt          0x00000000080074e4        0x0 /usr/local/Cellar/arm-none-eabi-gcc/9-2019-q4-major/gcc/bin/../lib/gcc/arm-none-eabi/9.2.1/thumb/v7e-m+fp/softfp/crtbegin.o

.rodata         0x00000000080074e4      0x9c8
                0x00000000080074e4                . = ALIGN (0x4)
 *(.rodata)
 .rodata        0x00000000080074e4        0xb build/main.o
 *fill*         0x00000000080074ef        0x1 
 .rodata        0x00000000080074f0       0x46 build/usbd_desc.o
 *(.rodata*)
 *fill*         0x0000000008007536        0x2 
 .rodata.Plaintext
                0x0000000008007538        0x6 build/main.o
                0x0000000008007538                Plaintext
 *fill*         0x000000000800753e        0x2 
 .rodata.AHBPrescTable
                0x0000000008007540       0x10 build/system_stm32f4xx.o
                0x0000000008007540                AHBPrescTable
 .rodata._svfprintf_r.str1.1
                0x0000000008007550       0x11 /usr/local/Cellar/arm-none-eabi-gcc/9-2019-q4-major/gcc/bin/../lib/gcc/arm-none-eabi/9.2.1/../../../../arm-none-eabi/lib/thumb/v7e-m+fp/softfp/libc_nano.a(lib_a-nano-svfprintf.o)
 .rodata._printf_i.str1.1
                0x0000000008007561       0x22 /usr/local/Cellar/arm-none-eabi-gcc/9-2019-q4-major/gcc/bin/../lib/gcc/arm-none-eabi/9.2.1/../../../../arm-none-eabi/lib/thumb/v7e-m+fp/softfp/libc_nano.a(lib_a-nano-vfprintf_i.o)
 *fill*         0x0000000008007583        0x1 
 .rodata.rcon   0x0000000008007584       0x28 Middlewares/ST/STM32_Cryptographic/Lib/libSTM32CryptographicV3.0.0_CM4_GCC.a(crypto.o)
                0x0000000008007584                rcon
 .rodata.dec_table
                0x00000000080075ac      0x400 Middlewares/ST/STM32_Cryptographic/Lib/libSTM32CryptographicV3.0.0_CM4_GCC.a(crypto.o)
                0x00000000080075ac                dec_table
 .rodata.enc_table
                0x00000000080079ac      0x400 Middlewares/ST/STM32_Cryptographic/Lib/libSTM32CryptographicV3.0.0_CM4_GCC.a(crypto.o)
                0x00000000080079ac                enc_table
 .rodata.Sbox   0x0000000008007dac      0x100 Middlewares/ST/STM32_Cryptographic/Lib/libSTM32CryptographicV3.0.0_CM4_GCC.a(crypto.o)
                0x0000000008007dac                Sbox
                0x0000000008007eac                . = ALIGN (0x4)

.ARM.extab
 *(.ARM.extab* .gnu.linkonce.armextab.*)

.ARM            0x0000000008007eac        0x8
                0x0000000008007eac                __exidx_start = .
 *(.ARM.exidx*)
 .ARM.exidx     0x0000000008007eac        0x8 /usr/local/Cellar/arm-none-eabi-gcc/9-2019-q4-major/gcc/bin/../lib/gcc/arm-none-eabi/9.2.1/thumb/v7e-m+fp/softfp/libgcc.a(_udivmoddi4.o)
                0x0000000008007eb4                __exidx_end = .

.rel.dyn        0x0000000008007eb4        0x0
 .rel.iplt      0x0000000008007eb4        0x0 /usr/local/Cellar/arm-none-eabi-gcc/9-2019-q4-major/gcc/bin/../lib/gcc/arm-none-eabi/9.2.1/thumb/v7e-m+fp/softfp/crtbegin.o

.preinit_array  0x0000000008007eb4        0x0
                0x0000000008007eb4                PROVIDE (__preinit_array_start = .)
 *(.preinit_array*)
                0x0000000008007eb4                PROVIDE (__preinit_array_end = .)

.init_array     0x0000000008007eb4        0x4
                0x0000000008007eb4                PROVIDE (__init_array_start = .)
 *(SORT_BY_NAME(.init_array.*))
 *(.init_array*)
 .init_array    0x0000000008007eb4        0x4 /usr/local/Cellar/arm-none-eabi-gcc/9-2019-q4-major/gcc/bin/../lib/gcc/arm-none-eabi/9.2.1/thumb/v7e-m+fp/softfp/crtbegin.o
                0x0000000008007eb8                PROVIDE (__init_array_end = .)

.fini_array     0x0000000008007eb8        0x4
                [!provide]                        PROVIDE (__fini_array_start = .)
 *(SORT_BY_NAME(.fini_array.*))
 *(.fini_array*)
 .fini_array    0x0000000008007eb8        0x4 /usr/local/Cellar/arm-none-eabi-gcc/9-2019-q4-major/gcc/bin/../lib/gcc/arm-none-eabi/9.2.1/thumb/v7e-m+fp/softfp/crtbegin.o
                [!provide]                        PROVIDE (__fini_array_end = .)
                0x0000000008007ebc                _sidata = LOADADDR (.data)

.data           0x0000000020000000      0x20c load address 0x0000000008007ebc
                0x0000000020000000                . = ALIGN (0x4)
                0x0000000020000000                _sdata = .
 *(.data)
 *(.data*)
 .data.Key      0x0000000020000000       0x18 build/main.o
                0x0000000020000000                Key
 .data.IV       0x0000000020000018       0x10 build/main.o
                0x0000000020000018                IV
 .data.FS_Desc  0x0000000020000028       0x1c build/usbd_desc.o
                0x0000000020000028                FS_Desc
 .data.USBD_FS_DeviceDesc
                0x0000000020000044       0x12 build/usbd_desc.o
                0x0000000020000044                USBD_FS_DeviceDesc
 *fill*         0x0000000020000056        0x2 
 .data.USBD_LangIDDesc
                0x0000000020000058        0x4 build/usbd_desc.o
                0x0000000020000058                USBD_LangIDDesc
 .data.USBD_StringSerial
                0x000000002000005c       0x1a build/usbd_desc.o
                0x000000002000005c                USBD_StringSerial
 *fill*         0x0000000020000076        0x2 
 .data.USBD_Interface_fops_FS
                0x0000000020000078       0x14 build/usbd_cdc_if.o
                0x0000000020000078                USBD_Interface_fops_FS
 .data.uwTickPrio
                0x000000002000008c        0x4 build/stm32f4xx_hal.o
                0x000000002000008c                uwTickPrio
 .data.uwTickFreq
                0x0000000020000090        0x1 build/stm32f4xx_hal.o
                0x0000000020000090                uwTickFreq
 *fill*         0x0000000020000091        0x3 
 .data.SystemCoreClock
                0x0000000020000094        0x4 build/system_stm32f4xx.o
                0x0000000020000094                SystemCoreClock
 .data.USBD_CDC_DeviceQualifierDesc
                0x0000000020000098        0xa build/usbd_cdc.o
 *fill*         0x00000000200000a2        0x2 
 .data.USBD_CDC
                0x00000000200000a4       0x38 build/usbd_cdc.o
                0x00000000200000a4                USBD_CDC
 .data.USBD_CDC_CfgHSDesc
                0x00000000200000dc       0x43 build/usbd_cdc.o
 *fill*         0x000000002000011f        0x1 
 .data.USBD_CDC_CfgFSDesc
                0x0000000020000120       0x43 build/usbd_cdc.o
 *fill*         0x0000000020000163        0x1 
 .data.USBD_CDC_OtherSpeedCfgDesc
                0x0000000020000164       0x43 build/usbd_cdc.o
 *fill*         0x00000000200001a7        0x1 
 .data._impure_ptr
                0x00000000200001a8        0x4 /usr/local/Cellar/arm-none-eabi-gcc/9-2019-q4-major/gcc/bin/../lib/gcc/arm-none-eabi/9.2.1/../../../../arm-none-eabi/lib/thumb/v7e-m+fp/softfp/libc_nano.a(lib_a-impure.o)
                0x00000000200001a8                _impure_ptr
 .data.impure_data
                0x00000000200001ac       0x60 /usr/local/Cellar/arm-none-eabi-gcc/9-2019-q4-major/gcc/bin/../lib/gcc/arm-none-eabi/9.2.1/../../../../arm-none-eabi/lib/thumb/v7e-m+fp/softfp/libc_nano.a(lib_a-impure.o)
                0x000000002000020c                . = ALIGN (0x4)
                0x000000002000020c                _edata = .
                0x00000000080080c8                _siccmram = LOADADDR (.ccmram)

.igot.plt       0x000000002000020c        0x0 load address 0x00000000080080c8
 .igot.plt      0x000000002000020c        0x0 /usr/local/Cellar/arm-none-eabi-gcc/9-2019-q4-major/gcc/bin/../lib/gcc/arm-none-eabi/9.2.1/thumb/v7e-m+fp/softfp/crtbegin.o

.ccmram         0x0000000010000000        0x0 load address 0x00000000080080c8
                0x0000000010000000                . = ALIGN (0x4)
                0x0000000010000000                _sccmram = .
 *(.ccmram)
 *(.ccmram*)
                0x0000000010000000                . = ALIGN (0x4)
                0x0000000010000000                _eccmram = .
                0x0000000010000000                . = ALIGN (0x4)

.bss            0x000000002000020c     0x1b44
                0x000000002000020c                _sbss = .
                0x000000002000020c                __bss_start__ = _sbss
 *(.bss)
 .bss           0x000000002000020c       0x1c /usr/local/Cellar/arm-none-eabi-gcc/9-2019-q4-major/gcc/bin/../lib/gcc/arm-none-eabi/9.2.1/thumb/v7e-m+fp/softfp/crtbegin.o
 *(.bss*)
 .bss.OutputMessageLength
                0x0000000020000228        0x4 build/main.o
                0x0000000020000228                OutputMessageLength
 .bss.mem.9970  0x000000002000022c      0x220 build/usbd_conf.o
 .bss.cfgidx.9901
                0x000000002000044c        0x1 build/usbd_ctlreq.o
 *fill*         0x000000002000044d        0x3 
 .bss.__malloc_free_list
                0x0000000020000450        0x4 /usr/local/Cellar/arm-none-eabi-gcc/9-2019-q4-major/gcc/bin/../lib/gcc/arm-none-eabi/9.2.1/../../../../arm-none-eabi/lib/thumb/v7e-m+fp/softfp/libc_nano.a(lib_a-nano-mallocr.o)
                0x0000000020000450                __malloc_free_list
 .bss.__malloc_sbrk_start
                0x0000000020000454        0x4 /usr/local/Cellar/arm-none-eabi-gcc/9-2019-q4-major/gcc/bin/../lib/gcc/arm-none-eabi/9.2.1/../../../../arm-none-eabi/lib/thumb/v7e-m+fp/softfp/libc_nano.a(lib_a-nano-mallocr.o)
                0x0000000020000454                __malloc_sbrk_start
 .bss.heap_end.5507
                0x0000000020000458        0x4 /usr/local/Cellar/arm-none-eabi-gcc/9-2019-q4-major/gcc/bin/../lib/gcc/arm-none-eabi/9.2.1/../../../../arm-none-eabi/lib/thumb/v7e-m+fp/softfp/libnosys.a(sbrk.o)
 *(COMMON)
 COMMON         0x000000002000045c        0x6 build/main.o
                0x000000002000045c                OutputMessage
 *fill*         0x0000000020000462        0x2 
 COMMON         0x0000000020000464      0x2d0 build/usb_device.o
                0x0000000020000464                hUsbDeviceFS
 COMMON         0x0000000020000734      0x200 build/usbd_desc.o
                0x0000000020000734                USBD_StrDesc
 COMMON         0x0000000020000934     0x1000 build/usbd_cdc_if.o
                0x0000000020000934                UserRxBufferFS
                0x0000000020001134                UserTxBufferFS
 COMMON         0x0000000020001934      0x408 build/usbd_conf.o
                0x0000000020001934                hpcd_USB_OTG_FS
 COMMON         0x0000000020001d3c        0x4 build/stm32f4xx_hal.o
                0x0000000020001d3c                uwTick
 COMMON         0x0000000020001d40        0x4 /usr/local/Cellar/arm-none-eabi-gcc/9-2019-q4-major/gcc/bin/../lib/gcc/arm-none-eabi/9.2.1/../../../../arm-none-eabi/lib/thumb/v7e-m+fp/softfp/libc_nano.a(lib_a-reent.o)
                0x0000000020001d40                errno
 COMMON         0x0000000020001d44        0x9 /usr/local/Cellar/arm-none-eabi-gcc/9-2019-q4-major/gcc/bin/../lib/gcc/arm-none-eabi/9.2.1/../../../../arm-none-eabi/lib/thumb/v7e-m+fp/softfp/libc_nano.a(lib_a-lock.o)
                0x0000000020001d44                __lock___atexit_recursive_mutex
                0x0000000020001d45                __lock___arc4random_mutex
                0x0000000020001d46                __lock___env_recursive_mutex
                0x0000000020001d47                __lock___sinit_recursive_mutex
                0x0000000020001d48                __lock___malloc_recursive_mutex
                0x0000000020001d49                __lock___at_quick_exit_mutex
                0x0000000020001d4a                __lock___dd_hash_mutex
                0x0000000020001d4b                __lock___tz_mutex
                0x0000000020001d4c                __lock___sfp_recursive_mutex
                0x0000000020001d50                . = ALIGN (0x4)
 *fill*         0x0000000020001d4d        0x3 
                0x0000000020001d50                _ebss = .
                0x0000000020001d50                __bss_end__ = _ebss

._user_heap_stack
                0x0000000020001d50      0x600
                0x0000000020001d50                . = ALIGN (0x8)
                0x0000000020001d50                PROVIDE (end = .)
                [!provide]                        PROVIDE (_end = .)
                0x0000000020001f50                . = (. + _Min_Heap_Size)
 *fill*         0x0000000020001d50      0x200 
                0x0000000020002350                . = (. + _Min_Stack_Size)
 *fill*         0x0000000020001f50      0x400 
                0x0000000020002350                . = ALIGN (0x8)

/DISCARD/
 libc.a(*)
 libm.a(*)
 libgcc.a(*)

.ARM.attributes
                0x0000000000000000       0x2e
 *(.ARM.attributes)
 .ARM.attributes
                0x0000000000000000       0x1e /usr/local/Cellar/arm-none-eabi-gcc/9-2019-q4-major/gcc/bin/../lib/gcc/arm-none-eabi/9.2.1/thumb/v7e-m+fp/softfp/crti.o
 .ARM.attributes
                0x000000000000001e       0x32 /usr/local/Cellar/arm-none-eabi-gcc/9-2019-q4-major/gcc/bin/../lib/gcc/arm-none-eabi/9.2.1/thumb/v7e-m+fp/softfp/crtbegin.o
 .ARM.attributes
                0x0000000000000050       0x32 build/main.o
 .ARM.attributes
                0x0000000000000082       0x32 build/stm32f4xx_it.o
 .ARM.attributes
                0x00000000000000b4       0x32 build/stm32f4xx_hal_msp.o
 .ARM.attributes
                0x00000000000000e6       0x32 build/usb_device.o
 .ARM.attributes
                0x0000000000000118       0x32 build/usbd_desc.o
 .ARM.attributes
                0x000000000000014a       0x32 build/usbd_cdc_if.o
 .ARM.attributes
                0x000000000000017c       0x32 build/usbd_conf.o
 .ARM.attributes
                0x00000000000001ae       0x32 build/stm32f4xx_hal_pcd.o
 .ARM.attributes
                0x00000000000001e0       0x32 build/stm32f4xx_hal_pcd_ex.o
 .ARM.attributes
                0x0000000000000212       0x32 build/stm32f4xx_ll_usb.o
 .ARM.attributes
                0x0000000000000244       0x32 build/stm32f4xx_hal_rcc.o
 .ARM.attributes
                0x0000000000000276       0x32 build/stm32f4xx_hal_gpio.o
 .ARM.attributes
                0x00000000000002a8       0x32 build/stm32f4xx_hal_cortex.o
 .ARM.attributes
                0x00000000000002da       0x32 build/stm32f4xx_hal.o
 .ARM.attributes
                0x000000000000030c       0x32 build/system_stm32f4xx.o
 .ARM.attributes
                0x000000000000033e       0x32 build/usbd_core.o
 .ARM.attributes
                0x0000000000000370       0x32 build/usbd_ctlreq.o
 .ARM.attributes
                0x00000000000003a2       0x32 build/usbd_ioreq.o
 .ARM.attributes
                0x00000000000003d4       0x32 build/usbd_cdc.o
 .ARM.attributes
                0x0000000000000406       0x21 build/startup_stm32f407xx.o
 .ARM.attributes
                0x0000000000000427       0x30 /usr/local/Cellar/arm-none-eabi-gcc/9-2019-q4-major/gcc/bin/../lib/gcc/arm-none-eabi/9.2.1/../../../../arm-none-eabi/lib/thumb/v7e-m+fp/softfp/libc_nano.a(lib_a-impure.o)
 .ARM.attributes
                0x0000000000000457       0x32 /usr/local/Cellar/arm-none-eabi-gcc/9-2019-q4-major/gcc/bin/../lib/gcc/arm-none-eabi/9.2.1/../../../../arm-none-eabi/lib/thumb/v7e-m+fp/softfp/libc_nano.a(lib_a-init.o)
 .ARM.attributes
                0x0000000000000489       0x32 /usr/local/Cellar/arm-none-eabi-gcc/9-2019-q4-major/gcc/bin/../lib/gcc/arm-none-eabi/9.2.1/../../../../arm-none-eabi/lib/thumb/v7e-m+fp/softfp/libc_nano.a(lib_a-malloc.o)
 .ARM.attributes
                0x00000000000004bb       0x32 /usr/local/Cellar/arm-none-eabi-gcc/9-2019-q4-major/gcc/bin/../lib/gcc/arm-none-eabi/9.2.1/../../../../arm-none-eabi/lib/thumb/v7e-m+fp/softfp/libc_nano.a(lib_a-memset.o)
 .ARM.attributes
                0x00000000000004ed       0x32 /usr/local/Cellar/arm-none-eabi-gcc/9-2019-q4-major/gcc/bin/../lib/gcc/arm-none-eabi/9.2.1/../../../../arm-none-eabi/lib/thumb/v7e-m+fp/softfp/libc_nano.a(lib_a-nano-freer.o)
 .ARM.attributes
                0x000000000000051f       0x32 /usr/local/Cellar/arm-none-eabi-gcc/9-2019-q4-major/gcc/bin/../lib/gcc/arm-none-eabi/9.2.1/../../../../arm-none-eabi/lib/thumb/v7e-m+fp/softfp/libc_nano.a(lib_a-nano-mallocr.o)
 .ARM.attributes
                0x0000000000000551       0x32 /usr/local/Cellar/arm-none-eabi-gcc/9-2019-q4-major/gcc/bin/../lib/gcc/arm-none-eabi/9.2.1/../../../../arm-none-eabi/lib/thumb/v7e-m+fp/softfp/libc_nano.a(lib_a-sbrkr.o)
 .ARM.attributes
                0x0000000000000583       0x32 /usr/local/Cellar/arm-none-eabi-gcc/9-2019-q4-major/gcc/bin/../lib/gcc/arm-none-eabi/9.2.1/../../../../arm-none-eabi/lib/thumb/v7e-m+fp/softfp/libc_nano.a(lib_a-sprintf.o)
 .ARM.attributes
                0x00000000000005b5       0x32 /usr/local/Cellar/arm-none-eabi-gcc/9-2019-q4-major/gcc/bin/../lib/gcc/arm-none-eabi/9.2.1/../../../../arm-none-eabi/lib/thumb/v7e-m+fp/softfp/libc_nano.a(lib_a-mlock.o)
 .ARM.attributes
                0x00000000000005e7       0x32 /usr/local/Cellar/arm-none-eabi-gcc/9-2019-q4-major/gcc/bin/../lib/gcc/arm-none-eabi/9.2.1/../../../../arm-none-eabi/lib/thumb/v7e-m+fp/softfp/libc_nano.a(lib_a-nano-svfprintf.o)
 .ARM.attributes
                0x0000000000000619       0x32 /usr/local/Cellar/arm-none-eabi-gcc/9-2019-q4-major/gcc/bin/../lib/gcc/arm-none-eabi/9.2.1/../../../../arm-none-eabi/lib/thumb/v7e-m+fp/softfp/libc_nano.a(lib_a-nano-vfprintf_i.o)
 .ARM.attributes
                0x000000000000064b       0x32 /usr/local/Cellar/arm-none-eabi-gcc/9-2019-q4-major/gcc/bin/../lib/gcc/arm-none-eabi/9.2.1/../../../../arm-none-eabi/lib/thumb/v7e-m+fp/softfp/libc_nano.a(lib_a-reent.o)
 .ARM.attributes
                0x000000000000067d       0x32 /usr/local/Cellar/arm-none-eabi-gcc/9-2019-q4-major/gcc/bin/../lib/gcc/arm-none-eabi/9.2.1/../../../../arm-none-eabi/lib/thumb/v7e-m+fp/softfp/libc_nano.a(lib_a-lock.o)
 .ARM.attributes
                0x00000000000006af       0x1c /usr/local/Cellar/arm-none-eabi-gcc/9-2019-q4-major/gcc/bin/../lib/gcc/arm-none-eabi/9.2.1/../../../../arm-none-eabi/lib/thumb/v7e-m+fp/softfp/libc_nano.a(lib_a-memchr.o)
 .ARM.attributes
                0x00000000000006cb       0x32 /usr/local/Cellar/arm-none-eabi-gcc/9-2019-q4-major/gcc/bin/../lib/gcc/arm-none-eabi/9.2.1/../../../../arm-none-eabi/lib/thumb/v7e-m+fp/softfp/libc_nano.a(lib_a-memcpy-stub.o)
 .ARM.attributes
                0x00000000000006fd       0x32 /usr/local/Cellar/arm-none-eabi-gcc/9-2019-q4-major/gcc/bin/../lib/gcc/arm-none-eabi/9.2.1/../../../../arm-none-eabi/lib/thumb/v7e-m+fp/softfp/libc_nano.a(lib_a-memmove.o)
 .ARM.attributes
                0x000000000000072f       0x32 /usr/local/Cellar/arm-none-eabi-gcc/9-2019-q4-major/gcc/bin/../lib/gcc/arm-none-eabi/9.2.1/../../../../arm-none-eabi/lib/thumb/v7e-m+fp/softfp/libc_nano.a(lib_a-nano-reallocr.o)
 .ARM.attributes
                0x0000000000000761       0x32 /usr/local/Cellar/arm-none-eabi-gcc/9-2019-q4-major/gcc/bin/../lib/gcc/arm-none-eabi/9.2.1/../../../../arm-none-eabi/lib/thumb/v7e-m+fp/softfp/libc_nano.a(lib_a-nano-msizer.o)
 .ARM.attributes
                0x0000000000000793       0x32 /usr/local/Cellar/arm-none-eabi-gcc/9-2019-q4-major/gcc/bin/../lib/gcc/arm-none-eabi/9.2.1/../../../../arm-none-eabi/lib/thumb/v7e-m+fp/softfp/libnosys.a(sbrk.o)
 .ARM.attributes
                0x00000000000007c5       0x33 Middlewares/ST/STM32_Cryptographic/Lib/libSTM32CryptographicV3.0.0_CM4_GCC.a(crypto.o)
 .ARM.attributes
                0x00000000000007f8       0x1e /usr/local/Cellar/arm-none-eabi-gcc/9-2019-q4-major/gcc/bin/../lib/gcc/arm-none-eabi/9.2.1/thumb/v7e-m+fp/softfp/libgcc.a(_aeabi_uldivmod.o)
 .ARM.attributes
                0x0000000000000816       0x32 /usr/local/Cellar/arm-none-eabi-gcc/9-2019-q4-major/gcc/bin/../lib/gcc/arm-none-eabi/9.2.1/thumb/v7e-m+fp/softfp/libgcc.a(_udivmoddi4.o)
 .ARM.attributes
                0x0000000000000848       0x1e /usr/local/Cellar/arm-none-eabi-gcc/9-2019-q4-major/gcc/bin/../lib/gcc/arm-none-eabi/9.2.1/thumb/v7e-m+fp/softfp/libgcc.a(_dvmd_tls.o)
 .ARM.attributes
                0x0000000000000866       0x1e /usr/local/Cellar/arm-none-eabi-gcc/9-2019-q4-major/gcc/bin/../lib/gcc/arm-none-eabi/9.2.1/thumb/v7e-m+fp/softfp/crtn.o
OUTPUT(build/VulnerableFirmwareF4.elf elf32-littlearm)

.debug_info     0x0000000000000000    0x144b8
 .debug_info    0x0000000000000000     0x18ae build/main.o
 .debug_info    0x00000000000018ae      0x78f build/stm32f4xx_it.o
 .debug_info    0x000000000000203d      0x3e5 build/stm32f4xx_hal_msp.o
 .debug_info    0x0000000000002422     0x117d build/usb_device.o
 .debug_info    0x000000000000359f      0xf2a build/usbd_desc.o
 .debug_info    0x00000000000044c9     0x13d5 build/usbd_cdc_if.o
 .debug_info    0x000000000000589e     0x259b build/usbd_conf.o
 .debug_info    0x0000000000007e39     0x1461 build/stm32f4xx_hal_pcd.o
 .debug_info    0x000000000000929a      0x857 build/stm32f4xx_hal_pcd_ex.o
 .debug_info    0x0000000000009af1     0x1c6e build/stm32f4xx_ll_usb.o
 .debug_info    0x000000000000b75f      0xa7a build/stm32f4xx_hal_rcc.o
 .debug_info    0x000000000000c1d9      0x8e4 build/stm32f4xx_hal_gpio.o
 .debug_info    0x000000000000cabd      0xff6 build/stm32f4xx_hal_cortex.o
 .debug_info    0x000000000000dab3      0xaa3 build/stm32f4xx_hal.o
 .debug_info    0x000000000000e556      0x625 build/system_stm32f4xx.o
 .debug_info    0x000000000000eb7b     0x1570 build/usbd_core.o
 .debug_info    0x00000000000100eb     0x151a build/usbd_ctlreq.o
 .debug_info    0x0000000000011605     0x121d build/usbd_ioreq.o
 .debug_info    0x0000000000012822     0x1c74 build/usbd_cdc.o
 .debug_info    0x0000000000014496       0x22 build/startup_stm32f407xx.o

.debug_abbrev   0x0000000000000000     0x2c9f
 .debug_abbrev  0x0000000000000000      0x2cf build/main.o
 .debug_abbrev  0x00000000000002cf      0x161 build/stm32f4xx_it.o
 .debug_abbrev  0x0000000000000430      0x11c build/stm32f4xx_hal_msp.o
 .debug_abbrev  0x000000000000054c      0x1ff build/usb_device.o
 .debug_abbrev  0x000000000000074b      0x2b6 build/usbd_desc.o
 .debug_abbrev  0x0000000000000a01      0x307 build/usbd_cdc_if.o
 .debug_abbrev  0x0000000000000d08      0x327 build/usbd_conf.o
 .debug_abbrev  0x000000000000102f      0x27d build/stm32f4xx_hal_pcd.o
 .debug_abbrev  0x00000000000012ac      0x1d8 build/stm32f4xx_hal_pcd_ex.o
 .debug_abbrev  0x0000000000001484      0x295 build/stm32f4xx_ll_usb.o
 .debug_abbrev  0x0000000000001719      0x274 build/stm32f4xx_hal_rcc.o
 .debug_abbrev  0x000000000000198d      0x1f0 build/stm32f4xx_hal_gpio.o
 .debug_abbrev  0x0000000000001b7d      0x319 build/stm32f4xx_hal_cortex.o
 .debug_abbrev  0x0000000000001e96      0x1ec build/stm32f4xx_hal.o
 .debug_abbrev  0x0000000000002082      0x144 build/system_stm32f4xx.o
 .debug_abbrev  0x00000000000021c6      0x2b2 build/usbd_core.o
 .debug_abbrev  0x0000000000002478      0x2f7 build/usbd_ctlreq.o
 .debug_abbrev  0x000000000000276f      0x225 build/usbd_ioreq.o
 .debug_abbrev  0x0000000000002994      0x2f9 build/usbd_cdc.o
 .debug_abbrev  0x0000000000002c8d       0x12 build/startup_stm32f407xx.o

.debug_loc      0x0000000000000000     0x5bad
 .debug_loc     0x0000000000000000      0x112 build/main.o
 .debug_loc     0x0000000000000112      0x200 build/stm32f4xx_it.o
 .debug_loc     0x0000000000000312       0x5c build/stm32f4xx_hal_msp.o
 .debug_loc     0x000000000000036e       0x2c build/usb_device.o
 .debug_loc     0x000000000000039a      0x2f4 build/usbd_desc.o
 .debug_loc     0x000000000000068e      0x1c8 build/usbd_cdc_if.o
 .debug_loc     0x0000000000000856      0x9e0 build/usbd_conf.o
 .debug_loc     0x0000000000001236      0xc03 build/stm32f4xx_hal_pcd.o
 .debug_loc     0x0000000000001e39      0x170 build/stm32f4xx_hal_pcd_ex.o
 .debug_loc     0x0000000000001fa9     0x1134 build/stm32f4xx_ll_usb.o
 .debug_loc     0x00000000000030dd      0x3d0 build/stm32f4xx_hal_rcc.o
 .debug_loc     0x00000000000034ad      0x2d4 build/stm32f4xx_hal_gpio.o
 .debug_loc     0x0000000000003781      0x9f4 build/stm32f4xx_hal_cortex.o
 .debug_loc     0x0000000000004175      0x720 build/stm32f4xx_hal.o
 .debug_loc     0x0000000000004895       0xa0 build/system_stm32f4xx.o
 .debug_loc     0x0000000000004935      0x67c build/usbd_core.o
 .debug_loc     0x0000000000004fb1      0x4c8 build/usbd_ctlreq.o
 .debug_loc     0x0000000000005479      0x230 build/usbd_ioreq.o
 .debug_loc     0x00000000000056a9      0x504 build/usbd_cdc.o

.debug_aranges  0x0000000000000000      0xb00
 .debug_aranges
                0x0000000000000000       0x38 build/main.o
 .debug_aranges
                0x0000000000000038       0x68 build/stm32f4xx_it.o
 .debug_aranges
                0x00000000000000a0       0x20 build/stm32f4xx_hal_msp.o
 .debug_aranges
                0x00000000000000c0       0x20 build/usb_device.o
 .debug_aranges
                0x00000000000000e0       0x60 build/usbd_desc.o
 .debug_aranges
                0x0000000000000140       0x48 build/usbd_cdc_if.o
 .debug_aranges
                0x0000000000000188      0x110 build/usbd_conf.o
 .debug_aranges
                0x0000000000000298      0x138 build/stm32f4xx_hal_pcd.o
 .debug_aranges
                0x00000000000003d0       0x38 build/stm32f4xx_hal_pcd_ex.o
 .debug_aranges
                0x0000000000000408      0x198 build/stm32f4xx_ll_usb.o
 .debug_aranges
                0x00000000000005a0       0x88 build/stm32f4xx_hal_rcc.o
 .debug_aranges
                0x0000000000000628       0x58 build/stm32f4xx_hal_gpio.o
 .debug_aranges
                0x0000000000000680      0x118 build/stm32f4xx_hal_cortex.o
 .debug_aranges
                0x0000000000000798       0xf0 build/stm32f4xx_hal.o
 .debug_aranges
                0x0000000000000888       0x28 build/system_stm32f4xx.o
 .debug_aranges
                0x00000000000008b0       0xb8 build/usbd_core.o
 .debug_aranges
                0x0000000000000968       0x90 build/usbd_ctlreq.o
 .debug_aranges
                0x00000000000009f8       0x50 build/usbd_ioreq.o
 .debug_aranges
                0x0000000000000a48       0x90 build/usbd_cdc.o
 .debug_aranges
                0x0000000000000ad8       0x28 build/startup_stm32f407xx.o

.debug_ranges   0x0000000000000000      0x9c8
 .debug_ranges  0x0000000000000000       0x28 build/main.o
 .debug_ranges  0x0000000000000028       0x58 build/stm32f4xx_it.o
 .debug_ranges  0x0000000000000080       0x10 build/stm32f4xx_hal_msp.o
 .debug_ranges  0x0000000000000090       0x10 build/usb_device.o
 .debug_ranges  0x00000000000000a0       0x50 build/usbd_desc.o
 .debug_ranges  0x00000000000000f0       0x38 build/usbd_cdc_if.o
 .debug_ranges  0x0000000000000128      0x100 build/usbd_conf.o
 .debug_ranges  0x0000000000000228      0x128 build/stm32f4xx_hal_pcd.o
 .debug_ranges  0x0000000000000350       0x28 build/stm32f4xx_hal_pcd_ex.o
 .debug_ranges  0x0000000000000378      0x188 build/stm32f4xx_ll_usb.o
 .debug_ranges  0x0000000000000500       0x78 build/stm32f4xx_hal_rcc.o
 .debug_ranges  0x0000000000000578       0x48 build/stm32f4xx_hal_gpio.o
 .debug_ranges  0x00000000000005c0      0x108 build/stm32f4xx_hal_cortex.o
 .debug_ranges  0x00000000000006c8       0xe0 build/stm32f4xx_hal.o
 .debug_ranges  0x00000000000007a8       0x18 build/system_stm32f4xx.o
 .debug_ranges  0x00000000000007c0       0xa8 build/usbd_core.o
 .debug_ranges  0x0000000000000868       0x80 build/usbd_ctlreq.o
 .debug_ranges  0x00000000000008e8       0x40 build/usbd_ioreq.o
 .debug_ranges  0x0000000000000928       0x80 build/usbd_cdc.o
 .debug_ranges  0x00000000000009a8       0x20 build/startup_stm32f407xx.o

.debug_line     0x0000000000000000     0x7c26
 .debug_line    0x0000000000000000      0x4ef build/main.o
 .debug_line    0x00000000000004ef      0x2d4 build/stm32f4xx_it.o
 .debug_line    0x00000000000007c3      0x1c8 build/stm32f4xx_hal_msp.o
 .debug_line    0x000000000000098b      0x35c build/usb_device.o
 .debug_line    0x0000000000000ce7      0x438 build/usbd_desc.o
 .debug_line    0x000000000000111f      0x3cf build/usbd_cdc_if.o
 .debug_line    0x00000000000014ee      0x7e3 build/usbd_conf.o
 .debug_line    0x0000000000001cd1      0xe48 build/stm32f4xx_hal_pcd.o
 .debug_line    0x0000000000002b19      0x2e0 build/stm32f4xx_hal_pcd_ex.o
 .debug_line    0x0000000000002df9     0x13c6 build/stm32f4xx_ll_usb.o
 .debug_line    0x00000000000041bf      0x8a4 build/stm32f4xx_hal_rcc.o
 .debug_line    0x0000000000004a63      0x66f build/stm32f4xx_hal_gpio.o
 .debug_line    0x00000000000050d2      0x7a0 build/stm32f4xx_hal_cortex.o
 .debug_line    0x0000000000005872      0x4df build/stm32f4xx_hal.o
 .debug_line    0x0000000000005d51      0x253 build/system_stm32f4xx.o
 .debug_line    0x0000000000005fa4      0x75c build/usbd_core.o
 .debug_line    0x0000000000006700      0x9dc build/usbd_ctlreq.o
 .debug_line    0x00000000000070dc      0x3b3 build/usbd_ioreq.o
 .debug_line    0x000000000000748f      0x721 build/usbd_cdc.o
 .debug_line    0x0000000000007bb0       0x76 build/startup_stm32f407xx.o

.debug_str      0x0000000000000000     0x3a53
 .debug_str     0x0000000000000000      0xe49 build/main.o
                                        0xf51 (size before relaxing)
 .debug_str     0x0000000000000e49      0x417 build/stm32f4xx_it.o
                                        0x781 (size before relaxing)
 .debug_str     0x0000000000001260       0x29 build/stm32f4xx_hal_msp.o
                                        0x450 (size before relaxing)
 .debug_str     0x0000000000001289       0x6a build/usb_device.o
                                        0xba7 (size before relaxing)
 .debug_str     0x00000000000012f3      0x172 build/usbd_desc.o
                                        0x9b8 (size before relaxing)
 .debug_str     0x0000000000001465       0xef build/usbd_cdc_if.o
                                        0xc89 (size before relaxing)
 .debug_str     0x0000000000001554      0x888 build/usbd_conf.o
                                       0x1875 (size before relaxing)
 .debug_str     0x0000000000001ddc      0x40c build/stm32f4xx_hal_pcd.o
                                        0xc68 (size before relaxing)
 .debug_str     0x00000000000021e8      0x164 build/stm32f4xx_hal_pcd_ex.o
                                        0x881 (size before relaxing)
 .debug_str     0x000000000000234c      0x684 build/stm32f4xx_ll_usb.o
                                        0xdd7 (size before relaxing)
 .debug_str     0x00000000000029d0      0x1f4 build/stm32f4xx_hal_rcc.o
                                        0x81a (size before relaxing)
 .debug_str     0x0000000000002bc4      0x14f build/stm32f4xx_hal_gpio.o
                                        0x663 (size before relaxing)
 .debug_str     0x0000000000002d13      0x4bf build/stm32f4xx_hal_cortex.o
                                        0xd9d (size before relaxing)
 .debug_str     0x00000000000031d2      0x257 build/stm32f4xx_hal.o
                                        0xc19 (size before relaxing)
 .debug_str     0x0000000000003429       0x47 build/system_stm32f4xx.o
                                        0x4cc (size before relaxing)
 .debug_str     0x0000000000003470      0x1b2 build/usbd_core.o
                                        0xcd1 (size before relaxing)
 .debug_str     0x0000000000003622      0x14a build/usbd_ctlreq.o
                                        0xc8f (size before relaxing)
 .debug_str     0x000000000000376c       0xc6 build/usbd_ioreq.o
                                        0xbdf (size before relaxing)
 .debug_str     0x0000000000003832      0x1fd build/usbd_cdc.o
                                       0x117f (size before relaxing)
 .debug_str     0x0000000000003a2f       0x24 build/startup_stm32f407xx.o
                                         0xfd (size before relaxing)

.comment        0x0000000000000000       0xfb
 .comment       0x0000000000000000       0x79 build/main.o
                                         0x7a (size before relaxing)
 .comment       0x0000000000000079       0x7a build/stm32f4xx_it.o
 .comment       0x0000000000000079       0x7a build/stm32f4xx_hal_msp.o
 .comment       0x0000000000000079       0x7a build/usb_device.o
 .comment       0x0000000000000079       0x7a build/usbd_desc.o
 .comment       0x0000000000000079       0x7a build/usbd_cdc_if.o
 .comment       0x0000000000000079       0x7a build/usbd_conf.o
 .comment       0x0000000000000079       0x7a build/stm32f4xx_hal_pcd.o
 .comment       0x0000000000000079       0x7a build/stm32f4xx_hal_pcd_ex.o
 .comment       0x0000000000000079       0x7a build/stm32f4xx_ll_usb.o
 .comment       0x0000000000000079       0x7a build/stm32f4xx_hal_rcc.o
 .comment       0x0000000000000079       0x7a build/stm32f4xx_hal_gpio.o
 .comment       0x0000000000000079       0x7a build/stm32f4xx_hal_cortex.o
 .comment       0x0000000000000079       0x7a build/stm32f4xx_hal.o
 .comment       0x0000000000000079       0x7a build/system_stm32f4xx.o
 .comment       0x0000000000000079       0x7a build/usbd_core.o
 .comment       0x0000000000000079       0x7a build/usbd_ctlreq.o
 .comment       0x0000000000000079       0x7a build/usbd_ioreq.o
 .comment       0x0000000000000079       0x7a build/usbd_cdc.o
 .comment       0x0000000000000079       0x82 Middlewares/ST/STM32_Cryptographic/Lib/libSTM32CryptographicV3.0.0_CM4_GCC.a(crypto.o)
                                         0x83 (size before relaxing)

.debug_frame    0x0000000000000000     0x3228
 .debug_frame   0x0000000000000000       0x9c build/main.o
 .debug_frame   0x000000000000009c      0x140 build/stm32f4xx_it.o
 .debug_frame   0x00000000000001dc       0x38 build/stm32f4xx_hal_msp.o
 .debug_frame   0x0000000000000214       0x2c build/usb_device.o
 .debug_frame   0x0000000000000240      0x178 build/usbd_desc.o
 .debug_frame   0x00000000000003b8       0xf0 build/usbd_cdc_if.o
 .debug_frame   0x00000000000004a8      0x4e8 build/usbd_conf.o
 .debug_frame   0x0000000000000990      0x5c0 build/stm32f4xx_hal_pcd.o
 .debug_frame   0x0000000000000f50       0xb0 build/stm32f4xx_hal_pcd_ex.o
 .debug_frame   0x0000000000001000      0x7bc build/stm32f4xx_ll_usb.o
 .debug_frame   0x00000000000017bc      0x214 build/stm32f4xx_hal_rcc.o
 .debug_frame   0x00000000000019d0      0x154 build/stm32f4xx_hal_gpio.o
 .debug_frame   0x0000000000001b24      0x4d4 build/stm32f4xx_hal_cortex.o
 .debug_frame   0x0000000000001ff8      0x3d8 build/stm32f4xx_hal.o
 .debug_frame   0x00000000000023d0       0x5c build/system_stm32f4xx.o
 .debug_frame   0x000000000000242c      0x330 build/usbd_core.o
 .debug_frame   0x000000000000275c      0x268 build/usbd_ctlreq.o
 .debug_frame   0x00000000000029c4      0x128 build/usbd_ioreq.o
 .debug_frame   0x0000000000002aec      0x268 build/usbd_cdc.o
 .debug_frame   0x0000000000002d54       0x2c /usr/local/Cellar/arm-none-eabi-gcc/9-2019-q4-major/gcc/bin/../lib/gcc/arm-none-eabi/9.2.1/../../../../arm-none-eabi/lib/thumb/v7e-m+fp/softfp/libc_nano.a(lib_a-init.o)
 .debug_frame   0x0000000000002d80       0x30 /usr/local/Cellar/arm-none-eabi-gcc/9-2019-q4-major/gcc/bin/../lib/gcc/arm-none-eabi/9.2.1/../../../../arm-none-eabi/lib/thumb/v7e-m+fp/softfp/libc_nano.a(lib_a-malloc.o)
 .debug_frame   0x0000000000002db0       0x20 /usr/local/Cellar/arm-none-eabi-gcc/9-2019-q4-major/gcc/bin/../lib/gcc/arm-none-eabi/9.2.1/../../../../arm-none-eabi/lib/thumb/v7e-m+fp/softfp/libc_nano.a(lib_a-memset.o)
 .debug_frame   0x0000000000002dd0       0x38 /usr/local/Cellar/arm-none-eabi-gcc/9-2019-q4-major/gcc/bin/../lib/gcc/arm-none-eabi/9.2.1/../../../../arm-none-eabi/lib/thumb/v7e-m+fp/softfp/libc_nano.a(lib_a-nano-freer.o)
 .debug_frame   0x0000000000002e08       0x30 /usr/local/Cellar/arm-none-eabi-gcc/9-2019-q4-major/gcc/bin/../lib/gcc/arm-none-eabi/9.2.1/../../../../arm-none-eabi/lib/thumb/v7e-m+fp/softfp/libc_nano.a(lib_a-nano-mallocr.o)
 .debug_frame   0x0000000000002e38       0x2c /usr/local/Cellar/arm-none-eabi-gcc/9-2019-q4-major/gcc/bin/../lib/gcc/arm-none-eabi/9.2.1/../../../../arm-none-eabi/lib/thumb/v7e-m+fp/softfp/libc_nano.a(lib_a-sbrkr.o)
 .debug_frame   0x0000000000002e64       0x6c /usr/local/Cellar/arm-none-eabi-gcc/9-2019-q4-major/gcc/bin/../lib/gcc/arm-none-eabi/9.2.1/../../../../arm-none-eabi/lib/thumb/v7e-m+fp/softfp/libc_nano.a(lib_a-sprintf.o)
 .debug_frame   0x0000000000002ed0       0x30 /usr/local/Cellar/arm-none-eabi-gcc/9-2019-q4-major/gcc/bin/../lib/gcc/arm-none-eabi/9.2.1/../../../../arm-none-eabi/lib/thumb/v7e-m+fp/softfp/libc_nano.a(lib_a-mlock.o)
 .debug_frame   0x0000000000002f00       0x90 /usr/local/Cellar/arm-none-eabi-gcc/9-2019-q4-major/gcc/bin/../lib/gcc/arm-none-eabi/9.2.1/../../../../arm-none-eabi/lib/thumb/v7e-m+fp/softfp/libc_nano.a(lib_a-nano-svfprintf.o)
 .debug_frame   0x0000000000002f90       0x60 /usr/local/Cellar/arm-none-eabi-gcc/9-2019-q4-major/gcc/bin/../lib/gcc/arm-none-eabi/9.2.1/../../../../arm-none-eabi/lib/thumb/v7e-m+fp/softfp/libc_nano.a(lib_a-nano-vfprintf_i.o)
 .debug_frame   0x0000000000002ff0       0x5c /usr/local/Cellar/arm-none-eabi-gcc/9-2019-q4-major/gcc/bin/../lib/gcc/arm-none-eabi/9.2.1/../../../../arm-none-eabi/lib/thumb/v7e-m+fp/softfp/libc_nano.a(lib_a-reent.o)
 .debug_frame   0x000000000000304c       0xb0 /usr/local/Cellar/arm-none-eabi-gcc/9-2019-q4-major/gcc/bin/../lib/gcc/arm-none-eabi/9.2.1/../../../../arm-none-eabi/lib/thumb/v7e-m+fp/softfp/libc_nano.a(lib_a-lock.o)
 .debug_frame   0x00000000000030fc       0x28 /usr/local/Cellar/arm-none-eabi-gcc/9-2019-q4-major/gcc/bin/../lib/gcc/arm-none-eabi/9.2.1/../../../../arm-none-eabi/lib/thumb/v7e-m+fp/softfp/libc_nano.a(lib_a-memcpy-stub.o)
 .debug_frame   0x0000000000003124       0x28 /usr/local/Cellar/arm-none-eabi-gcc/9-2019-q4-major/gcc/bin/../lib/gcc/arm-none-eabi/9.2.1/../../../../arm-none-eabi/lib/thumb/v7e-m+fp/softfp/libc_nano.a(lib_a-memmove.o)
 .debug_frame   0x000000000000314c       0x3c /usr/local/Cellar/arm-none-eabi-gcc/9-2019-q4-major/gcc/bin/../lib/gcc/arm-none-eabi/9.2.1/../../../../arm-none-eabi/lib/thumb/v7e-m+fp/softfp/libc_nano.a(lib_a-nano-reallocr.o)
 .debug_frame   0x0000000000003188       0x20 /usr/local/Cellar/arm-none-eabi-gcc/9-2019-q4-major/gcc/bin/../lib/gcc/arm-none-eabi/9.2.1/../../../../arm-none-eabi/lib/thumb/v7e-m+fp/softfp/libc_nano.a(lib_a-nano-msizer.o)
 .debug_frame   0x00000000000031a8       0x20 /usr/local/Cellar/arm-none-eabi-gcc/9-2019-q4-major/gcc/bin/../lib/gcc/arm-none-eabi/9.2.1/../../../../arm-none-eabi/lib/thumb/v7e-m+fp/softfp/libnosys.a(sbrk.o)
 .debug_frame   0x00000000000031c8       0x2c /usr/local/Cellar/arm-none-eabi-gcc/9-2019-q4-major/gcc/bin/../lib/gcc/arm-none-eabi/9.2.1/thumb/v7e-m+fp/softfp/libgcc.a(_aeabi_uldivmod.o)
 .debug_frame   0x00000000000031f4       0x34 /usr/local/Cellar/arm-none-eabi-gcc/9-2019-q4-major/gcc/bin/../lib/gcc/arm-none-eabi/9.2.1/thumb/v7e-m+fp/softfp/libgcc.a(_udivmoddi4.o)

Cross Reference Table

Symbol                                            File
ADC_IRQHandler                                    build/startup_stm32f407xx.o
AES_CBC_Decrypt_Append                            Middlewares/ST/STM32_Cryptographic/Lib/libSTM32CryptographicV3.0.0_CM4_GCC.a(crypto.o)
AES_CBC_Decrypt_Finish                            Middlewares/ST/STM32_Cryptographic/Lib/libSTM32CryptographicV3.0.0_CM4_GCC.a(crypto.o)
AES_CBC_Decrypt_Init                              Middlewares/ST/STM32_Cryptographic/Lib/libSTM32CryptographicV3.0.0_CM4_GCC.a(crypto.o)
AES_CBC_Encrypt_Append                            Middlewares/ST/STM32_Cryptographic/Lib/libSTM32CryptographicV3.0.0_CM4_GCC.a(crypto.o)
                                                  build/main.o
AES_CBC_Encrypt_Finish                            Middlewares/ST/STM32_Cryptographic/Lib/libSTM32CryptographicV3.0.0_CM4_GCC.a(crypto.o)
                                                  build/main.o
AES_CBC_Encrypt_Init                              Middlewares/ST/STM32_Cryptographic/Lib/libSTM32CryptographicV3.0.0_CM4_GCC.a(crypto.o)
                                                  build/main.o
AES_CCM_Decrypt_Append                            Middlewares/ST/STM32_Cryptographic/Lib/libSTM32CryptographicV3.0.0_CM4_GCC.a(crypto.o)
AES_CCM_Decrypt_Finish                            Middlewares/ST/STM32_Cryptographic/Lib/libSTM32CryptographicV3.0.0_CM4_GCC.a(crypto.o)
AES_CCM_Decrypt_Init                              Middlewares/ST/STM32_Cryptographic/Lib/libSTM32CryptographicV3.0.0_CM4_GCC.a(crypto.o)
AES_CCM_Encrypt_Append                            Middlewares/ST/STM32_Cryptographic/Lib/libSTM32CryptographicV3.0.0_CM4_GCC.a(crypto.o)
AES_CCM_Encrypt_Finish                            Middlewares/ST/STM32_Cryptographic/Lib/libSTM32CryptographicV3.0.0_CM4_GCC.a(crypto.o)
AES_CCM_Encrypt_Init                              Middlewares/ST/STM32_Cryptographic/Lib/libSTM32CryptographicV3.0.0_CM4_GCC.a(crypto.o)
AES_CCM_Header_Append                             Middlewares/ST/STM32_Cryptographic/Lib/libSTM32CryptographicV3.0.0_CM4_GCC.a(crypto.o)
AES_CFB_Decrypt_Append                            Middlewares/ST/STM32_Cryptographic/Lib/libSTM32CryptographicV3.0.0_CM4_GCC.a(crypto.o)
AES_CFB_Decrypt_Finish                            Middlewares/ST/STM32_Cryptographic/Lib/libSTM32CryptographicV3.0.0_CM4_GCC.a(crypto.o)
AES_CFB_Decrypt_Init                              Middlewares/ST/STM32_Cryptographic/Lib/libSTM32CryptographicV3.0.0_CM4_GCC.a(crypto.o)
AES_CFB_Encrypt_Append                            Middlewares/ST/STM32_Cryptographic/Lib/libSTM32CryptographicV3.0.0_CM4_GCC.a(crypto.o)
AES_CFB_Encrypt_Finish                            Middlewares/ST/STM32_Cryptographic/Lib/libSTM32CryptographicV3.0.0_CM4_GCC.a(crypto.o)
AES_CFB_Encrypt_Init                              Middlewares/ST/STM32_Cryptographic/Lib/libSTM32CryptographicV3.0.0_CM4_GCC.a(crypto.o)
AES_CMAC_Decrypt_Append                           Middlewares/ST/STM32_Cryptographic/Lib/libSTM32CryptographicV3.0.0_CM4_GCC.a(crypto.o)
AES_CMAC_Decrypt_Finish                           Middlewares/ST/STM32_Cryptographic/Lib/libSTM32CryptographicV3.0.0_CM4_GCC.a(crypto.o)
AES_CMAC_Decrypt_Init                             Middlewares/ST/STM32_Cryptographic/Lib/libSTM32CryptographicV3.0.0_CM4_GCC.a(crypto.o)
AES_CMAC_Encrypt_Append                           Middlewares/ST/STM32_Cryptographic/Lib/libSTM32CryptographicV3.0.0_CM4_GCC.a(crypto.o)
AES_CMAC_Encrypt_Finish                           Middlewares/ST/STM32_Cryptographic/Lib/libSTM32CryptographicV3.0.0_CM4_GCC.a(crypto.o)
AES_CMAC_Encrypt_Init                             Middlewares/ST/STM32_Cryptographic/Lib/libSTM32CryptographicV3.0.0_CM4_GCC.a(crypto.o)
AES_CONF                                          Middlewares/ST/STM32_Cryptographic/Lib/libSTM32CryptographicV3.0.0_CM4_GCC.a(crypto.o)
AES_CTR_Decrypt_Append                            Middlewares/ST/STM32_Cryptographic/Lib/libSTM32CryptographicV3.0.0_CM4_GCC.a(crypto.o)
AES_CTR_Decrypt_Finish                            Middlewares/ST/STM32_Cryptographic/Lib/libSTM32CryptographicV3.0.0_CM4_GCC.a(crypto.o)
AES_CTR_Decrypt_Init                              Middlewares/ST/STM32_Cryptographic/Lib/libSTM32CryptographicV3.0.0_CM4_GCC.a(crypto.o)
AES_CTR_Encrypt_Append                            Middlewares/ST/STM32_Cryptographic/Lib/libSTM32CryptographicV3.0.0_CM4_GCC.a(crypto.o)
AES_CTR_Encrypt_Finish                            Middlewares/ST/STM32_Cryptographic/Lib/libSTM32CryptographicV3.0.0_CM4_GCC.a(crypto.o)
AES_CTR_Encrypt_Init                              Middlewares/ST/STM32_Cryptographic/Lib/libSTM32CryptographicV3.0.0_CM4_GCC.a(crypto.o)
AES_ECB_Decrypt_Append                            Middlewares/ST/STM32_Cryptographic/Lib/libSTM32CryptographicV3.0.0_CM4_GCC.a(crypto.o)
AES_ECB_Decrypt_Finish                            Middlewares/ST/STM32_Cryptographic/Lib/libSTM32CryptographicV3.0.0_CM4_GCC.a(crypto.o)
AES_ECB_Decrypt_Init                              Middlewares/ST/STM32_Cryptographic/Lib/libSTM32CryptographicV3.0.0_CM4_GCC.a(crypto.o)
AES_ECB_Encrypt_Append                            Middlewares/ST/STM32_Cryptographic/Lib/libSTM32CryptographicV3.0.0_CM4_GCC.a(crypto.o)
AES_ECB_Encrypt_Finish                            Middlewares/ST/STM32_Cryptographic/Lib/libSTM32CryptographicV3.0.0_CM4_GCC.a(crypto.o)
AES_ECB_Encrypt_Init                              Middlewares/ST/STM32_Cryptographic/Lib/libSTM32CryptographicV3.0.0_CM4_GCC.a(crypto.o)
AES_GCM_Decrypt_Append                            Middlewares/ST/STM32_Cryptographic/Lib/libSTM32CryptographicV3.0.0_CM4_GCC.a(crypto.o)
AES_GCM_Decrypt_Finish                            Middlewares/ST/STM32_Cryptographic/Lib/libSTM32CryptographicV3.0.0_CM4_GCC.a(crypto.o)
AES_GCM_Decrypt_Init                              Middlewares/ST/STM32_Cryptographic/Lib/libSTM32CryptographicV3.0.0_CM4_GCC.a(crypto.o)
AES_GCM_Encrypt_Append                            Middlewares/ST/STM32_Cryptographic/Lib/libSTM32CryptographicV3.0.0_CM4_GCC.a(crypto.o)
AES_GCM_Encrypt_Finish                            Middlewares/ST/STM32_Cryptographic/Lib/libSTM32CryptographicV3.0.0_CM4_GCC.a(crypto.o)
AES_GCM_Encrypt_Init                              Middlewares/ST/STM32_Cryptographic/Lib/libSTM32CryptographicV3.0.0_CM4_GCC.a(crypto.o)
AES_GCM_Header_Append                             Middlewares/ST/STM32_Cryptographic/Lib/libSTM32CryptographicV3.0.0_CM4_GCC.a(crypto.o)
AES_KeyWrap_Decrypt_Append                        Middlewares/ST/STM32_Cryptographic/Lib/libSTM32CryptographicV3.0.0_CM4_GCC.a(crypto.o)
AES_KeyWrap_Decrypt_Finish                        Middlewares/ST/STM32_Cryptographic/Lib/libSTM32CryptographicV3.0.0_CM4_GCC.a(crypto.o)
AES_KeyWrap_Decrypt_Init                          Middlewares/ST/STM32_Cryptographic/Lib/libSTM32CryptographicV3.0.0_CM4_GCC.a(crypto.o)
AES_KeyWrap_Encrypt_Append                        Middlewares/ST/STM32_Cryptographic/Lib/libSTM32CryptographicV3.0.0_CM4_GCC.a(crypto.o)
AES_KeyWrap_Encrypt_Finish                        Middlewares/ST/STM32_Cryptographic/Lib/libSTM32CryptographicV3.0.0_CM4_GCC.a(crypto.o)
AES_KeyWrap_Encrypt_Init                          Middlewares/ST/STM32_Cryptographic/Lib/libSTM32CryptographicV3.0.0_CM4_GCC.a(crypto.o)
AES_OFB_Decrypt_Append                            Middlewares/ST/STM32_Cryptographic/Lib/libSTM32CryptographicV3.0.0_CM4_GCC.a(crypto.o)
AES_OFB_Decrypt_Finish                            Middlewares/ST/STM32_Cryptographic/Lib/libSTM32CryptographicV3.0.0_CM4_GCC.a(crypto.o)
AES_OFB_Decrypt_Init                              Middlewares/ST/STM32_Cryptographic/Lib/libSTM32CryptographicV3.0.0_CM4_GCC.a(crypto.o)
AES_OFB_Encrypt_Append                            Middlewares/ST/STM32_Cryptographic/Lib/libSTM32CryptographicV3.0.0_CM4_GCC.a(crypto.o)
AES_OFB_Encrypt_Finish                            Middlewares/ST/STM32_Cryptographic/Lib/libSTM32CryptographicV3.0.0_CM4_GCC.a(crypto.o)
AES_OFB_Encrypt_Init                              Middlewares/ST/STM32_Cryptographic/Lib/libSTM32CryptographicV3.0.0_CM4_GCC.a(crypto.o)
AES_XTS_Decrypt_Append                            Middlewares/ST/STM32_Cryptographic/Lib/libSTM32CryptographicV3.0.0_CM4_GCC.a(crypto.o)
AES_XTS_Decrypt_Finish                            Middlewares/ST/STM32_Cryptographic/Lib/libSTM32CryptographicV3.0.0_CM4_GCC.a(crypto.o)
AES_XTS_Decrypt_Init                              Middlewares/ST/STM32_Cryptographic/Lib/libSTM32CryptographicV3.0.0_CM4_GCC.a(crypto.o)
AES_XTS_Encrypt_Append                            Middlewares/ST/STM32_Cryptographic/Lib/libSTM32CryptographicV3.0.0_CM4_GCC.a(crypto.o)
AES_XTS_Encrypt_Finish                            Middlewares/ST/STM32_Cryptographic/Lib/libSTM32CryptographicV3.0.0_CM4_GCC.a(crypto.o)
AES_XTS_Encrypt_Init                              Middlewares/ST/STM32_Cryptographic/Lib/libSTM32CryptographicV3.0.0_CM4_GCC.a(crypto.o)
AES_general_SW_dec                                Middlewares/ST/STM32_Cryptographic/Lib/libSTM32CryptographicV3.0.0_CM4_GCC.a(crypto.o)
AES_general_SW_enc                                Middlewares/ST/STM32_Cryptographic/Lib/libSTM32CryptographicV3.0.0_CM4_GCC.a(crypto.o)
AES_keyschedule_dec                               Middlewares/ST/STM32_Cryptographic/Lib/libSTM32CryptographicV3.0.0_CM4_GCC.a(crypto.o)
AES_keyschedule_enc                               Middlewares/ST/STM32_Cryptographic/Lib/libSTM32CryptographicV3.0.0_CM4_GCC.a(crypto.o)
AHBPrescTable                                     build/system_stm32f4xx.o
                                                  build/stm32f4xx_hal_rcc.o
APBPrescTable                                     build/system_stm32f4xx.o
                                                  build/stm32f4xx_hal_rcc.o
ARC4_Decrypt_Append                               Middlewares/ST/STM32_Cryptographic/Lib/libSTM32CryptographicV3.0.0_CM4_GCC.a(crypto.o)
ARC4_Decrypt_Finish                               Middlewares/ST/STM32_Cryptographic/Lib/libSTM32CryptographicV3.0.0_CM4_GCC.a(crypto.o)
ARC4_Decrypt_Init                                 Middlewares/ST/STM32_Cryptographic/Lib/libSTM32CryptographicV3.0.0_CM4_GCC.a(crypto.o)
ARC4_Encrypt_Append                               Middlewares/ST/STM32_Cryptographic/Lib/libSTM32CryptographicV3.0.0_CM4_GCC.a(crypto.o)
ARC4_Encrypt_Finish                               Middlewares/ST/STM32_Cryptographic/Lib/libSTM32CryptographicV3.0.0_CM4_GCC.a(crypto.o)
ARC4_Encrypt_Init                                 Middlewares/ST/STM32_Cryptographic/Lib/libSTM32CryptographicV3.0.0_CM4_GCC.a(crypto.o)
ASYM_KEY_CONF                                     Middlewares/ST/STM32_Cryptographic/Lib/libSTM32CryptographicV3.0.0_CM4_GCC.a(crypto.o)
AddBig                                            Middlewares/ST/STM32_Cryptographic/Lib/libSTM32CryptographicV3.0.0_CM4_GCC.a(crypto.o)
Big_to_W8                                         Middlewares/ST/STM32_Cryptographic/Lib/libSTM32CryptographicV3.0.0_CM4_GCC.a(crypto.o)
Big_to_fixedW8                                    Middlewares/ST/STM32_Cryptographic/Lib/libSTM32CryptographicV3.0.0_CM4_GCC.a(crypto.o)
Binary_DoublePointMul                             Middlewares/ST/STM32_Cryptographic/Lib/libSTM32CryptographicV3.0.0_CM4_GCC.a(crypto.o)
BusFault_Handler                                  build/stm32f4xx_it.o
C25519keyExchange                                 Middlewares/ST/STM32_Cryptographic/Lib/libSTM32CryptographicV3.0.0_CM4_GCC.a(crypto.o)
C25519keyGen                                      Middlewares/ST/STM32_Cryptographic/Lib/libSTM32CryptographicV3.0.0_CM4_GCC.a(crypto.o)
CAN1_RX0_IRQHandler                               build/startup_stm32f407xx.o
CAN1_RX1_IRQHandler                               build/startup_stm32f407xx.o
CAN1_SCE_IRQHandler                               build/startup_stm32f407xx.o
CAN1_TX_IRQHandler                                build/startup_stm32f407xx.o
CAN2_RX0_IRQHandler                               build/startup_stm32f407xx.o
CAN2_RX1_IRQHandler                               build/startup_stm32f407xx.o
CAN2_SCE_IRQHandler                               build/startup_stm32f407xx.o
CAN2_TX_IRQHandler                                build/startup_stm32f407xx.o
CDC_Transmit_FS                                   build/usbd_cdc_if.o
CHACHA_Decrypt_Append                             Middlewares/ST/STM32_Cryptographic/Lib/libSTM32CryptographicV3.0.0_CM4_GCC.a(crypto.o)
CHACHA_Decrypt_Finish                             Middlewares/ST/STM32_Cryptographic/Lib/libSTM32CryptographicV3.0.0_CM4_GCC.a(crypto.o)
CHACHA_Decrypt_Init                               Middlewares/ST/STM32_Cryptographic/Lib/libSTM32CryptographicV3.0.0_CM4_GCC.a(crypto.o)
CHACHA_Encrypt_Append                             Middlewares/ST/STM32_Cryptographic/Lib/libSTM32CryptographicV3.0.0_CM4_GCC.a(crypto.o)
CHACHA_Encrypt_Finish                             Middlewares/ST/STM32_Cryptographic/Lib/libSTM32CryptographicV3.0.0_CM4_GCC.a(crypto.o)
CHACHA_Encrypt_Init                               Middlewares/ST/STM32_Cryptographic/Lib/libSTM32CryptographicV3.0.0_CM4_GCC.a(crypto.o)
CORTEX_CONF                                       Middlewares/ST/STM32_Cryptographic/Lib/libSTM32CryptographicV3.0.0_CM4_GCC.a(crypto.o)
ChaCha20Poly1305_Decrypt_Append                   Middlewares/ST/STM32_Cryptographic/Lib/libSTM32CryptographicV3.0.0_CM4_GCC.a(crypto.o)
ChaCha20Poly1305_Decrypt_Finish                   Middlewares/ST/STM32_Cryptographic/Lib/libSTM32CryptographicV3.0.0_CM4_GCC.a(crypto.o)
ChaCha20Poly1305_Decrypt_Init                     Middlewares/ST/STM32_Cryptographic/Lib/libSTM32CryptographicV3.0.0_CM4_GCC.a(crypto.o)
ChaCha20Poly1305_Encrypt_Append                   Middlewares/ST/STM32_Cryptographic/Lib/libSTM32CryptographicV3.0.0_CM4_GCC.a(crypto.o)
ChaCha20Poly1305_Encrypt_Finish                   Middlewares/ST/STM32_Cryptographic/Lib/libSTM32CryptographicV3.0.0_CM4_GCC.a(crypto.o)
ChaCha20Poly1305_Encrypt_Init                     Middlewares/ST/STM32_Cryptographic/Lib/libSTM32CryptographicV3.0.0_CM4_GCC.a(crypto.o)
ChaCha20Poly1305_Header_Append                    Middlewares/ST/STM32_Cryptographic/Lib/libSTM32CryptographicV3.0.0_CM4_GCC.a(crypto.o)
CompareBig                                        Middlewares/ST/STM32_Cryptographic/Lib/libSTM32CryptographicV3.0.0_CM4_GCC.a(crypto.o)
CopyBig                                           Middlewares/ST/STM32_Cryptographic/Lib/libSTM32CryptographicV3.0.0_CM4_GCC.a(crypto.o)
CountBits                                         Middlewares/ST/STM32_Cryptographic/Lib/libSTM32CryptographicV3.0.0_CM4_GCC.a(crypto.o)
CountBytes                                        Middlewares/ST/STM32_Cryptographic/Lib/libSTM32CryptographicV3.0.0_CM4_GCC.a(crypto.o)
DCMI_IRQHandler                                   build/startup_stm32f407xx.o
DES_CBC_Decrypt_Append                            Middlewares/ST/STM32_Cryptographic/Lib/libSTM32CryptographicV3.0.0_CM4_GCC.a(crypto.o)
DES_CBC_Decrypt_Finish                            Middlewares/ST/STM32_Cryptographic/Lib/libSTM32CryptographicV3.0.0_CM4_GCC.a(crypto.o)
DES_CBC_Decrypt_Init                              Middlewares/ST/STM32_Cryptographic/Lib/libSTM32CryptographicV3.0.0_CM4_GCC.a(crypto.o)
DES_CBC_Encrypt_Append                            Middlewares/ST/STM32_Cryptographic/Lib/libSTM32CryptographicV3.0.0_CM4_GCC.a(crypto.o)
DES_CBC_Encrypt_Finish                            Middlewares/ST/STM32_Cryptographic/Lib/libSTM32CryptographicV3.0.0_CM4_GCC.a(crypto.o)
DES_CBC_Encrypt_Init                              Middlewares/ST/STM32_Cryptographic/Lib/libSTM32CryptographicV3.0.0_CM4_GCC.a(crypto.o)
DES_ECB_Decrypt_Append                            Middlewares/ST/STM32_Cryptographic/Lib/libSTM32CryptographicV3.0.0_CM4_GCC.a(crypto.o)
DES_ECB_Decrypt_Finish                            Middlewares/ST/STM32_Cryptographic/Lib/libSTM32CryptographicV3.0.0_CM4_GCC.a(crypto.o)
DES_ECB_Decrypt_Init                              Middlewares/ST/STM32_Cryptographic/Lib/libSTM32CryptographicV3.0.0_CM4_GCC.a(crypto.o)
DES_ECB_Encrypt_Append                            Middlewares/ST/STM32_Cryptographic/Lib/libSTM32CryptographicV3.0.0_CM4_GCC.a(crypto.o)
DES_ECB_Encrypt_Finish                            Middlewares/ST/STM32_Cryptographic/Lib/libSTM32CryptographicV3.0.0_CM4_GCC.a(crypto.o)
DES_ECB_Encrypt_Init                              Middlewares/ST/STM32_Cryptographic/Lib/libSTM32CryptographicV3.0.0_CM4_GCC.a(crypto.o)
DMA1_Stream0_IRQHandler                           build/startup_stm32f407xx.o
DMA1_Stream1_IRQHandler                           build/startup_stm32f407xx.o
DMA1_Stream2_IRQHandler                           build/startup_stm32f407xx.o
DMA1_Stream3_IRQHandler                           build/startup_stm32f407xx.o
DMA1_Stream4_IRQHandler                           build/startup_stm32f407xx.o
DMA1_Stream5_IRQHandler                           build/startup_stm32f407xx.o
DMA1_Stream6_IRQHandler                           build/startup_stm32f407xx.o
DMA1_Stream7_IRQHandler                           build/startup_stm32f407xx.o
DMA2_Stream0_IRQHandler                           build/startup_stm32f407xx.o
DMA2_Stream1_IRQHandler                           build/startup_stm32f407xx.o
DMA2_Stream2_IRQHandler                           build/startup_stm32f407xx.o
DMA2_Stream3_IRQHandler                           build/startup_stm32f407xx.o
DMA2_Stream4_IRQHandler                           build/startup_stm32f407xx.o
DMA2_Stream5_IRQHandler                           build/startup_stm32f407xx.o
DMA2_Stream6_IRQHandler                           build/startup_stm32f407xx.o
DMA2_Stream7_IRQHandler                           build/startup_stm32f407xx.o
DRBG_CONF                                         Middlewares/ST/STM32_Cryptographic/Lib/libSTM32CryptographicV3.0.0_CM4_GCC.a(crypto.o)
DebugMon_Handler                                  build/stm32f4xx_it.o
Default_Handler                                   build/startup_stm32f407xx.o
ECCcopyPoint                                      Middlewares/ST/STM32_Cryptographic/Lib/libSTM32CryptographicV3.0.0_CM4_GCC.a(crypto.o)
ECCfreeEC                                         Middlewares/ST/STM32_Cryptographic/Lib/libSTM32CryptographicV3.0.0_CM4_GCC.a(crypto.o)
ECCfreePoint                                      Middlewares/ST/STM32_Cryptographic/Lib/libSTM32CryptographicV3.0.0_CM4_GCC.a(crypto.o)
ECCfreePrivKey                                    Middlewares/ST/STM32_Cryptographic/Lib/libSTM32CryptographicV3.0.0_CM4_GCC.a(crypto.o)
ECCgetPointCoordinate                             Middlewares/ST/STM32_Cryptographic/Lib/libSTM32CryptographicV3.0.0_CM4_GCC.a(crypto.o)
ECCgetPointFlag                                   Middlewares/ST/STM32_Cryptographic/Lib/libSTM32CryptographicV3.0.0_CM4_GCC.a(crypto.o)
ECCgetPrivKeyValue                                Middlewares/ST/STM32_Cryptographic/Lib/libSTM32CryptographicV3.0.0_CM4_GCC.a(crypto.o)
ECCinitEC                                         Middlewares/ST/STM32_Cryptographic/Lib/libSTM32CryptographicV3.0.0_CM4_GCC.a(crypto.o)
ECCinitPoint                                      Middlewares/ST/STM32_Cryptographic/Lib/libSTM32CryptographicV3.0.0_CM4_GCC.a(crypto.o)
ECCinitPrivKey                                    Middlewares/ST/STM32_Cryptographic/Lib/libSTM32CryptographicV3.0.0_CM4_GCC.a(crypto.o)
ECCkeyGen                                         Middlewares/ST/STM32_Cryptographic/Lib/libSTM32CryptographicV3.0.0_CM4_GCC.a(crypto.o)
ECCpoint2Monty                                    Middlewares/ST/STM32_Cryptographic/Lib/libSTM32CryptographicV3.0.0_CM4_GCC.a(crypto.o)
ECCpointFromMonty                                 Middlewares/ST/STM32_Cryptographic/Lib/libSTM32CryptographicV3.0.0_CM4_GCC.a(crypto.o)
ECCscalarMul                                      Middlewares/ST/STM32_Cryptographic/Lib/libSTM32CryptographicV3.0.0_CM4_GCC.a(crypto.o)
ECCsetPointCoordinate                             Middlewares/ST/STM32_Cryptographic/Lib/libSTM32CryptographicV3.0.0_CM4_GCC.a(crypto.o)
ECCsetPointFlag                                   Middlewares/ST/STM32_Cryptographic/Lib/libSTM32CryptographicV3.0.0_CM4_GCC.a(crypto.o)
ECCsetPointGenerator                              Middlewares/ST/STM32_Cryptographic/Lib/libSTM32CryptographicV3.0.0_CM4_GCC.a(crypto.o)
ECCsetPrivKeyValue                                Middlewares/ST/STM32_Cryptographic/Lib/libSTM32CryptographicV3.0.0_CM4_GCC.a(crypto.o)
ECCsymmetricPoint                                 Middlewares/ST/STM32_Cryptographic/Lib/libSTM32CryptographicV3.0.0_CM4_GCC.a(crypto.o)
ECCvalidatePubKey                                 Middlewares/ST/STM32_Cryptographic/Lib/libSTM32CryptographicV3.0.0_CM4_GCC.a(crypto.o)
ECDSAfreeSign                                     Middlewares/ST/STM32_Cryptographic/Lib/libSTM32CryptographicV3.0.0_CM4_GCC.a(crypto.o)
ECDSAgetSignature                                 Middlewares/ST/STM32_Cryptographic/Lib/libSTM32CryptographicV3.0.0_CM4_GCC.a(crypto.o)
ECDSAinitSign                                     Middlewares/ST/STM32_Cryptographic/Lib/libSTM32CryptographicV3.0.0_CM4_GCC.a(crypto.o)
ECDSAsetSignature                                 Middlewares/ST/STM32_Cryptographic/Lib/libSTM32CryptographicV3.0.0_CM4_GCC.a(crypto.o)
ECDSAsign                                         Middlewares/ST/STM32_Cryptographic/Lib/libSTM32CryptographicV3.0.0_CM4_GCC.a(crypto.o)
ECDSAverify                                       Middlewares/ST/STM32_Cryptographic/Lib/libSTM32CryptographicV3.0.0_CM4_GCC.a(crypto.o)
ED25519keyGen                                     Middlewares/ST/STM32_Cryptographic/Lib/libSTM32CryptographicV3.0.0_CM4_GCC.a(crypto.o)
ED25519sign                                       Middlewares/ST/STM32_Cryptographic/Lib/libSTM32CryptographicV3.0.0_CM4_GCC.a(crypto.o)
ED25519verify                                     Middlewares/ST/STM32_Cryptographic/Lib/libSTM32CryptographicV3.0.0_CM4_GCC.a(crypto.o)
ENC_DEC_CONF                                      Middlewares/ST/STM32_Cryptographic/Lib/libSTM32CryptographicV3.0.0_CM4_GCC.a(crypto.o)
ENDIANNESS_CONF                                   Middlewares/ST/STM32_Cryptographic/Lib/libSTM32CryptographicV3.0.0_CM4_GCC.a(crypto.o)
ETH_IRQHandler                                    build/startup_stm32f407xx.o
ETH_WKUP_IRQHandler                               build/startup_stm32f407xx.o
EXTI0_IRQHandler                                  build/startup_stm32f407xx.o
EXTI15_10_IRQHandler                              build/startup_stm32f407xx.o
EXTI1_IRQHandler                                  build/startup_stm32f407xx.o
EXTI2_IRQHandler                                  build/startup_stm32f407xx.o
EXTI3_IRQHandler                                  build/startup_stm32f407xx.o
EXTI4_IRQHandler                                  build/startup_stm32f407xx.o
EXTI9_5_IRQHandler                                build/startup_stm32f407xx.o
Error_Handler                                     build/main.o
                                                  build/usbd_conf.o
                                                  build/usb_device.o
EvenBig                                           Middlewares/ST/STM32_Cryptographic/Lib/libSTM32CryptographicV3.0.0_CM4_GCC.a(crypto.o)
FLASH_Erase_Sector                                build/stm32f4xx_hal_flash_ex.o
                                                  build/stm32f4xx_hal_flash.o
FLASH_FlushCaches                                 build/stm32f4xx_hal_flash_ex.o
                                                  build/stm32f4xx_hal_flash.o
FLASH_IRQHandler                                  build/startup_stm32f407xx.o
FLASH_WaitForLastOperation                        build/stm32f4xx_hal_flash.o
                                                  build/stm32f4xx_hal_flash_ex.o
FPU_IRQHandler                                    build/startup_stm32f407xx.o
FSMC_IRQHandler                                   build/startup_stm32f407xx.o
FS_Desc                                           build/usbd_desc.o
                                                  build/usb_device.o
FastDiv2                                          Middlewares/ST/STM32_Cryptographic/Lib/libSTM32CryptographicV3.0.0_CM4_GCC.a(crypto.o)
FastDivInnerBase                                  Middlewares/ST/STM32_Cryptographic/Lib/libSTM32CryptographicV3.0.0_CM4_GCC.a(crypto.o)
FastMul2                                          Middlewares/ST/STM32_Cryptographic/Lib/libSTM32CryptographicV3.0.0_CM4_GCC.a(crypto.o)
FastMulInnerBase                                  Middlewares/ST/STM32_Cryptographic/Lib/libSTM32CryptographicV3.0.0_CM4_GCC.a(crypto.o)
GCM_CONF                                          Middlewares/ST/STM32_Cryptographic/Lib/libSTM32CryptographicV3.0.0_CM4_GCC.a(crypto.o)
GenRndBN                                          Middlewares/ST/STM32_Cryptographic/Lib/libSTM32CryptographicV3.0.0_CM4_GCC.a(crypto.o)
GenRndBNmodN                                      Middlewares/ST/STM32_Cryptographic/Lib/libSTM32CryptographicV3.0.0_CM4_GCC.a(crypto.o)
GiveBit                                           Middlewares/ST/STM32_Cryptographic/Lib/libSTM32CryptographicV3.0.0_CM4_GCC.a(crypto.o)
HAL_DBGMCU_DisableDBGSleepMode                    build/stm32f4xx_hal.o
HAL_DBGMCU_DisableDBGStandbyMode                  build/stm32f4xx_hal.o
HAL_DBGMCU_DisableDBGStopMode                     build/stm32f4xx_hal.o
HAL_DBGMCU_EnableDBGSleepMode                     build/stm32f4xx_hal.o
HAL_DBGMCU_EnableDBGStandbyMode                   build/stm32f4xx_hal.o
HAL_DBGMCU_EnableDBGStopMode                      build/stm32f4xx_hal.o
HAL_DMAEx_ChangeMemory                            build/stm32f4xx_hal_dma_ex.o
HAL_DMAEx_MultiBufferStart                        build/stm32f4xx_hal_dma_ex.o
HAL_DMAEx_MultiBufferStart_IT                     build/stm32f4xx_hal_dma_ex.o
HAL_DMA_Abort                                     build/stm32f4xx_hal_dma.o
HAL_DMA_Abort_IT                                  build/stm32f4xx_hal_dma.o
HAL_DMA_DeInit                                    build/stm32f4xx_hal_dma.o
HAL_DMA_GetError                                  build/stm32f4xx_hal_dma.o
HAL_DMA_GetState                                  build/stm32f4xx_hal_dma.o
HAL_DMA_IRQHandler                                build/stm32f4xx_hal_dma.o
HAL_DMA_Init                                      build/stm32f4xx_hal_dma.o
HAL_DMA_PollForTransfer                           build/stm32f4xx_hal_dma.o
HAL_DMA_RegisterCallback                          build/stm32f4xx_hal_dma.o
HAL_DMA_Start                                     build/stm32f4xx_hal_dma.o
HAL_DMA_Start_IT                                  build/stm32f4xx_hal_dma.o
HAL_DMA_UnRegisterCallback                        build/stm32f4xx_hal_dma.o
HAL_DeInit                                        build/stm32f4xx_hal.o
HAL_Delay                                         build/stm32f4xx_hal.o
                                                  build/stm32f4xx_ll_usb.o
                                                  build/usbd_conf.o
HAL_DisableCompensationCell                       build/stm32f4xx_hal.o
HAL_EXTI_ClearConfigLine                          build/stm32f4xx_hal_exti.o
HAL_EXTI_ClearPending                             build/stm32f4xx_hal_exti.o
HAL_EXTI_GenerateSWI                              build/stm32f4xx_hal_exti.o
HAL_EXTI_GetConfigLine                            build/stm32f4xx_hal_exti.o
HAL_EXTI_GetHandle                                build/stm32f4xx_hal_exti.o
HAL_EXTI_GetPending                               build/stm32f4xx_hal_exti.o
HAL_EXTI_IRQHandler                               build/stm32f4xx_hal_exti.o
HAL_EXTI_RegisterCallback                         build/stm32f4xx_hal_exti.o
HAL_EXTI_SetConfigLine                            build/stm32f4xx_hal_exti.o
HAL_EnableCompensationCell                        build/stm32f4xx_hal.o
HAL_FLASHEx_Erase                                 build/stm32f4xx_hal_flash_ex.o
HAL_FLASHEx_Erase_IT                              build/stm32f4xx_hal_flash_ex.o
HAL_FLASHEx_OBGetConfig                           build/stm32f4xx_hal_flash_ex.o
HAL_FLASHEx_OBProgram                             build/stm32f4xx_hal_flash_ex.o
HAL_FLASH_EndOfOperationCallback                  build/stm32f4xx_hal_flash.o
HAL_FLASH_GetError                                build/stm32f4xx_hal_flash.o
HAL_FLASH_IRQHandler                              build/stm32f4xx_hal_flash.o
HAL_FLASH_Lock                                    build/stm32f4xx_hal_flash.o
HAL_FLASH_OB_Launch                               build/stm32f4xx_hal_flash.o
HAL_FLASH_OB_Lock                                 build/stm32f4xx_hal_flash.o
HAL_FLASH_OB_Unlock                               build/stm32f4xx_hal_flash.o
HAL_FLASH_OperationErrorCallback                  build/stm32f4xx_hal_flash.o
HAL_FLASH_Program                                 build/stm32f4xx_hal_flash.o
HAL_FLASH_Program_IT                              build/stm32f4xx_hal_flash.o
HAL_FLASH_Unlock                                  build/stm32f4xx_hal_flash.o
HAL_GPIO_DeInit                                   build/stm32f4xx_hal_gpio.o
                                                  build/usbd_conf.o
HAL_GPIO_EXTI_Callback                            build/stm32f4xx_hal_gpio.o
HAL_GPIO_EXTI_IRQHandler                          build/stm32f4xx_hal_gpio.o
HAL_GPIO_Init                                     build/stm32f4xx_hal_gpio.o
                                                  build/stm32f4xx_hal_rcc.o
                                                  build/usbd_conf.o
HAL_GPIO_LockPin                                  build/stm32f4xx_hal_gpio.o
HAL_GPIO_ReadPin                                  build/stm32f4xx_hal_gpio.o
HAL_GPIO_TogglePin                                build/stm32f4xx_hal_gpio.o
HAL_GPIO_WritePin                                 build/stm32f4xx_hal_gpio.o
HAL_GetDEVID                                      build/stm32f4xx_hal.o
HAL_GetHalVersion                                 build/stm32f4xx_hal.o
HAL_GetREVID                                      build/stm32f4xx_hal.o
HAL_GetTick                                       build/stm32f4xx_hal.o
                                                  build/stm32f4xx_hal_pwr_ex.o
                                                  build/stm32f4xx_hal_dma.o
                                                  build/stm32f4xx_hal_flash.o
                                                  build/stm32f4xx_hal_rcc_ex.o
                                                  build/stm32f4xx_hal_rcc.o
HAL_GetTickFreq                                   build/stm32f4xx_hal.o
HAL_GetTickPrio                                   build/stm32f4xx_hal.o
HAL_GetUIDw0                                      build/stm32f4xx_hal.o
HAL_GetUIDw1                                      build/stm32f4xx_hal.o
HAL_GetUIDw2                                      build/stm32f4xx_hal.o
HAL_IncTick                                       build/stm32f4xx_hal.o
                                                  build/stm32f4xx_it.o
HAL_Init                                          build/stm32f4xx_hal.o
                                                  build/main.o
HAL_InitTick                                      build/stm32f4xx_hal.o
                                                  build/stm32f4xx_hal_rcc_ex.o
                                                  build/stm32f4xx_hal_rcc.o
HAL_MPU_ConfigRegion                              build/stm32f4xx_hal_cortex.o
HAL_MPU_Disable                                   build/stm32f4xx_hal_cortex.o
HAL_MPU_Enable                                    build/stm32f4xx_hal_cortex.o
HAL_MspDeInit                                     build/stm32f4xx_hal.o
HAL_MspInit                                       build/stm32f4xx_hal_msp.o
HAL_NVIC_ClearPendingIRQ                          build/stm32f4xx_hal_cortex.o
HAL_NVIC_DisableIRQ                               build/stm32f4xx_hal_cortex.o
                                                  build/usbd_conf.o
HAL_NVIC_EnableIRQ                                build/stm32f4xx_hal_cortex.o
                                                  build/usbd_conf.o
HAL_NVIC_GetActive                                build/stm32f4xx_hal_cortex.o
HAL_NVIC_GetPendingIRQ                            build/stm32f4xx_hal_cortex.o
HAL_NVIC_GetPriority                              build/stm32f4xx_hal_cortex.o
HAL_NVIC_GetPriorityGrouping                      build/stm32f4xx_hal_cortex.o
HAL_NVIC_SetPendingIRQ                            build/stm32f4xx_hal_cortex.o
HAL_NVIC_SetPriority                              build/stm32f4xx_hal_cortex.o
                                                  build/stm32f4xx_hal.o
                                                  build/usbd_conf.o
HAL_NVIC_SetPriorityGrouping                      build/stm32f4xx_hal_cortex.o
                                                  build/stm32f4xx_hal.o
HAL_NVIC_SystemReset                              build/stm32f4xx_hal_cortex.o
HAL_PCDEx_BCD_Callback                            build/stm32f4xx_hal_pcd_ex.o
HAL_PCDEx_LPM_Callback                            build/stm32f4xx_hal_pcd_ex.o
                                                  build/stm32f4xx_hal_pcd.o
HAL_PCDEx_SetRxFiFo                               build/stm32f4xx_hal_pcd_ex.o
                                                  build/usbd_conf.o
HAL_PCDEx_SetTxFiFo                               build/stm32f4xx_hal_pcd_ex.o
                                                  build/usbd_conf.o
HAL_PCD_ActivateRemoteWakeup                      build/stm32f4xx_hal_pcd.o
HAL_PCD_ConnectCallback                           build/usbd_conf.o
HAL_PCD_DataInStageCallback                       build/usbd_conf.o
HAL_PCD_DataOutStageCallback                      build/usbd_conf.o
HAL_PCD_DeActivateRemoteWakeup                    build/stm32f4xx_hal_pcd.o
HAL_PCD_DeInit                                    build/stm32f4xx_hal_pcd.o
                                                  build/usbd_conf.o
HAL_PCD_DevConnect                                build/stm32f4xx_hal_pcd.o
HAL_PCD_DevDisconnect                             build/stm32f4xx_hal_pcd.o
HAL_PCD_DisconnectCallback                        build/usbd_conf.o
HAL_PCD_EP_Close                                  build/stm32f4xx_hal_pcd.o
                                                  build/usbd_conf.o
HAL_PCD_EP_ClrStall                               build/stm32f4xx_hal_pcd.o
                                                  build/usbd_conf.o
HAL_PCD_EP_Flush                                  build/stm32f4xx_hal_pcd.o
                                                  build/usbd_conf.o
HAL_PCD_EP_GetRxCount                             build/stm32f4xx_hal_pcd.o
                                                  build/usbd_conf.o
HAL_PCD_EP_Open                                   build/stm32f4xx_hal_pcd.o
                                                  build/usbd_conf.o
HAL_PCD_EP_Receive                                build/stm32f4xx_hal_pcd.o
                                                  build/usbd_conf.o
HAL_PCD_EP_SetStall                               build/stm32f4xx_hal_pcd.o
                                                  build/usbd_conf.o
HAL_PCD_EP_Transmit                               build/stm32f4xx_hal_pcd.o
                                                  build/usbd_conf.o
HAL_PCD_GetState                                  build/stm32f4xx_hal_pcd.o
HAL_PCD_IRQHandler                                build/stm32f4xx_hal_pcd.o
                                                  build/stm32f4xx_it.o
HAL_PCD_ISOINIncompleteCallback                   build/usbd_conf.o
HAL_PCD_ISOOUTIncompleteCallback                  build/usbd_conf.o
HAL_PCD_Init                                      build/stm32f4xx_hal_pcd.o
                                                  build/usbd_conf.o
HAL_PCD_MspDeInit                                 build/usbd_conf.o
HAL_PCD_MspInit                                   build/usbd_conf.o
HAL_PCD_ResetCallback                             build/usbd_conf.o
HAL_PCD_ResumeCallback                            build/usbd_conf.o
HAL_PCD_SOFCallback                               build/usbd_conf.o
HAL_PCD_SetAddress                                build/stm32f4xx_hal_pcd.o
                                                  build/usbd_conf.o
HAL_PCD_SetupStageCallback                        build/usbd_conf.o
HAL_PCD_Start                                     build/stm32f4xx_hal_pcd.o
                                                  build/usbd_conf.o
HAL_PCD_Stop                                      build/stm32f4xx_hal_pcd.o
                                                  build/usbd_conf.o
HAL_PCD_SuspendCallback                           build/usbd_conf.o
HAL_PCD_WKUP_IRQHandler                           build/stm32f4xx_hal_pcd.o
HAL_PWREx_ControlVoltageScaling                   build/stm32f4xx_hal_pwr_ex.o
HAL_PWREx_DisableBkUpReg                          build/stm32f4xx_hal_pwr_ex.o
HAL_PWREx_DisableFlashPowerDown                   build/stm32f4xx_hal_pwr_ex.o
HAL_PWREx_EnableBkUpReg                           build/stm32f4xx_hal_pwr_ex.o
HAL_PWREx_EnableFlashPowerDown                    build/stm32f4xx_hal_pwr_ex.o
HAL_PWREx_GetVoltageRange                         build/stm32f4xx_hal_pwr_ex.o
HAL_PWR_ConfigPVD                                 build/stm32f4xx_hal_pwr.o
HAL_PWR_DeInit                                    build/stm32f4xx_hal_pwr.o
HAL_PWR_DisableBkUpAccess                         build/stm32f4xx_hal_pwr.o
HAL_PWR_DisablePVD                                build/stm32f4xx_hal_pwr.o
HAL_PWR_DisableSEVOnPend                          build/stm32f4xx_hal_pwr.o
HAL_PWR_DisableSleepOnExit                        build/stm32f4xx_hal_pwr.o
HAL_PWR_DisableWakeUpPin                          build/stm32f4xx_hal_pwr.o
HAL_PWR_EnableBkUpAccess                          build/stm32f4xx_hal_pwr.o
HAL_PWR_EnablePVD                                 build/stm32f4xx_hal_pwr.o
HAL_PWR_EnableSEVOnPend                           build/stm32f4xx_hal_pwr.o
HAL_PWR_EnableSleepOnExit                         build/stm32f4xx_hal_pwr.o
HAL_PWR_EnableWakeUpPin                           build/stm32f4xx_hal_pwr.o
HAL_PWR_EnterSLEEPMode                            build/stm32f4xx_hal_pwr.o
HAL_PWR_EnterSTANDBYMode                          build/stm32f4xx_hal_pwr.o
HAL_PWR_EnterSTOPMode                             build/stm32f4xx_hal_pwr.o
HAL_PWR_PVDCallback                               build/stm32f4xx_hal_pwr.o
HAL_PWR_PVD_IRQHandler                            build/stm32f4xx_hal_pwr.o
HAL_RCCEx_DisablePLLI2S                           build/stm32f4xx_hal_rcc_ex.o
HAL_RCCEx_EnablePLLI2S                            build/stm32f4xx_hal_rcc_ex.o
HAL_RCCEx_GetPeriphCLKConfig                      build/stm32f4xx_hal_rcc_ex.o
HAL_RCCEx_GetPeriphCLKFreq                        build/stm32f4xx_hal_rcc_ex.o
HAL_RCCEx_PeriphCLKConfig                         build/stm32f4xx_hal_rcc_ex.o
HAL_RCC_CSSCallback                               build/stm32f4xx_hal_rcc.o
HAL_RCC_ClockConfig                               build/stm32f4xx_hal_rcc.o
                                                  build/main.o
HAL_RCC_DeInit                                    build/stm32f4xx_hal_rcc_ex.o
                                                  build/stm32f4xx_hal_rcc.o
HAL_RCC_DisableCSS                                build/stm32f4xx_hal_rcc.o
HAL_RCC_EnableCSS                                 build/stm32f4xx_hal_rcc.o
HAL_RCC_GetClockConfig                            build/stm32f4xx_hal_rcc.o
HAL_RCC_GetHCLKFreq                               build/stm32f4xx_hal_rcc.o
                                                  build/stm32f4xx_hal_pcd.o
HAL_RCC_GetOscConfig                              build/stm32f4xx_hal_rcc.o
HAL_RCC_GetPCLK1Freq                              build/stm32f4xx_hal_rcc.o
HAL_RCC_GetPCLK2Freq                              build/stm32f4xx_hal_rcc.o
HAL_RCC_GetSysClockFreq                           build/stm32f4xx_hal_rcc.o
HAL_RCC_MCOConfig                                 build/stm32f4xx_hal_rcc.o
HAL_RCC_NMI_IRQHandler                            build/stm32f4xx_hal_rcc.o
HAL_RCC_OscConfig                                 build/stm32f4xx_hal_rcc.o
                                                  build/main.o
HAL_ResumeTick                                    build/stm32f4xx_hal.o
HAL_SYSTICK_CLKSourceConfig                       build/stm32f4xx_hal_cortex.o
HAL_SYSTICK_Callback                              build/stm32f4xx_hal_cortex.o
HAL_SYSTICK_Config                                build/stm32f4xx_hal_cortex.o
                                                  build/stm32f4xx_hal.o
HAL_SYSTICK_IRQHandler                            build/stm32f4xx_hal_cortex.o
HAL_SetTickFreq                                   build/stm32f4xx_hal.o
HAL_SuspendTick                                   build/stm32f4xx_hal.o
HASH_CONF                                         Middlewares/ST/STM32_Cryptographic/Lib/libSTM32CryptographicV3.0.0_CM4_GCC.a(crypto.o)
HASH_RNG_IRQHandler                               build/startup_stm32f407xx.o
HKDF_SHA512                                       Middlewares/ST/STM32_Cryptographic/Lib/libSTM32CryptographicV3.0.0_CM4_GCC.a(crypto.o)
HMAC_MD5_Append                                   Middlewares/ST/STM32_Cryptographic/Lib/libSTM32CryptographicV3.0.0_CM4_GCC.a(crypto.o)
HMAC_MD5_Finish                                   Middlewares/ST/STM32_Cryptographic/Lib/libSTM32CryptographicV3.0.0_CM4_GCC.a(crypto.o)
HMAC_MD5_Init                                     Middlewares/ST/STM32_Cryptographic/Lib/libSTM32CryptographicV3.0.0_CM4_GCC.a(crypto.o)
HMAC_SHA1_Append                                  Middlewares/ST/STM32_Cryptographic/Lib/libSTM32CryptographicV3.0.0_CM4_GCC.a(crypto.o)
HMAC_SHA1_Finish                                  Middlewares/ST/STM32_Cryptographic/Lib/libSTM32CryptographicV3.0.0_CM4_GCC.a(crypto.o)
HMAC_SHA1_Init                                    Middlewares/ST/STM32_Cryptographic/Lib/libSTM32CryptographicV3.0.0_CM4_GCC.a(crypto.o)
HMAC_SHA224_Append                                Middlewares/ST/STM32_Cryptographic/Lib/libSTM32CryptographicV3.0.0_CM4_GCC.a(crypto.o)
HMAC_SHA224_Finish                                Middlewares/ST/STM32_Cryptographic/Lib/libSTM32CryptographicV3.0.0_CM4_GCC.a(crypto.o)
HMAC_SHA224_Init                                  Middlewares/ST/STM32_Cryptographic/Lib/libSTM32CryptographicV3.0.0_CM4_GCC.a(crypto.o)
HMAC_SHA256_Append                                Middlewares/ST/STM32_Cryptographic/Lib/libSTM32CryptographicV3.0.0_CM4_GCC.a(crypto.o)
HMAC_SHA256_Finish                                Middlewares/ST/STM32_Cryptographic/Lib/libSTM32CryptographicV3.0.0_CM4_GCC.a(crypto.o)
HMAC_SHA256_Init                                  Middlewares/ST/STM32_Cryptographic/Lib/libSTM32CryptographicV3.0.0_CM4_GCC.a(crypto.o)
HMAC_SHA384_Append                                Middlewares/ST/STM32_Cryptographic/Lib/libSTM32CryptographicV3.0.0_CM4_GCC.a(crypto.o)
HMAC_SHA384_Finish                                Middlewares/ST/STM32_Cryptographic/Lib/libSTM32CryptographicV3.0.0_CM4_GCC.a(crypto.o)
HMAC_SHA384_Init                                  Middlewares/ST/STM32_Cryptographic/Lib/libSTM32CryptographicV3.0.0_CM4_GCC.a(crypto.o)
HMAC_SHA512_Append                                Middlewares/ST/STM32_Cryptographic/Lib/libSTM32CryptographicV3.0.0_CM4_GCC.a(crypto.o)
HMAC_SHA512_Finish                                Middlewares/ST/STM32_Cryptographic/Lib/libSTM32CryptographicV3.0.0_CM4_GCC.a(crypto.o)
HMAC_SHA512_Init                                  Middlewares/ST/STM32_Cryptographic/Lib/libSTM32CryptographicV3.0.0_CM4_GCC.a(crypto.o)
HardFault_Handler                                 build/stm32f4xx_it.o
I2C1_ER_IRQHandler                                build/startup_stm32f407xx.o
I2C1_EV_IRQHandler                                build/startup_stm32f407xx.o
I2C2_ER_IRQHandler                                build/startup_stm32f407xx.o
I2C2_EV_IRQHandler                                build/startup_stm32f407xx.o
I2C3_ER_IRQHandler                                build/startup_stm32f407xx.o
I2C3_EV_IRQHandler                                build/startup_stm32f407xx.o
IDE_CONF                                          Middlewares/ST/STM32_Cryptographic/Lib/libSTM32CryptographicV3.0.0_CM4_GCC.a(crypto.o)
IDE_OPTIMIZATION                                  Middlewares/ST/STM32_Cryptographic/Lib/libSTM32CryptographicV3.0.0_CM4_GCC.a(crypto.o)
IV                                                build/main.o
InitBig                                           Middlewares/ST/STM32_Cryptographic/Lib/libSTM32CryptographicV3.0.0_CM4_GCC.a(crypto.o)
InvSbox                                           Middlewares/ST/STM32_Cryptographic/Lib/libSTM32CryptographicV3.0.0_CM4_GCC.a(crypto.o)
IsZeroBig                                         Middlewares/ST/STM32_Cryptographic/Lib/libSTM32CryptographicV3.0.0_CM4_GCC.a(crypto.o)
K256                                              Middlewares/ST/STM32_Cryptographic/Lib/libSTM32CryptographicV3.0.0_CM4_GCC.a(crypto.o)
Key                                               build/main.o
LeftShift                                         Middlewares/ST/STM32_Cryptographic/Lib/libSTM32CryptographicV3.0.0_CM4_GCC.a(crypto.o)
MAC_CONF                                          Middlewares/ST/STM32_Cryptographic/Lib/libSTM32CryptographicV3.0.0_CM4_GCC.a(crypto.o)
MD5_Append                                        Middlewares/ST/STM32_Cryptographic/Lib/libSTM32CryptographicV3.0.0_CM4_GCC.a(crypto.o)
MD5_Finish                                        Middlewares/ST/STM32_Cryptographic/Lib/libSTM32CryptographicV3.0.0_CM4_GCC.a(crypto.o)
MD5_Init                                          Middlewares/ST/STM32_Cryptographic/Lib/libSTM32CryptographicV3.0.0_CM4_GCC.a(crypto.o)
MISALIGNED_CONF                                   Middlewares/ST/STM32_Cryptographic/Lib/libSTM32CryptographicV3.0.0_CM4_GCC.a(crypto.o)
MX_USB_DEVICE_Init                                build/usb_device.o
                                                  build/main.o
MemManage_Handler                                 build/stm32f4xx_it.o
ModularAddBig                                     Middlewares/ST/STM32_Cryptographic/Lib/libSTM32CryptographicV3.0.0_CM4_GCC.a(crypto.o)
ModularExpSlidWin                                 Middlewares/ST/STM32_Cryptographic/Lib/libSTM32CryptographicV3.0.0_CM4_GCC.a(crypto.o)
ModularFastMul2                                   Middlewares/ST/STM32_Cryptographic/Lib/libSTM32CryptographicV3.0.0_CM4_GCC.a(crypto.o)
ModularInvBig                                     Middlewares/ST/STM32_Cryptographic/Lib/libSTM32CryptographicV3.0.0_CM4_GCC.a(crypto.o)
ModularSubBig                                     Middlewares/ST/STM32_Cryptographic/Lib/libSTM32CryptographicV3.0.0_CM4_GCC.a(crypto.o)
MontyExit                                         Middlewares/ST/STM32_Cryptographic/Lib/libSTM32CryptographicV3.0.0_CM4_GCC.a(crypto.o)
MontyInit                                         Middlewares/ST/STM32_Cryptographic/Lib/libSTM32CryptographicV3.0.0_CM4_GCC.a(crypto.o)
MontyJacProjAddPoints                             Middlewares/ST/STM32_Cryptographic/Lib/libSTM32CryptographicV3.0.0_CM4_GCC.a(crypto.o)
MontyJacProjDoublePoint                           Middlewares/ST/STM32_Cryptographic/Lib/libSTM32CryptographicV3.0.0_CM4_GCC.a(crypto.o)
MontyKillAll                                      Middlewares/ST/STM32_Cryptographic/Lib/libSTM32CryptographicV3.0.0_CM4_GCC.a(crypto.o)
MontyKillR2                                       Middlewares/ST/STM32_Cryptographic/Lib/libSTM32CryptographicV3.0.0_CM4_GCC.a(crypto.o)
MontyMul                                          Middlewares/ST/STM32_Cryptographic/Lib/libSTM32CryptographicV3.0.0_CM4_GCC.a(crypto.o)
MulBigbyUnInt                                     Middlewares/ST/STM32_Cryptographic/Lib/libSTM32CryptographicV3.0.0_CM4_GCC.a(crypto.o)
NAF_Binary_PointMul                               Middlewares/ST/STM32_Cryptographic/Lib/libSTM32CryptographicV3.0.0_CM4_GCC.a(crypto.o)
NMI_Handler                                       build/stm32f4xx_it.o
Normalize                                         Middlewares/ST/STM32_Cryptographic/Lib/libSTM32CryptographicV3.0.0_CM4_GCC.a(crypto.o)
OTG_FS_IRQHandler                                 build/stm32f4xx_it.o
OTG_FS_WKUP_IRQHandler                            build/startup_stm32f407xx.o
OTG_HS_EP1_IN_IRQHandler                          build/startup_stm32f407xx.o
OTG_HS_EP1_OUT_IRQHandler                         build/startup_stm32f407xx.o
OTG_HS_IRQHandler                                 build/startup_stm32f407xx.o
OTG_HS_WKUP_IRQHandler                            build/startup_stm32f407xx.o
OutputMessage                                     build/main.o
OutputMessageLength                               build/main.o
PVD_IRQHandler                                    build/startup_stm32f407xx.o
PendSV_Handler                                    build/stm32f4xx_it.o
Plaintext                                         build/main.o
Poly1305_Auth_Append                              Middlewares/ST/STM32_Cryptographic/Lib/libSTM32CryptographicV3.0.0_CM4_GCC.a(crypto.o)
Poly1305_Auth_Finish                              Middlewares/ST/STM32_Cryptographic/Lib/libSTM32CryptographicV3.0.0_CM4_GCC.a(crypto.o)
Poly1305_Auth_Init                                Middlewares/ST/STM32_Cryptographic/Lib/libSTM32CryptographicV3.0.0_CM4_GCC.a(crypto.o)
Poly1305_Core_Finish                              Middlewares/ST/STM32_Cryptographic/Lib/libSTM32CryptographicV3.0.0_CM4_GCC.a(crypto.o)
Poly1305_Core_Update                              Middlewares/ST/STM32_Cryptographic/Lib/libSTM32CryptographicV3.0.0_CM4_GCC.a(crypto.o)
Poly1305_Verify_Append                            Middlewares/ST/STM32_Cryptographic/Lib/libSTM32CryptographicV3.0.0_CM4_GCC.a(crypto.o)
Poly1305_Verify_Finish                            Middlewares/ST/STM32_Cryptographic/Lib/libSTM32CryptographicV3.0.0_CM4_GCC.a(crypto.o)
Poly1305_Verify_Init                              Middlewares/ST/STM32_Cryptographic/Lib/libSTM32CryptographicV3.0.0_CM4_GCC.a(crypto.o)
RCC_IRQHandler                                    build/startup_stm32f407xx.o
RNGfree                                           Middlewares/ST/STM32_Cryptographic/Lib/libSTM32CryptographicV3.0.0_CM4_GCC.a(crypto.o)
RNGgenBytes                                       Middlewares/ST/STM32_Cryptographic/Lib/libSTM32CryptographicV3.0.0_CM4_GCC.a(crypto.o)
RNGgenWords                                       Middlewares/ST/STM32_Cryptographic/Lib/libSTM32CryptographicV3.0.0_CM4_GCC.a(crypto.o)
RNGinit                                           Middlewares/ST/STM32_Cryptographic/Lib/libSTM32CryptographicV3.0.0_CM4_GCC.a(crypto.o)
RNGreseed                                         Middlewares/ST/STM32_Cryptographic/Lib/libSTM32CryptographicV3.0.0_CM4_GCC.a(crypto.o)
RSASP1                                            Middlewares/ST/STM32_Cryptographic/Lib/libSTM32CryptographicV3.0.0_CM4_GCC.a(crypto.o)
RSAVP1                                            Middlewares/ST/STM32_Cryptographic/Lib/libSTM32CryptographicV3.0.0_CM4_GCC.a(crypto.o)
RSA_CONF                                          Middlewares/ST/STM32_Cryptographic/Lib/libSTM32CryptographicV3.0.0_CM4_GCC.a(crypto.o)
RSA_PKCS1v15_Decrypt                              Middlewares/ST/STM32_Cryptographic/Lib/libSTM32CryptographicV3.0.0_CM4_GCC.a(crypto.o)
RSA_PKCS1v15_Encrypt                              Middlewares/ST/STM32_Cryptographic/Lib/libSTM32CryptographicV3.0.0_CM4_GCC.a(crypto.o)
RSA_PKCS1v15_Sign                                 Middlewares/ST/STM32_Cryptographic/Lib/libSTM32CryptographicV3.0.0_CM4_GCC.a(crypto.o)
RSA_PKCS1v15_Verify                               Middlewares/ST/STM32_Cryptographic/Lib/libSTM32CryptographicV3.0.0_CM4_GCC.a(crypto.o)
RTC_Alarm_IRQHandler                              build/startup_stm32f407xx.o
RTC_WKUP_IRQHandler                               build/startup_stm32f407xx.o
Reset_Handler                                     build/startup_stm32f407xx.o
RightShift                                        Middlewares/ST/STM32_Cryptographic/Lib/libSTM32CryptographicV3.0.0_CM4_GCC.a(crypto.o)
SDIO_IRQHandler                                   build/startup_stm32f407xx.o
SHA1Final                                         Middlewares/ST/STM32_Cryptographic/Lib/libSTM32CryptographicV3.0.0_CM4_GCC.a(crypto.o)
SHA1Init                                          Middlewares/ST/STM32_Cryptographic/Lib/libSTM32CryptographicV3.0.0_CM4_GCC.a(crypto.o)
SHA1Update                                        Middlewares/ST/STM32_Cryptographic/Lib/libSTM32CryptographicV3.0.0_CM4_GCC.a(crypto.o)
SHA1_Append                                       Middlewares/ST/STM32_Cryptographic/Lib/libSTM32CryptographicV3.0.0_CM4_GCC.a(crypto.o)
SHA1_Finish                                       Middlewares/ST/STM32_Cryptographic/Lib/libSTM32CryptographicV3.0.0_CM4_GCC.a(crypto.o)
SHA1_Init                                         Middlewares/ST/STM32_Cryptographic/Lib/libSTM32CryptographicV3.0.0_CM4_GCC.a(crypto.o)
SHA224Final                                       Middlewares/ST/STM32_Cryptographic/Lib/libSTM32CryptographicV3.0.0_CM4_GCC.a(crypto.o)
SHA224Init                                        Middlewares/ST/STM32_Cryptographic/Lib/libSTM32CryptographicV3.0.0_CM4_GCC.a(crypto.o)
SHA224_Append                                     Middlewares/ST/STM32_Cryptographic/Lib/libSTM32CryptographicV3.0.0_CM4_GCC.a(crypto.o)
SHA224_Finish                                     Middlewares/ST/STM32_Cryptographic/Lib/libSTM32CryptographicV3.0.0_CM4_GCC.a(crypto.o)
SHA224_Init                                       Middlewares/ST/STM32_Cryptographic/Lib/libSTM32CryptographicV3.0.0_CM4_GCC.a(crypto.o)
SHA256Final                                       Middlewares/ST/STM32_Cryptographic/Lib/libSTM32CryptographicV3.0.0_CM4_GCC.a(crypto.o)
SHA256Init                                        Middlewares/ST/STM32_Cryptographic/Lib/libSTM32CryptographicV3.0.0_CM4_GCC.a(crypto.o)
SHA256Update                                      Middlewares/ST/STM32_Cryptographic/Lib/libSTM32CryptographicV3.0.0_CM4_GCC.a(crypto.o)
SHA256_Append                                     Middlewares/ST/STM32_Cryptographic/Lib/libSTM32CryptographicV3.0.0_CM4_GCC.a(crypto.o)
SHA256_Finish                                     Middlewares/ST/STM32_Cryptographic/Lib/libSTM32CryptographicV3.0.0_CM4_GCC.a(crypto.o)
SHA256_Init                                       Middlewares/ST/STM32_Cryptographic/Lib/libSTM32CryptographicV3.0.0_CM4_GCC.a(crypto.o)
SHA384Final                                       Middlewares/ST/STM32_Cryptographic/Lib/libSTM32CryptographicV3.0.0_CM4_GCC.a(crypto.o)
SHA384Init                                        Middlewares/ST/STM32_Cryptographic/Lib/libSTM32CryptographicV3.0.0_CM4_GCC.a(crypto.o)
SHA384_Append                                     Middlewares/ST/STM32_Cryptographic/Lib/libSTM32CryptographicV3.0.0_CM4_GCC.a(crypto.o)
SHA384_Finish                                     Middlewares/ST/STM32_Cryptographic/Lib/libSTM32CryptographicV3.0.0_CM4_GCC.a(crypto.o)
SHA384_Init                                       Middlewares/ST/STM32_Cryptographic/Lib/libSTM32CryptographicV3.0.0_CM4_GCC.a(crypto.o)
SHA512Final                                       Middlewares/ST/STM32_Cryptographic/Lib/libSTM32CryptographicV3.0.0_CM4_GCC.a(crypto.o)
SHA512Init                                        Middlewares/ST/STM32_Cryptographic/Lib/libSTM32CryptographicV3.0.0_CM4_GCC.a(crypto.o)
SHA512Update                                      Middlewares/ST/STM32_Cryptographic/Lib/libSTM32CryptographicV3.0.0_CM4_GCC.a(crypto.o)
SHA512_Append                                     Middlewares/ST/STM32_Cryptographic/Lib/libSTM32CryptographicV3.0.0_CM4_GCC.a(crypto.o)
SHA512_Finish                                     Middlewares/ST/STM32_Cryptographic/Lib/libSTM32CryptographicV3.0.0_CM4_GCC.a(crypto.o)
SHA512_Init                                       Middlewares/ST/STM32_Cryptographic/Lib/libSTM32CryptographicV3.0.0_CM4_GCC.a(crypto.o)
SP1                                               Middlewares/ST/STM32_Cryptographic/Lib/libSTM32CryptographicV3.0.0_CM4_GCC.a(crypto.o)
SP2                                               Middlewares/ST/STM32_Cryptographic/Lib/libSTM32CryptographicV3.0.0_CM4_GCC.a(crypto.o)
SP3                                               Middlewares/ST/STM32_Cryptographic/Lib/libSTM32CryptographicV3.0.0_CM4_GCC.a(crypto.o)
SP4                                               Middlewares/ST/STM32_Cryptographic/Lib/libSTM32CryptographicV3.0.0_CM4_GCC.a(crypto.o)
SP5                                               Middlewares/ST/STM32_Cryptographic/Lib/libSTM32CryptographicV3.0.0_CM4_GCC.a(crypto.o)
SP6                                               Middlewares/ST/STM32_Cryptographic/Lib/libSTM32CryptographicV3.0.0_CM4_GCC.a(crypto.o)
SP7                                               Middlewares/ST/STM32_Cryptographic/Lib/libSTM32CryptographicV3.0.0_CM4_GCC.a(crypto.o)
SP8                                               Middlewares/ST/STM32_Cryptographic/Lib/libSTM32CryptographicV3.0.0_CM4_GCC.a(crypto.o)
SPI1_IRQHandler                                   build/startup_stm32f407xx.o
SPI2_IRQHandler                                   build/startup_stm32f407xx.o
SPI3_IRQHandler                                   build/startup_stm32f407xx.o
STM32_GetCryptoLibrarySettings                    Middlewares/ST/STM32_Cryptographic/Lib/libSTM32CryptographicV3.0.0_CM4_GCC.a(crypto.o)
SVC_Handler                                       build/stm32f4xx_it.o
SYM_KEY_CONF                                      Middlewares/ST/STM32_Cryptographic/Lib/libSTM32CryptographicV3.0.0_CM4_GCC.a(crypto.o)
SYM_KEY_MODES_CONF                                Middlewares/ST/STM32_Cryptographic/Lib/libSTM32CryptographicV3.0.0_CM4_GCC.a(crypto.o)
Sbox                                              Middlewares/ST/STM32_Cryptographic/Lib/libSTM32CryptographicV3.0.0_CM4_GCC.a(crypto.o)
SetZeroBig                                        Middlewares/ST/STM32_Cryptographic/Lib/libSTM32CryptographicV3.0.0_CM4_GCC.a(crypto.o)
SignBig                                           Middlewares/ST/STM32_Cryptographic/Lib/libSTM32CryptographicV3.0.0_CM4_GCC.a(crypto.o)
StAllocBig                                        Middlewares/ST/STM32_Cryptographic/Lib/libSTM32CryptographicV3.0.0_CM4_GCC.a(crypto.o)
StFreeBig                                         Middlewares/ST/STM32_Cryptographic/Lib/libSTM32CryptographicV3.0.0_CM4_GCC.a(crypto.o)
SubBig                                            Middlewares/ST/STM32_Cryptographic/Lib/libSTM32CryptographicV3.0.0_CM4_GCC.a(crypto.o)
Sub_Moduli_Big                                    Middlewares/ST/STM32_Cryptographic/Lib/libSTM32CryptographicV3.0.0_CM4_GCC.a(crypto.o)
SysTick_Handler                                   build/stm32f4xx_it.o
SystemClock_Config                                build/main.o
SystemCoreClock                                   build/system_stm32f4xx.o
                                                  build/stm32f4xx_hal.o
                                                  build/stm32f4xx_hal_dma.o
                                                  build/stm32f4xx_hal_rcc_ex.o
                                                  build/stm32f4xx_hal_rcc.o
SystemCoreClockUpdate                             build/system_stm32f4xx.o
SystemInit                                        build/system_stm32f4xx.o
                                                  build/startup_stm32f407xx.o
TAMP_STAMP_IRQHandler                             build/startup_stm32f407xx.o
TDES_CBC_Decrypt_Append                           Middlewares/ST/STM32_Cryptographic/Lib/libSTM32CryptographicV3.0.0_CM4_GCC.a(crypto.o)
TDES_CBC_Decrypt_Finish                           Middlewares/ST/STM32_Cryptographic/Lib/libSTM32CryptographicV3.0.0_CM4_GCC.a(crypto.o)
TDES_CBC_Decrypt_Init                             Middlewares/ST/STM32_Cryptographic/Lib/libSTM32CryptographicV3.0.0_CM4_GCC.a(crypto.o)
TDES_CBC_Encrypt_Append                           Middlewares/ST/STM32_Cryptographic/Lib/libSTM32CryptographicV3.0.0_CM4_GCC.a(crypto.o)
TDES_CBC_Encrypt_Finish                           Middlewares/ST/STM32_Cryptographic/Lib/libSTM32CryptographicV3.0.0_CM4_GCC.a(crypto.o)
TDES_CBC_Encrypt_Init                             Middlewares/ST/STM32_Cryptographic/Lib/libSTM32CryptographicV3.0.0_CM4_GCC.a(crypto.o)
TDES_ECB_Decrypt_Append                           Middlewares/ST/STM32_Cryptographic/Lib/libSTM32CryptographicV3.0.0_CM4_GCC.a(crypto.o)
TDES_ECB_Decrypt_Finish                           Middlewares/ST/STM32_Cryptographic/Lib/libSTM32CryptographicV3.0.0_CM4_GCC.a(crypto.o)
TDES_ECB_Decrypt_Init                             Middlewares/ST/STM32_Cryptographic/Lib/libSTM32CryptographicV3.0.0_CM4_GCC.a(crypto.o)
TDES_ECB_Encrypt_Append                           Middlewares/ST/STM32_Cryptographic/Lib/libSTM32CryptographicV3.0.0_CM4_GCC.a(crypto.o)
TDES_ECB_Encrypt_Finish                           Middlewares/ST/STM32_Cryptographic/Lib/libSTM32CryptographicV3.0.0_CM4_GCC.a(crypto.o)
TDES_ECB_Encrypt_Init                             Middlewares/ST/STM32_Cryptographic/Lib/libSTM32CryptographicV3.0.0_CM4_GCC.a(crypto.o)
TIM1_BRK_TIM9_IRQHandler                          build/startup_stm32f407xx.o
TIM1_CC_IRQHandler                                build/startup_stm32f407xx.o
TIM1_TRG_COM_TIM11_IRQHandler                     build/startup_stm32f407xx.o
TIM1_UP_TIM10_IRQHandler                          build/startup_stm32f407xx.o
TIM2_IRQHandler                                   build/startup_stm32f407xx.o
TIM3_IRQHandler                                   build/startup_stm32f407xx.o
TIM4_IRQHandler                                   build/startup_stm32f407xx.o
TIM5_IRQHandler                                   build/startup_stm32f407xx.o
TIM6_DAC_IRQHandler                               build/startup_stm32f407xx.o
TIM7_IRQHandler                                   build/startup_stm32f407xx.o
TIM8_BRK_TIM12_IRQHandler                         build/startup_stm32f407xx.o
TIM8_CC_IRQHandler                                build/startup_stm32f407xx.o
TIM8_TRG_COM_TIM14_IRQHandler                     build/startup_stm32f407xx.o
TIM8_UP_TIM13_IRQHandler                          build/startup_stm32f407xx.o
TYPE_CONF                                         Middlewares/ST/STM32_Cryptographic/Lib/libSTM32CryptographicV3.0.0_CM4_GCC.a(crypto.o)
UART4_IRQHandler                                  build/startup_stm32f407xx.o
UART5_IRQHandler                                  build/startup_stm32f407xx.o
USART1_IRQHandler                                 build/startup_stm32f407xx.o
USART2_IRQHandler                                 build/startup_stm32f407xx.o
USART3_IRQHandler                                 build/startup_stm32f407xx.o
USART6_IRQHandler                                 build/startup_stm32f407xx.o
USBD_CDC                                          build/usbd_cdc.o
                                                  build/usb_device.o
USBD_CDC_GetDeviceQualifierDescriptor             build/usbd_cdc.o
USBD_CDC_ReceivePacket                            build/usbd_cdc.o
                                                  build/usbd_cdc_if.o
USBD_CDC_RegisterInterface                        build/usbd_cdc.o
                                                  build/usb_device.o
USBD_CDC_SetRxBuffer                              build/usbd_cdc.o
                                                  build/usbd_cdc_if.o
USBD_CDC_SetTxBuffer                              build/usbd_cdc.o
                                                  build/usbd_cdc_if.o
USBD_CDC_TransmitPacket                           build/usbd_cdc.o
                                                  build/usbd_cdc_if.o
USBD_ClrClassConfig                               build/usbd_core.o
                                                  build/usbd_ctlreq.o
USBD_CtlContinueRx                                build/usbd_ioreq.o
                                                  build/usbd_core.o
USBD_CtlContinueSendData                          build/usbd_ioreq.o
                                                  build/usbd_core.o
USBD_CtlError                                     build/usbd_ctlreq.o
                                                  build/usbd_cdc.o
USBD_CtlPrepareRx                                 build/usbd_ioreq.o
                                                  build/usbd_cdc.o
USBD_CtlReceiveStatus                             build/usbd_ioreq.o
                                                  build/usbd_core.o
USBD_CtlSendData                                  build/usbd_ioreq.o
                                                  build/usbd_cdc.o
                                                  build/usbd_ctlreq.o
USBD_CtlSendStatus                                build/usbd_ioreq.o
                                                  build/usbd_ctlreq.o
                                                  build/usbd_core.o
USBD_DeInit                                       build/usbd_core.o
USBD_FS_ConfigStrDescriptor                       build/usbd_desc.o
USBD_FS_DeviceDesc                                build/usbd_desc.o
USBD_FS_DeviceDescriptor                          build/usbd_desc.o
USBD_FS_InterfaceStrDescriptor                    build/usbd_desc.o
USBD_FS_LangIDStrDescriptor                       build/usbd_desc.o
USBD_FS_ManufacturerStrDescriptor                 build/usbd_desc.o
USBD_FS_ProductStrDescriptor                      build/usbd_desc.o
USBD_FS_SerialStrDescriptor                       build/usbd_desc.o
USBD_GetRxCount                                   build/usbd_ioreq.o
USBD_GetString                                    build/usbd_ctlreq.o
                                                  build/usbd_desc.o
USBD_Get_USB_Status                               build/usbd_conf.o
USBD_Init                                         build/usbd_core.o
                                                  build/usb_device.o
USBD_Interface_fops_FS                            build/usbd_cdc_if.o
                                                  build/usb_device.o
USBD_LL_ClearStallEP                              build/usbd_conf.o
                                                  build/usbd_ctlreq.o
USBD_LL_CloseEP                                   build/usbd_conf.o
                                                  build/usbd_cdc.o
USBD_LL_DataInStage                               build/usbd_core.o
                                                  build/usbd_conf.o
USBD_LL_DataOutStage                              build/usbd_core.o
                                                  build/usbd_conf.o
USBD_LL_DeInit                                    build/usbd_conf.o
                                                  build/usbd_core.o
USBD_LL_Delay                                     build/usbd_conf.o
USBD_LL_DevConnected                              build/usbd_core.o
                                                  build/usbd_conf.o
USBD_LL_DevDisconnected                           build/usbd_core.o
                                                  build/usbd_conf.o
USBD_LL_FlushEP                                   build/usbd_conf.o
USBD_LL_GetRxDataSize                             build/usbd_conf.o
                                                  build/usbd_cdc.o
                                                  build/usbd_ioreq.o
USBD_LL_Init                                      build/usbd_conf.o
                                                  build/usbd_core.o
USBD_LL_IsStallEP                                 build/usbd_conf.o
                                                  build/usbd_ctlreq.o
USBD_LL_IsoINIncomplete                           build/usbd_core.o
                                                  build/usbd_conf.o
USBD_LL_IsoOUTIncomplete                          build/usbd_core.o
                                                  build/usbd_conf.o
USBD_LL_OpenEP                                    build/usbd_conf.o
                                                  build/usbd_cdc.o
                                                  build/usbd_core.o
USBD_LL_PrepareReceive                            build/usbd_conf.o
                                                  build/usbd_cdc.o
                                                  build/usbd_ioreq.o
                                                  build/usbd_core.o
USBD_LL_Reset                                     build/usbd_core.o
                                                  build/usbd_conf.o
USBD_LL_Resume                                    build/usbd_core.o
                                                  build/usbd_conf.o
USBD_LL_SOF                                       build/usbd_core.o
                                                  build/usbd_conf.o
USBD_LL_SetSpeed                                  build/usbd_core.o
                                                  build/usbd_conf.o
USBD_LL_SetUSBAddress                             build/usbd_conf.o
                                                  build/usbd_ctlreq.o
USBD_LL_SetupStage                                build/usbd_core.o
                                                  build/usbd_conf.o
USBD_LL_StallEP                                   build/usbd_conf.o
                                                  build/usbd_ctlreq.o
                                                  build/usbd_core.o
USBD_LL_Start                                     build/usbd_conf.o
                                                  build/usbd_core.o
USBD_LL_Stop                                      build/usbd_conf.o
                                                  build/usbd_core.o
USBD_LL_Suspend                                   build/usbd_core.o
                                                  build/usbd_conf.o
USBD_LL_Transmit                                  build/usbd_conf.o
                                                  build/usbd_cdc.o
                                                  build/usbd_ioreq.o
USBD_LangIDDesc                                   build/usbd_desc.o
USBD_ParseSetupRequest                            build/usbd_ctlreq.o
                                                  build/usbd_core.o
USBD_RegisterClass                                build/usbd_core.o
                                                  build/usb_device.o
USBD_RunTestMode                                  build/usbd_core.o
USBD_SetClassConfig                               build/usbd_core.o
                                                  build/usbd_ctlreq.o
USBD_Start                                        build/usbd_core.o
                                                  build/usb_device.o
USBD_StdDevReq                                    build/usbd_ctlreq.o
                                                  build/usbd_core.o
USBD_StdEPReq                                     build/usbd_ctlreq.o
                                                  build/usbd_core.o
USBD_StdItfReq                                    build/usbd_ctlreq.o
                                                  build/usbd_core.o
USBD_Stop                                         build/usbd_core.o
USBD_StrDesc                                      build/usbd_desc.o
USBD_StringSerial                                 build/usbd_desc.o
USBD_static_free                                  build/usbd_conf.o
                                                  build/usbd_cdc.o
USBD_static_malloc                                build/usbd_conf.o
                                                  build/usbd_cdc.o
USB_ActivateDedicatedEndpoint                     build/stm32f4xx_ll_usb.o
USB_ActivateEndpoint                              build/stm32f4xx_ll_usb.o
                                                  build/stm32f4xx_hal_pcd.o
USB_ActivateRemoteWakeup                          build/stm32f4xx_ll_usb.o
                                                  build/stm32f4xx_hal_pcd.o
USB_ActivateSetup                                 build/stm32f4xx_ll_usb.o
                                                  build/stm32f4xx_hal_pcd.o
USB_ClearInterrupts                               build/stm32f4xx_ll_usb.o
USB_CoreInit                                      build/stm32f4xx_ll_usb.o
                                                  build/stm32f4xx_hal_pcd.o
USB_DeActivateRemoteWakeup                        build/stm32f4xx_ll_usb.o
                                                  build/stm32f4xx_hal_pcd.o
USB_DeactivateDedicatedEndpoint                   build/stm32f4xx_ll_usb.o
USB_DeactivateEndpoint                            build/stm32f4xx_ll_usb.o
                                                  build/stm32f4xx_hal_pcd.o
USB_DevConnect                                    build/stm32f4xx_ll_usb.o
                                                  build/stm32f4xx_hal_pcd.o
USB_DevDisconnect                                 build/stm32f4xx_ll_usb.o
                                                  build/stm32f4xx_hal_pcd.o
USB_DevInit                                       build/stm32f4xx_ll_usb.o
                                                  build/stm32f4xx_hal_pcd.o
USB_DisableGlobalInt                              build/stm32f4xx_ll_usb.o
                                                  build/stm32f4xx_hal_pcd.o
USB_DoPing                                        build/stm32f4xx_ll_usb.o
USB_DriveVbus                                     build/stm32f4xx_ll_usb.o
USB_EP0StartXfer                                  build/stm32f4xx_ll_usb.o
                                                  build/stm32f4xx_hal_pcd.o
USB_EP0_OutStart                                  build/stm32f4xx_ll_usb.o
                                                  build/stm32f4xx_hal_pcd.o
USB_EPClearStall                                  build/stm32f4xx_ll_usb.o
                                                  build/stm32f4xx_hal_pcd.o
USB_EPSetStall                                    build/stm32f4xx_ll_usb.o
                                                  build/stm32f4xx_hal_pcd.o
USB_EPStartXfer                                   build/stm32f4xx_ll_usb.o
                                                  build/stm32f4xx_hal_pcd.o
USB_EnableGlobalInt                               build/stm32f4xx_ll_usb.o
                                                  build/stm32f4xx_hal_pcd.o
USB_FlushRxFifo                                   build/stm32f4xx_ll_usb.o
                                                  build/stm32f4xx_hal_pcd.o
USB_FlushTxFifo                                   build/stm32f4xx_ll_usb.o
                                                  build/stm32f4xx_hal_pcd.o
USB_GetCurrentFrame                               build/stm32f4xx_ll_usb.o
USB_GetDevSpeed                                   build/stm32f4xx_ll_usb.o
                                                  build/stm32f4xx_hal_pcd.o
USB_GetHostSpeed                                  build/stm32f4xx_ll_usb.o
USB_GetMode                                       build/stm32f4xx_ll_usb.o
                                                  build/stm32f4xx_hal_pcd.o
USB_HC_Halt                                       build/stm32f4xx_ll_usb.o
USB_HC_Init                                       build/stm32f4xx_ll_usb.o
USB_HC_ReadInterrupt                              build/stm32f4xx_ll_usb.o
USB_HC_StartXfer                                  build/stm32f4xx_ll_usb.o
USB_HostInit                                      build/stm32f4xx_ll_usb.o
USB_InitFSLSPClkSel                               build/stm32f4xx_ll_usb.o
USB_ReadDevAllInEpInterrupt                       build/stm32f4xx_ll_usb.o
                                                  build/stm32f4xx_hal_pcd.o
USB_ReadDevAllOutEpInterrupt                      build/stm32f4xx_ll_usb.o
                                                  build/stm32f4xx_hal_pcd.o
USB_ReadDevInEPInterrupt                          build/stm32f4xx_ll_usb.o
                                                  build/stm32f4xx_hal_pcd.o
USB_ReadDevOutEPInterrupt                         build/stm32f4xx_ll_usb.o
                                                  build/stm32f4xx_hal_pcd.o
USB_ReadInterrupts                                build/stm32f4xx_ll_usb.o
                                                  build/stm32f4xx_hal_pcd.o
USB_ReadPacket                                    build/stm32f4xx_ll_usb.o
                                                  build/stm32f4xx_hal_pcd.o
USB_ResetPort                                     build/stm32f4xx_ll_usb.o
USB_SetCurrentMode                                build/stm32f4xx_ll_usb.o
                                                  build/stm32f4xx_hal_pcd.o
USB_SetDevAddress                                 build/stm32f4xx_ll_usb.o
                                                  build/stm32f4xx_hal_pcd.o
USB_SetDevSpeed                                   build/stm32f4xx_ll_usb.o
USB_SetTurnaroundTime                             build/stm32f4xx_ll_usb.o
                                                  build/stm32f4xx_hal_pcd.o
USB_StopDevice                                    build/stm32f4xx_ll_usb.o
                                                  build/stm32f4xx_hal_pcd.o
USB_StopHost                                      build/stm32f4xx_ll_usb.o
USB_WritePacket                                   build/stm32f4xx_ll_usb.o
                                                  build/stm32f4xx_hal_pcd.o
UsageFault_Handler                                build/stm32f4xx_it.o
UserRxBufferFS                                    build/usbd_cdc_if.o
UserTxBufferFS                                    build/usbd_cdc_if.o
W32_to_W8                                         Middlewares/ST/STM32_Cryptographic/Lib/libSTM32CryptographicV3.0.0_CM4_GCC.a(crypto.o)
W8_to_Big                                         Middlewares/ST/STM32_Cryptographic/Lib/libSTM32CryptographicV3.0.0_CM4_GCC.a(crypto.o)
WWDG_IRQHandler                                   build/startup_stm32f407xx.o
__aeabi_idiv0                                     /usr/local/Cellar/arm-none-eabi-gcc/9-2019-q4-major/gcc/bin/../lib/gcc/arm-none-eabi/9.2.1/thumb/v7e-m+fp/softfp/libgcc.a(_dvmd_tls.o)
__aeabi_ldiv0                                     /usr/local/Cellar/arm-none-eabi-gcc/9-2019-q4-major/gcc/bin/../lib/gcc/arm-none-eabi/9.2.1/thumb/v7e-m+fp/softfp/libgcc.a(_dvmd_tls.o)
                                                  /usr/local/Cellar/arm-none-eabi-gcc/9-2019-q4-major/gcc/bin/../lib/gcc/arm-none-eabi/9.2.1/thumb/v7e-m+fp/softfp/libgcc.a(_aeabi_uldivmod.o)
__aeabi_uldivmod                                  /usr/local/Cellar/arm-none-eabi-gcc/9-2019-q4-major/gcc/bin/../lib/gcc/arm-none-eabi/9.2.1/thumb/v7e-m+fp/softfp/libgcc.a(_aeabi_uldivmod.o)
                                                  build/stm32f4xx_hal_rcc.o
__bss_end__                                       /usr/local/Cellar/arm-none-eabi-gcc/9-2019-q4-major/gcc/bin/../lib/gcc/arm-none-eabi/9.2.1/../../../../arm-none-eabi/lib/thumb/v7e-m+fp/softfp/crt0.o
__bss_start__                                     /usr/local/Cellar/arm-none-eabi-gcc/9-2019-q4-major/gcc/bin/../lib/gcc/arm-none-eabi/9.2.1/../../../../arm-none-eabi/lib/thumb/v7e-m+fp/softfp/crt0.o
__call_exitprocs                                  /usr/local/Cellar/arm-none-eabi-gcc/9-2019-q4-major/gcc/bin/../lib/gcc/arm-none-eabi/9.2.1/../../../../arm-none-eabi/lib/thumb/v7e-m+fp/softfp/libc_nano.a(lib_a-exit.o)
__deregister_frame_info                           /usr/local/Cellar/arm-none-eabi-gcc/9-2019-q4-major/gcc/bin/../lib/gcc/arm-none-eabi/9.2.1/thumb/v7e-m+fp/softfp/crtbegin.o
__dso_handle                                      /usr/local/Cellar/arm-none-eabi-gcc/9-2019-q4-major/gcc/bin/../lib/gcc/arm-none-eabi/9.2.1/thumb/v7e-m+fp/softfp/crtbegin.o
__init_array_end                                  /usr/local/Cellar/arm-none-eabi-gcc/9-2019-q4-major/gcc/bin/../lib/gcc/arm-none-eabi/9.2.1/../../../../arm-none-eabi/lib/thumb/v7e-m+fp/softfp/libc_nano.a(lib_a-init.o)
__init_array_start                                /usr/local/Cellar/arm-none-eabi-gcc/9-2019-q4-major/gcc/bin/../lib/gcc/arm-none-eabi/9.2.1/../../../../arm-none-eabi/lib/thumb/v7e-m+fp/softfp/libc_nano.a(lib_a-init.o)
__libc_fini_array                                 /usr/local/Cellar/arm-none-eabi-gcc/9-2019-q4-major/gcc/bin/../lib/gcc/arm-none-eabi/9.2.1/../../../../arm-none-eabi/lib/thumb/v7e-m+fp/softfp/crt0.o
__libc_init_array                                 /usr/local/Cellar/arm-none-eabi-gcc/9-2019-q4-major/gcc/bin/../lib/gcc/arm-none-eabi/9.2.1/../../../../arm-none-eabi/lib/thumb/v7e-m+fp/softfp/libc_nano.a(lib_a-init.o)
                                                  build/startup_stm32f407xx.o
                                                  /usr/local/Cellar/arm-none-eabi-gcc/9-2019-q4-major/gcc/bin/../lib/gcc/arm-none-eabi/9.2.1/../../../../arm-none-eabi/lib/thumb/v7e-m+fp/softfp/crt0.o
__lock___arc4random_mutex                         /usr/local/Cellar/arm-none-eabi-gcc/9-2019-q4-major/gcc/bin/../lib/gcc/arm-none-eabi/9.2.1/../../../../arm-none-eabi/lib/thumb/v7e-m+fp/softfp/libc_nano.a(lib_a-lock.o)
__lock___at_quick_exit_mutex                      /usr/local/Cellar/arm-none-eabi-gcc/9-2019-q4-major/gcc/bin/../lib/gcc/arm-none-eabi/9.2.1/../../../../arm-none-eabi/lib/thumb/v7e-m+fp/softfp/libc_nano.a(lib_a-lock.o)
__lock___atexit_recursive_mutex                   /usr/local/Cellar/arm-none-eabi-gcc/9-2019-q4-major/gcc/bin/../lib/gcc/arm-none-eabi/9.2.1/../../../../arm-none-eabi/lib/thumb/v7e-m+fp/softfp/libc_nano.a(lib_a-lock.o)
__lock___dd_hash_mutex                            /usr/local/Cellar/arm-none-eabi-gcc/9-2019-q4-major/gcc/bin/../lib/gcc/arm-none-eabi/9.2.1/../../../../arm-none-eabi/lib/thumb/v7e-m+fp/softfp/libc_nano.a(lib_a-lock.o)
__lock___env_recursive_mutex                      /usr/local/Cellar/arm-none-eabi-gcc/9-2019-q4-major/gcc/bin/../lib/gcc/arm-none-eabi/9.2.1/../../../../arm-none-eabi/lib/thumb/v7e-m+fp/softfp/libc_nano.a(lib_a-lock.o)
__lock___malloc_recursive_mutex                   /usr/local/Cellar/arm-none-eabi-gcc/9-2019-q4-major/gcc/bin/../lib/gcc/arm-none-eabi/9.2.1/../../../../arm-none-eabi/lib/thumb/v7e-m+fp/softfp/libc_nano.a(lib_a-lock.o)
                                                  /usr/local/Cellar/arm-none-eabi-gcc/9-2019-q4-major/gcc/bin/../lib/gcc/arm-none-eabi/9.2.1/../../../../arm-none-eabi/lib/thumb/v7e-m+fp/softfp/libc_nano.a(lib_a-mlock.o)
__lock___sfp_recursive_mutex                      /usr/local/Cellar/arm-none-eabi-gcc/9-2019-q4-major/gcc/bin/../lib/gcc/arm-none-eabi/9.2.1/../../../../arm-none-eabi/lib/thumb/v7e-m+fp/softfp/libc_nano.a(lib_a-lock.o)
__lock___sinit_recursive_mutex                    /usr/local/Cellar/arm-none-eabi-gcc/9-2019-q4-major/gcc/bin/../lib/gcc/arm-none-eabi/9.2.1/../../../../arm-none-eabi/lib/thumb/v7e-m+fp/softfp/libc_nano.a(lib_a-lock.o)
__lock___tz_mutex                                 /usr/local/Cellar/arm-none-eabi-gcc/9-2019-q4-major/gcc/bin/../lib/gcc/arm-none-eabi/9.2.1/../../../../arm-none-eabi/lib/thumb/v7e-m+fp/softfp/libc_nano.a(lib_a-lock.o)
__malloc_free_list                                /usr/local/Cellar/arm-none-eabi-gcc/9-2019-q4-major/gcc/bin/../lib/gcc/arm-none-eabi/9.2.1/../../../../arm-none-eabi/lib/thumb/v7e-m+fp/softfp/libc_nano.a(lib_a-nano-mallocr.o)
                                                  /usr/local/Cellar/arm-none-eabi-gcc/9-2019-q4-major/gcc/bin/../lib/gcc/arm-none-eabi/9.2.1/../../../../arm-none-eabi/lib/thumb/v7e-m+fp/softfp/libc_nano.a(lib_a-nano-freer.o)
__malloc_lock                                     /usr/local/Cellar/arm-none-eabi-gcc/9-2019-q4-major/gcc/bin/../lib/gcc/arm-none-eabi/9.2.1/../../../../arm-none-eabi/lib/thumb/v7e-m+fp/softfp/libc_nano.a(lib_a-mlock.o)
                                                  /usr/local/Cellar/arm-none-eabi-gcc/9-2019-q4-major/gcc/bin/../lib/gcc/arm-none-eabi/9.2.1/../../../../arm-none-eabi/lib/thumb/v7e-m+fp/softfp/libc_nano.a(lib_a-nano-mallocr.o)
                                                  /usr/local/Cellar/arm-none-eabi-gcc/9-2019-q4-major/gcc/bin/../lib/gcc/arm-none-eabi/9.2.1/../../../../arm-none-eabi/lib/thumb/v7e-m+fp/softfp/libc_nano.a(lib_a-nano-freer.o)
__malloc_sbrk_start                               /usr/local/Cellar/arm-none-eabi-gcc/9-2019-q4-major/gcc/bin/../lib/gcc/arm-none-eabi/9.2.1/../../../../arm-none-eabi/lib/thumb/v7e-m+fp/softfp/libc_nano.a(lib_a-nano-mallocr.o)
__malloc_unlock                                   /usr/local/Cellar/arm-none-eabi-gcc/9-2019-q4-major/gcc/bin/../lib/gcc/arm-none-eabi/9.2.1/../../../../arm-none-eabi/lib/thumb/v7e-m+fp/softfp/libc_nano.a(lib_a-mlock.o)
                                                  /usr/local/Cellar/arm-none-eabi-gcc/9-2019-q4-major/gcc/bin/../lib/gcc/arm-none-eabi/9.2.1/../../../../arm-none-eabi/lib/thumb/v7e-m+fp/softfp/libc_nano.a(lib_a-nano-mallocr.o)
                                                  /usr/local/Cellar/arm-none-eabi-gcc/9-2019-q4-major/gcc/bin/../lib/gcc/arm-none-eabi/9.2.1/../../../../arm-none-eabi/lib/thumb/v7e-m+fp/softfp/libc_nano.a(lib_a-nano-freer.o)
__preinit_array_end                               /usr/local/Cellar/arm-none-eabi-gcc/9-2019-q4-major/gcc/bin/../lib/gcc/arm-none-eabi/9.2.1/../../../../arm-none-eabi/lib/thumb/v7e-m+fp/softfp/libc_nano.a(lib_a-init.o)
__preinit_array_start                             /usr/local/Cellar/arm-none-eabi-gcc/9-2019-q4-major/gcc/bin/../lib/gcc/arm-none-eabi/9.2.1/../../../../arm-none-eabi/lib/thumb/v7e-m+fp/softfp/libc_nano.a(lib_a-init.o)
__register_frame_info                             /usr/local/Cellar/arm-none-eabi-gcc/9-2019-q4-major/gcc/bin/../lib/gcc/arm-none-eabi/9.2.1/thumb/v7e-m+fp/softfp/crtbegin.o
__retarget_lock_acquire                           /usr/local/Cellar/arm-none-eabi-gcc/9-2019-q4-major/gcc/bin/../lib/gcc/arm-none-eabi/9.2.1/../../../../arm-none-eabi/lib/thumb/v7e-m+fp/softfp/libc_nano.a(lib_a-lock.o)
__retarget_lock_acquire_recursive                 /usr/local/Cellar/arm-none-eabi-gcc/9-2019-q4-major/gcc/bin/../lib/gcc/arm-none-eabi/9.2.1/../../../../arm-none-eabi/lib/thumb/v7e-m+fp/softfp/libc_nano.a(lib_a-lock.o)
                                                  /usr/local/Cellar/arm-none-eabi-gcc/9-2019-q4-major/gcc/bin/../lib/gcc/arm-none-eabi/9.2.1/../../../../arm-none-eabi/lib/thumb/v7e-m+fp/softfp/libc_nano.a(lib_a-mlock.o)
__retarget_lock_close                             /usr/local/Cellar/arm-none-eabi-gcc/9-2019-q4-major/gcc/bin/../lib/gcc/arm-none-eabi/9.2.1/../../../../arm-none-eabi/lib/thumb/v7e-m+fp/softfp/libc_nano.a(lib_a-lock.o)
__retarget_lock_close_recursive                   /usr/local/Cellar/arm-none-eabi-gcc/9-2019-q4-major/gcc/bin/../lib/gcc/arm-none-eabi/9.2.1/../../../../arm-none-eabi/lib/thumb/v7e-m+fp/softfp/libc_nano.a(lib_a-lock.o)
__retarget_lock_init                              /usr/local/Cellar/arm-none-eabi-gcc/9-2019-q4-major/gcc/bin/../lib/gcc/arm-none-eabi/9.2.1/../../../../arm-none-eabi/lib/thumb/v7e-m+fp/softfp/libc_nano.a(lib_a-lock.o)
__retarget_lock_init_recursive                    /usr/local/Cellar/arm-none-eabi-gcc/9-2019-q4-major/gcc/bin/../lib/gcc/arm-none-eabi/9.2.1/../../../../arm-none-eabi/lib/thumb/v7e-m+fp/softfp/libc_nano.a(lib_a-lock.o)
__retarget_lock_release                           /usr/local/Cellar/arm-none-eabi-gcc/9-2019-q4-major/gcc/bin/../lib/gcc/arm-none-eabi/9.2.1/../../../../arm-none-eabi/lib/thumb/v7e-m+fp/softfp/libc_nano.a(lib_a-lock.o)
__retarget_lock_release_recursive                 /usr/local/Cellar/arm-none-eabi-gcc/9-2019-q4-major/gcc/bin/../lib/gcc/arm-none-eabi/9.2.1/../../../../arm-none-eabi/lib/thumb/v7e-m+fp/softfp/libc_nano.a(lib_a-lock.o)
                                                  /usr/local/Cellar/arm-none-eabi-gcc/9-2019-q4-major/gcc/bin/../lib/gcc/arm-none-eabi/9.2.1/../../../../arm-none-eabi/lib/thumb/v7e-m+fp/softfp/libc_nano.a(lib_a-mlock.o)
__retarget_lock_try_acquire                       /usr/local/Cellar/arm-none-eabi-gcc/9-2019-q4-major/gcc/bin/../lib/gcc/arm-none-eabi/9.2.1/../../../../arm-none-eabi/lib/thumb/v7e-m+fp/softfp/libc_nano.a(lib_a-lock.o)
__retarget_lock_try_acquire_recursive             /usr/local/Cellar/arm-none-eabi-gcc/9-2019-q4-major/gcc/bin/../lib/gcc/arm-none-eabi/9.2.1/../../../../arm-none-eabi/lib/thumb/v7e-m+fp/softfp/libc_nano.a(lib_a-lock.o)
__sf_fake_stderr                                  /usr/local/Cellar/arm-none-eabi-gcc/9-2019-q4-major/gcc/bin/../lib/gcc/arm-none-eabi/9.2.1/../../../../arm-none-eabi/lib/thumb/v7e-m+fp/softfp/libc_nano.a(lib_a-impure.o)
__sf_fake_stdin                                   /usr/local/Cellar/arm-none-eabi-gcc/9-2019-q4-major/gcc/bin/../lib/gcc/arm-none-eabi/9.2.1/../../../../arm-none-eabi/lib/thumb/v7e-m+fp/softfp/libc_nano.a(lib_a-impure.o)
__sf_fake_stdout                                  /usr/local/Cellar/arm-none-eabi-gcc/9-2019-q4-major/gcc/bin/../lib/gcc/arm-none-eabi/9.2.1/../../../../arm-none-eabi/lib/thumb/v7e-m+fp/softfp/libc_nano.a(lib_a-impure.o)
__ssprint_r                                       /usr/local/Cellar/arm-none-eabi-gcc/9-2019-q4-major/gcc/bin/../lib/gcc/arm-none-eabi/9.2.1/../../../../arm-none-eabi/lib/thumb/v7e-m+fp/softfp/libc_nano.a(lib_a-nano-svfprintf.o)
__ssputs_r                                        /usr/local/Cellar/arm-none-eabi-gcc/9-2019-q4-major/gcc/bin/../lib/gcc/arm-none-eabi/9.2.1/../../../../arm-none-eabi/lib/thumb/v7e-m+fp/softfp/libc_nano.a(lib_a-nano-svfprintf.o)
__stack                                           /usr/local/Cellar/arm-none-eabi-gcc/9-2019-q4-major/gcc/bin/../lib/gcc/arm-none-eabi/9.2.1/../../../../arm-none-eabi/lib/thumb/v7e-m+fp/softfp/crt0.o
__udivmoddi4                                      /usr/local/Cellar/arm-none-eabi-gcc/9-2019-q4-major/gcc/bin/../lib/gcc/arm-none-eabi/9.2.1/thumb/v7e-m+fp/softfp/libgcc.a(_udivmoddi4.o)
                                                  /usr/local/Cellar/arm-none-eabi-gcc/9-2019-q4-major/gcc/bin/../lib/gcc/arm-none-eabi/9.2.1/thumb/v7e-m+fp/softfp/libgcc.a(_aeabi_uldivmod.o)
_ebss                                             build/startup_stm32f407xx.o
_edata                                            build/startup_stm32f407xx.o
_estack                                           build/startup_stm32f407xx.o
_exit                                             /usr/local/Cellar/arm-none-eabi-gcc/9-2019-q4-major/gcc/bin/../lib/gcc/arm-none-eabi/9.2.1/../../../../arm-none-eabi/lib/thumb/v7e-m+fp/softfp/libnosys.a(_exit.o)
                                                  /usr/local/Cellar/arm-none-eabi-gcc/9-2019-q4-major/gcc/bin/../lib/gcc/arm-none-eabi/9.2.1/../../../../arm-none-eabi/lib/thumb/v7e-m+fp/softfp/libc_nano.a(lib_a-exit.o)
_fini                                             /usr/local/Cellar/arm-none-eabi-gcc/9-2019-q4-major/gcc/bin/../lib/gcc/arm-none-eabi/9.2.1/thumb/v7e-m+fp/softfp/crti.o
_free_r                                           /usr/local/Cellar/arm-none-eabi-gcc/9-2019-q4-major/gcc/bin/../lib/gcc/arm-none-eabi/9.2.1/../../../../arm-none-eabi/lib/thumb/v7e-m+fp/softfp/libc_nano.a(lib_a-nano-freer.o)
                                                  /usr/local/Cellar/arm-none-eabi-gcc/9-2019-q4-major/gcc/bin/../lib/gcc/arm-none-eabi/9.2.1/../../../../arm-none-eabi/lib/thumb/v7e-m+fp/softfp/libc_nano.a(lib_a-nano-reallocr.o)
                                                  /usr/local/Cellar/arm-none-eabi-gcc/9-2019-q4-major/gcc/bin/../lib/gcc/arm-none-eabi/9.2.1/../../../../arm-none-eabi/lib/thumb/v7e-m+fp/softfp/libc_nano.a(lib_a-reent.o)
                                                  /usr/local/Cellar/arm-none-eabi-gcc/9-2019-q4-major/gcc/bin/../lib/gcc/arm-none-eabi/9.2.1/../../../../arm-none-eabi/lib/thumb/v7e-m+fp/softfp/libc_nano.a(lib_a-nano-svfprintf.o)
                                                  /usr/local/Cellar/arm-none-eabi-gcc/9-2019-q4-major/gcc/bin/../lib/gcc/arm-none-eabi/9.2.1/../../../../arm-none-eabi/lib/thumb/v7e-m+fp/softfp/libc_nano.a(lib_a-malloc.o)
_global_impure_ptr                                /usr/local/Cellar/arm-none-eabi-gcc/9-2019-q4-major/gcc/bin/../lib/gcc/arm-none-eabi/9.2.1/../../../../arm-none-eabi/lib/thumb/v7e-m+fp/softfp/libc_nano.a(lib_a-impure.o)
                                                  /usr/local/Cellar/arm-none-eabi-gcc/9-2019-q4-major/gcc/bin/../lib/gcc/arm-none-eabi/9.2.1/../../../../arm-none-eabi/lib/thumb/v7e-m+fp/softfp/libc_nano.a(lib_a-exit.o)
_impure_ptr                                       /usr/local/Cellar/arm-none-eabi-gcc/9-2019-q4-major/gcc/bin/../lib/gcc/arm-none-eabi/9.2.1/../../../../arm-none-eabi/lib/thumb/v7e-m+fp/softfp/libc_nano.a(lib_a-impure.o)
                                                  /usr/local/Cellar/arm-none-eabi-gcc/9-2019-q4-major/gcc/bin/../lib/gcc/arm-none-eabi/9.2.1/../../../../arm-none-eabi/lib/thumb/v7e-m+fp/softfp/libc_nano.a(lib_a-reent.o)
                                                  /usr/local/Cellar/arm-none-eabi-gcc/9-2019-q4-major/gcc/bin/../lib/gcc/arm-none-eabi/9.2.1/../../../../arm-none-eabi/lib/thumb/v7e-m+fp/softfp/libc_nano.a(lib_a-sprintf.o)
                                                  /usr/local/Cellar/arm-none-eabi-gcc/9-2019-q4-major/gcc/bin/../lib/gcc/arm-none-eabi/9.2.1/../../../../arm-none-eabi/lib/thumb/v7e-m+fp/softfp/libc_nano.a(lib_a-malloc.o)
_init                                             /usr/local/Cellar/arm-none-eabi-gcc/9-2019-q4-major/gcc/bin/../lib/gcc/arm-none-eabi/9.2.1/thumb/v7e-m+fp/softfp/crti.o
                                                  /usr/local/Cellar/arm-none-eabi-gcc/9-2019-q4-major/gcc/bin/../lib/gcc/arm-none-eabi/9.2.1/../../../../arm-none-eabi/lib/thumb/v7e-m+fp/softfp/libc_nano.a(lib_a-init.o)
_mainCRTStartup                                   /usr/local/Cellar/arm-none-eabi-gcc/9-2019-q4-major/gcc/bin/../lib/gcc/arm-none-eabi/9.2.1/../../../../arm-none-eabi/lib/thumb/v7e-m+fp/softfp/crt0.o
_malloc_r                                         /usr/local/Cellar/arm-none-eabi-gcc/9-2019-q4-major/gcc/bin/../lib/gcc/arm-none-eabi/9.2.1/../../../../arm-none-eabi/lib/thumb/v7e-m+fp/softfp/libc_nano.a(lib_a-nano-mallocr.o)
                                                  /usr/local/Cellar/arm-none-eabi-gcc/9-2019-q4-major/gcc/bin/../lib/gcc/arm-none-eabi/9.2.1/../../../../arm-none-eabi/lib/thumb/v7e-m+fp/softfp/libc_nano.a(lib_a-nano-reallocr.o)
                                                  /usr/local/Cellar/arm-none-eabi-gcc/9-2019-q4-major/gcc/bin/../lib/gcc/arm-none-eabi/9.2.1/../../../../arm-none-eabi/lib/thumb/v7e-m+fp/softfp/libc_nano.a(lib_a-nano-svfprintf.o)
                                                  /usr/local/Cellar/arm-none-eabi-gcc/9-2019-q4-major/gcc/bin/../lib/gcc/arm-none-eabi/9.2.1/../../../../arm-none-eabi/lib/thumb/v7e-m+fp/softfp/libc_nano.a(lib_a-malloc.o)
_malloc_usable_size_r                             /usr/local/Cellar/arm-none-eabi-gcc/9-2019-q4-major/gcc/bin/../lib/gcc/arm-none-eabi/9.2.1/../../../../arm-none-eabi/lib/thumb/v7e-m+fp/softfp/libc_nano.a(lib_a-nano-msizer.o)
                                                  /usr/local/Cellar/arm-none-eabi-gcc/9-2019-q4-major/gcc/bin/../lib/gcc/arm-none-eabi/9.2.1/../../../../arm-none-eabi/lib/thumb/v7e-m+fp/softfp/libc_nano.a(lib_a-nano-reallocr.o)
_printf_common                                    /usr/local/Cellar/arm-none-eabi-gcc/9-2019-q4-major/gcc/bin/../lib/gcc/arm-none-eabi/9.2.1/../../../../arm-none-eabi/lib/thumb/v7e-m+fp/softfp/libc_nano.a(lib_a-nano-vfprintf_i.o)
_printf_float                                     /usr/local/Cellar/arm-none-eabi-gcc/9-2019-q4-major/gcc/bin/../lib/gcc/arm-none-eabi/9.2.1/../../../../arm-none-eabi/lib/thumb/v7e-m+fp/softfp/libc_nano.a(lib_a-nano-svfprintf.o)
_printf_i                                         /usr/local/Cellar/arm-none-eabi-gcc/9-2019-q4-major/gcc/bin/../lib/gcc/arm-none-eabi/9.2.1/../../../../arm-none-eabi/lib/thumb/v7e-m+fp/softfp/libc_nano.a(lib_a-nano-vfprintf_i.o)
                                                  /usr/local/Cellar/arm-none-eabi-gcc/9-2019-q4-major/gcc/bin/../lib/gcc/arm-none-eabi/9.2.1/../../../../arm-none-eabi/lib/thumb/v7e-m+fp/softfp/libc_nano.a(lib_a-nano-svfprintf.o)
_realloc_r                                        /usr/local/Cellar/arm-none-eabi-gcc/9-2019-q4-major/gcc/bin/../lib/gcc/arm-none-eabi/9.2.1/../../../../arm-none-eabi/lib/thumb/v7e-m+fp/softfp/libc_nano.a(lib_a-nano-reallocr.o)
                                                  /usr/local/Cellar/arm-none-eabi-gcc/9-2019-q4-major/gcc/bin/../lib/gcc/arm-none-eabi/9.2.1/../../../../arm-none-eabi/lib/thumb/v7e-m+fp/softfp/libc_nano.a(lib_a-nano-svfprintf.o)
_reclaim_reent                                    /usr/local/Cellar/arm-none-eabi-gcc/9-2019-q4-major/gcc/bin/../lib/gcc/arm-none-eabi/9.2.1/../../../../arm-none-eabi/lib/thumb/v7e-m+fp/softfp/libc_nano.a(lib_a-reent.o)
_sbrk                                             /usr/local/Cellar/arm-none-eabi-gcc/9-2019-q4-major/gcc/bin/../lib/gcc/arm-none-eabi/9.2.1/../../../../arm-none-eabi/lib/thumb/v7e-m+fp/softfp/libnosys.a(sbrk.o)
                                                  /usr/local/Cellar/arm-none-eabi-gcc/9-2019-q4-major/gcc/bin/../lib/gcc/arm-none-eabi/9.2.1/../../../../arm-none-eabi/lib/thumb/v7e-m+fp/softfp/libc_nano.a(lib_a-sbrkr.o)
_sbrk_r                                           /usr/local/Cellar/arm-none-eabi-gcc/9-2019-q4-major/gcc/bin/../lib/gcc/arm-none-eabi/9.2.1/../../../../arm-none-eabi/lib/thumb/v7e-m+fp/softfp/libc_nano.a(lib_a-sbrkr.o)
                                                  /usr/local/Cellar/arm-none-eabi-gcc/9-2019-q4-major/gcc/bin/../lib/gcc/arm-none-eabi/9.2.1/../../../../arm-none-eabi/lib/thumb/v7e-m+fp/softfp/libc_nano.a(lib_a-nano-mallocr.o)
_sbss                                             build/startup_stm32f407xx.o
_sdata                                            build/startup_stm32f407xx.o
_sidata                                           build/startup_stm32f407xx.o
_siprintf_r                                       /usr/local/Cellar/arm-none-eabi-gcc/9-2019-q4-major/gcc/bin/../lib/gcc/arm-none-eabi/9.2.1/../../../../arm-none-eabi/lib/thumb/v7e-m+fp/softfp/libc_nano.a(lib_a-sprintf.o)
_sprintf_r                                        /usr/local/Cellar/arm-none-eabi-gcc/9-2019-q4-major/gcc/bin/../lib/gcc/arm-none-eabi/9.2.1/../../../../arm-none-eabi/lib/thumb/v7e-m+fp/softfp/libc_nano.a(lib_a-sprintf.o)
_start                                            /usr/local/Cellar/arm-none-eabi-gcc/9-2019-q4-major/gcc/bin/../lib/gcc/arm-none-eabi/9.2.1/../../../../arm-none-eabi/lib/thumb/v7e-m+fp/softfp/crt0.o
_svfiprintf_r                                     /usr/local/Cellar/arm-none-eabi-gcc/9-2019-q4-major/gcc/bin/../lib/gcc/arm-none-eabi/9.2.1/../../../../arm-none-eabi/lib/thumb/v7e-m+fp/softfp/libc_nano.a(lib_a-nano-svfprintf.o)
_svfprintf_r                                      /usr/local/Cellar/arm-none-eabi-gcc/9-2019-q4-major/gcc/bin/../lib/gcc/arm-none-eabi/9.2.1/../../../../arm-none-eabi/lib/thumb/v7e-m+fp/softfp/libc_nano.a(lib_a-nano-svfprintf.o)
                                                  /usr/local/Cellar/arm-none-eabi-gcc/9-2019-q4-major/gcc/bin/../lib/gcc/arm-none-eabi/9.2.1/../../../../arm-none-eabi/lib/thumb/v7e-m+fp/softfp/libc_nano.a(lib_a-sprintf.o)
atexit                                            /usr/local/Cellar/arm-none-eabi-gcc/9-2019-q4-major/gcc/bin/../lib/gcc/arm-none-eabi/9.2.1/../../../../arm-none-eabi/lib/thumb/v7e-m+fp/softfp/crt0.o
cleanup_glue                                      /usr/local/Cellar/arm-none-eabi-gcc/9-2019-q4-major/gcc/bin/../lib/gcc/arm-none-eabi/9.2.1/../../../../arm-none-eabi/lib/thumb/v7e-m+fp/softfp/libc_nano.a(lib_a-reent.o)
crl_DRBG_AES128_Generate                          Middlewares/ST/STM32_Cryptographic/Lib/libSTM32CryptographicV3.0.0_CM4_GCC.a(crypto.o)
crl_DRBG_AES128_Instantiate                       Middlewares/ST/STM32_Cryptographic/Lib/libSTM32CryptographicV3.0.0_CM4_GCC.a(crypto.o)
crl_DRBG_AES128_Reseed                            Middlewares/ST/STM32_Cryptographic/Lib/libSTM32CryptographicV3.0.0_CM4_GCC.a(crypto.o)
crl_u_MD5_Finish                                  Middlewares/ST/STM32_Cryptographic/Lib/libSTM32CryptographicV3.0.0_CM4_GCC.a(crypto.o)
crl_u_MD5_Init                                    Middlewares/ST/STM32_Cryptographic/Lib/libSTM32CryptographicV3.0.0_CM4_GCC.a(crypto.o)
crl_u_MD5_Update                                  Middlewares/ST/STM32_Cryptographic/Lib/libSTM32CryptographicV3.0.0_CM4_GCC.a(crypto.o)
dec_table                                         Middlewares/ST/STM32_Cryptographic/Lib/libSTM32CryptographicV3.0.0_CM4_GCC.a(crypto.o)
enc_table                                         Middlewares/ST/STM32_Cryptographic/Lib/libSTM32CryptographicV3.0.0_CM4_GCC.a(crypto.o)
end                                               /usr/local/Cellar/arm-none-eabi-gcc/9-2019-q4-major/gcc/bin/../lib/gcc/arm-none-eabi/9.2.1/../../../../arm-none-eabi/lib/thumb/v7e-m+fp/softfp/libnosys.a(sbrk.o)
errno                                             /usr/local/Cellar/arm-none-eabi-gcc/9-2019-q4-major/gcc/bin/../lib/gcc/arm-none-eabi/9.2.1/../../../../arm-none-eabi/lib/thumb/v7e-m+fp/softfp/libc_nano.a(lib_a-reent.o)
                                                  /usr/local/Cellar/arm-none-eabi-gcc/9-2019-q4-major/gcc/bin/../lib/gcc/arm-none-eabi/9.2.1/../../../../arm-none-eabi/lib/thumb/v7e-m+fp/softfp/libc_nano.a(lib_a-sbrkr.o)
exit                                              /usr/local/Cellar/arm-none-eabi-gcc/9-2019-q4-major/gcc/bin/../lib/gcc/arm-none-eabi/9.2.1/../../../../arm-none-eabi/lib/thumb/v7e-m+fp/softfp/libc_nano.a(lib_a-exit.o)
                                                  /usr/local/Cellar/arm-none-eabi-gcc/9-2019-q4-major/gcc/bin/../lib/gcc/arm-none-eabi/9.2.1/../../../../arm-none-eabi/lib/thumb/v7e-m+fp/softfp/crt0.o
fe25519_add                                       Middlewares/ST/STM32_Cryptographic/Lib/libSTM32CryptographicV3.0.0_CM4_GCC.a(crypto.o)
fe25519_cmov                                      Middlewares/ST/STM32_Cryptographic/Lib/libSTM32CryptographicV3.0.0_CM4_GCC.a(crypto.o)
fe25519_copy                                      Middlewares/ST/STM32_Cryptographic/Lib/libSTM32CryptographicV3.0.0_CM4_GCC.a(crypto.o)
fe25519_freeze                                    Middlewares/ST/STM32_Cryptographic/Lib/libSTM32CryptographicV3.0.0_CM4_GCC.a(crypto.o)
fe25519_getparity                                 Middlewares/ST/STM32_Cryptographic/Lib/libSTM32CryptographicV3.0.0_CM4_GCC.a(crypto.o)
fe25519_invert                                    Middlewares/ST/STM32_Cryptographic/Lib/libSTM32CryptographicV3.0.0_CM4_GCC.a(crypto.o)
fe25519_iseq_vartime                              Middlewares/ST/STM32_Cryptographic/Lib/libSTM32CryptographicV3.0.0_CM4_GCC.a(crypto.o)
fe25519_mul                                       Middlewares/ST/STM32_Cryptographic/Lib/libSTM32CryptographicV3.0.0_CM4_GCC.a(crypto.o)
fe25519_mult121665                                Middlewares/ST/STM32_Cryptographic/Lib/libSTM32CryptographicV3.0.0_CM4_GCC.a(crypto.o)
fe25519_neg                                       Middlewares/ST/STM32_Cryptographic/Lib/libSTM32CryptographicV3.0.0_CM4_GCC.a(crypto.o)
fe25519_pack                                      Middlewares/ST/STM32_Cryptographic/Lib/libSTM32CryptographicV3.0.0_CM4_GCC.a(crypto.o)
fe25519_pow2523                                   Middlewares/ST/STM32_Cryptographic/Lib/libSTM32CryptographicV3.0.0_CM4_GCC.a(crypto.o)
fe25519_setone                                    Middlewares/ST/STM32_Cryptographic/Lib/libSTM32CryptographicV3.0.0_CM4_GCC.a(crypto.o)
fe25519_setzero                                   Middlewares/ST/STM32_Cryptographic/Lib/libSTM32CryptographicV3.0.0_CM4_GCC.a(crypto.o)
fe25519_square                                    Middlewares/ST/STM32_Cryptographic/Lib/libSTM32CryptographicV3.0.0_CM4_GCC.a(crypto.o)
fe25519_sub                                       Middlewares/ST/STM32_Cryptographic/Lib/libSTM32CryptographicV3.0.0_CM4_GCC.a(crypto.o)
fe25519_unpack                                    Middlewares/ST/STM32_Cryptographic/Lib/libSTM32CryptographicV3.0.0_CM4_GCC.a(crypto.o)
free                                              /usr/local/Cellar/arm-none-eabi-gcc/9-2019-q4-major/gcc/bin/../lib/gcc/arm-none-eabi/9.2.1/../../../../arm-none-eabi/lib/thumb/v7e-m+fp/softfp/libc_nano.a(lib_a-malloc.o)
g_pfnVectors                                      build/startup_stm32f407xx.o
ge25519_base                                      Middlewares/ST/STM32_Cryptographic/Lib/libSTM32CryptographicV3.0.0_CM4_GCC.a(crypto.o)
ge25519_double_scalarmult_vartime                 Middlewares/ST/STM32_Cryptographic/Lib/libSTM32CryptographicV3.0.0_CM4_GCC.a(crypto.o)
ge25519_pack                                      Middlewares/ST/STM32_Cryptographic/Lib/libSTM32CryptographicV3.0.0_CM4_GCC.a(crypto.o)
ge25519_scalarmult_base                           Middlewares/ST/STM32_Cryptographic/Lib/libSTM32CryptographicV3.0.0_CM4_GCC.a(crypto.o)
ge25519_unpackneg_vartime                         Middlewares/ST/STM32_Cryptographic/Lib/libSTM32CryptographicV3.0.0_CM4_GCC.a(crypto.o)
hUsbDeviceFS                                      build/usb_device.o
                                                  build/usbd_cdc_if.o
hardware_init_hook                                /usr/local/Cellar/arm-none-eabi-gcc/9-2019-q4-major/gcc/bin/../lib/gcc/arm-none-eabi/9.2.1/../../../../arm-none-eabi/lib/thumb/v7e-m+fp/softfp/crt0.o
hpcd_USB_OTG_FS                                   build/usbd_conf.o
                                                  build/stm32f4xx_it.o
main                                              build/main.o
                                                  build/startup_stm32f407xx.o
                                                  /usr/local/Cellar/arm-none-eabi-gcc/9-2019-q4-major/gcc/bin/../lib/gcc/arm-none-eabi/9.2.1/../../../../arm-none-eabi/lib/thumb/v7e-m+fp/softfp/crt0.o
malloc                                            /usr/local/Cellar/arm-none-eabi-gcc/9-2019-q4-major/gcc/bin/../lib/gcc/arm-none-eabi/9.2.1/../../../../arm-none-eabi/lib/thumb/v7e-m+fp/softfp/libc_nano.a(lib_a-malloc.o)
                                                  build/main.o
memchr                                            /usr/local/Cellar/arm-none-eabi-gcc/9-2019-q4-major/gcc/bin/../lib/gcc/arm-none-eabi/9.2.1/../../../../arm-none-eabi/lib/thumb/v7e-m+fp/softfp/libc_nano.a(lib_a-memchr.o)
                                                  /usr/local/Cellar/arm-none-eabi-gcc/9-2019-q4-major/gcc/bin/../lib/gcc/arm-none-eabi/9.2.1/../../../../arm-none-eabi/lib/thumb/v7e-m+fp/softfp/libc_nano.a(lib_a-nano-vfprintf_i.o)
                                                  /usr/local/Cellar/arm-none-eabi-gcc/9-2019-q4-major/gcc/bin/../lib/gcc/arm-none-eabi/9.2.1/../../../../arm-none-eabi/lib/thumb/v7e-m+fp/softfp/libc_nano.a(lib_a-nano-svfprintf.o)
memcpy                                            /usr/local/Cellar/arm-none-eabi-gcc/9-2019-q4-major/gcc/bin/../lib/gcc/arm-none-eabi/9.2.1/../../../../arm-none-eabi/lib/thumb/v7e-m+fp/softfp/libc_nano.a(lib_a-memcpy-stub.o)
                                                  Middlewares/ST/STM32_Cryptographic/Lib/libSTM32CryptographicV3.0.0_CM4_GCC.a(crypto.o)
                                                  /usr/local/Cellar/arm-none-eabi-gcc/9-2019-q4-major/gcc/bin/../lib/gcc/arm-none-eabi/9.2.1/../../../../arm-none-eabi/lib/thumb/v7e-m+fp/softfp/libc_nano.a(lib_a-nano-reallocr.o)
                                                  /usr/local/Cellar/arm-none-eabi-gcc/9-2019-q4-major/gcc/bin/../lib/gcc/arm-none-eabi/9.2.1/../../../../arm-none-eabi/lib/thumb/v7e-m+fp/softfp/libc_nano.a(lib_a-nano-svfprintf.o)
memmove                                           /usr/local/Cellar/arm-none-eabi-gcc/9-2019-q4-major/gcc/bin/../lib/gcc/arm-none-eabi/9.2.1/../../../../arm-none-eabi/lib/thumb/v7e-m+fp/softfp/libc_nano.a(lib_a-memmove.o)
                                                  Middlewares/ST/STM32_Cryptographic/Lib/libSTM32CryptographicV3.0.0_CM4_GCC.a(crypto.o)
                                                  /usr/local/Cellar/arm-none-eabi-gcc/9-2019-q4-major/gcc/bin/../lib/gcc/arm-none-eabi/9.2.1/../../../../arm-none-eabi/lib/thumb/v7e-m+fp/softfp/libc_nano.a(lib_a-nano-svfprintf.o)
memset                                            /usr/local/Cellar/arm-none-eabi-gcc/9-2019-q4-major/gcc/bin/../lib/gcc/arm-none-eabi/9.2.1/../../../../arm-none-eabi/lib/thumb/v7e-m+fp/softfp/libc_nano.a(lib_a-memset.o)
                                                  Middlewares/ST/STM32_Cryptographic/Lib/libSTM32CryptographicV3.0.0_CM4_GCC.a(crypto.o)
                                                  build/main.o
                                                  /usr/local/Cellar/arm-none-eabi-gcc/9-2019-q4-major/gcc/bin/../lib/gcc/arm-none-eabi/9.2.1/../../../../arm-none-eabi/lib/thumb/v7e-m+fp/softfp/crt0.o
pFlash                                            build/stm32f4xx_hal_flash.o
                                                  build/stm32f4xx_hal_flash_ex.o
rcon                                              Middlewares/ST/STM32_Cryptographic/Lib/libSTM32CryptographicV3.0.0_CM4_GCC.a(crypto.o)
salsa20_wordtobyte                                Middlewares/ST/STM32_Cryptographic/Lib/libSTM32CryptographicV3.0.0_CM4_GCC.a(crypto.o)
sc25519_add                                       Middlewares/ST/STM32_Cryptographic/Lib/libSTM32CryptographicV3.0.0_CM4_GCC.a(crypto.o)
sc25519_from32bytes                               Middlewares/ST/STM32_Cryptographic/Lib/libSTM32CryptographicV3.0.0_CM4_GCC.a(crypto.o)
sc25519_from64bytes                               Middlewares/ST/STM32_Cryptographic/Lib/libSTM32CryptographicV3.0.0_CM4_GCC.a(crypto.o)
sc25519_mul                                       Middlewares/ST/STM32_Cryptographic/Lib/libSTM32CryptographicV3.0.0_CM4_GCC.a(crypto.o)
sc25519_to32bytes                                 Middlewares/ST/STM32_Cryptographic/Lib/libSTM32CryptographicV3.0.0_CM4_GCC.a(crypto.o)
sigma                                             Middlewares/ST/STM32_Cryptographic/Lib/libSTM32CryptographicV3.0.0_CM4_GCC.a(crypto.o)
siprintf                                          /usr/local/Cellar/arm-none-eabi-gcc/9-2019-q4-major/gcc/bin/../lib/gcc/arm-none-eabi/9.2.1/../../../../arm-none-eabi/lib/thumb/v7e-m+fp/softfp/libc_nano.a(lib_a-sprintf.o)
software_init_hook                                /usr/local/Cellar/arm-none-eabi-gcc/9-2019-q4-major/gcc/bin/../lib/gcc/arm-none-eabi/9.2.1/../../../../arm-none-eabi/lib/thumb/v7e-m+fp/softfp/crt0.o
sprintf                                           /usr/local/Cellar/arm-none-eabi-gcc/9-2019-q4-major/gcc/bin/../lib/gcc/arm-none-eabi/9.2.1/../../../../arm-none-eabi/lib/thumb/v7e-m+fp/softfp/libc_nano.a(lib_a-sprintf.o)
                                                  build/main.o
uwTick                                            build/stm32f4xx_hal.o
uwTickFreq                                        build/stm32f4xx_hal.o
uwTickPrio                                        build/stm32f4xx_hal.o
                                                  build/stm32f4xx_hal_rcc_ex.o
                                                  build/stm32f4xx_hal_rcc.o
