ARM GAS  /var/folders/vq/qt4vp3kd5rxf7v2b6_fdtdt80000gn/T//ccOb9Y7L.s 			page 1


   1              		.cpu cortex-m4
   2              		.eabi_attribute 27, 1
   3              		.eabi_attribute 28, 1
   4              		.eabi_attribute 20, 1
   5              		.eabi_attribute 21, 1
   6              		.eabi_attribute 23, 3
   7              		.eabi_attribute 24, 1
   8              		.eabi_attribute 25, 1
   9              		.eabi_attribute 26, 1
  10              		.eabi_attribute 30, 6
  11              		.eabi_attribute 34, 1
  12              		.eabi_attribute 18, 4
  13              		.file	"stm32f4xx_ll_usb.c"
  14              		.text
  15              	.Ltext0:
  16              		.cfi_sections	.debug_frame
  17              		.section	.text.USB_CoreInit,"ax",%progbits
  18              		.align	1
  19              		.global	USB_CoreInit
  20              		.arch armv7e-m
  21              		.syntax unified
  22              		.thumb
  23              		.thumb_func
  24              		.fpu fpv4-sp-d16
  26              	USB_CoreInit:
  27              	.LFB130:
  28              		.file 1 "Drivers/STM32F4xx_HAL_Driver/Src/stm32f4xx_ll_usb.c"
   1:Drivers/STM32F4xx_HAL_Driver/Src/stm32f4xx_ll_usb.c **** /**
   2:Drivers/STM32F4xx_HAL_Driver/Src/stm32f4xx_ll_usb.c ****   ******************************************************************************
   3:Drivers/STM32F4xx_HAL_Driver/Src/stm32f4xx_ll_usb.c ****   * @file    stm32f4xx_ll_usb.c
   4:Drivers/STM32F4xx_HAL_Driver/Src/stm32f4xx_ll_usb.c ****   * @author  MCD Application Team
   5:Drivers/STM32F4xx_HAL_Driver/Src/stm32f4xx_ll_usb.c ****   * @brief   USB Low Layer HAL module driver.
   6:Drivers/STM32F4xx_HAL_Driver/Src/stm32f4xx_ll_usb.c ****   *
   7:Drivers/STM32F4xx_HAL_Driver/Src/stm32f4xx_ll_usb.c ****   *          This file provides firmware functions to manage the following
   8:Drivers/STM32F4xx_HAL_Driver/Src/stm32f4xx_ll_usb.c ****   *          functionalities of the USB Peripheral Controller:
   9:Drivers/STM32F4xx_HAL_Driver/Src/stm32f4xx_ll_usb.c ****   *           + Initialization/de-initialization functions
  10:Drivers/STM32F4xx_HAL_Driver/Src/stm32f4xx_ll_usb.c ****   *           + I/O operation functions
  11:Drivers/STM32F4xx_HAL_Driver/Src/stm32f4xx_ll_usb.c ****   *           + Peripheral Control functions
  12:Drivers/STM32F4xx_HAL_Driver/Src/stm32f4xx_ll_usb.c ****   *           + Peripheral State functions
  13:Drivers/STM32F4xx_HAL_Driver/Src/stm32f4xx_ll_usb.c ****   *
  14:Drivers/STM32F4xx_HAL_Driver/Src/stm32f4xx_ll_usb.c ****   @verbatim
  15:Drivers/STM32F4xx_HAL_Driver/Src/stm32f4xx_ll_usb.c ****   ==============================================================================
  16:Drivers/STM32F4xx_HAL_Driver/Src/stm32f4xx_ll_usb.c ****                     ##### How to use this driver #####
  17:Drivers/STM32F4xx_HAL_Driver/Src/stm32f4xx_ll_usb.c ****   ==============================================================================
  18:Drivers/STM32F4xx_HAL_Driver/Src/stm32f4xx_ll_usb.c ****     [..]
  19:Drivers/STM32F4xx_HAL_Driver/Src/stm32f4xx_ll_usb.c ****       (#) Fill parameters of Init structure in USB_OTG_CfgTypeDef structure.
  20:Drivers/STM32F4xx_HAL_Driver/Src/stm32f4xx_ll_usb.c **** 
  21:Drivers/STM32F4xx_HAL_Driver/Src/stm32f4xx_ll_usb.c ****       (#) Call USB_CoreInit() API to initialize the USB Core peripheral.
  22:Drivers/STM32F4xx_HAL_Driver/Src/stm32f4xx_ll_usb.c **** 
  23:Drivers/STM32F4xx_HAL_Driver/Src/stm32f4xx_ll_usb.c ****       (#) The upper HAL HCD/PCD driver will call the right routines for its internal processes.
  24:Drivers/STM32F4xx_HAL_Driver/Src/stm32f4xx_ll_usb.c **** 
  25:Drivers/STM32F4xx_HAL_Driver/Src/stm32f4xx_ll_usb.c ****   @endverbatim
  26:Drivers/STM32F4xx_HAL_Driver/Src/stm32f4xx_ll_usb.c ****   ******************************************************************************
  27:Drivers/STM32F4xx_HAL_Driver/Src/stm32f4xx_ll_usb.c ****   * @attention
  28:Drivers/STM32F4xx_HAL_Driver/Src/stm32f4xx_ll_usb.c ****   *
  29:Drivers/STM32F4xx_HAL_Driver/Src/stm32f4xx_ll_usb.c ****   * <h2><center>&copy; Copyright (c) 2016 STMicroelectronics.
  30:Drivers/STM32F4xx_HAL_Driver/Src/stm32f4xx_ll_usb.c ****   * All rights reserved.</center></h2>
ARM GAS  /var/folders/vq/qt4vp3kd5rxf7v2b6_fdtdt80000gn/T//ccOb9Y7L.s 			page 2


  31:Drivers/STM32F4xx_HAL_Driver/Src/stm32f4xx_ll_usb.c ****   *
  32:Drivers/STM32F4xx_HAL_Driver/Src/stm32f4xx_ll_usb.c ****   * This software component is licensed by ST under BSD 3-Clause license,
  33:Drivers/STM32F4xx_HAL_Driver/Src/stm32f4xx_ll_usb.c ****   * the "License"; You may not use this file except in compliance with the
  34:Drivers/STM32F4xx_HAL_Driver/Src/stm32f4xx_ll_usb.c ****   * License. You may obtain a copy of the License at:
  35:Drivers/STM32F4xx_HAL_Driver/Src/stm32f4xx_ll_usb.c ****   *                        opensource.org/licenses/BSD-3-Clause
  36:Drivers/STM32F4xx_HAL_Driver/Src/stm32f4xx_ll_usb.c ****   *
  37:Drivers/STM32F4xx_HAL_Driver/Src/stm32f4xx_ll_usb.c ****   ******************************************************************************
  38:Drivers/STM32F4xx_HAL_Driver/Src/stm32f4xx_ll_usb.c ****   */
  39:Drivers/STM32F4xx_HAL_Driver/Src/stm32f4xx_ll_usb.c **** 
  40:Drivers/STM32F4xx_HAL_Driver/Src/stm32f4xx_ll_usb.c **** /* Includes ------------------------------------------------------------------*/
  41:Drivers/STM32F4xx_HAL_Driver/Src/stm32f4xx_ll_usb.c **** #include "stm32f4xx_hal.h"
  42:Drivers/STM32F4xx_HAL_Driver/Src/stm32f4xx_ll_usb.c **** 
  43:Drivers/STM32F4xx_HAL_Driver/Src/stm32f4xx_ll_usb.c **** /** @addtogroup STM32F4xx_LL_USB_DRIVER
  44:Drivers/STM32F4xx_HAL_Driver/Src/stm32f4xx_ll_usb.c ****   * @{
  45:Drivers/STM32F4xx_HAL_Driver/Src/stm32f4xx_ll_usb.c ****   */
  46:Drivers/STM32F4xx_HAL_Driver/Src/stm32f4xx_ll_usb.c **** 
  47:Drivers/STM32F4xx_HAL_Driver/Src/stm32f4xx_ll_usb.c **** #if defined (HAL_PCD_MODULE_ENABLED) || defined (HAL_HCD_MODULE_ENABLED)
  48:Drivers/STM32F4xx_HAL_Driver/Src/stm32f4xx_ll_usb.c **** #if defined (USB_OTG_FS) || defined (USB_OTG_HS)
  49:Drivers/STM32F4xx_HAL_Driver/Src/stm32f4xx_ll_usb.c **** /* Private typedef -----------------------------------------------------------*/
  50:Drivers/STM32F4xx_HAL_Driver/Src/stm32f4xx_ll_usb.c **** /* Private define ------------------------------------------------------------*/
  51:Drivers/STM32F4xx_HAL_Driver/Src/stm32f4xx_ll_usb.c **** /* Private macro -------------------------------------------------------------*/
  52:Drivers/STM32F4xx_HAL_Driver/Src/stm32f4xx_ll_usb.c **** /* Private variables ---------------------------------------------------------*/
  53:Drivers/STM32F4xx_HAL_Driver/Src/stm32f4xx_ll_usb.c **** /* Private function prototypes -----------------------------------------------*/
  54:Drivers/STM32F4xx_HAL_Driver/Src/stm32f4xx_ll_usb.c **** /* Private functions ---------------------------------------------------------*/
  55:Drivers/STM32F4xx_HAL_Driver/Src/stm32f4xx_ll_usb.c **** #if defined (USB_OTG_FS) || defined (USB_OTG_HS)
  56:Drivers/STM32F4xx_HAL_Driver/Src/stm32f4xx_ll_usb.c **** static HAL_StatusTypeDef USB_CoreReset(USB_OTG_GlobalTypeDef *USBx);
  57:Drivers/STM32F4xx_HAL_Driver/Src/stm32f4xx_ll_usb.c **** 
  58:Drivers/STM32F4xx_HAL_Driver/Src/stm32f4xx_ll_usb.c **** /* Exported functions --------------------------------------------------------*/
  59:Drivers/STM32F4xx_HAL_Driver/Src/stm32f4xx_ll_usb.c **** /** @defgroup USB_LL_Exported_Functions USB Low Layer Exported Functions
  60:Drivers/STM32F4xx_HAL_Driver/Src/stm32f4xx_ll_usb.c ****   * @{
  61:Drivers/STM32F4xx_HAL_Driver/Src/stm32f4xx_ll_usb.c ****   */
  62:Drivers/STM32F4xx_HAL_Driver/Src/stm32f4xx_ll_usb.c **** 
  63:Drivers/STM32F4xx_HAL_Driver/Src/stm32f4xx_ll_usb.c **** /** @defgroup USB_LL_Exported_Functions_Group1 Initialization/de-initialization functions
  64:Drivers/STM32F4xx_HAL_Driver/Src/stm32f4xx_ll_usb.c ****   *  @brief    Initialization and Configuration functions
  65:Drivers/STM32F4xx_HAL_Driver/Src/stm32f4xx_ll_usb.c ****   *
  66:Drivers/STM32F4xx_HAL_Driver/Src/stm32f4xx_ll_usb.c **** @verbatim
  67:Drivers/STM32F4xx_HAL_Driver/Src/stm32f4xx_ll_usb.c ****  ===============================================================================
  68:Drivers/STM32F4xx_HAL_Driver/Src/stm32f4xx_ll_usb.c ****                       ##### Initialization/de-initialization functions #####
  69:Drivers/STM32F4xx_HAL_Driver/Src/stm32f4xx_ll_usb.c ****  ===============================================================================
  70:Drivers/STM32F4xx_HAL_Driver/Src/stm32f4xx_ll_usb.c **** 
  71:Drivers/STM32F4xx_HAL_Driver/Src/stm32f4xx_ll_usb.c **** @endverbatim
  72:Drivers/STM32F4xx_HAL_Driver/Src/stm32f4xx_ll_usb.c ****   * @{
  73:Drivers/STM32F4xx_HAL_Driver/Src/stm32f4xx_ll_usb.c ****   */
  74:Drivers/STM32F4xx_HAL_Driver/Src/stm32f4xx_ll_usb.c **** 
  75:Drivers/STM32F4xx_HAL_Driver/Src/stm32f4xx_ll_usb.c **** /**
  76:Drivers/STM32F4xx_HAL_Driver/Src/stm32f4xx_ll_usb.c ****   * @brief  Initializes the USB Core
  77:Drivers/STM32F4xx_HAL_Driver/Src/stm32f4xx_ll_usb.c ****   * @param  USBx USB Instance
  78:Drivers/STM32F4xx_HAL_Driver/Src/stm32f4xx_ll_usb.c ****   * @param  cfg pointer to a USB_OTG_CfgTypeDef structure that contains
  79:Drivers/STM32F4xx_HAL_Driver/Src/stm32f4xx_ll_usb.c ****   *         the configuration information for the specified USBx peripheral.
  80:Drivers/STM32F4xx_HAL_Driver/Src/stm32f4xx_ll_usb.c ****   * @retval HAL status
  81:Drivers/STM32F4xx_HAL_Driver/Src/stm32f4xx_ll_usb.c ****   */
  82:Drivers/STM32F4xx_HAL_Driver/Src/stm32f4xx_ll_usb.c **** HAL_StatusTypeDef USB_CoreInit(USB_OTG_GlobalTypeDef *USBx, USB_OTG_CfgTypeDef cfg)
  83:Drivers/STM32F4xx_HAL_Driver/Src/stm32f4xx_ll_usb.c **** {
  29              		.loc 1 83 1
  30              		.cfi_startproc
  31              		@ args = 56, pretend = 16, frame = 16
  32              		@ frame_needed = 1, uses_anonymous_args = 0
ARM GAS  /var/folders/vq/qt4vp3kd5rxf7v2b6_fdtdt80000gn/T//ccOb9Y7L.s 			page 3


  33 0000 84B0     		sub	sp, sp, #16
  34              	.LCFI0:
  35              		.cfi_def_cfa_offset 16
  36 0002 80B5     		push	{r7, lr}
  37              	.LCFI1:
  38              		.cfi_def_cfa_offset 24
  39              		.cfi_offset 7, -24
  40              		.cfi_offset 14, -20
  41 0004 84B0     		sub	sp, sp, #16
  42              	.LCFI2:
  43              		.cfi_def_cfa_offset 40
  44 0006 00AF     		add	r7, sp, #0
  45              	.LCFI3:
  46              		.cfi_def_cfa_register 7
  47 0008 7860     		str	r0, [r7, #4]
  48 000a 07F11C00 		add	r0, r7, #28
  49 000e 80E80E00 		stm	r0, {r1, r2, r3}
  84:Drivers/STM32F4xx_HAL_Driver/Src/stm32f4xx_ll_usb.c ****   HAL_StatusTypeDef ret;
  85:Drivers/STM32F4xx_HAL_Driver/Src/stm32f4xx_ll_usb.c **** 
  86:Drivers/STM32F4xx_HAL_Driver/Src/stm32f4xx_ll_usb.c ****   if (cfg.phy_itface == USB_OTG_ULPI_PHY)
  50              		.loc 1 86 10
  51 0012 3B6B     		ldr	r3, [r7, #48]
  52              		.loc 1 86 6
  53 0014 012B     		cmp	r3, #1
  54 0016 22D1     		bne	.L2
  87:Drivers/STM32F4xx_HAL_Driver/Src/stm32f4xx_ll_usb.c ****   {
  88:Drivers/STM32F4xx_HAL_Driver/Src/stm32f4xx_ll_usb.c ****     USBx->GCCFG &= ~(USB_OTG_GCCFG_PWRDWN);
  55              		.loc 1 88 17
  56 0018 7B68     		ldr	r3, [r7, #4]
  57 001a 9B6B     		ldr	r3, [r3, #56]
  58 001c 23F48032 		bic	r2, r3, #65536
  59 0020 7B68     		ldr	r3, [r7, #4]
  60 0022 9A63     		str	r2, [r3, #56]
  89:Drivers/STM32F4xx_HAL_Driver/Src/stm32f4xx_ll_usb.c **** 
  90:Drivers/STM32F4xx_HAL_Driver/Src/stm32f4xx_ll_usb.c ****     /* Init The ULPI Interface */
  91:Drivers/STM32F4xx_HAL_Driver/Src/stm32f4xx_ll_usb.c ****     USBx->GUSBCFG &= ~(USB_OTG_GUSBCFG_TSDPS | USB_OTG_GUSBCFG_ULPIFSLS | USB_OTG_GUSBCFG_PHYSEL);
  61              		.loc 1 91 19
  62 0024 7B68     		ldr	r3, [r7, #4]
  63 0026 DB68     		ldr	r3, [r3, #12]
  64 0028 23F48403 		bic	r3, r3, #4325376
  65 002c 23F04003 		bic	r3, r3, #64
  66 0030 7A68     		ldr	r2, [r7, #4]
  67 0032 D360     		str	r3, [r2, #12]
  92:Drivers/STM32F4xx_HAL_Driver/Src/stm32f4xx_ll_usb.c **** 
  93:Drivers/STM32F4xx_HAL_Driver/Src/stm32f4xx_ll_usb.c ****     /* Select vbus source */
  94:Drivers/STM32F4xx_HAL_Driver/Src/stm32f4xx_ll_usb.c ****     USBx->GUSBCFG &= ~(USB_OTG_GUSBCFG_ULPIEVBUSD | USB_OTG_GUSBCFG_ULPIEVBUSI);
  68              		.loc 1 94 19
  69 0034 7B68     		ldr	r3, [r7, #4]
  70 0036 DB68     		ldr	r3, [r3, #12]
  71 0038 23F44012 		bic	r2, r3, #3145728
  72 003c 7B68     		ldr	r3, [r7, #4]
  73 003e DA60     		str	r2, [r3, #12]
  95:Drivers/STM32F4xx_HAL_Driver/Src/stm32f4xx_ll_usb.c ****     if (cfg.use_external_vbus == 1U)
  74              		.loc 1 95 12
  75 0040 FB6C     		ldr	r3, [r7, #76]
  76              		.loc 1 95 8
  77 0042 012B     		cmp	r3, #1
ARM GAS  /var/folders/vq/qt4vp3kd5rxf7v2b6_fdtdt80000gn/T//ccOb9Y7L.s 			page 4


  78 0044 05D1     		bne	.L3
  96:Drivers/STM32F4xx_HAL_Driver/Src/stm32f4xx_ll_usb.c ****     {
  97:Drivers/STM32F4xx_HAL_Driver/Src/stm32f4xx_ll_usb.c ****       USBx->GUSBCFG |= USB_OTG_GUSBCFG_ULPIEVBUSD;
  79              		.loc 1 97 21
  80 0046 7B68     		ldr	r3, [r7, #4]
  81 0048 DB68     		ldr	r3, [r3, #12]
  82 004a 43F48012 		orr	r2, r3, #1048576
  83 004e 7B68     		ldr	r3, [r7, #4]
  84 0050 DA60     		str	r2, [r3, #12]
  85              	.L3:
  98:Drivers/STM32F4xx_HAL_Driver/Src/stm32f4xx_ll_usb.c ****     }
  99:Drivers/STM32F4xx_HAL_Driver/Src/stm32f4xx_ll_usb.c ****     /* Reset after a PHY select  */
 100:Drivers/STM32F4xx_HAL_Driver/Src/stm32f4xx_ll_usb.c ****     ret = USB_CoreReset(USBx);
  86              		.loc 1 100 11
  87 0052 7868     		ldr	r0, [r7, #4]
  88 0054 FFF7FEFF 		bl	USB_CoreReset
  89 0058 0346     		mov	r3, r0
  90 005a FB73     		strb	r3, [r7, #15]
  91 005c 1AE0     		b	.L4
  92              	.L2:
 101:Drivers/STM32F4xx_HAL_Driver/Src/stm32f4xx_ll_usb.c ****   }
 102:Drivers/STM32F4xx_HAL_Driver/Src/stm32f4xx_ll_usb.c ****   else /* FS interface (embedded Phy) */
 103:Drivers/STM32F4xx_HAL_Driver/Src/stm32f4xx_ll_usb.c ****   {
 104:Drivers/STM32F4xx_HAL_Driver/Src/stm32f4xx_ll_usb.c ****     /* Select FS Embedded PHY */
 105:Drivers/STM32F4xx_HAL_Driver/Src/stm32f4xx_ll_usb.c ****     USBx->GUSBCFG |= USB_OTG_GUSBCFG_PHYSEL;
  93              		.loc 1 105 19
  94 005e 7B68     		ldr	r3, [r7, #4]
  95 0060 DB68     		ldr	r3, [r3, #12]
  96 0062 43F04002 		orr	r2, r3, #64
  97 0066 7B68     		ldr	r3, [r7, #4]
  98 0068 DA60     		str	r2, [r3, #12]
 106:Drivers/STM32F4xx_HAL_Driver/Src/stm32f4xx_ll_usb.c **** 
 107:Drivers/STM32F4xx_HAL_Driver/Src/stm32f4xx_ll_usb.c ****     /* Reset after a PHY select */
 108:Drivers/STM32F4xx_HAL_Driver/Src/stm32f4xx_ll_usb.c ****     ret = USB_CoreReset(USBx);
  99              		.loc 1 108 11
 100 006a 7868     		ldr	r0, [r7, #4]
 101 006c FFF7FEFF 		bl	USB_CoreReset
 102 0070 0346     		mov	r3, r0
 103 0072 FB73     		strb	r3, [r7, #15]
 109:Drivers/STM32F4xx_HAL_Driver/Src/stm32f4xx_ll_usb.c **** 
 110:Drivers/STM32F4xx_HAL_Driver/Src/stm32f4xx_ll_usb.c ****     if (cfg.battery_charging_enable == 0U)
 104              		.loc 1 110 12
 105 0074 3B6C     		ldr	r3, [r7, #64]
 106              		.loc 1 110 8
 107 0076 002B     		cmp	r3, #0
 108 0078 06D1     		bne	.L5
 111:Drivers/STM32F4xx_HAL_Driver/Src/stm32f4xx_ll_usb.c ****     {
 112:Drivers/STM32F4xx_HAL_Driver/Src/stm32f4xx_ll_usb.c ****       /* Activate the USB Transceiver */
 113:Drivers/STM32F4xx_HAL_Driver/Src/stm32f4xx_ll_usb.c ****       USBx->GCCFG |= USB_OTG_GCCFG_PWRDWN;
 109              		.loc 1 113 19
 110 007a 7B68     		ldr	r3, [r7, #4]
 111 007c 9B6B     		ldr	r3, [r3, #56]
 112 007e 43F48032 		orr	r2, r3, #65536
 113 0082 7B68     		ldr	r3, [r7, #4]
 114 0084 9A63     		str	r2, [r3, #56]
 115 0086 05E0     		b	.L4
 116              	.L5:
ARM GAS  /var/folders/vq/qt4vp3kd5rxf7v2b6_fdtdt80000gn/T//ccOb9Y7L.s 			page 5


 114:Drivers/STM32F4xx_HAL_Driver/Src/stm32f4xx_ll_usb.c ****     }
 115:Drivers/STM32F4xx_HAL_Driver/Src/stm32f4xx_ll_usb.c ****     else
 116:Drivers/STM32F4xx_HAL_Driver/Src/stm32f4xx_ll_usb.c ****     {
 117:Drivers/STM32F4xx_HAL_Driver/Src/stm32f4xx_ll_usb.c ****       /* Deactivate the USB Transceiver */
 118:Drivers/STM32F4xx_HAL_Driver/Src/stm32f4xx_ll_usb.c ****       USBx->GCCFG &= ~(USB_OTG_GCCFG_PWRDWN);
 117              		.loc 1 118 19
 118 0088 7B68     		ldr	r3, [r7, #4]
 119 008a 9B6B     		ldr	r3, [r3, #56]
 120 008c 23F48032 		bic	r2, r3, #65536
 121 0090 7B68     		ldr	r3, [r7, #4]
 122 0092 9A63     		str	r2, [r3, #56]
 123              	.L4:
 119:Drivers/STM32F4xx_HAL_Driver/Src/stm32f4xx_ll_usb.c ****     }
 120:Drivers/STM32F4xx_HAL_Driver/Src/stm32f4xx_ll_usb.c ****   }
 121:Drivers/STM32F4xx_HAL_Driver/Src/stm32f4xx_ll_usb.c **** 
 122:Drivers/STM32F4xx_HAL_Driver/Src/stm32f4xx_ll_usb.c ****   if (cfg.dma_enable == 1U)
 124              		.loc 1 122 10
 125 0094 BB6A     		ldr	r3, [r7, #40]
 126              		.loc 1 122 6
 127 0096 012B     		cmp	r3, #1
 128 0098 0BD1     		bne	.L6
 123:Drivers/STM32F4xx_HAL_Driver/Src/stm32f4xx_ll_usb.c ****   {
 124:Drivers/STM32F4xx_HAL_Driver/Src/stm32f4xx_ll_usb.c ****     USBx->GAHBCFG |= USB_OTG_GAHBCFG_HBSTLEN_2;
 129              		.loc 1 124 19
 130 009a 7B68     		ldr	r3, [r7, #4]
 131 009c 9B68     		ldr	r3, [r3, #8]
 132 009e 43F00602 		orr	r2, r3, #6
 133 00a2 7B68     		ldr	r3, [r7, #4]
 134 00a4 9A60     		str	r2, [r3, #8]
 125:Drivers/STM32F4xx_HAL_Driver/Src/stm32f4xx_ll_usb.c ****     USBx->GAHBCFG |= USB_OTG_GAHBCFG_DMAEN;
 135              		.loc 1 125 19
 136 00a6 7B68     		ldr	r3, [r7, #4]
 137 00a8 9B68     		ldr	r3, [r3, #8]
 138 00aa 43F02002 		orr	r2, r3, #32
 139 00ae 7B68     		ldr	r3, [r7, #4]
 140 00b0 9A60     		str	r2, [r3, #8]
 141              	.L6:
 126:Drivers/STM32F4xx_HAL_Driver/Src/stm32f4xx_ll_usb.c ****   }
 127:Drivers/STM32F4xx_HAL_Driver/Src/stm32f4xx_ll_usb.c **** 
 128:Drivers/STM32F4xx_HAL_Driver/Src/stm32f4xx_ll_usb.c ****   return ret;
 142              		.loc 1 128 10
 143 00b2 FB7B     		ldrb	r3, [r7, #15]	@ zero_extendqisi2
 129:Drivers/STM32F4xx_HAL_Driver/Src/stm32f4xx_ll_usb.c **** }
 144              		.loc 1 129 1
 145 00b4 1846     		mov	r0, r3
 146 00b6 1037     		adds	r7, r7, #16
 147              	.LCFI4:
 148              		.cfi_def_cfa_offset 24
 149 00b8 BD46     		mov	sp, r7
 150              	.LCFI5:
 151              		.cfi_def_cfa_register 13
 152              		@ sp needed
 153 00ba BDE88040 		pop	{r7, lr}
 154              	.LCFI6:
 155              		.cfi_restore 14
 156              		.cfi_restore 7
 157              		.cfi_def_cfa_offset 16
ARM GAS  /var/folders/vq/qt4vp3kd5rxf7v2b6_fdtdt80000gn/T//ccOb9Y7L.s 			page 6


 158 00be 04B0     		add	sp, sp, #16
 159              	.LCFI7:
 160              		.cfi_def_cfa_offset 0
 161 00c0 7047     		bx	lr
 162              		.cfi_endproc
 163              	.LFE130:
 165              		.section	.text.USB_SetTurnaroundTime,"ax",%progbits
 166              		.align	1
 167              		.global	USB_SetTurnaroundTime
 168              		.syntax unified
 169              		.thumb
 170              		.thumb_func
 171              		.fpu fpv4-sp-d16
 173              	USB_SetTurnaroundTime:
 174              	.LFB131:
 130:Drivers/STM32F4xx_HAL_Driver/Src/stm32f4xx_ll_usb.c **** 
 131:Drivers/STM32F4xx_HAL_Driver/Src/stm32f4xx_ll_usb.c **** 
 132:Drivers/STM32F4xx_HAL_Driver/Src/stm32f4xx_ll_usb.c **** /**
 133:Drivers/STM32F4xx_HAL_Driver/Src/stm32f4xx_ll_usb.c ****   * @brief  Set the USB turnaround time
 134:Drivers/STM32F4xx_HAL_Driver/Src/stm32f4xx_ll_usb.c ****   * @param  USBx USB Instance
 135:Drivers/STM32F4xx_HAL_Driver/Src/stm32f4xx_ll_usb.c ****   * @param  hclk: AHB clock frequency
 136:Drivers/STM32F4xx_HAL_Driver/Src/stm32f4xx_ll_usb.c ****   * @retval USB turnaround time In PHY Clocks number
 137:Drivers/STM32F4xx_HAL_Driver/Src/stm32f4xx_ll_usb.c ****   */
 138:Drivers/STM32F4xx_HAL_Driver/Src/stm32f4xx_ll_usb.c **** HAL_StatusTypeDef USB_SetTurnaroundTime(USB_OTG_GlobalTypeDef *USBx,
 139:Drivers/STM32F4xx_HAL_Driver/Src/stm32f4xx_ll_usb.c ****                                         uint32_t hclk, uint8_t speed)
 140:Drivers/STM32F4xx_HAL_Driver/Src/stm32f4xx_ll_usb.c **** {
 175              		.loc 1 140 1
 176              		.cfi_startproc
 177              		@ args = 0, pretend = 0, frame = 24
 178              		@ frame_needed = 1, uses_anonymous_args = 0
 179              		@ link register save eliminated.
 180 0000 80B4     		push	{r7}
 181              	.LCFI8:
 182              		.cfi_def_cfa_offset 4
 183              		.cfi_offset 7, -4
 184 0002 87B0     		sub	sp, sp, #28
 185              	.LCFI9:
 186              		.cfi_def_cfa_offset 32
 187 0004 00AF     		add	r7, sp, #0
 188              	.LCFI10:
 189              		.cfi_def_cfa_register 7
 190 0006 F860     		str	r0, [r7, #12]
 191 0008 B960     		str	r1, [r7, #8]
 192 000a 1346     		mov	r3, r2
 193 000c FB71     		strb	r3, [r7, #7]
 141:Drivers/STM32F4xx_HAL_Driver/Src/stm32f4xx_ll_usb.c ****   uint32_t UsbTrd;
 142:Drivers/STM32F4xx_HAL_Driver/Src/stm32f4xx_ll_usb.c **** 
 143:Drivers/STM32F4xx_HAL_Driver/Src/stm32f4xx_ll_usb.c ****   /* The USBTRD is configured according to the tables below, depending on AHB frequency
 144:Drivers/STM32F4xx_HAL_Driver/Src/stm32f4xx_ll_usb.c ****   used by application. In the low AHB frequency range it is used to stretch enough the USB response
 145:Drivers/STM32F4xx_HAL_Driver/Src/stm32f4xx_ll_usb.c ****   time to IN tokens, the USB turnaround time, so to compensate for the longer AHB read access
 146:Drivers/STM32F4xx_HAL_Driver/Src/stm32f4xx_ll_usb.c ****   latency to the Data FIFO */
 147:Drivers/STM32F4xx_HAL_Driver/Src/stm32f4xx_ll_usb.c ****   if (speed == USBD_FS_SPEED)
 194              		.loc 1 147 6
 195 000e FB79     		ldrb	r3, [r7, #7]	@ zero_extendqisi2
 196 0010 022B     		cmp	r3, #2
 197 0012 65D1     		bne	.L9
 148:Drivers/STM32F4xx_HAL_Driver/Src/stm32f4xx_ll_usb.c ****   {
ARM GAS  /var/folders/vq/qt4vp3kd5rxf7v2b6_fdtdt80000gn/T//ccOb9Y7L.s 			page 7


 149:Drivers/STM32F4xx_HAL_Driver/Src/stm32f4xx_ll_usb.c ****     if ((hclk >= 14200000U) && (hclk < 15000000U))
 198              		.loc 1 149 8
 199 0014 BB68     		ldr	r3, [r7, #8]
 200 0016 414A     		ldr	r2, .L23
 201 0018 9342     		cmp	r3, r2
 202 001a 06D9     		bls	.L10
 203              		.loc 1 149 29 discriminator 1
 204 001c BB68     		ldr	r3, [r7, #8]
 205 001e 404A     		ldr	r2, .L23+4
 206 0020 9342     		cmp	r3, r2
 207 0022 02D2     		bcs	.L10
 150:Drivers/STM32F4xx_HAL_Driver/Src/stm32f4xx_ll_usb.c ****     {
 151:Drivers/STM32F4xx_HAL_Driver/Src/stm32f4xx_ll_usb.c ****       /* hclk Clock Range between 14.2-15 MHz */
 152:Drivers/STM32F4xx_HAL_Driver/Src/stm32f4xx_ll_usb.c ****       UsbTrd = 0xFU;
 208              		.loc 1 152 14
 209 0024 0F23     		movs	r3, #15
 210 0026 7B61     		str	r3, [r7, #20]
 211 0028 62E0     		b	.L20
 212              	.L10:
 153:Drivers/STM32F4xx_HAL_Driver/Src/stm32f4xx_ll_usb.c ****     }
 154:Drivers/STM32F4xx_HAL_Driver/Src/stm32f4xx_ll_usb.c ****     else if ((hclk >= 15000000U) && (hclk < 16000000U))
 213              		.loc 1 154 13
 214 002a BB68     		ldr	r3, [r7, #8]
 215 002c 3C4A     		ldr	r2, .L23+4
 216 002e 9342     		cmp	r3, r2
 217 0030 06D3     		bcc	.L12
 218              		.loc 1 154 34 discriminator 1
 219 0032 BB68     		ldr	r3, [r7, #8]
 220 0034 3B4A     		ldr	r2, .L23+8
 221 0036 9342     		cmp	r3, r2
 222 0038 02D2     		bcs	.L12
 155:Drivers/STM32F4xx_HAL_Driver/Src/stm32f4xx_ll_usb.c ****     {
 156:Drivers/STM32F4xx_HAL_Driver/Src/stm32f4xx_ll_usb.c ****       /* hclk Clock Range between 15-16 MHz */
 157:Drivers/STM32F4xx_HAL_Driver/Src/stm32f4xx_ll_usb.c ****       UsbTrd = 0xEU;
 223              		.loc 1 157 14
 224 003a 0E23     		movs	r3, #14
 225 003c 7B61     		str	r3, [r7, #20]
 226 003e 57E0     		b	.L20
 227              	.L12:
 158:Drivers/STM32F4xx_HAL_Driver/Src/stm32f4xx_ll_usb.c ****     }
 159:Drivers/STM32F4xx_HAL_Driver/Src/stm32f4xx_ll_usb.c ****     else if ((hclk >= 16000000U) && (hclk < 17200000U))
 228              		.loc 1 159 13
 229 0040 BB68     		ldr	r3, [r7, #8]
 230 0042 384A     		ldr	r2, .L23+8
 231 0044 9342     		cmp	r3, r2
 232 0046 06D3     		bcc	.L13
 233              		.loc 1 159 34 discriminator 1
 234 0048 BB68     		ldr	r3, [r7, #8]
 235 004a 374A     		ldr	r2, .L23+12
 236 004c 9342     		cmp	r3, r2
 237 004e 02D2     		bcs	.L13
 160:Drivers/STM32F4xx_HAL_Driver/Src/stm32f4xx_ll_usb.c ****     {
 161:Drivers/STM32F4xx_HAL_Driver/Src/stm32f4xx_ll_usb.c ****       /* hclk Clock Range between 16-17.2 MHz */
 162:Drivers/STM32F4xx_HAL_Driver/Src/stm32f4xx_ll_usb.c ****       UsbTrd = 0xDU;
 238              		.loc 1 162 14
 239 0050 0D23     		movs	r3, #13
 240 0052 7B61     		str	r3, [r7, #20]
ARM GAS  /var/folders/vq/qt4vp3kd5rxf7v2b6_fdtdt80000gn/T//ccOb9Y7L.s 			page 8


 241 0054 4CE0     		b	.L20
 242              	.L13:
 163:Drivers/STM32F4xx_HAL_Driver/Src/stm32f4xx_ll_usb.c ****     }
 164:Drivers/STM32F4xx_HAL_Driver/Src/stm32f4xx_ll_usb.c ****     else if ((hclk >= 17200000U) && (hclk < 18500000U))
 243              		.loc 1 164 13
 244 0056 BB68     		ldr	r3, [r7, #8]
 245 0058 334A     		ldr	r2, .L23+12
 246 005a 9342     		cmp	r3, r2
 247 005c 06D3     		bcc	.L14
 248              		.loc 1 164 34 discriminator 1
 249 005e BB68     		ldr	r3, [r7, #8]
 250 0060 324A     		ldr	r2, .L23+16
 251 0062 9342     		cmp	r3, r2
 252 0064 02D8     		bhi	.L14
 165:Drivers/STM32F4xx_HAL_Driver/Src/stm32f4xx_ll_usb.c ****     {
 166:Drivers/STM32F4xx_HAL_Driver/Src/stm32f4xx_ll_usb.c ****       /* hclk Clock Range between 17.2-18.5 MHz */
 167:Drivers/STM32F4xx_HAL_Driver/Src/stm32f4xx_ll_usb.c ****       UsbTrd = 0xCU;
 253              		.loc 1 167 14
 254 0066 0C23     		movs	r3, #12
 255 0068 7B61     		str	r3, [r7, #20]
 256 006a 41E0     		b	.L20
 257              	.L14:
 168:Drivers/STM32F4xx_HAL_Driver/Src/stm32f4xx_ll_usb.c ****     }
 169:Drivers/STM32F4xx_HAL_Driver/Src/stm32f4xx_ll_usb.c ****     else if ((hclk >= 18500000U) && (hclk < 20000000U))
 258              		.loc 1 169 13
 259 006c BB68     		ldr	r3, [r7, #8]
 260 006e 2F4A     		ldr	r2, .L23+16
 261 0070 9342     		cmp	r3, r2
 262 0072 06D9     		bls	.L15
 263              		.loc 1 169 34 discriminator 1
 264 0074 BB68     		ldr	r3, [r7, #8]
 265 0076 2E4A     		ldr	r2, .L23+20
 266 0078 9342     		cmp	r3, r2
 267 007a 02D8     		bhi	.L15
 170:Drivers/STM32F4xx_HAL_Driver/Src/stm32f4xx_ll_usb.c ****     {
 171:Drivers/STM32F4xx_HAL_Driver/Src/stm32f4xx_ll_usb.c ****       /* hclk Clock Range between 18.5-20 MHz */
 172:Drivers/STM32F4xx_HAL_Driver/Src/stm32f4xx_ll_usb.c ****       UsbTrd = 0xBU;
 268              		.loc 1 172 14
 269 007c 0B23     		movs	r3, #11
 270 007e 7B61     		str	r3, [r7, #20]
 271 0080 36E0     		b	.L20
 272              	.L15:
 173:Drivers/STM32F4xx_HAL_Driver/Src/stm32f4xx_ll_usb.c ****     }
 174:Drivers/STM32F4xx_HAL_Driver/Src/stm32f4xx_ll_usb.c ****     else if ((hclk >= 20000000U) && (hclk < 21800000U))
 273              		.loc 1 174 13
 274 0082 BB68     		ldr	r3, [r7, #8]
 275 0084 2A4A     		ldr	r2, .L23+20
 276 0086 9342     		cmp	r3, r2
 277 0088 06D9     		bls	.L16
 278              		.loc 1 174 34 discriminator 1
 279 008a BB68     		ldr	r3, [r7, #8]
 280 008c 294A     		ldr	r2, .L23+24
 281 008e 9342     		cmp	r3, r2
 282 0090 02D8     		bhi	.L16
 175:Drivers/STM32F4xx_HAL_Driver/Src/stm32f4xx_ll_usb.c ****     {
 176:Drivers/STM32F4xx_HAL_Driver/Src/stm32f4xx_ll_usb.c ****       /* hclk Clock Range between 20-21.8 MHz */
 177:Drivers/STM32F4xx_HAL_Driver/Src/stm32f4xx_ll_usb.c ****       UsbTrd = 0xAU;
ARM GAS  /var/folders/vq/qt4vp3kd5rxf7v2b6_fdtdt80000gn/T//ccOb9Y7L.s 			page 9


 283              		.loc 1 177 14
 284 0092 0A23     		movs	r3, #10
 285 0094 7B61     		str	r3, [r7, #20]
 286 0096 2BE0     		b	.L20
 287              	.L16:
 178:Drivers/STM32F4xx_HAL_Driver/Src/stm32f4xx_ll_usb.c ****     }
 179:Drivers/STM32F4xx_HAL_Driver/Src/stm32f4xx_ll_usb.c ****     else if ((hclk >= 21800000U) && (hclk < 24000000U))
 288              		.loc 1 179 13
 289 0098 BB68     		ldr	r3, [r7, #8]
 290 009a 264A     		ldr	r2, .L23+24
 291 009c 9342     		cmp	r3, r2
 292 009e 06D9     		bls	.L17
 293              		.loc 1 179 34 discriminator 1
 294 00a0 BB68     		ldr	r3, [r7, #8]
 295 00a2 254A     		ldr	r2, .L23+28
 296 00a4 9342     		cmp	r3, r2
 297 00a6 02D2     		bcs	.L17
 180:Drivers/STM32F4xx_HAL_Driver/Src/stm32f4xx_ll_usb.c ****     {
 181:Drivers/STM32F4xx_HAL_Driver/Src/stm32f4xx_ll_usb.c ****       /* hclk Clock Range between 21.8-24 MHz */
 182:Drivers/STM32F4xx_HAL_Driver/Src/stm32f4xx_ll_usb.c ****       UsbTrd = 0x9U;
 298              		.loc 1 182 14
 299 00a8 0923     		movs	r3, #9
 300 00aa 7B61     		str	r3, [r7, #20]
 301 00ac 20E0     		b	.L20
 302              	.L17:
 183:Drivers/STM32F4xx_HAL_Driver/Src/stm32f4xx_ll_usb.c ****     }
 184:Drivers/STM32F4xx_HAL_Driver/Src/stm32f4xx_ll_usb.c ****     else if ((hclk >= 24000000U) && (hclk < 27700000U))
 303              		.loc 1 184 13
 304 00ae BB68     		ldr	r3, [r7, #8]
 305 00b0 214A     		ldr	r2, .L23+28
 306 00b2 9342     		cmp	r3, r2
 307 00b4 06D3     		bcc	.L18
 308              		.loc 1 184 34 discriminator 1
 309 00b6 BB68     		ldr	r3, [r7, #8]
 310 00b8 204A     		ldr	r2, .L23+32
 311 00ba 9342     		cmp	r3, r2
 312 00bc 02D8     		bhi	.L18
 185:Drivers/STM32F4xx_HAL_Driver/Src/stm32f4xx_ll_usb.c ****     {
 186:Drivers/STM32F4xx_HAL_Driver/Src/stm32f4xx_ll_usb.c ****       /* hclk Clock Range between 24-27.7 MHz */
 187:Drivers/STM32F4xx_HAL_Driver/Src/stm32f4xx_ll_usb.c ****       UsbTrd = 0x8U;
 313              		.loc 1 187 14
 314 00be 0823     		movs	r3, #8
 315 00c0 7B61     		str	r3, [r7, #20]
 316 00c2 15E0     		b	.L20
 317              	.L18:
 188:Drivers/STM32F4xx_HAL_Driver/Src/stm32f4xx_ll_usb.c ****     }
 189:Drivers/STM32F4xx_HAL_Driver/Src/stm32f4xx_ll_usb.c ****     else if ((hclk >= 27700000U) && (hclk < 32000000U))
 318              		.loc 1 189 13
 319 00c4 BB68     		ldr	r3, [r7, #8]
 320 00c6 1D4A     		ldr	r2, .L23+32
 321 00c8 9342     		cmp	r3, r2
 322 00ca 06D9     		bls	.L19
 323              		.loc 1 189 34 discriminator 1
 324 00cc BB68     		ldr	r3, [r7, #8]
 325 00ce 1C4A     		ldr	r2, .L23+36
 326 00d0 9342     		cmp	r3, r2
 327 00d2 02D2     		bcs	.L19
ARM GAS  /var/folders/vq/qt4vp3kd5rxf7v2b6_fdtdt80000gn/T//ccOb9Y7L.s 			page 10


 190:Drivers/STM32F4xx_HAL_Driver/Src/stm32f4xx_ll_usb.c ****     {
 191:Drivers/STM32F4xx_HAL_Driver/Src/stm32f4xx_ll_usb.c ****       /* hclk Clock Range between 27.7-32 MHz */
 192:Drivers/STM32F4xx_HAL_Driver/Src/stm32f4xx_ll_usb.c ****       UsbTrd = 0x7U;
 328              		.loc 1 192 14
 329 00d4 0723     		movs	r3, #7
 330 00d6 7B61     		str	r3, [r7, #20]
 331 00d8 0AE0     		b	.L20
 332              	.L19:
 193:Drivers/STM32F4xx_HAL_Driver/Src/stm32f4xx_ll_usb.c ****     }
 194:Drivers/STM32F4xx_HAL_Driver/Src/stm32f4xx_ll_usb.c ****     else /* if(hclk >= 32000000) */
 195:Drivers/STM32F4xx_HAL_Driver/Src/stm32f4xx_ll_usb.c ****     {
 196:Drivers/STM32F4xx_HAL_Driver/Src/stm32f4xx_ll_usb.c ****       /* hclk Clock Range between 32-200 MHz */
 197:Drivers/STM32F4xx_HAL_Driver/Src/stm32f4xx_ll_usb.c ****       UsbTrd = 0x6U;
 333              		.loc 1 197 14
 334 00da 0623     		movs	r3, #6
 335 00dc 7B61     		str	r3, [r7, #20]
 336 00de 07E0     		b	.L20
 337              	.L9:
 198:Drivers/STM32F4xx_HAL_Driver/Src/stm32f4xx_ll_usb.c ****     }
 199:Drivers/STM32F4xx_HAL_Driver/Src/stm32f4xx_ll_usb.c ****   }
 200:Drivers/STM32F4xx_HAL_Driver/Src/stm32f4xx_ll_usb.c ****   else if (speed == USBD_HS_SPEED)
 338              		.loc 1 200 11
 339 00e0 FB79     		ldrb	r3, [r7, #7]	@ zero_extendqisi2
 340 00e2 002B     		cmp	r3, #0
 341 00e4 02D1     		bne	.L21
 201:Drivers/STM32F4xx_HAL_Driver/Src/stm32f4xx_ll_usb.c ****   {
 202:Drivers/STM32F4xx_HAL_Driver/Src/stm32f4xx_ll_usb.c ****     UsbTrd = USBD_HS_TRDT_VALUE;
 342              		.loc 1 202 12
 343 00e6 0923     		movs	r3, #9
 344 00e8 7B61     		str	r3, [r7, #20]
 345 00ea 01E0     		b	.L20
 346              	.L21:
 203:Drivers/STM32F4xx_HAL_Driver/Src/stm32f4xx_ll_usb.c ****   }
 204:Drivers/STM32F4xx_HAL_Driver/Src/stm32f4xx_ll_usb.c ****   else
 205:Drivers/STM32F4xx_HAL_Driver/Src/stm32f4xx_ll_usb.c ****   {
 206:Drivers/STM32F4xx_HAL_Driver/Src/stm32f4xx_ll_usb.c ****     UsbTrd = USBD_DEFAULT_TRDT_VALUE;
 347              		.loc 1 206 12
 348 00ec 0923     		movs	r3, #9
 349 00ee 7B61     		str	r3, [r7, #20]
 350              	.L20:
 207:Drivers/STM32F4xx_HAL_Driver/Src/stm32f4xx_ll_usb.c ****   }
 208:Drivers/STM32F4xx_HAL_Driver/Src/stm32f4xx_ll_usb.c **** 
 209:Drivers/STM32F4xx_HAL_Driver/Src/stm32f4xx_ll_usb.c ****   USBx->GUSBCFG &= ~USB_OTG_GUSBCFG_TRDT;
 351              		.loc 1 209 17
 352 00f0 FB68     		ldr	r3, [r7, #12]
 353 00f2 DB68     		ldr	r3, [r3, #12]
 354 00f4 23F47052 		bic	r2, r3, #15360
 355 00f8 FB68     		ldr	r3, [r7, #12]
 356 00fa DA60     		str	r2, [r3, #12]
 210:Drivers/STM32F4xx_HAL_Driver/Src/stm32f4xx_ll_usb.c ****   USBx->GUSBCFG |= (uint32_t)((UsbTrd << 10) & USB_OTG_GUSBCFG_TRDT);
 357              		.loc 1 210 17
 358 00fc FB68     		ldr	r3, [r7, #12]
 359 00fe DA68     		ldr	r2, [r3, #12]
 360              		.loc 1 210 39
 361 0100 7B69     		ldr	r3, [r7, #20]
 362 0102 9B02     		lsls	r3, r3, #10
 363              		.loc 1 210 20
ARM GAS  /var/folders/vq/qt4vp3kd5rxf7v2b6_fdtdt80000gn/T//ccOb9Y7L.s 			page 11


 364 0104 03F47053 		and	r3, r3, #15360
 365              		.loc 1 210 17
 366 0108 1A43     		orrs	r2, r2, r3
 367 010a FB68     		ldr	r3, [r7, #12]
 368 010c DA60     		str	r2, [r3, #12]
 211:Drivers/STM32F4xx_HAL_Driver/Src/stm32f4xx_ll_usb.c **** 
 212:Drivers/STM32F4xx_HAL_Driver/Src/stm32f4xx_ll_usb.c ****   return HAL_OK;
 369              		.loc 1 212 10
 370 010e 0023     		movs	r3, #0
 213:Drivers/STM32F4xx_HAL_Driver/Src/stm32f4xx_ll_usb.c **** }
 371              		.loc 1 213 1
 372 0110 1846     		mov	r0, r3
 373 0112 1C37     		adds	r7, r7, #28
 374              	.LCFI11:
 375              		.cfi_def_cfa_offset 4
 376 0114 BD46     		mov	sp, r7
 377              	.LCFI12:
 378              		.cfi_def_cfa_register 13
 379              		@ sp needed
 380 0116 5DF8047B 		ldr	r7, [sp], #4
 381              	.LCFI13:
 382              		.cfi_restore 7
 383              		.cfi_def_cfa_offset 0
 384 011a 7047     		bx	lr
 385              	.L24:
 386              		.align	2
 387              	.L23:
 388 011c BFACD800 		.word	14199999
 389 0120 C0E1E400 		.word	15000000
 390 0124 0024F400 		.word	16000000
 391 0128 80730601 		.word	17200000
 392 012c 9F491A01 		.word	18499999
 393 0130 FF2C3101 		.word	19999999
 394 0134 3FA44C01 		.word	21799999
 395 0138 00366E01 		.word	24000000
 396 013c 1FABA601 		.word	27699999
 397 0140 0048E801 		.word	32000000
 398              		.cfi_endproc
 399              	.LFE131:
 401              		.section	.text.USB_EnableGlobalInt,"ax",%progbits
 402              		.align	1
 403              		.global	USB_EnableGlobalInt
 404              		.syntax unified
 405              		.thumb
 406              		.thumb_func
 407              		.fpu fpv4-sp-d16
 409              	USB_EnableGlobalInt:
 410              	.LFB132:
 214:Drivers/STM32F4xx_HAL_Driver/Src/stm32f4xx_ll_usb.c **** 
 215:Drivers/STM32F4xx_HAL_Driver/Src/stm32f4xx_ll_usb.c **** /**
 216:Drivers/STM32F4xx_HAL_Driver/Src/stm32f4xx_ll_usb.c ****   * @brief  USB_EnableGlobalInt
 217:Drivers/STM32F4xx_HAL_Driver/Src/stm32f4xx_ll_usb.c ****   *         Enables the controller's Global Int in the AHB Config reg
 218:Drivers/STM32F4xx_HAL_Driver/Src/stm32f4xx_ll_usb.c ****   * @param  USBx  Selected device
 219:Drivers/STM32F4xx_HAL_Driver/Src/stm32f4xx_ll_usb.c ****   * @retval HAL status
 220:Drivers/STM32F4xx_HAL_Driver/Src/stm32f4xx_ll_usb.c ****   */
 221:Drivers/STM32F4xx_HAL_Driver/Src/stm32f4xx_ll_usb.c **** HAL_StatusTypeDef USB_EnableGlobalInt(USB_OTG_GlobalTypeDef *USBx)
 222:Drivers/STM32F4xx_HAL_Driver/Src/stm32f4xx_ll_usb.c **** {
ARM GAS  /var/folders/vq/qt4vp3kd5rxf7v2b6_fdtdt80000gn/T//ccOb9Y7L.s 			page 12


 411              		.loc 1 222 1
 412              		.cfi_startproc
 413              		@ args = 0, pretend = 0, frame = 8
 414              		@ frame_needed = 1, uses_anonymous_args = 0
 415              		@ link register save eliminated.
 416 0000 80B4     		push	{r7}
 417              	.LCFI14:
 418              		.cfi_def_cfa_offset 4
 419              		.cfi_offset 7, -4
 420 0002 83B0     		sub	sp, sp, #12
 421              	.LCFI15:
 422              		.cfi_def_cfa_offset 16
 423 0004 00AF     		add	r7, sp, #0
 424              	.LCFI16:
 425              		.cfi_def_cfa_register 7
 426 0006 7860     		str	r0, [r7, #4]
 223:Drivers/STM32F4xx_HAL_Driver/Src/stm32f4xx_ll_usb.c ****   USBx->GAHBCFG |= USB_OTG_GAHBCFG_GINT;
 427              		.loc 1 223 17
 428 0008 7B68     		ldr	r3, [r7, #4]
 429 000a 9B68     		ldr	r3, [r3, #8]
 430 000c 43F00102 		orr	r2, r3, #1
 431 0010 7B68     		ldr	r3, [r7, #4]
 432 0012 9A60     		str	r2, [r3, #8]
 224:Drivers/STM32F4xx_HAL_Driver/Src/stm32f4xx_ll_usb.c ****   return HAL_OK;
 433              		.loc 1 224 10
 434 0014 0023     		movs	r3, #0
 225:Drivers/STM32F4xx_HAL_Driver/Src/stm32f4xx_ll_usb.c **** }
 435              		.loc 1 225 1
 436 0016 1846     		mov	r0, r3
 437 0018 0C37     		adds	r7, r7, #12
 438              	.LCFI17:
 439              		.cfi_def_cfa_offset 4
 440 001a BD46     		mov	sp, r7
 441              	.LCFI18:
 442              		.cfi_def_cfa_register 13
 443              		@ sp needed
 444 001c 5DF8047B 		ldr	r7, [sp], #4
 445              	.LCFI19:
 446              		.cfi_restore 7
 447              		.cfi_def_cfa_offset 0
 448 0020 7047     		bx	lr
 449              		.cfi_endproc
 450              	.LFE132:
 452              		.section	.text.USB_DisableGlobalInt,"ax",%progbits
 453              		.align	1
 454              		.global	USB_DisableGlobalInt
 455              		.syntax unified
 456              		.thumb
 457              		.thumb_func
 458              		.fpu fpv4-sp-d16
 460              	USB_DisableGlobalInt:
 461              	.LFB133:
 226:Drivers/STM32F4xx_HAL_Driver/Src/stm32f4xx_ll_usb.c **** 
 227:Drivers/STM32F4xx_HAL_Driver/Src/stm32f4xx_ll_usb.c **** /**
 228:Drivers/STM32F4xx_HAL_Driver/Src/stm32f4xx_ll_usb.c ****   * @brief  USB_DisableGlobalInt
 229:Drivers/STM32F4xx_HAL_Driver/Src/stm32f4xx_ll_usb.c ****   *         Disable the controller's Global Int in the AHB Config reg
 230:Drivers/STM32F4xx_HAL_Driver/Src/stm32f4xx_ll_usb.c ****   * @param  USBx  Selected device
ARM GAS  /var/folders/vq/qt4vp3kd5rxf7v2b6_fdtdt80000gn/T//ccOb9Y7L.s 			page 13


 231:Drivers/STM32F4xx_HAL_Driver/Src/stm32f4xx_ll_usb.c ****   * @retval HAL status
 232:Drivers/STM32F4xx_HAL_Driver/Src/stm32f4xx_ll_usb.c ****   */
 233:Drivers/STM32F4xx_HAL_Driver/Src/stm32f4xx_ll_usb.c **** HAL_StatusTypeDef USB_DisableGlobalInt(USB_OTG_GlobalTypeDef *USBx)
 234:Drivers/STM32F4xx_HAL_Driver/Src/stm32f4xx_ll_usb.c **** {
 462              		.loc 1 234 1
 463              		.cfi_startproc
 464              		@ args = 0, pretend = 0, frame = 8
 465              		@ frame_needed = 1, uses_anonymous_args = 0
 466              		@ link register save eliminated.
 467 0000 80B4     		push	{r7}
 468              	.LCFI20:
 469              		.cfi_def_cfa_offset 4
 470              		.cfi_offset 7, -4
 471 0002 83B0     		sub	sp, sp, #12
 472              	.LCFI21:
 473              		.cfi_def_cfa_offset 16
 474 0004 00AF     		add	r7, sp, #0
 475              	.LCFI22:
 476              		.cfi_def_cfa_register 7
 477 0006 7860     		str	r0, [r7, #4]
 235:Drivers/STM32F4xx_HAL_Driver/Src/stm32f4xx_ll_usb.c ****   USBx->GAHBCFG &= ~USB_OTG_GAHBCFG_GINT;
 478              		.loc 1 235 17
 479 0008 7B68     		ldr	r3, [r7, #4]
 480 000a 9B68     		ldr	r3, [r3, #8]
 481 000c 23F00102 		bic	r2, r3, #1
 482 0010 7B68     		ldr	r3, [r7, #4]
 483 0012 9A60     		str	r2, [r3, #8]
 236:Drivers/STM32F4xx_HAL_Driver/Src/stm32f4xx_ll_usb.c ****   return HAL_OK;
 484              		.loc 1 236 10
 485 0014 0023     		movs	r3, #0
 237:Drivers/STM32F4xx_HAL_Driver/Src/stm32f4xx_ll_usb.c **** }
 486              		.loc 1 237 1
 487 0016 1846     		mov	r0, r3
 488 0018 0C37     		adds	r7, r7, #12
 489              	.LCFI23:
 490              		.cfi_def_cfa_offset 4
 491 001a BD46     		mov	sp, r7
 492              	.LCFI24:
 493              		.cfi_def_cfa_register 13
 494              		@ sp needed
 495 001c 5DF8047B 		ldr	r7, [sp], #4
 496              	.LCFI25:
 497              		.cfi_restore 7
 498              		.cfi_def_cfa_offset 0
 499 0020 7047     		bx	lr
 500              		.cfi_endproc
 501              	.LFE133:
 503              		.section	.text.USB_SetCurrentMode,"ax",%progbits
 504              		.align	1
 505              		.global	USB_SetCurrentMode
 506              		.syntax unified
 507              		.thumb
 508              		.thumb_func
 509              		.fpu fpv4-sp-d16
 511              	USB_SetCurrentMode:
 512              	.LFB134:
 238:Drivers/STM32F4xx_HAL_Driver/Src/stm32f4xx_ll_usb.c **** 
ARM GAS  /var/folders/vq/qt4vp3kd5rxf7v2b6_fdtdt80000gn/T//ccOb9Y7L.s 			page 14


 239:Drivers/STM32F4xx_HAL_Driver/Src/stm32f4xx_ll_usb.c **** /**
 240:Drivers/STM32F4xx_HAL_Driver/Src/stm32f4xx_ll_usb.c ****   * @brief  USB_SetCurrentMode Set functional mode
 241:Drivers/STM32F4xx_HAL_Driver/Src/stm32f4xx_ll_usb.c ****   * @param  USBx  Selected device
 242:Drivers/STM32F4xx_HAL_Driver/Src/stm32f4xx_ll_usb.c ****   * @param  mode  current core mode
 243:Drivers/STM32F4xx_HAL_Driver/Src/stm32f4xx_ll_usb.c ****   *          This parameter can be one of these values:
 244:Drivers/STM32F4xx_HAL_Driver/Src/stm32f4xx_ll_usb.c ****   *            @arg USB_DEVICE_MODE Peripheral mode
 245:Drivers/STM32F4xx_HAL_Driver/Src/stm32f4xx_ll_usb.c ****   *            @arg USB_HOST_MODE Host mode
 246:Drivers/STM32F4xx_HAL_Driver/Src/stm32f4xx_ll_usb.c ****   * @retval HAL status
 247:Drivers/STM32F4xx_HAL_Driver/Src/stm32f4xx_ll_usb.c ****   */
 248:Drivers/STM32F4xx_HAL_Driver/Src/stm32f4xx_ll_usb.c **** HAL_StatusTypeDef USB_SetCurrentMode(USB_OTG_GlobalTypeDef *USBx, USB_OTG_ModeTypeDef mode)
 249:Drivers/STM32F4xx_HAL_Driver/Src/stm32f4xx_ll_usb.c **** {
 513              		.loc 1 249 1
 514              		.cfi_startproc
 515              		@ args = 0, pretend = 0, frame = 8
 516              		@ frame_needed = 1, uses_anonymous_args = 0
 517 0000 80B5     		push	{r7, lr}
 518              	.LCFI26:
 519              		.cfi_def_cfa_offset 8
 520              		.cfi_offset 7, -8
 521              		.cfi_offset 14, -4
 522 0002 82B0     		sub	sp, sp, #8
 523              	.LCFI27:
 524              		.cfi_def_cfa_offset 16
 525 0004 00AF     		add	r7, sp, #0
 526              	.LCFI28:
 527              		.cfi_def_cfa_register 7
 528 0006 7860     		str	r0, [r7, #4]
 529 0008 0B46     		mov	r3, r1
 530 000a FB70     		strb	r3, [r7, #3]
 250:Drivers/STM32F4xx_HAL_Driver/Src/stm32f4xx_ll_usb.c ****   USBx->GUSBCFG &= ~(USB_OTG_GUSBCFG_FHMOD | USB_OTG_GUSBCFG_FDMOD);
 531              		.loc 1 250 17
 532 000c 7B68     		ldr	r3, [r7, #4]
 533 000e DB68     		ldr	r3, [r3, #12]
 534 0010 23F0C042 		bic	r2, r3, #1610612736
 535 0014 7B68     		ldr	r3, [r7, #4]
 536 0016 DA60     		str	r2, [r3, #12]
 251:Drivers/STM32F4xx_HAL_Driver/Src/stm32f4xx_ll_usb.c **** 
 252:Drivers/STM32F4xx_HAL_Driver/Src/stm32f4xx_ll_usb.c ****   if (mode == USB_HOST_MODE)
 537              		.loc 1 252 6
 538 0018 FB78     		ldrb	r3, [r7, #3]	@ zero_extendqisi2
 539 001a 012B     		cmp	r3, #1
 540 001c 06D1     		bne	.L30
 253:Drivers/STM32F4xx_HAL_Driver/Src/stm32f4xx_ll_usb.c ****   {
 254:Drivers/STM32F4xx_HAL_Driver/Src/stm32f4xx_ll_usb.c ****     USBx->GUSBCFG |= USB_OTG_GUSBCFG_FHMOD;
 541              		.loc 1 254 19
 542 001e 7B68     		ldr	r3, [r7, #4]
 543 0020 DB68     		ldr	r3, [r3, #12]
 544 0022 43F00052 		orr	r2, r3, #536870912
 545 0026 7B68     		ldr	r3, [r7, #4]
 546 0028 DA60     		str	r2, [r3, #12]
 547 002a 0BE0     		b	.L31
 548              	.L30:
 255:Drivers/STM32F4xx_HAL_Driver/Src/stm32f4xx_ll_usb.c ****   }
 256:Drivers/STM32F4xx_HAL_Driver/Src/stm32f4xx_ll_usb.c ****   else if (mode == USB_DEVICE_MODE)
 549              		.loc 1 256 11
 550 002c FB78     		ldrb	r3, [r7, #3]	@ zero_extendqisi2
 551 002e 002B     		cmp	r3, #0
ARM GAS  /var/folders/vq/qt4vp3kd5rxf7v2b6_fdtdt80000gn/T//ccOb9Y7L.s 			page 15


 552 0030 06D1     		bne	.L32
 257:Drivers/STM32F4xx_HAL_Driver/Src/stm32f4xx_ll_usb.c ****   {
 258:Drivers/STM32F4xx_HAL_Driver/Src/stm32f4xx_ll_usb.c ****     USBx->GUSBCFG |= USB_OTG_GUSBCFG_FDMOD;
 553              		.loc 1 258 19
 554 0032 7B68     		ldr	r3, [r7, #4]
 555 0034 DB68     		ldr	r3, [r3, #12]
 556 0036 43F08042 		orr	r2, r3, #1073741824
 557 003a 7B68     		ldr	r3, [r7, #4]
 558 003c DA60     		str	r2, [r3, #12]
 559 003e 01E0     		b	.L31
 560              	.L32:
 259:Drivers/STM32F4xx_HAL_Driver/Src/stm32f4xx_ll_usb.c ****   }
 260:Drivers/STM32F4xx_HAL_Driver/Src/stm32f4xx_ll_usb.c ****   else
 261:Drivers/STM32F4xx_HAL_Driver/Src/stm32f4xx_ll_usb.c ****   {
 262:Drivers/STM32F4xx_HAL_Driver/Src/stm32f4xx_ll_usb.c ****     return HAL_ERROR;
 561              		.loc 1 262 12
 562 0040 0123     		movs	r3, #1
 563 0042 03E0     		b	.L33
 564              	.L31:
 263:Drivers/STM32F4xx_HAL_Driver/Src/stm32f4xx_ll_usb.c ****   }
 264:Drivers/STM32F4xx_HAL_Driver/Src/stm32f4xx_ll_usb.c ****   HAL_Delay(50U);
 565              		.loc 1 264 3
 566 0044 3220     		movs	r0, #50
 567 0046 FFF7FEFF 		bl	HAL_Delay
 265:Drivers/STM32F4xx_HAL_Driver/Src/stm32f4xx_ll_usb.c **** 
 266:Drivers/STM32F4xx_HAL_Driver/Src/stm32f4xx_ll_usb.c ****   return HAL_OK;
 568              		.loc 1 266 10
 569 004a 0023     		movs	r3, #0
 570              	.L33:
 267:Drivers/STM32F4xx_HAL_Driver/Src/stm32f4xx_ll_usb.c **** }
 571              		.loc 1 267 1
 572 004c 1846     		mov	r0, r3
 573 004e 0837     		adds	r7, r7, #8
 574              	.LCFI29:
 575              		.cfi_def_cfa_offset 8
 576 0050 BD46     		mov	sp, r7
 577              	.LCFI30:
 578              		.cfi_def_cfa_register 13
 579              		@ sp needed
 580 0052 80BD     		pop	{r7, pc}
 581              		.cfi_endproc
 582              	.LFE134:
 584              		.section	.text.USB_DevInit,"ax",%progbits
 585              		.align	1
 586              		.global	USB_DevInit
 587              		.syntax unified
 588              		.thumb
 589              		.thumb_func
 590              		.fpu fpv4-sp-d16
 592              	USB_DevInit:
 593              	.LFB135:
 268:Drivers/STM32F4xx_HAL_Driver/Src/stm32f4xx_ll_usb.c **** 
 269:Drivers/STM32F4xx_HAL_Driver/Src/stm32f4xx_ll_usb.c **** /**
 270:Drivers/STM32F4xx_HAL_Driver/Src/stm32f4xx_ll_usb.c ****   * @brief  USB_DevInit Initializes the USB_OTG controller registers
 271:Drivers/STM32F4xx_HAL_Driver/Src/stm32f4xx_ll_usb.c ****   *         for device mode
 272:Drivers/STM32F4xx_HAL_Driver/Src/stm32f4xx_ll_usb.c ****   * @param  USBx  Selected device
 273:Drivers/STM32F4xx_HAL_Driver/Src/stm32f4xx_ll_usb.c ****   * @param  cfg   pointer to a USB_OTG_CfgTypeDef structure that contains
ARM GAS  /var/folders/vq/qt4vp3kd5rxf7v2b6_fdtdt80000gn/T//ccOb9Y7L.s 			page 16


 274:Drivers/STM32F4xx_HAL_Driver/Src/stm32f4xx_ll_usb.c ****   *         the configuration information for the specified USBx peripheral.
 275:Drivers/STM32F4xx_HAL_Driver/Src/stm32f4xx_ll_usb.c ****   * @retval HAL status
 276:Drivers/STM32F4xx_HAL_Driver/Src/stm32f4xx_ll_usb.c ****   */
 277:Drivers/STM32F4xx_HAL_Driver/Src/stm32f4xx_ll_usb.c **** HAL_StatusTypeDef USB_DevInit(USB_OTG_GlobalTypeDef *USBx, USB_OTG_CfgTypeDef cfg)
 278:Drivers/STM32F4xx_HAL_Driver/Src/stm32f4xx_ll_usb.c **** {
 594              		.loc 1 278 1
 595              		.cfi_startproc
 596              		@ args = 56, pretend = 16, frame = 24
 597              		@ frame_needed = 1, uses_anonymous_args = 0
 598 0000 84B0     		sub	sp, sp, #16
 599              	.LCFI31:
 600              		.cfi_def_cfa_offset 16
 601 0002 80B5     		push	{r7, lr}
 602              	.LCFI32:
 603              		.cfi_def_cfa_offset 24
 604              		.cfi_offset 7, -24
 605              		.cfi_offset 14, -20
 606 0004 86B0     		sub	sp, sp, #24
 607              	.LCFI33:
 608              		.cfi_def_cfa_offset 48
 609 0006 00AF     		add	r7, sp, #0
 610              	.LCFI34:
 611              		.cfi_def_cfa_register 7
 612 0008 7860     		str	r0, [r7, #4]
 613 000a 07F12400 		add	r0, r7, #36
 614 000e 80E80E00 		stm	r0, {r1, r2, r3}
 279:Drivers/STM32F4xx_HAL_Driver/Src/stm32f4xx_ll_usb.c ****   HAL_StatusTypeDef ret = HAL_OK;
 615              		.loc 1 279 21
 616 0012 0023     		movs	r3, #0
 617 0014 FB75     		strb	r3, [r7, #23]
 280:Drivers/STM32F4xx_HAL_Driver/Src/stm32f4xx_ll_usb.c ****   uint32_t USBx_BASE = (uint32_t)USBx;
 618              		.loc 1 280 12
 619 0016 7B68     		ldr	r3, [r7, #4]
 620 0018 FB60     		str	r3, [r7, #12]
 281:Drivers/STM32F4xx_HAL_Driver/Src/stm32f4xx_ll_usb.c ****   uint32_t i;
 282:Drivers/STM32F4xx_HAL_Driver/Src/stm32f4xx_ll_usb.c **** 
 283:Drivers/STM32F4xx_HAL_Driver/Src/stm32f4xx_ll_usb.c ****   for (i = 0U; i < 15U; i++)
 621              		.loc 1 283 10
 622 001a 0023     		movs	r3, #0
 623 001c 3B61     		str	r3, [r7, #16]
 624              		.loc 1 283 3
 625 001e 09E0     		b	.L35
 626              	.L36:
 284:Drivers/STM32F4xx_HAL_Driver/Src/stm32f4xx_ll_usb.c ****   {
 285:Drivers/STM32F4xx_HAL_Driver/Src/stm32f4xx_ll_usb.c ****     USBx->DIEPTXF[i] = 0U;
 627              		.loc 1 285 22 discriminator 3
 628 0020 7A68     		ldr	r2, [r7, #4]
 629 0022 3B69     		ldr	r3, [r7, #16]
 630 0024 4033     		adds	r3, r3, #64
 631 0026 9B00     		lsls	r3, r3, #2
 632 0028 1344     		add	r3, r3, r2
 633 002a 0022     		movs	r2, #0
 634 002c 5A60     		str	r2, [r3, #4]
 283:Drivers/STM32F4xx_HAL_Driver/Src/stm32f4xx_ll_usb.c ****   {
 635              		.loc 1 283 26 discriminator 3
 636 002e 3B69     		ldr	r3, [r7, #16]
 637 0030 0133     		adds	r3, r3, #1
ARM GAS  /var/folders/vq/qt4vp3kd5rxf7v2b6_fdtdt80000gn/T//ccOb9Y7L.s 			page 17


 638 0032 3B61     		str	r3, [r7, #16]
 639              	.L35:
 283:Drivers/STM32F4xx_HAL_Driver/Src/stm32f4xx_ll_usb.c ****   {
 640              		.loc 1 283 3 discriminator 1
 641 0034 3B69     		ldr	r3, [r7, #16]
 642 0036 0E2B     		cmp	r3, #14
 643 0038 F2D9     		bls	.L36
 286:Drivers/STM32F4xx_HAL_Driver/Src/stm32f4xx_ll_usb.c ****   }
 287:Drivers/STM32F4xx_HAL_Driver/Src/stm32f4xx_ll_usb.c **** 
 288:Drivers/STM32F4xx_HAL_Driver/Src/stm32f4xx_ll_usb.c **** #if defined(STM32F446xx) || defined(STM32F469xx) || defined(STM32F479xx) || defined(STM32F412Zx) ||
 289:Drivers/STM32F4xx_HAL_Driver/Src/stm32f4xx_ll_usb.c ****   /* VBUS Sensing setup */
 290:Drivers/STM32F4xx_HAL_Driver/Src/stm32f4xx_ll_usb.c ****   if (cfg.vbus_sensing_enable == 0U)
 291:Drivers/STM32F4xx_HAL_Driver/Src/stm32f4xx_ll_usb.c ****   {
 292:Drivers/STM32F4xx_HAL_Driver/Src/stm32f4xx_ll_usb.c ****     USBx_DEVICE->DCTL |= USB_OTG_DCTL_SDIS;
 293:Drivers/STM32F4xx_HAL_Driver/Src/stm32f4xx_ll_usb.c **** 
 294:Drivers/STM32F4xx_HAL_Driver/Src/stm32f4xx_ll_usb.c ****     /* Deactivate VBUS Sensing B */
 295:Drivers/STM32F4xx_HAL_Driver/Src/stm32f4xx_ll_usb.c ****     USBx->GCCFG &= ~USB_OTG_GCCFG_VBDEN;
 296:Drivers/STM32F4xx_HAL_Driver/Src/stm32f4xx_ll_usb.c **** 
 297:Drivers/STM32F4xx_HAL_Driver/Src/stm32f4xx_ll_usb.c ****     /* B-peripheral session valid override enable */
 298:Drivers/STM32F4xx_HAL_Driver/Src/stm32f4xx_ll_usb.c ****     USBx->GOTGCTL |= USB_OTG_GOTGCTL_BVALOEN;
 299:Drivers/STM32F4xx_HAL_Driver/Src/stm32f4xx_ll_usb.c ****     USBx->GOTGCTL |= USB_OTG_GOTGCTL_BVALOVAL;
 300:Drivers/STM32F4xx_HAL_Driver/Src/stm32f4xx_ll_usb.c ****   }
 301:Drivers/STM32F4xx_HAL_Driver/Src/stm32f4xx_ll_usb.c ****   else
 302:Drivers/STM32F4xx_HAL_Driver/Src/stm32f4xx_ll_usb.c ****   {
 303:Drivers/STM32F4xx_HAL_Driver/Src/stm32f4xx_ll_usb.c ****     /* Enable HW VBUS sensing */
 304:Drivers/STM32F4xx_HAL_Driver/Src/stm32f4xx_ll_usb.c ****     USBx->GCCFG |= USB_OTG_GCCFG_VBDEN;
 305:Drivers/STM32F4xx_HAL_Driver/Src/stm32f4xx_ll_usb.c ****   }
 306:Drivers/STM32F4xx_HAL_Driver/Src/stm32f4xx_ll_usb.c **** #else
 307:Drivers/STM32F4xx_HAL_Driver/Src/stm32f4xx_ll_usb.c ****   /* VBUS Sensing setup */
 308:Drivers/STM32F4xx_HAL_Driver/Src/stm32f4xx_ll_usb.c ****   if (cfg.vbus_sensing_enable == 0U)
 644              		.loc 1 308 10
 645 003a FB6C     		ldr	r3, [r7, #76]
 646              		.loc 1 308 6
 647 003c 002B     		cmp	r3, #0
 648 003e 1CD1     		bne	.L37
 309:Drivers/STM32F4xx_HAL_Driver/Src/stm32f4xx_ll_usb.c ****   {
 310:Drivers/STM32F4xx_HAL_Driver/Src/stm32f4xx_ll_usb.c ****     /*
 311:Drivers/STM32F4xx_HAL_Driver/Src/stm32f4xx_ll_usb.c ****      * Disable HW VBUS sensing. VBUS is internally considered to be always
 312:Drivers/STM32F4xx_HAL_Driver/Src/stm32f4xx_ll_usb.c ****      * at VBUS-Valid level (5V).
 313:Drivers/STM32F4xx_HAL_Driver/Src/stm32f4xx_ll_usb.c ****      */
 314:Drivers/STM32F4xx_HAL_Driver/Src/stm32f4xx_ll_usb.c ****     USBx_DEVICE->DCTL |= USB_OTG_DCTL_SDIS;
 649              		.loc 1 314 23
 650 0040 FB68     		ldr	r3, [r7, #12]
 651 0042 03F50063 		add	r3, r3, #2048
 652 0046 5B68     		ldr	r3, [r3, #4]
 653 0048 FA68     		ldr	r2, [r7, #12]
 654 004a 02F50062 		add	r2, r2, #2048
 655 004e 43F00203 		orr	r3, r3, #2
 656 0052 5360     		str	r3, [r2, #4]
 315:Drivers/STM32F4xx_HAL_Driver/Src/stm32f4xx_ll_usb.c ****     USBx->GCCFG |= USB_OTG_GCCFG_NOVBUSSENS;
 657              		.loc 1 315 17
 658 0054 7B68     		ldr	r3, [r7, #4]
 659 0056 9B6B     		ldr	r3, [r3, #56]
 660 0058 43F40012 		orr	r2, r3, #2097152
 661 005c 7B68     		ldr	r3, [r7, #4]
 662 005e 9A63     		str	r2, [r3, #56]
 316:Drivers/STM32F4xx_HAL_Driver/Src/stm32f4xx_ll_usb.c ****     USBx->GCCFG &= ~USB_OTG_GCCFG_VBUSBSEN;
ARM GAS  /var/folders/vq/qt4vp3kd5rxf7v2b6_fdtdt80000gn/T//ccOb9Y7L.s 			page 18


 663              		.loc 1 316 17
 664 0060 7B68     		ldr	r3, [r7, #4]
 665 0062 9B6B     		ldr	r3, [r3, #56]
 666 0064 23F40022 		bic	r2, r3, #524288
 667 0068 7B68     		ldr	r3, [r7, #4]
 668 006a 9A63     		str	r2, [r3, #56]
 317:Drivers/STM32F4xx_HAL_Driver/Src/stm32f4xx_ll_usb.c ****     USBx->GCCFG &= ~USB_OTG_GCCFG_VBUSASEN;
 669              		.loc 1 317 17
 670 006c 7B68     		ldr	r3, [r7, #4]
 671 006e 9B6B     		ldr	r3, [r3, #56]
 672 0070 23F48022 		bic	r2, r3, #262144
 673 0074 7B68     		ldr	r3, [r7, #4]
 674 0076 9A63     		str	r2, [r3, #56]
 675 0078 0BE0     		b	.L38
 676              	.L37:
 318:Drivers/STM32F4xx_HAL_Driver/Src/stm32f4xx_ll_usb.c ****   }
 319:Drivers/STM32F4xx_HAL_Driver/Src/stm32f4xx_ll_usb.c ****   else
 320:Drivers/STM32F4xx_HAL_Driver/Src/stm32f4xx_ll_usb.c ****   {
 321:Drivers/STM32F4xx_HAL_Driver/Src/stm32f4xx_ll_usb.c ****     /* Enable HW VBUS sensing */
 322:Drivers/STM32F4xx_HAL_Driver/Src/stm32f4xx_ll_usb.c ****     USBx->GCCFG &= ~USB_OTG_GCCFG_NOVBUSSENS;
 677              		.loc 1 322 17
 678 007a 7B68     		ldr	r3, [r7, #4]
 679 007c 9B6B     		ldr	r3, [r3, #56]
 680 007e 23F40012 		bic	r2, r3, #2097152
 681 0082 7B68     		ldr	r3, [r7, #4]
 682 0084 9A63     		str	r2, [r3, #56]
 323:Drivers/STM32F4xx_HAL_Driver/Src/stm32f4xx_ll_usb.c ****     USBx->GCCFG |= USB_OTG_GCCFG_VBUSBSEN;
 683              		.loc 1 323 17
 684 0086 7B68     		ldr	r3, [r7, #4]
 685 0088 9B6B     		ldr	r3, [r3, #56]
 686 008a 43F40022 		orr	r2, r3, #524288
 687 008e 7B68     		ldr	r3, [r7, #4]
 688 0090 9A63     		str	r2, [r3, #56]
 689              	.L38:
 324:Drivers/STM32F4xx_HAL_Driver/Src/stm32f4xx_ll_usb.c ****   }
 325:Drivers/STM32F4xx_HAL_Driver/Src/stm32f4xx_ll_usb.c **** #endif /* defined(STM32F446xx) || defined(STM32F469xx) || defined(STM32F479xx) || defined(STM32F412
 326:Drivers/STM32F4xx_HAL_Driver/Src/stm32f4xx_ll_usb.c **** 
 327:Drivers/STM32F4xx_HAL_Driver/Src/stm32f4xx_ll_usb.c ****   /* Restart the Phy Clock */
 328:Drivers/STM32F4xx_HAL_Driver/Src/stm32f4xx_ll_usb.c ****   USBx_PCGCCTL = 0U;
 690              		.loc 1 328 3
 691 0092 FB68     		ldr	r3, [r7, #12]
 692 0094 03F56063 		add	r3, r3, #3584
 693 0098 1A46     		mov	r2, r3
 694              		.loc 1 328 16
 695 009a 0023     		movs	r3, #0
 696 009c 1360     		str	r3, [r2]
 329:Drivers/STM32F4xx_HAL_Driver/Src/stm32f4xx_ll_usb.c **** 
 330:Drivers/STM32F4xx_HAL_Driver/Src/stm32f4xx_ll_usb.c ****   /* Device mode configuration */
 331:Drivers/STM32F4xx_HAL_Driver/Src/stm32f4xx_ll_usb.c ****   USBx_DEVICE->DCFG |= DCFG_FRAME_INTERVAL_80;
 697              		.loc 1 331 21
 698 009e FB68     		ldr	r3, [r7, #12]
 699 00a0 03F50063 		add	r3, r3, #2048
 700 00a4 1946     		mov	r1, r3
 701 00a6 FB68     		ldr	r3, [r7, #12]
 702 00a8 03F50063 		add	r3, r3, #2048
 703 00ac 1A46     		mov	r2, r3
 704 00ae 0B68     		ldr	r3, [r1]
ARM GAS  /var/folders/vq/qt4vp3kd5rxf7v2b6_fdtdt80000gn/T//ccOb9Y7L.s 			page 19


 705 00b0 1360     		str	r3, [r2]
 332:Drivers/STM32F4xx_HAL_Driver/Src/stm32f4xx_ll_usb.c **** 
 333:Drivers/STM32F4xx_HAL_Driver/Src/stm32f4xx_ll_usb.c ****   if (cfg.phy_itface == USB_OTG_ULPI_PHY)
 706              		.loc 1 333 10
 707 00b2 BB6B     		ldr	r3, [r7, #56]
 708              		.loc 1 333 6
 709 00b4 012B     		cmp	r3, #1
 710 00b6 0CD1     		bne	.L39
 334:Drivers/STM32F4xx_HAL_Driver/Src/stm32f4xx_ll_usb.c ****   {
 335:Drivers/STM32F4xx_HAL_Driver/Src/stm32f4xx_ll_usb.c ****     if (cfg.speed == USBD_HS_SPEED)
 711              		.loc 1 335 12
 712 00b8 FB6A     		ldr	r3, [r7, #44]
 713              		.loc 1 335 8
 714 00ba 002B     		cmp	r3, #0
 715 00bc 04D1     		bne	.L40
 336:Drivers/STM32F4xx_HAL_Driver/Src/stm32f4xx_ll_usb.c ****     {
 337:Drivers/STM32F4xx_HAL_Driver/Src/stm32f4xx_ll_usb.c ****       /* Set Core speed to High speed mode */
 338:Drivers/STM32F4xx_HAL_Driver/Src/stm32f4xx_ll_usb.c ****       (void)USB_SetDevSpeed(USBx, USB_OTG_SPEED_HIGH);
 716              		.loc 1 338 13
 717 00be 0021     		movs	r1, #0
 718 00c0 7868     		ldr	r0, [r7, #4]
 719 00c2 FFF7FEFF 		bl	USB_SetDevSpeed
 720 00c6 08E0     		b	.L41
 721              	.L40:
 339:Drivers/STM32F4xx_HAL_Driver/Src/stm32f4xx_ll_usb.c ****     }
 340:Drivers/STM32F4xx_HAL_Driver/Src/stm32f4xx_ll_usb.c ****     else
 341:Drivers/STM32F4xx_HAL_Driver/Src/stm32f4xx_ll_usb.c ****     {
 342:Drivers/STM32F4xx_HAL_Driver/Src/stm32f4xx_ll_usb.c ****       /* Set Core speed to Full speed mode */
 343:Drivers/STM32F4xx_HAL_Driver/Src/stm32f4xx_ll_usb.c ****       (void)USB_SetDevSpeed(USBx, USB_OTG_SPEED_HIGH_IN_FULL);
 722              		.loc 1 343 13
 723 00c8 0121     		movs	r1, #1
 724 00ca 7868     		ldr	r0, [r7, #4]
 725 00cc FFF7FEFF 		bl	USB_SetDevSpeed
 726 00d0 03E0     		b	.L41
 727              	.L39:
 344:Drivers/STM32F4xx_HAL_Driver/Src/stm32f4xx_ll_usb.c ****     }
 345:Drivers/STM32F4xx_HAL_Driver/Src/stm32f4xx_ll_usb.c ****   }
 346:Drivers/STM32F4xx_HAL_Driver/Src/stm32f4xx_ll_usb.c ****   else
 347:Drivers/STM32F4xx_HAL_Driver/Src/stm32f4xx_ll_usb.c ****   {
 348:Drivers/STM32F4xx_HAL_Driver/Src/stm32f4xx_ll_usb.c ****     /* Set Core speed to Full speed mode */
 349:Drivers/STM32F4xx_HAL_Driver/Src/stm32f4xx_ll_usb.c ****     (void)USB_SetDevSpeed(USBx, USB_OTG_SPEED_FULL);
 728              		.loc 1 349 11
 729 00d2 0321     		movs	r1, #3
 730 00d4 7868     		ldr	r0, [r7, #4]
 731 00d6 FFF7FEFF 		bl	USB_SetDevSpeed
 732              	.L41:
 350:Drivers/STM32F4xx_HAL_Driver/Src/stm32f4xx_ll_usb.c ****   }
 351:Drivers/STM32F4xx_HAL_Driver/Src/stm32f4xx_ll_usb.c **** 
 352:Drivers/STM32F4xx_HAL_Driver/Src/stm32f4xx_ll_usb.c ****   /* Flush the FIFOs */
 353:Drivers/STM32F4xx_HAL_Driver/Src/stm32f4xx_ll_usb.c ****   if (USB_FlushTxFifo(USBx, 0x10U) != HAL_OK) /* all Tx FIFOs */
 733              		.loc 1 353 7
 734 00da 1021     		movs	r1, #16
 735 00dc 7868     		ldr	r0, [r7, #4]
 736 00de FFF7FEFF 		bl	USB_FlushTxFifo
 737 00e2 0346     		mov	r3, r0
 738              		.loc 1 353 6
 739 00e4 002B     		cmp	r3, #0
ARM GAS  /var/folders/vq/qt4vp3kd5rxf7v2b6_fdtdt80000gn/T//ccOb9Y7L.s 			page 20


 740 00e6 01D0     		beq	.L42
 354:Drivers/STM32F4xx_HAL_Driver/Src/stm32f4xx_ll_usb.c ****   {
 355:Drivers/STM32F4xx_HAL_Driver/Src/stm32f4xx_ll_usb.c ****     ret = HAL_ERROR;
 741              		.loc 1 355 9
 742 00e8 0123     		movs	r3, #1
 743 00ea FB75     		strb	r3, [r7, #23]
 744              	.L42:
 356:Drivers/STM32F4xx_HAL_Driver/Src/stm32f4xx_ll_usb.c ****   }
 357:Drivers/STM32F4xx_HAL_Driver/Src/stm32f4xx_ll_usb.c **** 
 358:Drivers/STM32F4xx_HAL_Driver/Src/stm32f4xx_ll_usb.c ****   if (USB_FlushRxFifo(USBx) != HAL_OK)
 745              		.loc 1 358 7
 746 00ec 7868     		ldr	r0, [r7, #4]
 747 00ee FFF7FEFF 		bl	USB_FlushRxFifo
 748 00f2 0346     		mov	r3, r0
 749              		.loc 1 358 6
 750 00f4 002B     		cmp	r3, #0
 751 00f6 01D0     		beq	.L43
 359:Drivers/STM32F4xx_HAL_Driver/Src/stm32f4xx_ll_usb.c ****   {
 360:Drivers/STM32F4xx_HAL_Driver/Src/stm32f4xx_ll_usb.c ****     ret = HAL_ERROR;
 752              		.loc 1 360 9
 753 00f8 0123     		movs	r3, #1
 754 00fa FB75     		strb	r3, [r7, #23]
 755              	.L43:
 361:Drivers/STM32F4xx_HAL_Driver/Src/stm32f4xx_ll_usb.c ****   }
 362:Drivers/STM32F4xx_HAL_Driver/Src/stm32f4xx_ll_usb.c **** 
 363:Drivers/STM32F4xx_HAL_Driver/Src/stm32f4xx_ll_usb.c ****   /* Clear all pending Device Interrupts */
 364:Drivers/STM32F4xx_HAL_Driver/Src/stm32f4xx_ll_usb.c ****   USBx_DEVICE->DIEPMSK = 0U;
 756              		.loc 1 364 3
 757 00fc FB68     		ldr	r3, [r7, #12]
 758 00fe 03F50063 		add	r3, r3, #2048
 759 0102 1A46     		mov	r2, r3
 760              		.loc 1 364 24
 761 0104 0023     		movs	r3, #0
 762 0106 1361     		str	r3, [r2, #16]
 365:Drivers/STM32F4xx_HAL_Driver/Src/stm32f4xx_ll_usb.c ****   USBx_DEVICE->DOEPMSK = 0U;
 763              		.loc 1 365 3
 764 0108 FB68     		ldr	r3, [r7, #12]
 765 010a 03F50063 		add	r3, r3, #2048
 766 010e 1A46     		mov	r2, r3
 767              		.loc 1 365 24
 768 0110 0023     		movs	r3, #0
 769 0112 5361     		str	r3, [r2, #20]
 366:Drivers/STM32F4xx_HAL_Driver/Src/stm32f4xx_ll_usb.c ****   USBx_DEVICE->DAINTMSK = 0U;
 770              		.loc 1 366 3
 771 0114 FB68     		ldr	r3, [r7, #12]
 772 0116 03F50063 		add	r3, r3, #2048
 773 011a 1A46     		mov	r2, r3
 774              		.loc 1 366 25
 775 011c 0023     		movs	r3, #0
 776 011e D361     		str	r3, [r2, #28]
 367:Drivers/STM32F4xx_HAL_Driver/Src/stm32f4xx_ll_usb.c **** 
 368:Drivers/STM32F4xx_HAL_Driver/Src/stm32f4xx_ll_usb.c ****   for (i = 0U; i < cfg.dev_endpoints; i++)
 777              		.loc 1 368 10
 778 0120 0023     		movs	r3, #0
 779 0122 3B61     		str	r3, [r7, #16]
 780              		.loc 1 368 3
 781 0124 43E0     		b	.L44
ARM GAS  /var/folders/vq/qt4vp3kd5rxf7v2b6_fdtdt80000gn/T//ccOb9Y7L.s 			page 21


 782              	.L48:
 369:Drivers/STM32F4xx_HAL_Driver/Src/stm32f4xx_ll_usb.c ****   {
 370:Drivers/STM32F4xx_HAL_Driver/Src/stm32f4xx_ll_usb.c ****     if ((USBx_INEP(i)->DIEPCTL & USB_OTG_DIEPCTL_EPENA) == USB_OTG_DIEPCTL_EPENA)
 783              		.loc 1 370 10
 784 0126 3B69     		ldr	r3, [r7, #16]
 785 0128 5A01     		lsls	r2, r3, #5
 786 012a FB68     		ldr	r3, [r7, #12]
 787 012c 1344     		add	r3, r3, r2
 788 012e 03F51063 		add	r3, r3, #2304
 789              		.loc 1 370 22
 790 0132 1B68     		ldr	r3, [r3]
 791              		.loc 1 370 32
 792 0134 03F00043 		and	r3, r3, #-2147483648
 793              		.loc 1 370 8
 794 0138 B3F1004F 		cmp	r3, #-2147483648
 795 013c 18D1     		bne	.L45
 371:Drivers/STM32F4xx_HAL_Driver/Src/stm32f4xx_ll_usb.c ****     {
 372:Drivers/STM32F4xx_HAL_Driver/Src/stm32f4xx_ll_usb.c ****       if (i == 0U)
 796              		.loc 1 372 10
 797 013e 3B69     		ldr	r3, [r7, #16]
 798 0140 002B     		cmp	r3, #0
 799 0142 0AD1     		bne	.L46
 373:Drivers/STM32F4xx_HAL_Driver/Src/stm32f4xx_ll_usb.c ****       {
 374:Drivers/STM32F4xx_HAL_Driver/Src/stm32f4xx_ll_usb.c ****         USBx_INEP(i)->DIEPCTL = USB_OTG_DIEPCTL_SNAK;
 800              		.loc 1 374 9
 801 0144 3B69     		ldr	r3, [r7, #16]
 802 0146 5A01     		lsls	r2, r3, #5
 803 0148 FB68     		ldr	r3, [r7, #12]
 804 014a 1344     		add	r3, r3, r2
 805 014c 03F51063 		add	r3, r3, #2304
 806 0150 1A46     		mov	r2, r3
 807              		.loc 1 374 31
 808 0152 4FF00063 		mov	r3, #134217728
 809 0156 1360     		str	r3, [r2]
 810 0158 13E0     		b	.L47
 811              	.L46:
 375:Drivers/STM32F4xx_HAL_Driver/Src/stm32f4xx_ll_usb.c ****       }
 376:Drivers/STM32F4xx_HAL_Driver/Src/stm32f4xx_ll_usb.c ****       else
 377:Drivers/STM32F4xx_HAL_Driver/Src/stm32f4xx_ll_usb.c ****       {
 378:Drivers/STM32F4xx_HAL_Driver/Src/stm32f4xx_ll_usb.c ****         USBx_INEP(i)->DIEPCTL = USB_OTG_DIEPCTL_EPDIS | USB_OTG_DIEPCTL_SNAK;
 812              		.loc 1 378 9
 813 015a 3B69     		ldr	r3, [r7, #16]
 814 015c 5A01     		lsls	r2, r3, #5
 815 015e FB68     		ldr	r3, [r7, #12]
 816 0160 1344     		add	r3, r3, r2
 817 0162 03F51063 		add	r3, r3, #2304
 818 0166 1A46     		mov	r2, r3
 819              		.loc 1 378 31
 820 0168 4FF09043 		mov	r3, #1207959552
 821 016c 1360     		str	r3, [r2]
 822 016e 08E0     		b	.L47
 823              	.L45:
 379:Drivers/STM32F4xx_HAL_Driver/Src/stm32f4xx_ll_usb.c ****       }
 380:Drivers/STM32F4xx_HAL_Driver/Src/stm32f4xx_ll_usb.c ****     }
 381:Drivers/STM32F4xx_HAL_Driver/Src/stm32f4xx_ll_usb.c ****     else
 382:Drivers/STM32F4xx_HAL_Driver/Src/stm32f4xx_ll_usb.c ****     {
 383:Drivers/STM32F4xx_HAL_Driver/Src/stm32f4xx_ll_usb.c ****       USBx_INEP(i)->DIEPCTL = 0U;
ARM GAS  /var/folders/vq/qt4vp3kd5rxf7v2b6_fdtdt80000gn/T//ccOb9Y7L.s 			page 22


 824              		.loc 1 383 7
 825 0170 3B69     		ldr	r3, [r7, #16]
 826 0172 5A01     		lsls	r2, r3, #5
 827 0174 FB68     		ldr	r3, [r7, #12]
 828 0176 1344     		add	r3, r3, r2
 829 0178 03F51063 		add	r3, r3, #2304
 830 017c 1A46     		mov	r2, r3
 831              		.loc 1 383 29
 832 017e 0023     		movs	r3, #0
 833 0180 1360     		str	r3, [r2]
 834              	.L47:
 384:Drivers/STM32F4xx_HAL_Driver/Src/stm32f4xx_ll_usb.c ****     }
 385:Drivers/STM32F4xx_HAL_Driver/Src/stm32f4xx_ll_usb.c **** 
 386:Drivers/STM32F4xx_HAL_Driver/Src/stm32f4xx_ll_usb.c ****     USBx_INEP(i)->DIEPTSIZ = 0U;
 835              		.loc 1 386 5 discriminator 2
 836 0182 3B69     		ldr	r3, [r7, #16]
 837 0184 5A01     		lsls	r2, r3, #5
 838 0186 FB68     		ldr	r3, [r7, #12]
 839 0188 1344     		add	r3, r3, r2
 840 018a 03F51063 		add	r3, r3, #2304
 841 018e 1A46     		mov	r2, r3
 842              		.loc 1 386 28 discriminator 2
 843 0190 0023     		movs	r3, #0
 844 0192 1361     		str	r3, [r2, #16]
 387:Drivers/STM32F4xx_HAL_Driver/Src/stm32f4xx_ll_usb.c ****     USBx_INEP(i)->DIEPINT  = 0xFB7FU;
 845              		.loc 1 387 5 discriminator 2
 846 0194 3B69     		ldr	r3, [r7, #16]
 847 0196 5A01     		lsls	r2, r3, #5
 848 0198 FB68     		ldr	r3, [r7, #12]
 849 019a 1344     		add	r3, r3, r2
 850 019c 03F51063 		add	r3, r3, #2304
 851 01a0 1A46     		mov	r2, r3
 852              		.loc 1 387 28 discriminator 2
 853 01a2 4FF67F33 		movw	r3, #64383
 854 01a6 9360     		str	r3, [r2, #8]
 368:Drivers/STM32F4xx_HAL_Driver/Src/stm32f4xx_ll_usb.c ****   {
 855              		.loc 1 368 40 discriminator 2
 856 01a8 3B69     		ldr	r3, [r7, #16]
 857 01aa 0133     		adds	r3, r3, #1
 858 01ac 3B61     		str	r3, [r7, #16]
 859              	.L44:
 368:Drivers/STM32F4xx_HAL_Driver/Src/stm32f4xx_ll_usb.c ****   {
 860              		.loc 1 368 23 discriminator 1
 861 01ae 7B6A     		ldr	r3, [r7, #36]
 368:Drivers/STM32F4xx_HAL_Driver/Src/stm32f4xx_ll_usb.c ****   {
 862              		.loc 1 368 3 discriminator 1
 863 01b0 3A69     		ldr	r2, [r7, #16]
 864 01b2 9A42     		cmp	r2, r3
 865 01b4 B7D3     		bcc	.L48
 388:Drivers/STM32F4xx_HAL_Driver/Src/stm32f4xx_ll_usb.c ****   }
 389:Drivers/STM32F4xx_HAL_Driver/Src/stm32f4xx_ll_usb.c **** 
 390:Drivers/STM32F4xx_HAL_Driver/Src/stm32f4xx_ll_usb.c ****   for (i = 0U; i < cfg.dev_endpoints; i++)
 866              		.loc 1 390 10
 867 01b6 0023     		movs	r3, #0
 868 01b8 3B61     		str	r3, [r7, #16]
 869              		.loc 1 390 3
 870 01ba 43E0     		b	.L49
ARM GAS  /var/folders/vq/qt4vp3kd5rxf7v2b6_fdtdt80000gn/T//ccOb9Y7L.s 			page 23


 871              	.L53:
 391:Drivers/STM32F4xx_HAL_Driver/Src/stm32f4xx_ll_usb.c ****   {
 392:Drivers/STM32F4xx_HAL_Driver/Src/stm32f4xx_ll_usb.c ****     if ((USBx_OUTEP(i)->DOEPCTL & USB_OTG_DOEPCTL_EPENA) == USB_OTG_DOEPCTL_EPENA)
 872              		.loc 1 392 10
 873 01bc 3B69     		ldr	r3, [r7, #16]
 874 01be 5A01     		lsls	r2, r3, #5
 875 01c0 FB68     		ldr	r3, [r7, #12]
 876 01c2 1344     		add	r3, r3, r2
 877 01c4 03F53063 		add	r3, r3, #2816
 878              		.loc 1 392 23
 879 01c8 1B68     		ldr	r3, [r3]
 880              		.loc 1 392 33
 881 01ca 03F00043 		and	r3, r3, #-2147483648
 882              		.loc 1 392 8
 883 01ce B3F1004F 		cmp	r3, #-2147483648
 884 01d2 18D1     		bne	.L50
 393:Drivers/STM32F4xx_HAL_Driver/Src/stm32f4xx_ll_usb.c ****     {
 394:Drivers/STM32F4xx_HAL_Driver/Src/stm32f4xx_ll_usb.c ****       if (i == 0U)
 885              		.loc 1 394 10
 886 01d4 3B69     		ldr	r3, [r7, #16]
 887 01d6 002B     		cmp	r3, #0
 888 01d8 0AD1     		bne	.L51
 395:Drivers/STM32F4xx_HAL_Driver/Src/stm32f4xx_ll_usb.c ****       {
 396:Drivers/STM32F4xx_HAL_Driver/Src/stm32f4xx_ll_usb.c ****         USBx_OUTEP(i)->DOEPCTL = USB_OTG_DOEPCTL_SNAK;
 889              		.loc 1 396 9
 890 01da 3B69     		ldr	r3, [r7, #16]
 891 01dc 5A01     		lsls	r2, r3, #5
 892 01de FB68     		ldr	r3, [r7, #12]
 893 01e0 1344     		add	r3, r3, r2
 894 01e2 03F53063 		add	r3, r3, #2816
 895 01e6 1A46     		mov	r2, r3
 896              		.loc 1 396 32
 897 01e8 4FF00063 		mov	r3, #134217728
 898 01ec 1360     		str	r3, [r2]
 899 01ee 13E0     		b	.L52
 900              	.L51:
 397:Drivers/STM32F4xx_HAL_Driver/Src/stm32f4xx_ll_usb.c ****       }
 398:Drivers/STM32F4xx_HAL_Driver/Src/stm32f4xx_ll_usb.c ****       else
 399:Drivers/STM32F4xx_HAL_Driver/Src/stm32f4xx_ll_usb.c ****       {
 400:Drivers/STM32F4xx_HAL_Driver/Src/stm32f4xx_ll_usb.c ****         USBx_OUTEP(i)->DOEPCTL = USB_OTG_DOEPCTL_EPDIS | USB_OTG_DOEPCTL_SNAK;
 901              		.loc 1 400 9
 902 01f0 3B69     		ldr	r3, [r7, #16]
 903 01f2 5A01     		lsls	r2, r3, #5
 904 01f4 FB68     		ldr	r3, [r7, #12]
 905 01f6 1344     		add	r3, r3, r2
 906 01f8 03F53063 		add	r3, r3, #2816
 907 01fc 1A46     		mov	r2, r3
 908              		.loc 1 400 32
 909 01fe 4FF09043 		mov	r3, #1207959552
 910 0202 1360     		str	r3, [r2]
 911 0204 08E0     		b	.L52
 912              	.L50:
 401:Drivers/STM32F4xx_HAL_Driver/Src/stm32f4xx_ll_usb.c ****       }
 402:Drivers/STM32F4xx_HAL_Driver/Src/stm32f4xx_ll_usb.c ****     }
 403:Drivers/STM32F4xx_HAL_Driver/Src/stm32f4xx_ll_usb.c ****     else
 404:Drivers/STM32F4xx_HAL_Driver/Src/stm32f4xx_ll_usb.c ****     {
 405:Drivers/STM32F4xx_HAL_Driver/Src/stm32f4xx_ll_usb.c ****       USBx_OUTEP(i)->DOEPCTL = 0U;
ARM GAS  /var/folders/vq/qt4vp3kd5rxf7v2b6_fdtdt80000gn/T//ccOb9Y7L.s 			page 24


 913              		.loc 1 405 7
 914 0206 3B69     		ldr	r3, [r7, #16]
 915 0208 5A01     		lsls	r2, r3, #5
 916 020a FB68     		ldr	r3, [r7, #12]
 917 020c 1344     		add	r3, r3, r2
 918 020e 03F53063 		add	r3, r3, #2816
 919 0212 1A46     		mov	r2, r3
 920              		.loc 1 405 30
 921 0214 0023     		movs	r3, #0
 922 0216 1360     		str	r3, [r2]
 923              	.L52:
 406:Drivers/STM32F4xx_HAL_Driver/Src/stm32f4xx_ll_usb.c ****     }
 407:Drivers/STM32F4xx_HAL_Driver/Src/stm32f4xx_ll_usb.c **** 
 408:Drivers/STM32F4xx_HAL_Driver/Src/stm32f4xx_ll_usb.c ****     USBx_OUTEP(i)->DOEPTSIZ = 0U;
 924              		.loc 1 408 5 discriminator 2
 925 0218 3B69     		ldr	r3, [r7, #16]
 926 021a 5A01     		lsls	r2, r3, #5
 927 021c FB68     		ldr	r3, [r7, #12]
 928 021e 1344     		add	r3, r3, r2
 929 0220 03F53063 		add	r3, r3, #2816
 930 0224 1A46     		mov	r2, r3
 931              		.loc 1 408 29 discriminator 2
 932 0226 0023     		movs	r3, #0
 933 0228 1361     		str	r3, [r2, #16]
 409:Drivers/STM32F4xx_HAL_Driver/Src/stm32f4xx_ll_usb.c ****     USBx_OUTEP(i)->DOEPINT  = 0xFB7FU;
 934              		.loc 1 409 5 discriminator 2
 935 022a 3B69     		ldr	r3, [r7, #16]
 936 022c 5A01     		lsls	r2, r3, #5
 937 022e FB68     		ldr	r3, [r7, #12]
 938 0230 1344     		add	r3, r3, r2
 939 0232 03F53063 		add	r3, r3, #2816
 940 0236 1A46     		mov	r2, r3
 941              		.loc 1 409 29 discriminator 2
 942 0238 4FF67F33 		movw	r3, #64383
 943 023c 9360     		str	r3, [r2, #8]
 390:Drivers/STM32F4xx_HAL_Driver/Src/stm32f4xx_ll_usb.c ****   {
 944              		.loc 1 390 40 discriminator 2
 945 023e 3B69     		ldr	r3, [r7, #16]
 946 0240 0133     		adds	r3, r3, #1
 947 0242 3B61     		str	r3, [r7, #16]
 948              	.L49:
 390:Drivers/STM32F4xx_HAL_Driver/Src/stm32f4xx_ll_usb.c ****   {
 949              		.loc 1 390 23 discriminator 1
 950 0244 7B6A     		ldr	r3, [r7, #36]
 390:Drivers/STM32F4xx_HAL_Driver/Src/stm32f4xx_ll_usb.c ****   {
 951              		.loc 1 390 3 discriminator 1
 952 0246 3A69     		ldr	r2, [r7, #16]
 953 0248 9A42     		cmp	r2, r3
 954 024a B7D3     		bcc	.L53
 410:Drivers/STM32F4xx_HAL_Driver/Src/stm32f4xx_ll_usb.c ****   }
 411:Drivers/STM32F4xx_HAL_Driver/Src/stm32f4xx_ll_usb.c **** 
 412:Drivers/STM32F4xx_HAL_Driver/Src/stm32f4xx_ll_usb.c ****   USBx_DEVICE->DIEPMSK &= ~(USB_OTG_DIEPMSK_TXFURM);
 955              		.loc 1 412 24
 956 024c FB68     		ldr	r3, [r7, #12]
 957 024e 03F50063 		add	r3, r3, #2048
 958 0252 1B69     		ldr	r3, [r3, #16]
 959 0254 FA68     		ldr	r2, [r7, #12]
ARM GAS  /var/folders/vq/qt4vp3kd5rxf7v2b6_fdtdt80000gn/T//ccOb9Y7L.s 			page 25


 960 0256 02F50062 		add	r2, r2, #2048
 961 025a 23F48073 		bic	r3, r3, #256
 962 025e 1361     		str	r3, [r2, #16]
 413:Drivers/STM32F4xx_HAL_Driver/Src/stm32f4xx_ll_usb.c **** 
 414:Drivers/STM32F4xx_HAL_Driver/Src/stm32f4xx_ll_usb.c ****   /* Disable all interrupts. */
 415:Drivers/STM32F4xx_HAL_Driver/Src/stm32f4xx_ll_usb.c ****   USBx->GINTMSK = 0U;
 963              		.loc 1 415 17
 964 0260 7B68     		ldr	r3, [r7, #4]
 965 0262 0022     		movs	r2, #0
 966 0264 9A61     		str	r2, [r3, #24]
 416:Drivers/STM32F4xx_HAL_Driver/Src/stm32f4xx_ll_usb.c **** 
 417:Drivers/STM32F4xx_HAL_Driver/Src/stm32f4xx_ll_usb.c ****   /* Clear any pending interrupts */
 418:Drivers/STM32F4xx_HAL_Driver/Src/stm32f4xx_ll_usb.c ****   USBx->GINTSTS = 0xBFFFFFFFU;
 967              		.loc 1 418 17
 968 0266 7B68     		ldr	r3, [r7, #4]
 969 0268 6FF08042 		mvn	r2, #1073741824
 970 026c 5A61     		str	r2, [r3, #20]
 419:Drivers/STM32F4xx_HAL_Driver/Src/stm32f4xx_ll_usb.c **** 
 420:Drivers/STM32F4xx_HAL_Driver/Src/stm32f4xx_ll_usb.c ****   /* Enable the common interrupts */
 421:Drivers/STM32F4xx_HAL_Driver/Src/stm32f4xx_ll_usb.c ****   if (cfg.dma_enable == 0U)
 971              		.loc 1 421 10
 972 026e 3B6B     		ldr	r3, [r7, #48]
 973              		.loc 1 421 6
 974 0270 002B     		cmp	r3, #0
 975 0272 05D1     		bne	.L54
 422:Drivers/STM32F4xx_HAL_Driver/Src/stm32f4xx_ll_usb.c ****   {
 423:Drivers/STM32F4xx_HAL_Driver/Src/stm32f4xx_ll_usb.c ****     USBx->GINTMSK |= USB_OTG_GINTMSK_RXFLVLM;
 976              		.loc 1 423 19
 977 0274 7B68     		ldr	r3, [r7, #4]
 978 0276 9B69     		ldr	r3, [r3, #24]
 979 0278 43F01002 		orr	r2, r3, #16
 980 027c 7B68     		ldr	r3, [r7, #4]
 981 027e 9A61     		str	r2, [r3, #24]
 982              	.L54:
 424:Drivers/STM32F4xx_HAL_Driver/Src/stm32f4xx_ll_usb.c ****   }
 425:Drivers/STM32F4xx_HAL_Driver/Src/stm32f4xx_ll_usb.c **** 
 426:Drivers/STM32F4xx_HAL_Driver/Src/stm32f4xx_ll_usb.c ****   /* Enable interrupts matching to the Device mode ONLY */
 427:Drivers/STM32F4xx_HAL_Driver/Src/stm32f4xx_ll_usb.c ****   USBx->GINTMSK |= USB_OTG_GINTMSK_USBSUSPM | USB_OTG_GINTMSK_USBRST |
 983              		.loc 1 427 17
 984 0280 7B68     		ldr	r3, [r7, #4]
 985 0282 9A69     		ldr	r2, [r3, #24]
 986 0284 0F4B     		ldr	r3, .L58
 987 0286 1343     		orrs	r3, r3, r2
 988 0288 7A68     		ldr	r2, [r7, #4]
 989 028a 9361     		str	r3, [r2, #24]
 428:Drivers/STM32F4xx_HAL_Driver/Src/stm32f4xx_ll_usb.c ****                    USB_OTG_GINTMSK_ENUMDNEM | USB_OTG_GINTMSK_IEPINT |
 429:Drivers/STM32F4xx_HAL_Driver/Src/stm32f4xx_ll_usb.c ****                    USB_OTG_GINTMSK_OEPINT   | USB_OTG_GINTMSK_IISOIXFRM |
 430:Drivers/STM32F4xx_HAL_Driver/Src/stm32f4xx_ll_usb.c ****                    USB_OTG_GINTMSK_PXFRM_IISOOXFRM | USB_OTG_GINTMSK_WUIM;
 431:Drivers/STM32F4xx_HAL_Driver/Src/stm32f4xx_ll_usb.c **** 
 432:Drivers/STM32F4xx_HAL_Driver/Src/stm32f4xx_ll_usb.c ****   if (cfg.Sof_enable != 0U)
 990              		.loc 1 432 10
 991 028c FB6B     		ldr	r3, [r7, #60]
 992              		.loc 1 432 6
 993 028e 002B     		cmp	r3, #0
 994 0290 05D0     		beq	.L55
 433:Drivers/STM32F4xx_HAL_Driver/Src/stm32f4xx_ll_usb.c ****   {
 434:Drivers/STM32F4xx_HAL_Driver/Src/stm32f4xx_ll_usb.c ****     USBx->GINTMSK |= USB_OTG_GINTMSK_SOFM;
ARM GAS  /var/folders/vq/qt4vp3kd5rxf7v2b6_fdtdt80000gn/T//ccOb9Y7L.s 			page 26


 995              		.loc 1 434 19
 996 0292 7B68     		ldr	r3, [r7, #4]
 997 0294 9B69     		ldr	r3, [r3, #24]
 998 0296 43F00802 		orr	r2, r3, #8
 999 029a 7B68     		ldr	r3, [r7, #4]
 1000 029c 9A61     		str	r2, [r3, #24]
 1001              	.L55:
 435:Drivers/STM32F4xx_HAL_Driver/Src/stm32f4xx_ll_usb.c ****   }
 436:Drivers/STM32F4xx_HAL_Driver/Src/stm32f4xx_ll_usb.c **** 
 437:Drivers/STM32F4xx_HAL_Driver/Src/stm32f4xx_ll_usb.c ****   if (cfg.vbus_sensing_enable == 1U)
 1002              		.loc 1 437 10
 1003 029e FB6C     		ldr	r3, [r7, #76]
 1004              		.loc 1 437 6
 1005 02a0 012B     		cmp	r3, #1
 1006 02a2 07D1     		bne	.L56
 438:Drivers/STM32F4xx_HAL_Driver/Src/stm32f4xx_ll_usb.c ****   {
 439:Drivers/STM32F4xx_HAL_Driver/Src/stm32f4xx_ll_usb.c ****     USBx->GINTMSK |= (USB_OTG_GINTMSK_SRQIM | USB_OTG_GINTMSK_OTGINT);
 1007              		.loc 1 439 19
 1008 02a4 7B68     		ldr	r3, [r7, #4]
 1009 02a6 9B69     		ldr	r3, [r3, #24]
 1010 02a8 43F08043 		orr	r3, r3, #1073741824
 1011 02ac 43F00403 		orr	r3, r3, #4
 1012 02b0 7A68     		ldr	r2, [r7, #4]
 1013 02b2 9361     		str	r3, [r2, #24]
 1014              	.L56:
 440:Drivers/STM32F4xx_HAL_Driver/Src/stm32f4xx_ll_usb.c ****   }
 441:Drivers/STM32F4xx_HAL_Driver/Src/stm32f4xx_ll_usb.c **** 
 442:Drivers/STM32F4xx_HAL_Driver/Src/stm32f4xx_ll_usb.c ****   return ret;
 1015              		.loc 1 442 10
 1016 02b4 FB7D     		ldrb	r3, [r7, #23]	@ zero_extendqisi2
 443:Drivers/STM32F4xx_HAL_Driver/Src/stm32f4xx_ll_usb.c **** }
 1017              		.loc 1 443 1
 1018 02b6 1846     		mov	r0, r3
 1019 02b8 1837     		adds	r7, r7, #24
 1020              	.LCFI35:
 1021              		.cfi_def_cfa_offset 24
 1022 02ba BD46     		mov	sp, r7
 1023              	.LCFI36:
 1024              		.cfi_def_cfa_register 13
 1025              		@ sp needed
 1026 02bc BDE88040 		pop	{r7, lr}
 1027              	.LCFI37:
 1028              		.cfi_restore 14
 1029              		.cfi_restore 7
 1030              		.cfi_def_cfa_offset 16
 1031 02c0 04B0     		add	sp, sp, #16
 1032              	.LCFI38:
 1033              		.cfi_def_cfa_offset 0
 1034 02c2 7047     		bx	lr
 1035              	.L59:
 1036              		.align	2
 1037              	.L58:
 1038 02c4 00383C80 		.word	-2143537152
 1039              		.cfi_endproc
 1040              	.LFE135:
 1042              		.section	.text.USB_FlushTxFifo,"ax",%progbits
 1043              		.align	1
ARM GAS  /var/folders/vq/qt4vp3kd5rxf7v2b6_fdtdt80000gn/T//ccOb9Y7L.s 			page 27


 1044              		.global	USB_FlushTxFifo
 1045              		.syntax unified
 1046              		.thumb
 1047              		.thumb_func
 1048              		.fpu fpv4-sp-d16
 1050              	USB_FlushTxFifo:
 1051              	.LFB136:
 444:Drivers/STM32F4xx_HAL_Driver/Src/stm32f4xx_ll_usb.c **** 
 445:Drivers/STM32F4xx_HAL_Driver/Src/stm32f4xx_ll_usb.c **** /**
 446:Drivers/STM32F4xx_HAL_Driver/Src/stm32f4xx_ll_usb.c ****   * @brief  USB_OTG_FlushTxFifo : Flush a Tx FIFO
 447:Drivers/STM32F4xx_HAL_Driver/Src/stm32f4xx_ll_usb.c ****   * @param  USBx  Selected device
 448:Drivers/STM32F4xx_HAL_Driver/Src/stm32f4xx_ll_usb.c ****   * @param  num  FIFO number
 449:Drivers/STM32F4xx_HAL_Driver/Src/stm32f4xx_ll_usb.c ****   *         This parameter can be a value from 1 to 15
 450:Drivers/STM32F4xx_HAL_Driver/Src/stm32f4xx_ll_usb.c ****             15 means Flush all Tx FIFOs
 451:Drivers/STM32F4xx_HAL_Driver/Src/stm32f4xx_ll_usb.c ****   * @retval HAL status
 452:Drivers/STM32F4xx_HAL_Driver/Src/stm32f4xx_ll_usb.c ****   */
 453:Drivers/STM32F4xx_HAL_Driver/Src/stm32f4xx_ll_usb.c **** HAL_StatusTypeDef USB_FlushTxFifo(USB_OTG_GlobalTypeDef *USBx, uint32_t num)
 454:Drivers/STM32F4xx_HAL_Driver/Src/stm32f4xx_ll_usb.c **** {
 1052              		.loc 1 454 1
 1053              		.cfi_startproc
 1054              		@ args = 0, pretend = 0, frame = 16
 1055              		@ frame_needed = 1, uses_anonymous_args = 0
 1056              		@ link register save eliminated.
 1057 0000 80B4     		push	{r7}
 1058              	.LCFI39:
 1059              		.cfi_def_cfa_offset 4
 1060              		.cfi_offset 7, -4
 1061 0002 85B0     		sub	sp, sp, #20
 1062              	.LCFI40:
 1063              		.cfi_def_cfa_offset 24
 1064 0004 00AF     		add	r7, sp, #0
 1065              	.LCFI41:
 1066              		.cfi_def_cfa_register 7
 1067 0006 7860     		str	r0, [r7, #4]
 1068 0008 3960     		str	r1, [r7]
 455:Drivers/STM32F4xx_HAL_Driver/Src/stm32f4xx_ll_usb.c ****   uint32_t count = 0U;
 1069              		.loc 1 455 12
 1070 000a 0023     		movs	r3, #0
 1071 000c FB60     		str	r3, [r7, #12]
 456:Drivers/STM32F4xx_HAL_Driver/Src/stm32f4xx_ll_usb.c **** 
 457:Drivers/STM32F4xx_HAL_Driver/Src/stm32f4xx_ll_usb.c ****   USBx->GRSTCTL = (USB_OTG_GRSTCTL_TXFFLSH | (num << 6));
 1072              		.loc 1 457 51
 1073 000e 3B68     		ldr	r3, [r7]
 1074 0010 9B01     		lsls	r3, r3, #6
 1075              		.loc 1 457 44
 1076 0012 43F02002 		orr	r2, r3, #32
 1077              		.loc 1 457 17
 1078 0016 7B68     		ldr	r3, [r7, #4]
 1079 0018 1A61     		str	r2, [r3, #16]
 1080              	.L63:
 458:Drivers/STM32F4xx_HAL_Driver/Src/stm32f4xx_ll_usb.c **** 
 459:Drivers/STM32F4xx_HAL_Driver/Src/stm32f4xx_ll_usb.c ****   do
 460:Drivers/STM32F4xx_HAL_Driver/Src/stm32f4xx_ll_usb.c ****   {
 461:Drivers/STM32F4xx_HAL_Driver/Src/stm32f4xx_ll_usb.c ****     if (++count > 200000U)
 1081              		.loc 1 461 8
 1082 001a FB68     		ldr	r3, [r7, #12]
 1083 001c 0133     		adds	r3, r3, #1
ARM GAS  /var/folders/vq/qt4vp3kd5rxf7v2b6_fdtdt80000gn/T//ccOb9Y7L.s 			page 28


 1084 001e FB60     		str	r3, [r7, #12]
 1085 0020 FB68     		ldr	r3, [r7, #12]
 1086 0022 094A     		ldr	r2, .L64
 1087 0024 9342     		cmp	r3, r2
 1088 0026 01D9     		bls	.L61
 462:Drivers/STM32F4xx_HAL_Driver/Src/stm32f4xx_ll_usb.c ****     {
 463:Drivers/STM32F4xx_HAL_Driver/Src/stm32f4xx_ll_usb.c ****       return HAL_TIMEOUT;
 1089              		.loc 1 463 14
 1090 0028 0323     		movs	r3, #3
 1091 002a 06E0     		b	.L62
 1092              	.L61:
 464:Drivers/STM32F4xx_HAL_Driver/Src/stm32f4xx_ll_usb.c ****     }
 465:Drivers/STM32F4xx_HAL_Driver/Src/stm32f4xx_ll_usb.c ****   } while ((USBx->GRSTCTL & USB_OTG_GRSTCTL_TXFFLSH) == USB_OTG_GRSTCTL_TXFFLSH);
 1093              		.loc 1 465 17
 1094 002c 7B68     		ldr	r3, [r7, #4]
 1095 002e 1B69     		ldr	r3, [r3, #16]
 1096              		.loc 1 465 27
 1097 0030 03F02003 		and	r3, r3, #32
 1098              		.loc 1 465 3
 1099 0034 202B     		cmp	r3, #32
 1100 0036 F0D0     		beq	.L63
 466:Drivers/STM32F4xx_HAL_Driver/Src/stm32f4xx_ll_usb.c **** 
 467:Drivers/STM32F4xx_HAL_Driver/Src/stm32f4xx_ll_usb.c ****   return HAL_OK;
 1101              		.loc 1 467 10
 1102 0038 0023     		movs	r3, #0
 1103              	.L62:
 468:Drivers/STM32F4xx_HAL_Driver/Src/stm32f4xx_ll_usb.c **** }
 1104              		.loc 1 468 1
 1105 003a 1846     		mov	r0, r3
 1106 003c 1437     		adds	r7, r7, #20
 1107              	.LCFI42:
 1108              		.cfi_def_cfa_offset 4
 1109 003e BD46     		mov	sp, r7
 1110              	.LCFI43:
 1111              		.cfi_def_cfa_register 13
 1112              		@ sp needed
 1113 0040 5DF8047B 		ldr	r7, [sp], #4
 1114              	.LCFI44:
 1115              		.cfi_restore 7
 1116              		.cfi_def_cfa_offset 0
 1117 0044 7047     		bx	lr
 1118              	.L65:
 1119 0046 00BF     		.align	2
 1120              	.L64:
 1121 0048 400D0300 		.word	200000
 1122              		.cfi_endproc
 1123              	.LFE136:
 1125              		.section	.text.USB_FlushRxFifo,"ax",%progbits
 1126              		.align	1
 1127              		.global	USB_FlushRxFifo
 1128              		.syntax unified
 1129              		.thumb
 1130              		.thumb_func
 1131              		.fpu fpv4-sp-d16
 1133              	USB_FlushRxFifo:
 1134              	.LFB137:
 469:Drivers/STM32F4xx_HAL_Driver/Src/stm32f4xx_ll_usb.c **** 
ARM GAS  /var/folders/vq/qt4vp3kd5rxf7v2b6_fdtdt80000gn/T//ccOb9Y7L.s 			page 29


 470:Drivers/STM32F4xx_HAL_Driver/Src/stm32f4xx_ll_usb.c **** /**
 471:Drivers/STM32F4xx_HAL_Driver/Src/stm32f4xx_ll_usb.c ****   * @brief  USB_FlushRxFifo : Flush Rx FIFO
 472:Drivers/STM32F4xx_HAL_Driver/Src/stm32f4xx_ll_usb.c ****   * @param  USBx  Selected device
 473:Drivers/STM32F4xx_HAL_Driver/Src/stm32f4xx_ll_usb.c ****   * @retval HAL status
 474:Drivers/STM32F4xx_HAL_Driver/Src/stm32f4xx_ll_usb.c ****   */
 475:Drivers/STM32F4xx_HAL_Driver/Src/stm32f4xx_ll_usb.c **** HAL_StatusTypeDef USB_FlushRxFifo(USB_OTG_GlobalTypeDef *USBx)
 476:Drivers/STM32F4xx_HAL_Driver/Src/stm32f4xx_ll_usb.c **** {
 1135              		.loc 1 476 1
 1136              		.cfi_startproc
 1137              		@ args = 0, pretend = 0, frame = 16
 1138              		@ frame_needed = 1, uses_anonymous_args = 0
 1139              		@ link register save eliminated.
 1140 0000 80B4     		push	{r7}
 1141              	.LCFI45:
 1142              		.cfi_def_cfa_offset 4
 1143              		.cfi_offset 7, -4
 1144 0002 85B0     		sub	sp, sp, #20
 1145              	.LCFI46:
 1146              		.cfi_def_cfa_offset 24
 1147 0004 00AF     		add	r7, sp, #0
 1148              	.LCFI47:
 1149              		.cfi_def_cfa_register 7
 1150 0006 7860     		str	r0, [r7, #4]
 477:Drivers/STM32F4xx_HAL_Driver/Src/stm32f4xx_ll_usb.c ****   uint32_t count = 0;
 1151              		.loc 1 477 12
 1152 0008 0023     		movs	r3, #0
 1153 000a FB60     		str	r3, [r7, #12]
 478:Drivers/STM32F4xx_HAL_Driver/Src/stm32f4xx_ll_usb.c **** 
 479:Drivers/STM32F4xx_HAL_Driver/Src/stm32f4xx_ll_usb.c ****   USBx->GRSTCTL = USB_OTG_GRSTCTL_RXFFLSH;
 1154              		.loc 1 479 17
 1155 000c 7B68     		ldr	r3, [r7, #4]
 1156 000e 1022     		movs	r2, #16
 1157 0010 1A61     		str	r2, [r3, #16]
 1158              	.L69:
 480:Drivers/STM32F4xx_HAL_Driver/Src/stm32f4xx_ll_usb.c **** 
 481:Drivers/STM32F4xx_HAL_Driver/Src/stm32f4xx_ll_usb.c ****   do
 482:Drivers/STM32F4xx_HAL_Driver/Src/stm32f4xx_ll_usb.c ****   {
 483:Drivers/STM32F4xx_HAL_Driver/Src/stm32f4xx_ll_usb.c ****     if (++count > 200000U)
 1159              		.loc 1 483 8
 1160 0012 FB68     		ldr	r3, [r7, #12]
 1161 0014 0133     		adds	r3, r3, #1
 1162 0016 FB60     		str	r3, [r7, #12]
 1163 0018 FB68     		ldr	r3, [r7, #12]
 1164 001a 094A     		ldr	r2, .L70
 1165 001c 9342     		cmp	r3, r2
 1166 001e 01D9     		bls	.L67
 484:Drivers/STM32F4xx_HAL_Driver/Src/stm32f4xx_ll_usb.c ****     {
 485:Drivers/STM32F4xx_HAL_Driver/Src/stm32f4xx_ll_usb.c ****       return HAL_TIMEOUT;
 1167              		.loc 1 485 14
 1168 0020 0323     		movs	r3, #3
 1169 0022 06E0     		b	.L68
 1170              	.L67:
 486:Drivers/STM32F4xx_HAL_Driver/Src/stm32f4xx_ll_usb.c ****     }
 487:Drivers/STM32F4xx_HAL_Driver/Src/stm32f4xx_ll_usb.c ****   } while ((USBx->GRSTCTL & USB_OTG_GRSTCTL_RXFFLSH) == USB_OTG_GRSTCTL_RXFFLSH);
 1171              		.loc 1 487 17
 1172 0024 7B68     		ldr	r3, [r7, #4]
 1173 0026 1B69     		ldr	r3, [r3, #16]
ARM GAS  /var/folders/vq/qt4vp3kd5rxf7v2b6_fdtdt80000gn/T//ccOb9Y7L.s 			page 30


 1174              		.loc 1 487 27
 1175 0028 03F01003 		and	r3, r3, #16
 1176              		.loc 1 487 3
 1177 002c 102B     		cmp	r3, #16
 1178 002e F0D0     		beq	.L69
 488:Drivers/STM32F4xx_HAL_Driver/Src/stm32f4xx_ll_usb.c **** 
 489:Drivers/STM32F4xx_HAL_Driver/Src/stm32f4xx_ll_usb.c ****   return HAL_OK;
 1179              		.loc 1 489 10
 1180 0030 0023     		movs	r3, #0
 1181              	.L68:
 490:Drivers/STM32F4xx_HAL_Driver/Src/stm32f4xx_ll_usb.c **** }
 1182              		.loc 1 490 1
 1183 0032 1846     		mov	r0, r3
 1184 0034 1437     		adds	r7, r7, #20
 1185              	.LCFI48:
 1186              		.cfi_def_cfa_offset 4
 1187 0036 BD46     		mov	sp, r7
 1188              	.LCFI49:
 1189              		.cfi_def_cfa_register 13
 1190              		@ sp needed
 1191 0038 5DF8047B 		ldr	r7, [sp], #4
 1192              	.LCFI50:
 1193              		.cfi_restore 7
 1194              		.cfi_def_cfa_offset 0
 1195 003c 7047     		bx	lr
 1196              	.L71:
 1197 003e 00BF     		.align	2
 1198              	.L70:
 1199 0040 400D0300 		.word	200000
 1200              		.cfi_endproc
 1201              	.LFE137:
 1203              		.section	.text.USB_SetDevSpeed,"ax",%progbits
 1204              		.align	1
 1205              		.global	USB_SetDevSpeed
 1206              		.syntax unified
 1207              		.thumb
 1208              		.thumb_func
 1209              		.fpu fpv4-sp-d16
 1211              	USB_SetDevSpeed:
 1212              	.LFB138:
 491:Drivers/STM32F4xx_HAL_Driver/Src/stm32f4xx_ll_usb.c **** 
 492:Drivers/STM32F4xx_HAL_Driver/Src/stm32f4xx_ll_usb.c **** /**
 493:Drivers/STM32F4xx_HAL_Driver/Src/stm32f4xx_ll_usb.c ****   * @brief  USB_SetDevSpeed  Initializes the DevSpd field of DCFG register
 494:Drivers/STM32F4xx_HAL_Driver/Src/stm32f4xx_ll_usb.c ****   *         depending the PHY type and the enumeration speed of the device.
 495:Drivers/STM32F4xx_HAL_Driver/Src/stm32f4xx_ll_usb.c ****   * @param  USBx  Selected device
 496:Drivers/STM32F4xx_HAL_Driver/Src/stm32f4xx_ll_usb.c ****   * @param  speed  device speed
 497:Drivers/STM32F4xx_HAL_Driver/Src/stm32f4xx_ll_usb.c ****   *          This parameter can be one of these values:
 498:Drivers/STM32F4xx_HAL_Driver/Src/stm32f4xx_ll_usb.c ****   *            @arg USB_OTG_SPEED_HIGH: High speed mode
 499:Drivers/STM32F4xx_HAL_Driver/Src/stm32f4xx_ll_usb.c ****   *            @arg USB_OTG_SPEED_HIGH_IN_FULL: High speed core in Full Speed mode
 500:Drivers/STM32F4xx_HAL_Driver/Src/stm32f4xx_ll_usb.c ****   *            @arg USB_OTG_SPEED_FULL: Full speed mode
 501:Drivers/STM32F4xx_HAL_Driver/Src/stm32f4xx_ll_usb.c ****   * @retval  Hal status
 502:Drivers/STM32F4xx_HAL_Driver/Src/stm32f4xx_ll_usb.c ****   */
 503:Drivers/STM32F4xx_HAL_Driver/Src/stm32f4xx_ll_usb.c **** HAL_StatusTypeDef USB_SetDevSpeed(USB_OTG_GlobalTypeDef *USBx, uint8_t speed)
 504:Drivers/STM32F4xx_HAL_Driver/Src/stm32f4xx_ll_usb.c **** {
 1213              		.loc 1 504 1
 1214              		.cfi_startproc
 1215              		@ args = 0, pretend = 0, frame = 16
ARM GAS  /var/folders/vq/qt4vp3kd5rxf7v2b6_fdtdt80000gn/T//ccOb9Y7L.s 			page 31


 1216              		@ frame_needed = 1, uses_anonymous_args = 0
 1217              		@ link register save eliminated.
 1218 0000 80B4     		push	{r7}
 1219              	.LCFI51:
 1220              		.cfi_def_cfa_offset 4
 1221              		.cfi_offset 7, -4
 1222 0002 85B0     		sub	sp, sp, #20
 1223              	.LCFI52:
 1224              		.cfi_def_cfa_offset 24
 1225 0004 00AF     		add	r7, sp, #0
 1226              	.LCFI53:
 1227              		.cfi_def_cfa_register 7
 1228 0006 7860     		str	r0, [r7, #4]
 1229 0008 0B46     		mov	r3, r1
 1230 000a FB70     		strb	r3, [r7, #3]
 505:Drivers/STM32F4xx_HAL_Driver/Src/stm32f4xx_ll_usb.c ****   uint32_t USBx_BASE = (uint32_t)USBx;
 1231              		.loc 1 505 12
 1232 000c 7B68     		ldr	r3, [r7, #4]
 1233 000e FB60     		str	r3, [r7, #12]
 506:Drivers/STM32F4xx_HAL_Driver/Src/stm32f4xx_ll_usb.c **** 
 507:Drivers/STM32F4xx_HAL_Driver/Src/stm32f4xx_ll_usb.c ****   USBx_DEVICE->DCFG |= speed;
 1234              		.loc 1 507 21
 1235 0010 FB68     		ldr	r3, [r7, #12]
 1236 0012 03F50063 		add	r3, r3, #2048
 1237 0016 1A68     		ldr	r2, [r3]
 1238 0018 FB78     		ldrb	r3, [r7, #3]	@ zero_extendqisi2
 1239 001a F968     		ldr	r1, [r7, #12]
 1240 001c 01F50061 		add	r1, r1, #2048
 1241 0020 1343     		orrs	r3, r3, r2
 1242 0022 0B60     		str	r3, [r1]
 508:Drivers/STM32F4xx_HAL_Driver/Src/stm32f4xx_ll_usb.c ****   return HAL_OK;
 1243              		.loc 1 508 10
 1244 0024 0023     		movs	r3, #0
 509:Drivers/STM32F4xx_HAL_Driver/Src/stm32f4xx_ll_usb.c **** }
 1245              		.loc 1 509 1
 1246 0026 1846     		mov	r0, r3
 1247 0028 1437     		adds	r7, r7, #20
 1248              	.LCFI54:
 1249              		.cfi_def_cfa_offset 4
 1250 002a BD46     		mov	sp, r7
 1251              	.LCFI55:
 1252              		.cfi_def_cfa_register 13
 1253              		@ sp needed
 1254 002c 5DF8047B 		ldr	r7, [sp], #4
 1255              	.LCFI56:
 1256              		.cfi_restore 7
 1257              		.cfi_def_cfa_offset 0
 1258 0030 7047     		bx	lr
 1259              		.cfi_endproc
 1260              	.LFE138:
 1262              		.section	.text.USB_GetDevSpeed,"ax",%progbits
 1263              		.align	1
 1264              		.global	USB_GetDevSpeed
 1265              		.syntax unified
 1266              		.thumb
 1267              		.thumb_func
 1268              		.fpu fpv4-sp-d16
ARM GAS  /var/folders/vq/qt4vp3kd5rxf7v2b6_fdtdt80000gn/T//ccOb9Y7L.s 			page 32


 1270              	USB_GetDevSpeed:
 1271              	.LFB139:
 510:Drivers/STM32F4xx_HAL_Driver/Src/stm32f4xx_ll_usb.c **** 
 511:Drivers/STM32F4xx_HAL_Driver/Src/stm32f4xx_ll_usb.c **** /**
 512:Drivers/STM32F4xx_HAL_Driver/Src/stm32f4xx_ll_usb.c ****   * @brief  USB_GetDevSpeed  Return the Dev Speed
 513:Drivers/STM32F4xx_HAL_Driver/Src/stm32f4xx_ll_usb.c ****   * @param  USBx  Selected device
 514:Drivers/STM32F4xx_HAL_Driver/Src/stm32f4xx_ll_usb.c ****   * @retval speed  device speed
 515:Drivers/STM32F4xx_HAL_Driver/Src/stm32f4xx_ll_usb.c ****   *          This parameter can be one of these values:
 516:Drivers/STM32F4xx_HAL_Driver/Src/stm32f4xx_ll_usb.c ****   *            @arg USBD_HS_SPEED: High speed mode
 517:Drivers/STM32F4xx_HAL_Driver/Src/stm32f4xx_ll_usb.c ****   *            @arg USBD_FS_SPEED: Full speed mode
 518:Drivers/STM32F4xx_HAL_Driver/Src/stm32f4xx_ll_usb.c ****   */
 519:Drivers/STM32F4xx_HAL_Driver/Src/stm32f4xx_ll_usb.c **** uint8_t USB_GetDevSpeed(USB_OTG_GlobalTypeDef *USBx)
 520:Drivers/STM32F4xx_HAL_Driver/Src/stm32f4xx_ll_usb.c **** {
 1272              		.loc 1 520 1
 1273              		.cfi_startproc
 1274              		@ args = 0, pretend = 0, frame = 24
 1275              		@ frame_needed = 1, uses_anonymous_args = 0
 1276              		@ link register save eliminated.
 1277 0000 80B4     		push	{r7}
 1278              	.LCFI57:
 1279              		.cfi_def_cfa_offset 4
 1280              		.cfi_offset 7, -4
 1281 0002 87B0     		sub	sp, sp, #28
 1282              	.LCFI58:
 1283              		.cfi_def_cfa_offset 32
 1284 0004 00AF     		add	r7, sp, #0
 1285              	.LCFI59:
 1286              		.cfi_def_cfa_register 7
 1287 0006 7860     		str	r0, [r7, #4]
 521:Drivers/STM32F4xx_HAL_Driver/Src/stm32f4xx_ll_usb.c ****   uint32_t USBx_BASE = (uint32_t)USBx;
 1288              		.loc 1 521 12
 1289 0008 7B68     		ldr	r3, [r7, #4]
 1290 000a 3B61     		str	r3, [r7, #16]
 522:Drivers/STM32F4xx_HAL_Driver/Src/stm32f4xx_ll_usb.c ****   uint8_t speed;
 523:Drivers/STM32F4xx_HAL_Driver/Src/stm32f4xx_ll_usb.c ****   uint32_t DevEnumSpeed = USBx_DEVICE->DSTS & USB_OTG_DSTS_ENUMSPD;
 1291              		.loc 1 523 27
 1292 000c 3B69     		ldr	r3, [r7, #16]
 1293 000e 03F50063 		add	r3, r3, #2048
 1294              		.loc 1 523 38
 1295 0012 9B68     		ldr	r3, [r3, #8]
 1296              		.loc 1 523 12
 1297 0014 03F00603 		and	r3, r3, #6
 1298 0018 FB60     		str	r3, [r7, #12]
 524:Drivers/STM32F4xx_HAL_Driver/Src/stm32f4xx_ll_usb.c **** 
 525:Drivers/STM32F4xx_HAL_Driver/Src/stm32f4xx_ll_usb.c ****   if (DevEnumSpeed == DSTS_ENUMSPD_HS_PHY_30MHZ_OR_60MHZ)
 1299              		.loc 1 525 6
 1300 001a FB68     		ldr	r3, [r7, #12]
 1301 001c 002B     		cmp	r3, #0
 1302 001e 02D1     		bne	.L75
 526:Drivers/STM32F4xx_HAL_Driver/Src/stm32f4xx_ll_usb.c ****   {
 527:Drivers/STM32F4xx_HAL_Driver/Src/stm32f4xx_ll_usb.c ****     speed = USBD_HS_SPEED;
 1303              		.loc 1 527 11
 1304 0020 0023     		movs	r3, #0
 1305 0022 FB75     		strb	r3, [r7, #23]
 1306 0024 0AE0     		b	.L76
 1307              	.L75:
 528:Drivers/STM32F4xx_HAL_Driver/Src/stm32f4xx_ll_usb.c ****   }
ARM GAS  /var/folders/vq/qt4vp3kd5rxf7v2b6_fdtdt80000gn/T//ccOb9Y7L.s 			page 33


 529:Drivers/STM32F4xx_HAL_Driver/Src/stm32f4xx_ll_usb.c ****   else if ((DevEnumSpeed == DSTS_ENUMSPD_FS_PHY_30MHZ_OR_60MHZ) ||
 1308              		.loc 1 529 11
 1309 0026 FB68     		ldr	r3, [r7, #12]
 1310 0028 022B     		cmp	r3, #2
 1311 002a 02D0     		beq	.L77
 1312              		.loc 1 529 65 discriminator 1
 1313 002c FB68     		ldr	r3, [r7, #12]
 1314 002e 062B     		cmp	r3, #6
 1315 0030 02D1     		bne	.L78
 1316              	.L77:
 530:Drivers/STM32F4xx_HAL_Driver/Src/stm32f4xx_ll_usb.c ****            (DevEnumSpeed == DSTS_ENUMSPD_FS_PHY_48MHZ))
 531:Drivers/STM32F4xx_HAL_Driver/Src/stm32f4xx_ll_usb.c ****   {
 532:Drivers/STM32F4xx_HAL_Driver/Src/stm32f4xx_ll_usb.c ****     speed = USBD_FS_SPEED;
 1317              		.loc 1 532 11
 1318 0032 0223     		movs	r3, #2
 1319 0034 FB75     		strb	r3, [r7, #23]
 1320 0036 01E0     		b	.L76
 1321              	.L78:
 533:Drivers/STM32F4xx_HAL_Driver/Src/stm32f4xx_ll_usb.c ****   }
 534:Drivers/STM32F4xx_HAL_Driver/Src/stm32f4xx_ll_usb.c ****   else
 535:Drivers/STM32F4xx_HAL_Driver/Src/stm32f4xx_ll_usb.c ****   {
 536:Drivers/STM32F4xx_HAL_Driver/Src/stm32f4xx_ll_usb.c ****     speed = 0xFU;
 1322              		.loc 1 536 11
 1323 0038 0F23     		movs	r3, #15
 1324 003a FB75     		strb	r3, [r7, #23]
 1325              	.L76:
 537:Drivers/STM32F4xx_HAL_Driver/Src/stm32f4xx_ll_usb.c ****   }
 538:Drivers/STM32F4xx_HAL_Driver/Src/stm32f4xx_ll_usb.c **** 
 539:Drivers/STM32F4xx_HAL_Driver/Src/stm32f4xx_ll_usb.c ****   return speed;
 1326              		.loc 1 539 10
 1327 003c FB7D     		ldrb	r3, [r7, #23]	@ zero_extendqisi2
 540:Drivers/STM32F4xx_HAL_Driver/Src/stm32f4xx_ll_usb.c **** }
 1328              		.loc 1 540 1
 1329 003e 1846     		mov	r0, r3
 1330 0040 1C37     		adds	r7, r7, #28
 1331              	.LCFI60:
 1332              		.cfi_def_cfa_offset 4
 1333 0042 BD46     		mov	sp, r7
 1334              	.LCFI61:
 1335              		.cfi_def_cfa_register 13
 1336              		@ sp needed
 1337 0044 5DF8047B 		ldr	r7, [sp], #4
 1338              	.LCFI62:
 1339              		.cfi_restore 7
 1340              		.cfi_def_cfa_offset 0
 1341 0048 7047     		bx	lr
 1342              		.cfi_endproc
 1343              	.LFE139:
 1345              		.section	.text.USB_ActivateEndpoint,"ax",%progbits
 1346              		.align	1
 1347              		.global	USB_ActivateEndpoint
 1348              		.syntax unified
 1349              		.thumb
 1350              		.thumb_func
 1351              		.fpu fpv4-sp-d16
 1353              	USB_ActivateEndpoint:
 1354              	.LFB140:
ARM GAS  /var/folders/vq/qt4vp3kd5rxf7v2b6_fdtdt80000gn/T//ccOb9Y7L.s 			page 34


 541:Drivers/STM32F4xx_HAL_Driver/Src/stm32f4xx_ll_usb.c **** 
 542:Drivers/STM32F4xx_HAL_Driver/Src/stm32f4xx_ll_usb.c **** /**
 543:Drivers/STM32F4xx_HAL_Driver/Src/stm32f4xx_ll_usb.c ****   * @brief  Activate and configure an endpoint
 544:Drivers/STM32F4xx_HAL_Driver/Src/stm32f4xx_ll_usb.c ****   * @param  USBx  Selected device
 545:Drivers/STM32F4xx_HAL_Driver/Src/stm32f4xx_ll_usb.c ****   * @param  ep pointer to endpoint structure
 546:Drivers/STM32F4xx_HAL_Driver/Src/stm32f4xx_ll_usb.c ****   * @retval HAL status
 547:Drivers/STM32F4xx_HAL_Driver/Src/stm32f4xx_ll_usb.c ****   */
 548:Drivers/STM32F4xx_HAL_Driver/Src/stm32f4xx_ll_usb.c **** HAL_StatusTypeDef USB_ActivateEndpoint(USB_OTG_GlobalTypeDef *USBx, USB_OTG_EPTypeDef *ep)
 549:Drivers/STM32F4xx_HAL_Driver/Src/stm32f4xx_ll_usb.c **** {
 1355              		.loc 1 549 1
 1356              		.cfi_startproc
 1357              		@ args = 0, pretend = 0, frame = 16
 1358              		@ frame_needed = 1, uses_anonymous_args = 0
 1359              		@ link register save eliminated.
 1360 0000 80B4     		push	{r7}
 1361              	.LCFI63:
 1362              		.cfi_def_cfa_offset 4
 1363              		.cfi_offset 7, -4
 1364 0002 85B0     		sub	sp, sp, #20
 1365              	.LCFI64:
 1366              		.cfi_def_cfa_offset 24
 1367 0004 00AF     		add	r7, sp, #0
 1368              	.LCFI65:
 1369              		.cfi_def_cfa_register 7
 1370 0006 7860     		str	r0, [r7, #4]
 1371 0008 3960     		str	r1, [r7]
 550:Drivers/STM32F4xx_HAL_Driver/Src/stm32f4xx_ll_usb.c ****   uint32_t USBx_BASE = (uint32_t)USBx;
 1372              		.loc 1 550 12
 1373 000a 7B68     		ldr	r3, [r7, #4]
 1374 000c FB60     		str	r3, [r7, #12]
 551:Drivers/STM32F4xx_HAL_Driver/Src/stm32f4xx_ll_usb.c ****   uint32_t epnum = (uint32_t)ep->num;
 1375              		.loc 1 551 32
 1376 000e 3B68     		ldr	r3, [r7]
 1377 0010 1B78     		ldrb	r3, [r3]	@ zero_extendqisi2
 1378              		.loc 1 551 12
 1379 0012 BB60     		str	r3, [r7, #8]
 552:Drivers/STM32F4xx_HAL_Driver/Src/stm32f4xx_ll_usb.c **** 
 553:Drivers/STM32F4xx_HAL_Driver/Src/stm32f4xx_ll_usb.c ****   if (ep->is_in == 1U)
 1380              		.loc 1 553 9
 1381 0014 3B68     		ldr	r3, [r7]
 1382 0016 5B78     		ldrb	r3, [r3, #1]	@ zero_extendqisi2
 1383              		.loc 1 553 6
 1384 0018 012B     		cmp	r3, #1
 1385 001a 3AD1     		bne	.L81
 554:Drivers/STM32F4xx_HAL_Driver/Src/stm32f4xx_ll_usb.c ****   {
 555:Drivers/STM32F4xx_HAL_Driver/Src/stm32f4xx_ll_usb.c ****     USBx_DEVICE->DAINTMSK |= USB_OTG_DAINTMSK_IEPM & (uint32_t)(1UL << (ep->num & EP_ADDR_MSK));
 1386              		.loc 1 555 27
 1387 001c FB68     		ldr	r3, [r7, #12]
 1388 001e 03F50063 		add	r3, r3, #2048
 1389 0022 DA69     		ldr	r2, [r3, #28]
 1390              		.loc 1 555 75
 1391 0024 3B68     		ldr	r3, [r7]
 1392 0026 1B78     		ldrb	r3, [r3]	@ zero_extendqisi2
 1393              		.loc 1 555 81
 1394 0028 03F00F03 		and	r3, r3, #15
 1395              		.loc 1 555 54
 1396 002c 0121     		movs	r1, #1
ARM GAS  /var/folders/vq/qt4vp3kd5rxf7v2b6_fdtdt80000gn/T//ccOb9Y7L.s 			page 35


 1397 002e 01FA03F3 		lsl	r3, r1, r3
 1398              		.loc 1 555 52
 1399 0032 9BB2     		uxth	r3, r3
 1400              		.loc 1 555 27
 1401 0034 F968     		ldr	r1, [r7, #12]
 1402 0036 01F50061 		add	r1, r1, #2048
 1403 003a 1343     		orrs	r3, r3, r2
 1404 003c CB61     		str	r3, [r1, #28]
 556:Drivers/STM32F4xx_HAL_Driver/Src/stm32f4xx_ll_usb.c **** 
 557:Drivers/STM32F4xx_HAL_Driver/Src/stm32f4xx_ll_usb.c ****     if ((USBx_INEP(epnum)->DIEPCTL & USB_OTG_DIEPCTL_USBAEP) == 0U)
 1405              		.loc 1 557 10
 1406 003e BB68     		ldr	r3, [r7, #8]
 1407 0040 5A01     		lsls	r2, r3, #5
 1408 0042 FB68     		ldr	r3, [r7, #12]
 1409 0044 1344     		add	r3, r3, r2
 1410 0046 03F51063 		add	r3, r3, #2304
 1411              		.loc 1 557 26
 1412 004a 1B68     		ldr	r3, [r3]
 1413              		.loc 1 557 36
 1414 004c 03F40043 		and	r3, r3, #32768
 1415              		.loc 1 557 8
 1416 0050 002B     		cmp	r3, #0
 1417 0052 55D1     		bne	.L82
 558:Drivers/STM32F4xx_HAL_Driver/Src/stm32f4xx_ll_usb.c ****     {
 559:Drivers/STM32F4xx_HAL_Driver/Src/stm32f4xx_ll_usb.c ****       USBx_INEP(epnum)->DIEPCTL |= (ep->maxpacket & USB_OTG_DIEPCTL_MPSIZ) |
 1418              		.loc 1 559 33
 1419 0054 BB68     		ldr	r3, [r7, #8]
 1420 0056 5A01     		lsls	r2, r3, #5
 1421 0058 FB68     		ldr	r3, [r7, #12]
 1422 005a 1344     		add	r3, r3, r2
 1423 005c 03F51063 		add	r3, r3, #2304
 1424 0060 1A68     		ldr	r2, [r3]
 1425              		.loc 1 559 39
 1426 0062 3B68     		ldr	r3, [r7]
 1427 0064 9B68     		ldr	r3, [r3, #8]
 1428              		.loc 1 559 51
 1429 0066 C3F30A01 		ubfx	r1, r3, #0, #11
 560:Drivers/STM32F4xx_HAL_Driver/Src/stm32f4xx_ll_usb.c ****                                    ((uint32_t)ep->type << 18) | (epnum << 22) |
 1430              		.loc 1 560 49
 1431 006a 3B68     		ldr	r3, [r7]
 1432 006c DB78     		ldrb	r3, [r3, #3]	@ zero_extendqisi2
 1433              		.loc 1 560 56
 1434 006e 9B04     		lsls	r3, r3, #18
 559:Drivers/STM32F4xx_HAL_Driver/Src/stm32f4xx_ll_usb.c ****                                    ((uint32_t)ep->type << 18) | (epnum << 22) |
 1435              		.loc 1 559 76
 1436 0070 1943     		orrs	r1, r1, r3
 1437              		.loc 1 560 72
 1438 0072 BB68     		ldr	r3, [r7, #8]
 1439 0074 9B05     		lsls	r3, r3, #22
 1440              		.loc 1 560 63
 1441 0076 0B43     		orrs	r3, r3, r1
 559:Drivers/STM32F4xx_HAL_Driver/Src/stm32f4xx_ll_usb.c ****                                    ((uint32_t)ep->type << 18) | (epnum << 22) |
 1442              		.loc 1 559 33
 1443 0078 1343     		orrs	r3, r3, r2
 1444 007a BA68     		ldr	r2, [r7, #8]
 1445 007c 5101     		lsls	r1, r2, #5
 1446 007e FA68     		ldr	r2, [r7, #12]
ARM GAS  /var/folders/vq/qt4vp3kd5rxf7v2b6_fdtdt80000gn/T//ccOb9Y7L.s 			page 36


 1447 0080 0A44     		add	r2, r2, r1
 1448 0082 02F51062 		add	r2, r2, #2304
 1449 0086 43F08053 		orr	r3, r3, #268435456
 1450 008a 43F40043 		orr	r3, r3, #32768
 1451 008e 1360     		str	r3, [r2]
 1452 0090 36E0     		b	.L82
 1453              	.L81:
 561:Drivers/STM32F4xx_HAL_Driver/Src/stm32f4xx_ll_usb.c ****                                    USB_OTG_DIEPCTL_SD0PID_SEVNFRM |
 562:Drivers/STM32F4xx_HAL_Driver/Src/stm32f4xx_ll_usb.c ****                                    USB_OTG_DIEPCTL_USBAEP;
 563:Drivers/STM32F4xx_HAL_Driver/Src/stm32f4xx_ll_usb.c ****     }
 564:Drivers/STM32F4xx_HAL_Driver/Src/stm32f4xx_ll_usb.c ****   }
 565:Drivers/STM32F4xx_HAL_Driver/Src/stm32f4xx_ll_usb.c ****   else
 566:Drivers/STM32F4xx_HAL_Driver/Src/stm32f4xx_ll_usb.c ****   {
 567:Drivers/STM32F4xx_HAL_Driver/Src/stm32f4xx_ll_usb.c ****     USBx_DEVICE->DAINTMSK |= USB_OTG_DAINTMSK_OEPM & ((uint32_t)(1UL << (ep->num & EP_ADDR_MSK)) <<
 1454              		.loc 1 567 27
 1455 0092 FB68     		ldr	r3, [r7, #12]
 1456 0094 03F50063 		add	r3, r3, #2048
 1457 0098 DA69     		ldr	r2, [r3, #28]
 1458              		.loc 1 567 76
 1459 009a 3B68     		ldr	r3, [r7]
 1460 009c 1B78     		ldrb	r3, [r3]	@ zero_extendqisi2
 1461              		.loc 1 567 82
 1462 009e 03F00F03 		and	r3, r3, #15
 1463              		.loc 1 567 55
 1464 00a2 0121     		movs	r1, #1
 1465 00a4 01FA03F3 		lsl	r3, r1, r3
 1466              		.loc 1 567 52
 1467 00a8 1B04     		lsls	r3, r3, #16
 1468              		.loc 1 567 27
 1469 00aa F968     		ldr	r1, [r7, #12]
 1470 00ac 01F50061 		add	r1, r1, #2048
 1471 00b0 1343     		orrs	r3, r3, r2
 1472 00b2 CB61     		str	r3, [r1, #28]
 568:Drivers/STM32F4xx_HAL_Driver/Src/stm32f4xx_ll_usb.c **** 
 569:Drivers/STM32F4xx_HAL_Driver/Src/stm32f4xx_ll_usb.c ****     if (((USBx_OUTEP(epnum)->DOEPCTL) & USB_OTG_DOEPCTL_USBAEP) == 0U)
 1473              		.loc 1 569 11
 1474 00b4 BB68     		ldr	r3, [r7, #8]
 1475 00b6 5A01     		lsls	r2, r3, #5
 1476 00b8 FB68     		ldr	r3, [r7, #12]
 1477 00ba 1344     		add	r3, r3, r2
 1478 00bc 03F53063 		add	r3, r3, #2816
 1479              		.loc 1 569 28
 1480 00c0 1B68     		ldr	r3, [r3]
 1481              		.loc 1 569 39
 1482 00c2 03F40043 		and	r3, r3, #32768
 1483              		.loc 1 569 8
 1484 00c6 002B     		cmp	r3, #0
 1485 00c8 1AD1     		bne	.L82
 570:Drivers/STM32F4xx_HAL_Driver/Src/stm32f4xx_ll_usb.c ****     {
 571:Drivers/STM32F4xx_HAL_Driver/Src/stm32f4xx_ll_usb.c ****       USBx_OUTEP(epnum)->DOEPCTL |= (ep->maxpacket & USB_OTG_DOEPCTL_MPSIZ) |
 1486              		.loc 1 571 34
 1487 00ca BB68     		ldr	r3, [r7, #8]
 1488 00cc 5A01     		lsls	r2, r3, #5
 1489 00ce FB68     		ldr	r3, [r7, #12]
 1490 00d0 1344     		add	r3, r3, r2
 1491 00d2 03F53063 		add	r3, r3, #2816
 1492 00d6 1A68     		ldr	r2, [r3]
ARM GAS  /var/folders/vq/qt4vp3kd5rxf7v2b6_fdtdt80000gn/T//ccOb9Y7L.s 			page 37


 1493              		.loc 1 571 40
 1494 00d8 3B68     		ldr	r3, [r7]
 1495 00da 9B68     		ldr	r3, [r3, #8]
 1496              		.loc 1 571 52
 1497 00dc C3F30A01 		ubfx	r1, r3, #0, #11
 572:Drivers/STM32F4xx_HAL_Driver/Src/stm32f4xx_ll_usb.c ****                                     ((uint32_t)ep->type << 18) |
 1498              		.loc 1 572 50
 1499 00e0 3B68     		ldr	r3, [r7]
 1500 00e2 DB78     		ldrb	r3, [r3, #3]	@ zero_extendqisi2
 1501              		.loc 1 572 57
 1502 00e4 9B04     		lsls	r3, r3, #18
 571:Drivers/STM32F4xx_HAL_Driver/Src/stm32f4xx_ll_usb.c ****                                     ((uint32_t)ep->type << 18) |
 1503              		.loc 1 571 77
 1504 00e6 0B43     		orrs	r3, r3, r1
 571:Drivers/STM32F4xx_HAL_Driver/Src/stm32f4xx_ll_usb.c ****                                     ((uint32_t)ep->type << 18) |
 1505              		.loc 1 571 34
 1506 00e8 1343     		orrs	r3, r3, r2
 1507 00ea BA68     		ldr	r2, [r7, #8]
 1508 00ec 5101     		lsls	r1, r2, #5
 1509 00ee FA68     		ldr	r2, [r7, #12]
 1510 00f0 0A44     		add	r2, r2, r1
 1511 00f2 02F53062 		add	r2, r2, #2816
 1512 00f6 43F08053 		orr	r3, r3, #268435456
 1513 00fa 43F40043 		orr	r3, r3, #32768
 1514 00fe 1360     		str	r3, [r2]
 1515              	.L82:
 573:Drivers/STM32F4xx_HAL_Driver/Src/stm32f4xx_ll_usb.c ****                                     USB_OTG_DIEPCTL_SD0PID_SEVNFRM |
 574:Drivers/STM32F4xx_HAL_Driver/Src/stm32f4xx_ll_usb.c ****                                     USB_OTG_DOEPCTL_USBAEP;
 575:Drivers/STM32F4xx_HAL_Driver/Src/stm32f4xx_ll_usb.c ****     }
 576:Drivers/STM32F4xx_HAL_Driver/Src/stm32f4xx_ll_usb.c ****   }
 577:Drivers/STM32F4xx_HAL_Driver/Src/stm32f4xx_ll_usb.c ****   return HAL_OK;
 1516              		.loc 1 577 10
 1517 0100 0023     		movs	r3, #0
 578:Drivers/STM32F4xx_HAL_Driver/Src/stm32f4xx_ll_usb.c **** }
 1518              		.loc 1 578 1
 1519 0102 1846     		mov	r0, r3
 1520 0104 1437     		adds	r7, r7, #20
 1521              	.LCFI66:
 1522              		.cfi_def_cfa_offset 4
 1523 0106 BD46     		mov	sp, r7
 1524              	.LCFI67:
 1525              		.cfi_def_cfa_register 13
 1526              		@ sp needed
 1527 0108 5DF8047B 		ldr	r7, [sp], #4
 1528              	.LCFI68:
 1529              		.cfi_restore 7
 1530              		.cfi_def_cfa_offset 0
 1531 010c 7047     		bx	lr
 1532              		.cfi_endproc
 1533              	.LFE140:
 1535              		.section	.text.USB_ActivateDedicatedEndpoint,"ax",%progbits
 1536              		.align	1
 1537              		.global	USB_ActivateDedicatedEndpoint
 1538              		.syntax unified
 1539              		.thumb
 1540              		.thumb_func
 1541              		.fpu fpv4-sp-d16
ARM GAS  /var/folders/vq/qt4vp3kd5rxf7v2b6_fdtdt80000gn/T//ccOb9Y7L.s 			page 38


 1543              	USB_ActivateDedicatedEndpoint:
 1544              	.LFB141:
 579:Drivers/STM32F4xx_HAL_Driver/Src/stm32f4xx_ll_usb.c **** 
 580:Drivers/STM32F4xx_HAL_Driver/Src/stm32f4xx_ll_usb.c **** /**
 581:Drivers/STM32F4xx_HAL_Driver/Src/stm32f4xx_ll_usb.c ****   * @brief  Activate and configure a dedicated endpoint
 582:Drivers/STM32F4xx_HAL_Driver/Src/stm32f4xx_ll_usb.c ****   * @param  USBx  Selected device
 583:Drivers/STM32F4xx_HAL_Driver/Src/stm32f4xx_ll_usb.c ****   * @param  ep pointer to endpoint structure
 584:Drivers/STM32F4xx_HAL_Driver/Src/stm32f4xx_ll_usb.c ****   * @retval HAL status
 585:Drivers/STM32F4xx_HAL_Driver/Src/stm32f4xx_ll_usb.c ****   */
 586:Drivers/STM32F4xx_HAL_Driver/Src/stm32f4xx_ll_usb.c **** HAL_StatusTypeDef USB_ActivateDedicatedEndpoint(USB_OTG_GlobalTypeDef *USBx, USB_OTG_EPTypeDef *ep)
 587:Drivers/STM32F4xx_HAL_Driver/Src/stm32f4xx_ll_usb.c **** {
 1545              		.loc 1 587 1
 1546              		.cfi_startproc
 1547              		@ args = 0, pretend = 0, frame = 16
 1548              		@ frame_needed = 1, uses_anonymous_args = 0
 1549              		@ link register save eliminated.
 1550 0000 80B4     		push	{r7}
 1551              	.LCFI69:
 1552              		.cfi_def_cfa_offset 4
 1553              		.cfi_offset 7, -4
 1554 0002 85B0     		sub	sp, sp, #20
 1555              	.LCFI70:
 1556              		.cfi_def_cfa_offset 24
 1557 0004 00AF     		add	r7, sp, #0
 1558              	.LCFI71:
 1559              		.cfi_def_cfa_register 7
 1560 0006 7860     		str	r0, [r7, #4]
 1561 0008 3960     		str	r1, [r7]
 588:Drivers/STM32F4xx_HAL_Driver/Src/stm32f4xx_ll_usb.c ****   uint32_t USBx_BASE = (uint32_t)USBx;
 1562              		.loc 1 588 12
 1563 000a 7B68     		ldr	r3, [r7, #4]
 1564 000c FB60     		str	r3, [r7, #12]
 589:Drivers/STM32F4xx_HAL_Driver/Src/stm32f4xx_ll_usb.c ****   uint32_t epnum = (uint32_t)ep->num;
 1565              		.loc 1 589 32
 1566 000e 3B68     		ldr	r3, [r7]
 1567 0010 1B78     		ldrb	r3, [r3]	@ zero_extendqisi2
 1568              		.loc 1 589 12
 1569 0012 BB60     		str	r3, [r7, #8]
 590:Drivers/STM32F4xx_HAL_Driver/Src/stm32f4xx_ll_usb.c **** 
 591:Drivers/STM32F4xx_HAL_Driver/Src/stm32f4xx_ll_usb.c ****   /* Read DEPCTLn register */
 592:Drivers/STM32F4xx_HAL_Driver/Src/stm32f4xx_ll_usb.c ****   if (ep->is_in == 1U)
 1570              		.loc 1 592 9
 1571 0014 3B68     		ldr	r3, [r7]
 1572 0016 5B78     		ldrb	r3, [r3, #1]	@ zero_extendqisi2
 1573              		.loc 1 592 6
 1574 0018 012B     		cmp	r3, #1
 1575 001a 3AD1     		bne	.L85
 593:Drivers/STM32F4xx_HAL_Driver/Src/stm32f4xx_ll_usb.c ****   {
 594:Drivers/STM32F4xx_HAL_Driver/Src/stm32f4xx_ll_usb.c ****     if (((USBx_INEP(epnum)->DIEPCTL) & USB_OTG_DIEPCTL_USBAEP) == 0U)
 1576              		.loc 1 594 11
 1577 001c BB68     		ldr	r3, [r7, #8]
 1578 001e 5A01     		lsls	r2, r3, #5
 1579 0020 FB68     		ldr	r3, [r7, #12]
 1580 0022 1344     		add	r3, r3, r2
 1581 0024 03F51063 		add	r3, r3, #2304
 1582              		.loc 1 594 27
 1583 0028 1B68     		ldr	r3, [r3]
ARM GAS  /var/folders/vq/qt4vp3kd5rxf7v2b6_fdtdt80000gn/T//ccOb9Y7L.s 			page 39


 1584              		.loc 1 594 38
 1585 002a 03F40043 		and	r3, r3, #32768
 1586              		.loc 1 594 8
 1587 002e 002B     		cmp	r3, #0
 1588 0030 1DD1     		bne	.L86
 595:Drivers/STM32F4xx_HAL_Driver/Src/stm32f4xx_ll_usb.c ****     {
 596:Drivers/STM32F4xx_HAL_Driver/Src/stm32f4xx_ll_usb.c ****       USBx_INEP(epnum)->DIEPCTL |= (ep->maxpacket & USB_OTG_DIEPCTL_MPSIZ) |
 1589              		.loc 1 596 33
 1590 0032 BB68     		ldr	r3, [r7, #8]
 1591 0034 5A01     		lsls	r2, r3, #5
 1592 0036 FB68     		ldr	r3, [r7, #12]
 1593 0038 1344     		add	r3, r3, r2
 1594 003a 03F51063 		add	r3, r3, #2304
 1595 003e 1A68     		ldr	r2, [r3]
 1596              		.loc 1 596 39
 1597 0040 3B68     		ldr	r3, [r7]
 1598 0042 9B68     		ldr	r3, [r3, #8]
 1599              		.loc 1 596 51
 1600 0044 C3F30A01 		ubfx	r1, r3, #0, #11
 597:Drivers/STM32F4xx_HAL_Driver/Src/stm32f4xx_ll_usb.c ****                                    ((uint32_t)ep->type << 18) | (epnum << 22) |
 1601              		.loc 1 597 49
 1602 0048 3B68     		ldr	r3, [r7]
 1603 004a DB78     		ldrb	r3, [r3, #3]	@ zero_extendqisi2
 1604              		.loc 1 597 56
 1605 004c 9B04     		lsls	r3, r3, #18
 596:Drivers/STM32F4xx_HAL_Driver/Src/stm32f4xx_ll_usb.c ****                                    ((uint32_t)ep->type << 18) | (epnum << 22) |
 1606              		.loc 1 596 76
 1607 004e 1943     		orrs	r1, r1, r3
 1608              		.loc 1 597 72
 1609 0050 BB68     		ldr	r3, [r7, #8]
 1610 0052 9B05     		lsls	r3, r3, #22
 1611              		.loc 1 597 63
 1612 0054 0B43     		orrs	r3, r3, r1
 596:Drivers/STM32F4xx_HAL_Driver/Src/stm32f4xx_ll_usb.c ****                                    ((uint32_t)ep->type << 18) | (epnum << 22) |
 1613              		.loc 1 596 33
 1614 0056 1343     		orrs	r3, r3, r2
 1615 0058 BA68     		ldr	r2, [r7, #8]
 1616 005a 5101     		lsls	r1, r2, #5
 1617 005c FA68     		ldr	r2, [r7, #12]
 1618 005e 0A44     		add	r2, r2, r1
 1619 0060 02F51062 		add	r2, r2, #2304
 1620 0064 43F08053 		orr	r3, r3, #268435456
 1621 0068 43F40043 		orr	r3, r3, #32768
 1622 006c 1360     		str	r3, [r2]
 1623              	.L86:
 598:Drivers/STM32F4xx_HAL_Driver/Src/stm32f4xx_ll_usb.c ****                                    USB_OTG_DIEPCTL_SD0PID_SEVNFRM |
 599:Drivers/STM32F4xx_HAL_Driver/Src/stm32f4xx_ll_usb.c ****                                    USB_OTG_DIEPCTL_USBAEP;
 600:Drivers/STM32F4xx_HAL_Driver/Src/stm32f4xx_ll_usb.c ****     }
 601:Drivers/STM32F4xx_HAL_Driver/Src/stm32f4xx_ll_usb.c **** 
 602:Drivers/STM32F4xx_HAL_Driver/Src/stm32f4xx_ll_usb.c ****     USBx_DEVICE->DEACHMSK |= USB_OTG_DAINTMSK_IEPM & (uint32_t)(1UL << (ep->num & EP_ADDR_MSK));
 1624              		.loc 1 602 27
 1625 006e FB68     		ldr	r3, [r7, #12]
 1626 0070 03F50063 		add	r3, r3, #2048
 1627 0074 DA6B     		ldr	r2, [r3, #60]
 1628              		.loc 1 602 75
 1629 0076 3B68     		ldr	r3, [r7]
 1630 0078 1B78     		ldrb	r3, [r3]	@ zero_extendqisi2
ARM GAS  /var/folders/vq/qt4vp3kd5rxf7v2b6_fdtdt80000gn/T//ccOb9Y7L.s 			page 40


 1631              		.loc 1 602 81
 1632 007a 03F00F03 		and	r3, r3, #15
 1633              		.loc 1 602 54
 1634 007e 0121     		movs	r1, #1
 1635 0080 01FA03F3 		lsl	r3, r1, r3
 1636              		.loc 1 602 52
 1637 0084 9BB2     		uxth	r3, r3
 1638              		.loc 1 602 27
 1639 0086 F968     		ldr	r1, [r7, #12]
 1640 0088 01F50061 		add	r1, r1, #2048
 1641 008c 1343     		orrs	r3, r3, r2
 1642 008e CB63     		str	r3, [r1, #60]
 1643 0090 37E0     		b	.L87
 1644              	.L85:
 603:Drivers/STM32F4xx_HAL_Driver/Src/stm32f4xx_ll_usb.c ****   }
 604:Drivers/STM32F4xx_HAL_Driver/Src/stm32f4xx_ll_usb.c ****   else
 605:Drivers/STM32F4xx_HAL_Driver/Src/stm32f4xx_ll_usb.c ****   {
 606:Drivers/STM32F4xx_HAL_Driver/Src/stm32f4xx_ll_usb.c ****     if (((USBx_OUTEP(epnum)->DOEPCTL) & USB_OTG_DOEPCTL_USBAEP) == 0U)
 1645              		.loc 1 606 11
 1646 0092 BB68     		ldr	r3, [r7, #8]
 1647 0094 5A01     		lsls	r2, r3, #5
 1648 0096 FB68     		ldr	r3, [r7, #12]
 1649 0098 1344     		add	r3, r3, r2
 1650 009a 03F53063 		add	r3, r3, #2816
 1651              		.loc 1 606 28
 1652 009e 1B68     		ldr	r3, [r3]
 1653              		.loc 1 606 39
 1654 00a0 03F40043 		and	r3, r3, #32768
 1655              		.loc 1 606 8
 1656 00a4 002B     		cmp	r3, #0
 1657 00a6 1BD1     		bne	.L88
 607:Drivers/STM32F4xx_HAL_Driver/Src/stm32f4xx_ll_usb.c ****     {
 608:Drivers/STM32F4xx_HAL_Driver/Src/stm32f4xx_ll_usb.c ****       USBx_OUTEP(epnum)->DOEPCTL |= (ep->maxpacket & USB_OTG_DOEPCTL_MPSIZ) |
 1658              		.loc 1 608 34
 1659 00a8 BB68     		ldr	r3, [r7, #8]
 1660 00aa 5A01     		lsls	r2, r3, #5
 1661 00ac FB68     		ldr	r3, [r7, #12]
 1662 00ae 1344     		add	r3, r3, r2
 1663 00b0 03F53063 		add	r3, r3, #2816
 1664 00b4 1A68     		ldr	r2, [r3]
 1665              		.loc 1 608 40
 1666 00b6 3B68     		ldr	r3, [r7]
 1667 00b8 9B68     		ldr	r3, [r3, #8]
 1668              		.loc 1 608 52
 1669 00ba C3F30A01 		ubfx	r1, r3, #0, #11
 609:Drivers/STM32F4xx_HAL_Driver/Src/stm32f4xx_ll_usb.c ****                                     ((uint32_t)ep->type << 18) | (epnum << 22) |
 1670              		.loc 1 609 50
 1671 00be 3B68     		ldr	r3, [r7]
 1672 00c0 DB78     		ldrb	r3, [r3, #3]	@ zero_extendqisi2
 1673              		.loc 1 609 57
 1674 00c2 9B04     		lsls	r3, r3, #18
 608:Drivers/STM32F4xx_HAL_Driver/Src/stm32f4xx_ll_usb.c ****                                     ((uint32_t)ep->type << 18) | (epnum << 22) |
 1675              		.loc 1 608 77
 1676 00c4 1943     		orrs	r1, r1, r3
 1677              		.loc 1 609 73
 1678 00c6 BB68     		ldr	r3, [r7, #8]
 1679 00c8 9B05     		lsls	r3, r3, #22
ARM GAS  /var/folders/vq/qt4vp3kd5rxf7v2b6_fdtdt80000gn/T//ccOb9Y7L.s 			page 41


 1680              		.loc 1 609 64
 1681 00ca 0B43     		orrs	r3, r3, r1
 608:Drivers/STM32F4xx_HAL_Driver/Src/stm32f4xx_ll_usb.c ****                                     ((uint32_t)ep->type << 18) | (epnum << 22) |
 1682              		.loc 1 608 34
 1683 00cc 1343     		orrs	r3, r3, r2
 1684 00ce BA68     		ldr	r2, [r7, #8]
 1685 00d0 5101     		lsls	r1, r2, #5
 1686 00d2 FA68     		ldr	r2, [r7, #12]
 1687 00d4 0A44     		add	r2, r2, r1
 1688 00d6 02F53062 		add	r2, r2, #2816
 1689 00da 43F40043 		orr	r3, r3, #32768
 1690 00de 1360     		str	r3, [r2]
 1691              	.L88:
 610:Drivers/STM32F4xx_HAL_Driver/Src/stm32f4xx_ll_usb.c ****                                     USB_OTG_DOEPCTL_USBAEP;
 611:Drivers/STM32F4xx_HAL_Driver/Src/stm32f4xx_ll_usb.c ****     }
 612:Drivers/STM32F4xx_HAL_Driver/Src/stm32f4xx_ll_usb.c **** 
 613:Drivers/STM32F4xx_HAL_Driver/Src/stm32f4xx_ll_usb.c ****     USBx_DEVICE->DEACHMSK |= USB_OTG_DAINTMSK_OEPM & ((uint32_t)(1UL << (ep->num & EP_ADDR_MSK)) <<
 1692              		.loc 1 613 27
 1693 00e0 FB68     		ldr	r3, [r7, #12]
 1694 00e2 03F50063 		add	r3, r3, #2048
 1695 00e6 DA6B     		ldr	r2, [r3, #60]
 1696              		.loc 1 613 76
 1697 00e8 3B68     		ldr	r3, [r7]
 1698 00ea 1B78     		ldrb	r3, [r3]	@ zero_extendqisi2
 1699              		.loc 1 613 82
 1700 00ec 03F00F03 		and	r3, r3, #15
 1701              		.loc 1 613 55
 1702 00f0 0121     		movs	r1, #1
 1703 00f2 01FA03F3 		lsl	r3, r1, r3
 1704              		.loc 1 613 52
 1705 00f6 1B04     		lsls	r3, r3, #16
 1706              		.loc 1 613 27
 1707 00f8 F968     		ldr	r1, [r7, #12]
 1708 00fa 01F50061 		add	r1, r1, #2048
 1709 00fe 1343     		orrs	r3, r3, r2
 1710 0100 CB63     		str	r3, [r1, #60]
 1711              	.L87:
 614:Drivers/STM32F4xx_HAL_Driver/Src/stm32f4xx_ll_usb.c ****   }
 615:Drivers/STM32F4xx_HAL_Driver/Src/stm32f4xx_ll_usb.c **** 
 616:Drivers/STM32F4xx_HAL_Driver/Src/stm32f4xx_ll_usb.c ****   return HAL_OK;
 1712              		.loc 1 616 10
 1713 0102 0023     		movs	r3, #0
 617:Drivers/STM32F4xx_HAL_Driver/Src/stm32f4xx_ll_usb.c **** }
 1714              		.loc 1 617 1
 1715 0104 1846     		mov	r0, r3
 1716 0106 1437     		adds	r7, r7, #20
 1717              	.LCFI72:
 1718              		.cfi_def_cfa_offset 4
 1719 0108 BD46     		mov	sp, r7
 1720              	.LCFI73:
 1721              		.cfi_def_cfa_register 13
 1722              		@ sp needed
 1723 010a 5DF8047B 		ldr	r7, [sp], #4
 1724              	.LCFI74:
 1725              		.cfi_restore 7
 1726              		.cfi_def_cfa_offset 0
 1727 010e 7047     		bx	lr
ARM GAS  /var/folders/vq/qt4vp3kd5rxf7v2b6_fdtdt80000gn/T//ccOb9Y7L.s 			page 42


 1728              		.cfi_endproc
 1729              	.LFE141:
 1731              		.section	.text.USB_DeactivateEndpoint,"ax",%progbits
 1732              		.align	1
 1733              		.global	USB_DeactivateEndpoint
 1734              		.syntax unified
 1735              		.thumb
 1736              		.thumb_func
 1737              		.fpu fpv4-sp-d16
 1739              	USB_DeactivateEndpoint:
 1740              	.LFB142:
 618:Drivers/STM32F4xx_HAL_Driver/Src/stm32f4xx_ll_usb.c **** 
 619:Drivers/STM32F4xx_HAL_Driver/Src/stm32f4xx_ll_usb.c **** /**
 620:Drivers/STM32F4xx_HAL_Driver/Src/stm32f4xx_ll_usb.c ****   * @brief  De-activate and de-initialize an endpoint
 621:Drivers/STM32F4xx_HAL_Driver/Src/stm32f4xx_ll_usb.c ****   * @param  USBx  Selected device
 622:Drivers/STM32F4xx_HAL_Driver/Src/stm32f4xx_ll_usb.c ****   * @param  ep pointer to endpoint structure
 623:Drivers/STM32F4xx_HAL_Driver/Src/stm32f4xx_ll_usb.c ****   * @retval HAL status
 624:Drivers/STM32F4xx_HAL_Driver/Src/stm32f4xx_ll_usb.c ****   */
 625:Drivers/STM32F4xx_HAL_Driver/Src/stm32f4xx_ll_usb.c **** HAL_StatusTypeDef USB_DeactivateEndpoint(USB_OTG_GlobalTypeDef *USBx, USB_OTG_EPTypeDef *ep)
 626:Drivers/STM32F4xx_HAL_Driver/Src/stm32f4xx_ll_usb.c **** {
 1741              		.loc 1 626 1
 1742              		.cfi_startproc
 1743              		@ args = 0, pretend = 0, frame = 16
 1744              		@ frame_needed = 1, uses_anonymous_args = 0
 1745              		@ link register save eliminated.
 1746 0000 80B4     		push	{r7}
 1747              	.LCFI75:
 1748              		.cfi_def_cfa_offset 4
 1749              		.cfi_offset 7, -4
 1750 0002 85B0     		sub	sp, sp, #20
 1751              	.LCFI76:
 1752              		.cfi_def_cfa_offset 24
 1753 0004 00AF     		add	r7, sp, #0
 1754              	.LCFI77:
 1755              		.cfi_def_cfa_register 7
 1756 0006 7860     		str	r0, [r7, #4]
 1757 0008 3960     		str	r1, [r7]
 627:Drivers/STM32F4xx_HAL_Driver/Src/stm32f4xx_ll_usb.c ****   uint32_t USBx_BASE = (uint32_t)USBx;
 1758              		.loc 1 627 12
 1759 000a 7B68     		ldr	r3, [r7, #4]
 1760 000c FB60     		str	r3, [r7, #12]
 628:Drivers/STM32F4xx_HAL_Driver/Src/stm32f4xx_ll_usb.c ****   uint32_t epnum = (uint32_t)ep->num;
 1761              		.loc 1 628 32
 1762 000e 3B68     		ldr	r3, [r7]
 1763 0010 1B78     		ldrb	r3, [r3]	@ zero_extendqisi2
 1764              		.loc 1 628 12
 1765 0012 BB60     		str	r3, [r7, #8]
 629:Drivers/STM32F4xx_HAL_Driver/Src/stm32f4xx_ll_usb.c **** 
 630:Drivers/STM32F4xx_HAL_Driver/Src/stm32f4xx_ll_usb.c ****   /* Read DEPCTLn register */
 631:Drivers/STM32F4xx_HAL_Driver/Src/stm32f4xx_ll_usb.c ****   if (ep->is_in == 1U)
 1766              		.loc 1 631 9
 1767 0014 3B68     		ldr	r3, [r7]
 1768 0016 5B78     		ldrb	r3, [r3, #1]	@ zero_extendqisi2
 1769              		.loc 1 631 6
 1770 0018 012B     		cmp	r3, #1
 1771 001a 61D1     		bne	.L91
 632:Drivers/STM32F4xx_HAL_Driver/Src/stm32f4xx_ll_usb.c ****   {
ARM GAS  /var/folders/vq/qt4vp3kd5rxf7v2b6_fdtdt80000gn/T//ccOb9Y7L.s 			page 43


 633:Drivers/STM32F4xx_HAL_Driver/Src/stm32f4xx_ll_usb.c ****     if ((USBx_INEP(epnum)->DIEPCTL & USB_OTG_DIEPCTL_EPENA) == USB_OTG_DIEPCTL_EPENA)
 1772              		.loc 1 633 10
 1773 001c BB68     		ldr	r3, [r7, #8]
 1774 001e 5A01     		lsls	r2, r3, #5
 1775 0020 FB68     		ldr	r3, [r7, #12]
 1776 0022 1344     		add	r3, r3, r2
 1777 0024 03F51063 		add	r3, r3, #2304
 1778              		.loc 1 633 26
 1779 0028 1B68     		ldr	r3, [r3]
 1780              		.loc 1 633 36
 1781 002a 03F00043 		and	r3, r3, #-2147483648
 1782              		.loc 1 633 8
 1783 002e B3F1004F 		cmp	r3, #-2147483648
 1784 0032 1FD1     		bne	.L92
 634:Drivers/STM32F4xx_HAL_Driver/Src/stm32f4xx_ll_usb.c ****     {
 635:Drivers/STM32F4xx_HAL_Driver/Src/stm32f4xx_ll_usb.c ****       USBx_INEP(epnum)->DIEPCTL |= USB_OTG_DIEPCTL_SNAK;
 1785              		.loc 1 635 33
 1786 0034 BB68     		ldr	r3, [r7, #8]
 1787 0036 5A01     		lsls	r2, r3, #5
 1788 0038 FB68     		ldr	r3, [r7, #12]
 1789 003a 1344     		add	r3, r3, r2
 1790 003c 03F51063 		add	r3, r3, #2304
 1791 0040 1B68     		ldr	r3, [r3]
 1792 0042 BA68     		ldr	r2, [r7, #8]
 1793 0044 5101     		lsls	r1, r2, #5
 1794 0046 FA68     		ldr	r2, [r7, #12]
 1795 0048 0A44     		add	r2, r2, r1
 1796 004a 02F51062 		add	r2, r2, #2304
 1797 004e 43F00063 		orr	r3, r3, #134217728
 1798 0052 1360     		str	r3, [r2]
 636:Drivers/STM32F4xx_HAL_Driver/Src/stm32f4xx_ll_usb.c ****       USBx_INEP(epnum)->DIEPCTL |= USB_OTG_DIEPCTL_EPDIS;
 1799              		.loc 1 636 33
 1800 0054 BB68     		ldr	r3, [r7, #8]
 1801 0056 5A01     		lsls	r2, r3, #5
 1802 0058 FB68     		ldr	r3, [r7, #12]
 1803 005a 1344     		add	r3, r3, r2
 1804 005c 03F51063 		add	r3, r3, #2304
 1805 0060 1B68     		ldr	r3, [r3]
 1806 0062 BA68     		ldr	r2, [r7, #8]
 1807 0064 5101     		lsls	r1, r2, #5
 1808 0066 FA68     		ldr	r2, [r7, #12]
 1809 0068 0A44     		add	r2, r2, r1
 1810 006a 02F51062 		add	r2, r2, #2304
 1811 006e 43F08043 		orr	r3, r3, #1073741824
 1812 0072 1360     		str	r3, [r2]
 1813              	.L92:
 637:Drivers/STM32F4xx_HAL_Driver/Src/stm32f4xx_ll_usb.c ****     }
 638:Drivers/STM32F4xx_HAL_Driver/Src/stm32f4xx_ll_usb.c **** 
 639:Drivers/STM32F4xx_HAL_Driver/Src/stm32f4xx_ll_usb.c ****     USBx_DEVICE->DEACHMSK &= ~(USB_OTG_DAINTMSK_IEPM & (uint32_t)(1UL << (ep->num & EP_ADDR_MSK)));
 1814              		.loc 1 639 27
 1815 0074 FB68     		ldr	r3, [r7, #12]
 1816 0076 03F50063 		add	r3, r3, #2048
 1817 007a DA6B     		ldr	r2, [r3, #60]
 1818              		.loc 1 639 77
 1819 007c 3B68     		ldr	r3, [r7]
 1820 007e 1B78     		ldrb	r3, [r3]	@ zero_extendqisi2
 1821              		.loc 1 639 83
ARM GAS  /var/folders/vq/qt4vp3kd5rxf7v2b6_fdtdt80000gn/T//ccOb9Y7L.s 			page 44


 1822 0080 03F00F03 		and	r3, r3, #15
 1823              		.loc 1 639 56
 1824 0084 0121     		movs	r1, #1
 1825 0086 01FA03F3 		lsl	r3, r1, r3
 1826              		.loc 1 639 54
 1827 008a 9BB2     		uxth	r3, r3
 1828              		.loc 1 639 30
 1829 008c DB43     		mvns	r3, r3
 1830              		.loc 1 639 27
 1831 008e F968     		ldr	r1, [r7, #12]
 1832 0090 01F50061 		add	r1, r1, #2048
 1833 0094 1340     		ands	r3, r3, r2
 1834 0096 CB63     		str	r3, [r1, #60]
 640:Drivers/STM32F4xx_HAL_Driver/Src/stm32f4xx_ll_usb.c ****     USBx_DEVICE->DAINTMSK &= ~(USB_OTG_DAINTMSK_IEPM & (uint32_t)(1UL << (ep->num & EP_ADDR_MSK)));
 1835              		.loc 1 640 27
 1836 0098 FB68     		ldr	r3, [r7, #12]
 1837 009a 03F50063 		add	r3, r3, #2048
 1838 009e DA69     		ldr	r2, [r3, #28]
 1839              		.loc 1 640 77
 1840 00a0 3B68     		ldr	r3, [r7]
 1841 00a2 1B78     		ldrb	r3, [r3]	@ zero_extendqisi2
 1842              		.loc 1 640 83
 1843 00a4 03F00F03 		and	r3, r3, #15
 1844              		.loc 1 640 56
 1845 00a8 0121     		movs	r1, #1
 1846 00aa 01FA03F3 		lsl	r3, r1, r3
 1847              		.loc 1 640 54
 1848 00ae 9BB2     		uxth	r3, r3
 1849              		.loc 1 640 30
 1850 00b0 DB43     		mvns	r3, r3
 1851              		.loc 1 640 27
 1852 00b2 F968     		ldr	r1, [r7, #12]
 1853 00b4 01F50061 		add	r1, r1, #2048
 1854 00b8 1340     		ands	r3, r3, r2
 1855 00ba CB61     		str	r3, [r1, #28]
 641:Drivers/STM32F4xx_HAL_Driver/Src/stm32f4xx_ll_usb.c ****     USBx_INEP(epnum)->DIEPCTL &= ~(USB_OTG_DIEPCTL_USBAEP |
 1856              		.loc 1 641 31
 1857 00bc BB68     		ldr	r3, [r7, #8]
 1858 00be 5A01     		lsls	r2, r3, #5
 1859 00c0 FB68     		ldr	r3, [r7, #12]
 1860 00c2 1344     		add	r3, r3, r2
 1861 00c4 03F51063 		add	r3, r3, #2304
 1862 00c8 1A68     		ldr	r2, [r3]
 1863 00ca BB68     		ldr	r3, [r7, #8]
 1864 00cc 5901     		lsls	r1, r3, #5
 1865 00ce FB68     		ldr	r3, [r7, #12]
 1866 00d0 0B44     		add	r3, r3, r1
 1867 00d2 03F51063 		add	r3, r3, #2304
 1868 00d6 1946     		mov	r1, r3
 1869 00d8 354B     		ldr	r3, .L96
 1870 00da 1340     		ands	r3, r3, r2
 1871 00dc 0B60     		str	r3, [r1]
 1872 00de 60E0     		b	.L93
 1873              	.L91:
 642:Drivers/STM32F4xx_HAL_Driver/Src/stm32f4xx_ll_usb.c ****                                    USB_OTG_DIEPCTL_MPSIZ |
 643:Drivers/STM32F4xx_HAL_Driver/Src/stm32f4xx_ll_usb.c ****                                    USB_OTG_DIEPCTL_TXFNUM |
 644:Drivers/STM32F4xx_HAL_Driver/Src/stm32f4xx_ll_usb.c ****                                    USB_OTG_DIEPCTL_SD0PID_SEVNFRM |
ARM GAS  /var/folders/vq/qt4vp3kd5rxf7v2b6_fdtdt80000gn/T//ccOb9Y7L.s 			page 45


 645:Drivers/STM32F4xx_HAL_Driver/Src/stm32f4xx_ll_usb.c ****                                    USB_OTG_DIEPCTL_EPTYP);
 646:Drivers/STM32F4xx_HAL_Driver/Src/stm32f4xx_ll_usb.c ****   }
 647:Drivers/STM32F4xx_HAL_Driver/Src/stm32f4xx_ll_usb.c ****   else
 648:Drivers/STM32F4xx_HAL_Driver/Src/stm32f4xx_ll_usb.c ****   {
 649:Drivers/STM32F4xx_HAL_Driver/Src/stm32f4xx_ll_usb.c ****     if ((USBx_OUTEP(epnum)->DOEPCTL & USB_OTG_DOEPCTL_EPENA) == USB_OTG_DOEPCTL_EPENA)
 1874              		.loc 1 649 10
 1875 00e0 BB68     		ldr	r3, [r7, #8]
 1876 00e2 5A01     		lsls	r2, r3, #5
 1877 00e4 FB68     		ldr	r3, [r7, #12]
 1878 00e6 1344     		add	r3, r3, r2
 1879 00e8 03F53063 		add	r3, r3, #2816
 1880              		.loc 1 649 27
 1881 00ec 1B68     		ldr	r3, [r3]
 1882              		.loc 1 649 37
 1883 00ee 03F00043 		and	r3, r3, #-2147483648
 1884              		.loc 1 649 8
 1885 00f2 B3F1004F 		cmp	r3, #-2147483648
 1886 00f6 1FD1     		bne	.L94
 650:Drivers/STM32F4xx_HAL_Driver/Src/stm32f4xx_ll_usb.c ****     {
 651:Drivers/STM32F4xx_HAL_Driver/Src/stm32f4xx_ll_usb.c ****       USBx_OUTEP(epnum)->DOEPCTL |= USB_OTG_DOEPCTL_SNAK;
 1887              		.loc 1 651 34
 1888 00f8 BB68     		ldr	r3, [r7, #8]
 1889 00fa 5A01     		lsls	r2, r3, #5
 1890 00fc FB68     		ldr	r3, [r7, #12]
 1891 00fe 1344     		add	r3, r3, r2
 1892 0100 03F53063 		add	r3, r3, #2816
 1893 0104 1B68     		ldr	r3, [r3]
 1894 0106 BA68     		ldr	r2, [r7, #8]
 1895 0108 5101     		lsls	r1, r2, #5
 1896 010a FA68     		ldr	r2, [r7, #12]
 1897 010c 0A44     		add	r2, r2, r1
 1898 010e 02F53062 		add	r2, r2, #2816
 1899 0112 43F00063 		orr	r3, r3, #134217728
 1900 0116 1360     		str	r3, [r2]
 652:Drivers/STM32F4xx_HAL_Driver/Src/stm32f4xx_ll_usb.c ****       USBx_OUTEP(epnum)->DOEPCTL |= USB_OTG_DOEPCTL_EPDIS;
 1901              		.loc 1 652 34
 1902 0118 BB68     		ldr	r3, [r7, #8]
 1903 011a 5A01     		lsls	r2, r3, #5
 1904 011c FB68     		ldr	r3, [r7, #12]
 1905 011e 1344     		add	r3, r3, r2
 1906 0120 03F53063 		add	r3, r3, #2816
 1907 0124 1B68     		ldr	r3, [r3]
 1908 0126 BA68     		ldr	r2, [r7, #8]
 1909 0128 5101     		lsls	r1, r2, #5
 1910 012a FA68     		ldr	r2, [r7, #12]
 1911 012c 0A44     		add	r2, r2, r1
 1912 012e 02F53062 		add	r2, r2, #2816
 1913 0132 43F08043 		orr	r3, r3, #1073741824
 1914 0136 1360     		str	r3, [r2]
 1915              	.L94:
 653:Drivers/STM32F4xx_HAL_Driver/Src/stm32f4xx_ll_usb.c ****     }
 654:Drivers/STM32F4xx_HAL_Driver/Src/stm32f4xx_ll_usb.c **** 
 655:Drivers/STM32F4xx_HAL_Driver/Src/stm32f4xx_ll_usb.c ****     USBx_DEVICE->DEACHMSK &= ~(USB_OTG_DAINTMSK_OEPM & ((uint32_t)(1UL << (ep->num & EP_ADDR_MSK)) 
 1916              		.loc 1 655 27
 1917 0138 FB68     		ldr	r3, [r7, #12]
 1918 013a 03F50063 		add	r3, r3, #2048
 1919 013e DA6B     		ldr	r2, [r3, #60]
ARM GAS  /var/folders/vq/qt4vp3kd5rxf7v2b6_fdtdt80000gn/T//ccOb9Y7L.s 			page 46


 1920              		.loc 1 655 78
 1921 0140 3B68     		ldr	r3, [r7]
 1922 0142 1B78     		ldrb	r3, [r3]	@ zero_extendqisi2
 1923              		.loc 1 655 84
 1924 0144 03F00F03 		and	r3, r3, #15
 1925              		.loc 1 655 57
 1926 0148 0121     		movs	r1, #1
 1927 014a 01FA03F3 		lsl	r3, r1, r3
 1928              		.loc 1 655 54
 1929 014e 1B04     		lsls	r3, r3, #16
 1930              		.loc 1 655 30
 1931 0150 DB43     		mvns	r3, r3
 1932              		.loc 1 655 27
 1933 0152 F968     		ldr	r1, [r7, #12]
 1934 0154 01F50061 		add	r1, r1, #2048
 1935 0158 1340     		ands	r3, r3, r2
 1936 015a CB63     		str	r3, [r1, #60]
 656:Drivers/STM32F4xx_HAL_Driver/Src/stm32f4xx_ll_usb.c ****     USBx_DEVICE->DAINTMSK &= ~(USB_OTG_DAINTMSK_OEPM & ((uint32_t)(1UL << (ep->num & EP_ADDR_MSK)) 
 1937              		.loc 1 656 27
 1938 015c FB68     		ldr	r3, [r7, #12]
 1939 015e 03F50063 		add	r3, r3, #2048
 1940 0162 DA69     		ldr	r2, [r3, #28]
 1941              		.loc 1 656 78
 1942 0164 3B68     		ldr	r3, [r7]
 1943 0166 1B78     		ldrb	r3, [r3]	@ zero_extendqisi2
 1944              		.loc 1 656 84
 1945 0168 03F00F03 		and	r3, r3, #15
 1946              		.loc 1 656 57
 1947 016c 0121     		movs	r1, #1
 1948 016e 01FA03F3 		lsl	r3, r1, r3
 1949              		.loc 1 656 54
 1950 0172 1B04     		lsls	r3, r3, #16
 1951              		.loc 1 656 30
 1952 0174 DB43     		mvns	r3, r3
 1953              		.loc 1 656 27
 1954 0176 F968     		ldr	r1, [r7, #12]
 1955 0178 01F50061 		add	r1, r1, #2048
 1956 017c 1340     		ands	r3, r3, r2
 1957 017e CB61     		str	r3, [r1, #28]
 657:Drivers/STM32F4xx_HAL_Driver/Src/stm32f4xx_ll_usb.c ****     USBx_OUTEP(epnum)->DOEPCTL &= ~(USB_OTG_DOEPCTL_USBAEP |
 1958              		.loc 1 657 32
 1959 0180 BB68     		ldr	r3, [r7, #8]
 1960 0182 5A01     		lsls	r2, r3, #5
 1961 0184 FB68     		ldr	r3, [r7, #12]
 1962 0186 1344     		add	r3, r3, r2
 1963 0188 03F53063 		add	r3, r3, #2816
 1964 018c 1A68     		ldr	r2, [r3]
 1965 018e BB68     		ldr	r3, [r7, #8]
 1966 0190 5901     		lsls	r1, r3, #5
 1967 0192 FB68     		ldr	r3, [r7, #12]
 1968 0194 0B44     		add	r3, r3, r1
 1969 0196 03F53063 		add	r3, r3, #2816
 1970 019a 1946     		mov	r1, r3
 1971 019c 054B     		ldr	r3, .L96+4
 1972 019e 1340     		ands	r3, r3, r2
 1973 01a0 0B60     		str	r3, [r1]
 1974              	.L93:
ARM GAS  /var/folders/vq/qt4vp3kd5rxf7v2b6_fdtdt80000gn/T//ccOb9Y7L.s 			page 47


 658:Drivers/STM32F4xx_HAL_Driver/Src/stm32f4xx_ll_usb.c ****                                     USB_OTG_DOEPCTL_MPSIZ |
 659:Drivers/STM32F4xx_HAL_Driver/Src/stm32f4xx_ll_usb.c ****                                     USB_OTG_DOEPCTL_SD0PID_SEVNFRM |
 660:Drivers/STM32F4xx_HAL_Driver/Src/stm32f4xx_ll_usb.c ****                                     USB_OTG_DOEPCTL_EPTYP);
 661:Drivers/STM32F4xx_HAL_Driver/Src/stm32f4xx_ll_usb.c ****   }
 662:Drivers/STM32F4xx_HAL_Driver/Src/stm32f4xx_ll_usb.c **** 
 663:Drivers/STM32F4xx_HAL_Driver/Src/stm32f4xx_ll_usb.c ****   return HAL_OK;
 1975              		.loc 1 663 10
 1976 01a2 0023     		movs	r3, #0
 664:Drivers/STM32F4xx_HAL_Driver/Src/stm32f4xx_ll_usb.c **** }
 1977              		.loc 1 664 1
 1978 01a4 1846     		mov	r0, r3
 1979 01a6 1437     		adds	r7, r7, #20
 1980              	.LCFI78:
 1981              		.cfi_def_cfa_offset 4
 1982 01a8 BD46     		mov	sp, r7
 1983              	.LCFI79:
 1984              		.cfi_def_cfa_register 13
 1985              		@ sp needed
 1986 01aa 5DF8047B 		ldr	r7, [sp], #4
 1987              	.LCFI80:
 1988              		.cfi_restore 7
 1989              		.cfi_def_cfa_offset 0
 1990 01ae 7047     		bx	lr
 1991              	.L97:
 1992              		.align	2
 1993              	.L96:
 1994 01b0 007833EC 		.word	-332171264
 1995 01b4 0078F3EF 		.word	-269256704
 1996              		.cfi_endproc
 1997              	.LFE142:
 1999              		.section	.text.USB_DeactivateDedicatedEndpoint,"ax",%progbits
 2000              		.align	1
 2001              		.global	USB_DeactivateDedicatedEndpoint
 2002              		.syntax unified
 2003              		.thumb
 2004              		.thumb_func
 2005              		.fpu fpv4-sp-d16
 2007              	USB_DeactivateDedicatedEndpoint:
 2008              	.LFB143:
 665:Drivers/STM32F4xx_HAL_Driver/Src/stm32f4xx_ll_usb.c **** 
 666:Drivers/STM32F4xx_HAL_Driver/Src/stm32f4xx_ll_usb.c **** /**
 667:Drivers/STM32F4xx_HAL_Driver/Src/stm32f4xx_ll_usb.c ****   * @brief  De-activate and de-initialize a dedicated endpoint
 668:Drivers/STM32F4xx_HAL_Driver/Src/stm32f4xx_ll_usb.c ****   * @param  USBx  Selected device
 669:Drivers/STM32F4xx_HAL_Driver/Src/stm32f4xx_ll_usb.c ****   * @param  ep pointer to endpoint structure
 670:Drivers/STM32F4xx_HAL_Driver/Src/stm32f4xx_ll_usb.c ****   * @retval HAL status
 671:Drivers/STM32F4xx_HAL_Driver/Src/stm32f4xx_ll_usb.c ****   */
 672:Drivers/STM32F4xx_HAL_Driver/Src/stm32f4xx_ll_usb.c **** HAL_StatusTypeDef USB_DeactivateDedicatedEndpoint(USB_OTG_GlobalTypeDef *USBx, USB_OTG_EPTypeDef *e
 673:Drivers/STM32F4xx_HAL_Driver/Src/stm32f4xx_ll_usb.c **** {
 2009              		.loc 1 673 1
 2010              		.cfi_startproc
 2011              		@ args = 0, pretend = 0, frame = 16
 2012              		@ frame_needed = 1, uses_anonymous_args = 0
 2013              		@ link register save eliminated.
 2014 0000 80B4     		push	{r7}
 2015              	.LCFI81:
 2016              		.cfi_def_cfa_offset 4
 2017              		.cfi_offset 7, -4
ARM GAS  /var/folders/vq/qt4vp3kd5rxf7v2b6_fdtdt80000gn/T//ccOb9Y7L.s 			page 48


 2018 0002 85B0     		sub	sp, sp, #20
 2019              	.LCFI82:
 2020              		.cfi_def_cfa_offset 24
 2021 0004 00AF     		add	r7, sp, #0
 2022              	.LCFI83:
 2023              		.cfi_def_cfa_register 7
 2024 0006 7860     		str	r0, [r7, #4]
 2025 0008 3960     		str	r1, [r7]
 674:Drivers/STM32F4xx_HAL_Driver/Src/stm32f4xx_ll_usb.c ****   uint32_t USBx_BASE = (uint32_t)USBx;
 2026              		.loc 1 674 12
 2027 000a 7B68     		ldr	r3, [r7, #4]
 2028 000c FB60     		str	r3, [r7, #12]
 675:Drivers/STM32F4xx_HAL_Driver/Src/stm32f4xx_ll_usb.c ****   uint32_t epnum = (uint32_t)ep->num;
 2029              		.loc 1 675 32
 2030 000e 3B68     		ldr	r3, [r7]
 2031 0010 1B78     		ldrb	r3, [r3]	@ zero_extendqisi2
 2032              		.loc 1 675 12
 2033 0012 BB60     		str	r3, [r7, #8]
 676:Drivers/STM32F4xx_HAL_Driver/Src/stm32f4xx_ll_usb.c **** 
 677:Drivers/STM32F4xx_HAL_Driver/Src/stm32f4xx_ll_usb.c ****   /* Read DEPCTLn register */
 678:Drivers/STM32F4xx_HAL_Driver/Src/stm32f4xx_ll_usb.c ****   if (ep->is_in == 1U)
 2034              		.loc 1 678 9
 2035 0014 3B68     		ldr	r3, [r7]
 2036 0016 5B78     		ldrb	r3, [r3, #1]	@ zero_extendqisi2
 2037              		.loc 1 678 6
 2038 0018 012B     		cmp	r3, #1
 2039 001a 4ED1     		bne	.L99
 679:Drivers/STM32F4xx_HAL_Driver/Src/stm32f4xx_ll_usb.c ****   {
 680:Drivers/STM32F4xx_HAL_Driver/Src/stm32f4xx_ll_usb.c ****     if ((USBx_INEP(epnum)->DIEPCTL & USB_OTG_DIEPCTL_EPENA) == USB_OTG_DIEPCTL_EPENA)
 2040              		.loc 1 680 10
 2041 001c BB68     		ldr	r3, [r7, #8]
 2042 001e 5A01     		lsls	r2, r3, #5
 2043 0020 FB68     		ldr	r3, [r7, #12]
 2044 0022 1344     		add	r3, r3, r2
 2045 0024 03F51063 		add	r3, r3, #2304
 2046              		.loc 1 680 26
 2047 0028 1B68     		ldr	r3, [r3]
 2048              		.loc 1 680 36
 2049 002a 03F00043 		and	r3, r3, #-2147483648
 2050              		.loc 1 680 8
 2051 002e B3F1004F 		cmp	r3, #-2147483648
 2052 0032 1FD1     		bne	.L100
 681:Drivers/STM32F4xx_HAL_Driver/Src/stm32f4xx_ll_usb.c ****     {
 682:Drivers/STM32F4xx_HAL_Driver/Src/stm32f4xx_ll_usb.c ****       USBx_INEP(epnum)->DIEPCTL  |= USB_OTG_DIEPCTL_SNAK;
 2053              		.loc 1 682 34
 2054 0034 BB68     		ldr	r3, [r7, #8]
 2055 0036 5A01     		lsls	r2, r3, #5
 2056 0038 FB68     		ldr	r3, [r7, #12]
 2057 003a 1344     		add	r3, r3, r2
 2058 003c 03F51063 		add	r3, r3, #2304
 2059 0040 1B68     		ldr	r3, [r3]
 2060 0042 BA68     		ldr	r2, [r7, #8]
 2061 0044 5101     		lsls	r1, r2, #5
 2062 0046 FA68     		ldr	r2, [r7, #12]
 2063 0048 0A44     		add	r2, r2, r1
 2064 004a 02F51062 		add	r2, r2, #2304
 2065 004e 43F00063 		orr	r3, r3, #134217728
ARM GAS  /var/folders/vq/qt4vp3kd5rxf7v2b6_fdtdt80000gn/T//ccOb9Y7L.s 			page 49


 2066 0052 1360     		str	r3, [r2]
 683:Drivers/STM32F4xx_HAL_Driver/Src/stm32f4xx_ll_usb.c ****       USBx_INEP(epnum)->DIEPCTL  |= USB_OTG_DIEPCTL_EPDIS;
 2067              		.loc 1 683 34
 2068 0054 BB68     		ldr	r3, [r7, #8]
 2069 0056 5A01     		lsls	r2, r3, #5
 2070 0058 FB68     		ldr	r3, [r7, #12]
 2071 005a 1344     		add	r3, r3, r2
 2072 005c 03F51063 		add	r3, r3, #2304
 2073 0060 1B68     		ldr	r3, [r3]
 2074 0062 BA68     		ldr	r2, [r7, #8]
 2075 0064 5101     		lsls	r1, r2, #5
 2076 0066 FA68     		ldr	r2, [r7, #12]
 2077 0068 0A44     		add	r2, r2, r1
 2078 006a 02F51062 		add	r2, r2, #2304
 2079 006e 43F08043 		orr	r3, r3, #1073741824
 2080 0072 1360     		str	r3, [r2]
 2081              	.L100:
 684:Drivers/STM32F4xx_HAL_Driver/Src/stm32f4xx_ll_usb.c ****     }
 685:Drivers/STM32F4xx_HAL_Driver/Src/stm32f4xx_ll_usb.c **** 
 686:Drivers/STM32F4xx_HAL_Driver/Src/stm32f4xx_ll_usb.c ****     USBx_INEP(epnum)->DIEPCTL &= ~ USB_OTG_DIEPCTL_USBAEP;
 2082              		.loc 1 686 31
 2083 0074 BB68     		ldr	r3, [r7, #8]
 2084 0076 5A01     		lsls	r2, r3, #5
 2085 0078 FB68     		ldr	r3, [r7, #12]
 2086 007a 1344     		add	r3, r3, r2
 2087 007c 03F51063 		add	r3, r3, #2304
 2088 0080 1B68     		ldr	r3, [r3]
 2089 0082 BA68     		ldr	r2, [r7, #8]
 2090 0084 5101     		lsls	r1, r2, #5
 2091 0086 FA68     		ldr	r2, [r7, #12]
 2092 0088 0A44     		add	r2, r2, r1
 2093 008a 02F51062 		add	r2, r2, #2304
 2094 008e 23F40043 		bic	r3, r3, #32768
 2095 0092 1360     		str	r3, [r2]
 687:Drivers/STM32F4xx_HAL_Driver/Src/stm32f4xx_ll_usb.c ****     USBx_DEVICE->DAINTMSK &= ~(USB_OTG_DAINTMSK_IEPM & (uint32_t)(1UL << (ep->num & EP_ADDR_MSK)));
 2096              		.loc 1 687 27
 2097 0094 FB68     		ldr	r3, [r7, #12]
 2098 0096 03F50063 		add	r3, r3, #2048
 2099 009a DA69     		ldr	r2, [r3, #28]
 2100              		.loc 1 687 77
 2101 009c 3B68     		ldr	r3, [r7]
 2102 009e 1B78     		ldrb	r3, [r3]	@ zero_extendqisi2
 2103              		.loc 1 687 83
 2104 00a0 03F00F03 		and	r3, r3, #15
 2105              		.loc 1 687 56
 2106 00a4 0121     		movs	r1, #1
 2107 00a6 01FA03F3 		lsl	r3, r1, r3
 2108              		.loc 1 687 54
 2109 00aa 9BB2     		uxth	r3, r3
 2110              		.loc 1 687 30
 2111 00ac DB43     		mvns	r3, r3
 2112              		.loc 1 687 27
 2113 00ae F968     		ldr	r1, [r7, #12]
 2114 00b0 01F50061 		add	r1, r1, #2048
 2115 00b4 1340     		ands	r3, r3, r2
 2116 00b6 CB61     		str	r3, [r1, #28]
 2117 00b8 4DE0     		b	.L101
ARM GAS  /var/folders/vq/qt4vp3kd5rxf7v2b6_fdtdt80000gn/T//ccOb9Y7L.s 			page 50


 2118              	.L99:
 688:Drivers/STM32F4xx_HAL_Driver/Src/stm32f4xx_ll_usb.c ****   }
 689:Drivers/STM32F4xx_HAL_Driver/Src/stm32f4xx_ll_usb.c ****   else
 690:Drivers/STM32F4xx_HAL_Driver/Src/stm32f4xx_ll_usb.c ****   {
 691:Drivers/STM32F4xx_HAL_Driver/Src/stm32f4xx_ll_usb.c ****     if ((USBx_OUTEP(epnum)->DOEPCTL & USB_OTG_DOEPCTL_EPENA) == USB_OTG_DOEPCTL_EPENA)
 2119              		.loc 1 691 10
 2120 00ba BB68     		ldr	r3, [r7, #8]
 2121 00bc 5A01     		lsls	r2, r3, #5
 2122 00be FB68     		ldr	r3, [r7, #12]
 2123 00c0 1344     		add	r3, r3, r2
 2124 00c2 03F53063 		add	r3, r3, #2816
 2125              		.loc 1 691 27
 2126 00c6 1B68     		ldr	r3, [r3]
 2127              		.loc 1 691 37
 2128 00c8 03F00043 		and	r3, r3, #-2147483648
 2129              		.loc 1 691 8
 2130 00cc B3F1004F 		cmp	r3, #-2147483648
 2131 00d0 1FD1     		bne	.L102
 692:Drivers/STM32F4xx_HAL_Driver/Src/stm32f4xx_ll_usb.c ****     {
 693:Drivers/STM32F4xx_HAL_Driver/Src/stm32f4xx_ll_usb.c ****       USBx_OUTEP(epnum)->DOEPCTL  |= USB_OTG_DOEPCTL_SNAK;
 2132              		.loc 1 693 35
 2133 00d2 BB68     		ldr	r3, [r7, #8]
 2134 00d4 5A01     		lsls	r2, r3, #5
 2135 00d6 FB68     		ldr	r3, [r7, #12]
 2136 00d8 1344     		add	r3, r3, r2
 2137 00da 03F53063 		add	r3, r3, #2816
 2138 00de 1B68     		ldr	r3, [r3]
 2139 00e0 BA68     		ldr	r2, [r7, #8]
 2140 00e2 5101     		lsls	r1, r2, #5
 2141 00e4 FA68     		ldr	r2, [r7, #12]
 2142 00e6 0A44     		add	r2, r2, r1
 2143 00e8 02F53062 		add	r2, r2, #2816
 2144 00ec 43F00063 		orr	r3, r3, #134217728
 2145 00f0 1360     		str	r3, [r2]
 694:Drivers/STM32F4xx_HAL_Driver/Src/stm32f4xx_ll_usb.c ****       USBx_OUTEP(epnum)->DOEPCTL  |= USB_OTG_DOEPCTL_EPDIS;
 2146              		.loc 1 694 35
 2147 00f2 BB68     		ldr	r3, [r7, #8]
 2148 00f4 5A01     		lsls	r2, r3, #5
 2149 00f6 FB68     		ldr	r3, [r7, #12]
 2150 00f8 1344     		add	r3, r3, r2
 2151 00fa 03F53063 		add	r3, r3, #2816
 2152 00fe 1B68     		ldr	r3, [r3]
 2153 0100 BA68     		ldr	r2, [r7, #8]
 2154 0102 5101     		lsls	r1, r2, #5
 2155 0104 FA68     		ldr	r2, [r7, #12]
 2156 0106 0A44     		add	r2, r2, r1
 2157 0108 02F53062 		add	r2, r2, #2816
 2158 010c 43F08043 		orr	r3, r3, #1073741824
 2159 0110 1360     		str	r3, [r2]
 2160              	.L102:
 695:Drivers/STM32F4xx_HAL_Driver/Src/stm32f4xx_ll_usb.c ****     }
 696:Drivers/STM32F4xx_HAL_Driver/Src/stm32f4xx_ll_usb.c **** 
 697:Drivers/STM32F4xx_HAL_Driver/Src/stm32f4xx_ll_usb.c ****     USBx_OUTEP(epnum)->DOEPCTL &= ~USB_OTG_DOEPCTL_USBAEP;
 2161              		.loc 1 697 32
 2162 0112 BB68     		ldr	r3, [r7, #8]
 2163 0114 5A01     		lsls	r2, r3, #5
 2164 0116 FB68     		ldr	r3, [r7, #12]
ARM GAS  /var/folders/vq/qt4vp3kd5rxf7v2b6_fdtdt80000gn/T//ccOb9Y7L.s 			page 51


 2165 0118 1344     		add	r3, r3, r2
 2166 011a 03F53063 		add	r3, r3, #2816
 2167 011e 1B68     		ldr	r3, [r3]
 2168 0120 BA68     		ldr	r2, [r7, #8]
 2169 0122 5101     		lsls	r1, r2, #5
 2170 0124 FA68     		ldr	r2, [r7, #12]
 2171 0126 0A44     		add	r2, r2, r1
 2172 0128 02F53062 		add	r2, r2, #2816
 2173 012c 23F40043 		bic	r3, r3, #32768
 2174 0130 1360     		str	r3, [r2]
 698:Drivers/STM32F4xx_HAL_Driver/Src/stm32f4xx_ll_usb.c ****     USBx_DEVICE->DAINTMSK &= ~(USB_OTG_DAINTMSK_OEPM & ((uint32_t)(1UL << (ep->num & EP_ADDR_MSK)) 
 2175              		.loc 1 698 27
 2176 0132 FB68     		ldr	r3, [r7, #12]
 2177 0134 03F50063 		add	r3, r3, #2048
 2178 0138 DA69     		ldr	r2, [r3, #28]
 2179              		.loc 1 698 78
 2180 013a 3B68     		ldr	r3, [r7]
 2181 013c 1B78     		ldrb	r3, [r3]	@ zero_extendqisi2
 2182              		.loc 1 698 84
 2183 013e 03F00F03 		and	r3, r3, #15
 2184              		.loc 1 698 57
 2185 0142 0121     		movs	r1, #1
 2186 0144 01FA03F3 		lsl	r3, r1, r3
 2187              		.loc 1 698 54
 2188 0148 1B04     		lsls	r3, r3, #16
 2189              		.loc 1 698 30
 2190 014a DB43     		mvns	r3, r3
 2191              		.loc 1 698 27
 2192 014c F968     		ldr	r1, [r7, #12]
 2193 014e 01F50061 		add	r1, r1, #2048
 2194 0152 1340     		ands	r3, r3, r2
 2195 0154 CB61     		str	r3, [r1, #28]
 2196              	.L101:
 699:Drivers/STM32F4xx_HAL_Driver/Src/stm32f4xx_ll_usb.c ****   }
 700:Drivers/STM32F4xx_HAL_Driver/Src/stm32f4xx_ll_usb.c **** 
 701:Drivers/STM32F4xx_HAL_Driver/Src/stm32f4xx_ll_usb.c ****   return HAL_OK;
 2197              		.loc 1 701 10
 2198 0156 0023     		movs	r3, #0
 702:Drivers/STM32F4xx_HAL_Driver/Src/stm32f4xx_ll_usb.c **** }
 2199              		.loc 1 702 1
 2200 0158 1846     		mov	r0, r3
 2201 015a 1437     		adds	r7, r7, #20
 2202              	.LCFI84:
 2203              		.cfi_def_cfa_offset 4
 2204 015c BD46     		mov	sp, r7
 2205              	.LCFI85:
 2206              		.cfi_def_cfa_register 13
 2207              		@ sp needed
 2208 015e 5DF8047B 		ldr	r7, [sp], #4
 2209              	.LCFI86:
 2210              		.cfi_restore 7
 2211              		.cfi_def_cfa_offset 0
 2212 0162 7047     		bx	lr
 2213              		.cfi_endproc
 2214              	.LFE143:
 2216              		.section	.text.USB_EPStartXfer,"ax",%progbits
 2217              		.align	1
ARM GAS  /var/folders/vq/qt4vp3kd5rxf7v2b6_fdtdt80000gn/T//ccOb9Y7L.s 			page 52


 2218              		.global	USB_EPStartXfer
 2219              		.syntax unified
 2220              		.thumb
 2221              		.thumb_func
 2222              		.fpu fpv4-sp-d16
 2224              	USB_EPStartXfer:
 2225              	.LFB144:
 703:Drivers/STM32F4xx_HAL_Driver/Src/stm32f4xx_ll_usb.c **** 
 704:Drivers/STM32F4xx_HAL_Driver/Src/stm32f4xx_ll_usb.c **** /**
 705:Drivers/STM32F4xx_HAL_Driver/Src/stm32f4xx_ll_usb.c ****   * @brief  USB_EPStartXfer : setup and starts a transfer over an EP
 706:Drivers/STM32F4xx_HAL_Driver/Src/stm32f4xx_ll_usb.c ****   * @param  USBx  Selected device
 707:Drivers/STM32F4xx_HAL_Driver/Src/stm32f4xx_ll_usb.c ****   * @param  ep pointer to endpoint structure
 708:Drivers/STM32F4xx_HAL_Driver/Src/stm32f4xx_ll_usb.c ****   * @param  dma USB dma enabled or disabled
 709:Drivers/STM32F4xx_HAL_Driver/Src/stm32f4xx_ll_usb.c ****   *          This parameter can be one of these values:
 710:Drivers/STM32F4xx_HAL_Driver/Src/stm32f4xx_ll_usb.c ****   *           0 : DMA feature not used
 711:Drivers/STM32F4xx_HAL_Driver/Src/stm32f4xx_ll_usb.c ****   *           1 : DMA feature used
 712:Drivers/STM32F4xx_HAL_Driver/Src/stm32f4xx_ll_usb.c ****   * @retval HAL status
 713:Drivers/STM32F4xx_HAL_Driver/Src/stm32f4xx_ll_usb.c ****   */
 714:Drivers/STM32F4xx_HAL_Driver/Src/stm32f4xx_ll_usb.c **** HAL_StatusTypeDef USB_EPStartXfer(USB_OTG_GlobalTypeDef *USBx, USB_OTG_EPTypeDef *ep, uint8_t dma)
 715:Drivers/STM32F4xx_HAL_Driver/Src/stm32f4xx_ll_usb.c **** {
 2226              		.loc 1 715 1
 2227              		.cfi_startproc
 2228              		@ args = 0, pretend = 0, frame = 32
 2229              		@ frame_needed = 1, uses_anonymous_args = 0
 2230 0000 80B5     		push	{r7, lr}
 2231              	.LCFI87:
 2232              		.cfi_def_cfa_offset 8
 2233              		.cfi_offset 7, -8
 2234              		.cfi_offset 14, -4
 2235 0002 8AB0     		sub	sp, sp, #40
 2236              	.LCFI88:
 2237              		.cfi_def_cfa_offset 48
 2238 0004 02AF     		add	r7, sp, #8
 2239              	.LCFI89:
 2240              		.cfi_def_cfa 7, 40
 2241 0006 F860     		str	r0, [r7, #12]
 2242 0008 B960     		str	r1, [r7, #8]
 2243 000a 1346     		mov	r3, r2
 2244 000c FB71     		strb	r3, [r7, #7]
 716:Drivers/STM32F4xx_HAL_Driver/Src/stm32f4xx_ll_usb.c ****   uint32_t USBx_BASE = (uint32_t)USBx;
 2245              		.loc 1 716 12
 2246 000e FB68     		ldr	r3, [r7, #12]
 2247 0010 FB61     		str	r3, [r7, #28]
 717:Drivers/STM32F4xx_HAL_Driver/Src/stm32f4xx_ll_usb.c ****   uint32_t epnum = (uint32_t)ep->num;
 2248              		.loc 1 717 32
 2249 0012 BB68     		ldr	r3, [r7, #8]
 2250 0014 1B78     		ldrb	r3, [r3]	@ zero_extendqisi2
 2251              		.loc 1 717 12
 2252 0016 BB61     		str	r3, [r7, #24]
 718:Drivers/STM32F4xx_HAL_Driver/Src/stm32f4xx_ll_usb.c ****   uint16_t pktcnt;
 719:Drivers/STM32F4xx_HAL_Driver/Src/stm32f4xx_ll_usb.c **** 
 720:Drivers/STM32F4xx_HAL_Driver/Src/stm32f4xx_ll_usb.c ****   /* IN endpoint */
 721:Drivers/STM32F4xx_HAL_Driver/Src/stm32f4xx_ll_usb.c ****   if (ep->is_in == 1U)
 2253              		.loc 1 721 9
 2254 0018 BB68     		ldr	r3, [r7, #8]
 2255 001a 5B78     		ldrb	r3, [r3, #1]	@ zero_extendqisi2
 2256              		.loc 1 721 6
ARM GAS  /var/folders/vq/qt4vp3kd5rxf7v2b6_fdtdt80000gn/T//ccOb9Y7L.s 			page 53


 2257 001c 012B     		cmp	r3, #1
 2258 001e 40F05C81 		bne	.L105
 722:Drivers/STM32F4xx_HAL_Driver/Src/stm32f4xx_ll_usb.c ****   {
 723:Drivers/STM32F4xx_HAL_Driver/Src/stm32f4xx_ll_usb.c ****     /* Zero Length Packet? */
 724:Drivers/STM32F4xx_HAL_Driver/Src/stm32f4xx_ll_usb.c ****     if (ep->xfer_len == 0U)
 2259              		.loc 1 724 11
 2260 0022 BB68     		ldr	r3, [r7, #8]
 2261 0024 5B69     		ldr	r3, [r3, #20]
 2262              		.loc 1 724 8
 2263 0026 002B     		cmp	r3, #0
 2264 0028 32D1     		bne	.L106
 725:Drivers/STM32F4xx_HAL_Driver/Src/stm32f4xx_ll_usb.c ****     {
 726:Drivers/STM32F4xx_HAL_Driver/Src/stm32f4xx_ll_usb.c ****       USBx_INEP(epnum)->DIEPTSIZ &= ~(USB_OTG_DIEPTSIZ_PKTCNT);
 2265              		.loc 1 726 34
 2266 002a BB69     		ldr	r3, [r7, #24]
 2267 002c 5A01     		lsls	r2, r3, #5
 2268 002e FB69     		ldr	r3, [r7, #28]
 2269 0030 1344     		add	r3, r3, r2
 2270 0032 03F51063 		add	r3, r3, #2304
 2271 0036 1B69     		ldr	r3, [r3, #16]
 2272 0038 BA69     		ldr	r2, [r7, #24]
 2273 003a 5101     		lsls	r1, r2, #5
 2274 003c FA69     		ldr	r2, [r7, #28]
 2275 003e 0A44     		add	r2, r2, r1
 2276 0040 02F51062 		add	r2, r2, #2304
 2277 0044 23F0FF53 		bic	r3, r3, #534773760
 2278 0048 23F4C013 		bic	r3, r3, #1572864
 2279 004c 1361     		str	r3, [r2, #16]
 727:Drivers/STM32F4xx_HAL_Driver/Src/stm32f4xx_ll_usb.c ****       USBx_INEP(epnum)->DIEPTSIZ |= (USB_OTG_DIEPTSIZ_PKTCNT & (1U << 19));
 2280              		.loc 1 727 34
 2281 004e BB69     		ldr	r3, [r7, #24]
 2282 0050 5A01     		lsls	r2, r3, #5
 2283 0052 FB69     		ldr	r3, [r7, #28]
 2284 0054 1344     		add	r3, r3, r2
 2285 0056 03F51063 		add	r3, r3, #2304
 2286 005a 1B69     		ldr	r3, [r3, #16]
 2287 005c BA69     		ldr	r2, [r7, #24]
 2288 005e 5101     		lsls	r1, r2, #5
 2289 0060 FA69     		ldr	r2, [r7, #28]
 2290 0062 0A44     		add	r2, r2, r1
 2291 0064 02F51062 		add	r2, r2, #2304
 2292 0068 43F40023 		orr	r3, r3, #524288
 2293 006c 1361     		str	r3, [r2, #16]
 728:Drivers/STM32F4xx_HAL_Driver/Src/stm32f4xx_ll_usb.c ****       USBx_INEP(epnum)->DIEPTSIZ &= ~(USB_OTG_DIEPTSIZ_XFRSIZ);
 2294              		.loc 1 728 34
 2295 006e BB69     		ldr	r3, [r7, #24]
 2296 0070 5A01     		lsls	r2, r3, #5
 2297 0072 FB69     		ldr	r3, [r7, #28]
 2298 0074 1344     		add	r3, r3, r2
 2299 0076 03F51063 		add	r3, r3, #2304
 2300 007a 1B69     		ldr	r3, [r3, #16]
 2301 007c BA69     		ldr	r2, [r7, #24]
 2302 007e 5101     		lsls	r1, r2, #5
 2303 0080 FA69     		ldr	r2, [r7, #28]
 2304 0082 0A44     		add	r2, r2, r1
 2305 0084 02F51062 		add	r2, r2, #2304
 2306 0088 DB0C     		lsrs	r3, r3, #19
ARM GAS  /var/folders/vq/qt4vp3kd5rxf7v2b6_fdtdt80000gn/T//ccOb9Y7L.s 			page 54


 2307 008a DB04     		lsls	r3, r3, #19
 2308 008c 1361     		str	r3, [r2, #16]
 2309 008e 74E0     		b	.L107
 2310              	.L106:
 729:Drivers/STM32F4xx_HAL_Driver/Src/stm32f4xx_ll_usb.c ****     }
 730:Drivers/STM32F4xx_HAL_Driver/Src/stm32f4xx_ll_usb.c ****     else
 731:Drivers/STM32F4xx_HAL_Driver/Src/stm32f4xx_ll_usb.c ****     {
 732:Drivers/STM32F4xx_HAL_Driver/Src/stm32f4xx_ll_usb.c ****       /* Program the transfer size and packet count
 733:Drivers/STM32F4xx_HAL_Driver/Src/stm32f4xx_ll_usb.c ****       * as follows: xfersize = N * maxpacket +
 734:Drivers/STM32F4xx_HAL_Driver/Src/stm32f4xx_ll_usb.c ****       * short_packet pktcnt = N + (short_packet
 735:Drivers/STM32F4xx_HAL_Driver/Src/stm32f4xx_ll_usb.c ****       * exist ? 1 : 0)
 736:Drivers/STM32F4xx_HAL_Driver/Src/stm32f4xx_ll_usb.c ****       */
 737:Drivers/STM32F4xx_HAL_Driver/Src/stm32f4xx_ll_usb.c ****       USBx_INEP(epnum)->DIEPTSIZ &= ~(USB_OTG_DIEPTSIZ_XFRSIZ);
 2311              		.loc 1 737 34
 2312 0090 BB69     		ldr	r3, [r7, #24]
 2313 0092 5A01     		lsls	r2, r3, #5
 2314 0094 FB69     		ldr	r3, [r7, #28]
 2315 0096 1344     		add	r3, r3, r2
 2316 0098 03F51063 		add	r3, r3, #2304
 2317 009c 1B69     		ldr	r3, [r3, #16]
 2318 009e BA69     		ldr	r2, [r7, #24]
 2319 00a0 5101     		lsls	r1, r2, #5
 2320 00a2 FA69     		ldr	r2, [r7, #28]
 2321 00a4 0A44     		add	r2, r2, r1
 2322 00a6 02F51062 		add	r2, r2, #2304
 2323 00aa DB0C     		lsrs	r3, r3, #19
 2324 00ac DB04     		lsls	r3, r3, #19
 2325 00ae 1361     		str	r3, [r2, #16]
 738:Drivers/STM32F4xx_HAL_Driver/Src/stm32f4xx_ll_usb.c ****       USBx_INEP(epnum)->DIEPTSIZ &= ~(USB_OTG_DIEPTSIZ_PKTCNT);
 2326              		.loc 1 738 34
 2327 00b0 BB69     		ldr	r3, [r7, #24]
 2328 00b2 5A01     		lsls	r2, r3, #5
 2329 00b4 FB69     		ldr	r3, [r7, #28]
 2330 00b6 1344     		add	r3, r3, r2
 2331 00b8 03F51063 		add	r3, r3, #2304
 2332 00bc 1B69     		ldr	r3, [r3, #16]
 2333 00be BA69     		ldr	r2, [r7, #24]
 2334 00c0 5101     		lsls	r1, r2, #5
 2335 00c2 FA69     		ldr	r2, [r7, #28]
 2336 00c4 0A44     		add	r2, r2, r1
 2337 00c6 02F51062 		add	r2, r2, #2304
 2338 00ca 23F0FF53 		bic	r3, r3, #534773760
 2339 00ce 23F4C013 		bic	r3, r3, #1572864
 2340 00d2 1361     		str	r3, [r2, #16]
 739:Drivers/STM32F4xx_HAL_Driver/Src/stm32f4xx_ll_usb.c ****       USBx_INEP(epnum)->DIEPTSIZ |= (USB_OTG_DIEPTSIZ_PKTCNT & (((ep->xfer_len + ep->maxpacket - 1U
 2341              		.loc 1 739 34
 2342 00d4 BB69     		ldr	r3, [r7, #24]
 2343 00d6 5A01     		lsls	r2, r3, #5
 2344 00d8 FB69     		ldr	r3, [r7, #28]
 2345 00da 1344     		add	r3, r3, r2
 2346 00dc 03F51063 		add	r3, r3, #2304
 2347 00e0 1A69     		ldr	r2, [r3, #16]
 2348              		.loc 1 739 69
 2349 00e2 BB68     		ldr	r3, [r7, #8]
 2350 00e4 5969     		ldr	r1, [r3, #20]
 2351              		.loc 1 739 84
 2352 00e6 BB68     		ldr	r3, [r7, #8]
ARM GAS  /var/folders/vq/qt4vp3kd5rxf7v2b6_fdtdt80000gn/T//ccOb9Y7L.s 			page 55


 2353 00e8 9B68     		ldr	r3, [r3, #8]
 2354              		.loc 1 739 80
 2355 00ea 0B44     		add	r3, r3, r1
 2356              		.loc 1 739 96
 2357 00ec 591E     		subs	r1, r3, #1
 2358              		.loc 1 739 106
 2359 00ee BB68     		ldr	r3, [r7, #8]
 2360 00f0 9B68     		ldr	r3, [r3, #8]
 2361              		.loc 1 739 102
 2362 00f2 B1FBF3F3 		udiv	r3, r1, r3
 2363              		.loc 1 739 119
 2364 00f6 D904     		lsls	r1, r3, #19
 2365              		.loc 1 739 62
 2366 00f8 9D4B     		ldr	r3, .L122
 2367 00fa 0B40     		ands	r3, r3, r1
 2368              		.loc 1 739 34
 2369 00fc B969     		ldr	r1, [r7, #24]
 2370 00fe 4801     		lsls	r0, r1, #5
 2371 0100 F969     		ldr	r1, [r7, #28]
 2372 0102 0144     		add	r1, r1, r0
 2373 0104 01F51061 		add	r1, r1, #2304
 2374 0108 1343     		orrs	r3, r3, r2
 2375 010a 0B61     		str	r3, [r1, #16]
 740:Drivers/STM32F4xx_HAL_Driver/Src/stm32f4xx_ll_usb.c ****       USBx_INEP(epnum)->DIEPTSIZ |= (USB_OTG_DIEPTSIZ_XFRSIZ & ep->xfer_len);
 2376              		.loc 1 740 34
 2377 010c BB69     		ldr	r3, [r7, #24]
 2378 010e 5A01     		lsls	r2, r3, #5
 2379 0110 FB69     		ldr	r3, [r7, #28]
 2380 0112 1344     		add	r3, r3, r2
 2381 0114 03F51063 		add	r3, r3, #2304
 2382 0118 1A69     		ldr	r2, [r3, #16]
 2383              		.loc 1 740 66
 2384 011a BB68     		ldr	r3, [r7, #8]
 2385 011c 5B69     		ldr	r3, [r3, #20]
 2386              		.loc 1 740 62
 2387 011e C3F31203 		ubfx	r3, r3, #0, #19
 2388              		.loc 1 740 34
 2389 0122 B969     		ldr	r1, [r7, #24]
 2390 0124 4801     		lsls	r0, r1, #5
 2391 0126 F969     		ldr	r1, [r7, #28]
 2392 0128 0144     		add	r1, r1, r0
 2393 012a 01F51061 		add	r1, r1, #2304
 2394 012e 1343     		orrs	r3, r3, r2
 2395 0130 0B61     		str	r3, [r1, #16]
 741:Drivers/STM32F4xx_HAL_Driver/Src/stm32f4xx_ll_usb.c **** 
 742:Drivers/STM32F4xx_HAL_Driver/Src/stm32f4xx_ll_usb.c ****       if (ep->type == EP_TYPE_ISOC)
 2396              		.loc 1 742 13
 2397 0132 BB68     		ldr	r3, [r7, #8]
 2398 0134 DB78     		ldrb	r3, [r3, #3]	@ zero_extendqisi2
 2399              		.loc 1 742 10
 2400 0136 012B     		cmp	r3, #1
 2401 0138 1FD1     		bne	.L107
 743:Drivers/STM32F4xx_HAL_Driver/Src/stm32f4xx_ll_usb.c ****       {
 744:Drivers/STM32F4xx_HAL_Driver/Src/stm32f4xx_ll_usb.c ****         USBx_INEP(epnum)->DIEPTSIZ &= ~(USB_OTG_DIEPTSIZ_MULCNT);
 2402              		.loc 1 744 36
 2403 013a BB69     		ldr	r3, [r7, #24]
 2404 013c 5A01     		lsls	r2, r3, #5
ARM GAS  /var/folders/vq/qt4vp3kd5rxf7v2b6_fdtdt80000gn/T//ccOb9Y7L.s 			page 56


 2405 013e FB69     		ldr	r3, [r7, #28]
 2406 0140 1344     		add	r3, r3, r2
 2407 0142 03F51063 		add	r3, r3, #2304
 2408 0146 1B69     		ldr	r3, [r3, #16]
 2409 0148 BA69     		ldr	r2, [r7, #24]
 2410 014a 5101     		lsls	r1, r2, #5
 2411 014c FA69     		ldr	r2, [r7, #28]
 2412 014e 0A44     		add	r2, r2, r1
 2413 0150 02F51062 		add	r2, r2, #2304
 2414 0154 23F0C043 		bic	r3, r3, #1610612736
 2415 0158 1361     		str	r3, [r2, #16]
 745:Drivers/STM32F4xx_HAL_Driver/Src/stm32f4xx_ll_usb.c ****         USBx_INEP(epnum)->DIEPTSIZ |= (USB_OTG_DIEPTSIZ_MULCNT & (1U << 29));
 2416              		.loc 1 745 36
 2417 015a BB69     		ldr	r3, [r7, #24]
 2418 015c 5A01     		lsls	r2, r3, #5
 2419 015e FB69     		ldr	r3, [r7, #28]
 2420 0160 1344     		add	r3, r3, r2
 2421 0162 03F51063 		add	r3, r3, #2304
 2422 0166 1B69     		ldr	r3, [r3, #16]
 2423 0168 BA69     		ldr	r2, [r7, #24]
 2424 016a 5101     		lsls	r1, r2, #5
 2425 016c FA69     		ldr	r2, [r7, #28]
 2426 016e 0A44     		add	r2, r2, r1
 2427 0170 02F51062 		add	r2, r2, #2304
 2428 0174 43F00053 		orr	r3, r3, #536870912
 2429 0178 1361     		str	r3, [r2, #16]
 2430              	.L107:
 746:Drivers/STM32F4xx_HAL_Driver/Src/stm32f4xx_ll_usb.c ****       }
 747:Drivers/STM32F4xx_HAL_Driver/Src/stm32f4xx_ll_usb.c ****     }
 748:Drivers/STM32F4xx_HAL_Driver/Src/stm32f4xx_ll_usb.c **** 
 749:Drivers/STM32F4xx_HAL_Driver/Src/stm32f4xx_ll_usb.c ****     if (dma == 1U)
 2431              		.loc 1 749 8
 2432 017a FB79     		ldrb	r3, [r7, #7]	@ zero_extendqisi2
 2433 017c 012B     		cmp	r3, #1
 2434 017e 4BD1     		bne	.L108
 750:Drivers/STM32F4xx_HAL_Driver/Src/stm32f4xx_ll_usb.c ****     {
 751:Drivers/STM32F4xx_HAL_Driver/Src/stm32f4xx_ll_usb.c ****       if ((uint32_t)ep->dma_addr != 0U)
 2435              		.loc 1 751 23
 2436 0180 BB68     		ldr	r3, [r7, #8]
 2437 0182 1B69     		ldr	r3, [r3, #16]
 2438              		.loc 1 751 10
 2439 0184 002B     		cmp	r3, #0
 2440 0186 09D0     		beq	.L109
 752:Drivers/STM32F4xx_HAL_Driver/Src/stm32f4xx_ll_usb.c ****       {
 753:Drivers/STM32F4xx_HAL_Driver/Src/stm32f4xx_ll_usb.c ****         USBx_INEP(epnum)->DIEPDMA = (uint32_t)(ep->dma_addr);
 2441              		.loc 1 753 9
 2442 0188 BB69     		ldr	r3, [r7, #24]
 2443 018a 5A01     		lsls	r2, r3, #5
 2444 018c FB69     		ldr	r3, [r7, #28]
 2445 018e 1344     		add	r3, r3, r2
 2446 0190 03F51063 		add	r3, r3, #2304
 2447 0194 1A46     		mov	r2, r3
 2448              		.loc 1 753 50
 2449 0196 BB68     		ldr	r3, [r7, #8]
 2450 0198 1B69     		ldr	r3, [r3, #16]
 2451              		.loc 1 753 35
 2452 019a 5361     		str	r3, [r2, #20]
ARM GAS  /var/folders/vq/qt4vp3kd5rxf7v2b6_fdtdt80000gn/T//ccOb9Y7L.s 			page 57


 2453              	.L109:
 754:Drivers/STM32F4xx_HAL_Driver/Src/stm32f4xx_ll_usb.c ****       }
 755:Drivers/STM32F4xx_HAL_Driver/Src/stm32f4xx_ll_usb.c **** 
 756:Drivers/STM32F4xx_HAL_Driver/Src/stm32f4xx_ll_usb.c ****       if (ep->type == EP_TYPE_ISOC)
 2454              		.loc 1 756 13
 2455 019c BB68     		ldr	r3, [r7, #8]
 2456 019e DB78     		ldrb	r3, [r3, #3]	@ zero_extendqisi2
 2457              		.loc 1 756 10
 2458 01a0 012B     		cmp	r3, #1
 2459 01a2 28D1     		bne	.L110
 757:Drivers/STM32F4xx_HAL_Driver/Src/stm32f4xx_ll_usb.c ****       {
 758:Drivers/STM32F4xx_HAL_Driver/Src/stm32f4xx_ll_usb.c ****         if ((USBx_DEVICE->DSTS & (1U << 8)) == 0U)
 2460              		.loc 1 758 14
 2461 01a4 FB69     		ldr	r3, [r7, #28]
 2462 01a6 03F50063 		add	r3, r3, #2048
 2463              		.loc 1 758 25
 2464 01aa 9B68     		ldr	r3, [r3, #8]
 2465              		.loc 1 758 32
 2466 01ac 03F48073 		and	r3, r3, #256
 2467              		.loc 1 758 12
 2468 01b0 002B     		cmp	r3, #0
 2469 01b2 10D1     		bne	.L111
 759:Drivers/STM32F4xx_HAL_Driver/Src/stm32f4xx_ll_usb.c ****         {
 760:Drivers/STM32F4xx_HAL_Driver/Src/stm32f4xx_ll_usb.c ****           USBx_INEP(epnum)->DIEPCTL |= USB_OTG_DIEPCTL_SODDFRM;
 2470              		.loc 1 760 37
 2471 01b4 BB69     		ldr	r3, [r7, #24]
 2472 01b6 5A01     		lsls	r2, r3, #5
 2473 01b8 FB69     		ldr	r3, [r7, #28]
 2474 01ba 1344     		add	r3, r3, r2
 2475 01bc 03F51063 		add	r3, r3, #2304
 2476 01c0 1B68     		ldr	r3, [r3]
 2477 01c2 BA69     		ldr	r2, [r7, #24]
 2478 01c4 5101     		lsls	r1, r2, #5
 2479 01c6 FA69     		ldr	r2, [r7, #28]
 2480 01c8 0A44     		add	r2, r2, r1
 2481 01ca 02F51062 		add	r2, r2, #2304
 2482 01ce 43F00053 		orr	r3, r3, #536870912
 2483 01d2 1360     		str	r3, [r2]
 2484 01d4 0FE0     		b	.L110
 2485              	.L111:
 761:Drivers/STM32F4xx_HAL_Driver/Src/stm32f4xx_ll_usb.c ****         }
 762:Drivers/STM32F4xx_HAL_Driver/Src/stm32f4xx_ll_usb.c ****         else
 763:Drivers/STM32F4xx_HAL_Driver/Src/stm32f4xx_ll_usb.c ****         {
 764:Drivers/STM32F4xx_HAL_Driver/Src/stm32f4xx_ll_usb.c ****           USBx_INEP(epnum)->DIEPCTL |= USB_OTG_DIEPCTL_SD0PID_SEVNFRM;
 2486              		.loc 1 764 37
 2487 01d6 BB69     		ldr	r3, [r7, #24]
 2488 01d8 5A01     		lsls	r2, r3, #5
 2489 01da FB69     		ldr	r3, [r7, #28]
 2490 01dc 1344     		add	r3, r3, r2
 2491 01de 03F51063 		add	r3, r3, #2304
 2492 01e2 1B68     		ldr	r3, [r3]
 2493 01e4 BA69     		ldr	r2, [r7, #24]
 2494 01e6 5101     		lsls	r1, r2, #5
 2495 01e8 FA69     		ldr	r2, [r7, #28]
 2496 01ea 0A44     		add	r2, r2, r1
 2497 01ec 02F51062 		add	r2, r2, #2304
 2498 01f0 43F08053 		orr	r3, r3, #268435456
ARM GAS  /var/folders/vq/qt4vp3kd5rxf7v2b6_fdtdt80000gn/T//ccOb9Y7L.s 			page 58


 2499 01f4 1360     		str	r3, [r2]
 2500              	.L110:
 765:Drivers/STM32F4xx_HAL_Driver/Src/stm32f4xx_ll_usb.c ****         }
 766:Drivers/STM32F4xx_HAL_Driver/Src/stm32f4xx_ll_usb.c ****       }
 767:Drivers/STM32F4xx_HAL_Driver/Src/stm32f4xx_ll_usb.c **** 
 768:Drivers/STM32F4xx_HAL_Driver/Src/stm32f4xx_ll_usb.c ****       /* EP enable, IN data in FIFO */
 769:Drivers/STM32F4xx_HAL_Driver/Src/stm32f4xx_ll_usb.c ****       USBx_INEP(epnum)->DIEPCTL |= (USB_OTG_DIEPCTL_CNAK | USB_OTG_DIEPCTL_EPENA);
 2501              		.loc 1 769 33
 2502 01f6 BB69     		ldr	r3, [r7, #24]
 2503 01f8 5A01     		lsls	r2, r3, #5
 2504 01fa FB69     		ldr	r3, [r7, #28]
 2505 01fc 1344     		add	r3, r3, r2
 2506 01fe 03F51063 		add	r3, r3, #2304
 2507 0202 1B68     		ldr	r3, [r3]
 2508 0204 BA69     		ldr	r2, [r7, #24]
 2509 0206 5101     		lsls	r1, r2, #5
 2510 0208 FA69     		ldr	r2, [r7, #28]
 2511 020a 0A44     		add	r2, r2, r1
 2512 020c 02F51062 		add	r2, r2, #2304
 2513 0210 43F00443 		orr	r3, r3, #-2080374784
 2514 0214 1360     		str	r3, [r2]
 2515 0216 2FE1     		b	.L112
 2516              	.L108:
 770:Drivers/STM32F4xx_HAL_Driver/Src/stm32f4xx_ll_usb.c ****     }
 771:Drivers/STM32F4xx_HAL_Driver/Src/stm32f4xx_ll_usb.c ****     else
 772:Drivers/STM32F4xx_HAL_Driver/Src/stm32f4xx_ll_usb.c ****     {
 773:Drivers/STM32F4xx_HAL_Driver/Src/stm32f4xx_ll_usb.c ****       /* EP enable, IN data in FIFO */
 774:Drivers/STM32F4xx_HAL_Driver/Src/stm32f4xx_ll_usb.c ****       USBx_INEP(epnum)->DIEPCTL |= (USB_OTG_DIEPCTL_CNAK | USB_OTG_DIEPCTL_EPENA);
 2517              		.loc 1 774 33
 2518 0218 BB69     		ldr	r3, [r7, #24]
 2519 021a 5A01     		lsls	r2, r3, #5
 2520 021c FB69     		ldr	r3, [r7, #28]
 2521 021e 1344     		add	r3, r3, r2
 2522 0220 03F51063 		add	r3, r3, #2304
 2523 0224 1B68     		ldr	r3, [r3]
 2524 0226 BA69     		ldr	r2, [r7, #24]
 2525 0228 5101     		lsls	r1, r2, #5
 2526 022a FA69     		ldr	r2, [r7, #28]
 2527 022c 0A44     		add	r2, r2, r1
 2528 022e 02F51062 		add	r2, r2, #2304
 2529 0232 43F00443 		orr	r3, r3, #-2080374784
 2530 0236 1360     		str	r3, [r2]
 775:Drivers/STM32F4xx_HAL_Driver/Src/stm32f4xx_ll_usb.c **** 
 776:Drivers/STM32F4xx_HAL_Driver/Src/stm32f4xx_ll_usb.c ****       if (ep->type != EP_TYPE_ISOC)
 2531              		.loc 1 776 13
 2532 0238 BB68     		ldr	r3, [r7, #8]
 2533 023a DB78     		ldrb	r3, [r3, #3]	@ zero_extendqisi2
 2534              		.loc 1 776 10
 2535 023c 012B     		cmp	r3, #1
 2536 023e 15D0     		beq	.L113
 777:Drivers/STM32F4xx_HAL_Driver/Src/stm32f4xx_ll_usb.c ****       {
 778:Drivers/STM32F4xx_HAL_Driver/Src/stm32f4xx_ll_usb.c ****         /* Enable the Tx FIFO Empty Interrupt for this EP */
 779:Drivers/STM32F4xx_HAL_Driver/Src/stm32f4xx_ll_usb.c ****         if (ep->xfer_len > 0U)
 2537              		.loc 1 779 15
 2538 0240 BB68     		ldr	r3, [r7, #8]
 2539 0242 5B69     		ldr	r3, [r3, #20]
 2540              		.loc 1 779 12
ARM GAS  /var/folders/vq/qt4vp3kd5rxf7v2b6_fdtdt80000gn/T//ccOb9Y7L.s 			page 59


 2541 0244 002B     		cmp	r3, #0
 2542 0246 00F01781 		beq	.L112
 780:Drivers/STM32F4xx_HAL_Driver/Src/stm32f4xx_ll_usb.c ****         {
 781:Drivers/STM32F4xx_HAL_Driver/Src/stm32f4xx_ll_usb.c ****           USBx_DEVICE->DIEPEMPMSK |= 1UL << (ep->num & EP_ADDR_MSK);
 2543              		.loc 1 781 35
 2544 024a FB69     		ldr	r3, [r7, #28]
 2545 024c 03F50063 		add	r3, r3, #2048
 2546 0250 5A6B     		ldr	r2, [r3, #52]
 2547              		.loc 1 781 48
 2548 0252 BB68     		ldr	r3, [r7, #8]
 2549 0254 1B78     		ldrb	r3, [r3]	@ zero_extendqisi2
 2550              		.loc 1 781 54
 2551 0256 03F00F03 		and	r3, r3, #15
 2552              		.loc 1 781 42
 2553 025a 0121     		movs	r1, #1
 2554 025c 01FA03F3 		lsl	r3, r1, r3
 2555              		.loc 1 781 35
 2556 0260 F969     		ldr	r1, [r7, #28]
 2557 0262 01F50061 		add	r1, r1, #2048
 2558 0266 1343     		orrs	r3, r3, r2
 2559 0268 4B63     		str	r3, [r1, #52]
 2560 026a 05E1     		b	.L112
 2561              	.L113:
 782:Drivers/STM32F4xx_HAL_Driver/Src/stm32f4xx_ll_usb.c ****         }
 783:Drivers/STM32F4xx_HAL_Driver/Src/stm32f4xx_ll_usb.c ****       }
 784:Drivers/STM32F4xx_HAL_Driver/Src/stm32f4xx_ll_usb.c ****       else
 785:Drivers/STM32F4xx_HAL_Driver/Src/stm32f4xx_ll_usb.c ****       {
 786:Drivers/STM32F4xx_HAL_Driver/Src/stm32f4xx_ll_usb.c ****         if ((USBx_DEVICE->DSTS & (1U << 8)) == 0U)
 2562              		.loc 1 786 14
 2563 026c FB69     		ldr	r3, [r7, #28]
 2564 026e 03F50063 		add	r3, r3, #2048
 2565              		.loc 1 786 25
 2566 0272 9B68     		ldr	r3, [r3, #8]
 2567              		.loc 1 786 32
 2568 0274 03F48073 		and	r3, r3, #256
 2569              		.loc 1 786 12
 2570 0278 002B     		cmp	r3, #0
 2571 027a 10D1     		bne	.L114
 787:Drivers/STM32F4xx_HAL_Driver/Src/stm32f4xx_ll_usb.c ****         {
 788:Drivers/STM32F4xx_HAL_Driver/Src/stm32f4xx_ll_usb.c ****           USBx_INEP(epnum)->DIEPCTL |= USB_OTG_DIEPCTL_SODDFRM;
 2572              		.loc 1 788 37
 2573 027c BB69     		ldr	r3, [r7, #24]
 2574 027e 5A01     		lsls	r2, r3, #5
 2575 0280 FB69     		ldr	r3, [r7, #28]
 2576 0282 1344     		add	r3, r3, r2
 2577 0284 03F51063 		add	r3, r3, #2304
 2578 0288 1B68     		ldr	r3, [r3]
 2579 028a BA69     		ldr	r2, [r7, #24]
 2580 028c 5101     		lsls	r1, r2, #5
 2581 028e FA69     		ldr	r2, [r7, #28]
 2582 0290 0A44     		add	r2, r2, r1
 2583 0292 02F51062 		add	r2, r2, #2304
 2584 0296 43F00053 		orr	r3, r3, #536870912
 2585 029a 1360     		str	r3, [r2]
 2586 029c 0FE0     		b	.L115
 2587              	.L114:
 789:Drivers/STM32F4xx_HAL_Driver/Src/stm32f4xx_ll_usb.c ****         }
ARM GAS  /var/folders/vq/qt4vp3kd5rxf7v2b6_fdtdt80000gn/T//ccOb9Y7L.s 			page 60


 790:Drivers/STM32F4xx_HAL_Driver/Src/stm32f4xx_ll_usb.c ****         else
 791:Drivers/STM32F4xx_HAL_Driver/Src/stm32f4xx_ll_usb.c ****         {
 792:Drivers/STM32F4xx_HAL_Driver/Src/stm32f4xx_ll_usb.c ****           USBx_INEP(epnum)->DIEPCTL |= USB_OTG_DIEPCTL_SD0PID_SEVNFRM;
 2588              		.loc 1 792 37
 2589 029e BB69     		ldr	r3, [r7, #24]
 2590 02a0 5A01     		lsls	r2, r3, #5
 2591 02a2 FB69     		ldr	r3, [r7, #28]
 2592 02a4 1344     		add	r3, r3, r2
 2593 02a6 03F51063 		add	r3, r3, #2304
 2594 02aa 1B68     		ldr	r3, [r3]
 2595 02ac BA69     		ldr	r2, [r7, #24]
 2596 02ae 5101     		lsls	r1, r2, #5
 2597 02b0 FA69     		ldr	r2, [r7, #28]
 2598 02b2 0A44     		add	r2, r2, r1
 2599 02b4 02F51062 		add	r2, r2, #2304
 2600 02b8 43F08053 		orr	r3, r3, #268435456
 2601 02bc 1360     		str	r3, [r2]
 2602              	.L115:
 793:Drivers/STM32F4xx_HAL_Driver/Src/stm32f4xx_ll_usb.c ****         }
 794:Drivers/STM32F4xx_HAL_Driver/Src/stm32f4xx_ll_usb.c **** 
 795:Drivers/STM32F4xx_HAL_Driver/Src/stm32f4xx_ll_usb.c ****         (void)USB_WritePacket(USBx, ep->xfer_buff, ep->num, (uint16_t)ep->xfer_len, dma);
 2603              		.loc 1 795 15
 2604 02be BB68     		ldr	r3, [r7, #8]
 2605 02c0 D968     		ldr	r1, [r3, #12]
 2606 02c2 BB68     		ldr	r3, [r7, #8]
 2607 02c4 1A78     		ldrb	r2, [r3]	@ zero_extendqisi2
 2608              		.loc 1 795 73
 2609 02c6 BB68     		ldr	r3, [r7, #8]
 2610 02c8 5B69     		ldr	r3, [r3, #20]
 2611              		.loc 1 795 15
 2612 02ca 98B2     		uxth	r0, r3
 2613 02cc FB79     		ldrb	r3, [r7, #7]	@ zero_extendqisi2
 2614 02ce 0093     		str	r3, [sp]
 2615 02d0 0346     		mov	r3, r0
 2616 02d2 F868     		ldr	r0, [r7, #12]
 2617 02d4 FFF7FEFF 		bl	USB_WritePacket
 2618 02d8 CEE0     		b	.L112
 2619              	.L105:
 796:Drivers/STM32F4xx_HAL_Driver/Src/stm32f4xx_ll_usb.c ****       }
 797:Drivers/STM32F4xx_HAL_Driver/Src/stm32f4xx_ll_usb.c ****     }
 798:Drivers/STM32F4xx_HAL_Driver/Src/stm32f4xx_ll_usb.c ****   }
 799:Drivers/STM32F4xx_HAL_Driver/Src/stm32f4xx_ll_usb.c ****   else /* OUT endpoint */
 800:Drivers/STM32F4xx_HAL_Driver/Src/stm32f4xx_ll_usb.c ****   {
 801:Drivers/STM32F4xx_HAL_Driver/Src/stm32f4xx_ll_usb.c ****     /* Program the transfer size and packet count as follows:
 802:Drivers/STM32F4xx_HAL_Driver/Src/stm32f4xx_ll_usb.c ****     * pktcnt = N
 803:Drivers/STM32F4xx_HAL_Driver/Src/stm32f4xx_ll_usb.c ****     * xfersize = N * maxpacket
 804:Drivers/STM32F4xx_HAL_Driver/Src/stm32f4xx_ll_usb.c ****     */
 805:Drivers/STM32F4xx_HAL_Driver/Src/stm32f4xx_ll_usb.c ****     USBx_OUTEP(epnum)->DOEPTSIZ &= ~(USB_OTG_DOEPTSIZ_XFRSIZ);
 2620              		.loc 1 805 33
 2621 02da BB69     		ldr	r3, [r7, #24]
 2622 02dc 5A01     		lsls	r2, r3, #5
 2623 02de FB69     		ldr	r3, [r7, #28]
 2624 02e0 1344     		add	r3, r3, r2
 2625 02e2 03F53063 		add	r3, r3, #2816
 2626 02e6 1B69     		ldr	r3, [r3, #16]
 2627 02e8 BA69     		ldr	r2, [r7, #24]
 2628 02ea 5101     		lsls	r1, r2, #5
ARM GAS  /var/folders/vq/qt4vp3kd5rxf7v2b6_fdtdt80000gn/T//ccOb9Y7L.s 			page 61


 2629 02ec FA69     		ldr	r2, [r7, #28]
 2630 02ee 0A44     		add	r2, r2, r1
 2631 02f0 02F53062 		add	r2, r2, #2816
 2632 02f4 DB0C     		lsrs	r3, r3, #19
 2633 02f6 DB04     		lsls	r3, r3, #19
 2634 02f8 1361     		str	r3, [r2, #16]
 806:Drivers/STM32F4xx_HAL_Driver/Src/stm32f4xx_ll_usb.c ****     USBx_OUTEP(epnum)->DOEPTSIZ &= ~(USB_OTG_DOEPTSIZ_PKTCNT);
 2635              		.loc 1 806 33
 2636 02fa BB69     		ldr	r3, [r7, #24]
 2637 02fc 5A01     		lsls	r2, r3, #5
 2638 02fe FB69     		ldr	r3, [r7, #28]
 2639 0300 1344     		add	r3, r3, r2
 2640 0302 03F53063 		add	r3, r3, #2816
 2641 0306 1B69     		ldr	r3, [r3, #16]
 2642 0308 BA69     		ldr	r2, [r7, #24]
 2643 030a 5101     		lsls	r1, r2, #5
 2644 030c FA69     		ldr	r2, [r7, #28]
 2645 030e 0A44     		add	r2, r2, r1
 2646 0310 02F53062 		add	r2, r2, #2816
 2647 0314 23F0FF53 		bic	r3, r3, #534773760
 2648 0318 23F4C013 		bic	r3, r3, #1572864
 2649 031c 1361     		str	r3, [r2, #16]
 807:Drivers/STM32F4xx_HAL_Driver/Src/stm32f4xx_ll_usb.c **** 
 808:Drivers/STM32F4xx_HAL_Driver/Src/stm32f4xx_ll_usb.c ****     if (ep->xfer_len == 0U)
 2650              		.loc 1 808 11
 2651 031e BB68     		ldr	r3, [r7, #8]
 2652 0320 5B69     		ldr	r3, [r3, #20]
 2653              		.loc 1 808 8
 2654 0322 002B     		cmp	r3, #0
 2655 0324 26D1     		bne	.L116
 809:Drivers/STM32F4xx_HAL_Driver/Src/stm32f4xx_ll_usb.c ****     {
 810:Drivers/STM32F4xx_HAL_Driver/Src/stm32f4xx_ll_usb.c ****       USBx_OUTEP(epnum)->DOEPTSIZ |= (USB_OTG_DOEPTSIZ_XFRSIZ & ep->maxpacket);
 2656              		.loc 1 810 35
 2657 0326 BB69     		ldr	r3, [r7, #24]
 2658 0328 5A01     		lsls	r2, r3, #5
 2659 032a FB69     		ldr	r3, [r7, #28]
 2660 032c 1344     		add	r3, r3, r2
 2661 032e 03F53063 		add	r3, r3, #2816
 2662 0332 1A69     		ldr	r2, [r3, #16]
 2663              		.loc 1 810 67
 2664 0334 BB68     		ldr	r3, [r7, #8]
 2665 0336 9B68     		ldr	r3, [r3, #8]
 2666              		.loc 1 810 63
 2667 0338 C3F31203 		ubfx	r3, r3, #0, #19
 2668              		.loc 1 810 35
 2669 033c B969     		ldr	r1, [r7, #24]
 2670 033e 4801     		lsls	r0, r1, #5
 2671 0340 F969     		ldr	r1, [r7, #28]
 2672 0342 0144     		add	r1, r1, r0
 2673 0344 01F53061 		add	r1, r1, #2816
 2674 0348 1343     		orrs	r3, r3, r2
 2675 034a 0B61     		str	r3, [r1, #16]
 811:Drivers/STM32F4xx_HAL_Driver/Src/stm32f4xx_ll_usb.c ****       USBx_OUTEP(epnum)->DOEPTSIZ |= (USB_OTG_DOEPTSIZ_PKTCNT & (1U << 19));
 2676              		.loc 1 811 35
 2677 034c BB69     		ldr	r3, [r7, #24]
 2678 034e 5A01     		lsls	r2, r3, #5
 2679 0350 FB69     		ldr	r3, [r7, #28]
ARM GAS  /var/folders/vq/qt4vp3kd5rxf7v2b6_fdtdt80000gn/T//ccOb9Y7L.s 			page 62


 2680 0352 1344     		add	r3, r3, r2
 2681 0354 03F53063 		add	r3, r3, #2816
 2682 0358 1B69     		ldr	r3, [r3, #16]
 2683 035a BA69     		ldr	r2, [r7, #24]
 2684 035c 5101     		lsls	r1, r2, #5
 2685 035e FA69     		ldr	r2, [r7, #28]
 2686 0360 0A44     		add	r2, r2, r1
 2687 0362 02F53062 		add	r2, r2, #2816
 2688 0366 43F40023 		orr	r3, r3, #524288
 2689 036a 1361     		str	r3, [r2, #16]
 2690 036c 36E0     		b	.L117
 2691              	.L123:
 2692 036e 00BF     		.align	2
 2693              	.L122:
 2694 0370 0000F81F 		.word	536346624
 2695              	.L116:
 812:Drivers/STM32F4xx_HAL_Driver/Src/stm32f4xx_ll_usb.c ****     }
 813:Drivers/STM32F4xx_HAL_Driver/Src/stm32f4xx_ll_usb.c ****     else
 814:Drivers/STM32F4xx_HAL_Driver/Src/stm32f4xx_ll_usb.c ****     {
 815:Drivers/STM32F4xx_HAL_Driver/Src/stm32f4xx_ll_usb.c ****       pktcnt = (uint16_t)((ep->xfer_len + ep->maxpacket - 1U) / ep->maxpacket);
 2696              		.loc 1 815 30
 2697 0374 BB68     		ldr	r3, [r7, #8]
 2698 0376 5A69     		ldr	r2, [r3, #20]
 2699              		.loc 1 815 45
 2700 0378 BB68     		ldr	r3, [r7, #8]
 2701 037a 9B68     		ldr	r3, [r3, #8]
 2702              		.loc 1 815 41
 2703 037c 1344     		add	r3, r3, r2
 2704              		.loc 1 815 57
 2705 037e 5A1E     		subs	r2, r3, #1
 2706              		.loc 1 815 67
 2707 0380 BB68     		ldr	r3, [r7, #8]
 2708 0382 9B68     		ldr	r3, [r3, #8]
 2709              		.loc 1 815 63
 2710 0384 B2FBF3F3 		udiv	r3, r2, r3
 2711              		.loc 1 815 14
 2712 0388 FB82     		strh	r3, [r7, #22]	@ movhi
 816:Drivers/STM32F4xx_HAL_Driver/Src/stm32f4xx_ll_usb.c ****       USBx_OUTEP(epnum)->DOEPTSIZ |= USB_OTG_DOEPTSIZ_PKTCNT & ((uint32_t)pktcnt << 19);
 2713              		.loc 1 816 35
 2714 038a BB69     		ldr	r3, [r7, #24]
 2715 038c 5A01     		lsls	r2, r3, #5
 2716 038e FB69     		ldr	r3, [r7, #28]
 2717 0390 1344     		add	r3, r3, r2
 2718 0392 03F53063 		add	r3, r3, #2816
 2719 0396 1A69     		ldr	r2, [r3, #16]
 2720              		.loc 1 816 65
 2721 0398 FB8A     		ldrh	r3, [r7, #22]
 2722              		.loc 1 816 82
 2723 039a D904     		lsls	r1, r3, #19
 2724              		.loc 1 816 62
 2725 039c 394B     		ldr	r3, .L124
 2726 039e 0B40     		ands	r3, r3, r1
 2727              		.loc 1 816 35
 2728 03a0 B969     		ldr	r1, [r7, #24]
 2729 03a2 4801     		lsls	r0, r1, #5
 2730 03a4 F969     		ldr	r1, [r7, #28]
 2731 03a6 0144     		add	r1, r1, r0
ARM GAS  /var/folders/vq/qt4vp3kd5rxf7v2b6_fdtdt80000gn/T//ccOb9Y7L.s 			page 63


 2732 03a8 01F53061 		add	r1, r1, #2816
 2733 03ac 1343     		orrs	r3, r3, r2
 2734 03ae 0B61     		str	r3, [r1, #16]
 817:Drivers/STM32F4xx_HAL_Driver/Src/stm32f4xx_ll_usb.c ****       USBx_OUTEP(epnum)->DOEPTSIZ |= USB_OTG_DOEPTSIZ_XFRSIZ & (ep->maxpacket * pktcnt);
 2735              		.loc 1 817 35
 2736 03b0 BB69     		ldr	r3, [r7, #24]
 2737 03b2 5A01     		lsls	r2, r3, #5
 2738 03b4 FB69     		ldr	r3, [r7, #28]
 2739 03b6 1344     		add	r3, r3, r2
 2740 03b8 03F53063 		add	r3, r3, #2816
 2741 03bc 1A69     		ldr	r2, [r3, #16]
 2742              		.loc 1 817 67
 2743 03be BB68     		ldr	r3, [r7, #8]
 2744 03c0 9B68     		ldr	r3, [r3, #8]
 2745              		.loc 1 817 79
 2746 03c2 F98A     		ldrh	r1, [r7, #22]
 2747 03c4 01FB03F3 		mul	r3, r1, r3
 2748              		.loc 1 817 62
 2749 03c8 C3F31203 		ubfx	r3, r3, #0, #19
 2750              		.loc 1 817 35
 2751 03cc B969     		ldr	r1, [r7, #24]
 2752 03ce 4801     		lsls	r0, r1, #5
 2753 03d0 F969     		ldr	r1, [r7, #28]
 2754 03d2 0144     		add	r1, r1, r0
 2755 03d4 01F53061 		add	r1, r1, #2816
 2756 03d8 1343     		orrs	r3, r3, r2
 2757 03da 0B61     		str	r3, [r1, #16]
 2758              	.L117:
 818:Drivers/STM32F4xx_HAL_Driver/Src/stm32f4xx_ll_usb.c ****     }
 819:Drivers/STM32F4xx_HAL_Driver/Src/stm32f4xx_ll_usb.c **** 
 820:Drivers/STM32F4xx_HAL_Driver/Src/stm32f4xx_ll_usb.c ****     if (dma == 1U)
 2759              		.loc 1 820 8
 2760 03dc FB79     		ldrb	r3, [r7, #7]	@ zero_extendqisi2
 2761 03de 012B     		cmp	r3, #1
 2762 03e0 0DD1     		bne	.L118
 821:Drivers/STM32F4xx_HAL_Driver/Src/stm32f4xx_ll_usb.c ****     {
 822:Drivers/STM32F4xx_HAL_Driver/Src/stm32f4xx_ll_usb.c ****       if ((uint32_t)ep->xfer_buff != 0U)
 2763              		.loc 1 822 23
 2764 03e2 BB68     		ldr	r3, [r7, #8]
 2765 03e4 DB68     		ldr	r3, [r3, #12]
 2766              		.loc 1 822 10
 2767 03e6 002B     		cmp	r3, #0
 2768 03e8 09D0     		beq	.L118
 823:Drivers/STM32F4xx_HAL_Driver/Src/stm32f4xx_ll_usb.c ****       {
 824:Drivers/STM32F4xx_HAL_Driver/Src/stm32f4xx_ll_usb.c ****         USBx_OUTEP(epnum)->DOEPDMA = (uint32_t)(ep->xfer_buff);
 2769              		.loc 1 824 51
 2770 03ea BB68     		ldr	r3, [r7, #8]
 2771 03ec D968     		ldr	r1, [r3, #12]
 2772              		.loc 1 824 9
 2773 03ee BB69     		ldr	r3, [r7, #24]
 2774 03f0 5A01     		lsls	r2, r3, #5
 2775 03f2 FB69     		ldr	r3, [r7, #28]
 2776 03f4 1344     		add	r3, r3, r2
 2777 03f6 03F53063 		add	r3, r3, #2816
 2778              		.loc 1 824 38
 2779 03fa 0A46     		mov	r2, r1
 2780              		.loc 1 824 36
ARM GAS  /var/folders/vq/qt4vp3kd5rxf7v2b6_fdtdt80000gn/T//ccOb9Y7L.s 			page 64


 2781 03fc 5A61     		str	r2, [r3, #20]
 2782              	.L118:
 825:Drivers/STM32F4xx_HAL_Driver/Src/stm32f4xx_ll_usb.c ****       }
 826:Drivers/STM32F4xx_HAL_Driver/Src/stm32f4xx_ll_usb.c ****     }
 827:Drivers/STM32F4xx_HAL_Driver/Src/stm32f4xx_ll_usb.c **** 
 828:Drivers/STM32F4xx_HAL_Driver/Src/stm32f4xx_ll_usb.c ****     if (ep->type == EP_TYPE_ISOC)
 2783              		.loc 1 828 11
 2784 03fe BB68     		ldr	r3, [r7, #8]
 2785 0400 DB78     		ldrb	r3, [r3, #3]	@ zero_extendqisi2
 2786              		.loc 1 828 8
 2787 0402 012B     		cmp	r3, #1
 2788 0404 28D1     		bne	.L119
 829:Drivers/STM32F4xx_HAL_Driver/Src/stm32f4xx_ll_usb.c ****     {
 830:Drivers/STM32F4xx_HAL_Driver/Src/stm32f4xx_ll_usb.c ****       if ((USBx_DEVICE->DSTS & (1U << 8)) == 0U)
 2789              		.loc 1 830 12
 2790 0406 FB69     		ldr	r3, [r7, #28]
 2791 0408 03F50063 		add	r3, r3, #2048
 2792              		.loc 1 830 23
 2793 040c 9B68     		ldr	r3, [r3, #8]
 2794              		.loc 1 830 30
 2795 040e 03F48073 		and	r3, r3, #256
 2796              		.loc 1 830 10
 2797 0412 002B     		cmp	r3, #0
 2798 0414 10D1     		bne	.L120
 831:Drivers/STM32F4xx_HAL_Driver/Src/stm32f4xx_ll_usb.c ****       {
 832:Drivers/STM32F4xx_HAL_Driver/Src/stm32f4xx_ll_usb.c ****         USBx_OUTEP(epnum)->DOEPCTL |= USB_OTG_DOEPCTL_SODDFRM;
 2799              		.loc 1 832 36
 2800 0416 BB69     		ldr	r3, [r7, #24]
 2801 0418 5A01     		lsls	r2, r3, #5
 2802 041a FB69     		ldr	r3, [r7, #28]
 2803 041c 1344     		add	r3, r3, r2
 2804 041e 03F53063 		add	r3, r3, #2816
 2805 0422 1B68     		ldr	r3, [r3]
 2806 0424 BA69     		ldr	r2, [r7, #24]
 2807 0426 5101     		lsls	r1, r2, #5
 2808 0428 FA69     		ldr	r2, [r7, #28]
 2809 042a 0A44     		add	r2, r2, r1
 2810 042c 02F53062 		add	r2, r2, #2816
 2811 0430 43F00053 		orr	r3, r3, #536870912
 2812 0434 1360     		str	r3, [r2]
 2813 0436 0FE0     		b	.L119
 2814              	.L120:
 833:Drivers/STM32F4xx_HAL_Driver/Src/stm32f4xx_ll_usb.c ****       }
 834:Drivers/STM32F4xx_HAL_Driver/Src/stm32f4xx_ll_usb.c ****       else
 835:Drivers/STM32F4xx_HAL_Driver/Src/stm32f4xx_ll_usb.c ****       {
 836:Drivers/STM32F4xx_HAL_Driver/Src/stm32f4xx_ll_usb.c ****         USBx_OUTEP(epnum)->DOEPCTL |= USB_OTG_DOEPCTL_SD0PID_SEVNFRM;
 2815              		.loc 1 836 36
 2816 0438 BB69     		ldr	r3, [r7, #24]
 2817 043a 5A01     		lsls	r2, r3, #5
 2818 043c FB69     		ldr	r3, [r7, #28]
 2819 043e 1344     		add	r3, r3, r2
 2820 0440 03F53063 		add	r3, r3, #2816
 2821 0444 1B68     		ldr	r3, [r3]
 2822 0446 BA69     		ldr	r2, [r7, #24]
 2823 0448 5101     		lsls	r1, r2, #5
 2824 044a FA69     		ldr	r2, [r7, #28]
 2825 044c 0A44     		add	r2, r2, r1
ARM GAS  /var/folders/vq/qt4vp3kd5rxf7v2b6_fdtdt80000gn/T//ccOb9Y7L.s 			page 65


 2826 044e 02F53062 		add	r2, r2, #2816
 2827 0452 43F08053 		orr	r3, r3, #268435456
 2828 0456 1360     		str	r3, [r2]
 2829              	.L119:
 837:Drivers/STM32F4xx_HAL_Driver/Src/stm32f4xx_ll_usb.c ****       }
 838:Drivers/STM32F4xx_HAL_Driver/Src/stm32f4xx_ll_usb.c ****     }
 839:Drivers/STM32F4xx_HAL_Driver/Src/stm32f4xx_ll_usb.c ****     /* EP enable */
 840:Drivers/STM32F4xx_HAL_Driver/Src/stm32f4xx_ll_usb.c ****     USBx_OUTEP(epnum)->DOEPCTL |= (USB_OTG_DOEPCTL_CNAK | USB_OTG_DOEPCTL_EPENA);
 2830              		.loc 1 840 32
 2831 0458 BB69     		ldr	r3, [r7, #24]
 2832 045a 5A01     		lsls	r2, r3, #5
 2833 045c FB69     		ldr	r3, [r7, #28]
 2834 045e 1344     		add	r3, r3, r2
 2835 0460 03F53063 		add	r3, r3, #2816
 2836 0464 1B68     		ldr	r3, [r3]
 2837 0466 BA69     		ldr	r2, [r7, #24]
 2838 0468 5101     		lsls	r1, r2, #5
 2839 046a FA69     		ldr	r2, [r7, #28]
 2840 046c 0A44     		add	r2, r2, r1
 2841 046e 02F53062 		add	r2, r2, #2816
 2842 0472 43F00443 		orr	r3, r3, #-2080374784
 2843 0476 1360     		str	r3, [r2]
 2844              	.L112:
 841:Drivers/STM32F4xx_HAL_Driver/Src/stm32f4xx_ll_usb.c ****   }
 842:Drivers/STM32F4xx_HAL_Driver/Src/stm32f4xx_ll_usb.c **** 
 843:Drivers/STM32F4xx_HAL_Driver/Src/stm32f4xx_ll_usb.c ****   return HAL_OK;
 2845              		.loc 1 843 10
 2846 0478 0023     		movs	r3, #0
 844:Drivers/STM32F4xx_HAL_Driver/Src/stm32f4xx_ll_usb.c **** }
 2847              		.loc 1 844 1
 2848 047a 1846     		mov	r0, r3
 2849 047c 2037     		adds	r7, r7, #32
 2850              	.LCFI90:
 2851              		.cfi_def_cfa_offset 8
 2852 047e BD46     		mov	sp, r7
 2853              	.LCFI91:
 2854              		.cfi_def_cfa_register 13
 2855              		@ sp needed
 2856 0480 80BD     		pop	{r7, pc}
 2857              	.L125:
 2858 0482 00BF     		.align	2
 2859              	.L124:
 2860 0484 0000F81F 		.word	536346624
 2861              		.cfi_endproc
 2862              	.LFE144:
 2864              		.section	.text.USB_EP0StartXfer,"ax",%progbits
 2865              		.align	1
 2866              		.global	USB_EP0StartXfer
 2867              		.syntax unified
 2868              		.thumb
 2869              		.thumb_func
 2870              		.fpu fpv4-sp-d16
 2872              	USB_EP0StartXfer:
 2873              	.LFB145:
 845:Drivers/STM32F4xx_HAL_Driver/Src/stm32f4xx_ll_usb.c **** 
 846:Drivers/STM32F4xx_HAL_Driver/Src/stm32f4xx_ll_usb.c **** /**
 847:Drivers/STM32F4xx_HAL_Driver/Src/stm32f4xx_ll_usb.c ****   * @brief  USB_EP0StartXfer : setup and starts a transfer over the EP  0
ARM GAS  /var/folders/vq/qt4vp3kd5rxf7v2b6_fdtdt80000gn/T//ccOb9Y7L.s 			page 66


 848:Drivers/STM32F4xx_HAL_Driver/Src/stm32f4xx_ll_usb.c ****   * @param  USBx  Selected device
 849:Drivers/STM32F4xx_HAL_Driver/Src/stm32f4xx_ll_usb.c ****   * @param  ep pointer to endpoint structure
 850:Drivers/STM32F4xx_HAL_Driver/Src/stm32f4xx_ll_usb.c ****   * @param  dma USB dma enabled or disabled
 851:Drivers/STM32F4xx_HAL_Driver/Src/stm32f4xx_ll_usb.c ****   *          This parameter can be one of these values:
 852:Drivers/STM32F4xx_HAL_Driver/Src/stm32f4xx_ll_usb.c ****   *           0 : DMA feature not used
 853:Drivers/STM32F4xx_HAL_Driver/Src/stm32f4xx_ll_usb.c ****   *           1 : DMA feature used
 854:Drivers/STM32F4xx_HAL_Driver/Src/stm32f4xx_ll_usb.c ****   * @retval HAL status
 855:Drivers/STM32F4xx_HAL_Driver/Src/stm32f4xx_ll_usb.c ****   */
 856:Drivers/STM32F4xx_HAL_Driver/Src/stm32f4xx_ll_usb.c **** HAL_StatusTypeDef USB_EP0StartXfer(USB_OTG_GlobalTypeDef *USBx, USB_OTG_EPTypeDef *ep, uint8_t dma)
 857:Drivers/STM32F4xx_HAL_Driver/Src/stm32f4xx_ll_usb.c **** {
 2874              		.loc 1 857 1
 2875              		.cfi_startproc
 2876              		@ args = 0, pretend = 0, frame = 24
 2877              		@ frame_needed = 1, uses_anonymous_args = 0
 2878              		@ link register save eliminated.
 2879 0000 80B4     		push	{r7}
 2880              	.LCFI92:
 2881              		.cfi_def_cfa_offset 4
 2882              		.cfi_offset 7, -4
 2883 0002 87B0     		sub	sp, sp, #28
 2884              	.LCFI93:
 2885              		.cfi_def_cfa_offset 32
 2886 0004 00AF     		add	r7, sp, #0
 2887              	.LCFI94:
 2888              		.cfi_def_cfa_register 7
 2889 0006 F860     		str	r0, [r7, #12]
 2890 0008 B960     		str	r1, [r7, #8]
 2891 000a 1346     		mov	r3, r2
 2892 000c FB71     		strb	r3, [r7, #7]
 858:Drivers/STM32F4xx_HAL_Driver/Src/stm32f4xx_ll_usb.c ****   uint32_t USBx_BASE = (uint32_t)USBx;
 2893              		.loc 1 858 12
 2894 000e FB68     		ldr	r3, [r7, #12]
 2895 0010 7B61     		str	r3, [r7, #20]
 859:Drivers/STM32F4xx_HAL_Driver/Src/stm32f4xx_ll_usb.c ****   uint32_t epnum = (uint32_t)ep->num;
 2896              		.loc 1 859 32
 2897 0012 BB68     		ldr	r3, [r7, #8]
 2898 0014 1B78     		ldrb	r3, [r3]	@ zero_extendqisi2
 2899              		.loc 1 859 12
 2900 0016 3B61     		str	r3, [r7, #16]
 860:Drivers/STM32F4xx_HAL_Driver/Src/stm32f4xx_ll_usb.c **** 
 861:Drivers/STM32F4xx_HAL_Driver/Src/stm32f4xx_ll_usb.c ****   /* IN endpoint */
 862:Drivers/STM32F4xx_HAL_Driver/Src/stm32f4xx_ll_usb.c ****   if (ep->is_in == 1U)
 2901              		.loc 1 862 9
 2902 0018 BB68     		ldr	r3, [r7, #8]
 2903 001a 5B78     		ldrb	r3, [r3, #1]	@ zero_extendqisi2
 2904              		.loc 1 862 6
 2905 001c 012B     		cmp	r3, #1
 2906 001e 40F0CD80 		bne	.L127
 863:Drivers/STM32F4xx_HAL_Driver/Src/stm32f4xx_ll_usb.c ****   {
 864:Drivers/STM32F4xx_HAL_Driver/Src/stm32f4xx_ll_usb.c ****     /* Zero Length Packet? */
 865:Drivers/STM32F4xx_HAL_Driver/Src/stm32f4xx_ll_usb.c ****     if (ep->xfer_len == 0U)
 2907              		.loc 1 865 11
 2908 0022 BB68     		ldr	r3, [r7, #8]
 2909 0024 5B69     		ldr	r3, [r3, #20]
 2910              		.loc 1 865 8
 2911 0026 002B     		cmp	r3, #0
 2912 0028 32D1     		bne	.L128
ARM GAS  /var/folders/vq/qt4vp3kd5rxf7v2b6_fdtdt80000gn/T//ccOb9Y7L.s 			page 67


 866:Drivers/STM32F4xx_HAL_Driver/Src/stm32f4xx_ll_usb.c ****     {
 867:Drivers/STM32F4xx_HAL_Driver/Src/stm32f4xx_ll_usb.c ****       USBx_INEP(epnum)->DIEPTSIZ &= ~(USB_OTG_DIEPTSIZ_PKTCNT);
 2913              		.loc 1 867 34
 2914 002a 3B69     		ldr	r3, [r7, #16]
 2915 002c 5A01     		lsls	r2, r3, #5
 2916 002e 7B69     		ldr	r3, [r7, #20]
 2917 0030 1344     		add	r3, r3, r2
 2918 0032 03F51063 		add	r3, r3, #2304
 2919 0036 1B69     		ldr	r3, [r3, #16]
 2920 0038 3A69     		ldr	r2, [r7, #16]
 2921 003a 5101     		lsls	r1, r2, #5
 2922 003c 7A69     		ldr	r2, [r7, #20]
 2923 003e 0A44     		add	r2, r2, r1
 2924 0040 02F51062 		add	r2, r2, #2304
 2925 0044 23F0FF53 		bic	r3, r3, #534773760
 2926 0048 23F4C013 		bic	r3, r3, #1572864
 2927 004c 1361     		str	r3, [r2, #16]
 868:Drivers/STM32F4xx_HAL_Driver/Src/stm32f4xx_ll_usb.c ****       USBx_INEP(epnum)->DIEPTSIZ |= (USB_OTG_DIEPTSIZ_PKTCNT & (1U << 19));
 2928              		.loc 1 868 34
 2929 004e 3B69     		ldr	r3, [r7, #16]
 2930 0050 5A01     		lsls	r2, r3, #5
 2931 0052 7B69     		ldr	r3, [r7, #20]
 2932 0054 1344     		add	r3, r3, r2
 2933 0056 03F51063 		add	r3, r3, #2304
 2934 005a 1B69     		ldr	r3, [r3, #16]
 2935 005c 3A69     		ldr	r2, [r7, #16]
 2936 005e 5101     		lsls	r1, r2, #5
 2937 0060 7A69     		ldr	r2, [r7, #20]
 2938 0062 0A44     		add	r2, r2, r1
 2939 0064 02F51062 		add	r2, r2, #2304
 2940 0068 43F40023 		orr	r3, r3, #524288
 2941 006c 1361     		str	r3, [r2, #16]
 869:Drivers/STM32F4xx_HAL_Driver/Src/stm32f4xx_ll_usb.c ****       USBx_INEP(epnum)->DIEPTSIZ &= ~(USB_OTG_DIEPTSIZ_XFRSIZ);
 2942              		.loc 1 869 34
 2943 006e 3B69     		ldr	r3, [r7, #16]
 2944 0070 5A01     		lsls	r2, r3, #5
 2945 0072 7B69     		ldr	r3, [r7, #20]
 2946 0074 1344     		add	r3, r3, r2
 2947 0076 03F51063 		add	r3, r3, #2304
 2948 007a 1B69     		ldr	r3, [r3, #16]
 2949 007c 3A69     		ldr	r2, [r7, #16]
 2950 007e 5101     		lsls	r1, r2, #5
 2951 0080 7A69     		ldr	r2, [r7, #20]
 2952 0082 0A44     		add	r2, r2, r1
 2953 0084 02F51062 		add	r2, r2, #2304
 2954 0088 DB0C     		lsrs	r3, r3, #19
 2955 008a DB04     		lsls	r3, r3, #19
 2956 008c 1361     		str	r3, [r2, #16]
 2957 008e 4EE0     		b	.L129
 2958              	.L128:
 870:Drivers/STM32F4xx_HAL_Driver/Src/stm32f4xx_ll_usb.c ****     }
 871:Drivers/STM32F4xx_HAL_Driver/Src/stm32f4xx_ll_usb.c ****     else
 872:Drivers/STM32F4xx_HAL_Driver/Src/stm32f4xx_ll_usb.c ****     {
 873:Drivers/STM32F4xx_HAL_Driver/Src/stm32f4xx_ll_usb.c ****       /* Program the transfer size and packet count
 874:Drivers/STM32F4xx_HAL_Driver/Src/stm32f4xx_ll_usb.c ****       * as follows: xfersize = N * maxpacket +
 875:Drivers/STM32F4xx_HAL_Driver/Src/stm32f4xx_ll_usb.c ****       * short_packet pktcnt = N + (short_packet
 876:Drivers/STM32F4xx_HAL_Driver/Src/stm32f4xx_ll_usb.c ****       * exist ? 1 : 0)
ARM GAS  /var/folders/vq/qt4vp3kd5rxf7v2b6_fdtdt80000gn/T//ccOb9Y7L.s 			page 68


 877:Drivers/STM32F4xx_HAL_Driver/Src/stm32f4xx_ll_usb.c ****       */
 878:Drivers/STM32F4xx_HAL_Driver/Src/stm32f4xx_ll_usb.c ****       USBx_INEP(epnum)->DIEPTSIZ &= ~(USB_OTG_DIEPTSIZ_XFRSIZ);
 2959              		.loc 1 878 34
 2960 0090 3B69     		ldr	r3, [r7, #16]
 2961 0092 5A01     		lsls	r2, r3, #5
 2962 0094 7B69     		ldr	r3, [r7, #20]
 2963 0096 1344     		add	r3, r3, r2
 2964 0098 03F51063 		add	r3, r3, #2304
 2965 009c 1B69     		ldr	r3, [r3, #16]
 2966 009e 3A69     		ldr	r2, [r7, #16]
 2967 00a0 5101     		lsls	r1, r2, #5
 2968 00a2 7A69     		ldr	r2, [r7, #20]
 2969 00a4 0A44     		add	r2, r2, r1
 2970 00a6 02F51062 		add	r2, r2, #2304
 2971 00aa DB0C     		lsrs	r3, r3, #19
 2972 00ac DB04     		lsls	r3, r3, #19
 2973 00ae 1361     		str	r3, [r2, #16]
 879:Drivers/STM32F4xx_HAL_Driver/Src/stm32f4xx_ll_usb.c ****       USBx_INEP(epnum)->DIEPTSIZ &= ~(USB_OTG_DIEPTSIZ_PKTCNT);
 2974              		.loc 1 879 34
 2975 00b0 3B69     		ldr	r3, [r7, #16]
 2976 00b2 5A01     		lsls	r2, r3, #5
 2977 00b4 7B69     		ldr	r3, [r7, #20]
 2978 00b6 1344     		add	r3, r3, r2
 2979 00b8 03F51063 		add	r3, r3, #2304
 2980 00bc 1B69     		ldr	r3, [r3, #16]
 2981 00be 3A69     		ldr	r2, [r7, #16]
 2982 00c0 5101     		lsls	r1, r2, #5
 2983 00c2 7A69     		ldr	r2, [r7, #20]
 2984 00c4 0A44     		add	r2, r2, r1
 2985 00c6 02F51062 		add	r2, r2, #2304
 2986 00ca 23F0FF53 		bic	r3, r3, #534773760
 2987 00ce 23F4C013 		bic	r3, r3, #1572864
 2988 00d2 1361     		str	r3, [r2, #16]
 880:Drivers/STM32F4xx_HAL_Driver/Src/stm32f4xx_ll_usb.c **** 
 881:Drivers/STM32F4xx_HAL_Driver/Src/stm32f4xx_ll_usb.c ****       if (ep->xfer_len > ep->maxpacket)
 2989              		.loc 1 881 13
 2990 00d4 BB68     		ldr	r3, [r7, #8]
 2991 00d6 5A69     		ldr	r2, [r3, #20]
 2992              		.loc 1 881 28
 2993 00d8 BB68     		ldr	r3, [r7, #8]
 2994 00da 9B68     		ldr	r3, [r3, #8]
 2995              		.loc 1 881 10
 2996 00dc 9A42     		cmp	r2, r3
 2997 00de 03D9     		bls	.L130
 882:Drivers/STM32F4xx_HAL_Driver/Src/stm32f4xx_ll_usb.c ****       {
 883:Drivers/STM32F4xx_HAL_Driver/Src/stm32f4xx_ll_usb.c ****         ep->xfer_len = ep->maxpacket;
 2998              		.loc 1 883 26
 2999 00e0 BB68     		ldr	r3, [r7, #8]
 3000 00e2 9A68     		ldr	r2, [r3, #8]
 3001              		.loc 1 883 22
 3002 00e4 BB68     		ldr	r3, [r7, #8]
 3003 00e6 5A61     		str	r2, [r3, #20]
 3004              	.L130:
 884:Drivers/STM32F4xx_HAL_Driver/Src/stm32f4xx_ll_usb.c ****       }
 885:Drivers/STM32F4xx_HAL_Driver/Src/stm32f4xx_ll_usb.c ****       USBx_INEP(epnum)->DIEPTSIZ |= (USB_OTG_DIEPTSIZ_PKTCNT & (1U << 19));
 3005              		.loc 1 885 34
 3006 00e8 3B69     		ldr	r3, [r7, #16]
ARM GAS  /var/folders/vq/qt4vp3kd5rxf7v2b6_fdtdt80000gn/T//ccOb9Y7L.s 			page 69


 3007 00ea 5A01     		lsls	r2, r3, #5
 3008 00ec 7B69     		ldr	r3, [r7, #20]
 3009 00ee 1344     		add	r3, r3, r2
 3010 00f0 03F51063 		add	r3, r3, #2304
 3011 00f4 1B69     		ldr	r3, [r3, #16]
 3012 00f6 3A69     		ldr	r2, [r7, #16]
 3013 00f8 5101     		lsls	r1, r2, #5
 3014 00fa 7A69     		ldr	r2, [r7, #20]
 3015 00fc 0A44     		add	r2, r2, r1
 3016 00fe 02F51062 		add	r2, r2, #2304
 3017 0102 43F40023 		orr	r3, r3, #524288
 3018 0106 1361     		str	r3, [r2, #16]
 886:Drivers/STM32F4xx_HAL_Driver/Src/stm32f4xx_ll_usb.c ****       USBx_INEP(epnum)->DIEPTSIZ |= (USB_OTG_DIEPTSIZ_XFRSIZ & ep->xfer_len);
 3019              		.loc 1 886 34
 3020 0108 3B69     		ldr	r3, [r7, #16]
 3021 010a 5A01     		lsls	r2, r3, #5
 3022 010c 7B69     		ldr	r3, [r7, #20]
 3023 010e 1344     		add	r3, r3, r2
 3024 0110 03F51063 		add	r3, r3, #2304
 3025 0114 1A69     		ldr	r2, [r3, #16]
 3026              		.loc 1 886 66
 3027 0116 BB68     		ldr	r3, [r7, #8]
 3028 0118 5B69     		ldr	r3, [r3, #20]
 3029              		.loc 1 886 62
 3030 011a C3F31203 		ubfx	r3, r3, #0, #19
 3031              		.loc 1 886 34
 3032 011e 3969     		ldr	r1, [r7, #16]
 3033 0120 4801     		lsls	r0, r1, #5
 3034 0122 7969     		ldr	r1, [r7, #20]
 3035 0124 0144     		add	r1, r1, r0
 3036 0126 01F51061 		add	r1, r1, #2304
 3037 012a 1343     		orrs	r3, r3, r2
 3038 012c 0B61     		str	r3, [r1, #16]
 3039              	.L129:
 887:Drivers/STM32F4xx_HAL_Driver/Src/stm32f4xx_ll_usb.c ****     }
 888:Drivers/STM32F4xx_HAL_Driver/Src/stm32f4xx_ll_usb.c **** 
 889:Drivers/STM32F4xx_HAL_Driver/Src/stm32f4xx_ll_usb.c ****     if (dma == 1U)
 3040              		.loc 1 889 8
 3041 012e FB79     		ldrb	r3, [r7, #7]	@ zero_extendqisi2
 3042 0130 012B     		cmp	r3, #1
 3043 0132 1ED1     		bne	.L131
 890:Drivers/STM32F4xx_HAL_Driver/Src/stm32f4xx_ll_usb.c ****     {
 891:Drivers/STM32F4xx_HAL_Driver/Src/stm32f4xx_ll_usb.c ****       if ((uint32_t)ep->dma_addr != 0U)
 3044              		.loc 1 891 23
 3045 0134 BB68     		ldr	r3, [r7, #8]
 3046 0136 1B69     		ldr	r3, [r3, #16]
 3047              		.loc 1 891 10
 3048 0138 002B     		cmp	r3, #0
 3049 013a 09D0     		beq	.L132
 892:Drivers/STM32F4xx_HAL_Driver/Src/stm32f4xx_ll_usb.c ****       {
 893:Drivers/STM32F4xx_HAL_Driver/Src/stm32f4xx_ll_usb.c ****         USBx_INEP(epnum)->DIEPDMA = (uint32_t)(ep->dma_addr);
 3050              		.loc 1 893 9
 3051 013c 3B69     		ldr	r3, [r7, #16]
 3052 013e 5A01     		lsls	r2, r3, #5
 3053 0140 7B69     		ldr	r3, [r7, #20]
 3054 0142 1344     		add	r3, r3, r2
 3055 0144 03F51063 		add	r3, r3, #2304
ARM GAS  /var/folders/vq/qt4vp3kd5rxf7v2b6_fdtdt80000gn/T//ccOb9Y7L.s 			page 70


 3056 0148 1A46     		mov	r2, r3
 3057              		.loc 1 893 50
 3058 014a BB68     		ldr	r3, [r7, #8]
 3059 014c 1B69     		ldr	r3, [r3, #16]
 3060              		.loc 1 893 35
 3061 014e 5361     		str	r3, [r2, #20]
 3062              	.L132:
 894:Drivers/STM32F4xx_HAL_Driver/Src/stm32f4xx_ll_usb.c ****       }
 895:Drivers/STM32F4xx_HAL_Driver/Src/stm32f4xx_ll_usb.c **** 
 896:Drivers/STM32F4xx_HAL_Driver/Src/stm32f4xx_ll_usb.c ****       /* EP enable, IN data in FIFO */
 897:Drivers/STM32F4xx_HAL_Driver/Src/stm32f4xx_ll_usb.c ****       USBx_INEP(epnum)->DIEPCTL |= (USB_OTG_DIEPCTL_CNAK | USB_OTG_DIEPCTL_EPENA);
 3063              		.loc 1 897 33
 3064 0150 3B69     		ldr	r3, [r7, #16]
 3065 0152 5A01     		lsls	r2, r3, #5
 3066 0154 7B69     		ldr	r3, [r7, #20]
 3067 0156 1344     		add	r3, r3, r2
 3068 0158 03F51063 		add	r3, r3, #2304
 3069 015c 1B68     		ldr	r3, [r3]
 3070 015e 3A69     		ldr	r2, [r7, #16]
 3071 0160 5101     		lsls	r1, r2, #5
 3072 0162 7A69     		ldr	r2, [r7, #20]
 3073 0164 0A44     		add	r2, r2, r1
 3074 0166 02F51062 		add	r2, r2, #2304
 3075 016a 43F00443 		orr	r3, r3, #-2080374784
 3076 016e 1360     		str	r3, [r2]
 3077 0170 92E0     		b	.L133
 3078              	.L131:
 898:Drivers/STM32F4xx_HAL_Driver/Src/stm32f4xx_ll_usb.c ****     }
 899:Drivers/STM32F4xx_HAL_Driver/Src/stm32f4xx_ll_usb.c ****     else
 900:Drivers/STM32F4xx_HAL_Driver/Src/stm32f4xx_ll_usb.c ****     {
 901:Drivers/STM32F4xx_HAL_Driver/Src/stm32f4xx_ll_usb.c ****       /* EP enable, IN data in FIFO */
 902:Drivers/STM32F4xx_HAL_Driver/Src/stm32f4xx_ll_usb.c ****       USBx_INEP(epnum)->DIEPCTL |= (USB_OTG_DIEPCTL_CNAK | USB_OTG_DIEPCTL_EPENA);
 3079              		.loc 1 902 33
 3080 0172 3B69     		ldr	r3, [r7, #16]
 3081 0174 5A01     		lsls	r2, r3, #5
 3082 0176 7B69     		ldr	r3, [r7, #20]
 3083 0178 1344     		add	r3, r3, r2
 3084 017a 03F51063 		add	r3, r3, #2304
 3085 017e 1B68     		ldr	r3, [r3]
 3086 0180 3A69     		ldr	r2, [r7, #16]
 3087 0182 5101     		lsls	r1, r2, #5
 3088 0184 7A69     		ldr	r2, [r7, #20]
 3089 0186 0A44     		add	r2, r2, r1
 3090 0188 02F51062 		add	r2, r2, #2304
 3091 018c 43F00443 		orr	r3, r3, #-2080374784
 3092 0190 1360     		str	r3, [r2]
 903:Drivers/STM32F4xx_HAL_Driver/Src/stm32f4xx_ll_usb.c **** 
 904:Drivers/STM32F4xx_HAL_Driver/Src/stm32f4xx_ll_usb.c ****       /* Enable the Tx FIFO Empty Interrupt for this EP */
 905:Drivers/STM32F4xx_HAL_Driver/Src/stm32f4xx_ll_usb.c ****       if (ep->xfer_len > 0U)
 3093              		.loc 1 905 13
 3094 0192 BB68     		ldr	r3, [r7, #8]
 3095 0194 5B69     		ldr	r3, [r3, #20]
 3096              		.loc 1 905 10
 3097 0196 002B     		cmp	r3, #0
 3098 0198 7ED0     		beq	.L133
 906:Drivers/STM32F4xx_HAL_Driver/Src/stm32f4xx_ll_usb.c ****       {
 907:Drivers/STM32F4xx_HAL_Driver/Src/stm32f4xx_ll_usb.c ****         USBx_DEVICE->DIEPEMPMSK |= 1UL << (ep->num & EP_ADDR_MSK);
ARM GAS  /var/folders/vq/qt4vp3kd5rxf7v2b6_fdtdt80000gn/T//ccOb9Y7L.s 			page 71


 3099              		.loc 1 907 33
 3100 019a 7B69     		ldr	r3, [r7, #20]
 3101 019c 03F50063 		add	r3, r3, #2048
 3102 01a0 5A6B     		ldr	r2, [r3, #52]
 3103              		.loc 1 907 46
 3104 01a2 BB68     		ldr	r3, [r7, #8]
 3105 01a4 1B78     		ldrb	r3, [r3]	@ zero_extendqisi2
 3106              		.loc 1 907 52
 3107 01a6 03F00F03 		and	r3, r3, #15
 3108              		.loc 1 907 40
 3109 01aa 0121     		movs	r1, #1
 3110 01ac 01FA03F3 		lsl	r3, r1, r3
 3111              		.loc 1 907 33
 3112 01b0 7969     		ldr	r1, [r7, #20]
 3113 01b2 01F50061 		add	r1, r1, #2048
 3114 01b6 1343     		orrs	r3, r3, r2
 3115 01b8 4B63     		str	r3, [r1, #52]
 3116 01ba 6DE0     		b	.L133
 3117              	.L127:
 908:Drivers/STM32F4xx_HAL_Driver/Src/stm32f4xx_ll_usb.c ****       }
 909:Drivers/STM32F4xx_HAL_Driver/Src/stm32f4xx_ll_usb.c ****     }
 910:Drivers/STM32F4xx_HAL_Driver/Src/stm32f4xx_ll_usb.c ****   }
 911:Drivers/STM32F4xx_HAL_Driver/Src/stm32f4xx_ll_usb.c ****   else /* OUT endpoint */
 912:Drivers/STM32F4xx_HAL_Driver/Src/stm32f4xx_ll_usb.c ****   {
 913:Drivers/STM32F4xx_HAL_Driver/Src/stm32f4xx_ll_usb.c ****     /* Program the transfer size and packet count as follows:
 914:Drivers/STM32F4xx_HAL_Driver/Src/stm32f4xx_ll_usb.c ****     * pktcnt = N
 915:Drivers/STM32F4xx_HAL_Driver/Src/stm32f4xx_ll_usb.c ****     * xfersize = N * maxpacket
 916:Drivers/STM32F4xx_HAL_Driver/Src/stm32f4xx_ll_usb.c ****     */
 917:Drivers/STM32F4xx_HAL_Driver/Src/stm32f4xx_ll_usb.c ****     USBx_OUTEP(epnum)->DOEPTSIZ &= ~(USB_OTG_DOEPTSIZ_XFRSIZ);
 3118              		.loc 1 917 33
 3119 01bc 3B69     		ldr	r3, [r7, #16]
 3120 01be 5A01     		lsls	r2, r3, #5
 3121 01c0 7B69     		ldr	r3, [r7, #20]
 3122 01c2 1344     		add	r3, r3, r2
 3123 01c4 03F53063 		add	r3, r3, #2816
 3124 01c8 1B69     		ldr	r3, [r3, #16]
 3125 01ca 3A69     		ldr	r2, [r7, #16]
 3126 01cc 5101     		lsls	r1, r2, #5
 3127 01ce 7A69     		ldr	r2, [r7, #20]
 3128 01d0 0A44     		add	r2, r2, r1
 3129 01d2 02F53062 		add	r2, r2, #2816
 3130 01d6 DB0C     		lsrs	r3, r3, #19
 3131 01d8 DB04     		lsls	r3, r3, #19
 3132 01da 1361     		str	r3, [r2, #16]
 918:Drivers/STM32F4xx_HAL_Driver/Src/stm32f4xx_ll_usb.c ****     USBx_OUTEP(epnum)->DOEPTSIZ &= ~(USB_OTG_DOEPTSIZ_PKTCNT);
 3133              		.loc 1 918 33
 3134 01dc 3B69     		ldr	r3, [r7, #16]
 3135 01de 5A01     		lsls	r2, r3, #5
 3136 01e0 7B69     		ldr	r3, [r7, #20]
 3137 01e2 1344     		add	r3, r3, r2
 3138 01e4 03F53063 		add	r3, r3, #2816
 3139 01e8 1B69     		ldr	r3, [r3, #16]
 3140 01ea 3A69     		ldr	r2, [r7, #16]
 3141 01ec 5101     		lsls	r1, r2, #5
 3142 01ee 7A69     		ldr	r2, [r7, #20]
 3143 01f0 0A44     		add	r2, r2, r1
 3144 01f2 02F53062 		add	r2, r2, #2816
ARM GAS  /var/folders/vq/qt4vp3kd5rxf7v2b6_fdtdt80000gn/T//ccOb9Y7L.s 			page 72


 3145 01f6 23F0FF53 		bic	r3, r3, #534773760
 3146 01fa 23F4C013 		bic	r3, r3, #1572864
 3147 01fe 1361     		str	r3, [r2, #16]
 919:Drivers/STM32F4xx_HAL_Driver/Src/stm32f4xx_ll_usb.c **** 
 920:Drivers/STM32F4xx_HAL_Driver/Src/stm32f4xx_ll_usb.c ****     if (ep->xfer_len > 0U)
 3148              		.loc 1 920 11
 3149 0200 BB68     		ldr	r3, [r7, #8]
 3150 0202 5B69     		ldr	r3, [r3, #20]
 3151              		.loc 1 920 8
 3152 0204 002B     		cmp	r3, #0
 3153 0206 03D0     		beq	.L134
 921:Drivers/STM32F4xx_HAL_Driver/Src/stm32f4xx_ll_usb.c ****     {
 922:Drivers/STM32F4xx_HAL_Driver/Src/stm32f4xx_ll_usb.c ****       ep->xfer_len = ep->maxpacket;
 3154              		.loc 1 922 24
 3155 0208 BB68     		ldr	r3, [r7, #8]
 3156 020a 9A68     		ldr	r2, [r3, #8]
 3157              		.loc 1 922 20
 3158 020c BB68     		ldr	r3, [r7, #8]
 3159 020e 5A61     		str	r2, [r3, #20]
 3160              	.L134:
 923:Drivers/STM32F4xx_HAL_Driver/Src/stm32f4xx_ll_usb.c ****     }
 924:Drivers/STM32F4xx_HAL_Driver/Src/stm32f4xx_ll_usb.c **** 
 925:Drivers/STM32F4xx_HAL_Driver/Src/stm32f4xx_ll_usb.c ****     USBx_OUTEP(epnum)->DOEPTSIZ |= (USB_OTG_DOEPTSIZ_PKTCNT & (1U << 19));
 3161              		.loc 1 925 33
 3162 0210 3B69     		ldr	r3, [r7, #16]
 3163 0212 5A01     		lsls	r2, r3, #5
 3164 0214 7B69     		ldr	r3, [r7, #20]
 3165 0216 1344     		add	r3, r3, r2
 3166 0218 03F53063 		add	r3, r3, #2816
 3167 021c 1B69     		ldr	r3, [r3, #16]
 3168 021e 3A69     		ldr	r2, [r7, #16]
 3169 0220 5101     		lsls	r1, r2, #5
 3170 0222 7A69     		ldr	r2, [r7, #20]
 3171 0224 0A44     		add	r2, r2, r1
 3172 0226 02F53062 		add	r2, r2, #2816
 3173 022a 43F40023 		orr	r3, r3, #524288
 3174 022e 1361     		str	r3, [r2, #16]
 926:Drivers/STM32F4xx_HAL_Driver/Src/stm32f4xx_ll_usb.c ****     USBx_OUTEP(epnum)->DOEPTSIZ |= (USB_OTG_DOEPTSIZ_XFRSIZ & (ep->maxpacket));
 3175              		.loc 1 926 33
 3176 0230 3B69     		ldr	r3, [r7, #16]
 3177 0232 5A01     		lsls	r2, r3, #5
 3178 0234 7B69     		ldr	r3, [r7, #20]
 3179 0236 1344     		add	r3, r3, r2
 3180 0238 03F53063 		add	r3, r3, #2816
 3181 023c 1A69     		ldr	r2, [r3, #16]
 3182              		.loc 1 926 66
 3183 023e BB68     		ldr	r3, [r7, #8]
 3184 0240 9B68     		ldr	r3, [r3, #8]
 3185              		.loc 1 926 61
 3186 0242 C3F31203 		ubfx	r3, r3, #0, #19
 3187              		.loc 1 926 33
 3188 0246 3969     		ldr	r1, [r7, #16]
 3189 0248 4801     		lsls	r0, r1, #5
 3190 024a 7969     		ldr	r1, [r7, #20]
 3191 024c 0144     		add	r1, r1, r0
 3192 024e 01F53061 		add	r1, r1, #2816
 3193 0252 1343     		orrs	r3, r3, r2
ARM GAS  /var/folders/vq/qt4vp3kd5rxf7v2b6_fdtdt80000gn/T//ccOb9Y7L.s 			page 73


 3194 0254 0B61     		str	r3, [r1, #16]
 927:Drivers/STM32F4xx_HAL_Driver/Src/stm32f4xx_ll_usb.c **** 
 928:Drivers/STM32F4xx_HAL_Driver/Src/stm32f4xx_ll_usb.c ****     if (dma == 1U)
 3195              		.loc 1 928 8
 3196 0256 FB79     		ldrb	r3, [r7, #7]	@ zero_extendqisi2
 3197 0258 012B     		cmp	r3, #1
 3198 025a 0DD1     		bne	.L135
 929:Drivers/STM32F4xx_HAL_Driver/Src/stm32f4xx_ll_usb.c ****     {
 930:Drivers/STM32F4xx_HAL_Driver/Src/stm32f4xx_ll_usb.c ****       if ((uint32_t)ep->xfer_buff != 0U)
 3199              		.loc 1 930 23
 3200 025c BB68     		ldr	r3, [r7, #8]
 3201 025e DB68     		ldr	r3, [r3, #12]
 3202              		.loc 1 930 10
 3203 0260 002B     		cmp	r3, #0
 3204 0262 09D0     		beq	.L135
 931:Drivers/STM32F4xx_HAL_Driver/Src/stm32f4xx_ll_usb.c ****       {
 932:Drivers/STM32F4xx_HAL_Driver/Src/stm32f4xx_ll_usb.c ****         USBx_OUTEP(epnum)->DOEPDMA = (uint32_t)(ep->xfer_buff);
 3205              		.loc 1 932 51
 3206 0264 BB68     		ldr	r3, [r7, #8]
 3207 0266 D968     		ldr	r1, [r3, #12]
 3208              		.loc 1 932 9
 3209 0268 3B69     		ldr	r3, [r7, #16]
 3210 026a 5A01     		lsls	r2, r3, #5
 3211 026c 7B69     		ldr	r3, [r7, #20]
 3212 026e 1344     		add	r3, r3, r2
 3213 0270 03F53063 		add	r3, r3, #2816
 3214              		.loc 1 932 38
 3215 0274 0A46     		mov	r2, r1
 3216              		.loc 1 932 36
 3217 0276 5A61     		str	r2, [r3, #20]
 3218              	.L135:
 933:Drivers/STM32F4xx_HAL_Driver/Src/stm32f4xx_ll_usb.c ****       }
 934:Drivers/STM32F4xx_HAL_Driver/Src/stm32f4xx_ll_usb.c ****     }
 935:Drivers/STM32F4xx_HAL_Driver/Src/stm32f4xx_ll_usb.c **** 
 936:Drivers/STM32F4xx_HAL_Driver/Src/stm32f4xx_ll_usb.c ****     /* EP enable */
 937:Drivers/STM32F4xx_HAL_Driver/Src/stm32f4xx_ll_usb.c ****     USBx_OUTEP(epnum)->DOEPCTL |= (USB_OTG_DOEPCTL_CNAK | USB_OTG_DOEPCTL_EPENA);
 3219              		.loc 1 937 32
 3220 0278 3B69     		ldr	r3, [r7, #16]
 3221 027a 5A01     		lsls	r2, r3, #5
 3222 027c 7B69     		ldr	r3, [r7, #20]
 3223 027e 1344     		add	r3, r3, r2
 3224 0280 03F53063 		add	r3, r3, #2816
 3225 0284 1B68     		ldr	r3, [r3]
 3226 0286 3A69     		ldr	r2, [r7, #16]
 3227 0288 5101     		lsls	r1, r2, #5
 3228 028a 7A69     		ldr	r2, [r7, #20]
 3229 028c 0A44     		add	r2, r2, r1
 3230 028e 02F53062 		add	r2, r2, #2816
 3231 0292 43F00443 		orr	r3, r3, #-2080374784
 3232 0296 1360     		str	r3, [r2]
 3233              	.L133:
 938:Drivers/STM32F4xx_HAL_Driver/Src/stm32f4xx_ll_usb.c ****   }
 939:Drivers/STM32F4xx_HAL_Driver/Src/stm32f4xx_ll_usb.c **** 
 940:Drivers/STM32F4xx_HAL_Driver/Src/stm32f4xx_ll_usb.c ****   return HAL_OK;
 3234              		.loc 1 940 10
 3235 0298 0023     		movs	r3, #0
 941:Drivers/STM32F4xx_HAL_Driver/Src/stm32f4xx_ll_usb.c **** }
ARM GAS  /var/folders/vq/qt4vp3kd5rxf7v2b6_fdtdt80000gn/T//ccOb9Y7L.s 			page 74


 3236              		.loc 1 941 1
 3237 029a 1846     		mov	r0, r3
 3238 029c 1C37     		adds	r7, r7, #28
 3239              	.LCFI95:
 3240              		.cfi_def_cfa_offset 4
 3241 029e BD46     		mov	sp, r7
 3242              	.LCFI96:
 3243              		.cfi_def_cfa_register 13
 3244              		@ sp needed
 3245 02a0 5DF8047B 		ldr	r7, [sp], #4
 3246              	.LCFI97:
 3247              		.cfi_restore 7
 3248              		.cfi_def_cfa_offset 0
 3249 02a4 7047     		bx	lr
 3250              		.cfi_endproc
 3251              	.LFE145:
 3253              		.section	.text.USB_WritePacket,"ax",%progbits
 3254              		.align	1
 3255              		.global	USB_WritePacket
 3256              		.syntax unified
 3257              		.thumb
 3258              		.thumb_func
 3259              		.fpu fpv4-sp-d16
 3261              	USB_WritePacket:
 3262              	.LFB146:
 942:Drivers/STM32F4xx_HAL_Driver/Src/stm32f4xx_ll_usb.c **** 
 943:Drivers/STM32F4xx_HAL_Driver/Src/stm32f4xx_ll_usb.c **** /**
 944:Drivers/STM32F4xx_HAL_Driver/Src/stm32f4xx_ll_usb.c ****   * @brief  USB_WritePacket : Writes a packet into the Tx FIFO associated
 945:Drivers/STM32F4xx_HAL_Driver/Src/stm32f4xx_ll_usb.c ****   *         with the EP/channel
 946:Drivers/STM32F4xx_HAL_Driver/Src/stm32f4xx_ll_usb.c ****   * @param  USBx  Selected device
 947:Drivers/STM32F4xx_HAL_Driver/Src/stm32f4xx_ll_usb.c ****   * @param  src   pointer to source buffer
 948:Drivers/STM32F4xx_HAL_Driver/Src/stm32f4xx_ll_usb.c ****   * @param  ch_ep_num  endpoint or host channel number
 949:Drivers/STM32F4xx_HAL_Driver/Src/stm32f4xx_ll_usb.c ****   * @param  len  Number of bytes to write
 950:Drivers/STM32F4xx_HAL_Driver/Src/stm32f4xx_ll_usb.c ****   * @param  dma USB dma enabled or disabled
 951:Drivers/STM32F4xx_HAL_Driver/Src/stm32f4xx_ll_usb.c ****   *          This parameter can be one of these values:
 952:Drivers/STM32F4xx_HAL_Driver/Src/stm32f4xx_ll_usb.c ****   *           0 : DMA feature not used
 953:Drivers/STM32F4xx_HAL_Driver/Src/stm32f4xx_ll_usb.c ****   *           1 : DMA feature used
 954:Drivers/STM32F4xx_HAL_Driver/Src/stm32f4xx_ll_usb.c ****   * @retval HAL status
 955:Drivers/STM32F4xx_HAL_Driver/Src/stm32f4xx_ll_usb.c ****   */
 956:Drivers/STM32F4xx_HAL_Driver/Src/stm32f4xx_ll_usb.c **** HAL_StatusTypeDef USB_WritePacket(USB_OTG_GlobalTypeDef *USBx, uint8_t *src,
 957:Drivers/STM32F4xx_HAL_Driver/Src/stm32f4xx_ll_usb.c ****                                   uint8_t ch_ep_num, uint16_t len, uint8_t dma)
 958:Drivers/STM32F4xx_HAL_Driver/Src/stm32f4xx_ll_usb.c **** {
 3263              		.loc 1 958 1
 3264              		.cfi_startproc
 3265              		@ args = 4, pretend = 0, frame = 32
 3266              		@ frame_needed = 1, uses_anonymous_args = 0
 3267              		@ link register save eliminated.
 3268 0000 80B4     		push	{r7}
 3269              	.LCFI98:
 3270              		.cfi_def_cfa_offset 4
 3271              		.cfi_offset 7, -4
 3272 0002 89B0     		sub	sp, sp, #36
 3273              	.LCFI99:
 3274              		.cfi_def_cfa_offset 40
 3275 0004 00AF     		add	r7, sp, #0
 3276              	.LCFI100:
 3277              		.cfi_def_cfa_register 7
ARM GAS  /var/folders/vq/qt4vp3kd5rxf7v2b6_fdtdt80000gn/T//ccOb9Y7L.s 			page 75


 3278 0006 F860     		str	r0, [r7, #12]
 3279 0008 B960     		str	r1, [r7, #8]
 3280 000a 1146     		mov	r1, r2
 3281 000c 1A46     		mov	r2, r3
 3282 000e 0B46     		mov	r3, r1
 3283 0010 FB71     		strb	r3, [r7, #7]
 3284 0012 1346     		mov	r3, r2	@ movhi
 3285 0014 BB80     		strh	r3, [r7, #4]	@ movhi
 959:Drivers/STM32F4xx_HAL_Driver/Src/stm32f4xx_ll_usb.c ****   uint32_t USBx_BASE = (uint32_t)USBx;
 3286              		.loc 1 959 12
 3287 0016 FB68     		ldr	r3, [r7, #12]
 3288 0018 7B61     		str	r3, [r7, #20]
 960:Drivers/STM32F4xx_HAL_Driver/Src/stm32f4xx_ll_usb.c ****   uint32_t *pSrc = (uint32_t *)src;
 3289              		.loc 1 960 13
 3290 001a BB68     		ldr	r3, [r7, #8]
 3291 001c FB61     		str	r3, [r7, #28]
 961:Drivers/STM32F4xx_HAL_Driver/Src/stm32f4xx_ll_usb.c ****   uint32_t count32b, i;
 962:Drivers/STM32F4xx_HAL_Driver/Src/stm32f4xx_ll_usb.c **** 
 963:Drivers/STM32F4xx_HAL_Driver/Src/stm32f4xx_ll_usb.c ****   if (dma == 0U)
 3292              		.loc 1 963 6
 3293 001e 97F82830 		ldrb	r3, [r7, #40]	@ zero_extendqisi2
 3294 0022 002B     		cmp	r3, #0
 3295 0024 1AD1     		bne	.L138
 964:Drivers/STM32F4xx_HAL_Driver/Src/stm32f4xx_ll_usb.c ****   {
 965:Drivers/STM32F4xx_HAL_Driver/Src/stm32f4xx_ll_usb.c ****     count32b = ((uint32_t)len + 3U) / 4U;
 3296              		.loc 1 965 17
 3297 0026 BB88     		ldrh	r3, [r7, #4]
 3298              		.loc 1 965 31
 3299 0028 0333     		adds	r3, r3, #3
 3300              		.loc 1 965 14
 3301 002a 9B08     		lsrs	r3, r3, #2
 3302 002c 3B61     		str	r3, [r7, #16]
 966:Drivers/STM32F4xx_HAL_Driver/Src/stm32f4xx_ll_usb.c ****     for (i = 0U; i < count32b; i++)
 3303              		.loc 1 966 12
 3304 002e 0023     		movs	r3, #0
 3305 0030 BB61     		str	r3, [r7, #24]
 3306              		.loc 1 966 5
 3307 0032 0FE0     		b	.L139
 3308              	.L140:
 967:Drivers/STM32F4xx_HAL_Driver/Src/stm32f4xx_ll_usb.c ****     {
 968:Drivers/STM32F4xx_HAL_Driver/Src/stm32f4xx_ll_usb.c ****       USBx_DFIFO((uint32_t)ch_ep_num) = __UNALIGNED_UINT32_READ(pSrc);
 3309              		.loc 1 968 7 discriminator 3
 3310 0034 FB79     		ldrb	r3, [r7, #7]	@ zero_extendqisi2
 3311 0036 1A03     		lsls	r2, r3, #12
 3312 0038 7B69     		ldr	r3, [r7, #20]
 3313 003a 1344     		add	r3, r3, r2
 3314 003c 03F58053 		add	r3, r3, #4096
 3315 0040 1A46     		mov	r2, r3
 3316              		.loc 1 968 41 discriminator 3
 3317 0042 FB69     		ldr	r3, [r7, #28]
 3318 0044 1B68     		ldr	r3, [r3]	@ unaligned
 3319              		.loc 1 968 39 discriminator 3
 3320 0046 1360     		str	r3, [r2]
 969:Drivers/STM32F4xx_HAL_Driver/Src/stm32f4xx_ll_usb.c ****       pSrc++;
 3321              		.loc 1 969 11 discriminator 3
 3322 0048 FB69     		ldr	r3, [r7, #28]
 3323 004a 0433     		adds	r3, r3, #4
ARM GAS  /var/folders/vq/qt4vp3kd5rxf7v2b6_fdtdt80000gn/T//ccOb9Y7L.s 			page 76


 3324 004c FB61     		str	r3, [r7, #28]
 966:Drivers/STM32F4xx_HAL_Driver/Src/stm32f4xx_ll_usb.c ****     for (i = 0U; i < count32b; i++)
 3325              		.loc 1 966 33 discriminator 3
 3326 004e BB69     		ldr	r3, [r7, #24]
 3327 0050 0133     		adds	r3, r3, #1
 3328 0052 BB61     		str	r3, [r7, #24]
 3329              	.L139:
 966:Drivers/STM32F4xx_HAL_Driver/Src/stm32f4xx_ll_usb.c ****     for (i = 0U; i < count32b; i++)
 3330              		.loc 1 966 5 discriminator 1
 3331 0054 BA69     		ldr	r2, [r7, #24]
 3332 0056 3B69     		ldr	r3, [r7, #16]
 3333 0058 9A42     		cmp	r2, r3
 3334 005a EBD3     		bcc	.L140
 3335              	.L138:
 970:Drivers/STM32F4xx_HAL_Driver/Src/stm32f4xx_ll_usb.c ****     }
 971:Drivers/STM32F4xx_HAL_Driver/Src/stm32f4xx_ll_usb.c ****   }
 972:Drivers/STM32F4xx_HAL_Driver/Src/stm32f4xx_ll_usb.c **** 
 973:Drivers/STM32F4xx_HAL_Driver/Src/stm32f4xx_ll_usb.c ****   return HAL_OK;
 3336              		.loc 1 973 10
 3337 005c 0023     		movs	r3, #0
 974:Drivers/STM32F4xx_HAL_Driver/Src/stm32f4xx_ll_usb.c **** }
 3338              		.loc 1 974 1
 3339 005e 1846     		mov	r0, r3
 3340 0060 2437     		adds	r7, r7, #36
 3341              	.LCFI101:
 3342              		.cfi_def_cfa_offset 4
 3343 0062 BD46     		mov	sp, r7
 3344              	.LCFI102:
 3345              		.cfi_def_cfa_register 13
 3346              		@ sp needed
 3347 0064 5DF8047B 		ldr	r7, [sp], #4
 3348              	.LCFI103:
 3349              		.cfi_restore 7
 3350              		.cfi_def_cfa_offset 0
 3351 0068 7047     		bx	lr
 3352              		.cfi_endproc
 3353              	.LFE146:
 3355              		.section	.text.USB_ReadPacket,"ax",%progbits
 3356              		.align	1
 3357              		.global	USB_ReadPacket
 3358              		.syntax unified
 3359              		.thumb
 3360              		.thumb_func
 3361              		.fpu fpv4-sp-d16
 3363              	USB_ReadPacket:
 3364              	.LFB147:
 975:Drivers/STM32F4xx_HAL_Driver/Src/stm32f4xx_ll_usb.c **** 
 976:Drivers/STM32F4xx_HAL_Driver/Src/stm32f4xx_ll_usb.c **** /**
 977:Drivers/STM32F4xx_HAL_Driver/Src/stm32f4xx_ll_usb.c ****   * @brief  USB_ReadPacket : read a packet from the RX FIFO
 978:Drivers/STM32F4xx_HAL_Driver/Src/stm32f4xx_ll_usb.c ****   * @param  USBx  Selected device
 979:Drivers/STM32F4xx_HAL_Driver/Src/stm32f4xx_ll_usb.c ****   * @param  dest  source pointer
 980:Drivers/STM32F4xx_HAL_Driver/Src/stm32f4xx_ll_usb.c ****   * @param  len  Number of bytes to read
 981:Drivers/STM32F4xx_HAL_Driver/Src/stm32f4xx_ll_usb.c ****   * @retval pointer to destination buffer
 982:Drivers/STM32F4xx_HAL_Driver/Src/stm32f4xx_ll_usb.c ****   */
 983:Drivers/STM32F4xx_HAL_Driver/Src/stm32f4xx_ll_usb.c **** void *USB_ReadPacket(USB_OTG_GlobalTypeDef *USBx, uint8_t *dest, uint16_t len)
 984:Drivers/STM32F4xx_HAL_Driver/Src/stm32f4xx_ll_usb.c **** {
 3365              		.loc 1 984 1
ARM GAS  /var/folders/vq/qt4vp3kd5rxf7v2b6_fdtdt80000gn/T//ccOb9Y7L.s 			page 77


 3366              		.cfi_startproc
 3367              		@ args = 0, pretend = 0, frame = 32
 3368              		@ frame_needed = 1, uses_anonymous_args = 0
 3369              		@ link register save eliminated.
 3370 0000 80B4     		push	{r7}
 3371              	.LCFI104:
 3372              		.cfi_def_cfa_offset 4
 3373              		.cfi_offset 7, -4
 3374 0002 89B0     		sub	sp, sp, #36
 3375              	.LCFI105:
 3376              		.cfi_def_cfa_offset 40
 3377 0004 00AF     		add	r7, sp, #0
 3378              	.LCFI106:
 3379              		.cfi_def_cfa_register 7
 3380 0006 F860     		str	r0, [r7, #12]
 3381 0008 B960     		str	r1, [r7, #8]
 3382 000a 1346     		mov	r3, r2
 3383 000c FB80     		strh	r3, [r7, #6]	@ movhi
 985:Drivers/STM32F4xx_HAL_Driver/Src/stm32f4xx_ll_usb.c ****   uint32_t USBx_BASE = (uint32_t)USBx;
 3384              		.loc 1 985 12
 3385 000e FB68     		ldr	r3, [r7, #12]
 3386 0010 7B61     		str	r3, [r7, #20]
 986:Drivers/STM32F4xx_HAL_Driver/Src/stm32f4xx_ll_usb.c ****   uint32_t *pDest = (uint32_t *)dest;
 3387              		.loc 1 986 13
 3388 0012 BB68     		ldr	r3, [r7, #8]
 3389 0014 FB61     		str	r3, [r7, #28]
 987:Drivers/STM32F4xx_HAL_Driver/Src/stm32f4xx_ll_usb.c ****   uint32_t i;
 988:Drivers/STM32F4xx_HAL_Driver/Src/stm32f4xx_ll_usb.c ****   uint32_t count32b = ((uint32_t)len + 3U) / 4U;
 3390              		.loc 1 988 24
 3391 0016 FB88     		ldrh	r3, [r7, #6]
 3392              		.loc 1 988 38
 3393 0018 0333     		adds	r3, r3, #3
 3394              		.loc 1 988 12
 3395 001a 9B08     		lsrs	r3, r3, #2
 3396 001c 3B61     		str	r3, [r7, #16]
 989:Drivers/STM32F4xx_HAL_Driver/Src/stm32f4xx_ll_usb.c **** 
 990:Drivers/STM32F4xx_HAL_Driver/Src/stm32f4xx_ll_usb.c ****   for (i = 0U; i < count32b; i++)
 3397              		.loc 1 990 10
 3398 001e 0023     		movs	r3, #0
 3399 0020 BB61     		str	r3, [r7, #24]
 3400              		.loc 1 990 3
 3401 0022 0BE0     		b	.L143
 3402              	.L144:
 991:Drivers/STM32F4xx_HAL_Driver/Src/stm32f4xx_ll_usb.c ****   {
 992:Drivers/STM32F4xx_HAL_Driver/Src/stm32f4xx_ll_usb.c ****     __UNALIGNED_UINT32_WRITE(pDest, USBx_DFIFO(0U));
 3403              		.loc 1 992 5 discriminator 3
 3404 0024 7B69     		ldr	r3, [r7, #20]
 3405 0026 03F58053 		add	r3, r3, #4096
 3406 002a 1A68     		ldr	r2, [r3]
 3407 002c FB69     		ldr	r3, [r7, #28]
 3408 002e 1A60     		str	r2, [r3]	@ unaligned
 993:Drivers/STM32F4xx_HAL_Driver/Src/stm32f4xx_ll_usb.c ****     pDest++;
 3409              		.loc 1 993 10 discriminator 3
 3410 0030 FB69     		ldr	r3, [r7, #28]
 3411 0032 0433     		adds	r3, r3, #4
 3412 0034 FB61     		str	r3, [r7, #28]
 990:Drivers/STM32F4xx_HAL_Driver/Src/stm32f4xx_ll_usb.c ****   {
ARM GAS  /var/folders/vq/qt4vp3kd5rxf7v2b6_fdtdt80000gn/T//ccOb9Y7L.s 			page 78


 3413              		.loc 1 990 31 discriminator 3
 3414 0036 BB69     		ldr	r3, [r7, #24]
 3415 0038 0133     		adds	r3, r3, #1
 3416 003a BB61     		str	r3, [r7, #24]
 3417              	.L143:
 990:Drivers/STM32F4xx_HAL_Driver/Src/stm32f4xx_ll_usb.c ****   {
 3418              		.loc 1 990 3 discriminator 1
 3419 003c BA69     		ldr	r2, [r7, #24]
 3420 003e 3B69     		ldr	r3, [r7, #16]
 3421 0040 9A42     		cmp	r2, r3
 3422 0042 EFD3     		bcc	.L144
 994:Drivers/STM32F4xx_HAL_Driver/Src/stm32f4xx_ll_usb.c ****   }
 995:Drivers/STM32F4xx_HAL_Driver/Src/stm32f4xx_ll_usb.c **** 
 996:Drivers/STM32F4xx_HAL_Driver/Src/stm32f4xx_ll_usb.c ****   return ((void *)pDest);
 3423              		.loc 1 996 11
 3424 0044 FB69     		ldr	r3, [r7, #28]
 997:Drivers/STM32F4xx_HAL_Driver/Src/stm32f4xx_ll_usb.c **** }
 3425              		.loc 1 997 1
 3426 0046 1846     		mov	r0, r3
 3427 0048 2437     		adds	r7, r7, #36
 3428              	.LCFI107:
 3429              		.cfi_def_cfa_offset 4
 3430 004a BD46     		mov	sp, r7
 3431              	.LCFI108:
 3432              		.cfi_def_cfa_register 13
 3433              		@ sp needed
 3434 004c 5DF8047B 		ldr	r7, [sp], #4
 3435              	.LCFI109:
 3436              		.cfi_restore 7
 3437              		.cfi_def_cfa_offset 0
 3438 0050 7047     		bx	lr
 3439              		.cfi_endproc
 3440              	.LFE147:
 3442              		.section	.text.USB_EPSetStall,"ax",%progbits
 3443              		.align	1
 3444              		.global	USB_EPSetStall
 3445              		.syntax unified
 3446              		.thumb
 3447              		.thumb_func
 3448              		.fpu fpv4-sp-d16
 3450              	USB_EPSetStall:
 3451              	.LFB148:
 998:Drivers/STM32F4xx_HAL_Driver/Src/stm32f4xx_ll_usb.c **** 
 999:Drivers/STM32F4xx_HAL_Driver/Src/stm32f4xx_ll_usb.c **** /**
1000:Drivers/STM32F4xx_HAL_Driver/Src/stm32f4xx_ll_usb.c ****   * @brief  USB_EPSetStall : set a stall condition over an EP
1001:Drivers/STM32F4xx_HAL_Driver/Src/stm32f4xx_ll_usb.c ****   * @param  USBx  Selected device
1002:Drivers/STM32F4xx_HAL_Driver/Src/stm32f4xx_ll_usb.c ****   * @param  ep pointer to endpoint structure
1003:Drivers/STM32F4xx_HAL_Driver/Src/stm32f4xx_ll_usb.c ****   * @retval HAL status
1004:Drivers/STM32F4xx_HAL_Driver/Src/stm32f4xx_ll_usb.c ****   */
1005:Drivers/STM32F4xx_HAL_Driver/Src/stm32f4xx_ll_usb.c **** HAL_StatusTypeDef USB_EPSetStall(USB_OTG_GlobalTypeDef *USBx, USB_OTG_EPTypeDef *ep)
1006:Drivers/STM32F4xx_HAL_Driver/Src/stm32f4xx_ll_usb.c **** {
 3452              		.loc 1 1006 1
 3453              		.cfi_startproc
 3454              		@ args = 0, pretend = 0, frame = 16
 3455              		@ frame_needed = 1, uses_anonymous_args = 0
 3456              		@ link register save eliminated.
 3457 0000 80B4     		push	{r7}
ARM GAS  /var/folders/vq/qt4vp3kd5rxf7v2b6_fdtdt80000gn/T//ccOb9Y7L.s 			page 79


 3458              	.LCFI110:
 3459              		.cfi_def_cfa_offset 4
 3460              		.cfi_offset 7, -4
 3461 0002 85B0     		sub	sp, sp, #20
 3462              	.LCFI111:
 3463              		.cfi_def_cfa_offset 24
 3464 0004 00AF     		add	r7, sp, #0
 3465              	.LCFI112:
 3466              		.cfi_def_cfa_register 7
 3467 0006 7860     		str	r0, [r7, #4]
 3468 0008 3960     		str	r1, [r7]
1007:Drivers/STM32F4xx_HAL_Driver/Src/stm32f4xx_ll_usb.c ****   uint32_t USBx_BASE = (uint32_t)USBx;
 3469              		.loc 1 1007 12
 3470 000a 7B68     		ldr	r3, [r7, #4]
 3471 000c FB60     		str	r3, [r7, #12]
1008:Drivers/STM32F4xx_HAL_Driver/Src/stm32f4xx_ll_usb.c ****   uint32_t epnum = (uint32_t)ep->num;
 3472              		.loc 1 1008 32
 3473 000e 3B68     		ldr	r3, [r7]
 3474 0010 1B78     		ldrb	r3, [r3]	@ zero_extendqisi2
 3475              		.loc 1 1008 12
 3476 0012 BB60     		str	r3, [r7, #8]
1009:Drivers/STM32F4xx_HAL_Driver/Src/stm32f4xx_ll_usb.c **** 
1010:Drivers/STM32F4xx_HAL_Driver/Src/stm32f4xx_ll_usb.c ****   if (ep->is_in == 1U)
 3477              		.loc 1 1010 9
 3478 0014 3B68     		ldr	r3, [r7]
 3479 0016 5B78     		ldrb	r3, [r3, #1]	@ zero_extendqisi2
 3480              		.loc 1 1010 6
 3481 0018 012B     		cmp	r3, #1
 3482 001a 2CD1     		bne	.L147
1011:Drivers/STM32F4xx_HAL_Driver/Src/stm32f4xx_ll_usb.c ****   {
1012:Drivers/STM32F4xx_HAL_Driver/Src/stm32f4xx_ll_usb.c ****     if (((USBx_INEP(epnum)->DIEPCTL & USB_OTG_DIEPCTL_EPENA) == 0U) && (epnum != 0U))
 3483              		.loc 1 1012 11
 3484 001c BB68     		ldr	r3, [r7, #8]
 3485 001e 5A01     		lsls	r2, r3, #5
 3486 0020 FB68     		ldr	r3, [r7, #12]
 3487 0022 1344     		add	r3, r3, r2
 3488 0024 03F51063 		add	r3, r3, #2304
 3489              		.loc 1 1012 27
 3490 0028 1B68     		ldr	r3, [r3]
 3491              		.loc 1 1012 8
 3492 002a 002B     		cmp	r3, #0
 3493 002c 12DB     		blt	.L148
 3494              		.loc 1 1012 69 discriminator 1
 3495 002e BB68     		ldr	r3, [r7, #8]
 3496 0030 002B     		cmp	r3, #0
 3497 0032 0FD0     		beq	.L148
1013:Drivers/STM32F4xx_HAL_Driver/Src/stm32f4xx_ll_usb.c ****     {
1014:Drivers/STM32F4xx_HAL_Driver/Src/stm32f4xx_ll_usb.c ****       USBx_INEP(epnum)->DIEPCTL &= ~(USB_OTG_DIEPCTL_EPDIS);
 3498              		.loc 1 1014 33
 3499 0034 BB68     		ldr	r3, [r7, #8]
 3500 0036 5A01     		lsls	r2, r3, #5
 3501 0038 FB68     		ldr	r3, [r7, #12]
 3502 003a 1344     		add	r3, r3, r2
 3503 003c 03F51063 		add	r3, r3, #2304
 3504 0040 1B68     		ldr	r3, [r3]
 3505 0042 BA68     		ldr	r2, [r7, #8]
 3506 0044 5101     		lsls	r1, r2, #5
ARM GAS  /var/folders/vq/qt4vp3kd5rxf7v2b6_fdtdt80000gn/T//ccOb9Y7L.s 			page 80


 3507 0046 FA68     		ldr	r2, [r7, #12]
 3508 0048 0A44     		add	r2, r2, r1
 3509 004a 02F51062 		add	r2, r2, #2304
 3510 004e 23F08043 		bic	r3, r3, #1073741824
 3511 0052 1360     		str	r3, [r2]
 3512              	.L148:
1015:Drivers/STM32F4xx_HAL_Driver/Src/stm32f4xx_ll_usb.c ****     }
1016:Drivers/STM32F4xx_HAL_Driver/Src/stm32f4xx_ll_usb.c ****     USBx_INEP(epnum)->DIEPCTL |= USB_OTG_DIEPCTL_STALL;
 3513              		.loc 1 1016 31
 3514 0054 BB68     		ldr	r3, [r7, #8]
 3515 0056 5A01     		lsls	r2, r3, #5
 3516 0058 FB68     		ldr	r3, [r7, #12]
 3517 005a 1344     		add	r3, r3, r2
 3518 005c 03F51063 		add	r3, r3, #2304
 3519 0060 1B68     		ldr	r3, [r3]
 3520 0062 BA68     		ldr	r2, [r7, #8]
 3521 0064 5101     		lsls	r1, r2, #5
 3522 0066 FA68     		ldr	r2, [r7, #12]
 3523 0068 0A44     		add	r2, r2, r1
 3524 006a 02F51062 		add	r2, r2, #2304
 3525 006e 43F40013 		orr	r3, r3, #2097152
 3526 0072 1360     		str	r3, [r2]
 3527 0074 2BE0     		b	.L149
 3528              	.L147:
1017:Drivers/STM32F4xx_HAL_Driver/Src/stm32f4xx_ll_usb.c ****   }
1018:Drivers/STM32F4xx_HAL_Driver/Src/stm32f4xx_ll_usb.c ****   else
1019:Drivers/STM32F4xx_HAL_Driver/Src/stm32f4xx_ll_usb.c ****   {
1020:Drivers/STM32F4xx_HAL_Driver/Src/stm32f4xx_ll_usb.c ****     if (((USBx_OUTEP(epnum)->DOEPCTL & USB_OTG_DOEPCTL_EPENA) == 0U) && (epnum != 0U))
 3529              		.loc 1 1020 11
 3530 0076 BB68     		ldr	r3, [r7, #8]
 3531 0078 5A01     		lsls	r2, r3, #5
 3532 007a FB68     		ldr	r3, [r7, #12]
 3533 007c 1344     		add	r3, r3, r2
 3534 007e 03F53063 		add	r3, r3, #2816
 3535              		.loc 1 1020 28
 3536 0082 1B68     		ldr	r3, [r3]
 3537              		.loc 1 1020 8
 3538 0084 002B     		cmp	r3, #0
 3539 0086 12DB     		blt	.L150
 3540              		.loc 1 1020 70 discriminator 1
 3541 0088 BB68     		ldr	r3, [r7, #8]
 3542 008a 002B     		cmp	r3, #0
 3543 008c 0FD0     		beq	.L150
1021:Drivers/STM32F4xx_HAL_Driver/Src/stm32f4xx_ll_usb.c ****     {
1022:Drivers/STM32F4xx_HAL_Driver/Src/stm32f4xx_ll_usb.c ****       USBx_OUTEP(epnum)->DOEPCTL &= ~(USB_OTG_DOEPCTL_EPDIS);
 3544              		.loc 1 1022 34
 3545 008e BB68     		ldr	r3, [r7, #8]
 3546 0090 5A01     		lsls	r2, r3, #5
 3547 0092 FB68     		ldr	r3, [r7, #12]
 3548 0094 1344     		add	r3, r3, r2
 3549 0096 03F53063 		add	r3, r3, #2816
 3550 009a 1B68     		ldr	r3, [r3]
 3551 009c BA68     		ldr	r2, [r7, #8]
 3552 009e 5101     		lsls	r1, r2, #5
 3553 00a0 FA68     		ldr	r2, [r7, #12]
 3554 00a2 0A44     		add	r2, r2, r1
 3555 00a4 02F53062 		add	r2, r2, #2816
ARM GAS  /var/folders/vq/qt4vp3kd5rxf7v2b6_fdtdt80000gn/T//ccOb9Y7L.s 			page 81


 3556 00a8 23F08043 		bic	r3, r3, #1073741824
 3557 00ac 1360     		str	r3, [r2]
 3558              	.L150:
1023:Drivers/STM32F4xx_HAL_Driver/Src/stm32f4xx_ll_usb.c ****     }
1024:Drivers/STM32F4xx_HAL_Driver/Src/stm32f4xx_ll_usb.c ****     USBx_OUTEP(epnum)->DOEPCTL |= USB_OTG_DOEPCTL_STALL;
 3559              		.loc 1 1024 32
 3560 00ae BB68     		ldr	r3, [r7, #8]
 3561 00b0 5A01     		lsls	r2, r3, #5
 3562 00b2 FB68     		ldr	r3, [r7, #12]
 3563 00b4 1344     		add	r3, r3, r2
 3564 00b6 03F53063 		add	r3, r3, #2816
 3565 00ba 1B68     		ldr	r3, [r3]
 3566 00bc BA68     		ldr	r2, [r7, #8]
 3567 00be 5101     		lsls	r1, r2, #5
 3568 00c0 FA68     		ldr	r2, [r7, #12]
 3569 00c2 0A44     		add	r2, r2, r1
 3570 00c4 02F53062 		add	r2, r2, #2816
 3571 00c8 43F40013 		orr	r3, r3, #2097152
 3572 00cc 1360     		str	r3, [r2]
 3573              	.L149:
1025:Drivers/STM32F4xx_HAL_Driver/Src/stm32f4xx_ll_usb.c ****   }
1026:Drivers/STM32F4xx_HAL_Driver/Src/stm32f4xx_ll_usb.c **** 
1027:Drivers/STM32F4xx_HAL_Driver/Src/stm32f4xx_ll_usb.c ****   return HAL_OK;
 3574              		.loc 1 1027 10
 3575 00ce 0023     		movs	r3, #0
1028:Drivers/STM32F4xx_HAL_Driver/Src/stm32f4xx_ll_usb.c **** }
 3576              		.loc 1 1028 1
 3577 00d0 1846     		mov	r0, r3
 3578 00d2 1437     		adds	r7, r7, #20
 3579              	.LCFI113:
 3580              		.cfi_def_cfa_offset 4
 3581 00d4 BD46     		mov	sp, r7
 3582              	.LCFI114:
 3583              		.cfi_def_cfa_register 13
 3584              		@ sp needed
 3585 00d6 5DF8047B 		ldr	r7, [sp], #4
 3586              	.LCFI115:
 3587              		.cfi_restore 7
 3588              		.cfi_def_cfa_offset 0
 3589 00da 7047     		bx	lr
 3590              		.cfi_endproc
 3591              	.LFE148:
 3593              		.section	.text.USB_EPClearStall,"ax",%progbits
 3594              		.align	1
 3595              		.global	USB_EPClearStall
 3596              		.syntax unified
 3597              		.thumb
 3598              		.thumb_func
 3599              		.fpu fpv4-sp-d16
 3601              	USB_EPClearStall:
 3602              	.LFB149:
1029:Drivers/STM32F4xx_HAL_Driver/Src/stm32f4xx_ll_usb.c **** 
1030:Drivers/STM32F4xx_HAL_Driver/Src/stm32f4xx_ll_usb.c **** /**
1031:Drivers/STM32F4xx_HAL_Driver/Src/stm32f4xx_ll_usb.c ****   * @brief  USB_EPClearStall : Clear a stall condition over an EP
1032:Drivers/STM32F4xx_HAL_Driver/Src/stm32f4xx_ll_usb.c ****   * @param  USBx  Selected device
1033:Drivers/STM32F4xx_HAL_Driver/Src/stm32f4xx_ll_usb.c ****   * @param  ep pointer to endpoint structure
1034:Drivers/STM32F4xx_HAL_Driver/Src/stm32f4xx_ll_usb.c ****   * @retval HAL status
ARM GAS  /var/folders/vq/qt4vp3kd5rxf7v2b6_fdtdt80000gn/T//ccOb9Y7L.s 			page 82


1035:Drivers/STM32F4xx_HAL_Driver/Src/stm32f4xx_ll_usb.c ****   */
1036:Drivers/STM32F4xx_HAL_Driver/Src/stm32f4xx_ll_usb.c **** HAL_StatusTypeDef USB_EPClearStall(USB_OTG_GlobalTypeDef *USBx, USB_OTG_EPTypeDef *ep)
1037:Drivers/STM32F4xx_HAL_Driver/Src/stm32f4xx_ll_usb.c **** {
 3603              		.loc 1 1037 1
 3604              		.cfi_startproc
 3605              		@ args = 0, pretend = 0, frame = 16
 3606              		@ frame_needed = 1, uses_anonymous_args = 0
 3607              		@ link register save eliminated.
 3608 0000 80B4     		push	{r7}
 3609              	.LCFI116:
 3610              		.cfi_def_cfa_offset 4
 3611              		.cfi_offset 7, -4
 3612 0002 85B0     		sub	sp, sp, #20
 3613              	.LCFI117:
 3614              		.cfi_def_cfa_offset 24
 3615 0004 00AF     		add	r7, sp, #0
 3616              	.LCFI118:
 3617              		.cfi_def_cfa_register 7
 3618 0006 7860     		str	r0, [r7, #4]
 3619 0008 3960     		str	r1, [r7]
1038:Drivers/STM32F4xx_HAL_Driver/Src/stm32f4xx_ll_usb.c ****   uint32_t USBx_BASE = (uint32_t)USBx;
 3620              		.loc 1 1038 12
 3621 000a 7B68     		ldr	r3, [r7, #4]
 3622 000c FB60     		str	r3, [r7, #12]
1039:Drivers/STM32F4xx_HAL_Driver/Src/stm32f4xx_ll_usb.c ****   uint32_t epnum = (uint32_t)ep->num;
 3623              		.loc 1 1039 32
 3624 000e 3B68     		ldr	r3, [r7]
 3625 0010 1B78     		ldrb	r3, [r3]	@ zero_extendqisi2
 3626              		.loc 1 1039 12
 3627 0012 BB60     		str	r3, [r7, #8]
1040:Drivers/STM32F4xx_HAL_Driver/Src/stm32f4xx_ll_usb.c **** 
1041:Drivers/STM32F4xx_HAL_Driver/Src/stm32f4xx_ll_usb.c ****   if (ep->is_in == 1U)
 3628              		.loc 1 1041 9
 3629 0014 3B68     		ldr	r3, [r7]
 3630 0016 5B78     		ldrb	r3, [r3, #1]	@ zero_extendqisi2
 3631              		.loc 1 1041 6
 3632 0018 012B     		cmp	r3, #1
 3633 001a 28D1     		bne	.L153
1042:Drivers/STM32F4xx_HAL_Driver/Src/stm32f4xx_ll_usb.c ****   {
1043:Drivers/STM32F4xx_HAL_Driver/Src/stm32f4xx_ll_usb.c ****     USBx_INEP(epnum)->DIEPCTL &= ~USB_OTG_DIEPCTL_STALL;
 3634              		.loc 1 1043 31
 3635 001c BB68     		ldr	r3, [r7, #8]
 3636 001e 5A01     		lsls	r2, r3, #5
 3637 0020 FB68     		ldr	r3, [r7, #12]
 3638 0022 1344     		add	r3, r3, r2
 3639 0024 03F51063 		add	r3, r3, #2304
 3640 0028 1B68     		ldr	r3, [r3]
 3641 002a BA68     		ldr	r2, [r7, #8]
 3642 002c 5101     		lsls	r1, r2, #5
 3643 002e FA68     		ldr	r2, [r7, #12]
 3644 0030 0A44     		add	r2, r2, r1
 3645 0032 02F51062 		add	r2, r2, #2304
 3646 0036 23F40013 		bic	r3, r3, #2097152
 3647 003a 1360     		str	r3, [r2]
1044:Drivers/STM32F4xx_HAL_Driver/Src/stm32f4xx_ll_usb.c ****     if ((ep->type == EP_TYPE_INTR) || (ep->type == EP_TYPE_BULK))
 3648              		.loc 1 1044 12
 3649 003c 3B68     		ldr	r3, [r7]
ARM GAS  /var/folders/vq/qt4vp3kd5rxf7v2b6_fdtdt80000gn/T//ccOb9Y7L.s 			page 83


 3650 003e DB78     		ldrb	r3, [r3, #3]	@ zero_extendqisi2
 3651              		.loc 1 1044 8
 3652 0040 032B     		cmp	r3, #3
 3653 0042 03D0     		beq	.L154
 3654              		.loc 1 1044 42 discriminator 1
 3655 0044 3B68     		ldr	r3, [r7]
 3656 0046 DB78     		ldrb	r3, [r3, #3]	@ zero_extendqisi2
 3657              		.loc 1 1044 36 discriminator 1
 3658 0048 022B     		cmp	r3, #2
 3659 004a 38D1     		bne	.L155
 3660              	.L154:
1045:Drivers/STM32F4xx_HAL_Driver/Src/stm32f4xx_ll_usb.c ****     {
1046:Drivers/STM32F4xx_HAL_Driver/Src/stm32f4xx_ll_usb.c ****       USBx_INEP(epnum)->DIEPCTL |= USB_OTG_DIEPCTL_SD0PID_SEVNFRM; /* DATA0 */
 3661              		.loc 1 1046 33
 3662 004c BB68     		ldr	r3, [r7, #8]
 3663 004e 5A01     		lsls	r2, r3, #5
 3664 0050 FB68     		ldr	r3, [r7, #12]
 3665 0052 1344     		add	r3, r3, r2
 3666 0054 03F51063 		add	r3, r3, #2304
 3667 0058 1B68     		ldr	r3, [r3]
 3668 005a BA68     		ldr	r2, [r7, #8]
 3669 005c 5101     		lsls	r1, r2, #5
 3670 005e FA68     		ldr	r2, [r7, #12]
 3671 0060 0A44     		add	r2, r2, r1
 3672 0062 02F51062 		add	r2, r2, #2304
 3673 0066 43F08053 		orr	r3, r3, #268435456
 3674 006a 1360     		str	r3, [r2]
 3675 006c 27E0     		b	.L155
 3676              	.L153:
1047:Drivers/STM32F4xx_HAL_Driver/Src/stm32f4xx_ll_usb.c ****     }
1048:Drivers/STM32F4xx_HAL_Driver/Src/stm32f4xx_ll_usb.c ****   }
1049:Drivers/STM32F4xx_HAL_Driver/Src/stm32f4xx_ll_usb.c ****   else
1050:Drivers/STM32F4xx_HAL_Driver/Src/stm32f4xx_ll_usb.c ****   {
1051:Drivers/STM32F4xx_HAL_Driver/Src/stm32f4xx_ll_usb.c ****     USBx_OUTEP(epnum)->DOEPCTL &= ~USB_OTG_DOEPCTL_STALL;
 3677              		.loc 1 1051 32
 3678 006e BB68     		ldr	r3, [r7, #8]
 3679 0070 5A01     		lsls	r2, r3, #5
 3680 0072 FB68     		ldr	r3, [r7, #12]
 3681 0074 1344     		add	r3, r3, r2
 3682 0076 03F53063 		add	r3, r3, #2816
 3683 007a 1B68     		ldr	r3, [r3]
 3684 007c BA68     		ldr	r2, [r7, #8]
 3685 007e 5101     		lsls	r1, r2, #5
 3686 0080 FA68     		ldr	r2, [r7, #12]
 3687 0082 0A44     		add	r2, r2, r1
 3688 0084 02F53062 		add	r2, r2, #2816
 3689 0088 23F40013 		bic	r3, r3, #2097152
 3690 008c 1360     		str	r3, [r2]
1052:Drivers/STM32F4xx_HAL_Driver/Src/stm32f4xx_ll_usb.c ****     if ((ep->type == EP_TYPE_INTR) || (ep->type == EP_TYPE_BULK))
 3691              		.loc 1 1052 12
 3692 008e 3B68     		ldr	r3, [r7]
 3693 0090 DB78     		ldrb	r3, [r3, #3]	@ zero_extendqisi2
 3694              		.loc 1 1052 8
 3695 0092 032B     		cmp	r3, #3
 3696 0094 03D0     		beq	.L156
 3697              		.loc 1 1052 42 discriminator 1
 3698 0096 3B68     		ldr	r3, [r7]
ARM GAS  /var/folders/vq/qt4vp3kd5rxf7v2b6_fdtdt80000gn/T//ccOb9Y7L.s 			page 84


 3699 0098 DB78     		ldrb	r3, [r3, #3]	@ zero_extendqisi2
 3700              		.loc 1 1052 36 discriminator 1
 3701 009a 022B     		cmp	r3, #2
 3702 009c 0FD1     		bne	.L155
 3703              	.L156:
1053:Drivers/STM32F4xx_HAL_Driver/Src/stm32f4xx_ll_usb.c ****     {
1054:Drivers/STM32F4xx_HAL_Driver/Src/stm32f4xx_ll_usb.c ****       USBx_OUTEP(epnum)->DOEPCTL |= USB_OTG_DOEPCTL_SD0PID_SEVNFRM; /* DATA0 */
 3704              		.loc 1 1054 34
 3705 009e BB68     		ldr	r3, [r7, #8]
 3706 00a0 5A01     		lsls	r2, r3, #5
 3707 00a2 FB68     		ldr	r3, [r7, #12]
 3708 00a4 1344     		add	r3, r3, r2
 3709 00a6 03F53063 		add	r3, r3, #2816
 3710 00aa 1B68     		ldr	r3, [r3]
 3711 00ac BA68     		ldr	r2, [r7, #8]
 3712 00ae 5101     		lsls	r1, r2, #5
 3713 00b0 FA68     		ldr	r2, [r7, #12]
 3714 00b2 0A44     		add	r2, r2, r1
 3715 00b4 02F53062 		add	r2, r2, #2816
 3716 00b8 43F08053 		orr	r3, r3, #268435456
 3717 00bc 1360     		str	r3, [r2]
 3718              	.L155:
1055:Drivers/STM32F4xx_HAL_Driver/Src/stm32f4xx_ll_usb.c ****     }
1056:Drivers/STM32F4xx_HAL_Driver/Src/stm32f4xx_ll_usb.c ****   }
1057:Drivers/STM32F4xx_HAL_Driver/Src/stm32f4xx_ll_usb.c ****   return HAL_OK;
 3719              		.loc 1 1057 10
 3720 00be 0023     		movs	r3, #0
1058:Drivers/STM32F4xx_HAL_Driver/Src/stm32f4xx_ll_usb.c **** }
 3721              		.loc 1 1058 1
 3722 00c0 1846     		mov	r0, r3
 3723 00c2 1437     		adds	r7, r7, #20
 3724              	.LCFI119:
 3725              		.cfi_def_cfa_offset 4
 3726 00c4 BD46     		mov	sp, r7
 3727              	.LCFI120:
 3728              		.cfi_def_cfa_register 13
 3729              		@ sp needed
 3730 00c6 5DF8047B 		ldr	r7, [sp], #4
 3731              	.LCFI121:
 3732              		.cfi_restore 7
 3733              		.cfi_def_cfa_offset 0
 3734 00ca 7047     		bx	lr
 3735              		.cfi_endproc
 3736              	.LFE149:
 3738              		.section	.text.USB_StopDevice,"ax",%progbits
 3739              		.align	1
 3740              		.global	USB_StopDevice
 3741              		.syntax unified
 3742              		.thumb
 3743              		.thumb_func
 3744              		.fpu fpv4-sp-d16
 3746              	USB_StopDevice:
 3747              	.LFB150:
1059:Drivers/STM32F4xx_HAL_Driver/Src/stm32f4xx_ll_usb.c **** 
1060:Drivers/STM32F4xx_HAL_Driver/Src/stm32f4xx_ll_usb.c **** /**
1061:Drivers/STM32F4xx_HAL_Driver/Src/stm32f4xx_ll_usb.c ****   * @brief  USB_StopDevice : Stop the usb device mode
1062:Drivers/STM32F4xx_HAL_Driver/Src/stm32f4xx_ll_usb.c ****   * @param  USBx  Selected device
ARM GAS  /var/folders/vq/qt4vp3kd5rxf7v2b6_fdtdt80000gn/T//ccOb9Y7L.s 			page 85


1063:Drivers/STM32F4xx_HAL_Driver/Src/stm32f4xx_ll_usb.c ****   * @retval HAL status
1064:Drivers/STM32F4xx_HAL_Driver/Src/stm32f4xx_ll_usb.c ****   */
1065:Drivers/STM32F4xx_HAL_Driver/Src/stm32f4xx_ll_usb.c **** HAL_StatusTypeDef USB_StopDevice(USB_OTG_GlobalTypeDef *USBx)
1066:Drivers/STM32F4xx_HAL_Driver/Src/stm32f4xx_ll_usb.c **** {
 3748              		.loc 1 1066 1
 3749              		.cfi_startproc
 3750              		@ args = 0, pretend = 0, frame = 24
 3751              		@ frame_needed = 1, uses_anonymous_args = 0
 3752 0000 80B5     		push	{r7, lr}
 3753              	.LCFI122:
 3754              		.cfi_def_cfa_offset 8
 3755              		.cfi_offset 7, -8
 3756              		.cfi_offset 14, -4
 3757 0002 86B0     		sub	sp, sp, #24
 3758              	.LCFI123:
 3759              		.cfi_def_cfa_offset 32
 3760 0004 00AF     		add	r7, sp, #0
 3761              	.LCFI124:
 3762              		.cfi_def_cfa_register 7
 3763 0006 7860     		str	r0, [r7, #4]
1067:Drivers/STM32F4xx_HAL_Driver/Src/stm32f4xx_ll_usb.c ****   HAL_StatusTypeDef ret;
1068:Drivers/STM32F4xx_HAL_Driver/Src/stm32f4xx_ll_usb.c ****   uint32_t USBx_BASE = (uint32_t)USBx;
 3764              		.loc 1 1068 12
 3765 0008 7B68     		ldr	r3, [r7, #4]
 3766 000a 3B61     		str	r3, [r7, #16]
1069:Drivers/STM32F4xx_HAL_Driver/Src/stm32f4xx_ll_usb.c ****   uint32_t i;
1070:Drivers/STM32F4xx_HAL_Driver/Src/stm32f4xx_ll_usb.c **** 
1071:Drivers/STM32F4xx_HAL_Driver/Src/stm32f4xx_ll_usb.c ****   /* Clear Pending interrupt */
1072:Drivers/STM32F4xx_HAL_Driver/Src/stm32f4xx_ll_usb.c ****   for (i = 0U; i < 15U; i++)
 3767              		.loc 1 1072 10
 3768 000c 0023     		movs	r3, #0
 3769 000e 7B61     		str	r3, [r7, #20]
 3770              		.loc 1 1072 3
 3771 0010 16E0     		b	.L159
 3772              	.L160:
1073:Drivers/STM32F4xx_HAL_Driver/Src/stm32f4xx_ll_usb.c ****   {
1074:Drivers/STM32F4xx_HAL_Driver/Src/stm32f4xx_ll_usb.c ****     USBx_INEP(i)->DIEPINT = 0xFB7FU;
 3773              		.loc 1 1074 5 discriminator 3
 3774 0012 7B69     		ldr	r3, [r7, #20]
 3775 0014 5A01     		lsls	r2, r3, #5
 3776 0016 3B69     		ldr	r3, [r7, #16]
 3777 0018 1344     		add	r3, r3, r2
 3778 001a 03F51063 		add	r3, r3, #2304
 3779 001e 1A46     		mov	r2, r3
 3780              		.loc 1 1074 27 discriminator 3
 3781 0020 4FF67F33 		movw	r3, #64383
 3782 0024 9360     		str	r3, [r2, #8]
1075:Drivers/STM32F4xx_HAL_Driver/Src/stm32f4xx_ll_usb.c ****     USBx_OUTEP(i)->DOEPINT = 0xFB7FU;
 3783              		.loc 1 1075 5 discriminator 3
 3784 0026 7B69     		ldr	r3, [r7, #20]
 3785 0028 5A01     		lsls	r2, r3, #5
 3786 002a 3B69     		ldr	r3, [r7, #16]
 3787 002c 1344     		add	r3, r3, r2
 3788 002e 03F53063 		add	r3, r3, #2816
 3789 0032 1A46     		mov	r2, r3
 3790              		.loc 1 1075 28 discriminator 3
 3791 0034 4FF67F33 		movw	r3, #64383
ARM GAS  /var/folders/vq/qt4vp3kd5rxf7v2b6_fdtdt80000gn/T//ccOb9Y7L.s 			page 86


 3792 0038 9360     		str	r3, [r2, #8]
1072:Drivers/STM32F4xx_HAL_Driver/Src/stm32f4xx_ll_usb.c ****   {
 3793              		.loc 1 1072 26 discriminator 3
 3794 003a 7B69     		ldr	r3, [r7, #20]
 3795 003c 0133     		adds	r3, r3, #1
 3796 003e 7B61     		str	r3, [r7, #20]
 3797              	.L159:
1072:Drivers/STM32F4xx_HAL_Driver/Src/stm32f4xx_ll_usb.c ****   {
 3798              		.loc 1 1072 3 discriminator 1
 3799 0040 7B69     		ldr	r3, [r7, #20]
 3800 0042 0E2B     		cmp	r3, #14
 3801 0044 E5D9     		bls	.L160
1076:Drivers/STM32F4xx_HAL_Driver/Src/stm32f4xx_ll_usb.c ****   }
1077:Drivers/STM32F4xx_HAL_Driver/Src/stm32f4xx_ll_usb.c **** 
1078:Drivers/STM32F4xx_HAL_Driver/Src/stm32f4xx_ll_usb.c ****   /* Clear interrupt masks */
1079:Drivers/STM32F4xx_HAL_Driver/Src/stm32f4xx_ll_usb.c ****   USBx_DEVICE->DIEPMSK  = 0U;
 3802              		.loc 1 1079 3
 3803 0046 3B69     		ldr	r3, [r7, #16]
 3804 0048 03F50063 		add	r3, r3, #2048
 3805 004c 1A46     		mov	r2, r3
 3806              		.loc 1 1079 25
 3807 004e 0023     		movs	r3, #0
 3808 0050 1361     		str	r3, [r2, #16]
1080:Drivers/STM32F4xx_HAL_Driver/Src/stm32f4xx_ll_usb.c ****   USBx_DEVICE->DOEPMSK  = 0U;
 3809              		.loc 1 1080 3
 3810 0052 3B69     		ldr	r3, [r7, #16]
 3811 0054 03F50063 		add	r3, r3, #2048
 3812 0058 1A46     		mov	r2, r3
 3813              		.loc 1 1080 25
 3814 005a 0023     		movs	r3, #0
 3815 005c 5361     		str	r3, [r2, #20]
1081:Drivers/STM32F4xx_HAL_Driver/Src/stm32f4xx_ll_usb.c ****   USBx_DEVICE->DAINTMSK = 0U;
 3816              		.loc 1 1081 3
 3817 005e 3B69     		ldr	r3, [r7, #16]
 3818 0060 03F50063 		add	r3, r3, #2048
 3819 0064 1A46     		mov	r2, r3
 3820              		.loc 1 1081 25
 3821 0066 0023     		movs	r3, #0
 3822 0068 D361     		str	r3, [r2, #28]
1082:Drivers/STM32F4xx_HAL_Driver/Src/stm32f4xx_ll_usb.c **** 
1083:Drivers/STM32F4xx_HAL_Driver/Src/stm32f4xx_ll_usb.c ****   /* Flush the FIFO */
1084:Drivers/STM32F4xx_HAL_Driver/Src/stm32f4xx_ll_usb.c ****   ret = USB_FlushRxFifo(USBx);
 3823              		.loc 1 1084 9
 3824 006a 7868     		ldr	r0, [r7, #4]
 3825 006c FFF7FEFF 		bl	USB_FlushRxFifo
 3826 0070 0346     		mov	r3, r0
 3827 0072 FB73     		strb	r3, [r7, #15]
1085:Drivers/STM32F4xx_HAL_Driver/Src/stm32f4xx_ll_usb.c ****   if (ret != HAL_OK)
 3828              		.loc 1 1085 6
 3829 0074 FB7B     		ldrb	r3, [r7, #15]	@ zero_extendqisi2
 3830 0076 002B     		cmp	r3, #0
 3831 0078 01D0     		beq	.L161
1086:Drivers/STM32F4xx_HAL_Driver/Src/stm32f4xx_ll_usb.c ****   {
1087:Drivers/STM32F4xx_HAL_Driver/Src/stm32f4xx_ll_usb.c ****     return ret;
 3832              		.loc 1 1087 12
 3833 007a FB7B     		ldrb	r3, [r7, #15]	@ zero_extendqisi2
 3834 007c 0BE0     		b	.L162
ARM GAS  /var/folders/vq/qt4vp3kd5rxf7v2b6_fdtdt80000gn/T//ccOb9Y7L.s 			page 87


 3835              	.L161:
1088:Drivers/STM32F4xx_HAL_Driver/Src/stm32f4xx_ll_usb.c ****   }
1089:Drivers/STM32F4xx_HAL_Driver/Src/stm32f4xx_ll_usb.c **** 
1090:Drivers/STM32F4xx_HAL_Driver/Src/stm32f4xx_ll_usb.c ****   ret = USB_FlushTxFifo(USBx,  0x10U);
 3836              		.loc 1 1090 9
 3837 007e 1021     		movs	r1, #16
 3838 0080 7868     		ldr	r0, [r7, #4]
 3839 0082 FFF7FEFF 		bl	USB_FlushTxFifo
 3840 0086 0346     		mov	r3, r0
 3841 0088 FB73     		strb	r3, [r7, #15]
1091:Drivers/STM32F4xx_HAL_Driver/Src/stm32f4xx_ll_usb.c ****   if (ret != HAL_OK)
 3842              		.loc 1 1091 6
 3843 008a FB7B     		ldrb	r3, [r7, #15]	@ zero_extendqisi2
 3844 008c 002B     		cmp	r3, #0
 3845 008e 01D0     		beq	.L163
1092:Drivers/STM32F4xx_HAL_Driver/Src/stm32f4xx_ll_usb.c ****   {
1093:Drivers/STM32F4xx_HAL_Driver/Src/stm32f4xx_ll_usb.c ****     return ret;
 3846              		.loc 1 1093 12
 3847 0090 FB7B     		ldrb	r3, [r7, #15]	@ zero_extendqisi2
 3848 0092 00E0     		b	.L162
 3849              	.L163:
1094:Drivers/STM32F4xx_HAL_Driver/Src/stm32f4xx_ll_usb.c ****   }
1095:Drivers/STM32F4xx_HAL_Driver/Src/stm32f4xx_ll_usb.c **** 
1096:Drivers/STM32F4xx_HAL_Driver/Src/stm32f4xx_ll_usb.c ****   return ret;
 3850              		.loc 1 1096 10
 3851 0094 FB7B     		ldrb	r3, [r7, #15]	@ zero_extendqisi2
 3852              	.L162:
1097:Drivers/STM32F4xx_HAL_Driver/Src/stm32f4xx_ll_usb.c **** }
 3853              		.loc 1 1097 1
 3854 0096 1846     		mov	r0, r3
 3855 0098 1837     		adds	r7, r7, #24
 3856              	.LCFI125:
 3857              		.cfi_def_cfa_offset 8
 3858 009a BD46     		mov	sp, r7
 3859              	.LCFI126:
 3860              		.cfi_def_cfa_register 13
 3861              		@ sp needed
 3862 009c 80BD     		pop	{r7, pc}
 3863              		.cfi_endproc
 3864              	.LFE150:
 3866              		.section	.text.USB_SetDevAddress,"ax",%progbits
 3867              		.align	1
 3868              		.global	USB_SetDevAddress
 3869              		.syntax unified
 3870              		.thumb
 3871              		.thumb_func
 3872              		.fpu fpv4-sp-d16
 3874              	USB_SetDevAddress:
 3875              	.LFB151:
1098:Drivers/STM32F4xx_HAL_Driver/Src/stm32f4xx_ll_usb.c **** 
1099:Drivers/STM32F4xx_HAL_Driver/Src/stm32f4xx_ll_usb.c **** /**
1100:Drivers/STM32F4xx_HAL_Driver/Src/stm32f4xx_ll_usb.c ****   * @brief  USB_SetDevAddress : Stop the usb device mode
1101:Drivers/STM32F4xx_HAL_Driver/Src/stm32f4xx_ll_usb.c ****   * @param  USBx  Selected device
1102:Drivers/STM32F4xx_HAL_Driver/Src/stm32f4xx_ll_usb.c ****   * @param  address  new device address to be assigned
1103:Drivers/STM32F4xx_HAL_Driver/Src/stm32f4xx_ll_usb.c ****   *          This parameter can be a value from 0 to 255
1104:Drivers/STM32F4xx_HAL_Driver/Src/stm32f4xx_ll_usb.c ****   * @retval HAL status
1105:Drivers/STM32F4xx_HAL_Driver/Src/stm32f4xx_ll_usb.c ****   */
ARM GAS  /var/folders/vq/qt4vp3kd5rxf7v2b6_fdtdt80000gn/T//ccOb9Y7L.s 			page 88


1106:Drivers/STM32F4xx_HAL_Driver/Src/stm32f4xx_ll_usb.c **** HAL_StatusTypeDef  USB_SetDevAddress(USB_OTG_GlobalTypeDef *USBx, uint8_t address)
1107:Drivers/STM32F4xx_HAL_Driver/Src/stm32f4xx_ll_usb.c **** {
 3876              		.loc 1 1107 1
 3877              		.cfi_startproc
 3878              		@ args = 0, pretend = 0, frame = 16
 3879              		@ frame_needed = 1, uses_anonymous_args = 0
 3880              		@ link register save eliminated.
 3881 0000 80B4     		push	{r7}
 3882              	.LCFI127:
 3883              		.cfi_def_cfa_offset 4
 3884              		.cfi_offset 7, -4
 3885 0002 85B0     		sub	sp, sp, #20
 3886              	.LCFI128:
 3887              		.cfi_def_cfa_offset 24
 3888 0004 00AF     		add	r7, sp, #0
 3889              	.LCFI129:
 3890              		.cfi_def_cfa_register 7
 3891 0006 7860     		str	r0, [r7, #4]
 3892 0008 0B46     		mov	r3, r1
 3893 000a FB70     		strb	r3, [r7, #3]
1108:Drivers/STM32F4xx_HAL_Driver/Src/stm32f4xx_ll_usb.c ****   uint32_t USBx_BASE = (uint32_t)USBx;
 3894              		.loc 1 1108 12
 3895 000c 7B68     		ldr	r3, [r7, #4]
 3896 000e FB60     		str	r3, [r7, #12]
1109:Drivers/STM32F4xx_HAL_Driver/Src/stm32f4xx_ll_usb.c **** 
1110:Drivers/STM32F4xx_HAL_Driver/Src/stm32f4xx_ll_usb.c ****   USBx_DEVICE->DCFG &= ~(USB_OTG_DCFG_DAD);
 3897              		.loc 1 1110 21
 3898 0010 FB68     		ldr	r3, [r7, #12]
 3899 0012 03F50063 		add	r3, r3, #2048
 3900 0016 1B68     		ldr	r3, [r3]
 3901 0018 FA68     		ldr	r2, [r7, #12]
 3902 001a 02F50062 		add	r2, r2, #2048
 3903 001e 23F4FE63 		bic	r3, r3, #2032
 3904 0022 1360     		str	r3, [r2]
1111:Drivers/STM32F4xx_HAL_Driver/Src/stm32f4xx_ll_usb.c ****   USBx_DEVICE->DCFG |= ((uint32_t)address << 4) & USB_OTG_DCFG_DAD;
 3905              		.loc 1 1111 21
 3906 0024 FB68     		ldr	r3, [r7, #12]
 3907 0026 03F50063 		add	r3, r3, #2048
 3908 002a 1A68     		ldr	r2, [r3]
 3909              		.loc 1 1111 25
 3910 002c FB78     		ldrb	r3, [r7, #3]	@ zero_extendqisi2
 3911              		.loc 1 1111 43
 3912 002e 1B01     		lsls	r3, r3, #4
 3913              		.loc 1 1111 49
 3914 0030 03F4FE63 		and	r3, r3, #2032
 3915              		.loc 1 1111 21
 3916 0034 F968     		ldr	r1, [r7, #12]
 3917 0036 01F50061 		add	r1, r1, #2048
 3918 003a 1343     		orrs	r3, r3, r2
 3919 003c 0B60     		str	r3, [r1]
1112:Drivers/STM32F4xx_HAL_Driver/Src/stm32f4xx_ll_usb.c **** 
1113:Drivers/STM32F4xx_HAL_Driver/Src/stm32f4xx_ll_usb.c ****   return HAL_OK;
 3920              		.loc 1 1113 10
 3921 003e 0023     		movs	r3, #0
1114:Drivers/STM32F4xx_HAL_Driver/Src/stm32f4xx_ll_usb.c **** }
 3922              		.loc 1 1114 1
 3923 0040 1846     		mov	r0, r3
ARM GAS  /var/folders/vq/qt4vp3kd5rxf7v2b6_fdtdt80000gn/T//ccOb9Y7L.s 			page 89


 3924 0042 1437     		adds	r7, r7, #20
 3925              	.LCFI130:
 3926              		.cfi_def_cfa_offset 4
 3927 0044 BD46     		mov	sp, r7
 3928              	.LCFI131:
 3929              		.cfi_def_cfa_register 13
 3930              		@ sp needed
 3931 0046 5DF8047B 		ldr	r7, [sp], #4
 3932              	.LCFI132:
 3933              		.cfi_restore 7
 3934              		.cfi_def_cfa_offset 0
 3935 004a 7047     		bx	lr
 3936              		.cfi_endproc
 3937              	.LFE151:
 3939              		.section	.text.USB_DevConnect,"ax",%progbits
 3940              		.align	1
 3941              		.global	USB_DevConnect
 3942              		.syntax unified
 3943              		.thumb
 3944              		.thumb_func
 3945              		.fpu fpv4-sp-d16
 3947              	USB_DevConnect:
 3948              	.LFB152:
1115:Drivers/STM32F4xx_HAL_Driver/Src/stm32f4xx_ll_usb.c **** 
1116:Drivers/STM32F4xx_HAL_Driver/Src/stm32f4xx_ll_usb.c **** /**
1117:Drivers/STM32F4xx_HAL_Driver/Src/stm32f4xx_ll_usb.c ****   * @brief  USB_DevConnect : Connect the USB device by enabling Rpu
1118:Drivers/STM32F4xx_HAL_Driver/Src/stm32f4xx_ll_usb.c ****   * @param  USBx  Selected device
1119:Drivers/STM32F4xx_HAL_Driver/Src/stm32f4xx_ll_usb.c ****   * @retval HAL status
1120:Drivers/STM32F4xx_HAL_Driver/Src/stm32f4xx_ll_usb.c ****   */
1121:Drivers/STM32F4xx_HAL_Driver/Src/stm32f4xx_ll_usb.c **** HAL_StatusTypeDef  USB_DevConnect(USB_OTG_GlobalTypeDef *USBx)
1122:Drivers/STM32F4xx_HAL_Driver/Src/stm32f4xx_ll_usb.c **** {
 3949              		.loc 1 1122 1
 3950              		.cfi_startproc
 3951              		@ args = 0, pretend = 0, frame = 16
 3952              		@ frame_needed = 1, uses_anonymous_args = 0
 3953              		@ link register save eliminated.
 3954 0000 80B4     		push	{r7}
 3955              	.LCFI133:
 3956              		.cfi_def_cfa_offset 4
 3957              		.cfi_offset 7, -4
 3958 0002 85B0     		sub	sp, sp, #20
 3959              	.LCFI134:
 3960              		.cfi_def_cfa_offset 24
 3961 0004 00AF     		add	r7, sp, #0
 3962              	.LCFI135:
 3963              		.cfi_def_cfa_register 7
 3964 0006 7860     		str	r0, [r7, #4]
1123:Drivers/STM32F4xx_HAL_Driver/Src/stm32f4xx_ll_usb.c ****   uint32_t USBx_BASE = (uint32_t)USBx;
 3965              		.loc 1 1123 12
 3966 0008 7B68     		ldr	r3, [r7, #4]
 3967 000a FB60     		str	r3, [r7, #12]
1124:Drivers/STM32F4xx_HAL_Driver/Src/stm32f4xx_ll_usb.c **** 
1125:Drivers/STM32F4xx_HAL_Driver/Src/stm32f4xx_ll_usb.c ****   /* In case phy is stopped, ensure to ungate and restore the phy CLK */
1126:Drivers/STM32F4xx_HAL_Driver/Src/stm32f4xx_ll_usb.c ****   USBx_PCGCCTL &= ~(USB_OTG_PCGCCTL_STOPCLK | USB_OTG_PCGCCTL_GATECLK);
 3968              		.loc 1 1126 16
 3969 000c FB68     		ldr	r3, [r7, #12]
 3970 000e 03F56063 		add	r3, r3, #3584
ARM GAS  /var/folders/vq/qt4vp3kd5rxf7v2b6_fdtdt80000gn/T//ccOb9Y7L.s 			page 90


 3971 0012 1B68     		ldr	r3, [r3]
 3972 0014 FA68     		ldr	r2, [r7, #12]
 3973 0016 02F56062 		add	r2, r2, #3584
 3974 001a 23F00303 		bic	r3, r3, #3
 3975 001e 1360     		str	r3, [r2]
1127:Drivers/STM32F4xx_HAL_Driver/Src/stm32f4xx_ll_usb.c **** 
1128:Drivers/STM32F4xx_HAL_Driver/Src/stm32f4xx_ll_usb.c ****   USBx_DEVICE->DCTL &= ~USB_OTG_DCTL_SDIS;
 3976              		.loc 1 1128 21
 3977 0020 FB68     		ldr	r3, [r7, #12]
 3978 0022 03F50063 		add	r3, r3, #2048
 3979 0026 5B68     		ldr	r3, [r3, #4]
 3980 0028 FA68     		ldr	r2, [r7, #12]
 3981 002a 02F50062 		add	r2, r2, #2048
 3982 002e 23F00203 		bic	r3, r3, #2
 3983 0032 5360     		str	r3, [r2, #4]
1129:Drivers/STM32F4xx_HAL_Driver/Src/stm32f4xx_ll_usb.c **** 
1130:Drivers/STM32F4xx_HAL_Driver/Src/stm32f4xx_ll_usb.c ****   return HAL_OK;
 3984              		.loc 1 1130 10
 3985 0034 0023     		movs	r3, #0
1131:Drivers/STM32F4xx_HAL_Driver/Src/stm32f4xx_ll_usb.c **** }
 3986              		.loc 1 1131 1
 3987 0036 1846     		mov	r0, r3
 3988 0038 1437     		adds	r7, r7, #20
 3989              	.LCFI136:
 3990              		.cfi_def_cfa_offset 4
 3991 003a BD46     		mov	sp, r7
 3992              	.LCFI137:
 3993              		.cfi_def_cfa_register 13
 3994              		@ sp needed
 3995 003c 5DF8047B 		ldr	r7, [sp], #4
 3996              	.LCFI138:
 3997              		.cfi_restore 7
 3998              		.cfi_def_cfa_offset 0
 3999 0040 7047     		bx	lr
 4000              		.cfi_endproc
 4001              	.LFE152:
 4003              		.section	.text.USB_DevDisconnect,"ax",%progbits
 4004              		.align	1
 4005              		.global	USB_DevDisconnect
 4006              		.syntax unified
 4007              		.thumb
 4008              		.thumb_func
 4009              		.fpu fpv4-sp-d16
 4011              	USB_DevDisconnect:
 4012              	.LFB153:
1132:Drivers/STM32F4xx_HAL_Driver/Src/stm32f4xx_ll_usb.c **** 
1133:Drivers/STM32F4xx_HAL_Driver/Src/stm32f4xx_ll_usb.c **** /**
1134:Drivers/STM32F4xx_HAL_Driver/Src/stm32f4xx_ll_usb.c ****   * @brief  USB_DevDisconnect : Disconnect the USB device by disabling Rpu
1135:Drivers/STM32F4xx_HAL_Driver/Src/stm32f4xx_ll_usb.c ****   * @param  USBx  Selected device
1136:Drivers/STM32F4xx_HAL_Driver/Src/stm32f4xx_ll_usb.c ****   * @retval HAL status
1137:Drivers/STM32F4xx_HAL_Driver/Src/stm32f4xx_ll_usb.c ****   */
1138:Drivers/STM32F4xx_HAL_Driver/Src/stm32f4xx_ll_usb.c **** HAL_StatusTypeDef  USB_DevDisconnect(USB_OTG_GlobalTypeDef *USBx)
1139:Drivers/STM32F4xx_HAL_Driver/Src/stm32f4xx_ll_usb.c **** {
 4013              		.loc 1 1139 1
 4014              		.cfi_startproc
 4015              		@ args = 0, pretend = 0, frame = 16
 4016              		@ frame_needed = 1, uses_anonymous_args = 0
ARM GAS  /var/folders/vq/qt4vp3kd5rxf7v2b6_fdtdt80000gn/T//ccOb9Y7L.s 			page 91


 4017              		@ link register save eliminated.
 4018 0000 80B4     		push	{r7}
 4019              	.LCFI139:
 4020              		.cfi_def_cfa_offset 4
 4021              		.cfi_offset 7, -4
 4022 0002 85B0     		sub	sp, sp, #20
 4023              	.LCFI140:
 4024              		.cfi_def_cfa_offset 24
 4025 0004 00AF     		add	r7, sp, #0
 4026              	.LCFI141:
 4027              		.cfi_def_cfa_register 7
 4028 0006 7860     		str	r0, [r7, #4]
1140:Drivers/STM32F4xx_HAL_Driver/Src/stm32f4xx_ll_usb.c ****   uint32_t USBx_BASE = (uint32_t)USBx;
 4029              		.loc 1 1140 12
 4030 0008 7B68     		ldr	r3, [r7, #4]
 4031 000a FB60     		str	r3, [r7, #12]
1141:Drivers/STM32F4xx_HAL_Driver/Src/stm32f4xx_ll_usb.c **** 
1142:Drivers/STM32F4xx_HAL_Driver/Src/stm32f4xx_ll_usb.c ****   /* In case phy is stopped, ensure to ungate and restore the phy CLK */
1143:Drivers/STM32F4xx_HAL_Driver/Src/stm32f4xx_ll_usb.c ****   USBx_PCGCCTL &= ~(USB_OTG_PCGCCTL_STOPCLK | USB_OTG_PCGCCTL_GATECLK);
 4032              		.loc 1 1143 16
 4033 000c FB68     		ldr	r3, [r7, #12]
 4034 000e 03F56063 		add	r3, r3, #3584
 4035 0012 1B68     		ldr	r3, [r3]
 4036 0014 FA68     		ldr	r2, [r7, #12]
 4037 0016 02F56062 		add	r2, r2, #3584
 4038 001a 23F00303 		bic	r3, r3, #3
 4039 001e 1360     		str	r3, [r2]
1144:Drivers/STM32F4xx_HAL_Driver/Src/stm32f4xx_ll_usb.c **** 
1145:Drivers/STM32F4xx_HAL_Driver/Src/stm32f4xx_ll_usb.c ****   USBx_DEVICE->DCTL |= USB_OTG_DCTL_SDIS;
 4040              		.loc 1 1145 21
 4041 0020 FB68     		ldr	r3, [r7, #12]
 4042 0022 03F50063 		add	r3, r3, #2048
 4043 0026 5B68     		ldr	r3, [r3, #4]
 4044 0028 FA68     		ldr	r2, [r7, #12]
 4045 002a 02F50062 		add	r2, r2, #2048
 4046 002e 43F00203 		orr	r3, r3, #2
 4047 0032 5360     		str	r3, [r2, #4]
1146:Drivers/STM32F4xx_HAL_Driver/Src/stm32f4xx_ll_usb.c **** 
1147:Drivers/STM32F4xx_HAL_Driver/Src/stm32f4xx_ll_usb.c ****   return HAL_OK;
 4048              		.loc 1 1147 10
 4049 0034 0023     		movs	r3, #0
1148:Drivers/STM32F4xx_HAL_Driver/Src/stm32f4xx_ll_usb.c **** }
 4050              		.loc 1 1148 1
 4051 0036 1846     		mov	r0, r3
 4052 0038 1437     		adds	r7, r7, #20
 4053              	.LCFI142:
 4054              		.cfi_def_cfa_offset 4
 4055 003a BD46     		mov	sp, r7
 4056              	.LCFI143:
 4057              		.cfi_def_cfa_register 13
 4058              		@ sp needed
 4059 003c 5DF8047B 		ldr	r7, [sp], #4
 4060              	.LCFI144:
 4061              		.cfi_restore 7
 4062              		.cfi_def_cfa_offset 0
 4063 0040 7047     		bx	lr
 4064              		.cfi_endproc
ARM GAS  /var/folders/vq/qt4vp3kd5rxf7v2b6_fdtdt80000gn/T//ccOb9Y7L.s 			page 92


 4065              	.LFE153:
 4067              		.section	.text.USB_ReadInterrupts,"ax",%progbits
 4068              		.align	1
 4069              		.global	USB_ReadInterrupts
 4070              		.syntax unified
 4071              		.thumb
 4072              		.thumb_func
 4073              		.fpu fpv4-sp-d16
 4075              	USB_ReadInterrupts:
 4076              	.LFB154:
1149:Drivers/STM32F4xx_HAL_Driver/Src/stm32f4xx_ll_usb.c **** 
1150:Drivers/STM32F4xx_HAL_Driver/Src/stm32f4xx_ll_usb.c **** /**
1151:Drivers/STM32F4xx_HAL_Driver/Src/stm32f4xx_ll_usb.c ****   * @brief  USB_ReadInterrupts: return the global USB interrupt status
1152:Drivers/STM32F4xx_HAL_Driver/Src/stm32f4xx_ll_usb.c ****   * @param  USBx  Selected device
1153:Drivers/STM32F4xx_HAL_Driver/Src/stm32f4xx_ll_usb.c ****   * @retval HAL status
1154:Drivers/STM32F4xx_HAL_Driver/Src/stm32f4xx_ll_usb.c ****   */
1155:Drivers/STM32F4xx_HAL_Driver/Src/stm32f4xx_ll_usb.c **** uint32_t  USB_ReadInterrupts(USB_OTG_GlobalTypeDef *USBx)
1156:Drivers/STM32F4xx_HAL_Driver/Src/stm32f4xx_ll_usb.c **** {
 4077              		.loc 1 1156 1
 4078              		.cfi_startproc
 4079              		@ args = 0, pretend = 0, frame = 16
 4080              		@ frame_needed = 1, uses_anonymous_args = 0
 4081              		@ link register save eliminated.
 4082 0000 80B4     		push	{r7}
 4083              	.LCFI145:
 4084              		.cfi_def_cfa_offset 4
 4085              		.cfi_offset 7, -4
 4086 0002 85B0     		sub	sp, sp, #20
 4087              	.LCFI146:
 4088              		.cfi_def_cfa_offset 24
 4089 0004 00AF     		add	r7, sp, #0
 4090              	.LCFI147:
 4091              		.cfi_def_cfa_register 7
 4092 0006 7860     		str	r0, [r7, #4]
1157:Drivers/STM32F4xx_HAL_Driver/Src/stm32f4xx_ll_usb.c ****   uint32_t tmpreg;
1158:Drivers/STM32F4xx_HAL_Driver/Src/stm32f4xx_ll_usb.c **** 
1159:Drivers/STM32F4xx_HAL_Driver/Src/stm32f4xx_ll_usb.c ****   tmpreg = USBx->GINTSTS;
 4093              		.loc 1 1159 10
 4094 0008 7B68     		ldr	r3, [r7, #4]
 4095 000a 5B69     		ldr	r3, [r3, #20]
 4096 000c FB60     		str	r3, [r7, #12]
1160:Drivers/STM32F4xx_HAL_Driver/Src/stm32f4xx_ll_usb.c ****   tmpreg &= USBx->GINTMSK;
 4097              		.loc 1 1160 17
 4098 000e 7B68     		ldr	r3, [r7, #4]
 4099 0010 9B69     		ldr	r3, [r3, #24]
 4100              		.loc 1 1160 10
 4101 0012 FA68     		ldr	r2, [r7, #12]
 4102 0014 1340     		ands	r3, r3, r2
 4103 0016 FB60     		str	r3, [r7, #12]
1161:Drivers/STM32F4xx_HAL_Driver/Src/stm32f4xx_ll_usb.c **** 
1162:Drivers/STM32F4xx_HAL_Driver/Src/stm32f4xx_ll_usb.c ****   return tmpreg;
 4104              		.loc 1 1162 10
 4105 0018 FB68     		ldr	r3, [r7, #12]
1163:Drivers/STM32F4xx_HAL_Driver/Src/stm32f4xx_ll_usb.c **** }
 4106              		.loc 1 1163 1
 4107 001a 1846     		mov	r0, r3
 4108 001c 1437     		adds	r7, r7, #20
ARM GAS  /var/folders/vq/qt4vp3kd5rxf7v2b6_fdtdt80000gn/T//ccOb9Y7L.s 			page 93


 4109              	.LCFI148:
 4110              		.cfi_def_cfa_offset 4
 4111 001e BD46     		mov	sp, r7
 4112              	.LCFI149:
 4113              		.cfi_def_cfa_register 13
 4114              		@ sp needed
 4115 0020 5DF8047B 		ldr	r7, [sp], #4
 4116              	.LCFI150:
 4117              		.cfi_restore 7
 4118              		.cfi_def_cfa_offset 0
 4119 0024 7047     		bx	lr
 4120              		.cfi_endproc
 4121              	.LFE154:
 4123              		.section	.text.USB_ReadDevAllOutEpInterrupt,"ax",%progbits
 4124              		.align	1
 4125              		.global	USB_ReadDevAllOutEpInterrupt
 4126              		.syntax unified
 4127              		.thumb
 4128              		.thumb_func
 4129              		.fpu fpv4-sp-d16
 4131              	USB_ReadDevAllOutEpInterrupt:
 4132              	.LFB155:
1164:Drivers/STM32F4xx_HAL_Driver/Src/stm32f4xx_ll_usb.c **** 
1165:Drivers/STM32F4xx_HAL_Driver/Src/stm32f4xx_ll_usb.c **** /**
1166:Drivers/STM32F4xx_HAL_Driver/Src/stm32f4xx_ll_usb.c ****   * @brief  USB_ReadDevAllOutEpInterrupt: return the USB device OUT endpoints interrupt status
1167:Drivers/STM32F4xx_HAL_Driver/Src/stm32f4xx_ll_usb.c ****   * @param  USBx  Selected device
1168:Drivers/STM32F4xx_HAL_Driver/Src/stm32f4xx_ll_usb.c ****   * @retval HAL status
1169:Drivers/STM32F4xx_HAL_Driver/Src/stm32f4xx_ll_usb.c ****   */
1170:Drivers/STM32F4xx_HAL_Driver/Src/stm32f4xx_ll_usb.c **** uint32_t USB_ReadDevAllOutEpInterrupt(USB_OTG_GlobalTypeDef *USBx)
1171:Drivers/STM32F4xx_HAL_Driver/Src/stm32f4xx_ll_usb.c **** {
 4133              		.loc 1 1171 1
 4134              		.cfi_startproc
 4135              		@ args = 0, pretend = 0, frame = 16
 4136              		@ frame_needed = 1, uses_anonymous_args = 0
 4137              		@ link register save eliminated.
 4138 0000 80B4     		push	{r7}
 4139              	.LCFI151:
 4140              		.cfi_def_cfa_offset 4
 4141              		.cfi_offset 7, -4
 4142 0002 85B0     		sub	sp, sp, #20
 4143              	.LCFI152:
 4144              		.cfi_def_cfa_offset 24
 4145 0004 00AF     		add	r7, sp, #0
 4146              	.LCFI153:
 4147              		.cfi_def_cfa_register 7
 4148 0006 7860     		str	r0, [r7, #4]
1172:Drivers/STM32F4xx_HAL_Driver/Src/stm32f4xx_ll_usb.c ****   uint32_t USBx_BASE = (uint32_t)USBx;
 4149              		.loc 1 1172 12
 4150 0008 7B68     		ldr	r3, [r7, #4]
 4151 000a FB60     		str	r3, [r7, #12]
1173:Drivers/STM32F4xx_HAL_Driver/Src/stm32f4xx_ll_usb.c ****   uint32_t tmpreg;
1174:Drivers/STM32F4xx_HAL_Driver/Src/stm32f4xx_ll_usb.c **** 
1175:Drivers/STM32F4xx_HAL_Driver/Src/stm32f4xx_ll_usb.c ****   tmpreg  = USBx_DEVICE->DAINT;
 4152              		.loc 1 1175 13
 4153 000c FB68     		ldr	r3, [r7, #12]
 4154 000e 03F50063 		add	r3, r3, #2048
 4155              		.loc 1 1175 11
ARM GAS  /var/folders/vq/qt4vp3kd5rxf7v2b6_fdtdt80000gn/T//ccOb9Y7L.s 			page 94


 4156 0012 9B69     		ldr	r3, [r3, #24]
 4157 0014 BB60     		str	r3, [r7, #8]
1176:Drivers/STM32F4xx_HAL_Driver/Src/stm32f4xx_ll_usb.c ****   tmpreg &= USBx_DEVICE->DAINTMSK;
 4158              		.loc 1 1176 13
 4159 0016 FB68     		ldr	r3, [r7, #12]
 4160 0018 03F50063 		add	r3, r3, #2048
 4161              		.loc 1 1176 24
 4162 001c DB69     		ldr	r3, [r3, #28]
 4163              		.loc 1 1176 10
 4164 001e BA68     		ldr	r2, [r7, #8]
 4165 0020 1340     		ands	r3, r3, r2
 4166 0022 BB60     		str	r3, [r7, #8]
1177:Drivers/STM32F4xx_HAL_Driver/Src/stm32f4xx_ll_usb.c **** 
1178:Drivers/STM32F4xx_HAL_Driver/Src/stm32f4xx_ll_usb.c ****   return ((tmpreg & 0xffff0000U) >> 16);
 4167              		.loc 1 1178 34
 4168 0024 BB68     		ldr	r3, [r7, #8]
 4169 0026 1B0C     		lsrs	r3, r3, #16
1179:Drivers/STM32F4xx_HAL_Driver/Src/stm32f4xx_ll_usb.c **** }
 4170              		.loc 1 1179 1
 4171 0028 1846     		mov	r0, r3
 4172 002a 1437     		adds	r7, r7, #20
 4173              	.LCFI154:
 4174              		.cfi_def_cfa_offset 4
 4175 002c BD46     		mov	sp, r7
 4176              	.LCFI155:
 4177              		.cfi_def_cfa_register 13
 4178              		@ sp needed
 4179 002e 5DF8047B 		ldr	r7, [sp], #4
 4180              	.LCFI156:
 4181              		.cfi_restore 7
 4182              		.cfi_def_cfa_offset 0
 4183 0032 7047     		bx	lr
 4184              		.cfi_endproc
 4185              	.LFE155:
 4187              		.section	.text.USB_ReadDevAllInEpInterrupt,"ax",%progbits
 4188              		.align	1
 4189              		.global	USB_ReadDevAllInEpInterrupt
 4190              		.syntax unified
 4191              		.thumb
 4192              		.thumb_func
 4193              		.fpu fpv4-sp-d16
 4195              	USB_ReadDevAllInEpInterrupt:
 4196              	.LFB156:
1180:Drivers/STM32F4xx_HAL_Driver/Src/stm32f4xx_ll_usb.c **** 
1181:Drivers/STM32F4xx_HAL_Driver/Src/stm32f4xx_ll_usb.c **** /**
1182:Drivers/STM32F4xx_HAL_Driver/Src/stm32f4xx_ll_usb.c ****   * @brief  USB_ReadDevAllInEpInterrupt: return the USB device IN endpoints interrupt status
1183:Drivers/STM32F4xx_HAL_Driver/Src/stm32f4xx_ll_usb.c ****   * @param  USBx  Selected device
1184:Drivers/STM32F4xx_HAL_Driver/Src/stm32f4xx_ll_usb.c ****   * @retval HAL status
1185:Drivers/STM32F4xx_HAL_Driver/Src/stm32f4xx_ll_usb.c ****   */
1186:Drivers/STM32F4xx_HAL_Driver/Src/stm32f4xx_ll_usb.c **** uint32_t USB_ReadDevAllInEpInterrupt(USB_OTG_GlobalTypeDef *USBx)
1187:Drivers/STM32F4xx_HAL_Driver/Src/stm32f4xx_ll_usb.c **** {
 4197              		.loc 1 1187 1
 4198              		.cfi_startproc
 4199              		@ args = 0, pretend = 0, frame = 16
 4200              		@ frame_needed = 1, uses_anonymous_args = 0
 4201              		@ link register save eliminated.
 4202 0000 80B4     		push	{r7}
ARM GAS  /var/folders/vq/qt4vp3kd5rxf7v2b6_fdtdt80000gn/T//ccOb9Y7L.s 			page 95


 4203              	.LCFI157:
 4204              		.cfi_def_cfa_offset 4
 4205              		.cfi_offset 7, -4
 4206 0002 85B0     		sub	sp, sp, #20
 4207              	.LCFI158:
 4208              		.cfi_def_cfa_offset 24
 4209 0004 00AF     		add	r7, sp, #0
 4210              	.LCFI159:
 4211              		.cfi_def_cfa_register 7
 4212 0006 7860     		str	r0, [r7, #4]
1188:Drivers/STM32F4xx_HAL_Driver/Src/stm32f4xx_ll_usb.c ****   uint32_t USBx_BASE = (uint32_t)USBx;
 4213              		.loc 1 1188 12
 4214 0008 7B68     		ldr	r3, [r7, #4]
 4215 000a FB60     		str	r3, [r7, #12]
1189:Drivers/STM32F4xx_HAL_Driver/Src/stm32f4xx_ll_usb.c ****   uint32_t tmpreg;
1190:Drivers/STM32F4xx_HAL_Driver/Src/stm32f4xx_ll_usb.c **** 
1191:Drivers/STM32F4xx_HAL_Driver/Src/stm32f4xx_ll_usb.c ****   tmpreg  = USBx_DEVICE->DAINT;
 4216              		.loc 1 1191 13
 4217 000c FB68     		ldr	r3, [r7, #12]
 4218 000e 03F50063 		add	r3, r3, #2048
 4219              		.loc 1 1191 11
 4220 0012 9B69     		ldr	r3, [r3, #24]
 4221 0014 BB60     		str	r3, [r7, #8]
1192:Drivers/STM32F4xx_HAL_Driver/Src/stm32f4xx_ll_usb.c ****   tmpreg &= USBx_DEVICE->DAINTMSK;
 4222              		.loc 1 1192 13
 4223 0016 FB68     		ldr	r3, [r7, #12]
 4224 0018 03F50063 		add	r3, r3, #2048
 4225              		.loc 1 1192 24
 4226 001c DB69     		ldr	r3, [r3, #28]
 4227              		.loc 1 1192 10
 4228 001e BA68     		ldr	r2, [r7, #8]
 4229 0020 1340     		ands	r3, r3, r2
 4230 0022 BB60     		str	r3, [r7, #8]
1193:Drivers/STM32F4xx_HAL_Driver/Src/stm32f4xx_ll_usb.c **** 
1194:Drivers/STM32F4xx_HAL_Driver/Src/stm32f4xx_ll_usb.c ****   return ((tmpreg & 0xFFFFU));
 4231              		.loc 1 1194 19
 4232 0024 BB68     		ldr	r3, [r7, #8]
 4233 0026 9BB2     		uxth	r3, r3
1195:Drivers/STM32F4xx_HAL_Driver/Src/stm32f4xx_ll_usb.c **** }
 4234              		.loc 1 1195 1
 4235 0028 1846     		mov	r0, r3
 4236 002a 1437     		adds	r7, r7, #20
 4237              	.LCFI160:
 4238              		.cfi_def_cfa_offset 4
 4239 002c BD46     		mov	sp, r7
 4240              	.LCFI161:
 4241              		.cfi_def_cfa_register 13
 4242              		@ sp needed
 4243 002e 5DF8047B 		ldr	r7, [sp], #4
 4244              	.LCFI162:
 4245              		.cfi_restore 7
 4246              		.cfi_def_cfa_offset 0
 4247 0032 7047     		bx	lr
 4248              		.cfi_endproc
 4249              	.LFE156:
 4251              		.section	.text.USB_ReadDevOutEPInterrupt,"ax",%progbits
 4252              		.align	1
ARM GAS  /var/folders/vq/qt4vp3kd5rxf7v2b6_fdtdt80000gn/T//ccOb9Y7L.s 			page 96


 4253              		.global	USB_ReadDevOutEPInterrupt
 4254              		.syntax unified
 4255              		.thumb
 4256              		.thumb_func
 4257              		.fpu fpv4-sp-d16
 4259              	USB_ReadDevOutEPInterrupt:
 4260              	.LFB157:
1196:Drivers/STM32F4xx_HAL_Driver/Src/stm32f4xx_ll_usb.c **** 
1197:Drivers/STM32F4xx_HAL_Driver/Src/stm32f4xx_ll_usb.c **** /**
1198:Drivers/STM32F4xx_HAL_Driver/Src/stm32f4xx_ll_usb.c ****   * @brief  Returns Device OUT EP Interrupt register
1199:Drivers/STM32F4xx_HAL_Driver/Src/stm32f4xx_ll_usb.c ****   * @param  USBx  Selected device
1200:Drivers/STM32F4xx_HAL_Driver/Src/stm32f4xx_ll_usb.c ****   * @param  epnum  endpoint number
1201:Drivers/STM32F4xx_HAL_Driver/Src/stm32f4xx_ll_usb.c ****   *          This parameter can be a value from 0 to 15
1202:Drivers/STM32F4xx_HAL_Driver/Src/stm32f4xx_ll_usb.c ****   * @retval Device OUT EP Interrupt register
1203:Drivers/STM32F4xx_HAL_Driver/Src/stm32f4xx_ll_usb.c ****   */
1204:Drivers/STM32F4xx_HAL_Driver/Src/stm32f4xx_ll_usb.c **** uint32_t USB_ReadDevOutEPInterrupt(USB_OTG_GlobalTypeDef *USBx, uint8_t epnum)
1205:Drivers/STM32F4xx_HAL_Driver/Src/stm32f4xx_ll_usb.c **** {
 4261              		.loc 1 1205 1
 4262              		.cfi_startproc
 4263              		@ args = 0, pretend = 0, frame = 16
 4264              		@ frame_needed = 1, uses_anonymous_args = 0
 4265              		@ link register save eliminated.
 4266 0000 80B4     		push	{r7}
 4267              	.LCFI163:
 4268              		.cfi_def_cfa_offset 4
 4269              		.cfi_offset 7, -4
 4270 0002 85B0     		sub	sp, sp, #20
 4271              	.LCFI164:
 4272              		.cfi_def_cfa_offset 24
 4273 0004 00AF     		add	r7, sp, #0
 4274              	.LCFI165:
 4275              		.cfi_def_cfa_register 7
 4276 0006 7860     		str	r0, [r7, #4]
 4277 0008 0B46     		mov	r3, r1
 4278 000a FB70     		strb	r3, [r7, #3]
1206:Drivers/STM32F4xx_HAL_Driver/Src/stm32f4xx_ll_usb.c ****   uint32_t USBx_BASE = (uint32_t)USBx;
 4279              		.loc 1 1206 12
 4280 000c 7B68     		ldr	r3, [r7, #4]
 4281 000e FB60     		str	r3, [r7, #12]
1207:Drivers/STM32F4xx_HAL_Driver/Src/stm32f4xx_ll_usb.c ****   uint32_t tmpreg;
1208:Drivers/STM32F4xx_HAL_Driver/Src/stm32f4xx_ll_usb.c **** 
1209:Drivers/STM32F4xx_HAL_Driver/Src/stm32f4xx_ll_usb.c ****   tmpreg  = USBx_OUTEP((uint32_t)epnum)->DOEPINT;
 4282              		.loc 1 1209 13
 4283 0010 FB78     		ldrb	r3, [r7, #3]	@ zero_extendqisi2
 4284 0012 5A01     		lsls	r2, r3, #5
 4285 0014 FB68     		ldr	r3, [r7, #12]
 4286 0016 1344     		add	r3, r3, r2
 4287 0018 03F53063 		add	r3, r3, #2816
 4288              		.loc 1 1209 11
 4289 001c 9B68     		ldr	r3, [r3, #8]
 4290 001e BB60     		str	r3, [r7, #8]
1210:Drivers/STM32F4xx_HAL_Driver/Src/stm32f4xx_ll_usb.c ****   tmpreg &= USBx_DEVICE->DOEPMSK;
 4291              		.loc 1 1210 13
 4292 0020 FB68     		ldr	r3, [r7, #12]
 4293 0022 03F50063 		add	r3, r3, #2048
 4294              		.loc 1 1210 24
 4295 0026 5B69     		ldr	r3, [r3, #20]
ARM GAS  /var/folders/vq/qt4vp3kd5rxf7v2b6_fdtdt80000gn/T//ccOb9Y7L.s 			page 97


 4296              		.loc 1 1210 10
 4297 0028 BA68     		ldr	r2, [r7, #8]
 4298 002a 1340     		ands	r3, r3, r2
 4299 002c BB60     		str	r3, [r7, #8]
1211:Drivers/STM32F4xx_HAL_Driver/Src/stm32f4xx_ll_usb.c **** 
1212:Drivers/STM32F4xx_HAL_Driver/Src/stm32f4xx_ll_usb.c ****   return tmpreg;
 4300              		.loc 1 1212 10
 4301 002e BB68     		ldr	r3, [r7, #8]
1213:Drivers/STM32F4xx_HAL_Driver/Src/stm32f4xx_ll_usb.c **** }
 4302              		.loc 1 1213 1
 4303 0030 1846     		mov	r0, r3
 4304 0032 1437     		adds	r7, r7, #20
 4305              	.LCFI166:
 4306              		.cfi_def_cfa_offset 4
 4307 0034 BD46     		mov	sp, r7
 4308              	.LCFI167:
 4309              		.cfi_def_cfa_register 13
 4310              		@ sp needed
 4311 0036 5DF8047B 		ldr	r7, [sp], #4
 4312              	.LCFI168:
 4313              		.cfi_restore 7
 4314              		.cfi_def_cfa_offset 0
 4315 003a 7047     		bx	lr
 4316              		.cfi_endproc
 4317              	.LFE157:
 4319              		.section	.text.USB_ReadDevInEPInterrupt,"ax",%progbits
 4320              		.align	1
 4321              		.global	USB_ReadDevInEPInterrupt
 4322              		.syntax unified
 4323              		.thumb
 4324              		.thumb_func
 4325              		.fpu fpv4-sp-d16
 4327              	USB_ReadDevInEPInterrupt:
 4328              	.LFB158:
1214:Drivers/STM32F4xx_HAL_Driver/Src/stm32f4xx_ll_usb.c **** 
1215:Drivers/STM32F4xx_HAL_Driver/Src/stm32f4xx_ll_usb.c **** /**
1216:Drivers/STM32F4xx_HAL_Driver/Src/stm32f4xx_ll_usb.c ****   * @brief  Returns Device IN EP Interrupt register
1217:Drivers/STM32F4xx_HAL_Driver/Src/stm32f4xx_ll_usb.c ****   * @param  USBx  Selected device
1218:Drivers/STM32F4xx_HAL_Driver/Src/stm32f4xx_ll_usb.c ****   * @param  epnum  endpoint number
1219:Drivers/STM32F4xx_HAL_Driver/Src/stm32f4xx_ll_usb.c ****   *          This parameter can be a value from 0 to 15
1220:Drivers/STM32F4xx_HAL_Driver/Src/stm32f4xx_ll_usb.c ****   * @retval Device IN EP Interrupt register
1221:Drivers/STM32F4xx_HAL_Driver/Src/stm32f4xx_ll_usb.c ****   */
1222:Drivers/STM32F4xx_HAL_Driver/Src/stm32f4xx_ll_usb.c **** uint32_t USB_ReadDevInEPInterrupt(USB_OTG_GlobalTypeDef *USBx, uint8_t epnum)
1223:Drivers/STM32F4xx_HAL_Driver/Src/stm32f4xx_ll_usb.c **** {
 4329              		.loc 1 1223 1
 4330              		.cfi_startproc
 4331              		@ args = 0, pretend = 0, frame = 24
 4332              		@ frame_needed = 1, uses_anonymous_args = 0
 4333              		@ link register save eliminated.
 4334 0000 80B4     		push	{r7}
 4335              	.LCFI169:
 4336              		.cfi_def_cfa_offset 4
 4337              		.cfi_offset 7, -4
 4338 0002 87B0     		sub	sp, sp, #28
 4339              	.LCFI170:
 4340              		.cfi_def_cfa_offset 32
 4341 0004 00AF     		add	r7, sp, #0
ARM GAS  /var/folders/vq/qt4vp3kd5rxf7v2b6_fdtdt80000gn/T//ccOb9Y7L.s 			page 98


 4342              	.LCFI171:
 4343              		.cfi_def_cfa_register 7
 4344 0006 7860     		str	r0, [r7, #4]
 4345 0008 0B46     		mov	r3, r1
 4346 000a FB70     		strb	r3, [r7, #3]
1224:Drivers/STM32F4xx_HAL_Driver/Src/stm32f4xx_ll_usb.c ****   uint32_t USBx_BASE = (uint32_t)USBx;
 4347              		.loc 1 1224 12
 4348 000c 7B68     		ldr	r3, [r7, #4]
 4349 000e 7B61     		str	r3, [r7, #20]
1225:Drivers/STM32F4xx_HAL_Driver/Src/stm32f4xx_ll_usb.c ****   uint32_t tmpreg, msk, emp;
1226:Drivers/STM32F4xx_HAL_Driver/Src/stm32f4xx_ll_usb.c **** 
1227:Drivers/STM32F4xx_HAL_Driver/Src/stm32f4xx_ll_usb.c ****   msk = USBx_DEVICE->DIEPMSK;
 4350              		.loc 1 1227 9
 4351 0010 7B69     		ldr	r3, [r7, #20]
 4352 0012 03F50063 		add	r3, r3, #2048
 4353              		.loc 1 1227 7
 4354 0016 1B69     		ldr	r3, [r3, #16]
 4355 0018 3B61     		str	r3, [r7, #16]
1228:Drivers/STM32F4xx_HAL_Driver/Src/stm32f4xx_ll_usb.c ****   emp = USBx_DEVICE->DIEPEMPMSK;
 4356              		.loc 1 1228 9
 4357 001a 7B69     		ldr	r3, [r7, #20]
 4358 001c 03F50063 		add	r3, r3, #2048
 4359              		.loc 1 1228 7
 4360 0020 5B6B     		ldr	r3, [r3, #52]
 4361 0022 FB60     		str	r3, [r7, #12]
1229:Drivers/STM32F4xx_HAL_Driver/Src/stm32f4xx_ll_usb.c ****   msk |= ((emp >> (epnum & EP_ADDR_MSK)) & 0x1U) << 7;
 4362              		.loc 1 1229 26
 4363 0024 FB78     		ldrb	r3, [r7, #3]	@ zero_extendqisi2
 4364 0026 03F00F03 		and	r3, r3, #15
 4365              		.loc 1 1229 16
 4366 002a FA68     		ldr	r2, [r7, #12]
 4367 002c 22FA03F3 		lsr	r3, r2, r3
 4368              		.loc 1 1229 50
 4369 0030 DB01     		lsls	r3, r3, #7
 4370 0032 DBB2     		uxtb	r3, r3
 4371              		.loc 1 1229 7
 4372 0034 3A69     		ldr	r2, [r7, #16]
 4373 0036 1343     		orrs	r3, r3, r2
 4374 0038 3B61     		str	r3, [r7, #16]
1230:Drivers/STM32F4xx_HAL_Driver/Src/stm32f4xx_ll_usb.c ****   tmpreg = USBx_INEP((uint32_t)epnum)->DIEPINT & msk;
 4375              		.loc 1 1230 12
 4376 003a FB78     		ldrb	r3, [r7, #3]	@ zero_extendqisi2
 4377 003c 5A01     		lsls	r2, r3, #5
 4378 003e 7B69     		ldr	r3, [r7, #20]
 4379 0040 1344     		add	r3, r3, r2
 4380 0042 03F51063 		add	r3, r3, #2304
 4381              		.loc 1 1230 38
 4382 0046 9B68     		ldr	r3, [r3, #8]
 4383              		.loc 1 1230 10
 4384 0048 3A69     		ldr	r2, [r7, #16]
 4385 004a 1340     		ands	r3, r3, r2
 4386 004c BB60     		str	r3, [r7, #8]
1231:Drivers/STM32F4xx_HAL_Driver/Src/stm32f4xx_ll_usb.c **** 
1232:Drivers/STM32F4xx_HAL_Driver/Src/stm32f4xx_ll_usb.c ****   return tmpreg;
 4387              		.loc 1 1232 10
 4388 004e BB68     		ldr	r3, [r7, #8]
1233:Drivers/STM32F4xx_HAL_Driver/Src/stm32f4xx_ll_usb.c **** }
ARM GAS  /var/folders/vq/qt4vp3kd5rxf7v2b6_fdtdt80000gn/T//ccOb9Y7L.s 			page 99


 4389              		.loc 1 1233 1
 4390 0050 1846     		mov	r0, r3
 4391 0052 1C37     		adds	r7, r7, #28
 4392              	.LCFI172:
 4393              		.cfi_def_cfa_offset 4
 4394 0054 BD46     		mov	sp, r7
 4395              	.LCFI173:
 4396              		.cfi_def_cfa_register 13
 4397              		@ sp needed
 4398 0056 5DF8047B 		ldr	r7, [sp], #4
 4399              	.LCFI174:
 4400              		.cfi_restore 7
 4401              		.cfi_def_cfa_offset 0
 4402 005a 7047     		bx	lr
 4403              		.cfi_endproc
 4404              	.LFE158:
 4406              		.section	.text.USB_ClearInterrupts,"ax",%progbits
 4407              		.align	1
 4408              		.global	USB_ClearInterrupts
 4409              		.syntax unified
 4410              		.thumb
 4411              		.thumb_func
 4412              		.fpu fpv4-sp-d16
 4414              	USB_ClearInterrupts:
 4415              	.LFB159:
1234:Drivers/STM32F4xx_HAL_Driver/Src/stm32f4xx_ll_usb.c **** 
1235:Drivers/STM32F4xx_HAL_Driver/Src/stm32f4xx_ll_usb.c **** /**
1236:Drivers/STM32F4xx_HAL_Driver/Src/stm32f4xx_ll_usb.c ****   * @brief  USB_ClearInterrupts: clear a USB interrupt
1237:Drivers/STM32F4xx_HAL_Driver/Src/stm32f4xx_ll_usb.c ****   * @param  USBx  Selected device
1238:Drivers/STM32F4xx_HAL_Driver/Src/stm32f4xx_ll_usb.c ****   * @param  interrupt  flag
1239:Drivers/STM32F4xx_HAL_Driver/Src/stm32f4xx_ll_usb.c ****   * @retval None
1240:Drivers/STM32F4xx_HAL_Driver/Src/stm32f4xx_ll_usb.c ****   */
1241:Drivers/STM32F4xx_HAL_Driver/Src/stm32f4xx_ll_usb.c **** void  USB_ClearInterrupts(USB_OTG_GlobalTypeDef *USBx, uint32_t interrupt)
1242:Drivers/STM32F4xx_HAL_Driver/Src/stm32f4xx_ll_usb.c **** {
 4416              		.loc 1 1242 1
 4417              		.cfi_startproc
 4418              		@ args = 0, pretend = 0, frame = 8
 4419              		@ frame_needed = 1, uses_anonymous_args = 0
 4420              		@ link register save eliminated.
 4421 0000 80B4     		push	{r7}
 4422              	.LCFI175:
 4423              		.cfi_def_cfa_offset 4
 4424              		.cfi_offset 7, -4
 4425 0002 83B0     		sub	sp, sp, #12
 4426              	.LCFI176:
 4427              		.cfi_def_cfa_offset 16
 4428 0004 00AF     		add	r7, sp, #0
 4429              	.LCFI177:
 4430              		.cfi_def_cfa_register 7
 4431 0006 7860     		str	r0, [r7, #4]
 4432 0008 3960     		str	r1, [r7]
1243:Drivers/STM32F4xx_HAL_Driver/Src/stm32f4xx_ll_usb.c ****   USBx->GINTSTS |= interrupt;
 4433              		.loc 1 1243 17
 4434 000a 7B68     		ldr	r3, [r7, #4]
 4435 000c 5A69     		ldr	r2, [r3, #20]
 4436 000e 3B68     		ldr	r3, [r7]
 4437 0010 1A43     		orrs	r2, r2, r3
ARM GAS  /var/folders/vq/qt4vp3kd5rxf7v2b6_fdtdt80000gn/T//ccOb9Y7L.s 			page 100


 4438 0012 7B68     		ldr	r3, [r7, #4]
 4439 0014 5A61     		str	r2, [r3, #20]
1244:Drivers/STM32F4xx_HAL_Driver/Src/stm32f4xx_ll_usb.c **** }
 4440              		.loc 1 1244 1
 4441 0016 00BF     		nop
 4442 0018 0C37     		adds	r7, r7, #12
 4443              	.LCFI178:
 4444              		.cfi_def_cfa_offset 4
 4445 001a BD46     		mov	sp, r7
 4446              	.LCFI179:
 4447              		.cfi_def_cfa_register 13
 4448              		@ sp needed
 4449 001c 5DF8047B 		ldr	r7, [sp], #4
 4450              	.LCFI180:
 4451              		.cfi_restore 7
 4452              		.cfi_def_cfa_offset 0
 4453 0020 7047     		bx	lr
 4454              		.cfi_endproc
 4455              	.LFE159:
 4457              		.section	.text.USB_GetMode,"ax",%progbits
 4458              		.align	1
 4459              		.global	USB_GetMode
 4460              		.syntax unified
 4461              		.thumb
 4462              		.thumb_func
 4463              		.fpu fpv4-sp-d16
 4465              	USB_GetMode:
 4466              	.LFB160:
1245:Drivers/STM32F4xx_HAL_Driver/Src/stm32f4xx_ll_usb.c **** 
1246:Drivers/STM32F4xx_HAL_Driver/Src/stm32f4xx_ll_usb.c **** /**
1247:Drivers/STM32F4xx_HAL_Driver/Src/stm32f4xx_ll_usb.c ****   * @brief  Returns USB core mode
1248:Drivers/STM32F4xx_HAL_Driver/Src/stm32f4xx_ll_usb.c ****   * @param  USBx  Selected device
1249:Drivers/STM32F4xx_HAL_Driver/Src/stm32f4xx_ll_usb.c ****   * @retval return core mode : Host or Device
1250:Drivers/STM32F4xx_HAL_Driver/Src/stm32f4xx_ll_usb.c ****   *          This parameter can be one of these values:
1251:Drivers/STM32F4xx_HAL_Driver/Src/stm32f4xx_ll_usb.c ****   *           0 : Host
1252:Drivers/STM32F4xx_HAL_Driver/Src/stm32f4xx_ll_usb.c ****   *           1 : Device
1253:Drivers/STM32F4xx_HAL_Driver/Src/stm32f4xx_ll_usb.c ****   */
1254:Drivers/STM32F4xx_HAL_Driver/Src/stm32f4xx_ll_usb.c **** uint32_t USB_GetMode(USB_OTG_GlobalTypeDef *USBx)
1255:Drivers/STM32F4xx_HAL_Driver/Src/stm32f4xx_ll_usb.c **** {
 4467              		.loc 1 1255 1
 4468              		.cfi_startproc
 4469              		@ args = 0, pretend = 0, frame = 8
 4470              		@ frame_needed = 1, uses_anonymous_args = 0
 4471              		@ link register save eliminated.
 4472 0000 80B4     		push	{r7}
 4473              	.LCFI181:
 4474              		.cfi_def_cfa_offset 4
 4475              		.cfi_offset 7, -4
 4476 0002 83B0     		sub	sp, sp, #12
 4477              	.LCFI182:
 4478              		.cfi_def_cfa_offset 16
 4479 0004 00AF     		add	r7, sp, #0
 4480              	.LCFI183:
 4481              		.cfi_def_cfa_register 7
 4482 0006 7860     		str	r0, [r7, #4]
1256:Drivers/STM32F4xx_HAL_Driver/Src/stm32f4xx_ll_usb.c ****   return ((USBx->GINTSTS) & 0x1U);
 4483              		.loc 1 1256 16
ARM GAS  /var/folders/vq/qt4vp3kd5rxf7v2b6_fdtdt80000gn/T//ccOb9Y7L.s 			page 101


 4484 0008 7B68     		ldr	r3, [r7, #4]
 4485 000a 5B69     		ldr	r3, [r3, #20]
 4486              		.loc 1 1256 27
 4487 000c 03F00103 		and	r3, r3, #1
1257:Drivers/STM32F4xx_HAL_Driver/Src/stm32f4xx_ll_usb.c **** }
 4488              		.loc 1 1257 1
 4489 0010 1846     		mov	r0, r3
 4490 0012 0C37     		adds	r7, r7, #12
 4491              	.LCFI184:
 4492              		.cfi_def_cfa_offset 4
 4493 0014 BD46     		mov	sp, r7
 4494              	.LCFI185:
 4495              		.cfi_def_cfa_register 13
 4496              		@ sp needed
 4497 0016 5DF8047B 		ldr	r7, [sp], #4
 4498              	.LCFI186:
 4499              		.cfi_restore 7
 4500              		.cfi_def_cfa_offset 0
 4501 001a 7047     		bx	lr
 4502              		.cfi_endproc
 4503              	.LFE160:
 4505              		.section	.text.USB_ActivateSetup,"ax",%progbits
 4506              		.align	1
 4507              		.global	USB_ActivateSetup
 4508              		.syntax unified
 4509              		.thumb
 4510              		.thumb_func
 4511              		.fpu fpv4-sp-d16
 4513              	USB_ActivateSetup:
 4514              	.LFB161:
1258:Drivers/STM32F4xx_HAL_Driver/Src/stm32f4xx_ll_usb.c **** 
1259:Drivers/STM32F4xx_HAL_Driver/Src/stm32f4xx_ll_usb.c **** /**
1260:Drivers/STM32F4xx_HAL_Driver/Src/stm32f4xx_ll_usb.c ****   * @brief  Activate EP0 for Setup transactions
1261:Drivers/STM32F4xx_HAL_Driver/Src/stm32f4xx_ll_usb.c ****   * @param  USBx  Selected device
1262:Drivers/STM32F4xx_HAL_Driver/Src/stm32f4xx_ll_usb.c ****   * @retval HAL status
1263:Drivers/STM32F4xx_HAL_Driver/Src/stm32f4xx_ll_usb.c ****   */
1264:Drivers/STM32F4xx_HAL_Driver/Src/stm32f4xx_ll_usb.c **** HAL_StatusTypeDef  USB_ActivateSetup(USB_OTG_GlobalTypeDef *USBx)
1265:Drivers/STM32F4xx_HAL_Driver/Src/stm32f4xx_ll_usb.c **** {
 4515              		.loc 1 1265 1
 4516              		.cfi_startproc
 4517              		@ args = 0, pretend = 0, frame = 16
 4518              		@ frame_needed = 1, uses_anonymous_args = 0
 4519              		@ link register save eliminated.
 4520 0000 80B4     		push	{r7}
 4521              	.LCFI187:
 4522              		.cfi_def_cfa_offset 4
 4523              		.cfi_offset 7, -4
 4524 0002 85B0     		sub	sp, sp, #20
 4525              	.LCFI188:
 4526              		.cfi_def_cfa_offset 24
 4527 0004 00AF     		add	r7, sp, #0
 4528              	.LCFI189:
 4529              		.cfi_def_cfa_register 7
 4530 0006 7860     		str	r0, [r7, #4]
1266:Drivers/STM32F4xx_HAL_Driver/Src/stm32f4xx_ll_usb.c ****   uint32_t USBx_BASE = (uint32_t)USBx;
 4531              		.loc 1 1266 12
 4532 0008 7B68     		ldr	r3, [r7, #4]
ARM GAS  /var/folders/vq/qt4vp3kd5rxf7v2b6_fdtdt80000gn/T//ccOb9Y7L.s 			page 102


 4533 000a FB60     		str	r3, [r7, #12]
1267:Drivers/STM32F4xx_HAL_Driver/Src/stm32f4xx_ll_usb.c **** 
1268:Drivers/STM32F4xx_HAL_Driver/Src/stm32f4xx_ll_usb.c ****   /* Set the MPS of the IN EP0 to 64 bytes */
1269:Drivers/STM32F4xx_HAL_Driver/Src/stm32f4xx_ll_usb.c ****   USBx_INEP(0U)->DIEPCTL &= ~USB_OTG_DIEPCTL_MPSIZ;
 4534              		.loc 1 1269 26
 4535 000c FB68     		ldr	r3, [r7, #12]
 4536 000e 03F51063 		add	r3, r3, #2304
 4537 0012 1B68     		ldr	r3, [r3]
 4538 0014 FA68     		ldr	r2, [r7, #12]
 4539 0016 02F51062 		add	r2, r2, #2304
 4540 001a 23F4FF63 		bic	r3, r3, #2040
 4541 001e 23F00703 		bic	r3, r3, #7
 4542 0022 1360     		str	r3, [r2]
1270:Drivers/STM32F4xx_HAL_Driver/Src/stm32f4xx_ll_usb.c **** 
1271:Drivers/STM32F4xx_HAL_Driver/Src/stm32f4xx_ll_usb.c ****   USBx_DEVICE->DCTL |= USB_OTG_DCTL_CGINAK;
 4543              		.loc 1 1271 21
 4544 0024 FB68     		ldr	r3, [r7, #12]
 4545 0026 03F50063 		add	r3, r3, #2048
 4546 002a 5B68     		ldr	r3, [r3, #4]
 4547 002c FA68     		ldr	r2, [r7, #12]
 4548 002e 02F50062 		add	r2, r2, #2048
 4549 0032 43F48073 		orr	r3, r3, #256
 4550 0036 5360     		str	r3, [r2, #4]
1272:Drivers/STM32F4xx_HAL_Driver/Src/stm32f4xx_ll_usb.c **** 
1273:Drivers/STM32F4xx_HAL_Driver/Src/stm32f4xx_ll_usb.c ****   return HAL_OK;
 4551              		.loc 1 1273 10
 4552 0038 0023     		movs	r3, #0
1274:Drivers/STM32F4xx_HAL_Driver/Src/stm32f4xx_ll_usb.c **** }
 4553              		.loc 1 1274 1
 4554 003a 1846     		mov	r0, r3
 4555 003c 1437     		adds	r7, r7, #20
 4556              	.LCFI190:
 4557              		.cfi_def_cfa_offset 4
 4558 003e BD46     		mov	sp, r7
 4559              	.LCFI191:
 4560              		.cfi_def_cfa_register 13
 4561              		@ sp needed
 4562 0040 5DF8047B 		ldr	r7, [sp], #4
 4563              	.LCFI192:
 4564              		.cfi_restore 7
 4565              		.cfi_def_cfa_offset 0
 4566 0044 7047     		bx	lr
 4567              		.cfi_endproc
 4568              	.LFE161:
 4570              		.section	.text.USB_EP0_OutStart,"ax",%progbits
 4571              		.align	1
 4572              		.global	USB_EP0_OutStart
 4573              		.syntax unified
 4574              		.thumb
 4575              		.thumb_func
 4576              		.fpu fpv4-sp-d16
 4578              	USB_EP0_OutStart:
 4579              	.LFB162:
1275:Drivers/STM32F4xx_HAL_Driver/Src/stm32f4xx_ll_usb.c **** 
1276:Drivers/STM32F4xx_HAL_Driver/Src/stm32f4xx_ll_usb.c **** /**
1277:Drivers/STM32F4xx_HAL_Driver/Src/stm32f4xx_ll_usb.c ****   * @brief  Prepare the EP0 to start the first control setup
1278:Drivers/STM32F4xx_HAL_Driver/Src/stm32f4xx_ll_usb.c ****   * @param  USBx  Selected device
ARM GAS  /var/folders/vq/qt4vp3kd5rxf7v2b6_fdtdt80000gn/T//ccOb9Y7L.s 			page 103


1279:Drivers/STM32F4xx_HAL_Driver/Src/stm32f4xx_ll_usb.c ****   * @param  dma USB dma enabled or disabled
1280:Drivers/STM32F4xx_HAL_Driver/Src/stm32f4xx_ll_usb.c ****   *          This parameter can be one of these values:
1281:Drivers/STM32F4xx_HAL_Driver/Src/stm32f4xx_ll_usb.c ****   *           0 : DMA feature not used
1282:Drivers/STM32F4xx_HAL_Driver/Src/stm32f4xx_ll_usb.c ****   *           1 : DMA feature used
1283:Drivers/STM32F4xx_HAL_Driver/Src/stm32f4xx_ll_usb.c ****   * @param  psetup  pointer to setup packet
1284:Drivers/STM32F4xx_HAL_Driver/Src/stm32f4xx_ll_usb.c ****   * @retval HAL status
1285:Drivers/STM32F4xx_HAL_Driver/Src/stm32f4xx_ll_usb.c ****   */
1286:Drivers/STM32F4xx_HAL_Driver/Src/stm32f4xx_ll_usb.c **** HAL_StatusTypeDef USB_EP0_OutStart(USB_OTG_GlobalTypeDef *USBx, uint8_t dma, uint8_t *psetup)
1287:Drivers/STM32F4xx_HAL_Driver/Src/stm32f4xx_ll_usb.c **** {
 4580              		.loc 1 1287 1
 4581              		.cfi_startproc
 4582              		@ args = 0, pretend = 0, frame = 24
 4583              		@ frame_needed = 1, uses_anonymous_args = 0
 4584              		@ link register save eliminated.
 4585 0000 80B4     		push	{r7}
 4586              	.LCFI193:
 4587              		.cfi_def_cfa_offset 4
 4588              		.cfi_offset 7, -4
 4589 0002 87B0     		sub	sp, sp, #28
 4590              	.LCFI194:
 4591              		.cfi_def_cfa_offset 32
 4592 0004 00AF     		add	r7, sp, #0
 4593              	.LCFI195:
 4594              		.cfi_def_cfa_register 7
 4595 0006 F860     		str	r0, [r7, #12]
 4596 0008 0B46     		mov	r3, r1
 4597 000a 7A60     		str	r2, [r7, #4]
 4598 000c FB72     		strb	r3, [r7, #11]
1288:Drivers/STM32F4xx_HAL_Driver/Src/stm32f4xx_ll_usb.c ****   uint32_t USBx_BASE = (uint32_t)USBx;
 4599              		.loc 1 1288 12
 4600 000e FB68     		ldr	r3, [r7, #12]
 4601 0010 7B61     		str	r3, [r7, #20]
1289:Drivers/STM32F4xx_HAL_Driver/Src/stm32f4xx_ll_usb.c ****   uint32_t gSNPSiD = *(__IO uint32_t *)(&USBx->CID + 0x1U);
 4602              		.loc 1 1289 41
 4603 0012 FB68     		ldr	r3, [r7, #12]
 4604 0014 3C33     		adds	r3, r3, #60
 4605              		.loc 1 1289 23
 4606 0016 0433     		adds	r3, r3, #4
 4607              		.loc 1 1289 12
 4608 0018 1B68     		ldr	r3, [r3]
 4609 001a 3B61     		str	r3, [r7, #16]
1290:Drivers/STM32F4xx_HAL_Driver/Src/stm32f4xx_ll_usb.c **** 
1291:Drivers/STM32F4xx_HAL_Driver/Src/stm32f4xx_ll_usb.c ****   if (gSNPSiD > USB_OTG_CORE_ID_300A)
 4610              		.loc 1 1291 6
 4611 001c 3B69     		ldr	r3, [r7, #16]
 4612 001e 264A     		ldr	r2, .L189
 4613 0020 9342     		cmp	r3, r2
 4614 0022 0AD9     		bls	.L186
1292:Drivers/STM32F4xx_HAL_Driver/Src/stm32f4xx_ll_usb.c ****   {
1293:Drivers/STM32F4xx_HAL_Driver/Src/stm32f4xx_ll_usb.c ****     if ((USBx_OUTEP(0U)->DOEPCTL & USB_OTG_DOEPCTL_EPENA) == USB_OTG_DOEPCTL_EPENA)
 4615              		.loc 1 1293 10
 4616 0024 7B69     		ldr	r3, [r7, #20]
 4617 0026 03F53063 		add	r3, r3, #2816
 4618              		.loc 1 1293 24
 4619 002a 1B68     		ldr	r3, [r3]
 4620              		.loc 1 1293 34
 4621 002c 03F00043 		and	r3, r3, #-2147483648
ARM GAS  /var/folders/vq/qt4vp3kd5rxf7v2b6_fdtdt80000gn/T//ccOb9Y7L.s 			page 104


 4622              		.loc 1 1293 8
 4623 0030 B3F1004F 		cmp	r3, #-2147483648
 4624 0034 01D1     		bne	.L186
1294:Drivers/STM32F4xx_HAL_Driver/Src/stm32f4xx_ll_usb.c ****     {
1295:Drivers/STM32F4xx_HAL_Driver/Src/stm32f4xx_ll_usb.c ****       return HAL_OK;
 4625              		.loc 1 1295 14
 4626 0036 0023     		movs	r3, #0
 4627 0038 37E0     		b	.L187
 4628              	.L186:
1296:Drivers/STM32F4xx_HAL_Driver/Src/stm32f4xx_ll_usb.c ****     }
1297:Drivers/STM32F4xx_HAL_Driver/Src/stm32f4xx_ll_usb.c ****   }
1298:Drivers/STM32F4xx_HAL_Driver/Src/stm32f4xx_ll_usb.c **** 
1299:Drivers/STM32F4xx_HAL_Driver/Src/stm32f4xx_ll_usb.c ****   USBx_OUTEP(0U)->DOEPTSIZ = 0U;
 4629              		.loc 1 1299 3
 4630 003a 7B69     		ldr	r3, [r7, #20]
 4631 003c 03F53063 		add	r3, r3, #2816
 4632 0040 1A46     		mov	r2, r3
 4633              		.loc 1 1299 28
 4634 0042 0023     		movs	r3, #0
 4635 0044 1361     		str	r3, [r2, #16]
1300:Drivers/STM32F4xx_HAL_Driver/Src/stm32f4xx_ll_usb.c ****   USBx_OUTEP(0U)->DOEPTSIZ |= (USB_OTG_DOEPTSIZ_PKTCNT & (1U << 19));
 4636              		.loc 1 1300 28
 4637 0046 7B69     		ldr	r3, [r7, #20]
 4638 0048 03F53063 		add	r3, r3, #2816
 4639 004c 1B69     		ldr	r3, [r3, #16]
 4640 004e 7A69     		ldr	r2, [r7, #20]
 4641 0050 02F53062 		add	r2, r2, #2816
 4642 0054 43F40023 		orr	r3, r3, #524288
 4643 0058 1361     		str	r3, [r2, #16]
1301:Drivers/STM32F4xx_HAL_Driver/Src/stm32f4xx_ll_usb.c ****   USBx_OUTEP(0U)->DOEPTSIZ |= (3U * 8U);
 4644              		.loc 1 1301 28
 4645 005a 7B69     		ldr	r3, [r7, #20]
 4646 005c 03F53063 		add	r3, r3, #2816
 4647 0060 1B69     		ldr	r3, [r3, #16]
 4648 0062 7A69     		ldr	r2, [r7, #20]
 4649 0064 02F53062 		add	r2, r2, #2816
 4650 0068 43F01803 		orr	r3, r3, #24
 4651 006c 1361     		str	r3, [r2, #16]
1302:Drivers/STM32F4xx_HAL_Driver/Src/stm32f4xx_ll_usb.c ****   USBx_OUTEP(0U)->DOEPTSIZ |=  USB_OTG_DOEPTSIZ_STUPCNT;
 4652              		.loc 1 1302 28
 4653 006e 7B69     		ldr	r3, [r7, #20]
 4654 0070 03F53063 		add	r3, r3, #2816
 4655 0074 1B69     		ldr	r3, [r3, #16]
 4656 0076 7A69     		ldr	r2, [r7, #20]
 4657 0078 02F53062 		add	r2, r2, #2816
 4658 007c 43F0C043 		orr	r3, r3, #1610612736
 4659 0080 1361     		str	r3, [r2, #16]
1303:Drivers/STM32F4xx_HAL_Driver/Src/stm32f4xx_ll_usb.c **** 
1304:Drivers/STM32F4xx_HAL_Driver/Src/stm32f4xx_ll_usb.c ****   if (dma == 1U)
 4660              		.loc 1 1304 6
 4661 0082 FB7A     		ldrb	r3, [r7, #11]	@ zero_extendqisi2
 4662 0084 012B     		cmp	r3, #1
 4663 0086 0FD1     		bne	.L188
1305:Drivers/STM32F4xx_HAL_Driver/Src/stm32f4xx_ll_usb.c ****   {
1306:Drivers/STM32F4xx_HAL_Driver/Src/stm32f4xx_ll_usb.c ****     USBx_OUTEP(0U)->DOEPDMA = (uint32_t)psetup;
 4664              		.loc 1 1306 5
 4665 0088 7B69     		ldr	r3, [r7, #20]
ARM GAS  /var/folders/vq/qt4vp3kd5rxf7v2b6_fdtdt80000gn/T//ccOb9Y7L.s 			page 105


 4666 008a 03F53063 		add	r3, r3, #2816
 4667 008e 1A46     		mov	r2, r3
 4668              		.loc 1 1306 31
 4669 0090 7B68     		ldr	r3, [r7, #4]
 4670              		.loc 1 1306 29
 4671 0092 5361     		str	r3, [r2, #20]
1307:Drivers/STM32F4xx_HAL_Driver/Src/stm32f4xx_ll_usb.c ****     /* EP enable */
1308:Drivers/STM32F4xx_HAL_Driver/Src/stm32f4xx_ll_usb.c ****     USBx_OUTEP(0U)->DOEPCTL |= USB_OTG_DOEPCTL_EPENA | USB_OTG_DOEPCTL_USBAEP;
 4672              		.loc 1 1308 29
 4673 0094 7B69     		ldr	r3, [r7, #20]
 4674 0096 03F53063 		add	r3, r3, #2816
 4675 009a 1B68     		ldr	r3, [r3]
 4676 009c 7A69     		ldr	r2, [r7, #20]
 4677 009e 02F53062 		add	r2, r2, #2816
 4678 00a2 43F08023 		orr	r3, r3, #-2147450880
 4679 00a6 1360     		str	r3, [r2]
 4680              	.L188:
1309:Drivers/STM32F4xx_HAL_Driver/Src/stm32f4xx_ll_usb.c ****   }
1310:Drivers/STM32F4xx_HAL_Driver/Src/stm32f4xx_ll_usb.c **** 
1311:Drivers/STM32F4xx_HAL_Driver/Src/stm32f4xx_ll_usb.c ****   return HAL_OK;
 4681              		.loc 1 1311 10
 4682 00a8 0023     		movs	r3, #0
 4683              	.L187:
1312:Drivers/STM32F4xx_HAL_Driver/Src/stm32f4xx_ll_usb.c **** }
 4684              		.loc 1 1312 1
 4685 00aa 1846     		mov	r0, r3
 4686 00ac 1C37     		adds	r7, r7, #28
 4687              	.LCFI196:
 4688              		.cfi_def_cfa_offset 4
 4689 00ae BD46     		mov	sp, r7
 4690              	.LCFI197:
 4691              		.cfi_def_cfa_register 13
 4692              		@ sp needed
 4693 00b0 5DF8047B 		ldr	r7, [sp], #4
 4694              	.LCFI198:
 4695              		.cfi_restore 7
 4696              		.cfi_def_cfa_offset 0
 4697 00b4 7047     		bx	lr
 4698              	.L190:
 4699 00b6 00BF     		.align	2
 4700              	.L189:
 4701 00b8 0A30544F 		.word	1330917386
 4702              		.cfi_endproc
 4703              	.LFE162:
 4705              		.section	.text.USB_CoreReset,"ax",%progbits
 4706              		.align	1
 4707              		.syntax unified
 4708              		.thumb
 4709              		.thumb_func
 4710              		.fpu fpv4-sp-d16
 4712              	USB_CoreReset:
 4713              	.LFB163:
1313:Drivers/STM32F4xx_HAL_Driver/Src/stm32f4xx_ll_usb.c **** 
1314:Drivers/STM32F4xx_HAL_Driver/Src/stm32f4xx_ll_usb.c **** /**
1315:Drivers/STM32F4xx_HAL_Driver/Src/stm32f4xx_ll_usb.c ****   * @brief  Reset the USB Core (needed after USB clock settings change)
1316:Drivers/STM32F4xx_HAL_Driver/Src/stm32f4xx_ll_usb.c ****   * @param  USBx  Selected device
1317:Drivers/STM32F4xx_HAL_Driver/Src/stm32f4xx_ll_usb.c ****   * @retval HAL status
ARM GAS  /var/folders/vq/qt4vp3kd5rxf7v2b6_fdtdt80000gn/T//ccOb9Y7L.s 			page 106


1318:Drivers/STM32F4xx_HAL_Driver/Src/stm32f4xx_ll_usb.c ****   */
1319:Drivers/STM32F4xx_HAL_Driver/Src/stm32f4xx_ll_usb.c **** static HAL_StatusTypeDef USB_CoreReset(USB_OTG_GlobalTypeDef *USBx)
1320:Drivers/STM32F4xx_HAL_Driver/Src/stm32f4xx_ll_usb.c **** {
 4714              		.loc 1 1320 1
 4715              		.cfi_startproc
 4716              		@ args = 0, pretend = 0, frame = 16
 4717              		@ frame_needed = 1, uses_anonymous_args = 0
 4718              		@ link register save eliminated.
 4719 0000 80B4     		push	{r7}
 4720              	.LCFI199:
 4721              		.cfi_def_cfa_offset 4
 4722              		.cfi_offset 7, -4
 4723 0002 85B0     		sub	sp, sp, #20
 4724              	.LCFI200:
 4725              		.cfi_def_cfa_offset 24
 4726 0004 00AF     		add	r7, sp, #0
 4727              	.LCFI201:
 4728              		.cfi_def_cfa_register 7
 4729 0006 7860     		str	r0, [r7, #4]
1321:Drivers/STM32F4xx_HAL_Driver/Src/stm32f4xx_ll_usb.c ****   uint32_t count = 0U;
 4730              		.loc 1 1321 12
 4731 0008 0023     		movs	r3, #0
 4732 000a FB60     		str	r3, [r7, #12]
 4733              	.L194:
1322:Drivers/STM32F4xx_HAL_Driver/Src/stm32f4xx_ll_usb.c **** 
1323:Drivers/STM32F4xx_HAL_Driver/Src/stm32f4xx_ll_usb.c ****   /* Wait for AHB master IDLE state. */
1324:Drivers/STM32F4xx_HAL_Driver/Src/stm32f4xx_ll_usb.c ****   do
1325:Drivers/STM32F4xx_HAL_Driver/Src/stm32f4xx_ll_usb.c ****   {
1326:Drivers/STM32F4xx_HAL_Driver/Src/stm32f4xx_ll_usb.c ****     if (++count > 200000U)
 4734              		.loc 1 1326 8
 4735 000c FB68     		ldr	r3, [r7, #12]
 4736 000e 0133     		adds	r3, r3, #1
 4737 0010 FB60     		str	r3, [r7, #12]
 4738 0012 FB68     		ldr	r3, [r7, #12]
 4739 0014 134A     		ldr	r2, .L197
 4740 0016 9342     		cmp	r3, r2
 4741 0018 01D9     		bls	.L192
1327:Drivers/STM32F4xx_HAL_Driver/Src/stm32f4xx_ll_usb.c ****     {
1328:Drivers/STM32F4xx_HAL_Driver/Src/stm32f4xx_ll_usb.c ****       return HAL_TIMEOUT;
 4742              		.loc 1 1328 14
 4743 001a 0323     		movs	r3, #3
 4744 001c 1BE0     		b	.L193
 4745              	.L192:
1329:Drivers/STM32F4xx_HAL_Driver/Src/stm32f4xx_ll_usb.c ****     }
1330:Drivers/STM32F4xx_HAL_Driver/Src/stm32f4xx_ll_usb.c ****   } while ((USBx->GRSTCTL & USB_OTG_GRSTCTL_AHBIDL) == 0U);
 4746              		.loc 1 1330 17
 4747 001e 7B68     		ldr	r3, [r7, #4]
 4748 0020 1B69     		ldr	r3, [r3, #16]
 4749              		.loc 1 1330 3
 4750 0022 002B     		cmp	r3, #0
 4751 0024 F2DA     		bge	.L194
1331:Drivers/STM32F4xx_HAL_Driver/Src/stm32f4xx_ll_usb.c **** 
1332:Drivers/STM32F4xx_HAL_Driver/Src/stm32f4xx_ll_usb.c ****   /* Core Soft Reset */
1333:Drivers/STM32F4xx_HAL_Driver/Src/stm32f4xx_ll_usb.c ****   count = 0U;
 4752              		.loc 1 1333 9
 4753 0026 0023     		movs	r3, #0
 4754 0028 FB60     		str	r3, [r7, #12]
ARM GAS  /var/folders/vq/qt4vp3kd5rxf7v2b6_fdtdt80000gn/T//ccOb9Y7L.s 			page 107


1334:Drivers/STM32F4xx_HAL_Driver/Src/stm32f4xx_ll_usb.c ****   USBx->GRSTCTL |= USB_OTG_GRSTCTL_CSRST;
 4755              		.loc 1 1334 17
 4756 002a 7B68     		ldr	r3, [r7, #4]
 4757 002c 1B69     		ldr	r3, [r3, #16]
 4758 002e 43F00102 		orr	r2, r3, #1
 4759 0032 7B68     		ldr	r3, [r7, #4]
 4760 0034 1A61     		str	r2, [r3, #16]
 4761              	.L196:
1335:Drivers/STM32F4xx_HAL_Driver/Src/stm32f4xx_ll_usb.c **** 
1336:Drivers/STM32F4xx_HAL_Driver/Src/stm32f4xx_ll_usb.c ****   do
1337:Drivers/STM32F4xx_HAL_Driver/Src/stm32f4xx_ll_usb.c ****   {
1338:Drivers/STM32F4xx_HAL_Driver/Src/stm32f4xx_ll_usb.c ****     if (++count > 200000U)
 4762              		.loc 1 1338 8
 4763 0036 FB68     		ldr	r3, [r7, #12]
 4764 0038 0133     		adds	r3, r3, #1
 4765 003a FB60     		str	r3, [r7, #12]
 4766 003c FB68     		ldr	r3, [r7, #12]
 4767 003e 094A     		ldr	r2, .L197
 4768 0040 9342     		cmp	r3, r2
 4769 0042 01D9     		bls	.L195
1339:Drivers/STM32F4xx_HAL_Driver/Src/stm32f4xx_ll_usb.c ****     {
1340:Drivers/STM32F4xx_HAL_Driver/Src/stm32f4xx_ll_usb.c ****       return HAL_TIMEOUT;
 4770              		.loc 1 1340 14
 4771 0044 0323     		movs	r3, #3
 4772 0046 06E0     		b	.L193
 4773              	.L195:
1341:Drivers/STM32F4xx_HAL_Driver/Src/stm32f4xx_ll_usb.c ****     }
1342:Drivers/STM32F4xx_HAL_Driver/Src/stm32f4xx_ll_usb.c ****   } while ((USBx->GRSTCTL & USB_OTG_GRSTCTL_CSRST) == USB_OTG_GRSTCTL_CSRST);
 4774              		.loc 1 1342 17
 4775 0048 7B68     		ldr	r3, [r7, #4]
 4776 004a 1B69     		ldr	r3, [r3, #16]
 4777              		.loc 1 1342 27
 4778 004c 03F00103 		and	r3, r3, #1
 4779              		.loc 1 1342 3
 4780 0050 012B     		cmp	r3, #1
 4781 0052 F0D0     		beq	.L196
1343:Drivers/STM32F4xx_HAL_Driver/Src/stm32f4xx_ll_usb.c **** 
1344:Drivers/STM32F4xx_HAL_Driver/Src/stm32f4xx_ll_usb.c ****   return HAL_OK;
 4782              		.loc 1 1344 10
 4783 0054 0023     		movs	r3, #0
 4784              	.L193:
1345:Drivers/STM32F4xx_HAL_Driver/Src/stm32f4xx_ll_usb.c **** }
 4785              		.loc 1 1345 1
 4786 0056 1846     		mov	r0, r3
 4787 0058 1437     		adds	r7, r7, #20
 4788              	.LCFI202:
 4789              		.cfi_def_cfa_offset 4
 4790 005a BD46     		mov	sp, r7
 4791              	.LCFI203:
 4792              		.cfi_def_cfa_register 13
 4793              		@ sp needed
 4794 005c 5DF8047B 		ldr	r7, [sp], #4
 4795              	.LCFI204:
 4796              		.cfi_restore 7
 4797              		.cfi_def_cfa_offset 0
 4798 0060 7047     		bx	lr
 4799              	.L198:
ARM GAS  /var/folders/vq/qt4vp3kd5rxf7v2b6_fdtdt80000gn/T//ccOb9Y7L.s 			page 108


 4800 0062 00BF     		.align	2
 4801              	.L197:
 4802 0064 400D0300 		.word	200000
 4803              		.cfi_endproc
 4804              	.LFE163:
 4806              		.section	.text.USB_HostInit,"ax",%progbits
 4807              		.align	1
 4808              		.global	USB_HostInit
 4809              		.syntax unified
 4810              		.thumb
 4811              		.thumb_func
 4812              		.fpu fpv4-sp-d16
 4814              	USB_HostInit:
 4815              	.LFB164:
1346:Drivers/STM32F4xx_HAL_Driver/Src/stm32f4xx_ll_usb.c **** 
1347:Drivers/STM32F4xx_HAL_Driver/Src/stm32f4xx_ll_usb.c **** /**
1348:Drivers/STM32F4xx_HAL_Driver/Src/stm32f4xx_ll_usb.c ****   * @brief  USB_HostInit : Initializes the USB OTG controller registers
1349:Drivers/STM32F4xx_HAL_Driver/Src/stm32f4xx_ll_usb.c ****   *         for Host mode
1350:Drivers/STM32F4xx_HAL_Driver/Src/stm32f4xx_ll_usb.c ****   * @param  USBx  Selected device
1351:Drivers/STM32F4xx_HAL_Driver/Src/stm32f4xx_ll_usb.c ****   * @param  cfg   pointer to a USB_OTG_CfgTypeDef structure that contains
1352:Drivers/STM32F4xx_HAL_Driver/Src/stm32f4xx_ll_usb.c ****   *         the configuration information for the specified USBx peripheral.
1353:Drivers/STM32F4xx_HAL_Driver/Src/stm32f4xx_ll_usb.c ****   * @retval HAL status
1354:Drivers/STM32F4xx_HAL_Driver/Src/stm32f4xx_ll_usb.c ****   */
1355:Drivers/STM32F4xx_HAL_Driver/Src/stm32f4xx_ll_usb.c **** HAL_StatusTypeDef USB_HostInit(USB_OTG_GlobalTypeDef *USBx, USB_OTG_CfgTypeDef cfg)
1356:Drivers/STM32F4xx_HAL_Driver/Src/stm32f4xx_ll_usb.c **** {
 4816              		.loc 1 1356 1
 4817              		.cfi_startproc
 4818              		@ args = 56, pretend = 16, frame = 16
 4819              		@ frame_needed = 1, uses_anonymous_args = 0
 4820 0000 84B0     		sub	sp, sp, #16
 4821              	.LCFI205:
 4822              		.cfi_def_cfa_offset 16
 4823 0002 80B5     		push	{r7, lr}
 4824              	.LCFI206:
 4825              		.cfi_def_cfa_offset 24
 4826              		.cfi_offset 7, -24
 4827              		.cfi_offset 14, -20
 4828 0004 84B0     		sub	sp, sp, #16
 4829              	.LCFI207:
 4830              		.cfi_def_cfa_offset 40
 4831 0006 00AF     		add	r7, sp, #0
 4832              	.LCFI208:
 4833              		.cfi_def_cfa_register 7
 4834 0008 7860     		str	r0, [r7, #4]
 4835 000a 07F11C00 		add	r0, r7, #28
 4836 000e 80E80E00 		stm	r0, {r1, r2, r3}
1357:Drivers/STM32F4xx_HAL_Driver/Src/stm32f4xx_ll_usb.c ****   uint32_t USBx_BASE = (uint32_t)USBx;
 4837              		.loc 1 1357 12
 4838 0012 7B68     		ldr	r3, [r7, #4]
 4839 0014 BB60     		str	r3, [r7, #8]
1358:Drivers/STM32F4xx_HAL_Driver/Src/stm32f4xx_ll_usb.c ****   uint32_t i;
1359:Drivers/STM32F4xx_HAL_Driver/Src/stm32f4xx_ll_usb.c **** 
1360:Drivers/STM32F4xx_HAL_Driver/Src/stm32f4xx_ll_usb.c ****   /* Restart the Phy Clock */
1361:Drivers/STM32F4xx_HAL_Driver/Src/stm32f4xx_ll_usb.c ****   USBx_PCGCCTL = 0U;
 4840              		.loc 1 1361 3
 4841 0016 BB68     		ldr	r3, [r7, #8]
 4842 0018 03F56063 		add	r3, r3, #3584
ARM GAS  /var/folders/vq/qt4vp3kd5rxf7v2b6_fdtdt80000gn/T//ccOb9Y7L.s 			page 109


 4843 001c 1A46     		mov	r2, r3
 4844              		.loc 1 1361 16
 4845 001e 0023     		movs	r3, #0
 4846 0020 1360     		str	r3, [r2]
1362:Drivers/STM32F4xx_HAL_Driver/Src/stm32f4xx_ll_usb.c **** 
1363:Drivers/STM32F4xx_HAL_Driver/Src/stm32f4xx_ll_usb.c **** #if defined(STM32F446xx) || defined(STM32F469xx) || defined(STM32F479xx) || defined(STM32F412Zx) ||
1364:Drivers/STM32F4xx_HAL_Driver/Src/stm32f4xx_ll_usb.c ****   /* Disable HW VBUS sensing */
1365:Drivers/STM32F4xx_HAL_Driver/Src/stm32f4xx_ll_usb.c ****   USBx->GCCFG &= ~(USB_OTG_GCCFG_VBDEN);
1366:Drivers/STM32F4xx_HAL_Driver/Src/stm32f4xx_ll_usb.c **** #else
1367:Drivers/STM32F4xx_HAL_Driver/Src/stm32f4xx_ll_usb.c ****   /*
1368:Drivers/STM32F4xx_HAL_Driver/Src/stm32f4xx_ll_usb.c ****   * Disable HW VBUS sensing. VBUS is internally considered to be always
1369:Drivers/STM32F4xx_HAL_Driver/Src/stm32f4xx_ll_usb.c ****   * at VBUS-Valid level (5V).
1370:Drivers/STM32F4xx_HAL_Driver/Src/stm32f4xx_ll_usb.c ****   */
1371:Drivers/STM32F4xx_HAL_Driver/Src/stm32f4xx_ll_usb.c ****   USBx->GCCFG |= USB_OTG_GCCFG_NOVBUSSENS;
 4847              		.loc 1 1371 15
 4848 0022 7B68     		ldr	r3, [r7, #4]
 4849 0024 9B6B     		ldr	r3, [r3, #56]
 4850 0026 43F40012 		orr	r2, r3, #2097152
 4851 002a 7B68     		ldr	r3, [r7, #4]
 4852 002c 9A63     		str	r2, [r3, #56]
1372:Drivers/STM32F4xx_HAL_Driver/Src/stm32f4xx_ll_usb.c ****   USBx->GCCFG &= ~USB_OTG_GCCFG_VBUSBSEN;
 4853              		.loc 1 1372 15
 4854 002e 7B68     		ldr	r3, [r7, #4]
 4855 0030 9B6B     		ldr	r3, [r3, #56]
 4856 0032 23F40022 		bic	r2, r3, #524288
 4857 0036 7B68     		ldr	r3, [r7, #4]
 4858 0038 9A63     		str	r2, [r3, #56]
1373:Drivers/STM32F4xx_HAL_Driver/Src/stm32f4xx_ll_usb.c ****   USBx->GCCFG &= ~USB_OTG_GCCFG_VBUSASEN;
 4859              		.loc 1 1373 15
 4860 003a 7B68     		ldr	r3, [r7, #4]
 4861 003c 9B6B     		ldr	r3, [r3, #56]
 4862 003e 23F48022 		bic	r2, r3, #262144
 4863 0042 7B68     		ldr	r3, [r7, #4]
 4864 0044 9A63     		str	r2, [r3, #56]
1374:Drivers/STM32F4xx_HAL_Driver/Src/stm32f4xx_ll_usb.c **** #endif /* defined(STM32F446xx) || defined(STM32F469xx) || defined(STM32F479xx) || defined(STM32F412
1375:Drivers/STM32F4xx_HAL_Driver/Src/stm32f4xx_ll_usb.c **** #if defined(STM32F412Zx) || defined(STM32F412Vx) || defined(STM32F412Rx) || defined(STM32F412Cx) ||
1376:Drivers/STM32F4xx_HAL_Driver/Src/stm32f4xx_ll_usb.c ****   /* Disable Battery chargin detector */
1377:Drivers/STM32F4xx_HAL_Driver/Src/stm32f4xx_ll_usb.c ****   USBx->GCCFG &= ~(USB_OTG_GCCFG_BCDEN);
1378:Drivers/STM32F4xx_HAL_Driver/Src/stm32f4xx_ll_usb.c **** #endif /* defined(STM32F412Zx) || defined(STM32F412Vx) || defined(STM32F412Rx) || defined(STM32F412
1379:Drivers/STM32F4xx_HAL_Driver/Src/stm32f4xx_ll_usb.c **** 
1380:Drivers/STM32F4xx_HAL_Driver/Src/stm32f4xx_ll_usb.c ****   if ((USBx->CID & (0x1U << 8)) != 0U)
 4865              		.loc 1 1380 12
 4866 0046 7B68     		ldr	r3, [r7, #4]
 4867 0048 DB6B     		ldr	r3, [r3, #60]
 4868              		.loc 1 1380 18
 4869 004a 03F48073 		and	r3, r3, #256
 4870              		.loc 1 1380 6
 4871 004e 002B     		cmp	r3, #0
 4872 0050 18D0     		beq	.L200
1381:Drivers/STM32F4xx_HAL_Driver/Src/stm32f4xx_ll_usb.c ****   {
1382:Drivers/STM32F4xx_HAL_Driver/Src/stm32f4xx_ll_usb.c ****     if (cfg.speed == USBH_FSLS_SPEED)
 4873              		.loc 1 1382 12
 4874 0052 7B6A     		ldr	r3, [r7, #36]
 4875              		.loc 1 1382 8
 4876 0054 012B     		cmp	r3, #1
 4877 0056 0AD1     		bne	.L201
1383:Drivers/STM32F4xx_HAL_Driver/Src/stm32f4xx_ll_usb.c ****     {
ARM GAS  /var/folders/vq/qt4vp3kd5rxf7v2b6_fdtdt80000gn/T//ccOb9Y7L.s 			page 110


1384:Drivers/STM32F4xx_HAL_Driver/Src/stm32f4xx_ll_usb.c ****       /* Force Device Enumeration to FS/LS mode only */
1385:Drivers/STM32F4xx_HAL_Driver/Src/stm32f4xx_ll_usb.c ****       USBx_HOST->HCFG |= USB_OTG_HCFG_FSLSS;
 4878              		.loc 1 1385 23
 4879 0058 BB68     		ldr	r3, [r7, #8]
 4880 005a 03F58063 		add	r3, r3, #1024
 4881 005e 1B68     		ldr	r3, [r3]
 4882 0060 BA68     		ldr	r2, [r7, #8]
 4883 0062 02F58062 		add	r2, r2, #1024
 4884 0066 43F00403 		orr	r3, r3, #4
 4885 006a 1360     		str	r3, [r2]
 4886 006c 14E0     		b	.L202
 4887              	.L201:
1386:Drivers/STM32F4xx_HAL_Driver/Src/stm32f4xx_ll_usb.c ****     }
1387:Drivers/STM32F4xx_HAL_Driver/Src/stm32f4xx_ll_usb.c ****     else
1388:Drivers/STM32F4xx_HAL_Driver/Src/stm32f4xx_ll_usb.c ****     {
1389:Drivers/STM32F4xx_HAL_Driver/Src/stm32f4xx_ll_usb.c ****       /* Set default Max speed support */
1390:Drivers/STM32F4xx_HAL_Driver/Src/stm32f4xx_ll_usb.c ****       USBx_HOST->HCFG &= ~(USB_OTG_HCFG_FSLSS);
 4888              		.loc 1 1390 23
 4889 006e BB68     		ldr	r3, [r7, #8]
 4890 0070 03F58063 		add	r3, r3, #1024
 4891 0074 1B68     		ldr	r3, [r3]
 4892 0076 BA68     		ldr	r2, [r7, #8]
 4893 0078 02F58062 		add	r2, r2, #1024
 4894 007c 23F00403 		bic	r3, r3, #4
 4895 0080 1360     		str	r3, [r2]
 4896 0082 09E0     		b	.L202
 4897              	.L200:
1391:Drivers/STM32F4xx_HAL_Driver/Src/stm32f4xx_ll_usb.c ****     }
1392:Drivers/STM32F4xx_HAL_Driver/Src/stm32f4xx_ll_usb.c ****   }
1393:Drivers/STM32F4xx_HAL_Driver/Src/stm32f4xx_ll_usb.c ****   else
1394:Drivers/STM32F4xx_HAL_Driver/Src/stm32f4xx_ll_usb.c ****   {
1395:Drivers/STM32F4xx_HAL_Driver/Src/stm32f4xx_ll_usb.c ****     /* Set default Max speed support */
1396:Drivers/STM32F4xx_HAL_Driver/Src/stm32f4xx_ll_usb.c ****     USBx_HOST->HCFG &= ~(USB_OTG_HCFG_FSLSS);
 4898              		.loc 1 1396 21
 4899 0084 BB68     		ldr	r3, [r7, #8]
 4900 0086 03F58063 		add	r3, r3, #1024
 4901 008a 1B68     		ldr	r3, [r3]
 4902 008c BA68     		ldr	r2, [r7, #8]
 4903 008e 02F58062 		add	r2, r2, #1024
 4904 0092 23F00403 		bic	r3, r3, #4
 4905 0096 1360     		str	r3, [r2]
 4906              	.L202:
1397:Drivers/STM32F4xx_HAL_Driver/Src/stm32f4xx_ll_usb.c ****   }
1398:Drivers/STM32F4xx_HAL_Driver/Src/stm32f4xx_ll_usb.c **** 
1399:Drivers/STM32F4xx_HAL_Driver/Src/stm32f4xx_ll_usb.c ****   /* Make sure the FIFOs are flushed. */
1400:Drivers/STM32F4xx_HAL_Driver/Src/stm32f4xx_ll_usb.c ****   (void)USB_FlushTxFifo(USBx, 0x10U); /* all Tx FIFOs */
 4907              		.loc 1 1400 9
 4908 0098 1021     		movs	r1, #16
 4909 009a 7868     		ldr	r0, [r7, #4]
 4910 009c FFF7FEFF 		bl	USB_FlushTxFifo
1401:Drivers/STM32F4xx_HAL_Driver/Src/stm32f4xx_ll_usb.c ****   (void)USB_FlushRxFifo(USBx);
 4911              		.loc 1 1401 9
 4912 00a0 7868     		ldr	r0, [r7, #4]
 4913 00a2 FFF7FEFF 		bl	USB_FlushRxFifo
1402:Drivers/STM32F4xx_HAL_Driver/Src/stm32f4xx_ll_usb.c **** 
1403:Drivers/STM32F4xx_HAL_Driver/Src/stm32f4xx_ll_usb.c ****   /* Clear all pending HC Interrupts */
1404:Drivers/STM32F4xx_HAL_Driver/Src/stm32f4xx_ll_usb.c ****   for (i = 0U; i < cfg.Host_channels; i++)
ARM GAS  /var/folders/vq/qt4vp3kd5rxf7v2b6_fdtdt80000gn/T//ccOb9Y7L.s 			page 111


 4914              		.loc 1 1404 10
 4915 00a6 0023     		movs	r3, #0
 4916 00a8 FB60     		str	r3, [r7, #12]
 4917              		.loc 1 1404 3
 4918 00aa 15E0     		b	.L203
 4919              	.L204:
1405:Drivers/STM32F4xx_HAL_Driver/Src/stm32f4xx_ll_usb.c ****   {
1406:Drivers/STM32F4xx_HAL_Driver/Src/stm32f4xx_ll_usb.c ****     USBx_HC(i)->HCINT = 0xFFFFFFFFU;
 4920              		.loc 1 1406 5 discriminator 3
 4921 00ac FB68     		ldr	r3, [r7, #12]
 4922 00ae 5A01     		lsls	r2, r3, #5
 4923 00b0 BB68     		ldr	r3, [r7, #8]
 4924 00b2 1344     		add	r3, r3, r2
 4925 00b4 03F5A063 		add	r3, r3, #1280
 4926 00b8 1A46     		mov	r2, r3
 4927              		.loc 1 1406 23 discriminator 3
 4928 00ba 4FF0FF33 		mov	r3, #-1
 4929 00be 9360     		str	r3, [r2, #8]
1407:Drivers/STM32F4xx_HAL_Driver/Src/stm32f4xx_ll_usb.c ****     USBx_HC(i)->HCINTMSK = 0U;
 4930              		.loc 1 1407 5 discriminator 3
 4931 00c0 FB68     		ldr	r3, [r7, #12]
 4932 00c2 5A01     		lsls	r2, r3, #5
 4933 00c4 BB68     		ldr	r3, [r7, #8]
 4934 00c6 1344     		add	r3, r3, r2
 4935 00c8 03F5A063 		add	r3, r3, #1280
 4936 00cc 1A46     		mov	r2, r3
 4937              		.loc 1 1407 26 discriminator 3
 4938 00ce 0023     		movs	r3, #0
 4939 00d0 D360     		str	r3, [r2, #12]
1404:Drivers/STM32F4xx_HAL_Driver/Src/stm32f4xx_ll_usb.c ****   {
 4940              		.loc 1 1404 40 discriminator 3
 4941 00d2 FB68     		ldr	r3, [r7, #12]
 4942 00d4 0133     		adds	r3, r3, #1
 4943 00d6 FB60     		str	r3, [r7, #12]
 4944              	.L203:
1404:Drivers/STM32F4xx_HAL_Driver/Src/stm32f4xx_ll_usb.c ****   {
 4945              		.loc 1 1404 23 discriminator 1
 4946 00d8 3B6A     		ldr	r3, [r7, #32]
1404:Drivers/STM32F4xx_HAL_Driver/Src/stm32f4xx_ll_usb.c ****   {
 4947              		.loc 1 1404 3 discriminator 1
 4948 00da FA68     		ldr	r2, [r7, #12]
 4949 00dc 9A42     		cmp	r2, r3
 4950 00de E5D3     		bcc	.L204
1408:Drivers/STM32F4xx_HAL_Driver/Src/stm32f4xx_ll_usb.c ****   }
1409:Drivers/STM32F4xx_HAL_Driver/Src/stm32f4xx_ll_usb.c **** 
1410:Drivers/STM32F4xx_HAL_Driver/Src/stm32f4xx_ll_usb.c ****   /* Enable VBUS driving */
1411:Drivers/STM32F4xx_HAL_Driver/Src/stm32f4xx_ll_usb.c ****   (void)USB_DriveVbus(USBx, 1U);
 4951              		.loc 1 1411 9
 4952 00e0 0121     		movs	r1, #1
 4953 00e2 7868     		ldr	r0, [r7, #4]
 4954 00e4 FFF7FEFF 		bl	USB_DriveVbus
1412:Drivers/STM32F4xx_HAL_Driver/Src/stm32f4xx_ll_usb.c **** 
1413:Drivers/STM32F4xx_HAL_Driver/Src/stm32f4xx_ll_usb.c ****   HAL_Delay(200U);
 4955              		.loc 1 1413 3
 4956 00e8 C820     		movs	r0, #200
 4957 00ea FFF7FEFF 		bl	HAL_Delay
1414:Drivers/STM32F4xx_HAL_Driver/Src/stm32f4xx_ll_usb.c **** 
ARM GAS  /var/folders/vq/qt4vp3kd5rxf7v2b6_fdtdt80000gn/T//ccOb9Y7L.s 			page 112


1415:Drivers/STM32F4xx_HAL_Driver/Src/stm32f4xx_ll_usb.c ****   /* Disable all interrupts. */
1416:Drivers/STM32F4xx_HAL_Driver/Src/stm32f4xx_ll_usb.c ****   USBx->GINTMSK = 0U;
 4958              		.loc 1 1416 17
 4959 00ee 7B68     		ldr	r3, [r7, #4]
 4960 00f0 0022     		movs	r2, #0
 4961 00f2 9A61     		str	r2, [r3, #24]
1417:Drivers/STM32F4xx_HAL_Driver/Src/stm32f4xx_ll_usb.c **** 
1418:Drivers/STM32F4xx_HAL_Driver/Src/stm32f4xx_ll_usb.c ****   /* Clear any pending interrupts */
1419:Drivers/STM32F4xx_HAL_Driver/Src/stm32f4xx_ll_usb.c ****   USBx->GINTSTS = 0xFFFFFFFFU;
 4962              		.loc 1 1419 17
 4963 00f4 7B68     		ldr	r3, [r7, #4]
 4964 00f6 4FF0FF32 		mov	r2, #-1
 4965 00fa 5A61     		str	r2, [r3, #20]
1420:Drivers/STM32F4xx_HAL_Driver/Src/stm32f4xx_ll_usb.c **** 
1421:Drivers/STM32F4xx_HAL_Driver/Src/stm32f4xx_ll_usb.c ****   if ((USBx->CID & (0x1U << 8)) != 0U)
 4966              		.loc 1 1421 12
 4967 00fc 7B68     		ldr	r3, [r7, #4]
 4968 00fe DB6B     		ldr	r3, [r3, #60]
 4969              		.loc 1 1421 18
 4970 0100 03F48073 		and	r3, r3, #256
 4971              		.loc 1 1421 6
 4972 0104 002B     		cmp	r3, #0
 4973 0106 0BD0     		beq	.L205
1422:Drivers/STM32F4xx_HAL_Driver/Src/stm32f4xx_ll_usb.c ****   {
1423:Drivers/STM32F4xx_HAL_Driver/Src/stm32f4xx_ll_usb.c ****     /* set Rx FIFO size */
1424:Drivers/STM32F4xx_HAL_Driver/Src/stm32f4xx_ll_usb.c ****     USBx->GRXFSIZ  = 0x200U;
 4974              		.loc 1 1424 20
 4975 0108 7B68     		ldr	r3, [r7, #4]
 4976 010a 4FF40072 		mov	r2, #512
 4977 010e 5A62     		str	r2, [r3, #36]
1425:Drivers/STM32F4xx_HAL_Driver/Src/stm32f4xx_ll_usb.c ****     USBx->DIEPTXF0_HNPTXFSIZ = (uint32_t)(((0x100U << 16) & USB_OTG_NPTXFD) | 0x200U);
 4978              		.loc 1 1425 30
 4979 0110 7B68     		ldr	r3, [r7, #4]
 4980 0112 144A     		ldr	r2, .L209
 4981 0114 9A62     		str	r2, [r3, #40]
1426:Drivers/STM32F4xx_HAL_Driver/Src/stm32f4xx_ll_usb.c ****     USBx->HPTXFSIZ = (uint32_t)(((0xE0U << 16) & USB_OTG_HPTXFSIZ_PTXFD) | 0x300U);
 4982              		.loc 1 1426 20
 4983 0116 7B68     		ldr	r3, [r7, #4]
 4984 0118 134A     		ldr	r2, .L209+4
 4985 011a C3F80021 		str	r2, [r3, #256]
 4986 011e 09E0     		b	.L206
 4987              	.L205:
1427:Drivers/STM32F4xx_HAL_Driver/Src/stm32f4xx_ll_usb.c ****   }
1428:Drivers/STM32F4xx_HAL_Driver/Src/stm32f4xx_ll_usb.c ****   else
1429:Drivers/STM32F4xx_HAL_Driver/Src/stm32f4xx_ll_usb.c ****   {
1430:Drivers/STM32F4xx_HAL_Driver/Src/stm32f4xx_ll_usb.c ****     /* set Rx FIFO size */
1431:Drivers/STM32F4xx_HAL_Driver/Src/stm32f4xx_ll_usb.c ****     USBx->GRXFSIZ  = 0x80U;
 4988              		.loc 1 1431 20
 4989 0120 7B68     		ldr	r3, [r7, #4]
 4990 0122 8022     		movs	r2, #128
 4991 0124 5A62     		str	r2, [r3, #36]
1432:Drivers/STM32F4xx_HAL_Driver/Src/stm32f4xx_ll_usb.c ****     USBx->DIEPTXF0_HNPTXFSIZ = (uint32_t)(((0x60U << 16) & USB_OTG_NPTXFD) | 0x80U);
 4992              		.loc 1 1432 30
 4993 0126 7B68     		ldr	r3, [r7, #4]
 4994 0128 104A     		ldr	r2, .L209+8
 4995 012a 9A62     		str	r2, [r3, #40]
1433:Drivers/STM32F4xx_HAL_Driver/Src/stm32f4xx_ll_usb.c ****     USBx->HPTXFSIZ = (uint32_t)(((0x40U << 16)& USB_OTG_HPTXFSIZ_PTXFD) | 0xE0U);
ARM GAS  /var/folders/vq/qt4vp3kd5rxf7v2b6_fdtdt80000gn/T//ccOb9Y7L.s 			page 113


 4996              		.loc 1 1433 20
 4997 012c 7B68     		ldr	r3, [r7, #4]
 4998 012e 104A     		ldr	r2, .L209+12
 4999 0130 C3F80021 		str	r2, [r3, #256]
 5000              	.L206:
1434:Drivers/STM32F4xx_HAL_Driver/Src/stm32f4xx_ll_usb.c ****   }
1435:Drivers/STM32F4xx_HAL_Driver/Src/stm32f4xx_ll_usb.c **** 
1436:Drivers/STM32F4xx_HAL_Driver/Src/stm32f4xx_ll_usb.c ****   /* Enable the common interrupts */
1437:Drivers/STM32F4xx_HAL_Driver/Src/stm32f4xx_ll_usb.c ****   if (cfg.dma_enable == 0U)
 5001              		.loc 1 1437 10
 5002 0134 BB6A     		ldr	r3, [r7, #40]
 5003              		.loc 1 1437 6
 5004 0136 002B     		cmp	r3, #0
 5005 0138 05D1     		bne	.L207
1438:Drivers/STM32F4xx_HAL_Driver/Src/stm32f4xx_ll_usb.c ****   {
1439:Drivers/STM32F4xx_HAL_Driver/Src/stm32f4xx_ll_usb.c ****     USBx->GINTMSK |= USB_OTG_GINTMSK_RXFLVLM;
 5006              		.loc 1 1439 19
 5007 013a 7B68     		ldr	r3, [r7, #4]
 5008 013c 9B69     		ldr	r3, [r3, #24]
 5009 013e 43F01002 		orr	r2, r3, #16
 5010 0142 7B68     		ldr	r3, [r7, #4]
 5011 0144 9A61     		str	r2, [r3, #24]
 5012              	.L207:
1440:Drivers/STM32F4xx_HAL_Driver/Src/stm32f4xx_ll_usb.c ****   }
1441:Drivers/STM32F4xx_HAL_Driver/Src/stm32f4xx_ll_usb.c **** 
1442:Drivers/STM32F4xx_HAL_Driver/Src/stm32f4xx_ll_usb.c ****   /* Enable interrupts matching to the Host mode ONLY */
1443:Drivers/STM32F4xx_HAL_Driver/Src/stm32f4xx_ll_usb.c ****   USBx->GINTMSK |= (USB_OTG_GINTMSK_PRTIM            | USB_OTG_GINTMSK_HCIM | \
 5013              		.loc 1 1443 17
 5014 0146 7B68     		ldr	r3, [r7, #4]
 5015 0148 9A69     		ldr	r2, [r3, #24]
 5016 014a 0A4B     		ldr	r3, .L209+16
 5017 014c 1343     		orrs	r3, r3, r2
 5018 014e 7A68     		ldr	r2, [r7, #4]
 5019 0150 9361     		str	r3, [r2, #24]
1444:Drivers/STM32F4xx_HAL_Driver/Src/stm32f4xx_ll_usb.c ****                     USB_OTG_GINTMSK_SOFM             | USB_OTG_GINTSTS_DISCINT | \
1445:Drivers/STM32F4xx_HAL_Driver/Src/stm32f4xx_ll_usb.c ****                     USB_OTG_GINTMSK_PXFRM_IISOOXFRM  | USB_OTG_GINTMSK_WUIM);
1446:Drivers/STM32F4xx_HAL_Driver/Src/stm32f4xx_ll_usb.c **** 
1447:Drivers/STM32F4xx_HAL_Driver/Src/stm32f4xx_ll_usb.c ****   return HAL_OK;
 5020              		.loc 1 1447 10
 5021 0152 0023     		movs	r3, #0
1448:Drivers/STM32F4xx_HAL_Driver/Src/stm32f4xx_ll_usb.c **** }
 5022              		.loc 1 1448 1
 5023 0154 1846     		mov	r0, r3
 5024 0156 1037     		adds	r7, r7, #16
 5025              	.LCFI209:
 5026              		.cfi_def_cfa_offset 24
 5027 0158 BD46     		mov	sp, r7
 5028              	.LCFI210:
 5029              		.cfi_def_cfa_register 13
 5030              		@ sp needed
 5031 015a BDE88040 		pop	{r7, lr}
 5032              	.LCFI211:
 5033              		.cfi_restore 14
 5034              		.cfi_restore 7
 5035              		.cfi_def_cfa_offset 16
 5036 015e 04B0     		add	sp, sp, #16
 5037              	.LCFI212:
ARM GAS  /var/folders/vq/qt4vp3kd5rxf7v2b6_fdtdt80000gn/T//ccOb9Y7L.s 			page 114


 5038              		.cfi_def_cfa_offset 0
 5039 0160 7047     		bx	lr
 5040              	.L210:
 5041 0162 00BF     		.align	2
 5042              	.L209:
 5043 0164 00020001 		.word	16777728
 5044 0168 0003E000 		.word	14680832
 5045 016c 80006000 		.word	6291584
 5046 0170 E0004000 		.word	4194528
 5047 0174 080020A3 		.word	-1558183928
 5048              		.cfi_endproc
 5049              	.LFE164:
 5051              		.section	.text.USB_InitFSLSPClkSel,"ax",%progbits
 5052              		.align	1
 5053              		.global	USB_InitFSLSPClkSel
 5054              		.syntax unified
 5055              		.thumb
 5056              		.thumb_func
 5057              		.fpu fpv4-sp-d16
 5059              	USB_InitFSLSPClkSel:
 5060              	.LFB165:
1449:Drivers/STM32F4xx_HAL_Driver/Src/stm32f4xx_ll_usb.c **** 
1450:Drivers/STM32F4xx_HAL_Driver/Src/stm32f4xx_ll_usb.c **** /**
1451:Drivers/STM32F4xx_HAL_Driver/Src/stm32f4xx_ll_usb.c ****   * @brief  USB_InitFSLSPClkSel : Initializes the FSLSPClkSel field of the
1452:Drivers/STM32F4xx_HAL_Driver/Src/stm32f4xx_ll_usb.c ****   *         HCFG register on the PHY type and set the right frame interval
1453:Drivers/STM32F4xx_HAL_Driver/Src/stm32f4xx_ll_usb.c ****   * @param  USBx  Selected device
1454:Drivers/STM32F4xx_HAL_Driver/Src/stm32f4xx_ll_usb.c ****   * @param  freq  clock frequency
1455:Drivers/STM32F4xx_HAL_Driver/Src/stm32f4xx_ll_usb.c ****   *          This parameter can be one of these values:
1456:Drivers/STM32F4xx_HAL_Driver/Src/stm32f4xx_ll_usb.c ****   *           HCFG_48_MHZ : Full Speed 48 MHz Clock
1457:Drivers/STM32F4xx_HAL_Driver/Src/stm32f4xx_ll_usb.c ****   *           HCFG_6_MHZ : Low Speed 6 MHz Clock
1458:Drivers/STM32F4xx_HAL_Driver/Src/stm32f4xx_ll_usb.c ****   * @retval HAL status
1459:Drivers/STM32F4xx_HAL_Driver/Src/stm32f4xx_ll_usb.c ****   */
1460:Drivers/STM32F4xx_HAL_Driver/Src/stm32f4xx_ll_usb.c **** HAL_StatusTypeDef USB_InitFSLSPClkSel(USB_OTG_GlobalTypeDef *USBx, uint8_t freq)
1461:Drivers/STM32F4xx_HAL_Driver/Src/stm32f4xx_ll_usb.c **** {
 5061              		.loc 1 1461 1
 5062              		.cfi_startproc
 5063              		@ args = 0, pretend = 0, frame = 16
 5064              		@ frame_needed = 1, uses_anonymous_args = 0
 5065              		@ link register save eliminated.
 5066 0000 80B4     		push	{r7}
 5067              	.LCFI213:
 5068              		.cfi_def_cfa_offset 4
 5069              		.cfi_offset 7, -4
 5070 0002 85B0     		sub	sp, sp, #20
 5071              	.LCFI214:
 5072              		.cfi_def_cfa_offset 24
 5073 0004 00AF     		add	r7, sp, #0
 5074              	.LCFI215:
 5075              		.cfi_def_cfa_register 7
 5076 0006 7860     		str	r0, [r7, #4]
 5077 0008 0B46     		mov	r3, r1
 5078 000a FB70     		strb	r3, [r7, #3]
1462:Drivers/STM32F4xx_HAL_Driver/Src/stm32f4xx_ll_usb.c ****   uint32_t USBx_BASE = (uint32_t)USBx;
 5079              		.loc 1 1462 12
 5080 000c 7B68     		ldr	r3, [r7, #4]
 5081 000e FB60     		str	r3, [r7, #12]
1463:Drivers/STM32F4xx_HAL_Driver/Src/stm32f4xx_ll_usb.c **** 
ARM GAS  /var/folders/vq/qt4vp3kd5rxf7v2b6_fdtdt80000gn/T//ccOb9Y7L.s 			page 115


1464:Drivers/STM32F4xx_HAL_Driver/Src/stm32f4xx_ll_usb.c ****   USBx_HOST->HCFG &= ~(USB_OTG_HCFG_FSLSPCS);
 5082              		.loc 1 1464 19
 5083 0010 FB68     		ldr	r3, [r7, #12]
 5084 0012 03F58063 		add	r3, r3, #1024
 5085 0016 1B68     		ldr	r3, [r3]
 5086 0018 FA68     		ldr	r2, [r7, #12]
 5087 001a 02F58062 		add	r2, r2, #1024
 5088 001e 23F00303 		bic	r3, r3, #3
 5089 0022 1360     		str	r3, [r2]
1465:Drivers/STM32F4xx_HAL_Driver/Src/stm32f4xx_ll_usb.c ****   USBx_HOST->HCFG |= (uint32_t)freq & USB_OTG_HCFG_FSLSPCS;
 5090              		.loc 1 1465 19
 5091 0024 FB68     		ldr	r3, [r7, #12]
 5092 0026 03F58063 		add	r3, r3, #1024
 5093 002a 1A68     		ldr	r2, [r3]
 5094              		.loc 1 1465 37
 5095 002c FB78     		ldrb	r3, [r7, #3]	@ zero_extendqisi2
 5096 002e 03F00303 		and	r3, r3, #3
 5097              		.loc 1 1465 19
 5098 0032 F968     		ldr	r1, [r7, #12]
 5099 0034 01F58061 		add	r1, r1, #1024
 5100 0038 1343     		orrs	r3, r3, r2
 5101 003a 0B60     		str	r3, [r1]
1466:Drivers/STM32F4xx_HAL_Driver/Src/stm32f4xx_ll_usb.c **** 
1467:Drivers/STM32F4xx_HAL_Driver/Src/stm32f4xx_ll_usb.c ****   if (freq == HCFG_48_MHZ)
 5102              		.loc 1 1467 6
 5103 003c FB78     		ldrb	r3, [r7, #3]	@ zero_extendqisi2
 5104 003e 012B     		cmp	r3, #1
 5105 0040 07D1     		bne	.L212
1468:Drivers/STM32F4xx_HAL_Driver/Src/stm32f4xx_ll_usb.c ****   {
1469:Drivers/STM32F4xx_HAL_Driver/Src/stm32f4xx_ll_usb.c ****     USBx_HOST->HFIR = 48000U;
 5106              		.loc 1 1469 5
 5107 0042 FB68     		ldr	r3, [r7, #12]
 5108 0044 03F58063 		add	r3, r3, #1024
 5109 0048 1A46     		mov	r2, r3
 5110              		.loc 1 1469 21
 5111 004a 4BF68033 		movw	r3, #48000
 5112 004e 5360     		str	r3, [r2, #4]
 5113 0050 09E0     		b	.L213
 5114              	.L212:
1470:Drivers/STM32F4xx_HAL_Driver/Src/stm32f4xx_ll_usb.c ****   }
1471:Drivers/STM32F4xx_HAL_Driver/Src/stm32f4xx_ll_usb.c ****   else if (freq == HCFG_6_MHZ)
 5115              		.loc 1 1471 11
 5116 0052 FB78     		ldrb	r3, [r7, #3]	@ zero_extendqisi2
 5117 0054 022B     		cmp	r3, #2
 5118 0056 06D1     		bne	.L213
1472:Drivers/STM32F4xx_HAL_Driver/Src/stm32f4xx_ll_usb.c ****   {
1473:Drivers/STM32F4xx_HAL_Driver/Src/stm32f4xx_ll_usb.c ****     USBx_HOST->HFIR = 6000U;
 5119              		.loc 1 1473 5
 5120 0058 FB68     		ldr	r3, [r7, #12]
 5121 005a 03F58063 		add	r3, r3, #1024
 5122 005e 1A46     		mov	r2, r3
 5123              		.loc 1 1473 21
 5124 0060 41F27073 		movw	r3, #6000
 5125 0064 5360     		str	r3, [r2, #4]
 5126              	.L213:
1474:Drivers/STM32F4xx_HAL_Driver/Src/stm32f4xx_ll_usb.c ****   }
1475:Drivers/STM32F4xx_HAL_Driver/Src/stm32f4xx_ll_usb.c ****   else
ARM GAS  /var/folders/vq/qt4vp3kd5rxf7v2b6_fdtdt80000gn/T//ccOb9Y7L.s 			page 116


1476:Drivers/STM32F4xx_HAL_Driver/Src/stm32f4xx_ll_usb.c ****   {
1477:Drivers/STM32F4xx_HAL_Driver/Src/stm32f4xx_ll_usb.c ****     /* ... */
1478:Drivers/STM32F4xx_HAL_Driver/Src/stm32f4xx_ll_usb.c ****   }
1479:Drivers/STM32F4xx_HAL_Driver/Src/stm32f4xx_ll_usb.c **** 
1480:Drivers/STM32F4xx_HAL_Driver/Src/stm32f4xx_ll_usb.c ****   return HAL_OK;
 5127              		.loc 1 1480 10
 5128 0066 0023     		movs	r3, #0
1481:Drivers/STM32F4xx_HAL_Driver/Src/stm32f4xx_ll_usb.c **** }
 5129              		.loc 1 1481 1
 5130 0068 1846     		mov	r0, r3
 5131 006a 1437     		adds	r7, r7, #20
 5132              	.LCFI216:
 5133              		.cfi_def_cfa_offset 4
 5134 006c BD46     		mov	sp, r7
 5135              	.LCFI217:
 5136              		.cfi_def_cfa_register 13
 5137              		@ sp needed
 5138 006e 5DF8047B 		ldr	r7, [sp], #4
 5139              	.LCFI218:
 5140              		.cfi_restore 7
 5141              		.cfi_def_cfa_offset 0
 5142 0072 7047     		bx	lr
 5143              		.cfi_endproc
 5144              	.LFE165:
 5146              		.section	.text.USB_ResetPort,"ax",%progbits
 5147              		.align	1
 5148              		.global	USB_ResetPort
 5149              		.syntax unified
 5150              		.thumb
 5151              		.thumb_func
 5152              		.fpu fpv4-sp-d16
 5154              	USB_ResetPort:
 5155              	.LFB166:
1482:Drivers/STM32F4xx_HAL_Driver/Src/stm32f4xx_ll_usb.c **** 
1483:Drivers/STM32F4xx_HAL_Driver/Src/stm32f4xx_ll_usb.c **** /**
1484:Drivers/STM32F4xx_HAL_Driver/Src/stm32f4xx_ll_usb.c ****   * @brief  USB_OTG_ResetPort : Reset Host Port
1485:Drivers/STM32F4xx_HAL_Driver/Src/stm32f4xx_ll_usb.c ****   * @param  USBx  Selected device
1486:Drivers/STM32F4xx_HAL_Driver/Src/stm32f4xx_ll_usb.c ****   * @retval HAL status
1487:Drivers/STM32F4xx_HAL_Driver/Src/stm32f4xx_ll_usb.c ****   * @note (1)The application must wait at least 10 ms
1488:Drivers/STM32F4xx_HAL_Driver/Src/stm32f4xx_ll_usb.c ****   *   before clearing the reset bit.
1489:Drivers/STM32F4xx_HAL_Driver/Src/stm32f4xx_ll_usb.c ****   */
1490:Drivers/STM32F4xx_HAL_Driver/Src/stm32f4xx_ll_usb.c **** HAL_StatusTypeDef USB_ResetPort(USB_OTG_GlobalTypeDef *USBx)
1491:Drivers/STM32F4xx_HAL_Driver/Src/stm32f4xx_ll_usb.c **** {
 5156              		.loc 1 1491 1
 5157              		.cfi_startproc
 5158              		@ args = 0, pretend = 0, frame = 16
 5159              		@ frame_needed = 1, uses_anonymous_args = 0
 5160 0000 80B5     		push	{r7, lr}
 5161              	.LCFI219:
 5162              		.cfi_def_cfa_offset 8
 5163              		.cfi_offset 7, -8
 5164              		.cfi_offset 14, -4
 5165 0002 84B0     		sub	sp, sp, #16
 5166              	.LCFI220:
 5167              		.cfi_def_cfa_offset 24
 5168 0004 00AF     		add	r7, sp, #0
 5169              	.LCFI221:
ARM GAS  /var/folders/vq/qt4vp3kd5rxf7v2b6_fdtdt80000gn/T//ccOb9Y7L.s 			page 117


 5170              		.cfi_def_cfa_register 7
 5171 0006 7860     		str	r0, [r7, #4]
1492:Drivers/STM32F4xx_HAL_Driver/Src/stm32f4xx_ll_usb.c ****   uint32_t USBx_BASE = (uint32_t)USBx;
 5172              		.loc 1 1492 12
 5173 0008 7B68     		ldr	r3, [r7, #4]
 5174 000a FB60     		str	r3, [r7, #12]
1493:Drivers/STM32F4xx_HAL_Driver/Src/stm32f4xx_ll_usb.c **** 
1494:Drivers/STM32F4xx_HAL_Driver/Src/stm32f4xx_ll_usb.c ****   __IO uint32_t hprt0 = 0U;
 5175              		.loc 1 1494 17
 5176 000c 0023     		movs	r3, #0
 5177 000e BB60     		str	r3, [r7, #8]
1495:Drivers/STM32F4xx_HAL_Driver/Src/stm32f4xx_ll_usb.c **** 
1496:Drivers/STM32F4xx_HAL_Driver/Src/stm32f4xx_ll_usb.c ****   hprt0 = USBx_HPRT0;
 5178              		.loc 1 1496 11
 5179 0010 FB68     		ldr	r3, [r7, #12]
 5180 0012 03F58863 		add	r3, r3, #1088
 5181 0016 1B68     		ldr	r3, [r3]
 5182              		.loc 1 1496 9
 5183 0018 BB60     		str	r3, [r7, #8]
1497:Drivers/STM32F4xx_HAL_Driver/Src/stm32f4xx_ll_usb.c **** 
1498:Drivers/STM32F4xx_HAL_Driver/Src/stm32f4xx_ll_usb.c ****   hprt0 &= ~(USB_OTG_HPRT_PENA | USB_OTG_HPRT_PCDET |
 5184              		.loc 1 1498 9
 5185 001a BB68     		ldr	r3, [r7, #8]
 5186 001c 23F02E03 		bic	r3, r3, #46
 5187 0020 BB60     		str	r3, [r7, #8]
1499:Drivers/STM32F4xx_HAL_Driver/Src/stm32f4xx_ll_usb.c ****              USB_OTG_HPRT_PENCHNG | USB_OTG_HPRT_POCCHNG);
1500:Drivers/STM32F4xx_HAL_Driver/Src/stm32f4xx_ll_usb.c **** 
1501:Drivers/STM32F4xx_HAL_Driver/Src/stm32f4xx_ll_usb.c ****   USBx_HPRT0 = (USB_OTG_HPRT_PRST | hprt0);
 5188              		.loc 1 1501 35
 5189 0022 BB68     		ldr	r3, [r7, #8]
 5190              		.loc 1 1501 3
 5191 0024 FA68     		ldr	r2, [r7, #12]
 5192 0026 02F58862 		add	r2, r2, #1088
 5193              		.loc 1 1501 35
 5194 002a 43F48073 		orr	r3, r3, #256
 5195              		.loc 1 1501 14
 5196 002e 1360     		str	r3, [r2]
1502:Drivers/STM32F4xx_HAL_Driver/Src/stm32f4xx_ll_usb.c ****   HAL_Delay(100U);                                 /* See Note #1 */
 5197              		.loc 1 1502 3
 5198 0030 6420     		movs	r0, #100
 5199 0032 FFF7FEFF 		bl	HAL_Delay
1503:Drivers/STM32F4xx_HAL_Driver/Src/stm32f4xx_ll_usb.c ****   USBx_HPRT0 = ((~USB_OTG_HPRT_PRST) & hprt0);
 5200              		.loc 1 1503 38
 5201 0036 BB68     		ldr	r3, [r7, #8]
 5202              		.loc 1 1503 3
 5203 0038 FA68     		ldr	r2, [r7, #12]
 5204 003a 02F58862 		add	r2, r2, #1088
 5205              		.loc 1 1503 38
 5206 003e 23F48073 		bic	r3, r3, #256
 5207              		.loc 1 1503 14
 5208 0042 1360     		str	r3, [r2]
1504:Drivers/STM32F4xx_HAL_Driver/Src/stm32f4xx_ll_usb.c ****   HAL_Delay(10U);
 5209              		.loc 1 1504 3
 5210 0044 0A20     		movs	r0, #10
 5211 0046 FFF7FEFF 		bl	HAL_Delay
1505:Drivers/STM32F4xx_HAL_Driver/Src/stm32f4xx_ll_usb.c **** 
1506:Drivers/STM32F4xx_HAL_Driver/Src/stm32f4xx_ll_usb.c ****   return HAL_OK;
ARM GAS  /var/folders/vq/qt4vp3kd5rxf7v2b6_fdtdt80000gn/T//ccOb9Y7L.s 			page 118


 5212              		.loc 1 1506 10
 5213 004a 0023     		movs	r3, #0
1507:Drivers/STM32F4xx_HAL_Driver/Src/stm32f4xx_ll_usb.c **** }
 5214              		.loc 1 1507 1
 5215 004c 1846     		mov	r0, r3
 5216 004e 1037     		adds	r7, r7, #16
 5217              	.LCFI222:
 5218              		.cfi_def_cfa_offset 8
 5219 0050 BD46     		mov	sp, r7
 5220              	.LCFI223:
 5221              		.cfi_def_cfa_register 13
 5222              		@ sp needed
 5223 0052 80BD     		pop	{r7, pc}
 5224              		.cfi_endproc
 5225              	.LFE166:
 5227              		.section	.text.USB_DriveVbus,"ax",%progbits
 5228              		.align	1
 5229              		.global	USB_DriveVbus
 5230              		.syntax unified
 5231              		.thumb
 5232              		.thumb_func
 5233              		.fpu fpv4-sp-d16
 5235              	USB_DriveVbus:
 5236              	.LFB167:
1508:Drivers/STM32F4xx_HAL_Driver/Src/stm32f4xx_ll_usb.c **** 
1509:Drivers/STM32F4xx_HAL_Driver/Src/stm32f4xx_ll_usb.c **** /**
1510:Drivers/STM32F4xx_HAL_Driver/Src/stm32f4xx_ll_usb.c ****   * @brief  USB_DriveVbus : activate or de-activate vbus
1511:Drivers/STM32F4xx_HAL_Driver/Src/stm32f4xx_ll_usb.c ****   * @param  state  VBUS state
1512:Drivers/STM32F4xx_HAL_Driver/Src/stm32f4xx_ll_usb.c ****   *          This parameter can be one of these values:
1513:Drivers/STM32F4xx_HAL_Driver/Src/stm32f4xx_ll_usb.c ****   *           0 : Deactivate VBUS
1514:Drivers/STM32F4xx_HAL_Driver/Src/stm32f4xx_ll_usb.c ****   *           1 : Activate VBUS
1515:Drivers/STM32F4xx_HAL_Driver/Src/stm32f4xx_ll_usb.c ****   * @retval HAL status
1516:Drivers/STM32F4xx_HAL_Driver/Src/stm32f4xx_ll_usb.c ****   */
1517:Drivers/STM32F4xx_HAL_Driver/Src/stm32f4xx_ll_usb.c **** HAL_StatusTypeDef USB_DriveVbus(USB_OTG_GlobalTypeDef *USBx, uint8_t state)
1518:Drivers/STM32F4xx_HAL_Driver/Src/stm32f4xx_ll_usb.c **** {
 5237              		.loc 1 1518 1
 5238              		.cfi_startproc
 5239              		@ args = 0, pretend = 0, frame = 16
 5240              		@ frame_needed = 1, uses_anonymous_args = 0
 5241              		@ link register save eliminated.
 5242 0000 80B4     		push	{r7}
 5243              	.LCFI224:
 5244              		.cfi_def_cfa_offset 4
 5245              		.cfi_offset 7, -4
 5246 0002 85B0     		sub	sp, sp, #20
 5247              	.LCFI225:
 5248              		.cfi_def_cfa_offset 24
 5249 0004 00AF     		add	r7, sp, #0
 5250              	.LCFI226:
 5251              		.cfi_def_cfa_register 7
 5252 0006 7860     		str	r0, [r7, #4]
 5253 0008 0B46     		mov	r3, r1
 5254 000a FB70     		strb	r3, [r7, #3]
1519:Drivers/STM32F4xx_HAL_Driver/Src/stm32f4xx_ll_usb.c ****   uint32_t USBx_BASE = (uint32_t)USBx;
 5255              		.loc 1 1519 12
 5256 000c 7B68     		ldr	r3, [r7, #4]
 5257 000e FB60     		str	r3, [r7, #12]
ARM GAS  /var/folders/vq/qt4vp3kd5rxf7v2b6_fdtdt80000gn/T//ccOb9Y7L.s 			page 119


1520:Drivers/STM32F4xx_HAL_Driver/Src/stm32f4xx_ll_usb.c ****   __IO uint32_t hprt0 = 0U;
 5258              		.loc 1 1520 17
 5259 0010 0023     		movs	r3, #0
 5260 0012 BB60     		str	r3, [r7, #8]
1521:Drivers/STM32F4xx_HAL_Driver/Src/stm32f4xx_ll_usb.c **** 
1522:Drivers/STM32F4xx_HAL_Driver/Src/stm32f4xx_ll_usb.c ****   hprt0 = USBx_HPRT0;
 5261              		.loc 1 1522 11
 5262 0014 FB68     		ldr	r3, [r7, #12]
 5263 0016 03F58863 		add	r3, r3, #1088
 5264 001a 1B68     		ldr	r3, [r3]
 5265              		.loc 1 1522 9
 5266 001c BB60     		str	r3, [r7, #8]
1523:Drivers/STM32F4xx_HAL_Driver/Src/stm32f4xx_ll_usb.c **** 
1524:Drivers/STM32F4xx_HAL_Driver/Src/stm32f4xx_ll_usb.c ****   hprt0 &= ~(USB_OTG_HPRT_PENA | USB_OTG_HPRT_PCDET |
 5267              		.loc 1 1524 9
 5268 001e BB68     		ldr	r3, [r7, #8]
 5269 0020 23F02E03 		bic	r3, r3, #46
 5270 0024 BB60     		str	r3, [r7, #8]
1525:Drivers/STM32F4xx_HAL_Driver/Src/stm32f4xx_ll_usb.c ****              USB_OTG_HPRT_PENCHNG | USB_OTG_HPRT_POCCHNG);
1526:Drivers/STM32F4xx_HAL_Driver/Src/stm32f4xx_ll_usb.c **** 
1527:Drivers/STM32F4xx_HAL_Driver/Src/stm32f4xx_ll_usb.c ****   if (((hprt0 & USB_OTG_HPRT_PPWR) == 0U) && (state == 1U))
 5271              		.loc 1 1527 15
 5272 0026 BB68     		ldr	r3, [r7, #8]
 5273 0028 03F48053 		and	r3, r3, #4096
 5274              		.loc 1 1527 6
 5275 002c 002B     		cmp	r3, #0
 5276 002e 09D1     		bne	.L218
 5277              		.loc 1 1527 43 discriminator 1
 5278 0030 FB78     		ldrb	r3, [r7, #3]	@ zero_extendqisi2
 5279 0032 012B     		cmp	r3, #1
 5280 0034 06D1     		bne	.L218
1528:Drivers/STM32F4xx_HAL_Driver/Src/stm32f4xx_ll_usb.c ****   {
1529:Drivers/STM32F4xx_HAL_Driver/Src/stm32f4xx_ll_usb.c ****     USBx_HPRT0 = (USB_OTG_HPRT_PPWR | hprt0);
 5281              		.loc 1 1529 37
 5282 0036 BB68     		ldr	r3, [r7, #8]
 5283              		.loc 1 1529 5
 5284 0038 FA68     		ldr	r2, [r7, #12]
 5285 003a 02F58862 		add	r2, r2, #1088
 5286              		.loc 1 1529 37
 5287 003e 43F48053 		orr	r3, r3, #4096
 5288              		.loc 1 1529 16
 5289 0042 1360     		str	r3, [r2]
 5290              	.L218:
1530:Drivers/STM32F4xx_HAL_Driver/Src/stm32f4xx_ll_usb.c ****   }
1531:Drivers/STM32F4xx_HAL_Driver/Src/stm32f4xx_ll_usb.c ****   if (((hprt0 & USB_OTG_HPRT_PPWR) == USB_OTG_HPRT_PPWR) && (state == 0U))
 5291              		.loc 1 1531 15
 5292 0044 BB68     		ldr	r3, [r7, #8]
 5293 0046 03F48053 		and	r3, r3, #4096
 5294              		.loc 1 1531 6
 5295 004a B3F5805F 		cmp	r3, #4096
 5296 004e 09D1     		bne	.L219
 5297              		.loc 1 1531 58 discriminator 1
 5298 0050 FB78     		ldrb	r3, [r7, #3]	@ zero_extendqisi2
 5299 0052 002B     		cmp	r3, #0
 5300 0054 06D1     		bne	.L219
1532:Drivers/STM32F4xx_HAL_Driver/Src/stm32f4xx_ll_usb.c ****   {
1533:Drivers/STM32F4xx_HAL_Driver/Src/stm32f4xx_ll_usb.c ****     USBx_HPRT0 = ((~USB_OTG_HPRT_PPWR) & hprt0);
ARM GAS  /var/folders/vq/qt4vp3kd5rxf7v2b6_fdtdt80000gn/T//ccOb9Y7L.s 			page 120


 5301              		.loc 1 1533 40
 5302 0056 BB68     		ldr	r3, [r7, #8]
 5303              		.loc 1 1533 5
 5304 0058 FA68     		ldr	r2, [r7, #12]
 5305 005a 02F58862 		add	r2, r2, #1088
 5306              		.loc 1 1533 40
 5307 005e 23F48053 		bic	r3, r3, #4096
 5308              		.loc 1 1533 16
 5309 0062 1360     		str	r3, [r2]
 5310              	.L219:
1534:Drivers/STM32F4xx_HAL_Driver/Src/stm32f4xx_ll_usb.c ****   }
1535:Drivers/STM32F4xx_HAL_Driver/Src/stm32f4xx_ll_usb.c ****   return HAL_OK;
 5311              		.loc 1 1535 10
 5312 0064 0023     		movs	r3, #0
1536:Drivers/STM32F4xx_HAL_Driver/Src/stm32f4xx_ll_usb.c **** }
 5313              		.loc 1 1536 1
 5314 0066 1846     		mov	r0, r3
 5315 0068 1437     		adds	r7, r7, #20
 5316              	.LCFI227:
 5317              		.cfi_def_cfa_offset 4
 5318 006a BD46     		mov	sp, r7
 5319              	.LCFI228:
 5320              		.cfi_def_cfa_register 13
 5321              		@ sp needed
 5322 006c 5DF8047B 		ldr	r7, [sp], #4
 5323              	.LCFI229:
 5324              		.cfi_restore 7
 5325              		.cfi_def_cfa_offset 0
 5326 0070 7047     		bx	lr
 5327              		.cfi_endproc
 5328              	.LFE167:
 5330              		.section	.text.USB_GetHostSpeed,"ax",%progbits
 5331              		.align	1
 5332              		.global	USB_GetHostSpeed
 5333              		.syntax unified
 5334              		.thumb
 5335              		.thumb_func
 5336              		.fpu fpv4-sp-d16
 5338              	USB_GetHostSpeed:
 5339              	.LFB168:
1537:Drivers/STM32F4xx_HAL_Driver/Src/stm32f4xx_ll_usb.c **** 
1538:Drivers/STM32F4xx_HAL_Driver/Src/stm32f4xx_ll_usb.c **** /**
1539:Drivers/STM32F4xx_HAL_Driver/Src/stm32f4xx_ll_usb.c ****   * @brief  Return Host Core speed
1540:Drivers/STM32F4xx_HAL_Driver/Src/stm32f4xx_ll_usb.c ****   * @param  USBx  Selected device
1541:Drivers/STM32F4xx_HAL_Driver/Src/stm32f4xx_ll_usb.c ****   * @retval speed : Host speed
1542:Drivers/STM32F4xx_HAL_Driver/Src/stm32f4xx_ll_usb.c ****   *          This parameter can be one of these values:
1543:Drivers/STM32F4xx_HAL_Driver/Src/stm32f4xx_ll_usb.c ****   *            @arg HCD_SPEED_HIGH: High speed mode
1544:Drivers/STM32F4xx_HAL_Driver/Src/stm32f4xx_ll_usb.c ****   *            @arg HCD_SPEED_FULL: Full speed mode
1545:Drivers/STM32F4xx_HAL_Driver/Src/stm32f4xx_ll_usb.c ****   *            @arg HCD_SPEED_LOW: Low speed mode
1546:Drivers/STM32F4xx_HAL_Driver/Src/stm32f4xx_ll_usb.c ****   */
1547:Drivers/STM32F4xx_HAL_Driver/Src/stm32f4xx_ll_usb.c **** uint32_t USB_GetHostSpeed(USB_OTG_GlobalTypeDef *USBx)
1548:Drivers/STM32F4xx_HAL_Driver/Src/stm32f4xx_ll_usb.c **** {
 5340              		.loc 1 1548 1
 5341              		.cfi_startproc
 5342              		@ args = 0, pretend = 0, frame = 16
 5343              		@ frame_needed = 1, uses_anonymous_args = 0
 5344              		@ link register save eliminated.
ARM GAS  /var/folders/vq/qt4vp3kd5rxf7v2b6_fdtdt80000gn/T//ccOb9Y7L.s 			page 121


 5345 0000 80B4     		push	{r7}
 5346              	.LCFI230:
 5347              		.cfi_def_cfa_offset 4
 5348              		.cfi_offset 7, -4
 5349 0002 85B0     		sub	sp, sp, #20
 5350              	.LCFI231:
 5351              		.cfi_def_cfa_offset 24
 5352 0004 00AF     		add	r7, sp, #0
 5353              	.LCFI232:
 5354              		.cfi_def_cfa_register 7
 5355 0006 7860     		str	r0, [r7, #4]
1549:Drivers/STM32F4xx_HAL_Driver/Src/stm32f4xx_ll_usb.c ****   uint32_t USBx_BASE = (uint32_t)USBx;
 5356              		.loc 1 1549 12
 5357 0008 7B68     		ldr	r3, [r7, #4]
 5358 000a FB60     		str	r3, [r7, #12]
1550:Drivers/STM32F4xx_HAL_Driver/Src/stm32f4xx_ll_usb.c ****   __IO uint32_t hprt0 = 0U;
 5359              		.loc 1 1550 17
 5360 000c 0023     		movs	r3, #0
 5361 000e BB60     		str	r3, [r7, #8]
1551:Drivers/STM32F4xx_HAL_Driver/Src/stm32f4xx_ll_usb.c **** 
1552:Drivers/STM32F4xx_HAL_Driver/Src/stm32f4xx_ll_usb.c ****   hprt0 = USBx_HPRT0;
 5362              		.loc 1 1552 11
 5363 0010 FB68     		ldr	r3, [r7, #12]
 5364 0012 03F58863 		add	r3, r3, #1088
 5365 0016 1B68     		ldr	r3, [r3]
 5366              		.loc 1 1552 9
 5367 0018 BB60     		str	r3, [r7, #8]
1553:Drivers/STM32F4xx_HAL_Driver/Src/stm32f4xx_ll_usb.c ****   return ((hprt0 & USB_OTG_HPRT_PSPD) >> 17);
 5368              		.loc 1 1553 39
 5369 001a BB68     		ldr	r3, [r7, #8]
 5370 001c 5B0C     		lsrs	r3, r3, #17
 5371 001e 03F00303 		and	r3, r3, #3
1554:Drivers/STM32F4xx_HAL_Driver/Src/stm32f4xx_ll_usb.c **** }
 5372              		.loc 1 1554 1
 5373 0022 1846     		mov	r0, r3
 5374 0024 1437     		adds	r7, r7, #20
 5375              	.LCFI233:
 5376              		.cfi_def_cfa_offset 4
 5377 0026 BD46     		mov	sp, r7
 5378              	.LCFI234:
 5379              		.cfi_def_cfa_register 13
 5380              		@ sp needed
 5381 0028 5DF8047B 		ldr	r7, [sp], #4
 5382              	.LCFI235:
 5383              		.cfi_restore 7
 5384              		.cfi_def_cfa_offset 0
 5385 002c 7047     		bx	lr
 5386              		.cfi_endproc
 5387              	.LFE168:
 5389              		.section	.text.USB_GetCurrentFrame,"ax",%progbits
 5390              		.align	1
 5391              		.global	USB_GetCurrentFrame
 5392              		.syntax unified
 5393              		.thumb
 5394              		.thumb_func
 5395              		.fpu fpv4-sp-d16
 5397              	USB_GetCurrentFrame:
ARM GAS  /var/folders/vq/qt4vp3kd5rxf7v2b6_fdtdt80000gn/T//ccOb9Y7L.s 			page 122


 5398              	.LFB169:
1555:Drivers/STM32F4xx_HAL_Driver/Src/stm32f4xx_ll_usb.c **** 
1556:Drivers/STM32F4xx_HAL_Driver/Src/stm32f4xx_ll_usb.c **** /**
1557:Drivers/STM32F4xx_HAL_Driver/Src/stm32f4xx_ll_usb.c ****   * @brief  Return Host Current Frame number
1558:Drivers/STM32F4xx_HAL_Driver/Src/stm32f4xx_ll_usb.c ****   * @param  USBx  Selected device
1559:Drivers/STM32F4xx_HAL_Driver/Src/stm32f4xx_ll_usb.c ****   * @retval current frame number
1560:Drivers/STM32F4xx_HAL_Driver/Src/stm32f4xx_ll_usb.c ****   */
1561:Drivers/STM32F4xx_HAL_Driver/Src/stm32f4xx_ll_usb.c **** uint32_t USB_GetCurrentFrame(USB_OTG_GlobalTypeDef *USBx)
1562:Drivers/STM32F4xx_HAL_Driver/Src/stm32f4xx_ll_usb.c **** {
 5399              		.loc 1 1562 1
 5400              		.cfi_startproc
 5401              		@ args = 0, pretend = 0, frame = 16
 5402              		@ frame_needed = 1, uses_anonymous_args = 0
 5403              		@ link register save eliminated.
 5404 0000 80B4     		push	{r7}
 5405              	.LCFI236:
 5406              		.cfi_def_cfa_offset 4
 5407              		.cfi_offset 7, -4
 5408 0002 85B0     		sub	sp, sp, #20
 5409              	.LCFI237:
 5410              		.cfi_def_cfa_offset 24
 5411 0004 00AF     		add	r7, sp, #0
 5412              	.LCFI238:
 5413              		.cfi_def_cfa_register 7
 5414 0006 7860     		str	r0, [r7, #4]
1563:Drivers/STM32F4xx_HAL_Driver/Src/stm32f4xx_ll_usb.c ****   uint32_t USBx_BASE = (uint32_t)USBx;
 5415              		.loc 1 1563 12
 5416 0008 7B68     		ldr	r3, [r7, #4]
 5417 000a FB60     		str	r3, [r7, #12]
1564:Drivers/STM32F4xx_HAL_Driver/Src/stm32f4xx_ll_usb.c **** 
1565:Drivers/STM32F4xx_HAL_Driver/Src/stm32f4xx_ll_usb.c ****   return (USBx_HOST->HFNUM & USB_OTG_HFNUM_FRNUM);
 5418              		.loc 1 1565 11
 5419 000c FB68     		ldr	r3, [r7, #12]
 5420 000e 03F58063 		add	r3, r3, #1024
 5421              		.loc 1 1565 20
 5422 0012 9B68     		ldr	r3, [r3, #8]
 5423              		.loc 1 1565 28
 5424 0014 9BB2     		uxth	r3, r3
1566:Drivers/STM32F4xx_HAL_Driver/Src/stm32f4xx_ll_usb.c **** }
 5425              		.loc 1 1566 1
 5426 0016 1846     		mov	r0, r3
 5427 0018 1437     		adds	r7, r7, #20
 5428              	.LCFI239:
 5429              		.cfi_def_cfa_offset 4
 5430 001a BD46     		mov	sp, r7
 5431              	.LCFI240:
 5432              		.cfi_def_cfa_register 13
 5433              		@ sp needed
 5434 001c 5DF8047B 		ldr	r7, [sp], #4
 5435              	.LCFI241:
 5436              		.cfi_restore 7
 5437              		.cfi_def_cfa_offset 0
 5438 0020 7047     		bx	lr
 5439              		.cfi_endproc
 5440              	.LFE169:
 5442              		.section	.text.USB_HC_Init,"ax",%progbits
 5443              		.align	1
ARM GAS  /var/folders/vq/qt4vp3kd5rxf7v2b6_fdtdt80000gn/T//ccOb9Y7L.s 			page 123


 5444              		.global	USB_HC_Init
 5445              		.syntax unified
 5446              		.thumb
 5447              		.thumb_func
 5448              		.fpu fpv4-sp-d16
 5450              	USB_HC_Init:
 5451              	.LFB170:
1567:Drivers/STM32F4xx_HAL_Driver/Src/stm32f4xx_ll_usb.c **** 
1568:Drivers/STM32F4xx_HAL_Driver/Src/stm32f4xx_ll_usb.c **** /**
1569:Drivers/STM32F4xx_HAL_Driver/Src/stm32f4xx_ll_usb.c ****   * @brief  Initialize a host channel
1570:Drivers/STM32F4xx_HAL_Driver/Src/stm32f4xx_ll_usb.c ****   * @param  USBx  Selected device
1571:Drivers/STM32F4xx_HAL_Driver/Src/stm32f4xx_ll_usb.c ****   * @param  ch_num  Channel number
1572:Drivers/STM32F4xx_HAL_Driver/Src/stm32f4xx_ll_usb.c ****   *         This parameter can be a value from 1 to 15
1573:Drivers/STM32F4xx_HAL_Driver/Src/stm32f4xx_ll_usb.c ****   * @param  epnum  Endpoint number
1574:Drivers/STM32F4xx_HAL_Driver/Src/stm32f4xx_ll_usb.c ****   *          This parameter can be a value from 1 to 15
1575:Drivers/STM32F4xx_HAL_Driver/Src/stm32f4xx_ll_usb.c ****   * @param  dev_address  Current device address
1576:Drivers/STM32F4xx_HAL_Driver/Src/stm32f4xx_ll_usb.c ****   *          This parameter can be a value from 0 to 255
1577:Drivers/STM32F4xx_HAL_Driver/Src/stm32f4xx_ll_usb.c ****   * @param  speed  Current device speed
1578:Drivers/STM32F4xx_HAL_Driver/Src/stm32f4xx_ll_usb.c ****   *          This parameter can be one of these values:
1579:Drivers/STM32F4xx_HAL_Driver/Src/stm32f4xx_ll_usb.c ****   *            @arg USB_OTG_SPEED_HIGH: High speed mode
1580:Drivers/STM32F4xx_HAL_Driver/Src/stm32f4xx_ll_usb.c ****   *            @arg USB_OTG_SPEED_FULL: Full speed mode
1581:Drivers/STM32F4xx_HAL_Driver/Src/stm32f4xx_ll_usb.c ****   *            @arg USB_OTG_SPEED_LOW: Low speed mode
1582:Drivers/STM32F4xx_HAL_Driver/Src/stm32f4xx_ll_usb.c ****   * @param  ep_type  Endpoint Type
1583:Drivers/STM32F4xx_HAL_Driver/Src/stm32f4xx_ll_usb.c ****   *          This parameter can be one of these values:
1584:Drivers/STM32F4xx_HAL_Driver/Src/stm32f4xx_ll_usb.c ****   *            @arg EP_TYPE_CTRL: Control type
1585:Drivers/STM32F4xx_HAL_Driver/Src/stm32f4xx_ll_usb.c ****   *            @arg EP_TYPE_ISOC: Isochronous type
1586:Drivers/STM32F4xx_HAL_Driver/Src/stm32f4xx_ll_usb.c ****   *            @arg EP_TYPE_BULK: Bulk type
1587:Drivers/STM32F4xx_HAL_Driver/Src/stm32f4xx_ll_usb.c ****   *            @arg EP_TYPE_INTR: Interrupt type
1588:Drivers/STM32F4xx_HAL_Driver/Src/stm32f4xx_ll_usb.c ****   * @param  mps  Max Packet Size
1589:Drivers/STM32F4xx_HAL_Driver/Src/stm32f4xx_ll_usb.c ****   *          This parameter can be a value from 0 to 32K
1590:Drivers/STM32F4xx_HAL_Driver/Src/stm32f4xx_ll_usb.c ****   * @retval HAL state
1591:Drivers/STM32F4xx_HAL_Driver/Src/stm32f4xx_ll_usb.c ****   */
1592:Drivers/STM32F4xx_HAL_Driver/Src/stm32f4xx_ll_usb.c **** HAL_StatusTypeDef USB_HC_Init(USB_OTG_GlobalTypeDef *USBx, uint8_t ch_num,
1593:Drivers/STM32F4xx_HAL_Driver/Src/stm32f4xx_ll_usb.c ****                               uint8_t epnum, uint8_t dev_address, uint8_t speed,
1594:Drivers/STM32F4xx_HAL_Driver/Src/stm32f4xx_ll_usb.c ****                               uint8_t ep_type, uint16_t mps)
1595:Drivers/STM32F4xx_HAL_Driver/Src/stm32f4xx_ll_usb.c **** {
 5452              		.loc 1 1595 1
 5453              		.cfi_startproc
 5454              		@ args = 12, pretend = 0, frame = 32
 5455              		@ frame_needed = 1, uses_anonymous_args = 0
 5456 0000 80B5     		push	{r7, lr}
 5457              	.LCFI242:
 5458              		.cfi_def_cfa_offset 8
 5459              		.cfi_offset 7, -8
 5460              		.cfi_offset 14, -4
 5461 0002 88B0     		sub	sp, sp, #32
 5462              	.LCFI243:
 5463              		.cfi_def_cfa_offset 40
 5464 0004 00AF     		add	r7, sp, #0
 5465              	.LCFI244:
 5466              		.cfi_def_cfa_register 7
 5467 0006 7860     		str	r0, [r7, #4]
 5468 0008 0846     		mov	r0, r1
 5469 000a 1146     		mov	r1, r2
 5470 000c 1A46     		mov	r2, r3
 5471 000e 0346     		mov	r3, r0
 5472 0010 FB70     		strb	r3, [r7, #3]
ARM GAS  /var/folders/vq/qt4vp3kd5rxf7v2b6_fdtdt80000gn/T//ccOb9Y7L.s 			page 124


 5473 0012 0B46     		mov	r3, r1
 5474 0014 BB70     		strb	r3, [r7, #2]
 5475 0016 1346     		mov	r3, r2
 5476 0018 7B70     		strb	r3, [r7, #1]
1596:Drivers/STM32F4xx_HAL_Driver/Src/stm32f4xx_ll_usb.c ****   HAL_StatusTypeDef ret = HAL_OK;
 5477              		.loc 1 1596 21
 5478 001a 0023     		movs	r3, #0
 5479 001c FB77     		strb	r3, [r7, #31]
1597:Drivers/STM32F4xx_HAL_Driver/Src/stm32f4xx_ll_usb.c ****   uint32_t USBx_BASE = (uint32_t)USBx;
 5480              		.loc 1 1597 12
 5481 001e 7B68     		ldr	r3, [r7, #4]
 5482 0020 3B61     		str	r3, [r7, #16]
1598:Drivers/STM32F4xx_HAL_Driver/Src/stm32f4xx_ll_usb.c ****   uint32_t HCcharEpDir, HCcharLowSpeed;
1599:Drivers/STM32F4xx_HAL_Driver/Src/stm32f4xx_ll_usb.c ****   uint32_t HostCoreSpeed;
1600:Drivers/STM32F4xx_HAL_Driver/Src/stm32f4xx_ll_usb.c **** 
1601:Drivers/STM32F4xx_HAL_Driver/Src/stm32f4xx_ll_usb.c ****   /* Clear old interrupt conditions for this host channel. */
1602:Drivers/STM32F4xx_HAL_Driver/Src/stm32f4xx_ll_usb.c ****   USBx_HC((uint32_t)ch_num)->HCINT = 0xFFFFFFFFU;
 5483              		.loc 1 1602 3
 5484 0022 FB78     		ldrb	r3, [r7, #3]	@ zero_extendqisi2
 5485 0024 5A01     		lsls	r2, r3, #5
 5486 0026 3B69     		ldr	r3, [r7, #16]
 5487 0028 1344     		add	r3, r3, r2
 5488 002a 03F5A063 		add	r3, r3, #1280
 5489 002e 1A46     		mov	r2, r3
 5490              		.loc 1 1602 36
 5491 0030 4FF0FF33 		mov	r3, #-1
 5492 0034 9360     		str	r3, [r2, #8]
1603:Drivers/STM32F4xx_HAL_Driver/Src/stm32f4xx_ll_usb.c **** 
1604:Drivers/STM32F4xx_HAL_Driver/Src/stm32f4xx_ll_usb.c ****   /* Enable channel interrupts required for this transfer. */
1605:Drivers/STM32F4xx_HAL_Driver/Src/stm32f4xx_ll_usb.c ****   switch (ep_type)
 5493              		.loc 1 1605 3
 5494 0036 97F82C30 		ldrb	r3, [r7, #44]	@ zero_extendqisi2
 5495 003a 032B     		cmp	r3, #3
 5496 003c 7ED8     		bhi	.L226
 5497 003e 01A2     		adr	r2, .L228
 5498 0040 52F823F0 		ldr	pc, [r2, r3, lsl #2]
 5499              		.p2align 2
 5500              	.L228:
 5501 0044 55000000 		.word	.L229+1
 5502 0048 FF000000 		.word	.L230+1
 5503 004c 55000000 		.word	.L229+1
 5504 0050 C1000000 		.word	.L227+1
 5505              		.p2align 1
 5506              	.L229:
1606:Drivers/STM32F4xx_HAL_Driver/Src/stm32f4xx_ll_usb.c ****   {
1607:Drivers/STM32F4xx_HAL_Driver/Src/stm32f4xx_ll_usb.c ****     case EP_TYPE_CTRL:
1608:Drivers/STM32F4xx_HAL_Driver/Src/stm32f4xx_ll_usb.c ****     case EP_TYPE_BULK:
1609:Drivers/STM32F4xx_HAL_Driver/Src/stm32f4xx_ll_usb.c ****       USBx_HC((uint32_t)ch_num)->HCINTMSK = USB_OTG_HCINTMSK_XFRCM  |
 5507              		.loc 1 1609 7
 5508 0054 FB78     		ldrb	r3, [r7, #3]	@ zero_extendqisi2
 5509 0056 5A01     		lsls	r2, r3, #5
 5510 0058 3B69     		ldr	r3, [r7, #16]
 5511 005a 1344     		add	r3, r3, r2
 5512 005c 03F5A063 		add	r3, r3, #1280
 5513 0060 1A46     		mov	r2, r3
 5514              		.loc 1 1609 43
 5515 0062 40F29D43 		movw	r3, #1181
ARM GAS  /var/folders/vq/qt4vp3kd5rxf7v2b6_fdtdt80000gn/T//ccOb9Y7L.s 			page 125


 5516 0066 D360     		str	r3, [r2, #12]
1610:Drivers/STM32F4xx_HAL_Driver/Src/stm32f4xx_ll_usb.c ****                                             USB_OTG_HCINTMSK_STALLM |
1611:Drivers/STM32F4xx_HAL_Driver/Src/stm32f4xx_ll_usb.c ****                                             USB_OTG_HCINTMSK_TXERRM |
1612:Drivers/STM32F4xx_HAL_Driver/Src/stm32f4xx_ll_usb.c ****                                             USB_OTG_HCINTMSK_DTERRM |
1613:Drivers/STM32F4xx_HAL_Driver/Src/stm32f4xx_ll_usb.c ****                                             USB_OTG_HCINTMSK_AHBERR |
1614:Drivers/STM32F4xx_HAL_Driver/Src/stm32f4xx_ll_usb.c ****                                             USB_OTG_HCINTMSK_NAKM;
1615:Drivers/STM32F4xx_HAL_Driver/Src/stm32f4xx_ll_usb.c **** 
1616:Drivers/STM32F4xx_HAL_Driver/Src/stm32f4xx_ll_usb.c ****       if ((epnum & 0x80U) == 0x80U)
 5517              		.loc 1 1616 27
 5518 0068 97F90230 		ldrsb	r3, [r7, #2]
 5519              		.loc 1 1616 10
 5520 006c 002B     		cmp	r3, #0
 5521 006e 10DA     		bge	.L231
1617:Drivers/STM32F4xx_HAL_Driver/Src/stm32f4xx_ll_usb.c ****       {
1618:Drivers/STM32F4xx_HAL_Driver/Src/stm32f4xx_ll_usb.c ****         USBx_HC((uint32_t)ch_num)->HCINTMSK |= USB_OTG_HCINTMSK_BBERRM;
 5522              		.loc 1 1618 45
 5523 0070 FB78     		ldrb	r3, [r7, #3]	@ zero_extendqisi2
 5524 0072 5A01     		lsls	r2, r3, #5
 5525 0074 3B69     		ldr	r3, [r7, #16]
 5526 0076 1344     		add	r3, r3, r2
 5527 0078 03F5A063 		add	r3, r3, #1280
 5528 007c DB68     		ldr	r3, [r3, #12]
 5529 007e FA78     		ldrb	r2, [r7, #3]	@ zero_extendqisi2
 5530 0080 5101     		lsls	r1, r2, #5
 5531 0082 3A69     		ldr	r2, [r7, #16]
 5532 0084 0A44     		add	r2, r2, r1
 5533 0086 02F5A062 		add	r2, r2, #1280
 5534 008a 43F48073 		orr	r3, r3, #256
 5535 008e D360     		str	r3, [r2, #12]
1619:Drivers/STM32F4xx_HAL_Driver/Src/stm32f4xx_ll_usb.c ****       }
1620:Drivers/STM32F4xx_HAL_Driver/Src/stm32f4xx_ll_usb.c ****       else
1621:Drivers/STM32F4xx_HAL_Driver/Src/stm32f4xx_ll_usb.c ****       {
1622:Drivers/STM32F4xx_HAL_Driver/Src/stm32f4xx_ll_usb.c ****         if ((USBx->CID & (0x1U << 8)) != 0U)
1623:Drivers/STM32F4xx_HAL_Driver/Src/stm32f4xx_ll_usb.c ****         {
1624:Drivers/STM32F4xx_HAL_Driver/Src/stm32f4xx_ll_usb.c ****           USBx_HC((uint32_t)ch_num)->HCINTMSK |= USB_OTG_HCINTMSK_NYET |
1625:Drivers/STM32F4xx_HAL_Driver/Src/stm32f4xx_ll_usb.c ****                                                  USB_OTG_HCINTMSK_ACKM;
1626:Drivers/STM32F4xx_HAL_Driver/Src/stm32f4xx_ll_usb.c ****         }
1627:Drivers/STM32F4xx_HAL_Driver/Src/stm32f4xx_ll_usb.c ****       }
1628:Drivers/STM32F4xx_HAL_Driver/Src/stm32f4xx_ll_usb.c ****       break;
 5536              		.loc 1 1628 7
 5537 0090 57E0     		b	.L242
 5538              	.L231:
1622:Drivers/STM32F4xx_HAL_Driver/Src/stm32f4xx_ll_usb.c ****         {
 5539              		.loc 1 1622 18
 5540 0092 7B68     		ldr	r3, [r7, #4]
 5541 0094 DB6B     		ldr	r3, [r3, #60]
1622:Drivers/STM32F4xx_HAL_Driver/Src/stm32f4xx_ll_usb.c ****         {
 5542              		.loc 1 1622 24
 5543 0096 03F48073 		and	r3, r3, #256
1622:Drivers/STM32F4xx_HAL_Driver/Src/stm32f4xx_ll_usb.c ****         {
 5544              		.loc 1 1622 12
 5545 009a 002B     		cmp	r3, #0
 5546 009c 51D0     		beq	.L242
1624:Drivers/STM32F4xx_HAL_Driver/Src/stm32f4xx_ll_usb.c ****                                                  USB_OTG_HCINTMSK_ACKM;
 5547              		.loc 1 1624 47
 5548 009e FB78     		ldrb	r3, [r7, #3]	@ zero_extendqisi2
 5549 00a0 5A01     		lsls	r2, r3, #5
ARM GAS  /var/folders/vq/qt4vp3kd5rxf7v2b6_fdtdt80000gn/T//ccOb9Y7L.s 			page 126


 5550 00a2 3B69     		ldr	r3, [r7, #16]
 5551 00a4 1344     		add	r3, r3, r2
 5552 00a6 03F5A063 		add	r3, r3, #1280
 5553 00aa DB68     		ldr	r3, [r3, #12]
 5554 00ac FA78     		ldrb	r2, [r7, #3]	@ zero_extendqisi2
 5555 00ae 5101     		lsls	r1, r2, #5
 5556 00b0 3A69     		ldr	r2, [r7, #16]
 5557 00b2 0A44     		add	r2, r2, r1
 5558 00b4 02F5A062 		add	r2, r2, #1280
 5559 00b8 43F06003 		orr	r3, r3, #96
 5560 00bc D360     		str	r3, [r2, #12]
 5561              		.loc 1 1628 7
 5562 00be 40E0     		b	.L242
 5563              	.L227:
1629:Drivers/STM32F4xx_HAL_Driver/Src/stm32f4xx_ll_usb.c **** 
1630:Drivers/STM32F4xx_HAL_Driver/Src/stm32f4xx_ll_usb.c ****     case EP_TYPE_INTR:
1631:Drivers/STM32F4xx_HAL_Driver/Src/stm32f4xx_ll_usb.c ****       USBx_HC((uint32_t)ch_num)->HCINTMSK = USB_OTG_HCINTMSK_XFRCM  |
 5564              		.loc 1 1631 7
 5565 00c0 FB78     		ldrb	r3, [r7, #3]	@ zero_extendqisi2
 5566 00c2 5A01     		lsls	r2, r3, #5
 5567 00c4 3B69     		ldr	r3, [r7, #16]
 5568 00c6 1344     		add	r3, r3, r2
 5569 00c8 03F5A063 		add	r3, r3, #1280
 5570 00cc 1A46     		mov	r2, r3
 5571              		.loc 1 1631 43
 5572 00ce 40F29D63 		movw	r3, #1693
 5573 00d2 D360     		str	r3, [r2, #12]
1632:Drivers/STM32F4xx_HAL_Driver/Src/stm32f4xx_ll_usb.c ****                                             USB_OTG_HCINTMSK_STALLM |
1633:Drivers/STM32F4xx_HAL_Driver/Src/stm32f4xx_ll_usb.c ****                                             USB_OTG_HCINTMSK_TXERRM |
1634:Drivers/STM32F4xx_HAL_Driver/Src/stm32f4xx_ll_usb.c ****                                             USB_OTG_HCINTMSK_DTERRM |
1635:Drivers/STM32F4xx_HAL_Driver/Src/stm32f4xx_ll_usb.c ****                                             USB_OTG_HCINTMSK_NAKM   |
1636:Drivers/STM32F4xx_HAL_Driver/Src/stm32f4xx_ll_usb.c ****                                             USB_OTG_HCINTMSK_AHBERR |
1637:Drivers/STM32F4xx_HAL_Driver/Src/stm32f4xx_ll_usb.c ****                                             USB_OTG_HCINTMSK_FRMORM;
1638:Drivers/STM32F4xx_HAL_Driver/Src/stm32f4xx_ll_usb.c **** 
1639:Drivers/STM32F4xx_HAL_Driver/Src/stm32f4xx_ll_usb.c ****       if ((epnum & 0x80U) == 0x80U)
 5574              		.loc 1 1639 27
 5575 00d4 97F90230 		ldrsb	r3, [r7, #2]
 5576              		.loc 1 1639 10
 5577 00d8 002B     		cmp	r3, #0
 5578 00da 34DA     		bge	.L243
1640:Drivers/STM32F4xx_HAL_Driver/Src/stm32f4xx_ll_usb.c ****       {
1641:Drivers/STM32F4xx_HAL_Driver/Src/stm32f4xx_ll_usb.c ****         USBx_HC((uint32_t)ch_num)->HCINTMSK |= USB_OTG_HCINTMSK_BBERRM;
 5579              		.loc 1 1641 45
 5580 00dc FB78     		ldrb	r3, [r7, #3]	@ zero_extendqisi2
 5581 00de 5A01     		lsls	r2, r3, #5
 5582 00e0 3B69     		ldr	r3, [r7, #16]
 5583 00e2 1344     		add	r3, r3, r2
 5584 00e4 03F5A063 		add	r3, r3, #1280
 5585 00e8 DB68     		ldr	r3, [r3, #12]
 5586 00ea FA78     		ldrb	r2, [r7, #3]	@ zero_extendqisi2
 5587 00ec 5101     		lsls	r1, r2, #5
 5588 00ee 3A69     		ldr	r2, [r7, #16]
 5589 00f0 0A44     		add	r2, r2, r1
 5590 00f2 02F5A062 		add	r2, r2, #1280
 5591 00f6 43F48073 		orr	r3, r3, #256
 5592 00fa D360     		str	r3, [r2, #12]
1642:Drivers/STM32F4xx_HAL_Driver/Src/stm32f4xx_ll_usb.c ****       }
ARM GAS  /var/folders/vq/qt4vp3kd5rxf7v2b6_fdtdt80000gn/T//ccOb9Y7L.s 			page 127


1643:Drivers/STM32F4xx_HAL_Driver/Src/stm32f4xx_ll_usb.c **** 
1644:Drivers/STM32F4xx_HAL_Driver/Src/stm32f4xx_ll_usb.c ****       break;
 5593              		.loc 1 1644 7
 5594 00fc 23E0     		b	.L243
 5595              	.L230:
1645:Drivers/STM32F4xx_HAL_Driver/Src/stm32f4xx_ll_usb.c **** 
1646:Drivers/STM32F4xx_HAL_Driver/Src/stm32f4xx_ll_usb.c ****     case EP_TYPE_ISOC:
1647:Drivers/STM32F4xx_HAL_Driver/Src/stm32f4xx_ll_usb.c ****       USBx_HC((uint32_t)ch_num)->HCINTMSK = USB_OTG_HCINTMSK_XFRCM  |
 5596              		.loc 1 1647 7
 5597 00fe FB78     		ldrb	r3, [r7, #3]	@ zero_extendqisi2
 5598 0100 5A01     		lsls	r2, r3, #5
 5599 0102 3B69     		ldr	r3, [r7, #16]
 5600 0104 1344     		add	r3, r3, r2
 5601 0106 03F5A063 		add	r3, r3, #1280
 5602 010a 1A46     		mov	r2, r3
 5603              		.loc 1 1647 43
 5604 010c 40F22523 		movw	r3, #549
 5605 0110 D360     		str	r3, [r2, #12]
1648:Drivers/STM32F4xx_HAL_Driver/Src/stm32f4xx_ll_usb.c ****                                             USB_OTG_HCINTMSK_ACKM   |
1649:Drivers/STM32F4xx_HAL_Driver/Src/stm32f4xx_ll_usb.c ****                                             USB_OTG_HCINTMSK_AHBERR |
1650:Drivers/STM32F4xx_HAL_Driver/Src/stm32f4xx_ll_usb.c ****                                             USB_OTG_HCINTMSK_FRMORM;
1651:Drivers/STM32F4xx_HAL_Driver/Src/stm32f4xx_ll_usb.c **** 
1652:Drivers/STM32F4xx_HAL_Driver/Src/stm32f4xx_ll_usb.c ****       if ((epnum & 0x80U) == 0x80U)
 5606              		.loc 1 1652 27
 5607 0112 97F90230 		ldrsb	r3, [r7, #2]
 5608              		.loc 1 1652 10
 5609 0116 002B     		cmp	r3, #0
 5610 0118 17DA     		bge	.L244
1653:Drivers/STM32F4xx_HAL_Driver/Src/stm32f4xx_ll_usb.c ****       {
1654:Drivers/STM32F4xx_HAL_Driver/Src/stm32f4xx_ll_usb.c ****         USBx_HC((uint32_t)ch_num)->HCINTMSK |= (USB_OTG_HCINTMSK_TXERRM | USB_OTG_HCINTMSK_BBERRM);
 5611              		.loc 1 1654 45
 5612 011a FB78     		ldrb	r3, [r7, #3]	@ zero_extendqisi2
 5613 011c 5A01     		lsls	r2, r3, #5
 5614 011e 3B69     		ldr	r3, [r7, #16]
 5615 0120 1344     		add	r3, r3, r2
 5616 0122 03F5A063 		add	r3, r3, #1280
 5617 0126 DB68     		ldr	r3, [r3, #12]
 5618 0128 FA78     		ldrb	r2, [r7, #3]	@ zero_extendqisi2
 5619 012a 5101     		lsls	r1, r2, #5
 5620 012c 3A69     		ldr	r2, [r7, #16]
 5621 012e 0A44     		add	r2, r2, r1
 5622 0130 02F5A062 		add	r2, r2, #1280
 5623 0134 43F4C073 		orr	r3, r3, #384
 5624 0138 D360     		str	r3, [r2, #12]
1655:Drivers/STM32F4xx_HAL_Driver/Src/stm32f4xx_ll_usb.c ****       }
1656:Drivers/STM32F4xx_HAL_Driver/Src/stm32f4xx_ll_usb.c ****       break;
 5625              		.loc 1 1656 7
 5626 013a 06E0     		b	.L244
 5627              	.L226:
1657:Drivers/STM32F4xx_HAL_Driver/Src/stm32f4xx_ll_usb.c **** 
1658:Drivers/STM32F4xx_HAL_Driver/Src/stm32f4xx_ll_usb.c ****     default:
1659:Drivers/STM32F4xx_HAL_Driver/Src/stm32f4xx_ll_usb.c ****       ret = HAL_ERROR;
 5628              		.loc 1 1659 11
 5629 013c 0123     		movs	r3, #1
 5630 013e FB77     		strb	r3, [r7, #31]
1660:Drivers/STM32F4xx_HAL_Driver/Src/stm32f4xx_ll_usb.c ****       break;
 5631              		.loc 1 1660 7
ARM GAS  /var/folders/vq/qt4vp3kd5rxf7v2b6_fdtdt80000gn/T//ccOb9Y7L.s 			page 128


 5632 0140 04E0     		b	.L233
 5633              	.L242:
1628:Drivers/STM32F4xx_HAL_Driver/Src/stm32f4xx_ll_usb.c **** 
 5634              		.loc 1 1628 7
 5635 0142 00BF     		nop
 5636 0144 02E0     		b	.L233
 5637              	.L243:
1644:Drivers/STM32F4xx_HAL_Driver/Src/stm32f4xx_ll_usb.c **** 
 5638              		.loc 1 1644 7
 5639 0146 00BF     		nop
 5640 0148 00E0     		b	.L233
 5641              	.L244:
1656:Drivers/STM32F4xx_HAL_Driver/Src/stm32f4xx_ll_usb.c **** 
 5642              		.loc 1 1656 7
 5643 014a 00BF     		nop
 5644              	.L233:
1661:Drivers/STM32F4xx_HAL_Driver/Src/stm32f4xx_ll_usb.c ****   }
1662:Drivers/STM32F4xx_HAL_Driver/Src/stm32f4xx_ll_usb.c **** 
1663:Drivers/STM32F4xx_HAL_Driver/Src/stm32f4xx_ll_usb.c ****   /* Enable the top level host channel interrupt. */
1664:Drivers/STM32F4xx_HAL_Driver/Src/stm32f4xx_ll_usb.c ****   USBx_HOST->HAINTMSK |= 1UL << (ch_num & 0xFU);
 5645              		.loc 1 1664 23
 5646 014c 3B69     		ldr	r3, [r7, #16]
 5647 014e 03F58063 		add	r3, r3, #1024
 5648 0152 9A69     		ldr	r2, [r3, #24]
 5649              		.loc 1 1664 41
 5650 0154 FB78     		ldrb	r3, [r7, #3]	@ zero_extendqisi2
 5651 0156 03F00F03 		and	r3, r3, #15
 5652              		.loc 1 1664 30
 5653 015a 0121     		movs	r1, #1
 5654 015c 01FA03F3 		lsl	r3, r1, r3
 5655              		.loc 1 1664 23
 5656 0160 3969     		ldr	r1, [r7, #16]
 5657 0162 01F58061 		add	r1, r1, #1024
 5658 0166 1343     		orrs	r3, r3, r2
 5659 0168 8B61     		str	r3, [r1, #24]
1665:Drivers/STM32F4xx_HAL_Driver/Src/stm32f4xx_ll_usb.c **** 
1666:Drivers/STM32F4xx_HAL_Driver/Src/stm32f4xx_ll_usb.c ****   /* Make sure host channel interrupts are enabled. */
1667:Drivers/STM32F4xx_HAL_Driver/Src/stm32f4xx_ll_usb.c ****   USBx->GINTMSK |= USB_OTG_GINTMSK_HCIM;
 5660              		.loc 1 1667 17
 5661 016a 7B68     		ldr	r3, [r7, #4]
 5662 016c 9B69     		ldr	r3, [r3, #24]
 5663 016e 43F00072 		orr	r2, r3, #33554432
 5664 0172 7B68     		ldr	r3, [r7, #4]
 5665 0174 9A61     		str	r2, [r3, #24]
1668:Drivers/STM32F4xx_HAL_Driver/Src/stm32f4xx_ll_usb.c **** 
1669:Drivers/STM32F4xx_HAL_Driver/Src/stm32f4xx_ll_usb.c ****   /* Program the HCCHAR register */
1670:Drivers/STM32F4xx_HAL_Driver/Src/stm32f4xx_ll_usb.c ****   if ((epnum & 0x80U) == 0x80U)
 5666              		.loc 1 1670 23
 5667 0176 97F90230 		ldrsb	r3, [r7, #2]
 5668              		.loc 1 1670 6
 5669 017a 002B     		cmp	r3, #0
 5670 017c 03DA     		bge	.L236
1671:Drivers/STM32F4xx_HAL_Driver/Src/stm32f4xx_ll_usb.c ****   {
1672:Drivers/STM32F4xx_HAL_Driver/Src/stm32f4xx_ll_usb.c ****     HCcharEpDir = (0x1U << 15) & USB_OTG_HCCHAR_EPDIR;
 5671              		.loc 1 1672 17
 5672 017e 4FF40043 		mov	r3, #32768
 5673 0182 BB61     		str	r3, [r7, #24]
ARM GAS  /var/folders/vq/qt4vp3kd5rxf7v2b6_fdtdt80000gn/T//ccOb9Y7L.s 			page 129


 5674 0184 01E0     		b	.L237
 5675              	.L236:
1673:Drivers/STM32F4xx_HAL_Driver/Src/stm32f4xx_ll_usb.c ****   }
1674:Drivers/STM32F4xx_HAL_Driver/Src/stm32f4xx_ll_usb.c ****   else
1675:Drivers/STM32F4xx_HAL_Driver/Src/stm32f4xx_ll_usb.c ****   {
1676:Drivers/STM32F4xx_HAL_Driver/Src/stm32f4xx_ll_usb.c ****     HCcharEpDir = 0U;
 5676              		.loc 1 1676 17
 5677 0186 0023     		movs	r3, #0
 5678 0188 BB61     		str	r3, [r7, #24]
 5679              	.L237:
1677:Drivers/STM32F4xx_HAL_Driver/Src/stm32f4xx_ll_usb.c ****   }
1678:Drivers/STM32F4xx_HAL_Driver/Src/stm32f4xx_ll_usb.c **** 
1679:Drivers/STM32F4xx_HAL_Driver/Src/stm32f4xx_ll_usb.c ****   HostCoreSpeed = USB_GetHostSpeed(USBx);
 5680              		.loc 1 1679 19
 5681 018a 7868     		ldr	r0, [r7, #4]
 5682 018c FFF7FEFF 		bl	USB_GetHostSpeed
 5683 0190 F860     		str	r0, [r7, #12]
1680:Drivers/STM32F4xx_HAL_Driver/Src/stm32f4xx_ll_usb.c **** 
1681:Drivers/STM32F4xx_HAL_Driver/Src/stm32f4xx_ll_usb.c ****   /* LS device plugged to HUB */
1682:Drivers/STM32F4xx_HAL_Driver/Src/stm32f4xx_ll_usb.c ****   if ((speed == HPRT0_PRTSPD_LOW_SPEED) && (HostCoreSpeed != HPRT0_PRTSPD_LOW_SPEED))
 5684              		.loc 1 1682 6
 5685 0192 97F82830 		ldrb	r3, [r7, #40]	@ zero_extendqisi2
 5686 0196 022B     		cmp	r3, #2
 5687 0198 06D1     		bne	.L238
 5688              		.loc 1 1682 41 discriminator 1
 5689 019a FB68     		ldr	r3, [r7, #12]
 5690 019c 022B     		cmp	r3, #2
 5691 019e 03D0     		beq	.L238
1683:Drivers/STM32F4xx_HAL_Driver/Src/stm32f4xx_ll_usb.c ****   {
1684:Drivers/STM32F4xx_HAL_Driver/Src/stm32f4xx_ll_usb.c ****     HCcharLowSpeed = (0x1U << 17) & USB_OTG_HCCHAR_LSDEV;
 5692              		.loc 1 1684 20
 5693 01a0 4FF40033 		mov	r3, #131072
 5694 01a4 7B61     		str	r3, [r7, #20]
 5695 01a6 01E0     		b	.L239
 5696              	.L238:
1685:Drivers/STM32F4xx_HAL_Driver/Src/stm32f4xx_ll_usb.c ****   }
1686:Drivers/STM32F4xx_HAL_Driver/Src/stm32f4xx_ll_usb.c ****   else
1687:Drivers/STM32F4xx_HAL_Driver/Src/stm32f4xx_ll_usb.c ****   {
1688:Drivers/STM32F4xx_HAL_Driver/Src/stm32f4xx_ll_usb.c ****     HCcharLowSpeed = 0U;
 5697              		.loc 1 1688 20
 5698 01a8 0023     		movs	r3, #0
 5699 01aa 7B61     		str	r3, [r7, #20]
 5700              	.L239:
1689:Drivers/STM32F4xx_HAL_Driver/Src/stm32f4xx_ll_usb.c ****   }
1690:Drivers/STM32F4xx_HAL_Driver/Src/stm32f4xx_ll_usb.c **** 
1691:Drivers/STM32F4xx_HAL_Driver/Src/stm32f4xx_ll_usb.c ****   USBx_HC((uint32_t)ch_num)->HCCHAR = (((uint32_t)dev_address << 22) & USB_OTG_HCCHAR_DAD) |
 5701              		.loc 1 1691 41
 5702 01ac 7B78     		ldrb	r3, [r7, #1]	@ zero_extendqisi2
 5703              		.loc 1 1691 63
 5704 01ae 9B05     		lsls	r3, r3, #22
 5705              		.loc 1 1691 70
 5706 01b0 03F0FE52 		and	r2, r3, #532676608
1692:Drivers/STM32F4xx_HAL_Driver/Src/stm32f4xx_ll_usb.c ****                                       ((((uint32_t)epnum & 0x7FU) << 11) & USB_OTG_HCCHAR_EPNUM) |
 5707              		.loc 1 1692 67
 5708 01b4 BB78     		ldrb	r3, [r7, #2]	@ zero_extendqisi2
 5709 01b6 DB02     		lsls	r3, r3, #11
 5710              		.loc 1 1692 74
ARM GAS  /var/folders/vq/qt4vp3kd5rxf7v2b6_fdtdt80000gn/T//ccOb9Y7L.s 			page 130


 5711 01b8 03F4F043 		and	r3, r3, #30720
1691:Drivers/STM32F4xx_HAL_Driver/Src/stm32f4xx_ll_usb.c ****                                       ((((uint32_t)epnum & 0x7FU) << 11) & USB_OTG_HCCHAR_EPNUM) |
 5712              		.loc 1 1691 92
 5713 01bc 1A43     		orrs	r2, r2, r3
1693:Drivers/STM32F4xx_HAL_Driver/Src/stm32f4xx_ll_usb.c ****                                       (((uint32_t)ep_type << 18) & USB_OTG_HCCHAR_EPTYP) |
 5714              		.loc 1 1693 41
 5715 01be 97F82C30 		ldrb	r3, [r7, #44]	@ zero_extendqisi2
 5716              		.loc 1 1693 59
 5717 01c2 9B04     		lsls	r3, r3, #18
 5718              		.loc 1 1693 66
 5719 01c4 03F44023 		and	r3, r3, #786432
1692:Drivers/STM32F4xx_HAL_Driver/Src/stm32f4xx_ll_usb.c ****                                       ((((uint32_t)epnum & 0x7FU) << 11) & USB_OTG_HCCHAR_EPNUM) |
 5720              		.loc 1 1692 98
 5721 01c8 1A43     		orrs	r2, r2, r3
1694:Drivers/STM32F4xx_HAL_Driver/Src/stm32f4xx_ll_usb.c ****                                       ((uint32_t)mps & USB_OTG_HCCHAR_MPSIZ) | HCcharEpDir | HCchar
 5722              		.loc 1 1694 54
 5723 01ca 3B8E     		ldrh	r3, [r7, #48]
 5724 01cc C3F30A03 		ubfx	r3, r3, #0, #11
1693:Drivers/STM32F4xx_HAL_Driver/Src/stm32f4xx_ll_usb.c ****                                       (((uint32_t)ep_type << 18) & USB_OTG_HCCHAR_EPTYP) |
 5725              		.loc 1 1693 90
 5726 01d0 1A43     		orrs	r2, r2, r3
 5727              		.loc 1 1694 78
 5728 01d2 BB69     		ldr	r3, [r7, #24]
 5729 01d4 1A43     		orrs	r2, r2, r3
1691:Drivers/STM32F4xx_HAL_Driver/Src/stm32f4xx_ll_usb.c ****                                       ((((uint32_t)epnum & 0x7FU) << 11) & USB_OTG_HCCHAR_EPNUM) |
 5730              		.loc 1 1691 3
 5731 01d6 FB78     		ldrb	r3, [r7, #3]	@ zero_extendqisi2
 5732 01d8 5901     		lsls	r1, r3, #5
 5733 01da 3B69     		ldr	r3, [r7, #16]
 5734 01dc 0B44     		add	r3, r3, r1
 5735 01de 03F5A063 		add	r3, r3, #1280
 5736 01e2 1946     		mov	r1, r3
 5737              		.loc 1 1694 92
 5738 01e4 7B69     		ldr	r3, [r7, #20]
 5739 01e6 1343     		orrs	r3, r3, r2
1691:Drivers/STM32F4xx_HAL_Driver/Src/stm32f4xx_ll_usb.c ****                                       ((((uint32_t)epnum & 0x7FU) << 11) & USB_OTG_HCCHAR_EPNUM) |
 5740              		.loc 1 1691 37
 5741 01e8 0B60     		str	r3, [r1]
1695:Drivers/STM32F4xx_HAL_Driver/Src/stm32f4xx_ll_usb.c **** 
1696:Drivers/STM32F4xx_HAL_Driver/Src/stm32f4xx_ll_usb.c ****   if (ep_type == EP_TYPE_INTR)
 5742              		.loc 1 1696 6
 5743 01ea 97F82C30 		ldrb	r3, [r7, #44]	@ zero_extendqisi2
 5744 01ee 032B     		cmp	r3, #3
 5745 01f0 0FD1     		bne	.L240
1697:Drivers/STM32F4xx_HAL_Driver/Src/stm32f4xx_ll_usb.c ****   {
1698:Drivers/STM32F4xx_HAL_Driver/Src/stm32f4xx_ll_usb.c ****     USBx_HC((uint32_t)ch_num)->HCCHAR |= USB_OTG_HCCHAR_ODDFRM ;
 5746              		.loc 1 1698 39
 5747 01f2 FB78     		ldrb	r3, [r7, #3]	@ zero_extendqisi2
 5748 01f4 5A01     		lsls	r2, r3, #5
 5749 01f6 3B69     		ldr	r3, [r7, #16]
 5750 01f8 1344     		add	r3, r3, r2
 5751 01fa 03F5A063 		add	r3, r3, #1280
 5752 01fe 1B68     		ldr	r3, [r3]
 5753 0200 FA78     		ldrb	r2, [r7, #3]	@ zero_extendqisi2
 5754 0202 5101     		lsls	r1, r2, #5
 5755 0204 3A69     		ldr	r2, [r7, #16]
 5756 0206 0A44     		add	r2, r2, r1
ARM GAS  /var/folders/vq/qt4vp3kd5rxf7v2b6_fdtdt80000gn/T//ccOb9Y7L.s 			page 131


 5757 0208 02F5A062 		add	r2, r2, #1280
 5758 020c 43F00053 		orr	r3, r3, #536870912
 5759 0210 1360     		str	r3, [r2]
 5760              	.L240:
1699:Drivers/STM32F4xx_HAL_Driver/Src/stm32f4xx_ll_usb.c ****   }
1700:Drivers/STM32F4xx_HAL_Driver/Src/stm32f4xx_ll_usb.c **** 
1701:Drivers/STM32F4xx_HAL_Driver/Src/stm32f4xx_ll_usb.c ****   return ret;
 5761              		.loc 1 1701 10
 5762 0212 FB7F     		ldrb	r3, [r7, #31]	@ zero_extendqisi2
1702:Drivers/STM32F4xx_HAL_Driver/Src/stm32f4xx_ll_usb.c **** }
 5763              		.loc 1 1702 1
 5764 0214 1846     		mov	r0, r3
 5765 0216 2037     		adds	r7, r7, #32
 5766              	.LCFI245:
 5767              		.cfi_def_cfa_offset 8
 5768 0218 BD46     		mov	sp, r7
 5769              	.LCFI246:
 5770              		.cfi_def_cfa_register 13
 5771              		@ sp needed
 5772 021a 80BD     		pop	{r7, pc}
 5773              		.cfi_endproc
 5774              	.LFE170:
 5776              		.section	.text.USB_HC_StartXfer,"ax",%progbits
 5777              		.align	1
 5778              		.global	USB_HC_StartXfer
 5779              		.syntax unified
 5780              		.thumb
 5781              		.thumb_func
 5782              		.fpu fpv4-sp-d16
 5784              	USB_HC_StartXfer:
 5785              	.LFB171:
1703:Drivers/STM32F4xx_HAL_Driver/Src/stm32f4xx_ll_usb.c **** 
1704:Drivers/STM32F4xx_HAL_Driver/Src/stm32f4xx_ll_usb.c **** /**
1705:Drivers/STM32F4xx_HAL_Driver/Src/stm32f4xx_ll_usb.c ****   * @brief  Start a transfer over a host channel
1706:Drivers/STM32F4xx_HAL_Driver/Src/stm32f4xx_ll_usb.c ****   * @param  USBx  Selected device
1707:Drivers/STM32F4xx_HAL_Driver/Src/stm32f4xx_ll_usb.c ****   * @param  hc  pointer to host channel structure
1708:Drivers/STM32F4xx_HAL_Driver/Src/stm32f4xx_ll_usb.c ****   * @param  dma USB dma enabled or disabled
1709:Drivers/STM32F4xx_HAL_Driver/Src/stm32f4xx_ll_usb.c ****   *          This parameter can be one of these values:
1710:Drivers/STM32F4xx_HAL_Driver/Src/stm32f4xx_ll_usb.c ****   *           0 : DMA feature not used
1711:Drivers/STM32F4xx_HAL_Driver/Src/stm32f4xx_ll_usb.c ****   *           1 : DMA feature used
1712:Drivers/STM32F4xx_HAL_Driver/Src/stm32f4xx_ll_usb.c ****   * @retval HAL state
1713:Drivers/STM32F4xx_HAL_Driver/Src/stm32f4xx_ll_usb.c ****   */
1714:Drivers/STM32F4xx_HAL_Driver/Src/stm32f4xx_ll_usb.c **** HAL_StatusTypeDef USB_HC_StartXfer(USB_OTG_GlobalTypeDef *USBx, USB_OTG_HCTypeDef *hc, uint8_t dma)
1715:Drivers/STM32F4xx_HAL_Driver/Src/stm32f4xx_ll_usb.c **** {
 5786              		.loc 1 1715 1
 5787              		.cfi_startproc
 5788              		@ args = 0, pretend = 0, frame = 40
 5789              		@ frame_needed = 1, uses_anonymous_args = 0
 5790 0000 80B5     		push	{r7, lr}
 5791              	.LCFI247:
 5792              		.cfi_def_cfa_offset 8
 5793              		.cfi_offset 7, -8
 5794              		.cfi_offset 14, -4
 5795 0002 8CB0     		sub	sp, sp, #48
 5796              	.LCFI248:
 5797              		.cfi_def_cfa_offset 56
 5798 0004 02AF     		add	r7, sp, #8
ARM GAS  /var/folders/vq/qt4vp3kd5rxf7v2b6_fdtdt80000gn/T//ccOb9Y7L.s 			page 132


 5799              	.LCFI249:
 5800              		.cfi_def_cfa 7, 48
 5801 0006 F860     		str	r0, [r7, #12]
 5802 0008 B960     		str	r1, [r7, #8]
 5803 000a 1346     		mov	r3, r2
 5804 000c FB71     		strb	r3, [r7, #7]
1716:Drivers/STM32F4xx_HAL_Driver/Src/stm32f4xx_ll_usb.c ****   uint32_t USBx_BASE = (uint32_t)USBx;
 5805              		.loc 1 1716 12
 5806 000e FB68     		ldr	r3, [r7, #12]
 5807 0010 3B62     		str	r3, [r7, #32]
1717:Drivers/STM32F4xx_HAL_Driver/Src/stm32f4xx_ll_usb.c ****   uint32_t ch_num = (uint32_t)hc->ch_num;
 5808              		.loc 1 1717 33
 5809 0012 BB68     		ldr	r3, [r7, #8]
 5810 0014 5B78     		ldrb	r3, [r3, #1]	@ zero_extendqisi2
 5811              		.loc 1 1717 12
 5812 0016 FB61     		str	r3, [r7, #28]
1718:Drivers/STM32F4xx_HAL_Driver/Src/stm32f4xx_ll_usb.c ****   __IO uint32_t tmpreg;
1719:Drivers/STM32F4xx_HAL_Driver/Src/stm32f4xx_ll_usb.c ****   uint8_t  is_oddframe;
1720:Drivers/STM32F4xx_HAL_Driver/Src/stm32f4xx_ll_usb.c ****   uint16_t len_words;
1721:Drivers/STM32F4xx_HAL_Driver/Src/stm32f4xx_ll_usb.c ****   uint16_t num_packets;
1722:Drivers/STM32F4xx_HAL_Driver/Src/stm32f4xx_ll_usb.c ****   uint16_t max_hc_pkt_count = 256U;
 5813              		.loc 1 1722 12
 5814 0018 4FF48073 		mov	r3, #256
 5815 001c 7B83     		strh	r3, [r7, #26]	@ movhi
1723:Drivers/STM32F4xx_HAL_Driver/Src/stm32f4xx_ll_usb.c **** 
1724:Drivers/STM32F4xx_HAL_Driver/Src/stm32f4xx_ll_usb.c ****   if (((USBx->CID & (0x1U << 8)) != 0U) && (hc->speed == USBH_HS_SPEED))
 5816              		.loc 1 1724 13
 5817 001e FB68     		ldr	r3, [r7, #12]
 5818 0020 DB6B     		ldr	r3, [r3, #60]
 5819              		.loc 1 1724 19
 5820 0022 03F48073 		and	r3, r3, #256
 5821              		.loc 1 1724 6
 5822 0026 002B     		cmp	r3, #0
 5823 0028 2DD0     		beq	.L246
 5824              		.loc 1 1724 47 discriminator 1
 5825 002a BB68     		ldr	r3, [r7, #8]
 5826 002c 1B79     		ldrb	r3, [r3, #4]	@ zero_extendqisi2
 5827              		.loc 1 1724 41 discriminator 1
 5828 002e 002B     		cmp	r3, #0
 5829 0030 29D1     		bne	.L246
1725:Drivers/STM32F4xx_HAL_Driver/Src/stm32f4xx_ll_usb.c ****   {
1726:Drivers/STM32F4xx_HAL_Driver/Src/stm32f4xx_ll_usb.c ****     /* in DMA mode host Core automatically issues ping  in case of NYET/NAK */
1727:Drivers/STM32F4xx_HAL_Driver/Src/stm32f4xx_ll_usb.c ****     if ((dma == 1U) && ((hc->ep_type == EP_TYPE_CTRL) || (hc->ep_type == EP_TYPE_BULK)))
 5830              		.loc 1 1727 8
 5831 0032 FB79     		ldrb	r3, [r7, #7]	@ zero_extendqisi2
 5832 0034 012B     		cmp	r3, #1
 5833 0036 17D1     		bne	.L247
 5834              		.loc 1 1727 28 discriminator 1
 5835 0038 BB68     		ldr	r3, [r7, #8]
 5836 003a DB79     		ldrb	r3, [r3, #7]	@ zero_extendqisi2
 5837              		.loc 1 1727 21 discriminator 1
 5838 003c 002B     		cmp	r3, #0
 5839 003e 03D0     		beq	.L248
 5840              		.loc 1 1727 61 discriminator 2
 5841 0040 BB68     		ldr	r3, [r7, #8]
 5842 0042 DB79     		ldrb	r3, [r3, #7]	@ zero_extendqisi2
 5843              		.loc 1 1727 55 discriminator 2
ARM GAS  /var/folders/vq/qt4vp3kd5rxf7v2b6_fdtdt80000gn/T//ccOb9Y7L.s 			page 133


 5844 0044 022B     		cmp	r3, #2
 5845 0046 0FD1     		bne	.L247
 5846              	.L248:
1728:Drivers/STM32F4xx_HAL_Driver/Src/stm32f4xx_ll_usb.c ****     {
1729:Drivers/STM32F4xx_HAL_Driver/Src/stm32f4xx_ll_usb.c ****       USBx_HC((uint32_t)ch_num)->HCINTMSK &= ~(USB_OTG_HCINTMSK_NYET |
 5847              		.loc 1 1729 43
 5848 0048 FB69     		ldr	r3, [r7, #28]
 5849 004a 5A01     		lsls	r2, r3, #5
 5850 004c 3B6A     		ldr	r3, [r7, #32]
 5851 004e 1344     		add	r3, r3, r2
 5852 0050 03F5A063 		add	r3, r3, #1280
 5853 0054 DB68     		ldr	r3, [r3, #12]
 5854 0056 FA69     		ldr	r2, [r7, #28]
 5855 0058 5101     		lsls	r1, r2, #5
 5856 005a 3A6A     		ldr	r2, [r7, #32]
 5857 005c 0A44     		add	r2, r2, r1
 5858 005e 02F5A062 		add	r2, r2, #1280
 5859 0062 23F07003 		bic	r3, r3, #112
 5860 0066 D360     		str	r3, [r2, #12]
 5861              	.L247:
1730:Drivers/STM32F4xx_HAL_Driver/Src/stm32f4xx_ll_usb.c ****                                                USB_OTG_HCINTMSK_ACKM |
1731:Drivers/STM32F4xx_HAL_Driver/Src/stm32f4xx_ll_usb.c ****                                                USB_OTG_HCINTMSK_NAKM);
1732:Drivers/STM32F4xx_HAL_Driver/Src/stm32f4xx_ll_usb.c ****     }
1733:Drivers/STM32F4xx_HAL_Driver/Src/stm32f4xx_ll_usb.c **** 
1734:Drivers/STM32F4xx_HAL_Driver/Src/stm32f4xx_ll_usb.c ****     if ((dma == 0U) && (hc->do_ping == 1U))
 5862              		.loc 1 1734 8
 5863 0068 FB79     		ldrb	r3, [r7, #7]	@ zero_extendqisi2
 5864 006a 002B     		cmp	r3, #0
 5865 006c 0BD1     		bne	.L246
 5866              		.loc 1 1734 27 discriminator 1
 5867 006e BB68     		ldr	r3, [r7, #8]
 5868 0070 5B79     		ldrb	r3, [r3, #5]	@ zero_extendqisi2
 5869              		.loc 1 1734 21 discriminator 1
 5870 0072 012B     		cmp	r3, #1
 5871 0074 07D1     		bne	.L246
1735:Drivers/STM32F4xx_HAL_Driver/Src/stm32f4xx_ll_usb.c ****     {
1736:Drivers/STM32F4xx_HAL_Driver/Src/stm32f4xx_ll_usb.c ****       (void)USB_DoPing(USBx, hc->ch_num);
 5872              		.loc 1 1736 13
 5873 0076 BB68     		ldr	r3, [r7, #8]
 5874 0078 5B78     		ldrb	r3, [r3, #1]	@ zero_extendqisi2
 5875 007a 1946     		mov	r1, r3
 5876 007c F868     		ldr	r0, [r7, #12]
 5877 007e FFF7FEFF 		bl	USB_DoPing
1737:Drivers/STM32F4xx_HAL_Driver/Src/stm32f4xx_ll_usb.c ****       return HAL_OK;
 5878              		.loc 1 1737 14
 5879 0082 0023     		movs	r3, #0
 5880 0084 F8E0     		b	.L249
 5881              	.L246:
1738:Drivers/STM32F4xx_HAL_Driver/Src/stm32f4xx_ll_usb.c ****     }
1739:Drivers/STM32F4xx_HAL_Driver/Src/stm32f4xx_ll_usb.c **** 
1740:Drivers/STM32F4xx_HAL_Driver/Src/stm32f4xx_ll_usb.c ****   }
1741:Drivers/STM32F4xx_HAL_Driver/Src/stm32f4xx_ll_usb.c **** 
1742:Drivers/STM32F4xx_HAL_Driver/Src/stm32f4xx_ll_usb.c ****   /* Compute the expected number of packets associated to the transfer */
1743:Drivers/STM32F4xx_HAL_Driver/Src/stm32f4xx_ll_usb.c ****   if (hc->xfer_len > 0U)
 5882              		.loc 1 1743 9
 5883 0086 BB68     		ldr	r3, [r7, #8]
 5884 0088 5B69     		ldr	r3, [r3, #20]
ARM GAS  /var/folders/vq/qt4vp3kd5rxf7v2b6_fdtdt80000gn/T//ccOb9Y7L.s 			page 134


 5885              		.loc 1 1743 6
 5886 008a 002B     		cmp	r3, #0
 5887 008c 18D0     		beq	.L250
1744:Drivers/STM32F4xx_HAL_Driver/Src/stm32f4xx_ll_usb.c ****   {
1745:Drivers/STM32F4xx_HAL_Driver/Src/stm32f4xx_ll_usb.c ****     num_packets = (uint16_t)((hc->xfer_len + hc->max_packet - 1U) / hc->max_packet);
 5888              		.loc 1 1745 33
 5889 008e BB68     		ldr	r3, [r7, #8]
 5890 0090 5B69     		ldr	r3, [r3, #20]
 5891              		.loc 1 1745 48
 5892 0092 BA68     		ldr	r2, [r7, #8]
 5893 0094 1289     		ldrh	r2, [r2, #8]
 5894              		.loc 1 1745 44
 5895 0096 1344     		add	r3, r3, r2
 5896              		.loc 1 1745 61
 5897 0098 013B     		subs	r3, r3, #1
 5898              		.loc 1 1745 71
 5899 009a BA68     		ldr	r2, [r7, #8]
 5900 009c 1289     		ldrh	r2, [r2, #8]
 5901              		.loc 1 1745 67
 5902 009e B3FBF2F3 		udiv	r3, r3, r2
 5903              		.loc 1 1745 17
 5904 00a2 FB84     		strh	r3, [r7, #38]	@ movhi
1746:Drivers/STM32F4xx_HAL_Driver/Src/stm32f4xx_ll_usb.c **** 
1747:Drivers/STM32F4xx_HAL_Driver/Src/stm32f4xx_ll_usb.c ****     if (num_packets > max_hc_pkt_count)
 5905              		.loc 1 1747 8
 5906 00a4 FA8C     		ldrh	r2, [r7, #38]
 5907 00a6 7B8B     		ldrh	r3, [r7, #26]
 5908 00a8 9A42     		cmp	r2, r3
 5909 00aa 0BD9     		bls	.L251
1748:Drivers/STM32F4xx_HAL_Driver/Src/stm32f4xx_ll_usb.c ****     {
1749:Drivers/STM32F4xx_HAL_Driver/Src/stm32f4xx_ll_usb.c ****       num_packets = max_hc_pkt_count;
 5910              		.loc 1 1749 19
 5911 00ac 7B8B     		ldrh	r3, [r7, #26]	@ movhi
 5912 00ae FB84     		strh	r3, [r7, #38]	@ movhi
1750:Drivers/STM32F4xx_HAL_Driver/Src/stm32f4xx_ll_usb.c ****       hc->XferSize = (uint32_t)num_packets * hc->max_packet;
 5913              		.loc 1 1750 22
 5914 00b0 FB8C     		ldrh	r3, [r7, #38]
 5915              		.loc 1 1750 48
 5916 00b2 BA68     		ldr	r2, [r7, #8]
 5917 00b4 1289     		ldrh	r2, [r2, #8]
 5918              		.loc 1 1750 44
 5919 00b6 02FB03F2 		mul	r2, r2, r3
 5920              		.loc 1 1750 20
 5921 00ba BB68     		ldr	r3, [r7, #8]
 5922 00bc 1A61     		str	r2, [r3, #16]
 5923 00be 01E0     		b	.L251
 5924              	.L250:
1751:Drivers/STM32F4xx_HAL_Driver/Src/stm32f4xx_ll_usb.c ****     }
1752:Drivers/STM32F4xx_HAL_Driver/Src/stm32f4xx_ll_usb.c ****   }
1753:Drivers/STM32F4xx_HAL_Driver/Src/stm32f4xx_ll_usb.c ****   else
1754:Drivers/STM32F4xx_HAL_Driver/Src/stm32f4xx_ll_usb.c ****   {
1755:Drivers/STM32F4xx_HAL_Driver/Src/stm32f4xx_ll_usb.c ****     num_packets = 1U;
 5925              		.loc 1 1755 17
 5926 00c0 0123     		movs	r3, #1
 5927 00c2 FB84     		strh	r3, [r7, #38]	@ movhi
 5928              	.L251:
1756:Drivers/STM32F4xx_HAL_Driver/Src/stm32f4xx_ll_usb.c ****   }
ARM GAS  /var/folders/vq/qt4vp3kd5rxf7v2b6_fdtdt80000gn/T//ccOb9Y7L.s 			page 135


1757:Drivers/STM32F4xx_HAL_Driver/Src/stm32f4xx_ll_usb.c **** 
1758:Drivers/STM32F4xx_HAL_Driver/Src/stm32f4xx_ll_usb.c ****   /*
1759:Drivers/STM32F4xx_HAL_Driver/Src/stm32f4xx_ll_usb.c ****    * For IN channel HCTSIZ.XferSize is expected to be an integer multiple of
1760:Drivers/STM32F4xx_HAL_Driver/Src/stm32f4xx_ll_usb.c ****    * max_packet size.
1761:Drivers/STM32F4xx_HAL_Driver/Src/stm32f4xx_ll_usb.c ****    */
1762:Drivers/STM32F4xx_HAL_Driver/Src/stm32f4xx_ll_usb.c ****   if (hc->ep_is_in != 0U)
 5929              		.loc 1 1762 9
 5930 00c4 BB68     		ldr	r3, [r7, #8]
 5931 00c6 DB78     		ldrb	r3, [r3, #3]	@ zero_extendqisi2
 5932              		.loc 1 1762 6
 5933 00c8 002B     		cmp	r3, #0
 5934 00ca 07D0     		beq	.L252
1763:Drivers/STM32F4xx_HAL_Driver/Src/stm32f4xx_ll_usb.c ****   {
1764:Drivers/STM32F4xx_HAL_Driver/Src/stm32f4xx_ll_usb.c ****     hc->XferSize = (uint32_t)num_packets * hc->max_packet;
 5935              		.loc 1 1764 20
 5936 00cc FB8C     		ldrh	r3, [r7, #38]
 5937              		.loc 1 1764 46
 5938 00ce BA68     		ldr	r2, [r7, #8]
 5939 00d0 1289     		ldrh	r2, [r2, #8]
 5940              		.loc 1 1764 42
 5941 00d2 02FB03F2 		mul	r2, r2, r3
 5942              		.loc 1 1764 18
 5943 00d6 BB68     		ldr	r3, [r7, #8]
 5944 00d8 1A61     		str	r2, [r3, #16]
 5945 00da 03E0     		b	.L253
 5946              	.L252:
1765:Drivers/STM32F4xx_HAL_Driver/Src/stm32f4xx_ll_usb.c ****   }
1766:Drivers/STM32F4xx_HAL_Driver/Src/stm32f4xx_ll_usb.c ****   else
1767:Drivers/STM32F4xx_HAL_Driver/Src/stm32f4xx_ll_usb.c ****   {
1768:Drivers/STM32F4xx_HAL_Driver/Src/stm32f4xx_ll_usb.c ****     hc->XferSize = hc->xfer_len;
 5947              		.loc 1 1768 22
 5948 00dc BB68     		ldr	r3, [r7, #8]
 5949 00de 5A69     		ldr	r2, [r3, #20]
 5950              		.loc 1 1768 18
 5951 00e0 BB68     		ldr	r3, [r7, #8]
 5952 00e2 1A61     		str	r2, [r3, #16]
 5953              	.L253:
1769:Drivers/STM32F4xx_HAL_Driver/Src/stm32f4xx_ll_usb.c ****   }
1770:Drivers/STM32F4xx_HAL_Driver/Src/stm32f4xx_ll_usb.c **** 
1771:Drivers/STM32F4xx_HAL_Driver/Src/stm32f4xx_ll_usb.c ****   /* Initialize the HCTSIZn register */
1772:Drivers/STM32F4xx_HAL_Driver/Src/stm32f4xx_ll_usb.c ****   USBx_HC(ch_num)->HCTSIZ = (hc->XferSize & USB_OTG_HCTSIZ_XFRSIZ) |
 5954              		.loc 1 1772 32
 5955 00e4 BB68     		ldr	r3, [r7, #8]
 5956 00e6 1B69     		ldr	r3, [r3, #16]
 5957              		.loc 1 1772 43
 5958 00e8 C3F31202 		ubfx	r2, r3, #0, #19
1773:Drivers/STM32F4xx_HAL_Driver/Src/stm32f4xx_ll_usb.c ****                             (((uint32_t)num_packets << 19) & USB_OTG_HCTSIZ_PKTCNT) |
 5959              		.loc 1 1773 31
 5960 00ec FB8C     		ldrh	r3, [r7, #38]
 5961              		.loc 1 1773 53
 5962 00ee D904     		lsls	r1, r3, #19
 5963              		.loc 1 1773 60
 5964 00f0 634B     		ldr	r3, .L269
 5965 00f2 0B40     		ands	r3, r3, r1
1772:Drivers/STM32F4xx_HAL_Driver/Src/stm32f4xx_ll_usb.c ****                             (((uint32_t)num_packets << 19) & USB_OTG_HCTSIZ_PKTCNT) |
 5966              		.loc 1 1772 68
 5967 00f4 1A43     		orrs	r2, r2, r3
ARM GAS  /var/folders/vq/qt4vp3kd5rxf7v2b6_fdtdt80000gn/T//ccOb9Y7L.s 			page 136


1774:Drivers/STM32F4xx_HAL_Driver/Src/stm32f4xx_ll_usb.c ****                             (((uint32_t)hc->data_pid << 29) & USB_OTG_HCTSIZ_DPID);
 5968              		.loc 1 1774 43
 5969 00f6 BB68     		ldr	r3, [r7, #8]
 5970 00f8 9B7A     		ldrb	r3, [r3, #10]	@ zero_extendqisi2
 5971              		.loc 1 1774 54
 5972 00fa 5B07     		lsls	r3, r3, #29
 5973              		.loc 1 1774 61
 5974 00fc 03F0C043 		and	r3, r3, #1610612736
1772:Drivers/STM32F4xx_HAL_Driver/Src/stm32f4xx_ll_usb.c ****                             (((uint32_t)num_packets << 19) & USB_OTG_HCTSIZ_PKTCNT) |
 5975              		.loc 1 1772 3
 5976 0100 F969     		ldr	r1, [r7, #28]
 5977 0102 4801     		lsls	r0, r1, #5
 5978 0104 396A     		ldr	r1, [r7, #32]
 5979 0106 0144     		add	r1, r1, r0
 5980 0108 01F5A061 		add	r1, r1, #1280
1773:Drivers/STM32F4xx_HAL_Driver/Src/stm32f4xx_ll_usb.c ****                             (((uint32_t)num_packets << 19) & USB_OTG_HCTSIZ_PKTCNT) |
 5981              		.loc 1 1773 85
 5982 010c 1343     		orrs	r3, r3, r2
1772:Drivers/STM32F4xx_HAL_Driver/Src/stm32f4xx_ll_usb.c ****                             (((uint32_t)num_packets << 19) & USB_OTG_HCTSIZ_PKTCNT) |
 5983              		.loc 1 1772 27
 5984 010e 0B61     		str	r3, [r1, #16]
1775:Drivers/STM32F4xx_HAL_Driver/Src/stm32f4xx_ll_usb.c **** 
1776:Drivers/STM32F4xx_HAL_Driver/Src/stm32f4xx_ll_usb.c ****   if (dma != 0U)
 5985              		.loc 1 1776 6
 5986 0110 FB79     		ldrb	r3, [r7, #7]	@ zero_extendqisi2
 5987 0112 002B     		cmp	r3, #0
 5988 0114 09D0     		beq	.L254
1777:Drivers/STM32F4xx_HAL_Driver/Src/stm32f4xx_ll_usb.c ****   {
1778:Drivers/STM32F4xx_HAL_Driver/Src/stm32f4xx_ll_usb.c ****     /* xfer_buff MUST be 32-bits aligned */
1779:Drivers/STM32F4xx_HAL_Driver/Src/stm32f4xx_ll_usb.c ****     USBx_HC(ch_num)->HCDMA = (uint32_t)hc->xfer_buff;
 5989              		.loc 1 1779 42
 5990 0116 BB68     		ldr	r3, [r7, #8]
 5991 0118 D968     		ldr	r1, [r3, #12]
 5992              		.loc 1 1779 5
 5993 011a FB69     		ldr	r3, [r7, #28]
 5994 011c 5A01     		lsls	r2, r3, #5
 5995 011e 3B6A     		ldr	r3, [r7, #32]
 5996 0120 1344     		add	r3, r3, r2
 5997 0122 03F5A063 		add	r3, r3, #1280
 5998              		.loc 1 1779 30
 5999 0126 0A46     		mov	r2, r1
 6000              		.loc 1 1779 28
 6001 0128 5A61     		str	r2, [r3, #20]
 6002              	.L254:
1780:Drivers/STM32F4xx_HAL_Driver/Src/stm32f4xx_ll_usb.c ****   }
1781:Drivers/STM32F4xx_HAL_Driver/Src/stm32f4xx_ll_usb.c **** 
1782:Drivers/STM32F4xx_HAL_Driver/Src/stm32f4xx_ll_usb.c ****   is_oddframe = (((uint32_t)USBx_HOST->HFNUM & 0x01U) != 0U) ? 0U : 1U;
 6003              		.loc 1 1782 29
 6004 012a 3B6A     		ldr	r3, [r7, #32]
 6005 012c 03F58063 		add	r3, r3, #1024
 6006              		.loc 1 1782 38
 6007 0130 9B68     		ldr	r3, [r3, #8]
 6008              		.loc 1 1782 46
 6009 0132 03F00103 		and	r3, r3, #1
 6010              		.loc 1 1782 67
 6011 0136 002B     		cmp	r3, #0
 6012 0138 0CBF     		ite	eq
ARM GAS  /var/folders/vq/qt4vp3kd5rxf7v2b6_fdtdt80000gn/T//ccOb9Y7L.s 			page 137


 6013 013a 0123     		moveq	r3, #1
 6014 013c 0023     		movne	r3, #0
 6015 013e DBB2     		uxtb	r3, r3
 6016              		.loc 1 1782 15
 6017 0140 7B76     		strb	r3, [r7, #25]
1783:Drivers/STM32F4xx_HAL_Driver/Src/stm32f4xx_ll_usb.c ****   USBx_HC(ch_num)->HCCHAR &= ~USB_OTG_HCCHAR_ODDFRM;
 6018              		.loc 1 1783 27
 6019 0142 FB69     		ldr	r3, [r7, #28]
 6020 0144 5A01     		lsls	r2, r3, #5
 6021 0146 3B6A     		ldr	r3, [r7, #32]
 6022 0148 1344     		add	r3, r3, r2
 6023 014a 03F5A063 		add	r3, r3, #1280
 6024 014e 1B68     		ldr	r3, [r3]
 6025 0150 FA69     		ldr	r2, [r7, #28]
 6026 0152 5101     		lsls	r1, r2, #5
 6027 0154 3A6A     		ldr	r2, [r7, #32]
 6028 0156 0A44     		add	r2, r2, r1
 6029 0158 02F5A062 		add	r2, r2, #1280
 6030 015c 23F00053 		bic	r3, r3, #536870912
 6031 0160 1360     		str	r3, [r2]
1784:Drivers/STM32F4xx_HAL_Driver/Src/stm32f4xx_ll_usb.c ****   USBx_HC(ch_num)->HCCHAR |= (uint32_t)is_oddframe << 29;
 6032              		.loc 1 1784 27
 6033 0162 FB69     		ldr	r3, [r7, #28]
 6034 0164 5A01     		lsls	r2, r3, #5
 6035 0166 3B6A     		ldr	r3, [r7, #32]
 6036 0168 1344     		add	r3, r3, r2
 6037 016a 03F5A063 		add	r3, r3, #1280
 6038 016e 1A68     		ldr	r2, [r3]
 6039              		.loc 1 1784 30
 6040 0170 7B7E     		ldrb	r3, [r7, #25]	@ zero_extendqisi2
 6041              		.loc 1 1784 52
 6042 0172 5B07     		lsls	r3, r3, #29
 6043              		.loc 1 1784 27
 6044 0174 F969     		ldr	r1, [r7, #28]
 6045 0176 4801     		lsls	r0, r1, #5
 6046 0178 396A     		ldr	r1, [r7, #32]
 6047 017a 0144     		add	r1, r1, r0
 6048 017c 01F5A061 		add	r1, r1, #1280
 6049 0180 1343     		orrs	r3, r3, r2
 6050 0182 0B60     		str	r3, [r1]
1785:Drivers/STM32F4xx_HAL_Driver/Src/stm32f4xx_ll_usb.c **** 
1786:Drivers/STM32F4xx_HAL_Driver/Src/stm32f4xx_ll_usb.c ****   /* Set host channel enable */
1787:Drivers/STM32F4xx_HAL_Driver/Src/stm32f4xx_ll_usb.c ****   tmpreg = USBx_HC(ch_num)->HCCHAR;
 6051              		.loc 1 1787 12
 6052 0184 FB69     		ldr	r3, [r7, #28]
 6053 0186 5A01     		lsls	r2, r3, #5
 6054 0188 3B6A     		ldr	r3, [r7, #32]
 6055 018a 1344     		add	r3, r3, r2
 6056 018c 03F5A063 		add	r3, r3, #1280
 6057              		.loc 1 1787 27
 6058 0190 1B68     		ldr	r3, [r3]
 6059              		.loc 1 1787 10
 6060 0192 3B61     		str	r3, [r7, #16]
1788:Drivers/STM32F4xx_HAL_Driver/Src/stm32f4xx_ll_usb.c ****   tmpreg &= ~USB_OTG_HCCHAR_CHDIS;
 6061              		.loc 1 1788 10
 6062 0194 3B69     		ldr	r3, [r7, #16]
 6063 0196 23F08043 		bic	r3, r3, #1073741824
ARM GAS  /var/folders/vq/qt4vp3kd5rxf7v2b6_fdtdt80000gn/T//ccOb9Y7L.s 			page 138


 6064 019a 3B61     		str	r3, [r7, #16]
1789:Drivers/STM32F4xx_HAL_Driver/Src/stm32f4xx_ll_usb.c **** 
1790:Drivers/STM32F4xx_HAL_Driver/Src/stm32f4xx_ll_usb.c ****   /* make sure to set the correct ep direction */
1791:Drivers/STM32F4xx_HAL_Driver/Src/stm32f4xx_ll_usb.c ****   if (hc->ep_is_in != 0U)
 6065              		.loc 1 1791 9
 6066 019c BB68     		ldr	r3, [r7, #8]
 6067 019e DB78     		ldrb	r3, [r3, #3]	@ zero_extendqisi2
 6068              		.loc 1 1791 6
 6069 01a0 002B     		cmp	r3, #0
 6070 01a2 04D0     		beq	.L255
1792:Drivers/STM32F4xx_HAL_Driver/Src/stm32f4xx_ll_usb.c ****   {
1793:Drivers/STM32F4xx_HAL_Driver/Src/stm32f4xx_ll_usb.c ****     tmpreg |= USB_OTG_HCCHAR_EPDIR;
 6071              		.loc 1 1793 12
 6072 01a4 3B69     		ldr	r3, [r7, #16]
 6073 01a6 43F40043 		orr	r3, r3, #32768
 6074 01aa 3B61     		str	r3, [r7, #16]
 6075 01ac 03E0     		b	.L256
 6076              	.L255:
1794:Drivers/STM32F4xx_HAL_Driver/Src/stm32f4xx_ll_usb.c ****   }
1795:Drivers/STM32F4xx_HAL_Driver/Src/stm32f4xx_ll_usb.c ****   else
1796:Drivers/STM32F4xx_HAL_Driver/Src/stm32f4xx_ll_usb.c ****   {
1797:Drivers/STM32F4xx_HAL_Driver/Src/stm32f4xx_ll_usb.c ****     tmpreg &= ~USB_OTG_HCCHAR_EPDIR;
 6077              		.loc 1 1797 12
 6078 01ae 3B69     		ldr	r3, [r7, #16]
 6079 01b0 23F40043 		bic	r3, r3, #32768
 6080 01b4 3B61     		str	r3, [r7, #16]
 6081              	.L256:
1798:Drivers/STM32F4xx_HAL_Driver/Src/stm32f4xx_ll_usb.c ****   }
1799:Drivers/STM32F4xx_HAL_Driver/Src/stm32f4xx_ll_usb.c ****   tmpreg |= USB_OTG_HCCHAR_CHENA;
 6082              		.loc 1 1799 10
 6083 01b6 3B69     		ldr	r3, [r7, #16]
 6084 01b8 43F00043 		orr	r3, r3, #-2147483648
 6085 01bc 3B61     		str	r3, [r7, #16]
1800:Drivers/STM32F4xx_HAL_Driver/Src/stm32f4xx_ll_usb.c ****   USBx_HC(ch_num)->HCCHAR = tmpreg;
 6086              		.loc 1 1800 3
 6087 01be FB69     		ldr	r3, [r7, #28]
 6088 01c0 5A01     		lsls	r2, r3, #5
 6089 01c2 3B6A     		ldr	r3, [r7, #32]
 6090 01c4 1344     		add	r3, r3, r2
 6091 01c6 03F5A063 		add	r3, r3, #1280
 6092 01ca 1A46     		mov	r2, r3
 6093              		.loc 1 1800 27
 6094 01cc 3B69     		ldr	r3, [r7, #16]
 6095 01ce 1360     		str	r3, [r2]
1801:Drivers/STM32F4xx_HAL_Driver/Src/stm32f4xx_ll_usb.c **** 
1802:Drivers/STM32F4xx_HAL_Driver/Src/stm32f4xx_ll_usb.c ****   if (dma != 0U) /* dma mode */
 6096              		.loc 1 1802 6
 6097 01d0 FB79     		ldrb	r3, [r7, #7]	@ zero_extendqisi2
 6098 01d2 002B     		cmp	r3, #0
 6099 01d4 01D0     		beq	.L257
1803:Drivers/STM32F4xx_HAL_Driver/Src/stm32f4xx_ll_usb.c ****   {
1804:Drivers/STM32F4xx_HAL_Driver/Src/stm32f4xx_ll_usb.c ****     return HAL_OK;
 6100              		.loc 1 1804 12
 6101 01d6 0023     		movs	r3, #0
 6102 01d8 4EE0     		b	.L249
 6103              	.L257:
1805:Drivers/STM32F4xx_HAL_Driver/Src/stm32f4xx_ll_usb.c ****   }
ARM GAS  /var/folders/vq/qt4vp3kd5rxf7v2b6_fdtdt80000gn/T//ccOb9Y7L.s 			page 139


1806:Drivers/STM32F4xx_HAL_Driver/Src/stm32f4xx_ll_usb.c **** 
1807:Drivers/STM32F4xx_HAL_Driver/Src/stm32f4xx_ll_usb.c ****   if ((hc->ep_is_in == 0U) && (hc->xfer_len > 0U))
 6104              		.loc 1 1807 10
 6105 01da BB68     		ldr	r3, [r7, #8]
 6106 01dc DB78     		ldrb	r3, [r3, #3]	@ zero_extendqisi2
 6107              		.loc 1 1807 6
 6108 01de 002B     		cmp	r3, #0
 6109 01e0 49D1     		bne	.L258
 6110              		.loc 1 1807 34 discriminator 1
 6111 01e2 BB68     		ldr	r3, [r7, #8]
 6112 01e4 5B69     		ldr	r3, [r3, #20]
 6113              		.loc 1 1807 28 discriminator 1
 6114 01e6 002B     		cmp	r3, #0
 6115 01e8 45D0     		beq	.L258
1808:Drivers/STM32F4xx_HAL_Driver/Src/stm32f4xx_ll_usb.c ****   {
1809:Drivers/STM32F4xx_HAL_Driver/Src/stm32f4xx_ll_usb.c ****     switch (hc->ep_type)
 6116              		.loc 1 1809 15
 6117 01ea BB68     		ldr	r3, [r7, #8]
 6118 01ec DB79     		ldrb	r3, [r3, #7]	@ zero_extendqisi2
 6119 01ee 032B     		cmp	r3, #3
 6120 01f0 30D8     		bhi	.L266
 6121 01f2 01A2     		adr	r2, .L261
 6122 01f4 52F823F0 		ldr	pc, [r2, r3, lsl #2]
 6123              		.p2align 2
 6124              	.L261:
 6125 01f8 09020000 		.word	.L262+1
 6126 01fc 2D020000 		.word	.L260+1
 6127 0200 09020000 		.word	.L262+1
 6128 0204 2D020000 		.word	.L260+1
 6129              		.p2align 1
 6130              	.L262:
1810:Drivers/STM32F4xx_HAL_Driver/Src/stm32f4xx_ll_usb.c ****     {
1811:Drivers/STM32F4xx_HAL_Driver/Src/stm32f4xx_ll_usb.c ****       /* Non periodic transfer */
1812:Drivers/STM32F4xx_HAL_Driver/Src/stm32f4xx_ll_usb.c ****       case EP_TYPE_CTRL:
1813:Drivers/STM32F4xx_HAL_Driver/Src/stm32f4xx_ll_usb.c ****       case EP_TYPE_BULK:
1814:Drivers/STM32F4xx_HAL_Driver/Src/stm32f4xx_ll_usb.c **** 
1815:Drivers/STM32F4xx_HAL_Driver/Src/stm32f4xx_ll_usb.c ****         len_words = (uint16_t)((hc->xfer_len + 3U) / 4U);
 6131              		.loc 1 1815 35
 6132 0208 BB68     		ldr	r3, [r7, #8]
 6133 020a 5B69     		ldr	r3, [r3, #20]
 6134              		.loc 1 1815 46
 6135 020c 0333     		adds	r3, r3, #3
 6136              		.loc 1 1815 52
 6137 020e 9B08     		lsrs	r3, r3, #2
 6138              		.loc 1 1815 19
 6139 0210 FB82     		strh	r3, [r7, #22]	@ movhi
1816:Drivers/STM32F4xx_HAL_Driver/Src/stm32f4xx_ll_usb.c **** 
1817:Drivers/STM32F4xx_HAL_Driver/Src/stm32f4xx_ll_usb.c ****         /* check if there is enough space in FIFO space */
1818:Drivers/STM32F4xx_HAL_Driver/Src/stm32f4xx_ll_usb.c ****         if (len_words > (USBx->HNPTXSTS & 0xFFFFU))
 6140              		.loc 1 1818 23
 6141 0212 FA8A     		ldrh	r2, [r7, #22]
 6142              		.loc 1 1818 30
 6143 0214 FB68     		ldr	r3, [r7, #12]
 6144 0216 DB6A     		ldr	r3, [r3, #44]
 6145              		.loc 1 1818 41
 6146 0218 9BB2     		uxth	r3, r3
 6147              		.loc 1 1818 12
ARM GAS  /var/folders/vq/qt4vp3kd5rxf7v2b6_fdtdt80000gn/T//ccOb9Y7L.s 			page 140


 6148 021a 9A42     		cmp	r2, r3
 6149 021c 1CD9     		bls	.L267
1819:Drivers/STM32F4xx_HAL_Driver/Src/stm32f4xx_ll_usb.c ****         {
1820:Drivers/STM32F4xx_HAL_Driver/Src/stm32f4xx_ll_usb.c ****           /* need to process data in nptxfempty interrupt */
1821:Drivers/STM32F4xx_HAL_Driver/Src/stm32f4xx_ll_usb.c ****           USBx->GINTMSK |= USB_OTG_GINTMSK_NPTXFEM;
 6150              		.loc 1 1821 25
 6151 021e FB68     		ldr	r3, [r7, #12]
 6152 0220 9B69     		ldr	r3, [r3, #24]
 6153 0222 43F02002 		orr	r2, r3, #32
 6154 0226 FB68     		ldr	r3, [r7, #12]
 6155 0228 9A61     		str	r2, [r3, #24]
1822:Drivers/STM32F4xx_HAL_Driver/Src/stm32f4xx_ll_usb.c ****         }
1823:Drivers/STM32F4xx_HAL_Driver/Src/stm32f4xx_ll_usb.c ****         break;
 6156              		.loc 1 1823 9
 6157 022a 15E0     		b	.L267
 6158              	.L260:
1824:Drivers/STM32F4xx_HAL_Driver/Src/stm32f4xx_ll_usb.c **** 
1825:Drivers/STM32F4xx_HAL_Driver/Src/stm32f4xx_ll_usb.c ****       /* Periodic transfer */
1826:Drivers/STM32F4xx_HAL_Driver/Src/stm32f4xx_ll_usb.c ****       case EP_TYPE_INTR:
1827:Drivers/STM32F4xx_HAL_Driver/Src/stm32f4xx_ll_usb.c ****       case EP_TYPE_ISOC:
1828:Drivers/STM32F4xx_HAL_Driver/Src/stm32f4xx_ll_usb.c ****         len_words = (uint16_t)((hc->xfer_len + 3U) / 4U);
 6159              		.loc 1 1828 35
 6160 022c BB68     		ldr	r3, [r7, #8]
 6161 022e 5B69     		ldr	r3, [r3, #20]
 6162              		.loc 1 1828 46
 6163 0230 0333     		adds	r3, r3, #3
 6164              		.loc 1 1828 52
 6165 0232 9B08     		lsrs	r3, r3, #2
 6166              		.loc 1 1828 19
 6167 0234 FB82     		strh	r3, [r7, #22]	@ movhi
1829:Drivers/STM32F4xx_HAL_Driver/Src/stm32f4xx_ll_usb.c ****         /* check if there is enough space in FIFO space */
1830:Drivers/STM32F4xx_HAL_Driver/Src/stm32f4xx_ll_usb.c ****         if (len_words > (USBx_HOST->HPTXSTS & 0xFFFFU)) /* split the transfer */
 6168              		.loc 1 1830 23
 6169 0236 FA8A     		ldrh	r2, [r7, #22]
 6170              		.loc 1 1830 26
 6171 0238 3B6A     		ldr	r3, [r7, #32]
 6172 023a 03F58063 		add	r3, r3, #1024
 6173              		.loc 1 1830 35
 6174 023e 1B69     		ldr	r3, [r3, #16]
 6175              		.loc 1 1830 45
 6176 0240 9BB2     		uxth	r3, r3
 6177              		.loc 1 1830 12
 6178 0242 9A42     		cmp	r2, r3
 6179 0244 0AD9     		bls	.L268
1831:Drivers/STM32F4xx_HAL_Driver/Src/stm32f4xx_ll_usb.c ****         {
1832:Drivers/STM32F4xx_HAL_Driver/Src/stm32f4xx_ll_usb.c ****           /* need to process data in ptxfempty interrupt */
1833:Drivers/STM32F4xx_HAL_Driver/Src/stm32f4xx_ll_usb.c ****           USBx->GINTMSK |= USB_OTG_GINTMSK_PTXFEM;
 6180              		.loc 1 1833 25
 6181 0246 FB68     		ldr	r3, [r7, #12]
 6182 0248 9B69     		ldr	r3, [r3, #24]
 6183 024a 43F08062 		orr	r2, r3, #67108864
 6184 024e FB68     		ldr	r3, [r7, #12]
 6185 0250 9A61     		str	r2, [r3, #24]
1834:Drivers/STM32F4xx_HAL_Driver/Src/stm32f4xx_ll_usb.c ****         }
1835:Drivers/STM32F4xx_HAL_Driver/Src/stm32f4xx_ll_usb.c ****         break;
 6186              		.loc 1 1835 9
 6187 0252 03E0     		b	.L268
ARM GAS  /var/folders/vq/qt4vp3kd5rxf7v2b6_fdtdt80000gn/T//ccOb9Y7L.s 			page 141


 6188              	.L266:
1836:Drivers/STM32F4xx_HAL_Driver/Src/stm32f4xx_ll_usb.c **** 
1837:Drivers/STM32F4xx_HAL_Driver/Src/stm32f4xx_ll_usb.c ****       default:
1838:Drivers/STM32F4xx_HAL_Driver/Src/stm32f4xx_ll_usb.c ****         break;
 6189              		.loc 1 1838 9
 6190 0254 00BF     		nop
 6191 0256 02E0     		b	.L264
 6192              	.L267:
1823:Drivers/STM32F4xx_HAL_Driver/Src/stm32f4xx_ll_usb.c **** 
 6193              		.loc 1 1823 9
 6194 0258 00BF     		nop
 6195 025a 00E0     		b	.L264
 6196              	.L268:
1835:Drivers/STM32F4xx_HAL_Driver/Src/stm32f4xx_ll_usb.c **** 
 6197              		.loc 1 1835 9
 6198 025c 00BF     		nop
 6199              	.L264:
1839:Drivers/STM32F4xx_HAL_Driver/Src/stm32f4xx_ll_usb.c ****     }
1840:Drivers/STM32F4xx_HAL_Driver/Src/stm32f4xx_ll_usb.c **** 
1841:Drivers/STM32F4xx_HAL_Driver/Src/stm32f4xx_ll_usb.c ****     /* Write packet into the Tx FIFO. */
1842:Drivers/STM32F4xx_HAL_Driver/Src/stm32f4xx_ll_usb.c ****     (void)USB_WritePacket(USBx, hc->xfer_buff, hc->ch_num, (uint16_t)hc->xfer_len, 0);
 6200              		.loc 1 1842 11
 6201 025e BB68     		ldr	r3, [r7, #8]
 6202 0260 D968     		ldr	r1, [r3, #12]
 6203 0262 BB68     		ldr	r3, [r7, #8]
 6204 0264 5A78     		ldrb	r2, [r3, #1]	@ zero_extendqisi2
 6205              		.loc 1 1842 72
 6206 0266 BB68     		ldr	r3, [r7, #8]
 6207 0268 5B69     		ldr	r3, [r3, #20]
 6208              		.loc 1 1842 11
 6209 026a 9BB2     		uxth	r3, r3
 6210 026c 0020     		movs	r0, #0
 6211 026e 0090     		str	r0, [sp]
 6212 0270 F868     		ldr	r0, [r7, #12]
 6213 0272 FFF7FEFF 		bl	USB_WritePacket
 6214              	.L258:
1843:Drivers/STM32F4xx_HAL_Driver/Src/stm32f4xx_ll_usb.c ****   }
1844:Drivers/STM32F4xx_HAL_Driver/Src/stm32f4xx_ll_usb.c **** 
1845:Drivers/STM32F4xx_HAL_Driver/Src/stm32f4xx_ll_usb.c ****   return HAL_OK;
 6215              		.loc 1 1845 10
 6216 0276 0023     		movs	r3, #0
 6217              	.L249:
1846:Drivers/STM32F4xx_HAL_Driver/Src/stm32f4xx_ll_usb.c **** }
 6218              		.loc 1 1846 1
 6219 0278 1846     		mov	r0, r3
 6220 027a 2837     		adds	r7, r7, #40
 6221              	.LCFI250:
 6222              		.cfi_def_cfa_offset 8
 6223 027c BD46     		mov	sp, r7
 6224              	.LCFI251:
 6225              		.cfi_def_cfa_register 13
 6226              		@ sp needed
 6227 027e 80BD     		pop	{r7, pc}
 6228              	.L270:
 6229              		.align	2
 6230              	.L269:
 6231 0280 0000F81F 		.word	536346624
ARM GAS  /var/folders/vq/qt4vp3kd5rxf7v2b6_fdtdt80000gn/T//ccOb9Y7L.s 			page 142


 6232              		.cfi_endproc
 6233              	.LFE171:
 6235              		.section	.text.USB_HC_ReadInterrupt,"ax",%progbits
 6236              		.align	1
 6237              		.global	USB_HC_ReadInterrupt
 6238              		.syntax unified
 6239              		.thumb
 6240              		.thumb_func
 6241              		.fpu fpv4-sp-d16
 6243              	USB_HC_ReadInterrupt:
 6244              	.LFB172:
1847:Drivers/STM32F4xx_HAL_Driver/Src/stm32f4xx_ll_usb.c **** 
1848:Drivers/STM32F4xx_HAL_Driver/Src/stm32f4xx_ll_usb.c **** /**
1849:Drivers/STM32F4xx_HAL_Driver/Src/stm32f4xx_ll_usb.c ****   * @brief Read all host channel interrupts status
1850:Drivers/STM32F4xx_HAL_Driver/Src/stm32f4xx_ll_usb.c ****   * @param  USBx  Selected device
1851:Drivers/STM32F4xx_HAL_Driver/Src/stm32f4xx_ll_usb.c ****   * @retval HAL state
1852:Drivers/STM32F4xx_HAL_Driver/Src/stm32f4xx_ll_usb.c ****   */
1853:Drivers/STM32F4xx_HAL_Driver/Src/stm32f4xx_ll_usb.c **** uint32_t USB_HC_ReadInterrupt(USB_OTG_GlobalTypeDef *USBx)
1854:Drivers/STM32F4xx_HAL_Driver/Src/stm32f4xx_ll_usb.c **** {
 6245              		.loc 1 1854 1
 6246              		.cfi_startproc
 6247              		@ args = 0, pretend = 0, frame = 16
 6248              		@ frame_needed = 1, uses_anonymous_args = 0
 6249              		@ link register save eliminated.
 6250 0000 80B4     		push	{r7}
 6251              	.LCFI252:
 6252              		.cfi_def_cfa_offset 4
 6253              		.cfi_offset 7, -4
 6254 0002 85B0     		sub	sp, sp, #20
 6255              	.LCFI253:
 6256              		.cfi_def_cfa_offset 24
 6257 0004 00AF     		add	r7, sp, #0
 6258              	.LCFI254:
 6259              		.cfi_def_cfa_register 7
 6260 0006 7860     		str	r0, [r7, #4]
1855:Drivers/STM32F4xx_HAL_Driver/Src/stm32f4xx_ll_usb.c ****   uint32_t USBx_BASE = (uint32_t)USBx;
 6261              		.loc 1 1855 12
 6262 0008 7B68     		ldr	r3, [r7, #4]
 6263 000a FB60     		str	r3, [r7, #12]
1856:Drivers/STM32F4xx_HAL_Driver/Src/stm32f4xx_ll_usb.c **** 
1857:Drivers/STM32F4xx_HAL_Driver/Src/stm32f4xx_ll_usb.c ****   return ((USBx_HOST->HAINT) & 0xFFFFU);
 6264              		.loc 1 1857 12
 6265 000c FB68     		ldr	r3, [r7, #12]
 6266 000e 03F58063 		add	r3, r3, #1024
 6267              		.loc 1 1857 21
 6268 0012 5B69     		ldr	r3, [r3, #20]
 6269              		.loc 1 1857 30
 6270 0014 9BB2     		uxth	r3, r3
1858:Drivers/STM32F4xx_HAL_Driver/Src/stm32f4xx_ll_usb.c **** }
 6271              		.loc 1 1858 1
 6272 0016 1846     		mov	r0, r3
 6273 0018 1437     		adds	r7, r7, #20
 6274              	.LCFI255:
 6275              		.cfi_def_cfa_offset 4
 6276 001a BD46     		mov	sp, r7
 6277              	.LCFI256:
 6278              		.cfi_def_cfa_register 13
ARM GAS  /var/folders/vq/qt4vp3kd5rxf7v2b6_fdtdt80000gn/T//ccOb9Y7L.s 			page 143


 6279              		@ sp needed
 6280 001c 5DF8047B 		ldr	r7, [sp], #4
 6281              	.LCFI257:
 6282              		.cfi_restore 7
 6283              		.cfi_def_cfa_offset 0
 6284 0020 7047     		bx	lr
 6285              		.cfi_endproc
 6286              	.LFE172:
 6288              		.section	.text.USB_HC_Halt,"ax",%progbits
 6289              		.align	1
 6290              		.global	USB_HC_Halt
 6291              		.syntax unified
 6292              		.thumb
 6293              		.thumb_func
 6294              		.fpu fpv4-sp-d16
 6296              	USB_HC_Halt:
 6297              	.LFB173:
1859:Drivers/STM32F4xx_HAL_Driver/Src/stm32f4xx_ll_usb.c **** 
1860:Drivers/STM32F4xx_HAL_Driver/Src/stm32f4xx_ll_usb.c **** /**
1861:Drivers/STM32F4xx_HAL_Driver/Src/stm32f4xx_ll_usb.c ****   * @brief  Halt a host channel
1862:Drivers/STM32F4xx_HAL_Driver/Src/stm32f4xx_ll_usb.c ****   * @param  USBx  Selected device
1863:Drivers/STM32F4xx_HAL_Driver/Src/stm32f4xx_ll_usb.c ****   * @param  hc_num  Host Channel number
1864:Drivers/STM32F4xx_HAL_Driver/Src/stm32f4xx_ll_usb.c ****   *         This parameter can be a value from 1 to 15
1865:Drivers/STM32F4xx_HAL_Driver/Src/stm32f4xx_ll_usb.c ****   * @retval HAL state
1866:Drivers/STM32F4xx_HAL_Driver/Src/stm32f4xx_ll_usb.c ****   */
1867:Drivers/STM32F4xx_HAL_Driver/Src/stm32f4xx_ll_usb.c **** HAL_StatusTypeDef USB_HC_Halt(USB_OTG_GlobalTypeDef *USBx, uint8_t hc_num)
1868:Drivers/STM32F4xx_HAL_Driver/Src/stm32f4xx_ll_usb.c **** {
 6298              		.loc 1 1868 1
 6299              		.cfi_startproc
 6300              		@ args = 0, pretend = 0, frame = 32
 6301              		@ frame_needed = 1, uses_anonymous_args = 0
 6302              		@ link register save eliminated.
 6303 0000 80B4     		push	{r7}
 6304              	.LCFI258:
 6305              		.cfi_def_cfa_offset 4
 6306              		.cfi_offset 7, -4
 6307 0002 89B0     		sub	sp, sp, #36
 6308              	.LCFI259:
 6309              		.cfi_def_cfa_offset 40
 6310 0004 00AF     		add	r7, sp, #0
 6311              	.LCFI260:
 6312              		.cfi_def_cfa_register 7
 6313 0006 7860     		str	r0, [r7, #4]
 6314 0008 0B46     		mov	r3, r1
 6315 000a FB70     		strb	r3, [r7, #3]
1869:Drivers/STM32F4xx_HAL_Driver/Src/stm32f4xx_ll_usb.c ****   uint32_t USBx_BASE = (uint32_t)USBx;
 6316              		.loc 1 1869 12
 6317 000c 7B68     		ldr	r3, [r7, #4]
 6318 000e BB61     		str	r3, [r7, #24]
1870:Drivers/STM32F4xx_HAL_Driver/Src/stm32f4xx_ll_usb.c ****   uint32_t hcnum = (uint32_t)hc_num;
 6319              		.loc 1 1870 12
 6320 0010 FB78     		ldrb	r3, [r7, #3]	@ zero_extendqisi2
 6321 0012 7B61     		str	r3, [r7, #20]
1871:Drivers/STM32F4xx_HAL_Driver/Src/stm32f4xx_ll_usb.c ****   uint32_t count = 0U;
 6322              		.loc 1 1871 12
 6323 0014 0023     		movs	r3, #0
 6324 0016 FB61     		str	r3, [r7, #28]
ARM GAS  /var/folders/vq/qt4vp3kd5rxf7v2b6_fdtdt80000gn/T//ccOb9Y7L.s 			page 144


1872:Drivers/STM32F4xx_HAL_Driver/Src/stm32f4xx_ll_usb.c ****   uint32_t HcEpType = (USBx_HC(hcnum)->HCCHAR & USB_OTG_HCCHAR_EPTYP) >> 18;
 6325              		.loc 1 1872 24
 6326 0018 7B69     		ldr	r3, [r7, #20]
 6327 001a 5A01     		lsls	r2, r3, #5
 6328 001c BB69     		ldr	r3, [r7, #24]
 6329 001e 1344     		add	r3, r3, r2
 6330 0020 03F5A063 		add	r3, r3, #1280
 6331              		.loc 1 1872 38
 6332 0024 1B68     		ldr	r3, [r3]
 6333              		.loc 1 1872 71
 6334 0026 9B0C     		lsrs	r3, r3, #18
 6335              		.loc 1 1872 12
 6336 0028 03F00303 		and	r3, r3, #3
 6337 002c 3B61     		str	r3, [r7, #16]
1873:Drivers/STM32F4xx_HAL_Driver/Src/stm32f4xx_ll_usb.c ****   uint32_t ChannelEna = (USBx_HC(hcnum)->HCCHAR & USB_OTG_HCCHAR_CHENA) >> 31;
 6338              		.loc 1 1873 26
 6339 002e 7B69     		ldr	r3, [r7, #20]
 6340 0030 5A01     		lsls	r2, r3, #5
 6341 0032 BB69     		ldr	r3, [r7, #24]
 6342 0034 1344     		add	r3, r3, r2
 6343 0036 03F5A063 		add	r3, r3, #1280
 6344              		.loc 1 1873 40
 6345 003a 1B68     		ldr	r3, [r3]
 6346              		.loc 1 1873 73
 6347 003c DB0F     		lsrs	r3, r3, #31
 6348              		.loc 1 1873 12
 6349 003e 03F00103 		and	r3, r3, #1
 6350 0042 FB60     		str	r3, [r7, #12]
1874:Drivers/STM32F4xx_HAL_Driver/Src/stm32f4xx_ll_usb.c **** 
1875:Drivers/STM32F4xx_HAL_Driver/Src/stm32f4xx_ll_usb.c ****   if (((USBx->GAHBCFG & USB_OTG_GAHBCFG_DMAEN) == USB_OTG_GAHBCFG_DMAEN) &&
 6351              		.loc 1 1875 13
 6352 0044 7B68     		ldr	r3, [r7, #4]
 6353 0046 9B68     		ldr	r3, [r3, #8]
 6354              		.loc 1 1875 23
 6355 0048 03F02003 		and	r3, r3, #32
 6356              		.loc 1 1875 6
 6357 004c 202B     		cmp	r3, #32
 6358 004e 04D1     		bne	.L274
 6359              		.loc 1 1875 74 discriminator 1
 6360 0050 FB68     		ldr	r3, [r7, #12]
 6361 0052 002B     		cmp	r3, #0
 6362 0054 01D1     		bne	.L274
1876:Drivers/STM32F4xx_HAL_Driver/Src/stm32f4xx_ll_usb.c ****       (ChannelEna == 0U))
1877:Drivers/STM32F4xx_HAL_Driver/Src/stm32f4xx_ll_usb.c ****   {
1878:Drivers/STM32F4xx_HAL_Driver/Src/stm32f4xx_ll_usb.c ****     return HAL_OK;
 6363              		.loc 1 1878 12
 6364 0056 0023     		movs	r3, #0
 6365 0058 E8E0     		b	.L275
 6366              	.L274:
1879:Drivers/STM32F4xx_HAL_Driver/Src/stm32f4xx_ll_usb.c ****   }
1880:Drivers/STM32F4xx_HAL_Driver/Src/stm32f4xx_ll_usb.c **** 
1881:Drivers/STM32F4xx_HAL_Driver/Src/stm32f4xx_ll_usb.c ****   /* Check for space in the request queue to issue the halt. */
1882:Drivers/STM32F4xx_HAL_Driver/Src/stm32f4xx_ll_usb.c ****   if ((HcEpType == HCCHAR_CTRL) || (HcEpType == HCCHAR_BULK))
 6367              		.loc 1 1882 6
 6368 005a 3B69     		ldr	r3, [r7, #16]
 6369 005c 002B     		cmp	r3, #0
 6370 005e 02D0     		beq	.L276
ARM GAS  /var/folders/vq/qt4vp3kd5rxf7v2b6_fdtdt80000gn/T//ccOb9Y7L.s 			page 145


 6371              		.loc 1 1882 33 discriminator 1
 6372 0060 3B69     		ldr	r3, [r7, #16]
 6373 0062 022B     		cmp	r3, #2
 6374 0064 73D1     		bne	.L277
 6375              	.L276:
1883:Drivers/STM32F4xx_HAL_Driver/Src/stm32f4xx_ll_usb.c ****   {
1884:Drivers/STM32F4xx_HAL_Driver/Src/stm32f4xx_ll_usb.c ****     USBx_HC(hcnum)->HCCHAR |= USB_OTG_HCCHAR_CHDIS;
 6376              		.loc 1 1884 28
 6377 0066 7B69     		ldr	r3, [r7, #20]
 6378 0068 5A01     		lsls	r2, r3, #5
 6379 006a BB69     		ldr	r3, [r7, #24]
 6380 006c 1344     		add	r3, r3, r2
 6381 006e 03F5A063 		add	r3, r3, #1280
 6382 0072 1B68     		ldr	r3, [r3]
 6383 0074 7A69     		ldr	r2, [r7, #20]
 6384 0076 5101     		lsls	r1, r2, #5
 6385 0078 BA69     		ldr	r2, [r7, #24]
 6386 007a 0A44     		add	r2, r2, r1
 6387 007c 02F5A062 		add	r2, r2, #1280
 6388 0080 43F08043 		orr	r3, r3, #1073741824
 6389 0084 1360     		str	r3, [r2]
1885:Drivers/STM32F4xx_HAL_Driver/Src/stm32f4xx_ll_usb.c **** 
1886:Drivers/STM32F4xx_HAL_Driver/Src/stm32f4xx_ll_usb.c ****     if ((USBx->GAHBCFG & USB_OTG_GAHBCFG_DMAEN) == 0U)
 6390              		.loc 1 1886 14
 6391 0086 7B68     		ldr	r3, [r7, #4]
 6392 0088 9B68     		ldr	r3, [r3, #8]
 6393              		.loc 1 1886 24
 6394 008a 03F02003 		and	r3, r3, #32
 6395              		.loc 1 1886 8
 6396 008e 002B     		cmp	r3, #0
 6397 0090 40F0CB80 		bne	.L283
1887:Drivers/STM32F4xx_HAL_Driver/Src/stm32f4xx_ll_usb.c ****     {
1888:Drivers/STM32F4xx_HAL_Driver/Src/stm32f4xx_ll_usb.c ****       if ((USBx->HNPTXSTS & (0xFFU << 16)) == 0U)
 6398              		.loc 1 1888 16
 6399 0094 7B68     		ldr	r3, [r7, #4]
 6400 0096 DB6A     		ldr	r3, [r3, #44]
 6401              		.loc 1 1888 27
 6402 0098 03F47F03 		and	r3, r3, #16711680
 6403              		.loc 1 1888 10
 6404 009c 002B     		cmp	r3, #0
 6405 009e 43D1     		bne	.L279
1889:Drivers/STM32F4xx_HAL_Driver/Src/stm32f4xx_ll_usb.c ****       {
1890:Drivers/STM32F4xx_HAL_Driver/Src/stm32f4xx_ll_usb.c ****         USBx_HC(hcnum)->HCCHAR &= ~USB_OTG_HCCHAR_CHENA;
 6406              		.loc 1 1890 32
 6407 00a0 7B69     		ldr	r3, [r7, #20]
 6408 00a2 5A01     		lsls	r2, r3, #5
 6409 00a4 BB69     		ldr	r3, [r7, #24]
 6410 00a6 1344     		add	r3, r3, r2
 6411 00a8 03F5A063 		add	r3, r3, #1280
 6412 00ac 1B68     		ldr	r3, [r3]
 6413 00ae 7A69     		ldr	r2, [r7, #20]
 6414 00b0 5101     		lsls	r1, r2, #5
 6415 00b2 BA69     		ldr	r2, [r7, #24]
 6416 00b4 0A44     		add	r2, r2, r1
 6417 00b6 02F5A062 		add	r2, r2, #1280
 6418 00ba 23F00043 		bic	r3, r3, #-2147483648
 6419 00be 1360     		str	r3, [r2]
ARM GAS  /var/folders/vq/qt4vp3kd5rxf7v2b6_fdtdt80000gn/T//ccOb9Y7L.s 			page 146


1891:Drivers/STM32F4xx_HAL_Driver/Src/stm32f4xx_ll_usb.c ****         USBx_HC(hcnum)->HCCHAR |= USB_OTG_HCCHAR_CHENA;
 6420              		.loc 1 1891 32
 6421 00c0 7B69     		ldr	r3, [r7, #20]
 6422 00c2 5A01     		lsls	r2, r3, #5
 6423 00c4 BB69     		ldr	r3, [r7, #24]
 6424 00c6 1344     		add	r3, r3, r2
 6425 00c8 03F5A063 		add	r3, r3, #1280
 6426 00cc 1B68     		ldr	r3, [r3]
 6427 00ce 7A69     		ldr	r2, [r7, #20]
 6428 00d0 5101     		lsls	r1, r2, #5
 6429 00d2 BA69     		ldr	r2, [r7, #24]
 6430 00d4 0A44     		add	r2, r2, r1
 6431 00d6 02F5A062 		add	r2, r2, #1280
 6432 00da 43F00043 		orr	r3, r3, #-2147483648
 6433 00de 1360     		str	r3, [r2]
1892:Drivers/STM32F4xx_HAL_Driver/Src/stm32f4xx_ll_usb.c ****         USBx_HC(hcnum)->HCCHAR &= ~USB_OTG_HCCHAR_EPDIR;
 6434              		.loc 1 1892 32
 6435 00e0 7B69     		ldr	r3, [r7, #20]
 6436 00e2 5A01     		lsls	r2, r3, #5
 6437 00e4 BB69     		ldr	r3, [r7, #24]
 6438 00e6 1344     		add	r3, r3, r2
 6439 00e8 03F5A063 		add	r3, r3, #1280
 6440 00ec 1B68     		ldr	r3, [r3]
 6441 00ee 7A69     		ldr	r2, [r7, #20]
 6442 00f0 5101     		lsls	r1, r2, #5
 6443 00f2 BA69     		ldr	r2, [r7, #24]
 6444 00f4 0A44     		add	r2, r2, r1
 6445 00f6 02F5A062 		add	r2, r2, #1280
 6446 00fa 23F40043 		bic	r3, r3, #32768
 6447 00fe 1360     		str	r3, [r2]
 6448              	.L282:
1893:Drivers/STM32F4xx_HAL_Driver/Src/stm32f4xx_ll_usb.c ****         do
1894:Drivers/STM32F4xx_HAL_Driver/Src/stm32f4xx_ll_usb.c ****         {
1895:Drivers/STM32F4xx_HAL_Driver/Src/stm32f4xx_ll_usb.c ****           if (++count > 1000U)
 6449              		.loc 1 1895 14
 6450 0100 FB69     		ldr	r3, [r7, #28]
 6451 0102 0133     		adds	r3, r3, #1
 6452 0104 FB61     		str	r3, [r7, #28]
 6453 0106 FB69     		ldr	r3, [r7, #28]
 6454 0108 B3F57A7F 		cmp	r3, #1000
 6455 010c 1DD8     		bhi	.L289
1896:Drivers/STM32F4xx_HAL_Driver/Src/stm32f4xx_ll_usb.c ****           {
1897:Drivers/STM32F4xx_HAL_Driver/Src/stm32f4xx_ll_usb.c ****             break;
1898:Drivers/STM32F4xx_HAL_Driver/Src/stm32f4xx_ll_usb.c ****           }
1899:Drivers/STM32F4xx_HAL_Driver/Src/stm32f4xx_ll_usb.c ****         } while ((USBx_HC(hcnum)->HCCHAR & USB_OTG_HCCHAR_CHENA) == USB_OTG_HCCHAR_CHENA);
 6456              		.loc 1 1899 19
 6457 010e 7B69     		ldr	r3, [r7, #20]
 6458 0110 5A01     		lsls	r2, r3, #5
 6459 0112 BB69     		ldr	r3, [r7, #24]
 6460 0114 1344     		add	r3, r3, r2
 6461 0116 03F5A063 		add	r3, r3, #1280
 6462              		.loc 1 1899 33
 6463 011a 1B68     		ldr	r3, [r3]
 6464              		.loc 1 1899 42
 6465 011c 03F00043 		and	r3, r3, #-2147483648
 6466              		.loc 1 1899 9
 6467 0120 B3F1004F 		cmp	r3, #-2147483648
ARM GAS  /var/folders/vq/qt4vp3kd5rxf7v2b6_fdtdt80000gn/T//ccOb9Y7L.s 			page 147


 6468 0124 ECD0     		beq	.L282
1886:Drivers/STM32F4xx_HAL_Driver/Src/stm32f4xx_ll_usb.c ****     {
 6469              		.loc 1 1886 8
 6470 0126 80E0     		b	.L283
 6471              	.L279:
1900:Drivers/STM32F4xx_HAL_Driver/Src/stm32f4xx_ll_usb.c ****       }
1901:Drivers/STM32F4xx_HAL_Driver/Src/stm32f4xx_ll_usb.c ****       else
1902:Drivers/STM32F4xx_HAL_Driver/Src/stm32f4xx_ll_usb.c ****       {
1903:Drivers/STM32F4xx_HAL_Driver/Src/stm32f4xx_ll_usb.c ****         USBx_HC(hcnum)->HCCHAR |= USB_OTG_HCCHAR_CHENA;
 6472              		.loc 1 1903 32
 6473 0128 7B69     		ldr	r3, [r7, #20]
 6474 012a 5A01     		lsls	r2, r3, #5
 6475 012c BB69     		ldr	r3, [r7, #24]
 6476 012e 1344     		add	r3, r3, r2
 6477 0130 03F5A063 		add	r3, r3, #1280
 6478 0134 1B68     		ldr	r3, [r3]
 6479 0136 7A69     		ldr	r2, [r7, #20]
 6480 0138 5101     		lsls	r1, r2, #5
 6481 013a BA69     		ldr	r2, [r7, #24]
 6482 013c 0A44     		add	r2, r2, r1
 6483 013e 02F5A062 		add	r2, r2, #1280
 6484 0142 43F00043 		orr	r3, r3, #-2147483648
 6485 0146 1360     		str	r3, [r2]
1886:Drivers/STM32F4xx_HAL_Driver/Src/stm32f4xx_ll_usb.c ****     {
 6486              		.loc 1 1886 8
 6487 0148 6FE0     		b	.L283
 6488              	.L289:
1897:Drivers/STM32F4xx_HAL_Driver/Src/stm32f4xx_ll_usb.c ****           }
 6489              		.loc 1 1897 13
 6490 014a 00BF     		nop
1886:Drivers/STM32F4xx_HAL_Driver/Src/stm32f4xx_ll_usb.c ****     {
 6491              		.loc 1 1886 8
 6492 014c 6DE0     		b	.L283
 6493              	.L277:
1904:Drivers/STM32F4xx_HAL_Driver/Src/stm32f4xx_ll_usb.c ****       }
1905:Drivers/STM32F4xx_HAL_Driver/Src/stm32f4xx_ll_usb.c ****     }
1906:Drivers/STM32F4xx_HAL_Driver/Src/stm32f4xx_ll_usb.c ****   }
1907:Drivers/STM32F4xx_HAL_Driver/Src/stm32f4xx_ll_usb.c ****   else
1908:Drivers/STM32F4xx_HAL_Driver/Src/stm32f4xx_ll_usb.c ****   {
1909:Drivers/STM32F4xx_HAL_Driver/Src/stm32f4xx_ll_usb.c ****     USBx_HC(hcnum)->HCCHAR |= USB_OTG_HCCHAR_CHDIS;
 6494              		.loc 1 1909 28
 6495 014e 7B69     		ldr	r3, [r7, #20]
 6496 0150 5A01     		lsls	r2, r3, #5
 6497 0152 BB69     		ldr	r3, [r7, #24]
 6498 0154 1344     		add	r3, r3, r2
 6499 0156 03F5A063 		add	r3, r3, #1280
 6500 015a 1B68     		ldr	r3, [r3]
 6501 015c 7A69     		ldr	r2, [r7, #20]
 6502 015e 5101     		lsls	r1, r2, #5
 6503 0160 BA69     		ldr	r2, [r7, #24]
 6504 0162 0A44     		add	r2, r2, r1
 6505 0164 02F5A062 		add	r2, r2, #1280
 6506 0168 43F08043 		orr	r3, r3, #1073741824
 6507 016c 1360     		str	r3, [r2]
1910:Drivers/STM32F4xx_HAL_Driver/Src/stm32f4xx_ll_usb.c **** 
1911:Drivers/STM32F4xx_HAL_Driver/Src/stm32f4xx_ll_usb.c ****     if ((USBx_HOST->HPTXSTS & (0xFFU << 16)) == 0U)
 6508              		.loc 1 1911 10
ARM GAS  /var/folders/vq/qt4vp3kd5rxf7v2b6_fdtdt80000gn/T//ccOb9Y7L.s 			page 148


 6509 016e BB69     		ldr	r3, [r7, #24]
 6510 0170 03F58063 		add	r3, r3, #1024
 6511              		.loc 1 1911 19
 6512 0174 1B69     		ldr	r3, [r3, #16]
 6513              		.loc 1 1911 29
 6514 0176 03F47F03 		and	r3, r3, #16711680
 6515              		.loc 1 1911 8
 6516 017a 002B     		cmp	r3, #0
 6517 017c 43D1     		bne	.L284
1912:Drivers/STM32F4xx_HAL_Driver/Src/stm32f4xx_ll_usb.c ****     {
1913:Drivers/STM32F4xx_HAL_Driver/Src/stm32f4xx_ll_usb.c ****       USBx_HC(hcnum)->HCCHAR &= ~USB_OTG_HCCHAR_CHENA;
 6518              		.loc 1 1913 30
 6519 017e 7B69     		ldr	r3, [r7, #20]
 6520 0180 5A01     		lsls	r2, r3, #5
 6521 0182 BB69     		ldr	r3, [r7, #24]
 6522 0184 1344     		add	r3, r3, r2
 6523 0186 03F5A063 		add	r3, r3, #1280
 6524 018a 1B68     		ldr	r3, [r3]
 6525 018c 7A69     		ldr	r2, [r7, #20]
 6526 018e 5101     		lsls	r1, r2, #5
 6527 0190 BA69     		ldr	r2, [r7, #24]
 6528 0192 0A44     		add	r2, r2, r1
 6529 0194 02F5A062 		add	r2, r2, #1280
 6530 0198 23F00043 		bic	r3, r3, #-2147483648
 6531 019c 1360     		str	r3, [r2]
1914:Drivers/STM32F4xx_HAL_Driver/Src/stm32f4xx_ll_usb.c ****       USBx_HC(hcnum)->HCCHAR |= USB_OTG_HCCHAR_CHENA;
 6532              		.loc 1 1914 30
 6533 019e 7B69     		ldr	r3, [r7, #20]
 6534 01a0 5A01     		lsls	r2, r3, #5
 6535 01a2 BB69     		ldr	r3, [r7, #24]
 6536 01a4 1344     		add	r3, r3, r2
 6537 01a6 03F5A063 		add	r3, r3, #1280
 6538 01aa 1B68     		ldr	r3, [r3]
 6539 01ac 7A69     		ldr	r2, [r7, #20]
 6540 01ae 5101     		lsls	r1, r2, #5
 6541 01b0 BA69     		ldr	r2, [r7, #24]
 6542 01b2 0A44     		add	r2, r2, r1
 6543 01b4 02F5A062 		add	r2, r2, #1280
 6544 01b8 43F00043 		orr	r3, r3, #-2147483648
 6545 01bc 1360     		str	r3, [r2]
1915:Drivers/STM32F4xx_HAL_Driver/Src/stm32f4xx_ll_usb.c ****       USBx_HC(hcnum)->HCCHAR &= ~USB_OTG_HCCHAR_EPDIR;
 6546              		.loc 1 1915 30
 6547 01be 7B69     		ldr	r3, [r7, #20]
 6548 01c0 5A01     		lsls	r2, r3, #5
 6549 01c2 BB69     		ldr	r3, [r7, #24]
 6550 01c4 1344     		add	r3, r3, r2
 6551 01c6 03F5A063 		add	r3, r3, #1280
 6552 01ca 1B68     		ldr	r3, [r3]
 6553 01cc 7A69     		ldr	r2, [r7, #20]
 6554 01ce 5101     		lsls	r1, r2, #5
 6555 01d0 BA69     		ldr	r2, [r7, #24]
 6556 01d2 0A44     		add	r2, r2, r1
 6557 01d4 02F5A062 		add	r2, r2, #1280
 6558 01d8 23F40043 		bic	r3, r3, #32768
 6559 01dc 1360     		str	r3, [r2]
 6560              	.L287:
1916:Drivers/STM32F4xx_HAL_Driver/Src/stm32f4xx_ll_usb.c ****       do
ARM GAS  /var/folders/vq/qt4vp3kd5rxf7v2b6_fdtdt80000gn/T//ccOb9Y7L.s 			page 149


1917:Drivers/STM32F4xx_HAL_Driver/Src/stm32f4xx_ll_usb.c ****       {
1918:Drivers/STM32F4xx_HAL_Driver/Src/stm32f4xx_ll_usb.c ****         if (++count > 1000U)
 6561              		.loc 1 1918 12
 6562 01de FB69     		ldr	r3, [r7, #28]
 6563 01e0 0133     		adds	r3, r3, #1
 6564 01e2 FB61     		str	r3, [r7, #28]
 6565 01e4 FB69     		ldr	r3, [r7, #28]
 6566 01e6 B3F57A7F 		cmp	r3, #1000
 6567 01ea 1DD8     		bhi	.L290
1919:Drivers/STM32F4xx_HAL_Driver/Src/stm32f4xx_ll_usb.c ****         {
1920:Drivers/STM32F4xx_HAL_Driver/Src/stm32f4xx_ll_usb.c ****           break;
1921:Drivers/STM32F4xx_HAL_Driver/Src/stm32f4xx_ll_usb.c ****         }
1922:Drivers/STM32F4xx_HAL_Driver/Src/stm32f4xx_ll_usb.c ****       } while ((USBx_HC(hcnum)->HCCHAR & USB_OTG_HCCHAR_CHENA) == USB_OTG_HCCHAR_CHENA);
 6568              		.loc 1 1922 17
 6569 01ec 7B69     		ldr	r3, [r7, #20]
 6570 01ee 5A01     		lsls	r2, r3, #5
 6571 01f0 BB69     		ldr	r3, [r7, #24]
 6572 01f2 1344     		add	r3, r3, r2
 6573 01f4 03F5A063 		add	r3, r3, #1280
 6574              		.loc 1 1922 31
 6575 01f8 1B68     		ldr	r3, [r3]
 6576              		.loc 1 1922 40
 6577 01fa 03F00043 		and	r3, r3, #-2147483648
 6578              		.loc 1 1922 7
 6579 01fe B3F1004F 		cmp	r3, #-2147483648
 6580 0202 ECD0     		beq	.L287
 6581 0204 11E0     		b	.L283
 6582              	.L284:
1923:Drivers/STM32F4xx_HAL_Driver/Src/stm32f4xx_ll_usb.c ****     }
1924:Drivers/STM32F4xx_HAL_Driver/Src/stm32f4xx_ll_usb.c ****     else
1925:Drivers/STM32F4xx_HAL_Driver/Src/stm32f4xx_ll_usb.c ****     {
1926:Drivers/STM32F4xx_HAL_Driver/Src/stm32f4xx_ll_usb.c ****       USBx_HC(hcnum)->HCCHAR |= USB_OTG_HCCHAR_CHENA;
 6583              		.loc 1 1926 30
 6584 0206 7B69     		ldr	r3, [r7, #20]
 6585 0208 5A01     		lsls	r2, r3, #5
 6586 020a BB69     		ldr	r3, [r7, #24]
 6587 020c 1344     		add	r3, r3, r2
 6588 020e 03F5A063 		add	r3, r3, #1280
 6589 0212 1B68     		ldr	r3, [r3]
 6590 0214 7A69     		ldr	r2, [r7, #20]
 6591 0216 5101     		lsls	r1, r2, #5
 6592 0218 BA69     		ldr	r2, [r7, #24]
 6593 021a 0A44     		add	r2, r2, r1
 6594 021c 02F5A062 		add	r2, r2, #1280
 6595 0220 43F00043 		orr	r3, r3, #-2147483648
 6596 0224 1360     		str	r3, [r2]
 6597 0226 00E0     		b	.L283
 6598              	.L290:
1920:Drivers/STM32F4xx_HAL_Driver/Src/stm32f4xx_ll_usb.c ****         }
 6599              		.loc 1 1920 11
 6600 0228 00BF     		nop
 6601              	.L283:
1927:Drivers/STM32F4xx_HAL_Driver/Src/stm32f4xx_ll_usb.c ****     }
1928:Drivers/STM32F4xx_HAL_Driver/Src/stm32f4xx_ll_usb.c ****   }
1929:Drivers/STM32F4xx_HAL_Driver/Src/stm32f4xx_ll_usb.c **** 
1930:Drivers/STM32F4xx_HAL_Driver/Src/stm32f4xx_ll_usb.c ****   return HAL_OK;
 6602              		.loc 1 1930 10
ARM GAS  /var/folders/vq/qt4vp3kd5rxf7v2b6_fdtdt80000gn/T//ccOb9Y7L.s 			page 150


 6603 022a 0023     		movs	r3, #0
 6604              	.L275:
1931:Drivers/STM32F4xx_HAL_Driver/Src/stm32f4xx_ll_usb.c **** }
 6605              		.loc 1 1931 1
 6606 022c 1846     		mov	r0, r3
 6607 022e 2437     		adds	r7, r7, #36
 6608              	.LCFI261:
 6609              		.cfi_def_cfa_offset 4
 6610 0230 BD46     		mov	sp, r7
 6611              	.LCFI262:
 6612              		.cfi_def_cfa_register 13
 6613              		@ sp needed
 6614 0232 5DF8047B 		ldr	r7, [sp], #4
 6615              	.LCFI263:
 6616              		.cfi_restore 7
 6617              		.cfi_def_cfa_offset 0
 6618 0236 7047     		bx	lr
 6619              		.cfi_endproc
 6620              	.LFE173:
 6622              		.section	.text.USB_DoPing,"ax",%progbits
 6623              		.align	1
 6624              		.global	USB_DoPing
 6625              		.syntax unified
 6626              		.thumb
 6627              		.thumb_func
 6628              		.fpu fpv4-sp-d16
 6630              	USB_DoPing:
 6631              	.LFB174:
1932:Drivers/STM32F4xx_HAL_Driver/Src/stm32f4xx_ll_usb.c **** 
1933:Drivers/STM32F4xx_HAL_Driver/Src/stm32f4xx_ll_usb.c **** /**
1934:Drivers/STM32F4xx_HAL_Driver/Src/stm32f4xx_ll_usb.c ****   * @brief  Initiate Do Ping protocol
1935:Drivers/STM32F4xx_HAL_Driver/Src/stm32f4xx_ll_usb.c ****   * @param  USBx  Selected device
1936:Drivers/STM32F4xx_HAL_Driver/Src/stm32f4xx_ll_usb.c ****   * @param  hc_num  Host Channel number
1937:Drivers/STM32F4xx_HAL_Driver/Src/stm32f4xx_ll_usb.c ****   *         This parameter can be a value from 1 to 15
1938:Drivers/STM32F4xx_HAL_Driver/Src/stm32f4xx_ll_usb.c ****   * @retval HAL state
1939:Drivers/STM32F4xx_HAL_Driver/Src/stm32f4xx_ll_usb.c ****   */
1940:Drivers/STM32F4xx_HAL_Driver/Src/stm32f4xx_ll_usb.c **** HAL_StatusTypeDef USB_DoPing(USB_OTG_GlobalTypeDef *USBx, uint8_t ch_num)
1941:Drivers/STM32F4xx_HAL_Driver/Src/stm32f4xx_ll_usb.c **** {
 6632              		.loc 1 1941 1
 6633              		.cfi_startproc
 6634              		@ args = 0, pretend = 0, frame = 24
 6635              		@ frame_needed = 1, uses_anonymous_args = 0
 6636              		@ link register save eliminated.
 6637 0000 80B4     		push	{r7}
 6638              	.LCFI264:
 6639              		.cfi_def_cfa_offset 4
 6640              		.cfi_offset 7, -4
 6641 0002 87B0     		sub	sp, sp, #28
 6642              	.LCFI265:
 6643              		.cfi_def_cfa_offset 32
 6644 0004 00AF     		add	r7, sp, #0
 6645              	.LCFI266:
 6646              		.cfi_def_cfa_register 7
 6647 0006 7860     		str	r0, [r7, #4]
 6648 0008 0B46     		mov	r3, r1
 6649 000a FB70     		strb	r3, [r7, #3]
1942:Drivers/STM32F4xx_HAL_Driver/Src/stm32f4xx_ll_usb.c ****   uint32_t USBx_BASE = (uint32_t)USBx;
ARM GAS  /var/folders/vq/qt4vp3kd5rxf7v2b6_fdtdt80000gn/T//ccOb9Y7L.s 			page 151


 6650              		.loc 1 1942 12
 6651 000c 7B68     		ldr	r3, [r7, #4]
 6652 000e 7B61     		str	r3, [r7, #20]
1943:Drivers/STM32F4xx_HAL_Driver/Src/stm32f4xx_ll_usb.c ****   uint32_t chnum = (uint32_t)ch_num;
 6653              		.loc 1 1943 12
 6654 0010 FB78     		ldrb	r3, [r7, #3]	@ zero_extendqisi2
 6655 0012 3B61     		str	r3, [r7, #16]
1944:Drivers/STM32F4xx_HAL_Driver/Src/stm32f4xx_ll_usb.c ****   uint32_t num_packets = 1U;
 6656              		.loc 1 1944 12
 6657 0014 0123     		movs	r3, #1
 6658 0016 FB60     		str	r3, [r7, #12]
1945:Drivers/STM32F4xx_HAL_Driver/Src/stm32f4xx_ll_usb.c ****   uint32_t tmpreg;
1946:Drivers/STM32F4xx_HAL_Driver/Src/stm32f4xx_ll_usb.c **** 
1947:Drivers/STM32F4xx_HAL_Driver/Src/stm32f4xx_ll_usb.c ****   USBx_HC(chnum)->HCTSIZ = ((num_packets << 19) & USB_OTG_HCTSIZ_PKTCNT) |
 6659              		.loc 1 1947 42
 6660 0018 FB68     		ldr	r3, [r7, #12]
 6661 001a DA04     		lsls	r2, r3, #19
 6662              		.loc 1 1947 49
 6663 001c 154B     		ldr	r3, .L293
 6664 001e 1340     		ands	r3, r3, r2
 6665              		.loc 1 1947 3
 6666 0020 3A69     		ldr	r2, [r7, #16]
 6667 0022 5101     		lsls	r1, r2, #5
 6668 0024 7A69     		ldr	r2, [r7, #20]
 6669 0026 0A44     		add	r2, r2, r1
 6670 0028 02F5A062 		add	r2, r2, #1280
 6671              		.loc 1 1947 74
 6672 002c 43F00043 		orr	r3, r3, #-2147483648
 6673              		.loc 1 1947 26
 6674 0030 1361     		str	r3, [r2, #16]
1948:Drivers/STM32F4xx_HAL_Driver/Src/stm32f4xx_ll_usb.c ****                            USB_OTG_HCTSIZ_DOPING;
1949:Drivers/STM32F4xx_HAL_Driver/Src/stm32f4xx_ll_usb.c **** 
1950:Drivers/STM32F4xx_HAL_Driver/Src/stm32f4xx_ll_usb.c ****   /* Set host channel enable */
1951:Drivers/STM32F4xx_HAL_Driver/Src/stm32f4xx_ll_usb.c ****   tmpreg = USBx_HC(chnum)->HCCHAR;
 6675              		.loc 1 1951 12
 6676 0032 3B69     		ldr	r3, [r7, #16]
 6677 0034 5A01     		lsls	r2, r3, #5
 6678 0036 7B69     		ldr	r3, [r7, #20]
 6679 0038 1344     		add	r3, r3, r2
 6680 003a 03F5A063 		add	r3, r3, #1280
 6681              		.loc 1 1951 10
 6682 003e 1B68     		ldr	r3, [r3]
 6683 0040 BB60     		str	r3, [r7, #8]
1952:Drivers/STM32F4xx_HAL_Driver/Src/stm32f4xx_ll_usb.c ****   tmpreg &= ~USB_OTG_HCCHAR_CHDIS;
 6684              		.loc 1 1952 10
 6685 0042 BB68     		ldr	r3, [r7, #8]
 6686 0044 23F08043 		bic	r3, r3, #1073741824
 6687 0048 BB60     		str	r3, [r7, #8]
1953:Drivers/STM32F4xx_HAL_Driver/Src/stm32f4xx_ll_usb.c ****   tmpreg |= USB_OTG_HCCHAR_CHENA;
 6688              		.loc 1 1953 10
 6689 004a BB68     		ldr	r3, [r7, #8]
 6690 004c 43F00043 		orr	r3, r3, #-2147483648
 6691 0050 BB60     		str	r3, [r7, #8]
1954:Drivers/STM32F4xx_HAL_Driver/Src/stm32f4xx_ll_usb.c ****   USBx_HC(chnum)->HCCHAR = tmpreg;
 6692              		.loc 1 1954 3
 6693 0052 3B69     		ldr	r3, [r7, #16]
 6694 0054 5A01     		lsls	r2, r3, #5
ARM GAS  /var/folders/vq/qt4vp3kd5rxf7v2b6_fdtdt80000gn/T//ccOb9Y7L.s 			page 152


 6695 0056 7B69     		ldr	r3, [r7, #20]
 6696 0058 1344     		add	r3, r3, r2
 6697 005a 03F5A063 		add	r3, r3, #1280
 6698 005e 1A46     		mov	r2, r3
 6699              		.loc 1 1954 26
 6700 0060 BB68     		ldr	r3, [r7, #8]
 6701 0062 1360     		str	r3, [r2]
1955:Drivers/STM32F4xx_HAL_Driver/Src/stm32f4xx_ll_usb.c **** 
1956:Drivers/STM32F4xx_HAL_Driver/Src/stm32f4xx_ll_usb.c ****   return HAL_OK;
 6702              		.loc 1 1956 10
 6703 0064 0023     		movs	r3, #0
1957:Drivers/STM32F4xx_HAL_Driver/Src/stm32f4xx_ll_usb.c **** }
 6704              		.loc 1 1957 1
 6705 0066 1846     		mov	r0, r3
 6706 0068 1C37     		adds	r7, r7, #28
 6707              	.LCFI267:
 6708              		.cfi_def_cfa_offset 4
 6709 006a BD46     		mov	sp, r7
 6710              	.LCFI268:
 6711              		.cfi_def_cfa_register 13
 6712              		@ sp needed
 6713 006c 5DF8047B 		ldr	r7, [sp], #4
 6714              	.LCFI269:
 6715              		.cfi_restore 7
 6716              		.cfi_def_cfa_offset 0
 6717 0070 7047     		bx	lr
 6718              	.L294:
 6719 0072 00BF     		.align	2
 6720              	.L293:
 6721 0074 0000F81F 		.word	536346624
 6722              		.cfi_endproc
 6723              	.LFE174:
 6725              		.section	.text.USB_StopHost,"ax",%progbits
 6726              		.align	1
 6727              		.global	USB_StopHost
 6728              		.syntax unified
 6729              		.thumb
 6730              		.thumb_func
 6731              		.fpu fpv4-sp-d16
 6733              	USB_StopHost:
 6734              	.LFB175:
1958:Drivers/STM32F4xx_HAL_Driver/Src/stm32f4xx_ll_usb.c **** 
1959:Drivers/STM32F4xx_HAL_Driver/Src/stm32f4xx_ll_usb.c **** /**
1960:Drivers/STM32F4xx_HAL_Driver/Src/stm32f4xx_ll_usb.c ****   * @brief  Stop Host Core
1961:Drivers/STM32F4xx_HAL_Driver/Src/stm32f4xx_ll_usb.c ****   * @param  USBx  Selected device
1962:Drivers/STM32F4xx_HAL_Driver/Src/stm32f4xx_ll_usb.c ****   * @retval HAL state
1963:Drivers/STM32F4xx_HAL_Driver/Src/stm32f4xx_ll_usb.c ****   */
1964:Drivers/STM32F4xx_HAL_Driver/Src/stm32f4xx_ll_usb.c **** HAL_StatusTypeDef USB_StopHost(USB_OTG_GlobalTypeDef *USBx)
1965:Drivers/STM32F4xx_HAL_Driver/Src/stm32f4xx_ll_usb.c **** {
 6735              		.loc 1 1965 1
 6736              		.cfi_startproc
 6737              		@ args = 0, pretend = 0, frame = 24
 6738              		@ frame_needed = 1, uses_anonymous_args = 0
 6739 0000 80B5     		push	{r7, lr}
 6740              	.LCFI270:
 6741              		.cfi_def_cfa_offset 8
 6742              		.cfi_offset 7, -8
ARM GAS  /var/folders/vq/qt4vp3kd5rxf7v2b6_fdtdt80000gn/T//ccOb9Y7L.s 			page 153


 6743              		.cfi_offset 14, -4
 6744 0002 86B0     		sub	sp, sp, #24
 6745              	.LCFI271:
 6746              		.cfi_def_cfa_offset 32
 6747 0004 00AF     		add	r7, sp, #0
 6748              	.LCFI272:
 6749              		.cfi_def_cfa_register 7
 6750 0006 7860     		str	r0, [r7, #4]
1966:Drivers/STM32F4xx_HAL_Driver/Src/stm32f4xx_ll_usb.c ****   uint32_t USBx_BASE = (uint32_t)USBx;
 6751              		.loc 1 1966 12
 6752 0008 7B68     		ldr	r3, [r7, #4]
 6753 000a FB60     		str	r3, [r7, #12]
1967:Drivers/STM32F4xx_HAL_Driver/Src/stm32f4xx_ll_usb.c ****   uint32_t count = 0U;
 6754              		.loc 1 1967 12
 6755 000c 0023     		movs	r3, #0
 6756 000e 7B61     		str	r3, [r7, #20]
1968:Drivers/STM32F4xx_HAL_Driver/Src/stm32f4xx_ll_usb.c ****   uint32_t value;
1969:Drivers/STM32F4xx_HAL_Driver/Src/stm32f4xx_ll_usb.c ****   uint32_t i;
1970:Drivers/STM32F4xx_HAL_Driver/Src/stm32f4xx_ll_usb.c **** 
1971:Drivers/STM32F4xx_HAL_Driver/Src/stm32f4xx_ll_usb.c ****   (void)USB_DisableGlobalInt(USBx);
 6757              		.loc 1 1971 9
 6758 0010 7868     		ldr	r0, [r7, #4]
 6759 0012 FFF7FEFF 		bl	USB_DisableGlobalInt
1972:Drivers/STM32F4xx_HAL_Driver/Src/stm32f4xx_ll_usb.c **** 
1973:Drivers/STM32F4xx_HAL_Driver/Src/stm32f4xx_ll_usb.c ****   /* Flush FIFO */
1974:Drivers/STM32F4xx_HAL_Driver/Src/stm32f4xx_ll_usb.c ****   (void)USB_FlushTxFifo(USBx, 0x10U);
 6760              		.loc 1 1974 9
 6761 0016 1021     		movs	r1, #16
 6762 0018 7868     		ldr	r0, [r7, #4]
 6763 001a FFF7FEFF 		bl	USB_FlushTxFifo
1975:Drivers/STM32F4xx_HAL_Driver/Src/stm32f4xx_ll_usb.c ****   (void)USB_FlushRxFifo(USBx);
 6764              		.loc 1 1975 9
 6765 001e 7868     		ldr	r0, [r7, #4]
 6766 0020 FFF7FEFF 		bl	USB_FlushRxFifo
1976:Drivers/STM32F4xx_HAL_Driver/Src/stm32f4xx_ll_usb.c **** 
1977:Drivers/STM32F4xx_HAL_Driver/Src/stm32f4xx_ll_usb.c ****   /* Flush out any leftover queued requests. */
1978:Drivers/STM32F4xx_HAL_Driver/Src/stm32f4xx_ll_usb.c ****   for (i = 0U; i <= 15U; i++)
 6767              		.loc 1 1978 10
 6768 0024 0023     		movs	r3, #0
 6769 0026 3B61     		str	r3, [r7, #16]
 6770              		.loc 1 1978 3
 6771 0028 1FE0     		b	.L296
 6772              	.L297:
1979:Drivers/STM32F4xx_HAL_Driver/Src/stm32f4xx_ll_usb.c ****   {
1980:Drivers/STM32F4xx_HAL_Driver/Src/stm32f4xx_ll_usb.c ****     value = USBx_HC(i)->HCCHAR;
 6773              		.loc 1 1980 13 discriminator 3
 6774 002a 3B69     		ldr	r3, [r7, #16]
 6775 002c 5A01     		lsls	r2, r3, #5
 6776 002e FB68     		ldr	r3, [r7, #12]
 6777 0030 1344     		add	r3, r3, r2
 6778 0032 03F5A063 		add	r3, r3, #1280
 6779              		.loc 1 1980 11 discriminator 3
 6780 0036 1B68     		ldr	r3, [r3]
 6781 0038 BB60     		str	r3, [r7, #8]
1981:Drivers/STM32F4xx_HAL_Driver/Src/stm32f4xx_ll_usb.c ****     value |=  USB_OTG_HCCHAR_CHDIS;
 6782              		.loc 1 1981 11 discriminator 3
 6783 003a BB68     		ldr	r3, [r7, #8]
ARM GAS  /var/folders/vq/qt4vp3kd5rxf7v2b6_fdtdt80000gn/T//ccOb9Y7L.s 			page 154


 6784 003c 43F08043 		orr	r3, r3, #1073741824
 6785 0040 BB60     		str	r3, [r7, #8]
1982:Drivers/STM32F4xx_HAL_Driver/Src/stm32f4xx_ll_usb.c ****     value &= ~USB_OTG_HCCHAR_CHENA;
 6786              		.loc 1 1982 11 discriminator 3
 6787 0042 BB68     		ldr	r3, [r7, #8]
 6788 0044 23F00043 		bic	r3, r3, #-2147483648
 6789 0048 BB60     		str	r3, [r7, #8]
1983:Drivers/STM32F4xx_HAL_Driver/Src/stm32f4xx_ll_usb.c ****     value &= ~USB_OTG_HCCHAR_EPDIR;
 6790              		.loc 1 1983 11 discriminator 3
 6791 004a BB68     		ldr	r3, [r7, #8]
 6792 004c 23F40043 		bic	r3, r3, #32768
 6793 0050 BB60     		str	r3, [r7, #8]
1984:Drivers/STM32F4xx_HAL_Driver/Src/stm32f4xx_ll_usb.c ****     USBx_HC(i)->HCCHAR = value;
 6794              		.loc 1 1984 5 discriminator 3
 6795 0052 3B69     		ldr	r3, [r7, #16]
 6796 0054 5A01     		lsls	r2, r3, #5
 6797 0056 FB68     		ldr	r3, [r7, #12]
 6798 0058 1344     		add	r3, r3, r2
 6799 005a 03F5A063 		add	r3, r3, #1280
 6800 005e 1A46     		mov	r2, r3
 6801              		.loc 1 1984 24 discriminator 3
 6802 0060 BB68     		ldr	r3, [r7, #8]
 6803 0062 1360     		str	r3, [r2]
1978:Drivers/STM32F4xx_HAL_Driver/Src/stm32f4xx_ll_usb.c ****   {
 6804              		.loc 1 1978 27 discriminator 3
 6805 0064 3B69     		ldr	r3, [r7, #16]
 6806 0066 0133     		adds	r3, r3, #1
 6807 0068 3B61     		str	r3, [r7, #16]
 6808              	.L296:
1978:Drivers/STM32F4xx_HAL_Driver/Src/stm32f4xx_ll_usb.c ****   {
 6809              		.loc 1 1978 3 discriminator 1
 6810 006a 3B69     		ldr	r3, [r7, #16]
 6811 006c 0F2B     		cmp	r3, #15
 6812 006e DCD9     		bls	.L297
1985:Drivers/STM32F4xx_HAL_Driver/Src/stm32f4xx_ll_usb.c ****   }
1986:Drivers/STM32F4xx_HAL_Driver/Src/stm32f4xx_ll_usb.c **** 
1987:Drivers/STM32F4xx_HAL_Driver/Src/stm32f4xx_ll_usb.c ****   /* Halt all channels to put them into a known state. */
1988:Drivers/STM32F4xx_HAL_Driver/Src/stm32f4xx_ll_usb.c ****   for (i = 0U; i <= 15U; i++)
 6813              		.loc 1 1988 10
 6814 0070 0023     		movs	r3, #0
 6815 0072 3B61     		str	r3, [r7, #16]
 6816              		.loc 1 1988 3
 6817 0074 34E0     		b	.L298
 6818              	.L302:
1989:Drivers/STM32F4xx_HAL_Driver/Src/stm32f4xx_ll_usb.c ****   {
1990:Drivers/STM32F4xx_HAL_Driver/Src/stm32f4xx_ll_usb.c ****     value = USBx_HC(i)->HCCHAR;
 6819              		.loc 1 1990 13
 6820 0076 3B69     		ldr	r3, [r7, #16]
 6821 0078 5A01     		lsls	r2, r3, #5
 6822 007a FB68     		ldr	r3, [r7, #12]
 6823 007c 1344     		add	r3, r3, r2
 6824 007e 03F5A063 		add	r3, r3, #1280
 6825              		.loc 1 1990 11
 6826 0082 1B68     		ldr	r3, [r3]
 6827 0084 BB60     		str	r3, [r7, #8]
1991:Drivers/STM32F4xx_HAL_Driver/Src/stm32f4xx_ll_usb.c ****     value |= USB_OTG_HCCHAR_CHDIS;
 6828              		.loc 1 1991 11
ARM GAS  /var/folders/vq/qt4vp3kd5rxf7v2b6_fdtdt80000gn/T//ccOb9Y7L.s 			page 155


 6829 0086 BB68     		ldr	r3, [r7, #8]
 6830 0088 43F08043 		orr	r3, r3, #1073741824
 6831 008c BB60     		str	r3, [r7, #8]
1992:Drivers/STM32F4xx_HAL_Driver/Src/stm32f4xx_ll_usb.c ****     value |= USB_OTG_HCCHAR_CHENA;
 6832              		.loc 1 1992 11
 6833 008e BB68     		ldr	r3, [r7, #8]
 6834 0090 43F00043 		orr	r3, r3, #-2147483648
 6835 0094 BB60     		str	r3, [r7, #8]
1993:Drivers/STM32F4xx_HAL_Driver/Src/stm32f4xx_ll_usb.c ****     value &= ~USB_OTG_HCCHAR_EPDIR;
 6836              		.loc 1 1993 11
 6837 0096 BB68     		ldr	r3, [r7, #8]
 6838 0098 23F40043 		bic	r3, r3, #32768
 6839 009c BB60     		str	r3, [r7, #8]
1994:Drivers/STM32F4xx_HAL_Driver/Src/stm32f4xx_ll_usb.c ****     USBx_HC(i)->HCCHAR = value;
 6840              		.loc 1 1994 5
 6841 009e 3B69     		ldr	r3, [r7, #16]
 6842 00a0 5A01     		lsls	r2, r3, #5
 6843 00a2 FB68     		ldr	r3, [r7, #12]
 6844 00a4 1344     		add	r3, r3, r2
 6845 00a6 03F5A063 		add	r3, r3, #1280
 6846 00aa 1A46     		mov	r2, r3
 6847              		.loc 1 1994 24
 6848 00ac BB68     		ldr	r3, [r7, #8]
 6849 00ae 1360     		str	r3, [r2]
 6850              	.L301:
1995:Drivers/STM32F4xx_HAL_Driver/Src/stm32f4xx_ll_usb.c **** 
1996:Drivers/STM32F4xx_HAL_Driver/Src/stm32f4xx_ll_usb.c ****     do
1997:Drivers/STM32F4xx_HAL_Driver/Src/stm32f4xx_ll_usb.c ****     {
1998:Drivers/STM32F4xx_HAL_Driver/Src/stm32f4xx_ll_usb.c ****       if (++count > 1000U)
 6851              		.loc 1 1998 10
 6852 00b0 7B69     		ldr	r3, [r7, #20]
 6853 00b2 0133     		adds	r3, r3, #1
 6854 00b4 7B61     		str	r3, [r7, #20]
 6855 00b6 7B69     		ldr	r3, [r7, #20]
 6856 00b8 B3F57A7F 		cmp	r3, #1000
 6857 00bc 0CD8     		bhi	.L304
1999:Drivers/STM32F4xx_HAL_Driver/Src/stm32f4xx_ll_usb.c ****       {
2000:Drivers/STM32F4xx_HAL_Driver/Src/stm32f4xx_ll_usb.c ****         break;
2001:Drivers/STM32F4xx_HAL_Driver/Src/stm32f4xx_ll_usb.c ****       }
2002:Drivers/STM32F4xx_HAL_Driver/Src/stm32f4xx_ll_usb.c ****     } while ((USBx_HC(i)->HCCHAR & USB_OTG_HCCHAR_CHENA) == USB_OTG_HCCHAR_CHENA);
 6858              		.loc 1 2002 15
 6859 00be 3B69     		ldr	r3, [r7, #16]
 6860 00c0 5A01     		lsls	r2, r3, #5
 6861 00c2 FB68     		ldr	r3, [r7, #12]
 6862 00c4 1344     		add	r3, r3, r2
 6863 00c6 03F5A063 		add	r3, r3, #1280
 6864              		.loc 1 2002 25
 6865 00ca 1B68     		ldr	r3, [r3]
 6866              		.loc 1 2002 34
 6867 00cc 03F00043 		and	r3, r3, #-2147483648
 6868              		.loc 1 2002 5
 6869 00d0 B3F1004F 		cmp	r3, #-2147483648
 6870 00d4 ECD0     		beq	.L301
 6871 00d6 00E0     		b	.L300
 6872              	.L304:
2000:Drivers/STM32F4xx_HAL_Driver/Src/stm32f4xx_ll_usb.c ****       }
 6873              		.loc 1 2000 9
ARM GAS  /var/folders/vq/qt4vp3kd5rxf7v2b6_fdtdt80000gn/T//ccOb9Y7L.s 			page 156


 6874 00d8 00BF     		nop
 6875              	.L300:
1988:Drivers/STM32F4xx_HAL_Driver/Src/stm32f4xx_ll_usb.c ****   {
 6876              		.loc 1 1988 27 discriminator 2
 6877 00da 3B69     		ldr	r3, [r7, #16]
 6878 00dc 0133     		adds	r3, r3, #1
 6879 00de 3B61     		str	r3, [r7, #16]
 6880              	.L298:
1988:Drivers/STM32F4xx_HAL_Driver/Src/stm32f4xx_ll_usb.c ****   {
 6881              		.loc 1 1988 3 discriminator 1
 6882 00e0 3B69     		ldr	r3, [r7, #16]
 6883 00e2 0F2B     		cmp	r3, #15
 6884 00e4 C7D9     		bls	.L302
2003:Drivers/STM32F4xx_HAL_Driver/Src/stm32f4xx_ll_usb.c ****   }
2004:Drivers/STM32F4xx_HAL_Driver/Src/stm32f4xx_ll_usb.c **** 
2005:Drivers/STM32F4xx_HAL_Driver/Src/stm32f4xx_ll_usb.c ****   /* Clear any pending Host interrupts */
2006:Drivers/STM32F4xx_HAL_Driver/Src/stm32f4xx_ll_usb.c ****   USBx_HOST->HAINT = 0xFFFFFFFFU;
 6885              		.loc 1 2006 3
 6886 00e6 FB68     		ldr	r3, [r7, #12]
 6887 00e8 03F58063 		add	r3, r3, #1024
 6888 00ec 1A46     		mov	r2, r3
 6889              		.loc 1 2006 20
 6890 00ee 4FF0FF33 		mov	r3, #-1
 6891 00f2 5361     		str	r3, [r2, #20]
2007:Drivers/STM32F4xx_HAL_Driver/Src/stm32f4xx_ll_usb.c ****   USBx->GINTSTS = 0xFFFFFFFFU;
 6892              		.loc 1 2007 17
 6893 00f4 7B68     		ldr	r3, [r7, #4]
 6894 00f6 4FF0FF32 		mov	r2, #-1
 6895 00fa 5A61     		str	r2, [r3, #20]
2008:Drivers/STM32F4xx_HAL_Driver/Src/stm32f4xx_ll_usb.c **** 
2009:Drivers/STM32F4xx_HAL_Driver/Src/stm32f4xx_ll_usb.c ****   (void)USB_EnableGlobalInt(USBx);
 6896              		.loc 1 2009 9
 6897 00fc 7868     		ldr	r0, [r7, #4]
 6898 00fe FFF7FEFF 		bl	USB_EnableGlobalInt
2010:Drivers/STM32F4xx_HAL_Driver/Src/stm32f4xx_ll_usb.c **** 
2011:Drivers/STM32F4xx_HAL_Driver/Src/stm32f4xx_ll_usb.c ****   return HAL_OK;
 6899              		.loc 1 2011 10
 6900 0102 0023     		movs	r3, #0
2012:Drivers/STM32F4xx_HAL_Driver/Src/stm32f4xx_ll_usb.c **** }
 6901              		.loc 1 2012 1
 6902 0104 1846     		mov	r0, r3
 6903 0106 1837     		adds	r7, r7, #24
 6904              	.LCFI273:
 6905              		.cfi_def_cfa_offset 8
 6906 0108 BD46     		mov	sp, r7
 6907              	.LCFI274:
 6908              		.cfi_def_cfa_register 13
 6909              		@ sp needed
 6910 010a 80BD     		pop	{r7, pc}
 6911              		.cfi_endproc
 6912              	.LFE175:
 6914              		.section	.text.USB_ActivateRemoteWakeup,"ax",%progbits
 6915              		.align	1
 6916              		.global	USB_ActivateRemoteWakeup
 6917              		.syntax unified
 6918              		.thumb
 6919              		.thumb_func
ARM GAS  /var/folders/vq/qt4vp3kd5rxf7v2b6_fdtdt80000gn/T//ccOb9Y7L.s 			page 157


 6920              		.fpu fpv4-sp-d16
 6922              	USB_ActivateRemoteWakeup:
 6923              	.LFB176:
2013:Drivers/STM32F4xx_HAL_Driver/Src/stm32f4xx_ll_usb.c **** 
2014:Drivers/STM32F4xx_HAL_Driver/Src/stm32f4xx_ll_usb.c **** /**
2015:Drivers/STM32F4xx_HAL_Driver/Src/stm32f4xx_ll_usb.c ****   * @brief  USB_ActivateRemoteWakeup active remote wakeup signalling
2016:Drivers/STM32F4xx_HAL_Driver/Src/stm32f4xx_ll_usb.c ****   * @param  USBx Selected device
2017:Drivers/STM32F4xx_HAL_Driver/Src/stm32f4xx_ll_usb.c ****   * @retval HAL status
2018:Drivers/STM32F4xx_HAL_Driver/Src/stm32f4xx_ll_usb.c ****   */
2019:Drivers/STM32F4xx_HAL_Driver/Src/stm32f4xx_ll_usb.c **** HAL_StatusTypeDef USB_ActivateRemoteWakeup(USB_OTG_GlobalTypeDef *USBx)
2020:Drivers/STM32F4xx_HAL_Driver/Src/stm32f4xx_ll_usb.c **** {
 6924              		.loc 1 2020 1
 6925              		.cfi_startproc
 6926              		@ args = 0, pretend = 0, frame = 16
 6927              		@ frame_needed = 1, uses_anonymous_args = 0
 6928              		@ link register save eliminated.
 6929 0000 80B4     		push	{r7}
 6930              	.LCFI275:
 6931              		.cfi_def_cfa_offset 4
 6932              		.cfi_offset 7, -4
 6933 0002 85B0     		sub	sp, sp, #20
 6934              	.LCFI276:
 6935              		.cfi_def_cfa_offset 24
 6936 0004 00AF     		add	r7, sp, #0
 6937              	.LCFI277:
 6938              		.cfi_def_cfa_register 7
 6939 0006 7860     		str	r0, [r7, #4]
2021:Drivers/STM32F4xx_HAL_Driver/Src/stm32f4xx_ll_usb.c ****   uint32_t USBx_BASE = (uint32_t)USBx;
 6940              		.loc 1 2021 12
 6941 0008 7B68     		ldr	r3, [r7, #4]
 6942 000a FB60     		str	r3, [r7, #12]
2022:Drivers/STM32F4xx_HAL_Driver/Src/stm32f4xx_ll_usb.c **** 
2023:Drivers/STM32F4xx_HAL_Driver/Src/stm32f4xx_ll_usb.c ****   if ((USBx_DEVICE->DSTS & USB_OTG_DSTS_SUSPSTS) == USB_OTG_DSTS_SUSPSTS)
 6943              		.loc 1 2023 8
 6944 000c FB68     		ldr	r3, [r7, #12]
 6945 000e 03F50063 		add	r3, r3, #2048
 6946              		.loc 1 2023 19
 6947 0012 9B68     		ldr	r3, [r3, #8]
 6948              		.loc 1 2023 26
 6949 0014 03F00103 		and	r3, r3, #1
 6950              		.loc 1 2023 6
 6951 0018 012B     		cmp	r3, #1
 6952 001a 09D1     		bne	.L306
2024:Drivers/STM32F4xx_HAL_Driver/Src/stm32f4xx_ll_usb.c ****   {
2025:Drivers/STM32F4xx_HAL_Driver/Src/stm32f4xx_ll_usb.c ****     /* active Remote wakeup signalling */
2026:Drivers/STM32F4xx_HAL_Driver/Src/stm32f4xx_ll_usb.c ****     USBx_DEVICE->DCTL |= USB_OTG_DCTL_RWUSIG;
 6953              		.loc 1 2026 23
 6954 001c FB68     		ldr	r3, [r7, #12]
 6955 001e 03F50063 		add	r3, r3, #2048
 6956 0022 5B68     		ldr	r3, [r3, #4]
 6957 0024 FA68     		ldr	r2, [r7, #12]
 6958 0026 02F50062 		add	r2, r2, #2048
 6959 002a 43F00103 		orr	r3, r3, #1
 6960 002e 5360     		str	r3, [r2, #4]
 6961              	.L306:
2027:Drivers/STM32F4xx_HAL_Driver/Src/stm32f4xx_ll_usb.c ****   }
2028:Drivers/STM32F4xx_HAL_Driver/Src/stm32f4xx_ll_usb.c **** 
ARM GAS  /var/folders/vq/qt4vp3kd5rxf7v2b6_fdtdt80000gn/T//ccOb9Y7L.s 			page 158


2029:Drivers/STM32F4xx_HAL_Driver/Src/stm32f4xx_ll_usb.c ****   return HAL_OK;
 6962              		.loc 1 2029 10
 6963 0030 0023     		movs	r3, #0
2030:Drivers/STM32F4xx_HAL_Driver/Src/stm32f4xx_ll_usb.c **** }
 6964              		.loc 1 2030 1
 6965 0032 1846     		mov	r0, r3
 6966 0034 1437     		adds	r7, r7, #20
 6967              	.LCFI278:
 6968              		.cfi_def_cfa_offset 4
 6969 0036 BD46     		mov	sp, r7
 6970              	.LCFI279:
 6971              		.cfi_def_cfa_register 13
 6972              		@ sp needed
 6973 0038 5DF8047B 		ldr	r7, [sp], #4
 6974              	.LCFI280:
 6975              		.cfi_restore 7
 6976              		.cfi_def_cfa_offset 0
 6977 003c 7047     		bx	lr
 6978              		.cfi_endproc
 6979              	.LFE176:
 6981              		.section	.text.USB_DeActivateRemoteWakeup,"ax",%progbits
 6982              		.align	1
 6983              		.global	USB_DeActivateRemoteWakeup
 6984              		.syntax unified
 6985              		.thumb
 6986              		.thumb_func
 6987              		.fpu fpv4-sp-d16
 6989              	USB_DeActivateRemoteWakeup:
 6990              	.LFB177:
2031:Drivers/STM32F4xx_HAL_Driver/Src/stm32f4xx_ll_usb.c **** 
2032:Drivers/STM32F4xx_HAL_Driver/Src/stm32f4xx_ll_usb.c **** /**
2033:Drivers/STM32F4xx_HAL_Driver/Src/stm32f4xx_ll_usb.c ****   * @brief  USB_DeActivateRemoteWakeup de-active remote wakeup signalling
2034:Drivers/STM32F4xx_HAL_Driver/Src/stm32f4xx_ll_usb.c ****   * @param  USBx Selected device
2035:Drivers/STM32F4xx_HAL_Driver/Src/stm32f4xx_ll_usb.c ****   * @retval HAL status
2036:Drivers/STM32F4xx_HAL_Driver/Src/stm32f4xx_ll_usb.c ****   */
2037:Drivers/STM32F4xx_HAL_Driver/Src/stm32f4xx_ll_usb.c **** HAL_StatusTypeDef USB_DeActivateRemoteWakeup(USB_OTG_GlobalTypeDef *USBx)
2038:Drivers/STM32F4xx_HAL_Driver/Src/stm32f4xx_ll_usb.c **** {
 6991              		.loc 1 2038 1
 6992              		.cfi_startproc
 6993              		@ args = 0, pretend = 0, frame = 16
 6994              		@ frame_needed = 1, uses_anonymous_args = 0
 6995              		@ link register save eliminated.
 6996 0000 80B4     		push	{r7}
 6997              	.LCFI281:
 6998              		.cfi_def_cfa_offset 4
 6999              		.cfi_offset 7, -4
 7000 0002 85B0     		sub	sp, sp, #20
 7001              	.LCFI282:
 7002              		.cfi_def_cfa_offset 24
 7003 0004 00AF     		add	r7, sp, #0
 7004              	.LCFI283:
 7005              		.cfi_def_cfa_register 7
 7006 0006 7860     		str	r0, [r7, #4]
2039:Drivers/STM32F4xx_HAL_Driver/Src/stm32f4xx_ll_usb.c ****   uint32_t USBx_BASE = (uint32_t)USBx;
 7007              		.loc 1 2039 12
 7008 0008 7B68     		ldr	r3, [r7, #4]
 7009 000a FB60     		str	r3, [r7, #12]
ARM GAS  /var/folders/vq/qt4vp3kd5rxf7v2b6_fdtdt80000gn/T//ccOb9Y7L.s 			page 159


2040:Drivers/STM32F4xx_HAL_Driver/Src/stm32f4xx_ll_usb.c **** 
2041:Drivers/STM32F4xx_HAL_Driver/Src/stm32f4xx_ll_usb.c ****   /* active Remote wakeup signalling */
2042:Drivers/STM32F4xx_HAL_Driver/Src/stm32f4xx_ll_usb.c ****   USBx_DEVICE->DCTL &= ~(USB_OTG_DCTL_RWUSIG);
 7010              		.loc 1 2042 21
 7011 000c FB68     		ldr	r3, [r7, #12]
 7012 000e 03F50063 		add	r3, r3, #2048
 7013 0012 5B68     		ldr	r3, [r3, #4]
 7014 0014 FA68     		ldr	r2, [r7, #12]
 7015 0016 02F50062 		add	r2, r2, #2048
 7016 001a 23F00103 		bic	r3, r3, #1
 7017 001e 5360     		str	r3, [r2, #4]
2043:Drivers/STM32F4xx_HAL_Driver/Src/stm32f4xx_ll_usb.c **** 
2044:Drivers/STM32F4xx_HAL_Driver/Src/stm32f4xx_ll_usb.c ****   return HAL_OK;
 7018              		.loc 1 2044 10
 7019 0020 0023     		movs	r3, #0
2045:Drivers/STM32F4xx_HAL_Driver/Src/stm32f4xx_ll_usb.c **** }
 7020              		.loc 1 2045 1
 7021 0022 1846     		mov	r0, r3
 7022 0024 1437     		adds	r7, r7, #20
 7023              	.LCFI284:
 7024              		.cfi_def_cfa_offset 4
 7025 0026 BD46     		mov	sp, r7
 7026              	.LCFI285:
 7027              		.cfi_def_cfa_register 13
 7028              		@ sp needed
 7029 0028 5DF8047B 		ldr	r7, [sp], #4
 7030              	.LCFI286:
 7031              		.cfi_restore 7
 7032              		.cfi_def_cfa_offset 0
 7033 002c 7047     		bx	lr
 7034              		.cfi_endproc
 7035              	.LFE177:
 7037              		.text
 7038              	.Letext0:
 7039              		.file 2 "/usr/local/Cellar/arm-none-eabi-gcc/9-2019-q4-major/gcc/arm-none-eabi/include/machine/_de
 7040              		.file 3 "/usr/local/Cellar/arm-none-eabi-gcc/9-2019-q4-major/gcc/arm-none-eabi/include/sys/_stdint
 7041              		.file 4 "Drivers/CMSIS/Include/cmsis_gcc.h"
 7042              		.file 5 "Drivers/CMSIS/Include/core_cm4.h"
 7043              		.file 6 "Drivers/CMSIS/Device/ST/STM32F4xx/Include/system_stm32f4xx.h"
 7044              		.file 7 "Drivers/CMSIS/Device/ST/STM32F4xx/Include/stm32f407xx.h"
 7045              		.file 8 "Drivers/STM32F4xx_HAL_Driver/Inc/stm32f4xx_hal_def.h"
 7046              		.file 9 "Drivers/STM32F4xx_HAL_Driver/Inc/stm32f4xx_ll_usb.h"
 7047              		.file 10 "Drivers/STM32F4xx_HAL_Driver/Inc/stm32f4xx_hal.h"
ARM GAS  /var/folders/vq/qt4vp3kd5rxf7v2b6_fdtdt80000gn/T//ccOb9Y7L.s 			page 160


DEFINED SYMBOLS
                            *ABS*:0000000000000000 stm32f4xx_ll_usb.c
/var/folders/vq/qt4vp3kd5rxf7v2b6_fdtdt80000gn/T//ccOb9Y7L.s:18     .text.USB_CoreInit:0000000000000000 $t
/var/folders/vq/qt4vp3kd5rxf7v2b6_fdtdt80000gn/T//ccOb9Y7L.s:26     .text.USB_CoreInit:0000000000000000 USB_CoreInit
/var/folders/vq/qt4vp3kd5rxf7v2b6_fdtdt80000gn/T//ccOb9Y7L.s:4712   .text.USB_CoreReset:0000000000000000 USB_CoreReset
/var/folders/vq/qt4vp3kd5rxf7v2b6_fdtdt80000gn/T//ccOb9Y7L.s:166    .text.USB_SetTurnaroundTime:0000000000000000 $t
/var/folders/vq/qt4vp3kd5rxf7v2b6_fdtdt80000gn/T//ccOb9Y7L.s:173    .text.USB_SetTurnaroundTime:0000000000000000 USB_SetTurnaroundTime
/var/folders/vq/qt4vp3kd5rxf7v2b6_fdtdt80000gn/T//ccOb9Y7L.s:388    .text.USB_SetTurnaroundTime:000000000000011c $d
/var/folders/vq/qt4vp3kd5rxf7v2b6_fdtdt80000gn/T//ccOb9Y7L.s:402    .text.USB_EnableGlobalInt:0000000000000000 $t
/var/folders/vq/qt4vp3kd5rxf7v2b6_fdtdt80000gn/T//ccOb9Y7L.s:409    .text.USB_EnableGlobalInt:0000000000000000 USB_EnableGlobalInt
/var/folders/vq/qt4vp3kd5rxf7v2b6_fdtdt80000gn/T//ccOb9Y7L.s:453    .text.USB_DisableGlobalInt:0000000000000000 $t
/var/folders/vq/qt4vp3kd5rxf7v2b6_fdtdt80000gn/T//ccOb9Y7L.s:460    .text.USB_DisableGlobalInt:0000000000000000 USB_DisableGlobalInt
/var/folders/vq/qt4vp3kd5rxf7v2b6_fdtdt80000gn/T//ccOb9Y7L.s:504    .text.USB_SetCurrentMode:0000000000000000 $t
/var/folders/vq/qt4vp3kd5rxf7v2b6_fdtdt80000gn/T//ccOb9Y7L.s:511    .text.USB_SetCurrentMode:0000000000000000 USB_SetCurrentMode
/var/folders/vq/qt4vp3kd5rxf7v2b6_fdtdt80000gn/T//ccOb9Y7L.s:585    .text.USB_DevInit:0000000000000000 $t
/var/folders/vq/qt4vp3kd5rxf7v2b6_fdtdt80000gn/T//ccOb9Y7L.s:592    .text.USB_DevInit:0000000000000000 USB_DevInit
/var/folders/vq/qt4vp3kd5rxf7v2b6_fdtdt80000gn/T//ccOb9Y7L.s:1211   .text.USB_SetDevSpeed:0000000000000000 USB_SetDevSpeed
/var/folders/vq/qt4vp3kd5rxf7v2b6_fdtdt80000gn/T//ccOb9Y7L.s:1050   .text.USB_FlushTxFifo:0000000000000000 USB_FlushTxFifo
/var/folders/vq/qt4vp3kd5rxf7v2b6_fdtdt80000gn/T//ccOb9Y7L.s:1133   .text.USB_FlushRxFifo:0000000000000000 USB_FlushRxFifo
/var/folders/vq/qt4vp3kd5rxf7v2b6_fdtdt80000gn/T//ccOb9Y7L.s:1038   .text.USB_DevInit:00000000000002c4 $d
/var/folders/vq/qt4vp3kd5rxf7v2b6_fdtdt80000gn/T//ccOb9Y7L.s:1043   .text.USB_FlushTxFifo:0000000000000000 $t
/var/folders/vq/qt4vp3kd5rxf7v2b6_fdtdt80000gn/T//ccOb9Y7L.s:1121   .text.USB_FlushTxFifo:0000000000000048 $d
/var/folders/vq/qt4vp3kd5rxf7v2b6_fdtdt80000gn/T//ccOb9Y7L.s:1126   .text.USB_FlushRxFifo:0000000000000000 $t
/var/folders/vq/qt4vp3kd5rxf7v2b6_fdtdt80000gn/T//ccOb9Y7L.s:1199   .text.USB_FlushRxFifo:0000000000000040 $d
/var/folders/vq/qt4vp3kd5rxf7v2b6_fdtdt80000gn/T//ccOb9Y7L.s:1204   .text.USB_SetDevSpeed:0000000000000000 $t
/var/folders/vq/qt4vp3kd5rxf7v2b6_fdtdt80000gn/T//ccOb9Y7L.s:1263   .text.USB_GetDevSpeed:0000000000000000 $t
/var/folders/vq/qt4vp3kd5rxf7v2b6_fdtdt80000gn/T//ccOb9Y7L.s:1270   .text.USB_GetDevSpeed:0000000000000000 USB_GetDevSpeed
/var/folders/vq/qt4vp3kd5rxf7v2b6_fdtdt80000gn/T//ccOb9Y7L.s:1346   .text.USB_ActivateEndpoint:0000000000000000 $t
/var/folders/vq/qt4vp3kd5rxf7v2b6_fdtdt80000gn/T//ccOb9Y7L.s:1353   .text.USB_ActivateEndpoint:0000000000000000 USB_ActivateEndpoint
/var/folders/vq/qt4vp3kd5rxf7v2b6_fdtdt80000gn/T//ccOb9Y7L.s:1536   .text.USB_ActivateDedicatedEndpoint:0000000000000000 $t
/var/folders/vq/qt4vp3kd5rxf7v2b6_fdtdt80000gn/T//ccOb9Y7L.s:1543   .text.USB_ActivateDedicatedEndpoint:0000000000000000 USB_ActivateDedicatedEndpoint
/var/folders/vq/qt4vp3kd5rxf7v2b6_fdtdt80000gn/T//ccOb9Y7L.s:1732   .text.USB_DeactivateEndpoint:0000000000000000 $t
/var/folders/vq/qt4vp3kd5rxf7v2b6_fdtdt80000gn/T//ccOb9Y7L.s:1739   .text.USB_DeactivateEndpoint:0000000000000000 USB_DeactivateEndpoint
/var/folders/vq/qt4vp3kd5rxf7v2b6_fdtdt80000gn/T//ccOb9Y7L.s:1994   .text.USB_DeactivateEndpoint:00000000000001b0 $d
/var/folders/vq/qt4vp3kd5rxf7v2b6_fdtdt80000gn/T//ccOb9Y7L.s:2000   .text.USB_DeactivateDedicatedEndpoint:0000000000000000 $t
/var/folders/vq/qt4vp3kd5rxf7v2b6_fdtdt80000gn/T//ccOb9Y7L.s:2007   .text.USB_DeactivateDedicatedEndpoint:0000000000000000 USB_DeactivateDedicatedEndpoint
/var/folders/vq/qt4vp3kd5rxf7v2b6_fdtdt80000gn/T//ccOb9Y7L.s:2217   .text.USB_EPStartXfer:0000000000000000 $t
/var/folders/vq/qt4vp3kd5rxf7v2b6_fdtdt80000gn/T//ccOb9Y7L.s:2224   .text.USB_EPStartXfer:0000000000000000 USB_EPStartXfer
/var/folders/vq/qt4vp3kd5rxf7v2b6_fdtdt80000gn/T//ccOb9Y7L.s:3261   .text.USB_WritePacket:0000000000000000 USB_WritePacket
/var/folders/vq/qt4vp3kd5rxf7v2b6_fdtdt80000gn/T//ccOb9Y7L.s:2694   .text.USB_EPStartXfer:0000000000000370 $d
/var/folders/vq/qt4vp3kd5rxf7v2b6_fdtdt80000gn/T//ccOb9Y7L.s:2697   .text.USB_EPStartXfer:0000000000000374 $t
/var/folders/vq/qt4vp3kd5rxf7v2b6_fdtdt80000gn/T//ccOb9Y7L.s:2860   .text.USB_EPStartXfer:0000000000000484 $d
/var/folders/vq/qt4vp3kd5rxf7v2b6_fdtdt80000gn/T//ccOb9Y7L.s:2865   .text.USB_EP0StartXfer:0000000000000000 $t
/var/folders/vq/qt4vp3kd5rxf7v2b6_fdtdt80000gn/T//ccOb9Y7L.s:2872   .text.USB_EP0StartXfer:0000000000000000 USB_EP0StartXfer
/var/folders/vq/qt4vp3kd5rxf7v2b6_fdtdt80000gn/T//ccOb9Y7L.s:3254   .text.USB_WritePacket:0000000000000000 $t
/var/folders/vq/qt4vp3kd5rxf7v2b6_fdtdt80000gn/T//ccOb9Y7L.s:3356   .text.USB_ReadPacket:0000000000000000 $t
/var/folders/vq/qt4vp3kd5rxf7v2b6_fdtdt80000gn/T//ccOb9Y7L.s:3363   .text.USB_ReadPacket:0000000000000000 USB_ReadPacket
/var/folders/vq/qt4vp3kd5rxf7v2b6_fdtdt80000gn/T//ccOb9Y7L.s:3443   .text.USB_EPSetStall:0000000000000000 $t
/var/folders/vq/qt4vp3kd5rxf7v2b6_fdtdt80000gn/T//ccOb9Y7L.s:3450   .text.USB_EPSetStall:0000000000000000 USB_EPSetStall
/var/folders/vq/qt4vp3kd5rxf7v2b6_fdtdt80000gn/T//ccOb9Y7L.s:3594   .text.USB_EPClearStall:0000000000000000 $t
/var/folders/vq/qt4vp3kd5rxf7v2b6_fdtdt80000gn/T//ccOb9Y7L.s:3601   .text.USB_EPClearStall:0000000000000000 USB_EPClearStall
/var/folders/vq/qt4vp3kd5rxf7v2b6_fdtdt80000gn/T//ccOb9Y7L.s:3739   .text.USB_StopDevice:0000000000000000 $t
/var/folders/vq/qt4vp3kd5rxf7v2b6_fdtdt80000gn/T//ccOb9Y7L.s:3746   .text.USB_StopDevice:0000000000000000 USB_StopDevice
/var/folders/vq/qt4vp3kd5rxf7v2b6_fdtdt80000gn/T//ccOb9Y7L.s:3867   .text.USB_SetDevAddress:0000000000000000 $t
/var/folders/vq/qt4vp3kd5rxf7v2b6_fdtdt80000gn/T//ccOb9Y7L.s:3874   .text.USB_SetDevAddress:0000000000000000 USB_SetDevAddress
/var/folders/vq/qt4vp3kd5rxf7v2b6_fdtdt80000gn/T//ccOb9Y7L.s:3940   .text.USB_DevConnect:0000000000000000 $t
/var/folders/vq/qt4vp3kd5rxf7v2b6_fdtdt80000gn/T//ccOb9Y7L.s:3947   .text.USB_DevConnect:0000000000000000 USB_DevConnect
ARM GAS  /var/folders/vq/qt4vp3kd5rxf7v2b6_fdtdt80000gn/T//ccOb9Y7L.s 			page 161


/var/folders/vq/qt4vp3kd5rxf7v2b6_fdtdt80000gn/T//ccOb9Y7L.s:4004   .text.USB_DevDisconnect:0000000000000000 $t
/var/folders/vq/qt4vp3kd5rxf7v2b6_fdtdt80000gn/T//ccOb9Y7L.s:4011   .text.USB_DevDisconnect:0000000000000000 USB_DevDisconnect
/var/folders/vq/qt4vp3kd5rxf7v2b6_fdtdt80000gn/T//ccOb9Y7L.s:4068   .text.USB_ReadInterrupts:0000000000000000 $t
/var/folders/vq/qt4vp3kd5rxf7v2b6_fdtdt80000gn/T//ccOb9Y7L.s:4075   .text.USB_ReadInterrupts:0000000000000000 USB_ReadInterrupts
/var/folders/vq/qt4vp3kd5rxf7v2b6_fdtdt80000gn/T//ccOb9Y7L.s:4124   .text.USB_ReadDevAllOutEpInterrupt:0000000000000000 $t
/var/folders/vq/qt4vp3kd5rxf7v2b6_fdtdt80000gn/T//ccOb9Y7L.s:4131   .text.USB_ReadDevAllOutEpInterrupt:0000000000000000 USB_ReadDevAllOutEpInterrupt
/var/folders/vq/qt4vp3kd5rxf7v2b6_fdtdt80000gn/T//ccOb9Y7L.s:4188   .text.USB_ReadDevAllInEpInterrupt:0000000000000000 $t
/var/folders/vq/qt4vp3kd5rxf7v2b6_fdtdt80000gn/T//ccOb9Y7L.s:4195   .text.USB_ReadDevAllInEpInterrupt:0000000000000000 USB_ReadDevAllInEpInterrupt
/var/folders/vq/qt4vp3kd5rxf7v2b6_fdtdt80000gn/T//ccOb9Y7L.s:4252   .text.USB_ReadDevOutEPInterrupt:0000000000000000 $t
/var/folders/vq/qt4vp3kd5rxf7v2b6_fdtdt80000gn/T//ccOb9Y7L.s:4259   .text.USB_ReadDevOutEPInterrupt:0000000000000000 USB_ReadDevOutEPInterrupt
/var/folders/vq/qt4vp3kd5rxf7v2b6_fdtdt80000gn/T//ccOb9Y7L.s:4320   .text.USB_ReadDevInEPInterrupt:0000000000000000 $t
/var/folders/vq/qt4vp3kd5rxf7v2b6_fdtdt80000gn/T//ccOb9Y7L.s:4327   .text.USB_ReadDevInEPInterrupt:0000000000000000 USB_ReadDevInEPInterrupt
/var/folders/vq/qt4vp3kd5rxf7v2b6_fdtdt80000gn/T//ccOb9Y7L.s:4407   .text.USB_ClearInterrupts:0000000000000000 $t
/var/folders/vq/qt4vp3kd5rxf7v2b6_fdtdt80000gn/T//ccOb9Y7L.s:4414   .text.USB_ClearInterrupts:0000000000000000 USB_ClearInterrupts
/var/folders/vq/qt4vp3kd5rxf7v2b6_fdtdt80000gn/T//ccOb9Y7L.s:4458   .text.USB_GetMode:0000000000000000 $t
/var/folders/vq/qt4vp3kd5rxf7v2b6_fdtdt80000gn/T//ccOb9Y7L.s:4465   .text.USB_GetMode:0000000000000000 USB_GetMode
/var/folders/vq/qt4vp3kd5rxf7v2b6_fdtdt80000gn/T//ccOb9Y7L.s:4506   .text.USB_ActivateSetup:0000000000000000 $t
/var/folders/vq/qt4vp3kd5rxf7v2b6_fdtdt80000gn/T//ccOb9Y7L.s:4513   .text.USB_ActivateSetup:0000000000000000 USB_ActivateSetup
/var/folders/vq/qt4vp3kd5rxf7v2b6_fdtdt80000gn/T//ccOb9Y7L.s:4571   .text.USB_EP0_OutStart:0000000000000000 $t
/var/folders/vq/qt4vp3kd5rxf7v2b6_fdtdt80000gn/T//ccOb9Y7L.s:4578   .text.USB_EP0_OutStart:0000000000000000 USB_EP0_OutStart
/var/folders/vq/qt4vp3kd5rxf7v2b6_fdtdt80000gn/T//ccOb9Y7L.s:4701   .text.USB_EP0_OutStart:00000000000000b8 $d
/var/folders/vq/qt4vp3kd5rxf7v2b6_fdtdt80000gn/T//ccOb9Y7L.s:4706   .text.USB_CoreReset:0000000000000000 $t
/var/folders/vq/qt4vp3kd5rxf7v2b6_fdtdt80000gn/T//ccOb9Y7L.s:4802   .text.USB_CoreReset:0000000000000064 $d
/var/folders/vq/qt4vp3kd5rxf7v2b6_fdtdt80000gn/T//ccOb9Y7L.s:4807   .text.USB_HostInit:0000000000000000 $t
/var/folders/vq/qt4vp3kd5rxf7v2b6_fdtdt80000gn/T//ccOb9Y7L.s:4814   .text.USB_HostInit:0000000000000000 USB_HostInit
/var/folders/vq/qt4vp3kd5rxf7v2b6_fdtdt80000gn/T//ccOb9Y7L.s:5235   .text.USB_DriveVbus:0000000000000000 USB_DriveVbus
/var/folders/vq/qt4vp3kd5rxf7v2b6_fdtdt80000gn/T//ccOb9Y7L.s:5043   .text.USB_HostInit:0000000000000164 $d
/var/folders/vq/qt4vp3kd5rxf7v2b6_fdtdt80000gn/T//ccOb9Y7L.s:5052   .text.USB_InitFSLSPClkSel:0000000000000000 $t
/var/folders/vq/qt4vp3kd5rxf7v2b6_fdtdt80000gn/T//ccOb9Y7L.s:5059   .text.USB_InitFSLSPClkSel:0000000000000000 USB_InitFSLSPClkSel
/var/folders/vq/qt4vp3kd5rxf7v2b6_fdtdt80000gn/T//ccOb9Y7L.s:5147   .text.USB_ResetPort:0000000000000000 $t
/var/folders/vq/qt4vp3kd5rxf7v2b6_fdtdt80000gn/T//ccOb9Y7L.s:5154   .text.USB_ResetPort:0000000000000000 USB_ResetPort
/var/folders/vq/qt4vp3kd5rxf7v2b6_fdtdt80000gn/T//ccOb9Y7L.s:5228   .text.USB_DriveVbus:0000000000000000 $t
/var/folders/vq/qt4vp3kd5rxf7v2b6_fdtdt80000gn/T//ccOb9Y7L.s:5331   .text.USB_GetHostSpeed:0000000000000000 $t
/var/folders/vq/qt4vp3kd5rxf7v2b6_fdtdt80000gn/T//ccOb9Y7L.s:5338   .text.USB_GetHostSpeed:0000000000000000 USB_GetHostSpeed
/var/folders/vq/qt4vp3kd5rxf7v2b6_fdtdt80000gn/T//ccOb9Y7L.s:5390   .text.USB_GetCurrentFrame:0000000000000000 $t
/var/folders/vq/qt4vp3kd5rxf7v2b6_fdtdt80000gn/T//ccOb9Y7L.s:5397   .text.USB_GetCurrentFrame:0000000000000000 USB_GetCurrentFrame
/var/folders/vq/qt4vp3kd5rxf7v2b6_fdtdt80000gn/T//ccOb9Y7L.s:5443   .text.USB_HC_Init:0000000000000000 $t
/var/folders/vq/qt4vp3kd5rxf7v2b6_fdtdt80000gn/T//ccOb9Y7L.s:5450   .text.USB_HC_Init:0000000000000000 USB_HC_Init
/var/folders/vq/qt4vp3kd5rxf7v2b6_fdtdt80000gn/T//ccOb9Y7L.s:5501   .text.USB_HC_Init:0000000000000044 $d
/var/folders/vq/qt4vp3kd5rxf7v2b6_fdtdt80000gn/T//ccOb9Y7L.s:5505   .text.USB_HC_Init:0000000000000054 $t
/var/folders/vq/qt4vp3kd5rxf7v2b6_fdtdt80000gn/T//ccOb9Y7L.s:5777   .text.USB_HC_StartXfer:0000000000000000 $t
/var/folders/vq/qt4vp3kd5rxf7v2b6_fdtdt80000gn/T//ccOb9Y7L.s:5784   .text.USB_HC_StartXfer:0000000000000000 USB_HC_StartXfer
/var/folders/vq/qt4vp3kd5rxf7v2b6_fdtdt80000gn/T//ccOb9Y7L.s:6630   .text.USB_DoPing:0000000000000000 USB_DoPing
/var/folders/vq/qt4vp3kd5rxf7v2b6_fdtdt80000gn/T//ccOb9Y7L.s:6125   .text.USB_HC_StartXfer:00000000000001f8 $d
/var/folders/vq/qt4vp3kd5rxf7v2b6_fdtdt80000gn/T//ccOb9Y7L.s:6129   .text.USB_HC_StartXfer:0000000000000208 $t
/var/folders/vq/qt4vp3kd5rxf7v2b6_fdtdt80000gn/T//ccOb9Y7L.s:6231   .text.USB_HC_StartXfer:0000000000000280 $d
/var/folders/vq/qt4vp3kd5rxf7v2b6_fdtdt80000gn/T//ccOb9Y7L.s:6236   .text.USB_HC_ReadInterrupt:0000000000000000 $t
/var/folders/vq/qt4vp3kd5rxf7v2b6_fdtdt80000gn/T//ccOb9Y7L.s:6243   .text.USB_HC_ReadInterrupt:0000000000000000 USB_HC_ReadInterrupt
/var/folders/vq/qt4vp3kd5rxf7v2b6_fdtdt80000gn/T//ccOb9Y7L.s:6289   .text.USB_HC_Halt:0000000000000000 $t
/var/folders/vq/qt4vp3kd5rxf7v2b6_fdtdt80000gn/T//ccOb9Y7L.s:6296   .text.USB_HC_Halt:0000000000000000 USB_HC_Halt
/var/folders/vq/qt4vp3kd5rxf7v2b6_fdtdt80000gn/T//ccOb9Y7L.s:6623   .text.USB_DoPing:0000000000000000 $t
/var/folders/vq/qt4vp3kd5rxf7v2b6_fdtdt80000gn/T//ccOb9Y7L.s:6721   .text.USB_DoPing:0000000000000074 $d
/var/folders/vq/qt4vp3kd5rxf7v2b6_fdtdt80000gn/T//ccOb9Y7L.s:6726   .text.USB_StopHost:0000000000000000 $t
/var/folders/vq/qt4vp3kd5rxf7v2b6_fdtdt80000gn/T//ccOb9Y7L.s:6733   .text.USB_StopHost:0000000000000000 USB_StopHost
/var/folders/vq/qt4vp3kd5rxf7v2b6_fdtdt80000gn/T//ccOb9Y7L.s:6915   .text.USB_ActivateRemoteWakeup:0000000000000000 $t
/var/folders/vq/qt4vp3kd5rxf7v2b6_fdtdt80000gn/T//ccOb9Y7L.s:6922   .text.USB_ActivateRemoteWakeup:0000000000000000 USB_ActivateRemoteWakeup
/var/folders/vq/qt4vp3kd5rxf7v2b6_fdtdt80000gn/T//ccOb9Y7L.s:6982   .text.USB_DeActivateRemoteWakeup:0000000000000000 $t
ARM GAS  /var/folders/vq/qt4vp3kd5rxf7v2b6_fdtdt80000gn/T//ccOb9Y7L.s 			page 162


/var/folders/vq/qt4vp3kd5rxf7v2b6_fdtdt80000gn/T//ccOb9Y7L.s:6989   .text.USB_DeActivateRemoteWakeup:0000000000000000 USB_DeActivateRemoteWakeup

UNDEFINED SYMBOLS
HAL_Delay
