ARM GAS  /var/folders/vq/qt4vp3kd5rxf7v2b6_fdtdt80000gn/T//ccs5IouC.s 			page 1


   1              		.cpu cortex-m4
   2              		.eabi_attribute 27, 1
   3              		.eabi_attribute 28, 1
   4              		.eabi_attribute 20, 1
   5              		.eabi_attribute 21, 1
   6              		.eabi_attribute 23, 3
   7              		.eabi_attribute 24, 1
   8              		.eabi_attribute 25, 1
   9              		.eabi_attribute 26, 1
  10              		.eabi_attribute 30, 6
  11              		.eabi_attribute 34, 1
  12              		.eabi_attribute 18, 4
  13              		.file	"stm32f4xx_hal_pcd.c"
  14              		.text
  15              	.Ltext0:
  16              		.cfi_sections	.debug_frame
  17              		.section	.text.HAL_PCD_Init,"ax",%progbits
  18              		.align	1
  19              		.global	HAL_PCD_Init
  20              		.arch armv7e-m
  21              		.syntax unified
  22              		.thumb
  23              		.thumb_func
  24              		.fpu fpv4-sp-d16
  26              	HAL_PCD_Init:
  27              	.LFB130:
  28              		.file 1 "Drivers/STM32F4xx_HAL_Driver/Src/stm32f4xx_hal_pcd.c"
   1:Drivers/STM32F4xx_HAL_Driver/Src/stm32f4xx_hal_pcd.c **** /**
   2:Drivers/STM32F4xx_HAL_Driver/Src/stm32f4xx_hal_pcd.c ****   ******************************************************************************
   3:Drivers/STM32F4xx_HAL_Driver/Src/stm32f4xx_hal_pcd.c ****   * @file    stm32f4xx_hal_pcd.c
   4:Drivers/STM32F4xx_HAL_Driver/Src/stm32f4xx_hal_pcd.c ****   * @author  MCD Application Team
   5:Drivers/STM32F4xx_HAL_Driver/Src/stm32f4xx_hal_pcd.c ****   * @brief   PCD HAL module driver.
   6:Drivers/STM32F4xx_HAL_Driver/Src/stm32f4xx_hal_pcd.c ****   *          This file provides firmware functions to manage the following
   7:Drivers/STM32F4xx_HAL_Driver/Src/stm32f4xx_hal_pcd.c ****   *          functionalities of the USB Peripheral Controller:
   8:Drivers/STM32F4xx_HAL_Driver/Src/stm32f4xx_hal_pcd.c ****   *           + Initialization and de-initialization functions
   9:Drivers/STM32F4xx_HAL_Driver/Src/stm32f4xx_hal_pcd.c ****   *           + IO operation functions
  10:Drivers/STM32F4xx_HAL_Driver/Src/stm32f4xx_hal_pcd.c ****   *           + Peripheral Control functions
  11:Drivers/STM32F4xx_HAL_Driver/Src/stm32f4xx_hal_pcd.c ****   *           + Peripheral State functions
  12:Drivers/STM32F4xx_HAL_Driver/Src/stm32f4xx_hal_pcd.c ****   *
  13:Drivers/STM32F4xx_HAL_Driver/Src/stm32f4xx_hal_pcd.c ****   @verbatim
  14:Drivers/STM32F4xx_HAL_Driver/Src/stm32f4xx_hal_pcd.c ****   ==============================================================================
  15:Drivers/STM32F4xx_HAL_Driver/Src/stm32f4xx_hal_pcd.c ****                     ##### How to use this driver #####
  16:Drivers/STM32F4xx_HAL_Driver/Src/stm32f4xx_hal_pcd.c ****   ==============================================================================
  17:Drivers/STM32F4xx_HAL_Driver/Src/stm32f4xx_hal_pcd.c ****     [..]
  18:Drivers/STM32F4xx_HAL_Driver/Src/stm32f4xx_hal_pcd.c ****       The PCD HAL driver can be used as follows:
  19:Drivers/STM32F4xx_HAL_Driver/Src/stm32f4xx_hal_pcd.c **** 
  20:Drivers/STM32F4xx_HAL_Driver/Src/stm32f4xx_hal_pcd.c ****      (#) Declare a PCD_HandleTypeDef handle structure, for example:
  21:Drivers/STM32F4xx_HAL_Driver/Src/stm32f4xx_hal_pcd.c ****          PCD_HandleTypeDef  hpcd;
  22:Drivers/STM32F4xx_HAL_Driver/Src/stm32f4xx_hal_pcd.c **** 
  23:Drivers/STM32F4xx_HAL_Driver/Src/stm32f4xx_hal_pcd.c ****      (#) Fill parameters of Init structure in HCD handle
  24:Drivers/STM32F4xx_HAL_Driver/Src/stm32f4xx_hal_pcd.c **** 
  25:Drivers/STM32F4xx_HAL_Driver/Src/stm32f4xx_hal_pcd.c ****      (#) Call HAL_PCD_Init() API to initialize the PCD peripheral (Core, Device core, ...)
  26:Drivers/STM32F4xx_HAL_Driver/Src/stm32f4xx_hal_pcd.c **** 
  27:Drivers/STM32F4xx_HAL_Driver/Src/stm32f4xx_hal_pcd.c ****      (#) Initialize the PCD low level resources through the HAL_PCD_MspInit() API:
  28:Drivers/STM32F4xx_HAL_Driver/Src/stm32f4xx_hal_pcd.c ****          (##) Enable the PCD/USB Low Level interface clock using
  29:Drivers/STM32F4xx_HAL_Driver/Src/stm32f4xx_hal_pcd.c ****               (+++) __HAL_RCC_USB_OTG_FS_CLK_ENABLE();
  30:Drivers/STM32F4xx_HAL_Driver/Src/stm32f4xx_hal_pcd.c ****               (+++) __HAL_RCC_USB_OTG_HS_CLK_ENABLE(); (For High Speed Mode)
ARM GAS  /var/folders/vq/qt4vp3kd5rxf7v2b6_fdtdt80000gn/T//ccs5IouC.s 			page 2


  31:Drivers/STM32F4xx_HAL_Driver/Src/stm32f4xx_hal_pcd.c **** 
  32:Drivers/STM32F4xx_HAL_Driver/Src/stm32f4xx_hal_pcd.c ****          (##) Initialize the related GPIO clocks
  33:Drivers/STM32F4xx_HAL_Driver/Src/stm32f4xx_hal_pcd.c ****          (##) Configure PCD pin-out
  34:Drivers/STM32F4xx_HAL_Driver/Src/stm32f4xx_hal_pcd.c ****          (##) Configure PCD NVIC interrupt
  35:Drivers/STM32F4xx_HAL_Driver/Src/stm32f4xx_hal_pcd.c **** 
  36:Drivers/STM32F4xx_HAL_Driver/Src/stm32f4xx_hal_pcd.c ****      (#)Associate the Upper USB device stack to the HAL PCD Driver:
  37:Drivers/STM32F4xx_HAL_Driver/Src/stm32f4xx_hal_pcd.c ****          (##) hpcd.pData = pdev;
  38:Drivers/STM32F4xx_HAL_Driver/Src/stm32f4xx_hal_pcd.c **** 
  39:Drivers/STM32F4xx_HAL_Driver/Src/stm32f4xx_hal_pcd.c ****      (#)Enable PCD transmission and reception:
  40:Drivers/STM32F4xx_HAL_Driver/Src/stm32f4xx_hal_pcd.c ****          (##) HAL_PCD_Start();
  41:Drivers/STM32F4xx_HAL_Driver/Src/stm32f4xx_hal_pcd.c **** 
  42:Drivers/STM32F4xx_HAL_Driver/Src/stm32f4xx_hal_pcd.c ****   @endverbatim
  43:Drivers/STM32F4xx_HAL_Driver/Src/stm32f4xx_hal_pcd.c ****   ******************************************************************************
  44:Drivers/STM32F4xx_HAL_Driver/Src/stm32f4xx_hal_pcd.c ****   * @attention
  45:Drivers/STM32F4xx_HAL_Driver/Src/stm32f4xx_hal_pcd.c ****   *
  46:Drivers/STM32F4xx_HAL_Driver/Src/stm32f4xx_hal_pcd.c ****   * <h2><center>&copy; Copyright (c) 2016 STMicroelectronics.
  47:Drivers/STM32F4xx_HAL_Driver/Src/stm32f4xx_hal_pcd.c ****   * All rights reserved.</center></h2>
  48:Drivers/STM32F4xx_HAL_Driver/Src/stm32f4xx_hal_pcd.c ****   *
  49:Drivers/STM32F4xx_HAL_Driver/Src/stm32f4xx_hal_pcd.c ****   * This software component is licensed by ST under BSD 3-Clause license,
  50:Drivers/STM32F4xx_HAL_Driver/Src/stm32f4xx_hal_pcd.c ****   * the "License"; You may not use this file except in compliance with the
  51:Drivers/STM32F4xx_HAL_Driver/Src/stm32f4xx_hal_pcd.c ****   * License. You may obtain a copy of the License at:
  52:Drivers/STM32F4xx_HAL_Driver/Src/stm32f4xx_hal_pcd.c ****   *                        opensource.org/licenses/BSD-3-Clause
  53:Drivers/STM32F4xx_HAL_Driver/Src/stm32f4xx_hal_pcd.c ****   *
  54:Drivers/STM32F4xx_HAL_Driver/Src/stm32f4xx_hal_pcd.c ****   ******************************************************************************
  55:Drivers/STM32F4xx_HAL_Driver/Src/stm32f4xx_hal_pcd.c ****   */
  56:Drivers/STM32F4xx_HAL_Driver/Src/stm32f4xx_hal_pcd.c **** 
  57:Drivers/STM32F4xx_HAL_Driver/Src/stm32f4xx_hal_pcd.c **** /* Includes ------------------------------------------------------------------*/
  58:Drivers/STM32F4xx_HAL_Driver/Src/stm32f4xx_hal_pcd.c **** #include "stm32f4xx_hal.h"
  59:Drivers/STM32F4xx_HAL_Driver/Src/stm32f4xx_hal_pcd.c **** 
  60:Drivers/STM32F4xx_HAL_Driver/Src/stm32f4xx_hal_pcd.c **** /** @addtogroup STM32F4xx_HAL_Driver
  61:Drivers/STM32F4xx_HAL_Driver/Src/stm32f4xx_hal_pcd.c ****   * @{
  62:Drivers/STM32F4xx_HAL_Driver/Src/stm32f4xx_hal_pcd.c ****   */
  63:Drivers/STM32F4xx_HAL_Driver/Src/stm32f4xx_hal_pcd.c **** 
  64:Drivers/STM32F4xx_HAL_Driver/Src/stm32f4xx_hal_pcd.c **** /** @defgroup PCD PCD
  65:Drivers/STM32F4xx_HAL_Driver/Src/stm32f4xx_hal_pcd.c ****   * @brief PCD HAL module driver
  66:Drivers/STM32F4xx_HAL_Driver/Src/stm32f4xx_hal_pcd.c ****   * @{
  67:Drivers/STM32F4xx_HAL_Driver/Src/stm32f4xx_hal_pcd.c ****   */
  68:Drivers/STM32F4xx_HAL_Driver/Src/stm32f4xx_hal_pcd.c **** 
  69:Drivers/STM32F4xx_HAL_Driver/Src/stm32f4xx_hal_pcd.c **** #ifdef HAL_PCD_MODULE_ENABLED
  70:Drivers/STM32F4xx_HAL_Driver/Src/stm32f4xx_hal_pcd.c **** 
  71:Drivers/STM32F4xx_HAL_Driver/Src/stm32f4xx_hal_pcd.c **** #if defined (USB_OTG_FS) || defined (USB_OTG_HS)
  72:Drivers/STM32F4xx_HAL_Driver/Src/stm32f4xx_hal_pcd.c **** 
  73:Drivers/STM32F4xx_HAL_Driver/Src/stm32f4xx_hal_pcd.c **** /* Private types -------------------------------------------------------------*/
  74:Drivers/STM32F4xx_HAL_Driver/Src/stm32f4xx_hal_pcd.c **** /* Private variables ---------------------------------------------------------*/
  75:Drivers/STM32F4xx_HAL_Driver/Src/stm32f4xx_hal_pcd.c **** /* Private constants ---------------------------------------------------------*/
  76:Drivers/STM32F4xx_HAL_Driver/Src/stm32f4xx_hal_pcd.c **** /* Private macros ------------------------------------------------------------*/
  77:Drivers/STM32F4xx_HAL_Driver/Src/stm32f4xx_hal_pcd.c **** /** @defgroup PCD_Private_Macros PCD Private Macros
  78:Drivers/STM32F4xx_HAL_Driver/Src/stm32f4xx_hal_pcd.c ****   * @{
  79:Drivers/STM32F4xx_HAL_Driver/Src/stm32f4xx_hal_pcd.c ****   */
  80:Drivers/STM32F4xx_HAL_Driver/Src/stm32f4xx_hal_pcd.c **** #define PCD_MIN(a, b)  (((a) < (b)) ? (a) : (b))
  81:Drivers/STM32F4xx_HAL_Driver/Src/stm32f4xx_hal_pcd.c **** #define PCD_MAX(a, b)  (((a) > (b)) ? (a) : (b))
  82:Drivers/STM32F4xx_HAL_Driver/Src/stm32f4xx_hal_pcd.c **** /**
  83:Drivers/STM32F4xx_HAL_Driver/Src/stm32f4xx_hal_pcd.c ****   * @}
  84:Drivers/STM32F4xx_HAL_Driver/Src/stm32f4xx_hal_pcd.c ****   */
  85:Drivers/STM32F4xx_HAL_Driver/Src/stm32f4xx_hal_pcd.c **** 
  86:Drivers/STM32F4xx_HAL_Driver/Src/stm32f4xx_hal_pcd.c **** /* Private functions prototypes ----------------------------------------------*/
  87:Drivers/STM32F4xx_HAL_Driver/Src/stm32f4xx_hal_pcd.c **** /** @defgroup PCD_Private_Functions PCD Private Functions
ARM GAS  /var/folders/vq/qt4vp3kd5rxf7v2b6_fdtdt80000gn/T//ccs5IouC.s 			page 3


  88:Drivers/STM32F4xx_HAL_Driver/Src/stm32f4xx_hal_pcd.c ****   * @{
  89:Drivers/STM32F4xx_HAL_Driver/Src/stm32f4xx_hal_pcd.c ****   */
  90:Drivers/STM32F4xx_HAL_Driver/Src/stm32f4xx_hal_pcd.c **** #if defined (USB_OTG_FS) || defined (USB_OTG_HS)
  91:Drivers/STM32F4xx_HAL_Driver/Src/stm32f4xx_hal_pcd.c **** static HAL_StatusTypeDef PCD_WriteEmptyTxFifo(PCD_HandleTypeDef *hpcd, uint32_t epnum);
  92:Drivers/STM32F4xx_HAL_Driver/Src/stm32f4xx_hal_pcd.c **** static HAL_StatusTypeDef PCD_EP_OutXfrComplete_int(PCD_HandleTypeDef *hpcd, uint32_t epnum);
  93:Drivers/STM32F4xx_HAL_Driver/Src/stm32f4xx_hal_pcd.c **** static HAL_StatusTypeDef PCD_EP_OutSetupPacket_int(PCD_HandleTypeDef *hpcd, uint32_t epnum);
  94:Drivers/STM32F4xx_HAL_Driver/Src/stm32f4xx_hal_pcd.c **** #endif /* defined (USB_OTG_FS) || defined (USB_OTG_HS) */
  95:Drivers/STM32F4xx_HAL_Driver/Src/stm32f4xx_hal_pcd.c **** /**
  96:Drivers/STM32F4xx_HAL_Driver/Src/stm32f4xx_hal_pcd.c ****   * @}
  97:Drivers/STM32F4xx_HAL_Driver/Src/stm32f4xx_hal_pcd.c ****   */
  98:Drivers/STM32F4xx_HAL_Driver/Src/stm32f4xx_hal_pcd.c **** 
  99:Drivers/STM32F4xx_HAL_Driver/Src/stm32f4xx_hal_pcd.c **** /* Exported functions --------------------------------------------------------*/
 100:Drivers/STM32F4xx_HAL_Driver/Src/stm32f4xx_hal_pcd.c **** /** @defgroup PCD_Exported_Functions PCD Exported Functions
 101:Drivers/STM32F4xx_HAL_Driver/Src/stm32f4xx_hal_pcd.c ****   * @{
 102:Drivers/STM32F4xx_HAL_Driver/Src/stm32f4xx_hal_pcd.c ****   */
 103:Drivers/STM32F4xx_HAL_Driver/Src/stm32f4xx_hal_pcd.c **** 
 104:Drivers/STM32F4xx_HAL_Driver/Src/stm32f4xx_hal_pcd.c **** /** @defgroup PCD_Exported_Functions_Group1 Initialization and de-initialization functions
 105:Drivers/STM32F4xx_HAL_Driver/Src/stm32f4xx_hal_pcd.c ****   *  @brief    Initialization and Configuration functions
 106:Drivers/STM32F4xx_HAL_Driver/Src/stm32f4xx_hal_pcd.c ****   *
 107:Drivers/STM32F4xx_HAL_Driver/Src/stm32f4xx_hal_pcd.c **** @verbatim
 108:Drivers/STM32F4xx_HAL_Driver/Src/stm32f4xx_hal_pcd.c ****  ===============================================================================
 109:Drivers/STM32F4xx_HAL_Driver/Src/stm32f4xx_hal_pcd.c ****             ##### Initialization and de-initialization functions #####
 110:Drivers/STM32F4xx_HAL_Driver/Src/stm32f4xx_hal_pcd.c ****  ===============================================================================
 111:Drivers/STM32F4xx_HAL_Driver/Src/stm32f4xx_hal_pcd.c ****     [..]  This section provides functions allowing to:
 112:Drivers/STM32F4xx_HAL_Driver/Src/stm32f4xx_hal_pcd.c **** 
 113:Drivers/STM32F4xx_HAL_Driver/Src/stm32f4xx_hal_pcd.c **** @endverbatim
 114:Drivers/STM32F4xx_HAL_Driver/Src/stm32f4xx_hal_pcd.c ****   * @{
 115:Drivers/STM32F4xx_HAL_Driver/Src/stm32f4xx_hal_pcd.c ****   */
 116:Drivers/STM32F4xx_HAL_Driver/Src/stm32f4xx_hal_pcd.c **** 
 117:Drivers/STM32F4xx_HAL_Driver/Src/stm32f4xx_hal_pcd.c **** /**
 118:Drivers/STM32F4xx_HAL_Driver/Src/stm32f4xx_hal_pcd.c ****   * @brief  Initializes the PCD according to the specified
 119:Drivers/STM32F4xx_HAL_Driver/Src/stm32f4xx_hal_pcd.c ****   *         parameters in the PCD_InitTypeDef and initialize the associated handle.
 120:Drivers/STM32F4xx_HAL_Driver/Src/stm32f4xx_hal_pcd.c ****   * @param  hpcd PCD handle
 121:Drivers/STM32F4xx_HAL_Driver/Src/stm32f4xx_hal_pcd.c ****   * @retval HAL status
 122:Drivers/STM32F4xx_HAL_Driver/Src/stm32f4xx_hal_pcd.c ****   */
 123:Drivers/STM32F4xx_HAL_Driver/Src/stm32f4xx_hal_pcd.c **** HAL_StatusTypeDef HAL_PCD_Init(PCD_HandleTypeDef *hpcd)
 124:Drivers/STM32F4xx_HAL_Driver/Src/stm32f4xx_hal_pcd.c **** {
  29              		.loc 1 124 1
  30              		.cfi_startproc
  31              		@ args = 0, pretend = 0, frame = 16
  32              		@ frame_needed = 1, uses_anonymous_args = 0
  33 0000 F0B5     		push	{r4, r5, r6, r7, lr}
  34              	.LCFI0:
  35              		.cfi_def_cfa_offset 20
  36              		.cfi_offset 4, -20
  37              		.cfi_offset 5, -16
  38              		.cfi_offset 6, -12
  39              		.cfi_offset 7, -8
  40              		.cfi_offset 14, -4
  41 0002 8FB0     		sub	sp, sp, #60
  42              	.LCFI1:
  43              		.cfi_def_cfa_offset 80
  44 0004 0AAF     		add	r7, sp, #40
  45              	.LCFI2:
  46              		.cfi_def_cfa 7, 40
  47 0006 7860     		str	r0, [r7, #4]
 125:Drivers/STM32F4xx_HAL_Driver/Src/stm32f4xx_hal_pcd.c ****   USB_OTG_GlobalTypeDef *USBx;
ARM GAS  /var/folders/vq/qt4vp3kd5rxf7v2b6_fdtdt80000gn/T//ccs5IouC.s 			page 4


 126:Drivers/STM32F4xx_HAL_Driver/Src/stm32f4xx_hal_pcd.c ****   uint8_t i;
 127:Drivers/STM32F4xx_HAL_Driver/Src/stm32f4xx_hal_pcd.c **** 
 128:Drivers/STM32F4xx_HAL_Driver/Src/stm32f4xx_hal_pcd.c ****   /* Check the PCD handle allocation */
 129:Drivers/STM32F4xx_HAL_Driver/Src/stm32f4xx_hal_pcd.c ****   if (hpcd == NULL)
  48              		.loc 1 129 6
  49 0008 7B68     		ldr	r3, [r7, #4]
  50 000a 002B     		cmp	r3, #0
  51 000c 01D1     		bne	.L2
 130:Drivers/STM32F4xx_HAL_Driver/Src/stm32f4xx_hal_pcd.c ****   {
 131:Drivers/STM32F4xx_HAL_Driver/Src/stm32f4xx_hal_pcd.c ****     return HAL_ERROR;
  52              		.loc 1 131 12
  53 000e 0123     		movs	r3, #1
  54 0010 0FE1     		b	.L3
  55              	.L2:
 132:Drivers/STM32F4xx_HAL_Driver/Src/stm32f4xx_hal_pcd.c ****   }
 133:Drivers/STM32F4xx_HAL_Driver/Src/stm32f4xx_hal_pcd.c **** 
 134:Drivers/STM32F4xx_HAL_Driver/Src/stm32f4xx_hal_pcd.c ****   /* Check the parameters */
 135:Drivers/STM32F4xx_HAL_Driver/Src/stm32f4xx_hal_pcd.c ****   assert_param(IS_PCD_ALL_INSTANCE(hpcd->Instance));
 136:Drivers/STM32F4xx_HAL_Driver/Src/stm32f4xx_hal_pcd.c **** 
 137:Drivers/STM32F4xx_HAL_Driver/Src/stm32f4xx_hal_pcd.c ****   USBx = hpcd->Instance;
  56              		.loc 1 137 8
  57 0012 7B68     		ldr	r3, [r7, #4]
  58 0014 1B68     		ldr	r3, [r3]
  59 0016 BB60     		str	r3, [r7, #8]
 138:Drivers/STM32F4xx_HAL_Driver/Src/stm32f4xx_hal_pcd.c **** 
 139:Drivers/STM32F4xx_HAL_Driver/Src/stm32f4xx_hal_pcd.c ****   if (hpcd->State == HAL_PCD_STATE_RESET)
  60              		.loc 1 139 11
  61 0018 7B68     		ldr	r3, [r7, #4]
  62 001a 93F8BD33 		ldrb	r3, [r3, #957]
  63 001e DBB2     		uxtb	r3, r3
  64              		.loc 1 139 6
  65 0020 002B     		cmp	r3, #0
  66 0022 06D1     		bne	.L4
 140:Drivers/STM32F4xx_HAL_Driver/Src/stm32f4xx_hal_pcd.c ****   {
 141:Drivers/STM32F4xx_HAL_Driver/Src/stm32f4xx_hal_pcd.c ****     /* Allocate lock resource and initialize it */
 142:Drivers/STM32F4xx_HAL_Driver/Src/stm32f4xx_hal_pcd.c ****     hpcd->Lock = HAL_UNLOCKED;
  67              		.loc 1 142 16
  68 0024 7B68     		ldr	r3, [r7, #4]
  69 0026 0022     		movs	r2, #0
  70 0028 83F8BC23 		strb	r2, [r3, #956]
 143:Drivers/STM32F4xx_HAL_Driver/Src/stm32f4xx_hal_pcd.c **** 
 144:Drivers/STM32F4xx_HAL_Driver/Src/stm32f4xx_hal_pcd.c **** #if (USE_HAL_PCD_REGISTER_CALLBACKS == 1U)
 145:Drivers/STM32F4xx_HAL_Driver/Src/stm32f4xx_hal_pcd.c ****     hpcd->SOFCallback = HAL_PCD_SOFCallback;
 146:Drivers/STM32F4xx_HAL_Driver/Src/stm32f4xx_hal_pcd.c ****     hpcd->SetupStageCallback = HAL_PCD_SetupStageCallback;
 147:Drivers/STM32F4xx_HAL_Driver/Src/stm32f4xx_hal_pcd.c ****     hpcd->ResetCallback = HAL_PCD_ResetCallback;
 148:Drivers/STM32F4xx_HAL_Driver/Src/stm32f4xx_hal_pcd.c ****     hpcd->SuspendCallback = HAL_PCD_SuspendCallback;
 149:Drivers/STM32F4xx_HAL_Driver/Src/stm32f4xx_hal_pcd.c ****     hpcd->ResumeCallback = HAL_PCD_ResumeCallback;
 150:Drivers/STM32F4xx_HAL_Driver/Src/stm32f4xx_hal_pcd.c ****     hpcd->ConnectCallback = HAL_PCD_ConnectCallback;
 151:Drivers/STM32F4xx_HAL_Driver/Src/stm32f4xx_hal_pcd.c ****     hpcd->DisconnectCallback = HAL_PCD_DisconnectCallback;
 152:Drivers/STM32F4xx_HAL_Driver/Src/stm32f4xx_hal_pcd.c ****     hpcd->DataOutStageCallback = HAL_PCD_DataOutStageCallback;
 153:Drivers/STM32F4xx_HAL_Driver/Src/stm32f4xx_hal_pcd.c ****     hpcd->DataInStageCallback = HAL_PCD_DataInStageCallback;
 154:Drivers/STM32F4xx_HAL_Driver/Src/stm32f4xx_hal_pcd.c ****     hpcd->ISOOUTIncompleteCallback = HAL_PCD_ISOOUTIncompleteCallback;
 155:Drivers/STM32F4xx_HAL_Driver/Src/stm32f4xx_hal_pcd.c ****     hpcd->ISOINIncompleteCallback = HAL_PCD_ISOINIncompleteCallback;
 156:Drivers/STM32F4xx_HAL_Driver/Src/stm32f4xx_hal_pcd.c ****     hpcd->LPMCallback = HAL_PCDEx_LPM_Callback;
 157:Drivers/STM32F4xx_HAL_Driver/Src/stm32f4xx_hal_pcd.c ****     hpcd->BCDCallback = HAL_PCDEx_BCD_Callback;
 158:Drivers/STM32F4xx_HAL_Driver/Src/stm32f4xx_hal_pcd.c **** 
 159:Drivers/STM32F4xx_HAL_Driver/Src/stm32f4xx_hal_pcd.c ****     if (hpcd->MspInitCallback == NULL)
ARM GAS  /var/folders/vq/qt4vp3kd5rxf7v2b6_fdtdt80000gn/T//ccs5IouC.s 			page 5


 160:Drivers/STM32F4xx_HAL_Driver/Src/stm32f4xx_hal_pcd.c ****     {
 161:Drivers/STM32F4xx_HAL_Driver/Src/stm32f4xx_hal_pcd.c ****       hpcd->MspInitCallback = HAL_PCD_MspInit;
 162:Drivers/STM32F4xx_HAL_Driver/Src/stm32f4xx_hal_pcd.c ****     }
 163:Drivers/STM32F4xx_HAL_Driver/Src/stm32f4xx_hal_pcd.c **** 
 164:Drivers/STM32F4xx_HAL_Driver/Src/stm32f4xx_hal_pcd.c ****     /* Init the low level hardware */
 165:Drivers/STM32F4xx_HAL_Driver/Src/stm32f4xx_hal_pcd.c ****     hpcd->MspInitCallback(hpcd);
 166:Drivers/STM32F4xx_HAL_Driver/Src/stm32f4xx_hal_pcd.c **** #else
 167:Drivers/STM32F4xx_HAL_Driver/Src/stm32f4xx_hal_pcd.c ****     /* Init the low level hardware : GPIO, CLOCK, NVIC... */
 168:Drivers/STM32F4xx_HAL_Driver/Src/stm32f4xx_hal_pcd.c ****     HAL_PCD_MspInit(hpcd);
  71              		.loc 1 168 5
  72 002c 7868     		ldr	r0, [r7, #4]
  73 002e FFF7FEFF 		bl	HAL_PCD_MspInit
  74              	.L4:
 169:Drivers/STM32F4xx_HAL_Driver/Src/stm32f4xx_hal_pcd.c **** #endif /* (USE_HAL_PCD_REGISTER_CALLBACKS) */
 170:Drivers/STM32F4xx_HAL_Driver/Src/stm32f4xx_hal_pcd.c ****   }
 171:Drivers/STM32F4xx_HAL_Driver/Src/stm32f4xx_hal_pcd.c **** 
 172:Drivers/STM32F4xx_HAL_Driver/Src/stm32f4xx_hal_pcd.c ****   hpcd->State = HAL_PCD_STATE_BUSY;
  75              		.loc 1 172 15
  76 0032 7B68     		ldr	r3, [r7, #4]
  77 0034 0322     		movs	r2, #3
  78 0036 83F8BD23 		strb	r2, [r3, #957]
 173:Drivers/STM32F4xx_HAL_Driver/Src/stm32f4xx_hal_pcd.c **** 
 174:Drivers/STM32F4xx_HAL_Driver/Src/stm32f4xx_hal_pcd.c ****   /* Disable DMA mode for FS instance */
 175:Drivers/STM32F4xx_HAL_Driver/Src/stm32f4xx_hal_pcd.c ****   if ((USBx->CID & (0x1U << 8)) == 0U)
  79              		.loc 1 175 12
  80 003a BB68     		ldr	r3, [r7, #8]
  81 003c DB6B     		ldr	r3, [r3, #60]
  82              		.loc 1 175 18
  83 003e 03F48073 		and	r3, r3, #256
  84              		.loc 1 175 6
  85 0042 002B     		cmp	r3, #0
  86 0044 02D1     		bne	.L5
 176:Drivers/STM32F4xx_HAL_Driver/Src/stm32f4xx_hal_pcd.c ****   {
 177:Drivers/STM32F4xx_HAL_Driver/Src/stm32f4xx_hal_pcd.c ****     hpcd->Init.dma_enable = 0U;
  87              		.loc 1 177 27
  88 0046 7B68     		ldr	r3, [r7, #4]
  89 0048 0022     		movs	r2, #0
  90 004a 1A61     		str	r2, [r3, #16]
  91              	.L5:
 178:Drivers/STM32F4xx_HAL_Driver/Src/stm32f4xx_hal_pcd.c ****   }
 179:Drivers/STM32F4xx_HAL_Driver/Src/stm32f4xx_hal_pcd.c **** 
 180:Drivers/STM32F4xx_HAL_Driver/Src/stm32f4xx_hal_pcd.c ****   /* Disable the Interrupts */
 181:Drivers/STM32F4xx_HAL_Driver/Src/stm32f4xx_hal_pcd.c ****   __HAL_PCD_DISABLE(hpcd);
  92              		.loc 1 181 3
  93 004c 7B68     		ldr	r3, [r7, #4]
  94 004e 1B68     		ldr	r3, [r3]
  95 0050 1846     		mov	r0, r3
  96 0052 FFF7FEFF 		bl	USB_DisableGlobalInt
 182:Drivers/STM32F4xx_HAL_Driver/Src/stm32f4xx_hal_pcd.c **** 
 183:Drivers/STM32F4xx_HAL_Driver/Src/stm32f4xx_hal_pcd.c ****   /*Init the Core (common init.) */
 184:Drivers/STM32F4xx_HAL_Driver/Src/stm32f4xx_hal_pcd.c ****   if (USB_CoreInit(hpcd->Instance, hpcd->Init) != HAL_OK)
  97              		.loc 1 184 24
  98 0056 7B68     		ldr	r3, [r7, #4]
  99 0058 1B68     		ldr	r3, [r3]
 100 005a 3B60     		str	r3, [r7]
 101              		.loc 1 184 7
 102 005c 7E68     		ldr	r6, [r7, #4]
ARM GAS  /var/folders/vq/qt4vp3kd5rxf7v2b6_fdtdt80000gn/T//ccs5IouC.s 			page 6


 103 005e 6D46     		mov	r5, sp
 104 0060 06F11004 		add	r4, r6, #16
 105 0064 0FCC     		ldmia	r4!, {r0, r1, r2, r3}
 106 0066 0FC5     		stmia	r5!, {r0, r1, r2, r3}
 107 0068 0FCC     		ldmia	r4!, {r0, r1, r2, r3}
 108 006a 0FC5     		stmia	r5!, {r0, r1, r2, r3}
 109 006c 94E80300 		ldm	r4, {r0, r1}
 110 0070 85E80300 		stm	r5, {r0, r1}
 111 0074 331D     		adds	r3, r6, #4
 112 0076 0ECB     		ldm	r3, {r1, r2, r3}
 113 0078 3868     		ldr	r0, [r7]
 114 007a FFF7FEFF 		bl	USB_CoreInit
 115 007e 0346     		mov	r3, r0
 116              		.loc 1 184 6
 117 0080 002B     		cmp	r3, #0
 118 0082 05D0     		beq	.L6
 185:Drivers/STM32F4xx_HAL_Driver/Src/stm32f4xx_hal_pcd.c ****   {
 186:Drivers/STM32F4xx_HAL_Driver/Src/stm32f4xx_hal_pcd.c ****     hpcd->State = HAL_PCD_STATE_ERROR;
 119              		.loc 1 186 17
 120 0084 7B68     		ldr	r3, [r7, #4]
 121 0086 0222     		movs	r2, #2
 122 0088 83F8BD23 		strb	r2, [r3, #957]
 187:Drivers/STM32F4xx_HAL_Driver/Src/stm32f4xx_hal_pcd.c ****     return HAL_ERROR;
 123              		.loc 1 187 12
 124 008c 0123     		movs	r3, #1
 125 008e D0E0     		b	.L3
 126              	.L6:
 188:Drivers/STM32F4xx_HAL_Driver/Src/stm32f4xx_hal_pcd.c ****   }
 189:Drivers/STM32F4xx_HAL_Driver/Src/stm32f4xx_hal_pcd.c **** 
 190:Drivers/STM32F4xx_HAL_Driver/Src/stm32f4xx_hal_pcd.c ****   /* Force Device Mode*/
 191:Drivers/STM32F4xx_HAL_Driver/Src/stm32f4xx_hal_pcd.c ****   (void)USB_SetCurrentMode(hpcd->Instance, USB_DEVICE_MODE);
 127              		.loc 1 191 32
 128 0090 7B68     		ldr	r3, [r7, #4]
 129 0092 1B68     		ldr	r3, [r3]
 130              		.loc 1 191 9
 131 0094 0021     		movs	r1, #0
 132 0096 1846     		mov	r0, r3
 133 0098 FFF7FEFF 		bl	USB_SetCurrentMode
 192:Drivers/STM32F4xx_HAL_Driver/Src/stm32f4xx_hal_pcd.c **** 
 193:Drivers/STM32F4xx_HAL_Driver/Src/stm32f4xx_hal_pcd.c ****   /* Init endpoints structures */
 194:Drivers/STM32F4xx_HAL_Driver/Src/stm32f4xx_hal_pcd.c ****   for (i = 0U; i < hpcd->Init.dev_endpoints; i++)
 134              		.loc 1 194 10
 135 009c 0023     		movs	r3, #0
 136 009e FB73     		strb	r3, [r7, #15]
 137              		.loc 1 194 3
 138 00a0 4AE0     		b	.L7
 139              	.L8:
 195:Drivers/STM32F4xx_HAL_Driver/Src/stm32f4xx_hal_pcd.c ****   {
 196:Drivers/STM32F4xx_HAL_Driver/Src/stm32f4xx_hal_pcd.c ****     /* Init ep structure */
 197:Drivers/STM32F4xx_HAL_Driver/Src/stm32f4xx_hal_pcd.c ****     hpcd->IN_ep[i].is_in = 1U;
 140              		.loc 1 197 19 discriminator 3
 141 00a2 FA7B     		ldrb	r2, [r7, #15]	@ zero_extendqisi2
 142              		.loc 1 197 26 discriminator 3
 143 00a4 7968     		ldr	r1, [r7, #4]
 144 00a6 1346     		mov	r3, r2
 145 00a8 DB00     		lsls	r3, r3, #3
 146 00aa 9B1A     		subs	r3, r3, r2
ARM GAS  /var/folders/vq/qt4vp3kd5rxf7v2b6_fdtdt80000gn/T//ccs5IouC.s 			page 7


 147 00ac 9B00     		lsls	r3, r3, #2
 148 00ae 0B44     		add	r3, r3, r1
 149 00b0 3D33     		adds	r3, r3, #61
 150 00b2 0122     		movs	r2, #1
 151 00b4 1A70     		strb	r2, [r3]
 198:Drivers/STM32F4xx_HAL_Driver/Src/stm32f4xx_hal_pcd.c ****     hpcd->IN_ep[i].num = i;
 152              		.loc 1 198 19 discriminator 3
 153 00b6 FA7B     		ldrb	r2, [r7, #15]	@ zero_extendqisi2
 154              		.loc 1 198 24 discriminator 3
 155 00b8 7968     		ldr	r1, [r7, #4]
 156 00ba 1346     		mov	r3, r2
 157 00bc DB00     		lsls	r3, r3, #3
 158 00be 9B1A     		subs	r3, r3, r2
 159 00c0 9B00     		lsls	r3, r3, #2
 160 00c2 0B44     		add	r3, r3, r1
 161 00c4 3C33     		adds	r3, r3, #60
 162 00c6 FA7B     		ldrb	r2, [r7, #15]
 163 00c8 1A70     		strb	r2, [r3]
 199:Drivers/STM32F4xx_HAL_Driver/Src/stm32f4xx_hal_pcd.c ****     hpcd->IN_ep[i].tx_fifo_num = i;
 164              		.loc 1 199 19 discriminator 3
 165 00ca FA7B     		ldrb	r2, [r7, #15]	@ zero_extendqisi2
 166              		.loc 1 199 32 discriminator 3
 167 00cc FB7B     		ldrb	r3, [r7, #15]	@ zero_extendqisi2
 168 00ce 98B2     		uxth	r0, r3
 169 00d0 7968     		ldr	r1, [r7, #4]
 170 00d2 1346     		mov	r3, r2
 171 00d4 DB00     		lsls	r3, r3, #3
 172 00d6 9B1A     		subs	r3, r3, r2
 173 00d8 9B00     		lsls	r3, r3, #2
 174 00da 0B44     		add	r3, r3, r1
 175 00dc 4233     		adds	r3, r3, #66
 176 00de 0246     		mov	r2, r0	@ movhi
 177 00e0 1A80     		strh	r2, [r3]	@ movhi
 200:Drivers/STM32F4xx_HAL_Driver/Src/stm32f4xx_hal_pcd.c ****     /* Control until ep is activated */
 201:Drivers/STM32F4xx_HAL_Driver/Src/stm32f4xx_hal_pcd.c ****     hpcd->IN_ep[i].type = EP_TYPE_CTRL;
 178              		.loc 1 201 19 discriminator 3
 179 00e2 FA7B     		ldrb	r2, [r7, #15]	@ zero_extendqisi2
 180              		.loc 1 201 25 discriminator 3
 181 00e4 7968     		ldr	r1, [r7, #4]
 182 00e6 1346     		mov	r3, r2
 183 00e8 DB00     		lsls	r3, r3, #3
 184 00ea 9B1A     		subs	r3, r3, r2
 185 00ec 9B00     		lsls	r3, r3, #2
 186 00ee 0B44     		add	r3, r3, r1
 187 00f0 3F33     		adds	r3, r3, #63
 188 00f2 0022     		movs	r2, #0
 189 00f4 1A70     		strb	r2, [r3]
 202:Drivers/STM32F4xx_HAL_Driver/Src/stm32f4xx_hal_pcd.c ****     hpcd->IN_ep[i].maxpacket = 0U;
 190              		.loc 1 202 19 discriminator 3
 191 00f6 FA7B     		ldrb	r2, [r7, #15]	@ zero_extendqisi2
 192              		.loc 1 202 30 discriminator 3
 193 00f8 7968     		ldr	r1, [r7, #4]
 194 00fa 1346     		mov	r3, r2
 195 00fc DB00     		lsls	r3, r3, #3
 196 00fe 9B1A     		subs	r3, r3, r2
 197 0100 9B00     		lsls	r3, r3, #2
 198 0102 0B44     		add	r3, r3, r1
ARM GAS  /var/folders/vq/qt4vp3kd5rxf7v2b6_fdtdt80000gn/T//ccs5IouC.s 			page 8


 199 0104 4433     		adds	r3, r3, #68
 200 0106 0022     		movs	r2, #0
 201 0108 1A60     		str	r2, [r3]
 203:Drivers/STM32F4xx_HAL_Driver/Src/stm32f4xx_hal_pcd.c ****     hpcd->IN_ep[i].xfer_buff = 0U;
 202              		.loc 1 203 19 discriminator 3
 203 010a FA7B     		ldrb	r2, [r7, #15]	@ zero_extendqisi2
 204              		.loc 1 203 30 discriminator 3
 205 010c 7968     		ldr	r1, [r7, #4]
 206 010e 1346     		mov	r3, r2
 207 0110 DB00     		lsls	r3, r3, #3
 208 0112 9B1A     		subs	r3, r3, r2
 209 0114 9B00     		lsls	r3, r3, #2
 210 0116 0B44     		add	r3, r3, r1
 211 0118 4833     		adds	r3, r3, #72
 212 011a 0022     		movs	r2, #0
 213 011c 1A60     		str	r2, [r3]
 204:Drivers/STM32F4xx_HAL_Driver/Src/stm32f4xx_hal_pcd.c ****     hpcd->IN_ep[i].xfer_len = 0U;
 214              		.loc 1 204 19 discriminator 3
 215 011e FA7B     		ldrb	r2, [r7, #15]	@ zero_extendqisi2
 216              		.loc 1 204 29 discriminator 3
 217 0120 7968     		ldr	r1, [r7, #4]
 218 0122 1346     		mov	r3, r2
 219 0124 DB00     		lsls	r3, r3, #3
 220 0126 9B1A     		subs	r3, r3, r2
 221 0128 9B00     		lsls	r3, r3, #2
 222 012a 0B44     		add	r3, r3, r1
 223 012c 5033     		adds	r3, r3, #80
 224 012e 0022     		movs	r2, #0
 225 0130 1A60     		str	r2, [r3]
 194:Drivers/STM32F4xx_HAL_Driver/Src/stm32f4xx_hal_pcd.c ****   {
 226              		.loc 1 194 47 discriminator 3
 227 0132 FB7B     		ldrb	r3, [r7, #15]	@ zero_extendqisi2
 228 0134 0133     		adds	r3, r3, #1
 229 0136 FB73     		strb	r3, [r7, #15]
 230              	.L7:
 194:Drivers/STM32F4xx_HAL_Driver/Src/stm32f4xx_hal_pcd.c ****   {
 231              		.loc 1 194 18 discriminator 1
 232 0138 FA7B     		ldrb	r2, [r7, #15]	@ zero_extendqisi2
 194:Drivers/STM32F4xx_HAL_Driver/Src/stm32f4xx_hal_pcd.c ****   {
 233              		.loc 1 194 30 discriminator 1
 234 013a 7B68     		ldr	r3, [r7, #4]
 235 013c 5B68     		ldr	r3, [r3, #4]
 194:Drivers/STM32F4xx_HAL_Driver/Src/stm32f4xx_hal_pcd.c ****   {
 236              		.loc 1 194 3 discriminator 1
 237 013e 9A42     		cmp	r2, r3
 238 0140 AFD3     		bcc	.L8
 205:Drivers/STM32F4xx_HAL_Driver/Src/stm32f4xx_hal_pcd.c ****   }
 206:Drivers/STM32F4xx_HAL_Driver/Src/stm32f4xx_hal_pcd.c **** 
 207:Drivers/STM32F4xx_HAL_Driver/Src/stm32f4xx_hal_pcd.c ****   for (i = 0U; i < hpcd->Init.dev_endpoints; i++)
 239              		.loc 1 207 10
 240 0142 0023     		movs	r3, #0
 241 0144 FB73     		strb	r3, [r7, #15]
 242              		.loc 1 207 3
 243 0146 44E0     		b	.L9
 244              	.L10:
 208:Drivers/STM32F4xx_HAL_Driver/Src/stm32f4xx_hal_pcd.c ****   {
 209:Drivers/STM32F4xx_HAL_Driver/Src/stm32f4xx_hal_pcd.c ****     hpcd->OUT_ep[i].is_in = 0U;
ARM GAS  /var/folders/vq/qt4vp3kd5rxf7v2b6_fdtdt80000gn/T//ccs5IouC.s 			page 9


 245              		.loc 1 209 20 discriminator 3
 246 0148 FA7B     		ldrb	r2, [r7, #15]	@ zero_extendqisi2
 247              		.loc 1 209 27 discriminator 3
 248 014a 7968     		ldr	r1, [r7, #4]
 249 014c 1346     		mov	r3, r2
 250 014e DB00     		lsls	r3, r3, #3
 251 0150 9B1A     		subs	r3, r3, r2
 252 0152 9B00     		lsls	r3, r3, #2
 253 0154 0B44     		add	r3, r3, r1
 254 0156 03F2FD13 		addw	r3, r3, #509
 255 015a 0022     		movs	r2, #0
 256 015c 1A70     		strb	r2, [r3]
 210:Drivers/STM32F4xx_HAL_Driver/Src/stm32f4xx_hal_pcd.c ****     hpcd->OUT_ep[i].num = i;
 257              		.loc 1 210 20 discriminator 3
 258 015e FA7B     		ldrb	r2, [r7, #15]	@ zero_extendqisi2
 259              		.loc 1 210 25 discriminator 3
 260 0160 7968     		ldr	r1, [r7, #4]
 261 0162 1346     		mov	r3, r2
 262 0164 DB00     		lsls	r3, r3, #3
 263 0166 9B1A     		subs	r3, r3, r2
 264 0168 9B00     		lsls	r3, r3, #2
 265 016a 0B44     		add	r3, r3, r1
 266 016c 03F5FE73 		add	r3, r3, #508
 267 0170 FA7B     		ldrb	r2, [r7, #15]
 268 0172 1A70     		strb	r2, [r3]
 211:Drivers/STM32F4xx_HAL_Driver/Src/stm32f4xx_hal_pcd.c ****     /* Control until ep is activated */
 212:Drivers/STM32F4xx_HAL_Driver/Src/stm32f4xx_hal_pcd.c ****     hpcd->OUT_ep[i].type = EP_TYPE_CTRL;
 269              		.loc 1 212 20 discriminator 3
 270 0174 FA7B     		ldrb	r2, [r7, #15]	@ zero_extendqisi2
 271              		.loc 1 212 26 discriminator 3
 272 0176 7968     		ldr	r1, [r7, #4]
 273 0178 1346     		mov	r3, r2
 274 017a DB00     		lsls	r3, r3, #3
 275 017c 9B1A     		subs	r3, r3, r2
 276 017e 9B00     		lsls	r3, r3, #2
 277 0180 0B44     		add	r3, r3, r1
 278 0182 03F2FF13 		addw	r3, r3, #511
 279 0186 0022     		movs	r2, #0
 280 0188 1A70     		strb	r2, [r3]
 213:Drivers/STM32F4xx_HAL_Driver/Src/stm32f4xx_hal_pcd.c ****     hpcd->OUT_ep[i].maxpacket = 0U;
 281              		.loc 1 213 20 discriminator 3
 282 018a FA7B     		ldrb	r2, [r7, #15]	@ zero_extendqisi2
 283              		.loc 1 213 31 discriminator 3
 284 018c 7968     		ldr	r1, [r7, #4]
 285 018e 1346     		mov	r3, r2
 286 0190 DB00     		lsls	r3, r3, #3
 287 0192 9B1A     		subs	r3, r3, r2
 288 0194 9B00     		lsls	r3, r3, #2
 289 0196 0B44     		add	r3, r3, r1
 290 0198 03F50173 		add	r3, r3, #516
 291 019c 0022     		movs	r2, #0
 292 019e 1A60     		str	r2, [r3]
 214:Drivers/STM32F4xx_HAL_Driver/Src/stm32f4xx_hal_pcd.c ****     hpcd->OUT_ep[i].xfer_buff = 0U;
 293              		.loc 1 214 20 discriminator 3
 294 01a0 FA7B     		ldrb	r2, [r7, #15]	@ zero_extendqisi2
 295              		.loc 1 214 31 discriminator 3
 296 01a2 7968     		ldr	r1, [r7, #4]
ARM GAS  /var/folders/vq/qt4vp3kd5rxf7v2b6_fdtdt80000gn/T//ccs5IouC.s 			page 10


 297 01a4 1346     		mov	r3, r2
 298 01a6 DB00     		lsls	r3, r3, #3
 299 01a8 9B1A     		subs	r3, r3, r2
 300 01aa 9B00     		lsls	r3, r3, #2
 301 01ac 0B44     		add	r3, r3, r1
 302 01ae 03F50273 		add	r3, r3, #520
 303 01b2 0022     		movs	r2, #0
 304 01b4 1A60     		str	r2, [r3]
 215:Drivers/STM32F4xx_HAL_Driver/Src/stm32f4xx_hal_pcd.c ****     hpcd->OUT_ep[i].xfer_len = 0U;
 305              		.loc 1 215 20 discriminator 3
 306 01b6 FA7B     		ldrb	r2, [r7, #15]	@ zero_extendqisi2
 307              		.loc 1 215 30 discriminator 3
 308 01b8 7968     		ldr	r1, [r7, #4]
 309 01ba 1346     		mov	r3, r2
 310 01bc DB00     		lsls	r3, r3, #3
 311 01be 9B1A     		subs	r3, r3, r2
 312 01c0 9B00     		lsls	r3, r3, #2
 313 01c2 0B44     		add	r3, r3, r1
 314 01c4 03F50473 		add	r3, r3, #528
 315 01c8 0022     		movs	r2, #0
 316 01ca 1A60     		str	r2, [r3]
 207:Drivers/STM32F4xx_HAL_Driver/Src/stm32f4xx_hal_pcd.c ****   {
 317              		.loc 1 207 47 discriminator 3
 318 01cc FB7B     		ldrb	r3, [r7, #15]	@ zero_extendqisi2
 319 01ce 0133     		adds	r3, r3, #1
 320 01d0 FB73     		strb	r3, [r7, #15]
 321              	.L9:
 207:Drivers/STM32F4xx_HAL_Driver/Src/stm32f4xx_hal_pcd.c ****   {
 322              		.loc 1 207 18 discriminator 1
 323 01d2 FA7B     		ldrb	r2, [r7, #15]	@ zero_extendqisi2
 207:Drivers/STM32F4xx_HAL_Driver/Src/stm32f4xx_hal_pcd.c ****   {
 324              		.loc 1 207 30 discriminator 1
 325 01d4 7B68     		ldr	r3, [r7, #4]
 326 01d6 5B68     		ldr	r3, [r3, #4]
 207:Drivers/STM32F4xx_HAL_Driver/Src/stm32f4xx_hal_pcd.c ****   {
 327              		.loc 1 207 3 discriminator 1
 328 01d8 9A42     		cmp	r2, r3
 329 01da B5D3     		bcc	.L10
 216:Drivers/STM32F4xx_HAL_Driver/Src/stm32f4xx_hal_pcd.c ****   }
 217:Drivers/STM32F4xx_HAL_Driver/Src/stm32f4xx_hal_pcd.c **** 
 218:Drivers/STM32F4xx_HAL_Driver/Src/stm32f4xx_hal_pcd.c ****   /* Init Device */
 219:Drivers/STM32F4xx_HAL_Driver/Src/stm32f4xx_hal_pcd.c ****   if (USB_DevInit(hpcd->Instance, hpcd->Init) != HAL_OK)
 330              		.loc 1 219 23
 331 01dc 7B68     		ldr	r3, [r7, #4]
 332 01de 1B68     		ldr	r3, [r3]
 333 01e0 3B60     		str	r3, [r7]
 334              		.loc 1 219 7
 335 01e2 7E68     		ldr	r6, [r7, #4]
 336 01e4 6D46     		mov	r5, sp
 337 01e6 06F11004 		add	r4, r6, #16
 338 01ea 0FCC     		ldmia	r4!, {r0, r1, r2, r3}
 339 01ec 0FC5     		stmia	r5!, {r0, r1, r2, r3}
 340 01ee 0FCC     		ldmia	r4!, {r0, r1, r2, r3}
 341 01f0 0FC5     		stmia	r5!, {r0, r1, r2, r3}
 342 01f2 94E80300 		ldm	r4, {r0, r1}
 343 01f6 85E80300 		stm	r5, {r0, r1}
 344 01fa 331D     		adds	r3, r6, #4
ARM GAS  /var/folders/vq/qt4vp3kd5rxf7v2b6_fdtdt80000gn/T//ccs5IouC.s 			page 11


 345 01fc 0ECB     		ldm	r3, {r1, r2, r3}
 346 01fe 3868     		ldr	r0, [r7]
 347 0200 FFF7FEFF 		bl	USB_DevInit
 348 0204 0346     		mov	r3, r0
 349              		.loc 1 219 6
 350 0206 002B     		cmp	r3, #0
 351 0208 05D0     		beq	.L11
 220:Drivers/STM32F4xx_HAL_Driver/Src/stm32f4xx_hal_pcd.c ****   {
 221:Drivers/STM32F4xx_HAL_Driver/Src/stm32f4xx_hal_pcd.c ****     hpcd->State = HAL_PCD_STATE_ERROR;
 352              		.loc 1 221 17
 353 020a 7B68     		ldr	r3, [r7, #4]
 354 020c 0222     		movs	r2, #2
 355 020e 83F8BD23 		strb	r2, [r3, #957]
 222:Drivers/STM32F4xx_HAL_Driver/Src/stm32f4xx_hal_pcd.c ****     return HAL_ERROR;
 356              		.loc 1 222 12
 357 0212 0123     		movs	r3, #1
 358 0214 0DE0     		b	.L3
 359              	.L11:
 223:Drivers/STM32F4xx_HAL_Driver/Src/stm32f4xx_hal_pcd.c ****   }
 224:Drivers/STM32F4xx_HAL_Driver/Src/stm32f4xx_hal_pcd.c **** 
 225:Drivers/STM32F4xx_HAL_Driver/Src/stm32f4xx_hal_pcd.c ****   hpcd->USB_Address = 0U;
 360              		.loc 1 225 21
 361 0216 7B68     		ldr	r3, [r7, #4]
 362 0218 0022     		movs	r2, #0
 363 021a 83F83820 		strb	r2, [r3, #56]
 226:Drivers/STM32F4xx_HAL_Driver/Src/stm32f4xx_hal_pcd.c ****   hpcd->State = HAL_PCD_STATE_READY;
 364              		.loc 1 226 15
 365 021e 7B68     		ldr	r3, [r7, #4]
 366 0220 0122     		movs	r2, #1
 367 0222 83F8BD23 		strb	r2, [r3, #957]
 227:Drivers/STM32F4xx_HAL_Driver/Src/stm32f4xx_hal_pcd.c ****   #if defined(STM32F446xx) || defined(STM32F469xx) || defined(STM32F479xx) || defined(STM32F412Zx) 
 228:Drivers/STM32F4xx_HAL_Driver/Src/stm32f4xx_hal_pcd.c ****   /* Activate LPM */
 229:Drivers/STM32F4xx_HAL_Driver/Src/stm32f4xx_hal_pcd.c ****   if (hpcd->Init.lpm_enable == 1U)
 230:Drivers/STM32F4xx_HAL_Driver/Src/stm32f4xx_hal_pcd.c ****   {
 231:Drivers/STM32F4xx_HAL_Driver/Src/stm32f4xx_hal_pcd.c ****     (void)HAL_PCDEx_ActivateLPM(hpcd);
 232:Drivers/STM32F4xx_HAL_Driver/Src/stm32f4xx_hal_pcd.c ****   }
 233:Drivers/STM32F4xx_HAL_Driver/Src/stm32f4xx_hal_pcd.c **** #endif /* defined(STM32F446xx) || defined(STM32F469xx) || defined(STM32F479xx) || defined(STM32F412
 234:Drivers/STM32F4xx_HAL_Driver/Src/stm32f4xx_hal_pcd.c ****   (void)USB_DevDisconnect(hpcd->Instance);
 368              		.loc 1 234 31
 369 0226 7B68     		ldr	r3, [r7, #4]
 370 0228 1B68     		ldr	r3, [r3]
 371              		.loc 1 234 9
 372 022a 1846     		mov	r0, r3
 373 022c FFF7FEFF 		bl	USB_DevDisconnect
 235:Drivers/STM32F4xx_HAL_Driver/Src/stm32f4xx_hal_pcd.c **** 
 236:Drivers/STM32F4xx_HAL_Driver/Src/stm32f4xx_hal_pcd.c ****   return HAL_OK;
 374              		.loc 1 236 10
 375 0230 0023     		movs	r3, #0
 376              	.L3:
 237:Drivers/STM32F4xx_HAL_Driver/Src/stm32f4xx_hal_pcd.c **** }
 377              		.loc 1 237 1
 378 0232 1846     		mov	r0, r3
 379 0234 1437     		adds	r7, r7, #20
 380              	.LCFI3:
 381              		.cfi_def_cfa_offset 20
 382 0236 BD46     		mov	sp, r7
 383              	.LCFI4:
ARM GAS  /var/folders/vq/qt4vp3kd5rxf7v2b6_fdtdt80000gn/T//ccs5IouC.s 			page 12


 384              		.cfi_def_cfa_register 13
 385              		@ sp needed
 386 0238 F0BD     		pop	{r4, r5, r6, r7, pc}
 387              		.cfi_endproc
 388              	.LFE130:
 390              		.section	.text.HAL_PCD_DeInit,"ax",%progbits
 391              		.align	1
 392              		.global	HAL_PCD_DeInit
 393              		.syntax unified
 394              		.thumb
 395              		.thumb_func
 396              		.fpu fpv4-sp-d16
 398              	HAL_PCD_DeInit:
 399              	.LFB131:
 238:Drivers/STM32F4xx_HAL_Driver/Src/stm32f4xx_hal_pcd.c **** 
 239:Drivers/STM32F4xx_HAL_Driver/Src/stm32f4xx_hal_pcd.c **** /**
 240:Drivers/STM32F4xx_HAL_Driver/Src/stm32f4xx_hal_pcd.c ****   * @brief  DeInitializes the PCD peripheral.
 241:Drivers/STM32F4xx_HAL_Driver/Src/stm32f4xx_hal_pcd.c ****   * @param  hpcd PCD handle
 242:Drivers/STM32F4xx_HAL_Driver/Src/stm32f4xx_hal_pcd.c ****   * @retval HAL status
 243:Drivers/STM32F4xx_HAL_Driver/Src/stm32f4xx_hal_pcd.c ****   */
 244:Drivers/STM32F4xx_HAL_Driver/Src/stm32f4xx_hal_pcd.c **** HAL_StatusTypeDef HAL_PCD_DeInit(PCD_HandleTypeDef *hpcd)
 245:Drivers/STM32F4xx_HAL_Driver/Src/stm32f4xx_hal_pcd.c **** {
 400              		.loc 1 245 1
 401              		.cfi_startproc
 402              		@ args = 0, pretend = 0, frame = 8
 403              		@ frame_needed = 1, uses_anonymous_args = 0
 404 0000 80B5     		push	{r7, lr}
 405              	.LCFI5:
 406              		.cfi_def_cfa_offset 8
 407              		.cfi_offset 7, -8
 408              		.cfi_offset 14, -4
 409 0002 82B0     		sub	sp, sp, #8
 410              	.LCFI6:
 411              		.cfi_def_cfa_offset 16
 412 0004 00AF     		add	r7, sp, #0
 413              	.LCFI7:
 414              		.cfi_def_cfa_register 7
 415 0006 7860     		str	r0, [r7, #4]
 246:Drivers/STM32F4xx_HAL_Driver/Src/stm32f4xx_hal_pcd.c ****   /* Check the PCD handle allocation */
 247:Drivers/STM32F4xx_HAL_Driver/Src/stm32f4xx_hal_pcd.c ****   if (hpcd == NULL)
 416              		.loc 1 247 6
 417 0008 7B68     		ldr	r3, [r7, #4]
 418 000a 002B     		cmp	r3, #0
 419 000c 01D1     		bne	.L13
 248:Drivers/STM32F4xx_HAL_Driver/Src/stm32f4xx_hal_pcd.c ****   {
 249:Drivers/STM32F4xx_HAL_Driver/Src/stm32f4xx_hal_pcd.c ****     return HAL_ERROR;
 420              		.loc 1 249 12
 421 000e 0123     		movs	r3, #1
 422 0010 15E0     		b	.L14
 423              	.L13:
 250:Drivers/STM32F4xx_HAL_Driver/Src/stm32f4xx_hal_pcd.c ****   }
 251:Drivers/STM32F4xx_HAL_Driver/Src/stm32f4xx_hal_pcd.c **** 
 252:Drivers/STM32F4xx_HAL_Driver/Src/stm32f4xx_hal_pcd.c ****   hpcd->State = HAL_PCD_STATE_BUSY;
 424              		.loc 1 252 15
 425 0012 7B68     		ldr	r3, [r7, #4]
 426 0014 0322     		movs	r2, #3
 427 0016 83F8BD23 		strb	r2, [r3, #957]
ARM GAS  /var/folders/vq/qt4vp3kd5rxf7v2b6_fdtdt80000gn/T//ccs5IouC.s 			page 13


 253:Drivers/STM32F4xx_HAL_Driver/Src/stm32f4xx_hal_pcd.c **** 
 254:Drivers/STM32F4xx_HAL_Driver/Src/stm32f4xx_hal_pcd.c ****   /* Stop Device */
 255:Drivers/STM32F4xx_HAL_Driver/Src/stm32f4xx_hal_pcd.c ****   if (USB_StopDevice(hpcd->Instance) != HAL_OK)
 428              		.loc 1 255 26
 429 001a 7B68     		ldr	r3, [r7, #4]
 430 001c 1B68     		ldr	r3, [r3]
 431              		.loc 1 255 7
 432 001e 1846     		mov	r0, r3
 433 0020 FFF7FEFF 		bl	USB_StopDevice
 434 0024 0346     		mov	r3, r0
 435              		.loc 1 255 6
 436 0026 002B     		cmp	r3, #0
 437 0028 01D0     		beq	.L15
 256:Drivers/STM32F4xx_HAL_Driver/Src/stm32f4xx_hal_pcd.c ****   {
 257:Drivers/STM32F4xx_HAL_Driver/Src/stm32f4xx_hal_pcd.c ****     return HAL_ERROR;
 438              		.loc 1 257 12
 439 002a 0123     		movs	r3, #1
 440 002c 07E0     		b	.L14
 441              	.L15:
 258:Drivers/STM32F4xx_HAL_Driver/Src/stm32f4xx_hal_pcd.c ****   }
 259:Drivers/STM32F4xx_HAL_Driver/Src/stm32f4xx_hal_pcd.c **** 
 260:Drivers/STM32F4xx_HAL_Driver/Src/stm32f4xx_hal_pcd.c **** #if (USE_HAL_PCD_REGISTER_CALLBACKS == 1U)
 261:Drivers/STM32F4xx_HAL_Driver/Src/stm32f4xx_hal_pcd.c ****   if (hpcd->MspDeInitCallback == NULL)
 262:Drivers/STM32F4xx_HAL_Driver/Src/stm32f4xx_hal_pcd.c ****   {
 263:Drivers/STM32F4xx_HAL_Driver/Src/stm32f4xx_hal_pcd.c ****     hpcd->MspDeInitCallback = HAL_PCD_MspDeInit; /* Legacy weak MspDeInit  */
 264:Drivers/STM32F4xx_HAL_Driver/Src/stm32f4xx_hal_pcd.c ****   }
 265:Drivers/STM32F4xx_HAL_Driver/Src/stm32f4xx_hal_pcd.c **** 
 266:Drivers/STM32F4xx_HAL_Driver/Src/stm32f4xx_hal_pcd.c ****   /* DeInit the low level hardware */
 267:Drivers/STM32F4xx_HAL_Driver/Src/stm32f4xx_hal_pcd.c ****   hpcd->MspDeInitCallback(hpcd);
 268:Drivers/STM32F4xx_HAL_Driver/Src/stm32f4xx_hal_pcd.c **** #else
 269:Drivers/STM32F4xx_HAL_Driver/Src/stm32f4xx_hal_pcd.c ****   /* DeInit the low level hardware: CLOCK, NVIC.*/
 270:Drivers/STM32F4xx_HAL_Driver/Src/stm32f4xx_hal_pcd.c ****   HAL_PCD_MspDeInit(hpcd);
 442              		.loc 1 270 3
 443 002e 7868     		ldr	r0, [r7, #4]
 444 0030 FFF7FEFF 		bl	HAL_PCD_MspDeInit
 271:Drivers/STM32F4xx_HAL_Driver/Src/stm32f4xx_hal_pcd.c **** #endif /* USE_HAL_PCD_REGISTER_CALLBACKS */
 272:Drivers/STM32F4xx_HAL_Driver/Src/stm32f4xx_hal_pcd.c **** 
 273:Drivers/STM32F4xx_HAL_Driver/Src/stm32f4xx_hal_pcd.c ****   hpcd->State = HAL_PCD_STATE_RESET;
 445              		.loc 1 273 15
 446 0034 7B68     		ldr	r3, [r7, #4]
 447 0036 0022     		movs	r2, #0
 448 0038 83F8BD23 		strb	r2, [r3, #957]
 274:Drivers/STM32F4xx_HAL_Driver/Src/stm32f4xx_hal_pcd.c **** 
 275:Drivers/STM32F4xx_HAL_Driver/Src/stm32f4xx_hal_pcd.c ****   return HAL_OK;
 449              		.loc 1 275 10
 450 003c 0023     		movs	r3, #0
 451              	.L14:
 276:Drivers/STM32F4xx_HAL_Driver/Src/stm32f4xx_hal_pcd.c **** }
 452              		.loc 1 276 1
 453 003e 1846     		mov	r0, r3
 454 0040 0837     		adds	r7, r7, #8
 455              	.LCFI8:
 456              		.cfi_def_cfa_offset 8
 457 0042 BD46     		mov	sp, r7
 458              	.LCFI9:
 459              		.cfi_def_cfa_register 13
 460              		@ sp needed
ARM GAS  /var/folders/vq/qt4vp3kd5rxf7v2b6_fdtdt80000gn/T//ccs5IouC.s 			page 14


 461 0044 80BD     		pop	{r7, pc}
 462              		.cfi_endproc
 463              	.LFE131:
 465              		.section	.text.HAL_PCD_MspInit,"ax",%progbits
 466              		.align	1
 467              		.weak	HAL_PCD_MspInit
 468              		.syntax unified
 469              		.thumb
 470              		.thumb_func
 471              		.fpu fpv4-sp-d16
 473              	HAL_PCD_MspInit:
 474              	.LFB132:
 277:Drivers/STM32F4xx_HAL_Driver/Src/stm32f4xx_hal_pcd.c **** 
 278:Drivers/STM32F4xx_HAL_Driver/Src/stm32f4xx_hal_pcd.c **** /**
 279:Drivers/STM32F4xx_HAL_Driver/Src/stm32f4xx_hal_pcd.c ****   * @brief  Initializes the PCD MSP.
 280:Drivers/STM32F4xx_HAL_Driver/Src/stm32f4xx_hal_pcd.c ****   * @param  hpcd PCD handle
 281:Drivers/STM32F4xx_HAL_Driver/Src/stm32f4xx_hal_pcd.c ****   * @retval None
 282:Drivers/STM32F4xx_HAL_Driver/Src/stm32f4xx_hal_pcd.c ****   */
 283:Drivers/STM32F4xx_HAL_Driver/Src/stm32f4xx_hal_pcd.c **** __weak void HAL_PCD_MspInit(PCD_HandleTypeDef *hpcd)
 284:Drivers/STM32F4xx_HAL_Driver/Src/stm32f4xx_hal_pcd.c **** {
 475              		.loc 1 284 1
 476              		.cfi_startproc
 477              		@ args = 0, pretend = 0, frame = 8
 478              		@ frame_needed = 1, uses_anonymous_args = 0
 479              		@ link register save eliminated.
 480 0000 80B4     		push	{r7}
 481              	.LCFI10:
 482              		.cfi_def_cfa_offset 4
 483              		.cfi_offset 7, -4
 484 0002 83B0     		sub	sp, sp, #12
 485              	.LCFI11:
 486              		.cfi_def_cfa_offset 16
 487 0004 00AF     		add	r7, sp, #0
 488              	.LCFI12:
 489              		.cfi_def_cfa_register 7
 490 0006 7860     		str	r0, [r7, #4]
 285:Drivers/STM32F4xx_HAL_Driver/Src/stm32f4xx_hal_pcd.c ****   /* Prevent unused argument(s) compilation warning */
 286:Drivers/STM32F4xx_HAL_Driver/Src/stm32f4xx_hal_pcd.c ****   UNUSED(hpcd);
 287:Drivers/STM32F4xx_HAL_Driver/Src/stm32f4xx_hal_pcd.c **** 
 288:Drivers/STM32F4xx_HAL_Driver/Src/stm32f4xx_hal_pcd.c ****   /* NOTE : This function should not be modified, when the callback is needed,
 289:Drivers/STM32F4xx_HAL_Driver/Src/stm32f4xx_hal_pcd.c ****             the HAL_PCD_MspInit could be implemented in the user file
 290:Drivers/STM32F4xx_HAL_Driver/Src/stm32f4xx_hal_pcd.c ****    */
 291:Drivers/STM32F4xx_HAL_Driver/Src/stm32f4xx_hal_pcd.c **** }
 491              		.loc 1 291 1
 492 0008 00BF     		nop
 493 000a 0C37     		adds	r7, r7, #12
 494              	.LCFI13:
 495              		.cfi_def_cfa_offset 4
 496 000c BD46     		mov	sp, r7
 497              	.LCFI14:
 498              		.cfi_def_cfa_register 13
 499              		@ sp needed
 500 000e 5DF8047B 		ldr	r7, [sp], #4
 501              	.LCFI15:
 502              		.cfi_restore 7
 503              		.cfi_def_cfa_offset 0
 504 0012 7047     		bx	lr
ARM GAS  /var/folders/vq/qt4vp3kd5rxf7v2b6_fdtdt80000gn/T//ccs5IouC.s 			page 15


 505              		.cfi_endproc
 506              	.LFE132:
 508              		.section	.text.HAL_PCD_MspDeInit,"ax",%progbits
 509              		.align	1
 510              		.weak	HAL_PCD_MspDeInit
 511              		.syntax unified
 512              		.thumb
 513              		.thumb_func
 514              		.fpu fpv4-sp-d16
 516              	HAL_PCD_MspDeInit:
 517              	.LFB133:
 292:Drivers/STM32F4xx_HAL_Driver/Src/stm32f4xx_hal_pcd.c **** 
 293:Drivers/STM32F4xx_HAL_Driver/Src/stm32f4xx_hal_pcd.c **** /**
 294:Drivers/STM32F4xx_HAL_Driver/Src/stm32f4xx_hal_pcd.c ****   * @brief  DeInitializes PCD MSP.
 295:Drivers/STM32F4xx_HAL_Driver/Src/stm32f4xx_hal_pcd.c ****   * @param  hpcd PCD handle
 296:Drivers/STM32F4xx_HAL_Driver/Src/stm32f4xx_hal_pcd.c ****   * @retval None
 297:Drivers/STM32F4xx_HAL_Driver/Src/stm32f4xx_hal_pcd.c ****   */
 298:Drivers/STM32F4xx_HAL_Driver/Src/stm32f4xx_hal_pcd.c **** __weak void HAL_PCD_MspDeInit(PCD_HandleTypeDef *hpcd)
 299:Drivers/STM32F4xx_HAL_Driver/Src/stm32f4xx_hal_pcd.c **** {
 518              		.loc 1 299 1
 519              		.cfi_startproc
 520              		@ args = 0, pretend = 0, frame = 8
 521              		@ frame_needed = 1, uses_anonymous_args = 0
 522              		@ link register save eliminated.
 523 0000 80B4     		push	{r7}
 524              	.LCFI16:
 525              		.cfi_def_cfa_offset 4
 526              		.cfi_offset 7, -4
 527 0002 83B0     		sub	sp, sp, #12
 528              	.LCFI17:
 529              		.cfi_def_cfa_offset 16
 530 0004 00AF     		add	r7, sp, #0
 531              	.LCFI18:
 532              		.cfi_def_cfa_register 7
 533 0006 7860     		str	r0, [r7, #4]
 300:Drivers/STM32F4xx_HAL_Driver/Src/stm32f4xx_hal_pcd.c ****   /* Prevent unused argument(s) compilation warning */
 301:Drivers/STM32F4xx_HAL_Driver/Src/stm32f4xx_hal_pcd.c ****   UNUSED(hpcd);
 302:Drivers/STM32F4xx_HAL_Driver/Src/stm32f4xx_hal_pcd.c **** 
 303:Drivers/STM32F4xx_HAL_Driver/Src/stm32f4xx_hal_pcd.c ****   /* NOTE : This function should not be modified, when the callback is needed,
 304:Drivers/STM32F4xx_HAL_Driver/Src/stm32f4xx_hal_pcd.c ****             the HAL_PCD_MspDeInit could be implemented in the user file
 305:Drivers/STM32F4xx_HAL_Driver/Src/stm32f4xx_hal_pcd.c ****    */
 306:Drivers/STM32F4xx_HAL_Driver/Src/stm32f4xx_hal_pcd.c **** }
 534              		.loc 1 306 1
 535 0008 00BF     		nop
 536 000a 0C37     		adds	r7, r7, #12
 537              	.LCFI19:
 538              		.cfi_def_cfa_offset 4
 539 000c BD46     		mov	sp, r7
 540              	.LCFI20:
 541              		.cfi_def_cfa_register 13
 542              		@ sp needed
 543 000e 5DF8047B 		ldr	r7, [sp], #4
 544              	.LCFI21:
 545              		.cfi_restore 7
 546              		.cfi_def_cfa_offset 0
 547 0012 7047     		bx	lr
 548              		.cfi_endproc
ARM GAS  /var/folders/vq/qt4vp3kd5rxf7v2b6_fdtdt80000gn/T//ccs5IouC.s 			page 16


 549              	.LFE133:
 551              		.section	.text.HAL_PCD_Start,"ax",%progbits
 552              		.align	1
 553              		.global	HAL_PCD_Start
 554              		.syntax unified
 555              		.thumb
 556              		.thumb_func
 557              		.fpu fpv4-sp-d16
 559              	HAL_PCD_Start:
 560              	.LFB134:
 307:Drivers/STM32F4xx_HAL_Driver/Src/stm32f4xx_hal_pcd.c **** 
 308:Drivers/STM32F4xx_HAL_Driver/Src/stm32f4xx_hal_pcd.c **** #if (USE_HAL_PCD_REGISTER_CALLBACKS == 1U)
 309:Drivers/STM32F4xx_HAL_Driver/Src/stm32f4xx_hal_pcd.c **** /**
 310:Drivers/STM32F4xx_HAL_Driver/Src/stm32f4xx_hal_pcd.c ****   * @brief  Register a User USB PCD Callback
 311:Drivers/STM32F4xx_HAL_Driver/Src/stm32f4xx_hal_pcd.c ****   *         To be used instead of the weak predefined callback
 312:Drivers/STM32F4xx_HAL_Driver/Src/stm32f4xx_hal_pcd.c ****   * @param  hpcd USB PCD handle
 313:Drivers/STM32F4xx_HAL_Driver/Src/stm32f4xx_hal_pcd.c ****   * @param  CallbackID ID of the callback to be registered
 314:Drivers/STM32F4xx_HAL_Driver/Src/stm32f4xx_hal_pcd.c ****   *         This parameter can be one of the following values:
 315:Drivers/STM32F4xx_HAL_Driver/Src/stm32f4xx_hal_pcd.c ****   *          @arg @ref HAL_PCD_SOF_CB_ID USB PCD SOF callback ID
 316:Drivers/STM32F4xx_HAL_Driver/Src/stm32f4xx_hal_pcd.c ****   *          @arg @ref HAL_PCD_SETUPSTAGE_CB_ID USB PCD Setup callback ID
 317:Drivers/STM32F4xx_HAL_Driver/Src/stm32f4xx_hal_pcd.c ****   *          @arg @ref HAL_PCD_RESET_CB_ID USB PCD Reset callback ID
 318:Drivers/STM32F4xx_HAL_Driver/Src/stm32f4xx_hal_pcd.c ****   *          @arg @ref HAL_PCD_SUSPEND_CB_ID USB PCD Suspend callback ID
 319:Drivers/STM32F4xx_HAL_Driver/Src/stm32f4xx_hal_pcd.c ****   *          @arg @ref HAL_PCD_RESUME_CB_ID USB PCD Resume callback ID
 320:Drivers/STM32F4xx_HAL_Driver/Src/stm32f4xx_hal_pcd.c ****   *          @arg @ref HAL_PCD_CONNECT_CB_ID USB PCD Connect callback ID
 321:Drivers/STM32F4xx_HAL_Driver/Src/stm32f4xx_hal_pcd.c ****   *          @arg @ref HAL_PCD_DISCONNECT_CB_ID OTG PCD Disconnect callback ID
 322:Drivers/STM32F4xx_HAL_Driver/Src/stm32f4xx_hal_pcd.c ****   *          @arg @ref HAL_PCD_MSPINIT_CB_ID MspDeInit callback ID
 323:Drivers/STM32F4xx_HAL_Driver/Src/stm32f4xx_hal_pcd.c ****   *          @arg @ref HAL_PCD_MSPDEINIT_CB_ID MspDeInit callback ID
 324:Drivers/STM32F4xx_HAL_Driver/Src/stm32f4xx_hal_pcd.c ****   * @param  pCallback pointer to the Callback function
 325:Drivers/STM32F4xx_HAL_Driver/Src/stm32f4xx_hal_pcd.c ****   * @retval HAL status
 326:Drivers/STM32F4xx_HAL_Driver/Src/stm32f4xx_hal_pcd.c ****   */
 327:Drivers/STM32F4xx_HAL_Driver/Src/stm32f4xx_hal_pcd.c **** HAL_StatusTypeDef HAL_PCD_RegisterCallback(PCD_HandleTypeDef *hpcd,
 328:Drivers/STM32F4xx_HAL_Driver/Src/stm32f4xx_hal_pcd.c ****                                            HAL_PCD_CallbackIDTypeDef CallbackID,
 329:Drivers/STM32F4xx_HAL_Driver/Src/stm32f4xx_hal_pcd.c ****                                            pPCD_CallbackTypeDef pCallback)
 330:Drivers/STM32F4xx_HAL_Driver/Src/stm32f4xx_hal_pcd.c **** {
 331:Drivers/STM32F4xx_HAL_Driver/Src/stm32f4xx_hal_pcd.c ****   HAL_StatusTypeDef status = HAL_OK;
 332:Drivers/STM32F4xx_HAL_Driver/Src/stm32f4xx_hal_pcd.c **** 
 333:Drivers/STM32F4xx_HAL_Driver/Src/stm32f4xx_hal_pcd.c ****   if (pCallback == NULL)
 334:Drivers/STM32F4xx_HAL_Driver/Src/stm32f4xx_hal_pcd.c ****   {
 335:Drivers/STM32F4xx_HAL_Driver/Src/stm32f4xx_hal_pcd.c ****     /* Update the error code */
 336:Drivers/STM32F4xx_HAL_Driver/Src/stm32f4xx_hal_pcd.c ****     hpcd->ErrorCode |= HAL_PCD_ERROR_INVALID_CALLBACK;
 337:Drivers/STM32F4xx_HAL_Driver/Src/stm32f4xx_hal_pcd.c ****     return HAL_ERROR;
 338:Drivers/STM32F4xx_HAL_Driver/Src/stm32f4xx_hal_pcd.c ****   }
 339:Drivers/STM32F4xx_HAL_Driver/Src/stm32f4xx_hal_pcd.c ****   /* Process locked */
 340:Drivers/STM32F4xx_HAL_Driver/Src/stm32f4xx_hal_pcd.c ****   __HAL_LOCK(hpcd);
 341:Drivers/STM32F4xx_HAL_Driver/Src/stm32f4xx_hal_pcd.c **** 
 342:Drivers/STM32F4xx_HAL_Driver/Src/stm32f4xx_hal_pcd.c ****   if (hpcd->State == HAL_PCD_STATE_READY)
 343:Drivers/STM32F4xx_HAL_Driver/Src/stm32f4xx_hal_pcd.c ****   {
 344:Drivers/STM32F4xx_HAL_Driver/Src/stm32f4xx_hal_pcd.c ****     switch (CallbackID)
 345:Drivers/STM32F4xx_HAL_Driver/Src/stm32f4xx_hal_pcd.c ****     {
 346:Drivers/STM32F4xx_HAL_Driver/Src/stm32f4xx_hal_pcd.c ****       case HAL_PCD_SOF_CB_ID :
 347:Drivers/STM32F4xx_HAL_Driver/Src/stm32f4xx_hal_pcd.c ****         hpcd->SOFCallback = pCallback;
 348:Drivers/STM32F4xx_HAL_Driver/Src/stm32f4xx_hal_pcd.c ****         break;
 349:Drivers/STM32F4xx_HAL_Driver/Src/stm32f4xx_hal_pcd.c **** 
 350:Drivers/STM32F4xx_HAL_Driver/Src/stm32f4xx_hal_pcd.c ****       case HAL_PCD_SETUPSTAGE_CB_ID :
 351:Drivers/STM32F4xx_HAL_Driver/Src/stm32f4xx_hal_pcd.c ****         hpcd->SetupStageCallback = pCallback;
 352:Drivers/STM32F4xx_HAL_Driver/Src/stm32f4xx_hal_pcd.c ****         break;
 353:Drivers/STM32F4xx_HAL_Driver/Src/stm32f4xx_hal_pcd.c **** 
ARM GAS  /var/folders/vq/qt4vp3kd5rxf7v2b6_fdtdt80000gn/T//ccs5IouC.s 			page 17


 354:Drivers/STM32F4xx_HAL_Driver/Src/stm32f4xx_hal_pcd.c ****       case HAL_PCD_RESET_CB_ID :
 355:Drivers/STM32F4xx_HAL_Driver/Src/stm32f4xx_hal_pcd.c ****         hpcd->ResetCallback = pCallback;
 356:Drivers/STM32F4xx_HAL_Driver/Src/stm32f4xx_hal_pcd.c ****         break;
 357:Drivers/STM32F4xx_HAL_Driver/Src/stm32f4xx_hal_pcd.c **** 
 358:Drivers/STM32F4xx_HAL_Driver/Src/stm32f4xx_hal_pcd.c ****       case HAL_PCD_SUSPEND_CB_ID :
 359:Drivers/STM32F4xx_HAL_Driver/Src/stm32f4xx_hal_pcd.c ****         hpcd->SuspendCallback = pCallback;
 360:Drivers/STM32F4xx_HAL_Driver/Src/stm32f4xx_hal_pcd.c ****         break;
 361:Drivers/STM32F4xx_HAL_Driver/Src/stm32f4xx_hal_pcd.c **** 
 362:Drivers/STM32F4xx_HAL_Driver/Src/stm32f4xx_hal_pcd.c ****       case HAL_PCD_RESUME_CB_ID :
 363:Drivers/STM32F4xx_HAL_Driver/Src/stm32f4xx_hal_pcd.c ****         hpcd->ResumeCallback = pCallback;
 364:Drivers/STM32F4xx_HAL_Driver/Src/stm32f4xx_hal_pcd.c ****         break;
 365:Drivers/STM32F4xx_HAL_Driver/Src/stm32f4xx_hal_pcd.c **** 
 366:Drivers/STM32F4xx_HAL_Driver/Src/stm32f4xx_hal_pcd.c ****       case HAL_PCD_CONNECT_CB_ID :
 367:Drivers/STM32F4xx_HAL_Driver/Src/stm32f4xx_hal_pcd.c ****         hpcd->ConnectCallback = pCallback;
 368:Drivers/STM32F4xx_HAL_Driver/Src/stm32f4xx_hal_pcd.c ****         break;
 369:Drivers/STM32F4xx_HAL_Driver/Src/stm32f4xx_hal_pcd.c **** 
 370:Drivers/STM32F4xx_HAL_Driver/Src/stm32f4xx_hal_pcd.c ****       case HAL_PCD_DISCONNECT_CB_ID :
 371:Drivers/STM32F4xx_HAL_Driver/Src/stm32f4xx_hal_pcd.c ****         hpcd->DisconnectCallback = pCallback;
 372:Drivers/STM32F4xx_HAL_Driver/Src/stm32f4xx_hal_pcd.c ****         break;
 373:Drivers/STM32F4xx_HAL_Driver/Src/stm32f4xx_hal_pcd.c **** 
 374:Drivers/STM32F4xx_HAL_Driver/Src/stm32f4xx_hal_pcd.c ****       case HAL_PCD_MSPINIT_CB_ID :
 375:Drivers/STM32F4xx_HAL_Driver/Src/stm32f4xx_hal_pcd.c ****         hpcd->MspInitCallback = pCallback;
 376:Drivers/STM32F4xx_HAL_Driver/Src/stm32f4xx_hal_pcd.c ****         break;
 377:Drivers/STM32F4xx_HAL_Driver/Src/stm32f4xx_hal_pcd.c **** 
 378:Drivers/STM32F4xx_HAL_Driver/Src/stm32f4xx_hal_pcd.c ****       case HAL_PCD_MSPDEINIT_CB_ID :
 379:Drivers/STM32F4xx_HAL_Driver/Src/stm32f4xx_hal_pcd.c ****         hpcd->MspDeInitCallback = pCallback;
 380:Drivers/STM32F4xx_HAL_Driver/Src/stm32f4xx_hal_pcd.c ****         break;
 381:Drivers/STM32F4xx_HAL_Driver/Src/stm32f4xx_hal_pcd.c **** 
 382:Drivers/STM32F4xx_HAL_Driver/Src/stm32f4xx_hal_pcd.c ****       default :
 383:Drivers/STM32F4xx_HAL_Driver/Src/stm32f4xx_hal_pcd.c ****         /* Update the error code */
 384:Drivers/STM32F4xx_HAL_Driver/Src/stm32f4xx_hal_pcd.c ****         hpcd->ErrorCode |= HAL_PCD_ERROR_INVALID_CALLBACK;
 385:Drivers/STM32F4xx_HAL_Driver/Src/stm32f4xx_hal_pcd.c ****         /* Return error status */
 386:Drivers/STM32F4xx_HAL_Driver/Src/stm32f4xx_hal_pcd.c ****         status =  HAL_ERROR;
 387:Drivers/STM32F4xx_HAL_Driver/Src/stm32f4xx_hal_pcd.c ****         break;
 388:Drivers/STM32F4xx_HAL_Driver/Src/stm32f4xx_hal_pcd.c ****     }
 389:Drivers/STM32F4xx_HAL_Driver/Src/stm32f4xx_hal_pcd.c ****   }
 390:Drivers/STM32F4xx_HAL_Driver/Src/stm32f4xx_hal_pcd.c ****   else if (hpcd->State == HAL_PCD_STATE_RESET)
 391:Drivers/STM32F4xx_HAL_Driver/Src/stm32f4xx_hal_pcd.c ****   {
 392:Drivers/STM32F4xx_HAL_Driver/Src/stm32f4xx_hal_pcd.c ****     switch (CallbackID)
 393:Drivers/STM32F4xx_HAL_Driver/Src/stm32f4xx_hal_pcd.c ****     {
 394:Drivers/STM32F4xx_HAL_Driver/Src/stm32f4xx_hal_pcd.c ****       case HAL_PCD_MSPINIT_CB_ID :
 395:Drivers/STM32F4xx_HAL_Driver/Src/stm32f4xx_hal_pcd.c ****         hpcd->MspInitCallback = pCallback;
 396:Drivers/STM32F4xx_HAL_Driver/Src/stm32f4xx_hal_pcd.c ****         break;
 397:Drivers/STM32F4xx_HAL_Driver/Src/stm32f4xx_hal_pcd.c **** 
 398:Drivers/STM32F4xx_HAL_Driver/Src/stm32f4xx_hal_pcd.c ****       case HAL_PCD_MSPDEINIT_CB_ID :
 399:Drivers/STM32F4xx_HAL_Driver/Src/stm32f4xx_hal_pcd.c ****         hpcd->MspDeInitCallback = pCallback;
 400:Drivers/STM32F4xx_HAL_Driver/Src/stm32f4xx_hal_pcd.c ****         break;
 401:Drivers/STM32F4xx_HAL_Driver/Src/stm32f4xx_hal_pcd.c **** 
 402:Drivers/STM32F4xx_HAL_Driver/Src/stm32f4xx_hal_pcd.c ****       default :
 403:Drivers/STM32F4xx_HAL_Driver/Src/stm32f4xx_hal_pcd.c ****         /* Update the error code */
 404:Drivers/STM32F4xx_HAL_Driver/Src/stm32f4xx_hal_pcd.c ****         hpcd->ErrorCode |= HAL_PCD_ERROR_INVALID_CALLBACK;
 405:Drivers/STM32F4xx_HAL_Driver/Src/stm32f4xx_hal_pcd.c ****         /* Return error status */
 406:Drivers/STM32F4xx_HAL_Driver/Src/stm32f4xx_hal_pcd.c ****         status =  HAL_ERROR;
 407:Drivers/STM32F4xx_HAL_Driver/Src/stm32f4xx_hal_pcd.c ****         break;
 408:Drivers/STM32F4xx_HAL_Driver/Src/stm32f4xx_hal_pcd.c ****     }
 409:Drivers/STM32F4xx_HAL_Driver/Src/stm32f4xx_hal_pcd.c ****   }
 410:Drivers/STM32F4xx_HAL_Driver/Src/stm32f4xx_hal_pcd.c ****   else
ARM GAS  /var/folders/vq/qt4vp3kd5rxf7v2b6_fdtdt80000gn/T//ccs5IouC.s 			page 18


 411:Drivers/STM32F4xx_HAL_Driver/Src/stm32f4xx_hal_pcd.c ****   {
 412:Drivers/STM32F4xx_HAL_Driver/Src/stm32f4xx_hal_pcd.c ****     /* Update the error code */
 413:Drivers/STM32F4xx_HAL_Driver/Src/stm32f4xx_hal_pcd.c ****     hpcd->ErrorCode |= HAL_PCD_ERROR_INVALID_CALLBACK;
 414:Drivers/STM32F4xx_HAL_Driver/Src/stm32f4xx_hal_pcd.c ****     /* Return error status */
 415:Drivers/STM32F4xx_HAL_Driver/Src/stm32f4xx_hal_pcd.c ****     status =  HAL_ERROR;
 416:Drivers/STM32F4xx_HAL_Driver/Src/stm32f4xx_hal_pcd.c ****   }
 417:Drivers/STM32F4xx_HAL_Driver/Src/stm32f4xx_hal_pcd.c **** 
 418:Drivers/STM32F4xx_HAL_Driver/Src/stm32f4xx_hal_pcd.c ****   /* Release Lock */
 419:Drivers/STM32F4xx_HAL_Driver/Src/stm32f4xx_hal_pcd.c ****   __HAL_UNLOCK(hpcd);
 420:Drivers/STM32F4xx_HAL_Driver/Src/stm32f4xx_hal_pcd.c ****   return status;
 421:Drivers/STM32F4xx_HAL_Driver/Src/stm32f4xx_hal_pcd.c **** }
 422:Drivers/STM32F4xx_HAL_Driver/Src/stm32f4xx_hal_pcd.c **** 
 423:Drivers/STM32F4xx_HAL_Driver/Src/stm32f4xx_hal_pcd.c **** /**
 424:Drivers/STM32F4xx_HAL_Driver/Src/stm32f4xx_hal_pcd.c ****   * @brief  Unregister an USB PCD Callback
 425:Drivers/STM32F4xx_HAL_Driver/Src/stm32f4xx_hal_pcd.c ****   *         USB PCD callabck is redirected to the weak predefined callback
 426:Drivers/STM32F4xx_HAL_Driver/Src/stm32f4xx_hal_pcd.c ****   * @param  hpcd USB PCD handle
 427:Drivers/STM32F4xx_HAL_Driver/Src/stm32f4xx_hal_pcd.c ****   * @param  CallbackID ID of the callback to be unregistered
 428:Drivers/STM32F4xx_HAL_Driver/Src/stm32f4xx_hal_pcd.c ****   *         This parameter can be one of the following values:
 429:Drivers/STM32F4xx_HAL_Driver/Src/stm32f4xx_hal_pcd.c ****   *          @arg @ref HAL_PCD_SOF_CB_ID USB PCD SOF callback ID
 430:Drivers/STM32F4xx_HAL_Driver/Src/stm32f4xx_hal_pcd.c ****   *          @arg @ref HAL_PCD_SETUPSTAGE_CB_ID USB PCD Setup callback ID
 431:Drivers/STM32F4xx_HAL_Driver/Src/stm32f4xx_hal_pcd.c ****   *          @arg @ref HAL_PCD_RESET_CB_ID USB PCD Reset callback ID
 432:Drivers/STM32F4xx_HAL_Driver/Src/stm32f4xx_hal_pcd.c ****   *          @arg @ref HAL_PCD_SUSPEND_CB_ID USB PCD Suspend callback ID
 433:Drivers/STM32F4xx_HAL_Driver/Src/stm32f4xx_hal_pcd.c ****   *          @arg @ref HAL_PCD_RESUME_CB_ID USB PCD Resume callback ID
 434:Drivers/STM32F4xx_HAL_Driver/Src/stm32f4xx_hal_pcd.c ****   *          @arg @ref HAL_PCD_CONNECT_CB_ID USB PCD Connect callback ID
 435:Drivers/STM32F4xx_HAL_Driver/Src/stm32f4xx_hal_pcd.c ****   *          @arg @ref HAL_PCD_DISCONNECT_CB_ID OTG PCD Disconnect callback ID
 436:Drivers/STM32F4xx_HAL_Driver/Src/stm32f4xx_hal_pcd.c ****   *          @arg @ref HAL_PCD_MSPINIT_CB_ID MspDeInit callback ID
 437:Drivers/STM32F4xx_HAL_Driver/Src/stm32f4xx_hal_pcd.c ****   *          @arg @ref HAL_PCD_MSPDEINIT_CB_ID MspDeInit callback ID
 438:Drivers/STM32F4xx_HAL_Driver/Src/stm32f4xx_hal_pcd.c ****   * @retval HAL status
 439:Drivers/STM32F4xx_HAL_Driver/Src/stm32f4xx_hal_pcd.c ****   */
 440:Drivers/STM32F4xx_HAL_Driver/Src/stm32f4xx_hal_pcd.c **** HAL_StatusTypeDef HAL_PCD_UnRegisterCallback(PCD_HandleTypeDef *hpcd, HAL_PCD_CallbackIDTypeDef Cal
 441:Drivers/STM32F4xx_HAL_Driver/Src/stm32f4xx_hal_pcd.c **** {
 442:Drivers/STM32F4xx_HAL_Driver/Src/stm32f4xx_hal_pcd.c ****   HAL_StatusTypeDef status = HAL_OK;
 443:Drivers/STM32F4xx_HAL_Driver/Src/stm32f4xx_hal_pcd.c **** 
 444:Drivers/STM32F4xx_HAL_Driver/Src/stm32f4xx_hal_pcd.c ****   /* Process locked */
 445:Drivers/STM32F4xx_HAL_Driver/Src/stm32f4xx_hal_pcd.c ****   __HAL_LOCK(hpcd);
 446:Drivers/STM32F4xx_HAL_Driver/Src/stm32f4xx_hal_pcd.c **** 
 447:Drivers/STM32F4xx_HAL_Driver/Src/stm32f4xx_hal_pcd.c ****   /* Setup Legacy weak Callbacks  */
 448:Drivers/STM32F4xx_HAL_Driver/Src/stm32f4xx_hal_pcd.c ****   if (hpcd->State == HAL_PCD_STATE_READY)
 449:Drivers/STM32F4xx_HAL_Driver/Src/stm32f4xx_hal_pcd.c ****   {
 450:Drivers/STM32F4xx_HAL_Driver/Src/stm32f4xx_hal_pcd.c ****     switch (CallbackID)
 451:Drivers/STM32F4xx_HAL_Driver/Src/stm32f4xx_hal_pcd.c ****     {
 452:Drivers/STM32F4xx_HAL_Driver/Src/stm32f4xx_hal_pcd.c ****       case HAL_PCD_SOF_CB_ID :
 453:Drivers/STM32F4xx_HAL_Driver/Src/stm32f4xx_hal_pcd.c ****         hpcd->SOFCallback = HAL_PCD_SOFCallback;
 454:Drivers/STM32F4xx_HAL_Driver/Src/stm32f4xx_hal_pcd.c ****         break;
 455:Drivers/STM32F4xx_HAL_Driver/Src/stm32f4xx_hal_pcd.c **** 
 456:Drivers/STM32F4xx_HAL_Driver/Src/stm32f4xx_hal_pcd.c ****       case HAL_PCD_SETUPSTAGE_CB_ID :
 457:Drivers/STM32F4xx_HAL_Driver/Src/stm32f4xx_hal_pcd.c ****         hpcd->SetupStageCallback = HAL_PCD_SetupStageCallback;
 458:Drivers/STM32F4xx_HAL_Driver/Src/stm32f4xx_hal_pcd.c ****         break;
 459:Drivers/STM32F4xx_HAL_Driver/Src/stm32f4xx_hal_pcd.c **** 
 460:Drivers/STM32F4xx_HAL_Driver/Src/stm32f4xx_hal_pcd.c ****       case HAL_PCD_RESET_CB_ID :
 461:Drivers/STM32F4xx_HAL_Driver/Src/stm32f4xx_hal_pcd.c ****         hpcd->ResetCallback = HAL_PCD_ResetCallback;
 462:Drivers/STM32F4xx_HAL_Driver/Src/stm32f4xx_hal_pcd.c ****         break;
 463:Drivers/STM32F4xx_HAL_Driver/Src/stm32f4xx_hal_pcd.c **** 
 464:Drivers/STM32F4xx_HAL_Driver/Src/stm32f4xx_hal_pcd.c ****       case HAL_PCD_SUSPEND_CB_ID :
 465:Drivers/STM32F4xx_HAL_Driver/Src/stm32f4xx_hal_pcd.c ****         hpcd->SuspendCallback = HAL_PCD_SuspendCallback;
 466:Drivers/STM32F4xx_HAL_Driver/Src/stm32f4xx_hal_pcd.c ****         break;
 467:Drivers/STM32F4xx_HAL_Driver/Src/stm32f4xx_hal_pcd.c **** 
ARM GAS  /var/folders/vq/qt4vp3kd5rxf7v2b6_fdtdt80000gn/T//ccs5IouC.s 			page 19


 468:Drivers/STM32F4xx_HAL_Driver/Src/stm32f4xx_hal_pcd.c ****       case HAL_PCD_RESUME_CB_ID :
 469:Drivers/STM32F4xx_HAL_Driver/Src/stm32f4xx_hal_pcd.c ****         hpcd->ResumeCallback = HAL_PCD_ResumeCallback;
 470:Drivers/STM32F4xx_HAL_Driver/Src/stm32f4xx_hal_pcd.c ****         break;
 471:Drivers/STM32F4xx_HAL_Driver/Src/stm32f4xx_hal_pcd.c **** 
 472:Drivers/STM32F4xx_HAL_Driver/Src/stm32f4xx_hal_pcd.c ****       case HAL_PCD_CONNECT_CB_ID :
 473:Drivers/STM32F4xx_HAL_Driver/Src/stm32f4xx_hal_pcd.c ****         hpcd->ConnectCallback = HAL_PCD_ConnectCallback;
 474:Drivers/STM32F4xx_HAL_Driver/Src/stm32f4xx_hal_pcd.c ****         break;
 475:Drivers/STM32F4xx_HAL_Driver/Src/stm32f4xx_hal_pcd.c **** 
 476:Drivers/STM32F4xx_HAL_Driver/Src/stm32f4xx_hal_pcd.c ****       case HAL_PCD_DISCONNECT_CB_ID :
 477:Drivers/STM32F4xx_HAL_Driver/Src/stm32f4xx_hal_pcd.c ****         hpcd->DisconnectCallback = HAL_PCD_DisconnectCallback;
 478:Drivers/STM32F4xx_HAL_Driver/Src/stm32f4xx_hal_pcd.c ****         break;
 479:Drivers/STM32F4xx_HAL_Driver/Src/stm32f4xx_hal_pcd.c **** 
 480:Drivers/STM32F4xx_HAL_Driver/Src/stm32f4xx_hal_pcd.c ****       case HAL_PCD_MSPINIT_CB_ID :
 481:Drivers/STM32F4xx_HAL_Driver/Src/stm32f4xx_hal_pcd.c ****         hpcd->MspInitCallback = HAL_PCD_MspInit;
 482:Drivers/STM32F4xx_HAL_Driver/Src/stm32f4xx_hal_pcd.c ****         break;
 483:Drivers/STM32F4xx_HAL_Driver/Src/stm32f4xx_hal_pcd.c **** 
 484:Drivers/STM32F4xx_HAL_Driver/Src/stm32f4xx_hal_pcd.c ****       case HAL_PCD_MSPDEINIT_CB_ID :
 485:Drivers/STM32F4xx_HAL_Driver/Src/stm32f4xx_hal_pcd.c ****         hpcd->MspDeInitCallback = HAL_PCD_MspDeInit;
 486:Drivers/STM32F4xx_HAL_Driver/Src/stm32f4xx_hal_pcd.c ****         break;
 487:Drivers/STM32F4xx_HAL_Driver/Src/stm32f4xx_hal_pcd.c **** 
 488:Drivers/STM32F4xx_HAL_Driver/Src/stm32f4xx_hal_pcd.c ****       default :
 489:Drivers/STM32F4xx_HAL_Driver/Src/stm32f4xx_hal_pcd.c ****         /* Update the error code */
 490:Drivers/STM32F4xx_HAL_Driver/Src/stm32f4xx_hal_pcd.c ****         hpcd->ErrorCode |= HAL_PCD_ERROR_INVALID_CALLBACK;
 491:Drivers/STM32F4xx_HAL_Driver/Src/stm32f4xx_hal_pcd.c **** 
 492:Drivers/STM32F4xx_HAL_Driver/Src/stm32f4xx_hal_pcd.c ****         /* Return error status */
 493:Drivers/STM32F4xx_HAL_Driver/Src/stm32f4xx_hal_pcd.c ****         status =  HAL_ERROR;
 494:Drivers/STM32F4xx_HAL_Driver/Src/stm32f4xx_hal_pcd.c ****         break;
 495:Drivers/STM32F4xx_HAL_Driver/Src/stm32f4xx_hal_pcd.c ****     }
 496:Drivers/STM32F4xx_HAL_Driver/Src/stm32f4xx_hal_pcd.c ****   }
 497:Drivers/STM32F4xx_HAL_Driver/Src/stm32f4xx_hal_pcd.c ****   else if (hpcd->State == HAL_PCD_STATE_RESET)
 498:Drivers/STM32F4xx_HAL_Driver/Src/stm32f4xx_hal_pcd.c ****   {
 499:Drivers/STM32F4xx_HAL_Driver/Src/stm32f4xx_hal_pcd.c ****     switch (CallbackID)
 500:Drivers/STM32F4xx_HAL_Driver/Src/stm32f4xx_hal_pcd.c ****     {
 501:Drivers/STM32F4xx_HAL_Driver/Src/stm32f4xx_hal_pcd.c ****       case HAL_PCD_MSPINIT_CB_ID :
 502:Drivers/STM32F4xx_HAL_Driver/Src/stm32f4xx_hal_pcd.c ****         hpcd->MspInitCallback = HAL_PCD_MspInit;
 503:Drivers/STM32F4xx_HAL_Driver/Src/stm32f4xx_hal_pcd.c ****         break;
 504:Drivers/STM32F4xx_HAL_Driver/Src/stm32f4xx_hal_pcd.c **** 
 505:Drivers/STM32F4xx_HAL_Driver/Src/stm32f4xx_hal_pcd.c ****       case HAL_PCD_MSPDEINIT_CB_ID :
 506:Drivers/STM32F4xx_HAL_Driver/Src/stm32f4xx_hal_pcd.c ****         hpcd->MspDeInitCallback = HAL_PCD_MspDeInit;
 507:Drivers/STM32F4xx_HAL_Driver/Src/stm32f4xx_hal_pcd.c ****         break;
 508:Drivers/STM32F4xx_HAL_Driver/Src/stm32f4xx_hal_pcd.c **** 
 509:Drivers/STM32F4xx_HAL_Driver/Src/stm32f4xx_hal_pcd.c ****       default :
 510:Drivers/STM32F4xx_HAL_Driver/Src/stm32f4xx_hal_pcd.c ****         /* Update the error code */
 511:Drivers/STM32F4xx_HAL_Driver/Src/stm32f4xx_hal_pcd.c ****         hpcd->ErrorCode |= HAL_PCD_ERROR_INVALID_CALLBACK;
 512:Drivers/STM32F4xx_HAL_Driver/Src/stm32f4xx_hal_pcd.c **** 
 513:Drivers/STM32F4xx_HAL_Driver/Src/stm32f4xx_hal_pcd.c ****         /* Return error status */
 514:Drivers/STM32F4xx_HAL_Driver/Src/stm32f4xx_hal_pcd.c ****         status =  HAL_ERROR;
 515:Drivers/STM32F4xx_HAL_Driver/Src/stm32f4xx_hal_pcd.c ****         break;
 516:Drivers/STM32F4xx_HAL_Driver/Src/stm32f4xx_hal_pcd.c ****     }
 517:Drivers/STM32F4xx_HAL_Driver/Src/stm32f4xx_hal_pcd.c ****   }
 518:Drivers/STM32F4xx_HAL_Driver/Src/stm32f4xx_hal_pcd.c ****   else
 519:Drivers/STM32F4xx_HAL_Driver/Src/stm32f4xx_hal_pcd.c ****   {
 520:Drivers/STM32F4xx_HAL_Driver/Src/stm32f4xx_hal_pcd.c ****     /* Update the error code */
 521:Drivers/STM32F4xx_HAL_Driver/Src/stm32f4xx_hal_pcd.c ****     hpcd->ErrorCode |= HAL_PCD_ERROR_INVALID_CALLBACK;
 522:Drivers/STM32F4xx_HAL_Driver/Src/stm32f4xx_hal_pcd.c **** 
 523:Drivers/STM32F4xx_HAL_Driver/Src/stm32f4xx_hal_pcd.c ****     /* Return error status */
 524:Drivers/STM32F4xx_HAL_Driver/Src/stm32f4xx_hal_pcd.c ****     status =  HAL_ERROR;
ARM GAS  /var/folders/vq/qt4vp3kd5rxf7v2b6_fdtdt80000gn/T//ccs5IouC.s 			page 20


 525:Drivers/STM32F4xx_HAL_Driver/Src/stm32f4xx_hal_pcd.c ****   }
 526:Drivers/STM32F4xx_HAL_Driver/Src/stm32f4xx_hal_pcd.c **** 
 527:Drivers/STM32F4xx_HAL_Driver/Src/stm32f4xx_hal_pcd.c ****   /* Release Lock */
 528:Drivers/STM32F4xx_HAL_Driver/Src/stm32f4xx_hal_pcd.c ****   __HAL_UNLOCK(hpcd);
 529:Drivers/STM32F4xx_HAL_Driver/Src/stm32f4xx_hal_pcd.c ****   return status;
 530:Drivers/STM32F4xx_HAL_Driver/Src/stm32f4xx_hal_pcd.c **** }
 531:Drivers/STM32F4xx_HAL_Driver/Src/stm32f4xx_hal_pcd.c **** 
 532:Drivers/STM32F4xx_HAL_Driver/Src/stm32f4xx_hal_pcd.c **** /**
 533:Drivers/STM32F4xx_HAL_Driver/Src/stm32f4xx_hal_pcd.c ****   * @brief  Register USB PCD Data OUT Stage Callback
 534:Drivers/STM32F4xx_HAL_Driver/Src/stm32f4xx_hal_pcd.c ****   *         To be used instead of the weak HAL_PCD_DataOutStageCallback() predefined callback
 535:Drivers/STM32F4xx_HAL_Driver/Src/stm32f4xx_hal_pcd.c ****   * @param  hpcd PCD handle
 536:Drivers/STM32F4xx_HAL_Driver/Src/stm32f4xx_hal_pcd.c ****   * @param  pCallback pointer to the USB PCD Data OUT Stage Callback function
 537:Drivers/STM32F4xx_HAL_Driver/Src/stm32f4xx_hal_pcd.c ****   * @retval HAL status
 538:Drivers/STM32F4xx_HAL_Driver/Src/stm32f4xx_hal_pcd.c ****   */
 539:Drivers/STM32F4xx_HAL_Driver/Src/stm32f4xx_hal_pcd.c **** HAL_StatusTypeDef HAL_PCD_RegisterDataOutStageCallback(PCD_HandleTypeDef *hpcd,
 540:Drivers/STM32F4xx_HAL_Driver/Src/stm32f4xx_hal_pcd.c ****                                                        pPCD_DataOutStageCallbackTypeDef pCallback)
 541:Drivers/STM32F4xx_HAL_Driver/Src/stm32f4xx_hal_pcd.c **** {
 542:Drivers/STM32F4xx_HAL_Driver/Src/stm32f4xx_hal_pcd.c ****   HAL_StatusTypeDef status = HAL_OK;
 543:Drivers/STM32F4xx_HAL_Driver/Src/stm32f4xx_hal_pcd.c **** 
 544:Drivers/STM32F4xx_HAL_Driver/Src/stm32f4xx_hal_pcd.c ****   if (pCallback == NULL)
 545:Drivers/STM32F4xx_HAL_Driver/Src/stm32f4xx_hal_pcd.c ****   {
 546:Drivers/STM32F4xx_HAL_Driver/Src/stm32f4xx_hal_pcd.c ****     /* Update the error code */
 547:Drivers/STM32F4xx_HAL_Driver/Src/stm32f4xx_hal_pcd.c ****     hpcd->ErrorCode |= HAL_PCD_ERROR_INVALID_CALLBACK;
 548:Drivers/STM32F4xx_HAL_Driver/Src/stm32f4xx_hal_pcd.c **** 
 549:Drivers/STM32F4xx_HAL_Driver/Src/stm32f4xx_hal_pcd.c ****     return HAL_ERROR;
 550:Drivers/STM32F4xx_HAL_Driver/Src/stm32f4xx_hal_pcd.c ****   }
 551:Drivers/STM32F4xx_HAL_Driver/Src/stm32f4xx_hal_pcd.c **** 
 552:Drivers/STM32F4xx_HAL_Driver/Src/stm32f4xx_hal_pcd.c ****   /* Process locked */
 553:Drivers/STM32F4xx_HAL_Driver/Src/stm32f4xx_hal_pcd.c ****   __HAL_LOCK(hpcd);
 554:Drivers/STM32F4xx_HAL_Driver/Src/stm32f4xx_hal_pcd.c **** 
 555:Drivers/STM32F4xx_HAL_Driver/Src/stm32f4xx_hal_pcd.c ****   if (hpcd->State == HAL_PCD_STATE_READY)
 556:Drivers/STM32F4xx_HAL_Driver/Src/stm32f4xx_hal_pcd.c ****   {
 557:Drivers/STM32F4xx_HAL_Driver/Src/stm32f4xx_hal_pcd.c ****     hpcd->DataOutStageCallback = pCallback;
 558:Drivers/STM32F4xx_HAL_Driver/Src/stm32f4xx_hal_pcd.c ****   }
 559:Drivers/STM32F4xx_HAL_Driver/Src/stm32f4xx_hal_pcd.c ****   else
 560:Drivers/STM32F4xx_HAL_Driver/Src/stm32f4xx_hal_pcd.c ****   {
 561:Drivers/STM32F4xx_HAL_Driver/Src/stm32f4xx_hal_pcd.c ****     /* Update the error code */
 562:Drivers/STM32F4xx_HAL_Driver/Src/stm32f4xx_hal_pcd.c ****     hpcd->ErrorCode |= HAL_PCD_ERROR_INVALID_CALLBACK;
 563:Drivers/STM32F4xx_HAL_Driver/Src/stm32f4xx_hal_pcd.c **** 
 564:Drivers/STM32F4xx_HAL_Driver/Src/stm32f4xx_hal_pcd.c ****     /* Return error status */
 565:Drivers/STM32F4xx_HAL_Driver/Src/stm32f4xx_hal_pcd.c ****     status =  HAL_ERROR;
 566:Drivers/STM32F4xx_HAL_Driver/Src/stm32f4xx_hal_pcd.c ****   }
 567:Drivers/STM32F4xx_HAL_Driver/Src/stm32f4xx_hal_pcd.c **** 
 568:Drivers/STM32F4xx_HAL_Driver/Src/stm32f4xx_hal_pcd.c ****   /* Release Lock */
 569:Drivers/STM32F4xx_HAL_Driver/Src/stm32f4xx_hal_pcd.c ****   __HAL_UNLOCK(hpcd);
 570:Drivers/STM32F4xx_HAL_Driver/Src/stm32f4xx_hal_pcd.c **** 
 571:Drivers/STM32F4xx_HAL_Driver/Src/stm32f4xx_hal_pcd.c ****   return status;
 572:Drivers/STM32F4xx_HAL_Driver/Src/stm32f4xx_hal_pcd.c **** }
 573:Drivers/STM32F4xx_HAL_Driver/Src/stm32f4xx_hal_pcd.c **** 
 574:Drivers/STM32F4xx_HAL_Driver/Src/stm32f4xx_hal_pcd.c **** /**
 575:Drivers/STM32F4xx_HAL_Driver/Src/stm32f4xx_hal_pcd.c ****   * @brief  Unregister the USB PCD Data OUT Stage Callback
 576:Drivers/STM32F4xx_HAL_Driver/Src/stm32f4xx_hal_pcd.c ****   *         USB PCD Data OUT Stage Callback is redirected to the weak HAL_PCD_DataOutStageCallback(
 577:Drivers/STM32F4xx_HAL_Driver/Src/stm32f4xx_hal_pcd.c ****   * @param  hpcd PCD handle
 578:Drivers/STM32F4xx_HAL_Driver/Src/stm32f4xx_hal_pcd.c ****   * @retval HAL status
 579:Drivers/STM32F4xx_HAL_Driver/Src/stm32f4xx_hal_pcd.c ****   */
 580:Drivers/STM32F4xx_HAL_Driver/Src/stm32f4xx_hal_pcd.c **** HAL_StatusTypeDef HAL_PCD_UnRegisterDataOutStageCallback(PCD_HandleTypeDef *hpcd)
 581:Drivers/STM32F4xx_HAL_Driver/Src/stm32f4xx_hal_pcd.c **** {
ARM GAS  /var/folders/vq/qt4vp3kd5rxf7v2b6_fdtdt80000gn/T//ccs5IouC.s 			page 21


 582:Drivers/STM32F4xx_HAL_Driver/Src/stm32f4xx_hal_pcd.c ****   HAL_StatusTypeDef status = HAL_OK;
 583:Drivers/STM32F4xx_HAL_Driver/Src/stm32f4xx_hal_pcd.c **** 
 584:Drivers/STM32F4xx_HAL_Driver/Src/stm32f4xx_hal_pcd.c ****   /* Process locked */
 585:Drivers/STM32F4xx_HAL_Driver/Src/stm32f4xx_hal_pcd.c ****   __HAL_LOCK(hpcd);
 586:Drivers/STM32F4xx_HAL_Driver/Src/stm32f4xx_hal_pcd.c **** 
 587:Drivers/STM32F4xx_HAL_Driver/Src/stm32f4xx_hal_pcd.c ****   if (hpcd->State == HAL_PCD_STATE_READY)
 588:Drivers/STM32F4xx_HAL_Driver/Src/stm32f4xx_hal_pcd.c ****   {
 589:Drivers/STM32F4xx_HAL_Driver/Src/stm32f4xx_hal_pcd.c ****     hpcd->DataOutStageCallback = HAL_PCD_DataOutStageCallback; /* Legacy weak DataOutStageCallback 
 590:Drivers/STM32F4xx_HAL_Driver/Src/stm32f4xx_hal_pcd.c ****   }
 591:Drivers/STM32F4xx_HAL_Driver/Src/stm32f4xx_hal_pcd.c ****   else
 592:Drivers/STM32F4xx_HAL_Driver/Src/stm32f4xx_hal_pcd.c ****   {
 593:Drivers/STM32F4xx_HAL_Driver/Src/stm32f4xx_hal_pcd.c ****     /* Update the error code */
 594:Drivers/STM32F4xx_HAL_Driver/Src/stm32f4xx_hal_pcd.c ****     hpcd->ErrorCode |= HAL_PCD_ERROR_INVALID_CALLBACK;
 595:Drivers/STM32F4xx_HAL_Driver/Src/stm32f4xx_hal_pcd.c **** 
 596:Drivers/STM32F4xx_HAL_Driver/Src/stm32f4xx_hal_pcd.c ****     /* Return error status */
 597:Drivers/STM32F4xx_HAL_Driver/Src/stm32f4xx_hal_pcd.c ****     status =  HAL_ERROR;
 598:Drivers/STM32F4xx_HAL_Driver/Src/stm32f4xx_hal_pcd.c ****   }
 599:Drivers/STM32F4xx_HAL_Driver/Src/stm32f4xx_hal_pcd.c **** 
 600:Drivers/STM32F4xx_HAL_Driver/Src/stm32f4xx_hal_pcd.c ****   /* Release Lock */
 601:Drivers/STM32F4xx_HAL_Driver/Src/stm32f4xx_hal_pcd.c ****   __HAL_UNLOCK(hpcd);
 602:Drivers/STM32F4xx_HAL_Driver/Src/stm32f4xx_hal_pcd.c **** 
 603:Drivers/STM32F4xx_HAL_Driver/Src/stm32f4xx_hal_pcd.c ****   return status;
 604:Drivers/STM32F4xx_HAL_Driver/Src/stm32f4xx_hal_pcd.c **** }
 605:Drivers/STM32F4xx_HAL_Driver/Src/stm32f4xx_hal_pcd.c **** 
 606:Drivers/STM32F4xx_HAL_Driver/Src/stm32f4xx_hal_pcd.c **** /**
 607:Drivers/STM32F4xx_HAL_Driver/Src/stm32f4xx_hal_pcd.c ****   * @brief  Register USB PCD Data IN Stage Callback
 608:Drivers/STM32F4xx_HAL_Driver/Src/stm32f4xx_hal_pcd.c ****   *         To be used instead of the weak HAL_PCD_DataInStageCallback() predefined callback
 609:Drivers/STM32F4xx_HAL_Driver/Src/stm32f4xx_hal_pcd.c ****   * @param  hpcd PCD handle
 610:Drivers/STM32F4xx_HAL_Driver/Src/stm32f4xx_hal_pcd.c ****   * @param  pCallback pointer to the USB PCD Data IN Stage Callback function
 611:Drivers/STM32F4xx_HAL_Driver/Src/stm32f4xx_hal_pcd.c ****   * @retval HAL status
 612:Drivers/STM32F4xx_HAL_Driver/Src/stm32f4xx_hal_pcd.c ****   */
 613:Drivers/STM32F4xx_HAL_Driver/Src/stm32f4xx_hal_pcd.c **** HAL_StatusTypeDef HAL_PCD_RegisterDataInStageCallback(PCD_HandleTypeDef *hpcd,
 614:Drivers/STM32F4xx_HAL_Driver/Src/stm32f4xx_hal_pcd.c ****                                                       pPCD_DataInStageCallbackTypeDef pCallback)
 615:Drivers/STM32F4xx_HAL_Driver/Src/stm32f4xx_hal_pcd.c **** {
 616:Drivers/STM32F4xx_HAL_Driver/Src/stm32f4xx_hal_pcd.c ****   HAL_StatusTypeDef status = HAL_OK;
 617:Drivers/STM32F4xx_HAL_Driver/Src/stm32f4xx_hal_pcd.c **** 
 618:Drivers/STM32F4xx_HAL_Driver/Src/stm32f4xx_hal_pcd.c ****   if (pCallback == NULL)
 619:Drivers/STM32F4xx_HAL_Driver/Src/stm32f4xx_hal_pcd.c ****   {
 620:Drivers/STM32F4xx_HAL_Driver/Src/stm32f4xx_hal_pcd.c ****     /* Update the error code */
 621:Drivers/STM32F4xx_HAL_Driver/Src/stm32f4xx_hal_pcd.c ****     hpcd->ErrorCode |= HAL_PCD_ERROR_INVALID_CALLBACK;
 622:Drivers/STM32F4xx_HAL_Driver/Src/stm32f4xx_hal_pcd.c **** 
 623:Drivers/STM32F4xx_HAL_Driver/Src/stm32f4xx_hal_pcd.c ****     return HAL_ERROR;
 624:Drivers/STM32F4xx_HAL_Driver/Src/stm32f4xx_hal_pcd.c ****   }
 625:Drivers/STM32F4xx_HAL_Driver/Src/stm32f4xx_hal_pcd.c **** 
 626:Drivers/STM32F4xx_HAL_Driver/Src/stm32f4xx_hal_pcd.c ****   /* Process locked */
 627:Drivers/STM32F4xx_HAL_Driver/Src/stm32f4xx_hal_pcd.c ****   __HAL_LOCK(hpcd);
 628:Drivers/STM32F4xx_HAL_Driver/Src/stm32f4xx_hal_pcd.c **** 
 629:Drivers/STM32F4xx_HAL_Driver/Src/stm32f4xx_hal_pcd.c ****   if (hpcd->State == HAL_PCD_STATE_READY)
 630:Drivers/STM32F4xx_HAL_Driver/Src/stm32f4xx_hal_pcd.c ****   {
 631:Drivers/STM32F4xx_HAL_Driver/Src/stm32f4xx_hal_pcd.c ****     hpcd->DataInStageCallback = pCallback;
 632:Drivers/STM32F4xx_HAL_Driver/Src/stm32f4xx_hal_pcd.c ****   }
 633:Drivers/STM32F4xx_HAL_Driver/Src/stm32f4xx_hal_pcd.c ****   else
 634:Drivers/STM32F4xx_HAL_Driver/Src/stm32f4xx_hal_pcd.c ****   {
 635:Drivers/STM32F4xx_HAL_Driver/Src/stm32f4xx_hal_pcd.c ****     /* Update the error code */
 636:Drivers/STM32F4xx_HAL_Driver/Src/stm32f4xx_hal_pcd.c ****     hpcd->ErrorCode |= HAL_PCD_ERROR_INVALID_CALLBACK;
 637:Drivers/STM32F4xx_HAL_Driver/Src/stm32f4xx_hal_pcd.c **** 
 638:Drivers/STM32F4xx_HAL_Driver/Src/stm32f4xx_hal_pcd.c ****     /* Return error status */
ARM GAS  /var/folders/vq/qt4vp3kd5rxf7v2b6_fdtdt80000gn/T//ccs5IouC.s 			page 22


 639:Drivers/STM32F4xx_HAL_Driver/Src/stm32f4xx_hal_pcd.c ****     status =  HAL_ERROR;
 640:Drivers/STM32F4xx_HAL_Driver/Src/stm32f4xx_hal_pcd.c ****   }
 641:Drivers/STM32F4xx_HAL_Driver/Src/stm32f4xx_hal_pcd.c **** 
 642:Drivers/STM32F4xx_HAL_Driver/Src/stm32f4xx_hal_pcd.c ****   /* Release Lock */
 643:Drivers/STM32F4xx_HAL_Driver/Src/stm32f4xx_hal_pcd.c ****   __HAL_UNLOCK(hpcd);
 644:Drivers/STM32F4xx_HAL_Driver/Src/stm32f4xx_hal_pcd.c **** 
 645:Drivers/STM32F4xx_HAL_Driver/Src/stm32f4xx_hal_pcd.c ****   return status;
 646:Drivers/STM32F4xx_HAL_Driver/Src/stm32f4xx_hal_pcd.c **** }
 647:Drivers/STM32F4xx_HAL_Driver/Src/stm32f4xx_hal_pcd.c **** 
 648:Drivers/STM32F4xx_HAL_Driver/Src/stm32f4xx_hal_pcd.c **** /**
 649:Drivers/STM32F4xx_HAL_Driver/Src/stm32f4xx_hal_pcd.c ****   * @brief  Unregister the USB PCD Data IN Stage Callback
 650:Drivers/STM32F4xx_HAL_Driver/Src/stm32f4xx_hal_pcd.c ****   *         USB PCD Data OUT Stage Callback is redirected to the weak HAL_PCD_DataInStageCallback()
 651:Drivers/STM32F4xx_HAL_Driver/Src/stm32f4xx_hal_pcd.c ****   * @param  hpcd PCD handle
 652:Drivers/STM32F4xx_HAL_Driver/Src/stm32f4xx_hal_pcd.c ****   * @retval HAL status
 653:Drivers/STM32F4xx_HAL_Driver/Src/stm32f4xx_hal_pcd.c ****   */
 654:Drivers/STM32F4xx_HAL_Driver/Src/stm32f4xx_hal_pcd.c **** HAL_StatusTypeDef HAL_PCD_UnRegisterDataInStageCallback(PCD_HandleTypeDef *hpcd)
 655:Drivers/STM32F4xx_HAL_Driver/Src/stm32f4xx_hal_pcd.c **** {
 656:Drivers/STM32F4xx_HAL_Driver/Src/stm32f4xx_hal_pcd.c ****   HAL_StatusTypeDef status = HAL_OK;
 657:Drivers/STM32F4xx_HAL_Driver/Src/stm32f4xx_hal_pcd.c **** 
 658:Drivers/STM32F4xx_HAL_Driver/Src/stm32f4xx_hal_pcd.c ****   /* Process locked */
 659:Drivers/STM32F4xx_HAL_Driver/Src/stm32f4xx_hal_pcd.c ****   __HAL_LOCK(hpcd);
 660:Drivers/STM32F4xx_HAL_Driver/Src/stm32f4xx_hal_pcd.c **** 
 661:Drivers/STM32F4xx_HAL_Driver/Src/stm32f4xx_hal_pcd.c ****   if (hpcd->State == HAL_PCD_STATE_READY)
 662:Drivers/STM32F4xx_HAL_Driver/Src/stm32f4xx_hal_pcd.c ****   {
 663:Drivers/STM32F4xx_HAL_Driver/Src/stm32f4xx_hal_pcd.c ****     hpcd->DataInStageCallback = HAL_PCD_DataInStageCallback; /* Legacy weak DataInStageCallback  */
 664:Drivers/STM32F4xx_HAL_Driver/Src/stm32f4xx_hal_pcd.c ****   }
 665:Drivers/STM32F4xx_HAL_Driver/Src/stm32f4xx_hal_pcd.c ****   else
 666:Drivers/STM32F4xx_HAL_Driver/Src/stm32f4xx_hal_pcd.c ****   {
 667:Drivers/STM32F4xx_HAL_Driver/Src/stm32f4xx_hal_pcd.c ****     /* Update the error code */
 668:Drivers/STM32F4xx_HAL_Driver/Src/stm32f4xx_hal_pcd.c ****     hpcd->ErrorCode |= HAL_PCD_ERROR_INVALID_CALLBACK;
 669:Drivers/STM32F4xx_HAL_Driver/Src/stm32f4xx_hal_pcd.c **** 
 670:Drivers/STM32F4xx_HAL_Driver/Src/stm32f4xx_hal_pcd.c ****     /* Return error status */
 671:Drivers/STM32F4xx_HAL_Driver/Src/stm32f4xx_hal_pcd.c ****     status =  HAL_ERROR;
 672:Drivers/STM32F4xx_HAL_Driver/Src/stm32f4xx_hal_pcd.c ****   }
 673:Drivers/STM32F4xx_HAL_Driver/Src/stm32f4xx_hal_pcd.c **** 
 674:Drivers/STM32F4xx_HAL_Driver/Src/stm32f4xx_hal_pcd.c ****   /* Release Lock */
 675:Drivers/STM32F4xx_HAL_Driver/Src/stm32f4xx_hal_pcd.c ****   __HAL_UNLOCK(hpcd);
 676:Drivers/STM32F4xx_HAL_Driver/Src/stm32f4xx_hal_pcd.c **** 
 677:Drivers/STM32F4xx_HAL_Driver/Src/stm32f4xx_hal_pcd.c ****   return status;
 678:Drivers/STM32F4xx_HAL_Driver/Src/stm32f4xx_hal_pcd.c **** }
 679:Drivers/STM32F4xx_HAL_Driver/Src/stm32f4xx_hal_pcd.c **** 
 680:Drivers/STM32F4xx_HAL_Driver/Src/stm32f4xx_hal_pcd.c **** /**
 681:Drivers/STM32F4xx_HAL_Driver/Src/stm32f4xx_hal_pcd.c ****   * @brief  Register USB PCD Iso OUT incomplete Callback
 682:Drivers/STM32F4xx_HAL_Driver/Src/stm32f4xx_hal_pcd.c ****   *         To be used instead of the weak HAL_PCD_ISOOUTIncompleteCallback() predefined callback
 683:Drivers/STM32F4xx_HAL_Driver/Src/stm32f4xx_hal_pcd.c ****   * @param  hpcd PCD handle
 684:Drivers/STM32F4xx_HAL_Driver/Src/stm32f4xx_hal_pcd.c ****   * @param  pCallback pointer to the USB PCD Iso OUT incomplete Callback function
 685:Drivers/STM32F4xx_HAL_Driver/Src/stm32f4xx_hal_pcd.c ****   * @retval HAL status
 686:Drivers/STM32F4xx_HAL_Driver/Src/stm32f4xx_hal_pcd.c ****   */
 687:Drivers/STM32F4xx_HAL_Driver/Src/stm32f4xx_hal_pcd.c **** HAL_StatusTypeDef HAL_PCD_RegisterIsoOutIncpltCallback(PCD_HandleTypeDef *hpcd,
 688:Drivers/STM32F4xx_HAL_Driver/Src/stm32f4xx_hal_pcd.c ****                                                        pPCD_IsoOutIncpltCallbackTypeDef pCallback)
 689:Drivers/STM32F4xx_HAL_Driver/Src/stm32f4xx_hal_pcd.c **** {
 690:Drivers/STM32F4xx_HAL_Driver/Src/stm32f4xx_hal_pcd.c ****   HAL_StatusTypeDef status = HAL_OK;
 691:Drivers/STM32F4xx_HAL_Driver/Src/stm32f4xx_hal_pcd.c **** 
 692:Drivers/STM32F4xx_HAL_Driver/Src/stm32f4xx_hal_pcd.c ****   if (pCallback == NULL)
 693:Drivers/STM32F4xx_HAL_Driver/Src/stm32f4xx_hal_pcd.c ****   {
 694:Drivers/STM32F4xx_HAL_Driver/Src/stm32f4xx_hal_pcd.c ****     /* Update the error code */
 695:Drivers/STM32F4xx_HAL_Driver/Src/stm32f4xx_hal_pcd.c ****     hpcd->ErrorCode |= HAL_PCD_ERROR_INVALID_CALLBACK;
ARM GAS  /var/folders/vq/qt4vp3kd5rxf7v2b6_fdtdt80000gn/T//ccs5IouC.s 			page 23


 696:Drivers/STM32F4xx_HAL_Driver/Src/stm32f4xx_hal_pcd.c **** 
 697:Drivers/STM32F4xx_HAL_Driver/Src/stm32f4xx_hal_pcd.c ****     return HAL_ERROR;
 698:Drivers/STM32F4xx_HAL_Driver/Src/stm32f4xx_hal_pcd.c ****   }
 699:Drivers/STM32F4xx_HAL_Driver/Src/stm32f4xx_hal_pcd.c **** 
 700:Drivers/STM32F4xx_HAL_Driver/Src/stm32f4xx_hal_pcd.c ****   /* Process locked */
 701:Drivers/STM32F4xx_HAL_Driver/Src/stm32f4xx_hal_pcd.c ****   __HAL_LOCK(hpcd);
 702:Drivers/STM32F4xx_HAL_Driver/Src/stm32f4xx_hal_pcd.c **** 
 703:Drivers/STM32F4xx_HAL_Driver/Src/stm32f4xx_hal_pcd.c ****   if (hpcd->State == HAL_PCD_STATE_READY)
 704:Drivers/STM32F4xx_HAL_Driver/Src/stm32f4xx_hal_pcd.c ****   {
 705:Drivers/STM32F4xx_HAL_Driver/Src/stm32f4xx_hal_pcd.c ****     hpcd->ISOOUTIncompleteCallback = pCallback;
 706:Drivers/STM32F4xx_HAL_Driver/Src/stm32f4xx_hal_pcd.c ****   }
 707:Drivers/STM32F4xx_HAL_Driver/Src/stm32f4xx_hal_pcd.c ****   else
 708:Drivers/STM32F4xx_HAL_Driver/Src/stm32f4xx_hal_pcd.c ****   {
 709:Drivers/STM32F4xx_HAL_Driver/Src/stm32f4xx_hal_pcd.c ****     /* Update the error code */
 710:Drivers/STM32F4xx_HAL_Driver/Src/stm32f4xx_hal_pcd.c ****     hpcd->ErrorCode |= HAL_PCD_ERROR_INVALID_CALLBACK;
 711:Drivers/STM32F4xx_HAL_Driver/Src/stm32f4xx_hal_pcd.c **** 
 712:Drivers/STM32F4xx_HAL_Driver/Src/stm32f4xx_hal_pcd.c ****     /* Return error status */
 713:Drivers/STM32F4xx_HAL_Driver/Src/stm32f4xx_hal_pcd.c ****     status =  HAL_ERROR;
 714:Drivers/STM32F4xx_HAL_Driver/Src/stm32f4xx_hal_pcd.c ****   }
 715:Drivers/STM32F4xx_HAL_Driver/Src/stm32f4xx_hal_pcd.c **** 
 716:Drivers/STM32F4xx_HAL_Driver/Src/stm32f4xx_hal_pcd.c ****   /* Release Lock */
 717:Drivers/STM32F4xx_HAL_Driver/Src/stm32f4xx_hal_pcd.c ****   __HAL_UNLOCK(hpcd);
 718:Drivers/STM32F4xx_HAL_Driver/Src/stm32f4xx_hal_pcd.c **** 
 719:Drivers/STM32F4xx_HAL_Driver/Src/stm32f4xx_hal_pcd.c ****   return status;
 720:Drivers/STM32F4xx_HAL_Driver/Src/stm32f4xx_hal_pcd.c **** }
 721:Drivers/STM32F4xx_HAL_Driver/Src/stm32f4xx_hal_pcd.c **** 
 722:Drivers/STM32F4xx_HAL_Driver/Src/stm32f4xx_hal_pcd.c **** /**
 723:Drivers/STM32F4xx_HAL_Driver/Src/stm32f4xx_hal_pcd.c ****   * @brief  Unregister the USB PCD Iso OUT incomplete Callback
 724:Drivers/STM32F4xx_HAL_Driver/Src/stm32f4xx_hal_pcd.c ****   *         USB PCD Iso OUT incomplete Callback is redirected to the weak HAL_PCD_ISOOUTIncompleteC
 725:Drivers/STM32F4xx_HAL_Driver/Src/stm32f4xx_hal_pcd.c ****   * @param  hpcd PCD handle
 726:Drivers/STM32F4xx_HAL_Driver/Src/stm32f4xx_hal_pcd.c ****   * @retval HAL status
 727:Drivers/STM32F4xx_HAL_Driver/Src/stm32f4xx_hal_pcd.c ****   */
 728:Drivers/STM32F4xx_HAL_Driver/Src/stm32f4xx_hal_pcd.c **** HAL_StatusTypeDef HAL_PCD_UnRegisterIsoOutIncpltCallback(PCD_HandleTypeDef *hpcd)
 729:Drivers/STM32F4xx_HAL_Driver/Src/stm32f4xx_hal_pcd.c **** {
 730:Drivers/STM32F4xx_HAL_Driver/Src/stm32f4xx_hal_pcd.c ****   HAL_StatusTypeDef status = HAL_OK;
 731:Drivers/STM32F4xx_HAL_Driver/Src/stm32f4xx_hal_pcd.c **** 
 732:Drivers/STM32F4xx_HAL_Driver/Src/stm32f4xx_hal_pcd.c ****   /* Process locked */
 733:Drivers/STM32F4xx_HAL_Driver/Src/stm32f4xx_hal_pcd.c ****   __HAL_LOCK(hpcd);
 734:Drivers/STM32F4xx_HAL_Driver/Src/stm32f4xx_hal_pcd.c **** 
 735:Drivers/STM32F4xx_HAL_Driver/Src/stm32f4xx_hal_pcd.c ****   if (hpcd->State == HAL_PCD_STATE_READY)
 736:Drivers/STM32F4xx_HAL_Driver/Src/stm32f4xx_hal_pcd.c ****   {
 737:Drivers/STM32F4xx_HAL_Driver/Src/stm32f4xx_hal_pcd.c ****     hpcd->ISOOUTIncompleteCallback = HAL_PCD_ISOOUTIncompleteCallback; /* Legacy weak ISOOUTIncompl
 738:Drivers/STM32F4xx_HAL_Driver/Src/stm32f4xx_hal_pcd.c ****   }
 739:Drivers/STM32F4xx_HAL_Driver/Src/stm32f4xx_hal_pcd.c ****   else
 740:Drivers/STM32F4xx_HAL_Driver/Src/stm32f4xx_hal_pcd.c ****   {
 741:Drivers/STM32F4xx_HAL_Driver/Src/stm32f4xx_hal_pcd.c ****     /* Update the error code */
 742:Drivers/STM32F4xx_HAL_Driver/Src/stm32f4xx_hal_pcd.c ****     hpcd->ErrorCode |= HAL_PCD_ERROR_INVALID_CALLBACK;
 743:Drivers/STM32F4xx_HAL_Driver/Src/stm32f4xx_hal_pcd.c **** 
 744:Drivers/STM32F4xx_HAL_Driver/Src/stm32f4xx_hal_pcd.c ****     /* Return error status */
 745:Drivers/STM32F4xx_HAL_Driver/Src/stm32f4xx_hal_pcd.c ****     status =  HAL_ERROR;
 746:Drivers/STM32F4xx_HAL_Driver/Src/stm32f4xx_hal_pcd.c ****   }
 747:Drivers/STM32F4xx_HAL_Driver/Src/stm32f4xx_hal_pcd.c **** 
 748:Drivers/STM32F4xx_HAL_Driver/Src/stm32f4xx_hal_pcd.c ****   /* Release Lock */
 749:Drivers/STM32F4xx_HAL_Driver/Src/stm32f4xx_hal_pcd.c ****   __HAL_UNLOCK(hpcd);
 750:Drivers/STM32F4xx_HAL_Driver/Src/stm32f4xx_hal_pcd.c **** 
 751:Drivers/STM32F4xx_HAL_Driver/Src/stm32f4xx_hal_pcd.c ****   return status;
 752:Drivers/STM32F4xx_HAL_Driver/Src/stm32f4xx_hal_pcd.c **** }
ARM GAS  /var/folders/vq/qt4vp3kd5rxf7v2b6_fdtdt80000gn/T//ccs5IouC.s 			page 24


 753:Drivers/STM32F4xx_HAL_Driver/Src/stm32f4xx_hal_pcd.c **** 
 754:Drivers/STM32F4xx_HAL_Driver/Src/stm32f4xx_hal_pcd.c **** /**
 755:Drivers/STM32F4xx_HAL_Driver/Src/stm32f4xx_hal_pcd.c ****   * @brief  Register USB PCD Iso IN incomplete Callback
 756:Drivers/STM32F4xx_HAL_Driver/Src/stm32f4xx_hal_pcd.c ****   *         To be used instead of the weak HAL_PCD_ISOINIncompleteCallback() predefined callback
 757:Drivers/STM32F4xx_HAL_Driver/Src/stm32f4xx_hal_pcd.c ****   * @param  hpcd PCD handle
 758:Drivers/STM32F4xx_HAL_Driver/Src/stm32f4xx_hal_pcd.c ****   * @param  pCallback pointer to the USB PCD Iso IN incomplete Callback function
 759:Drivers/STM32F4xx_HAL_Driver/Src/stm32f4xx_hal_pcd.c ****   * @retval HAL status
 760:Drivers/STM32F4xx_HAL_Driver/Src/stm32f4xx_hal_pcd.c ****   */
 761:Drivers/STM32F4xx_HAL_Driver/Src/stm32f4xx_hal_pcd.c **** HAL_StatusTypeDef HAL_PCD_RegisterIsoInIncpltCallback(PCD_HandleTypeDef *hpcd,
 762:Drivers/STM32F4xx_HAL_Driver/Src/stm32f4xx_hal_pcd.c ****                                                       pPCD_IsoInIncpltCallbackTypeDef pCallback)
 763:Drivers/STM32F4xx_HAL_Driver/Src/stm32f4xx_hal_pcd.c **** {
 764:Drivers/STM32F4xx_HAL_Driver/Src/stm32f4xx_hal_pcd.c ****   HAL_StatusTypeDef status = HAL_OK;
 765:Drivers/STM32F4xx_HAL_Driver/Src/stm32f4xx_hal_pcd.c **** 
 766:Drivers/STM32F4xx_HAL_Driver/Src/stm32f4xx_hal_pcd.c ****   if (pCallback == NULL)
 767:Drivers/STM32F4xx_HAL_Driver/Src/stm32f4xx_hal_pcd.c ****   {
 768:Drivers/STM32F4xx_HAL_Driver/Src/stm32f4xx_hal_pcd.c ****     /* Update the error code */
 769:Drivers/STM32F4xx_HAL_Driver/Src/stm32f4xx_hal_pcd.c ****     hpcd->ErrorCode |= HAL_PCD_ERROR_INVALID_CALLBACK;
 770:Drivers/STM32F4xx_HAL_Driver/Src/stm32f4xx_hal_pcd.c **** 
 771:Drivers/STM32F4xx_HAL_Driver/Src/stm32f4xx_hal_pcd.c ****     return HAL_ERROR;
 772:Drivers/STM32F4xx_HAL_Driver/Src/stm32f4xx_hal_pcd.c ****   }
 773:Drivers/STM32F4xx_HAL_Driver/Src/stm32f4xx_hal_pcd.c **** 
 774:Drivers/STM32F4xx_HAL_Driver/Src/stm32f4xx_hal_pcd.c ****   /* Process locked */
 775:Drivers/STM32F4xx_HAL_Driver/Src/stm32f4xx_hal_pcd.c ****   __HAL_LOCK(hpcd);
 776:Drivers/STM32F4xx_HAL_Driver/Src/stm32f4xx_hal_pcd.c **** 
 777:Drivers/STM32F4xx_HAL_Driver/Src/stm32f4xx_hal_pcd.c ****   if (hpcd->State == HAL_PCD_STATE_READY)
 778:Drivers/STM32F4xx_HAL_Driver/Src/stm32f4xx_hal_pcd.c ****   {
 779:Drivers/STM32F4xx_HAL_Driver/Src/stm32f4xx_hal_pcd.c ****     hpcd->ISOINIncompleteCallback = pCallback;
 780:Drivers/STM32F4xx_HAL_Driver/Src/stm32f4xx_hal_pcd.c ****   }
 781:Drivers/STM32F4xx_HAL_Driver/Src/stm32f4xx_hal_pcd.c ****   else
 782:Drivers/STM32F4xx_HAL_Driver/Src/stm32f4xx_hal_pcd.c ****   {
 783:Drivers/STM32F4xx_HAL_Driver/Src/stm32f4xx_hal_pcd.c ****     /* Update the error code */
 784:Drivers/STM32F4xx_HAL_Driver/Src/stm32f4xx_hal_pcd.c ****     hpcd->ErrorCode |= HAL_PCD_ERROR_INVALID_CALLBACK;
 785:Drivers/STM32F4xx_HAL_Driver/Src/stm32f4xx_hal_pcd.c **** 
 786:Drivers/STM32F4xx_HAL_Driver/Src/stm32f4xx_hal_pcd.c ****     /* Return error status */
 787:Drivers/STM32F4xx_HAL_Driver/Src/stm32f4xx_hal_pcd.c ****     status =  HAL_ERROR;
 788:Drivers/STM32F4xx_HAL_Driver/Src/stm32f4xx_hal_pcd.c ****   }
 789:Drivers/STM32F4xx_HAL_Driver/Src/stm32f4xx_hal_pcd.c **** 
 790:Drivers/STM32F4xx_HAL_Driver/Src/stm32f4xx_hal_pcd.c ****   /* Release Lock */
 791:Drivers/STM32F4xx_HAL_Driver/Src/stm32f4xx_hal_pcd.c ****   __HAL_UNLOCK(hpcd);
 792:Drivers/STM32F4xx_HAL_Driver/Src/stm32f4xx_hal_pcd.c **** 
 793:Drivers/STM32F4xx_HAL_Driver/Src/stm32f4xx_hal_pcd.c ****   return status;
 794:Drivers/STM32F4xx_HAL_Driver/Src/stm32f4xx_hal_pcd.c **** }
 795:Drivers/STM32F4xx_HAL_Driver/Src/stm32f4xx_hal_pcd.c **** 
 796:Drivers/STM32F4xx_HAL_Driver/Src/stm32f4xx_hal_pcd.c **** /**
 797:Drivers/STM32F4xx_HAL_Driver/Src/stm32f4xx_hal_pcd.c ****   * @brief  Unregister the USB PCD Iso IN incomplete Callback
 798:Drivers/STM32F4xx_HAL_Driver/Src/stm32f4xx_hal_pcd.c ****   *         USB PCD Iso IN incomplete Callback is redirected to the weak HAL_PCD_ISOINIncompleteCal
 799:Drivers/STM32F4xx_HAL_Driver/Src/stm32f4xx_hal_pcd.c ****   * @param  hpcd PCD handle
 800:Drivers/STM32F4xx_HAL_Driver/Src/stm32f4xx_hal_pcd.c ****   * @retval HAL status
 801:Drivers/STM32F4xx_HAL_Driver/Src/stm32f4xx_hal_pcd.c ****   */
 802:Drivers/STM32F4xx_HAL_Driver/Src/stm32f4xx_hal_pcd.c **** HAL_StatusTypeDef HAL_PCD_UnRegisterIsoInIncpltCallback(PCD_HandleTypeDef *hpcd)
 803:Drivers/STM32F4xx_HAL_Driver/Src/stm32f4xx_hal_pcd.c **** {
 804:Drivers/STM32F4xx_HAL_Driver/Src/stm32f4xx_hal_pcd.c ****   HAL_StatusTypeDef status = HAL_OK;
 805:Drivers/STM32F4xx_HAL_Driver/Src/stm32f4xx_hal_pcd.c **** 
 806:Drivers/STM32F4xx_HAL_Driver/Src/stm32f4xx_hal_pcd.c ****   /* Process locked */
 807:Drivers/STM32F4xx_HAL_Driver/Src/stm32f4xx_hal_pcd.c ****   __HAL_LOCK(hpcd);
 808:Drivers/STM32F4xx_HAL_Driver/Src/stm32f4xx_hal_pcd.c **** 
 809:Drivers/STM32F4xx_HAL_Driver/Src/stm32f4xx_hal_pcd.c ****   if (hpcd->State == HAL_PCD_STATE_READY)
ARM GAS  /var/folders/vq/qt4vp3kd5rxf7v2b6_fdtdt80000gn/T//ccs5IouC.s 			page 25


 810:Drivers/STM32F4xx_HAL_Driver/Src/stm32f4xx_hal_pcd.c ****   {
 811:Drivers/STM32F4xx_HAL_Driver/Src/stm32f4xx_hal_pcd.c ****     hpcd->ISOINIncompleteCallback = HAL_PCD_ISOINIncompleteCallback; /* Legacy weak ISOINIncomplete
 812:Drivers/STM32F4xx_HAL_Driver/Src/stm32f4xx_hal_pcd.c ****   }
 813:Drivers/STM32F4xx_HAL_Driver/Src/stm32f4xx_hal_pcd.c ****   else
 814:Drivers/STM32F4xx_HAL_Driver/Src/stm32f4xx_hal_pcd.c ****   {
 815:Drivers/STM32F4xx_HAL_Driver/Src/stm32f4xx_hal_pcd.c ****     /* Update the error code */
 816:Drivers/STM32F4xx_HAL_Driver/Src/stm32f4xx_hal_pcd.c ****     hpcd->ErrorCode |= HAL_PCD_ERROR_INVALID_CALLBACK;
 817:Drivers/STM32F4xx_HAL_Driver/Src/stm32f4xx_hal_pcd.c **** 
 818:Drivers/STM32F4xx_HAL_Driver/Src/stm32f4xx_hal_pcd.c ****     /* Return error status */
 819:Drivers/STM32F4xx_HAL_Driver/Src/stm32f4xx_hal_pcd.c ****     status =  HAL_ERROR;
 820:Drivers/STM32F4xx_HAL_Driver/Src/stm32f4xx_hal_pcd.c ****   }
 821:Drivers/STM32F4xx_HAL_Driver/Src/stm32f4xx_hal_pcd.c **** 
 822:Drivers/STM32F4xx_HAL_Driver/Src/stm32f4xx_hal_pcd.c ****   /* Release Lock */
 823:Drivers/STM32F4xx_HAL_Driver/Src/stm32f4xx_hal_pcd.c ****   __HAL_UNLOCK(hpcd);
 824:Drivers/STM32F4xx_HAL_Driver/Src/stm32f4xx_hal_pcd.c **** 
 825:Drivers/STM32F4xx_HAL_Driver/Src/stm32f4xx_hal_pcd.c ****   return status;
 826:Drivers/STM32F4xx_HAL_Driver/Src/stm32f4xx_hal_pcd.c **** }
 827:Drivers/STM32F4xx_HAL_Driver/Src/stm32f4xx_hal_pcd.c **** 
 828:Drivers/STM32F4xx_HAL_Driver/Src/stm32f4xx_hal_pcd.c **** /**
 829:Drivers/STM32F4xx_HAL_Driver/Src/stm32f4xx_hal_pcd.c ****   * @brief  Register USB PCD BCD Callback
 830:Drivers/STM32F4xx_HAL_Driver/Src/stm32f4xx_hal_pcd.c ****   *         To be used instead of the weak HAL_PCDEx_BCD_Callback() predefined callback
 831:Drivers/STM32F4xx_HAL_Driver/Src/stm32f4xx_hal_pcd.c ****   * @param  hpcd PCD handle
 832:Drivers/STM32F4xx_HAL_Driver/Src/stm32f4xx_hal_pcd.c ****   * @param  pCallback pointer to the USB PCD BCD Callback function
 833:Drivers/STM32F4xx_HAL_Driver/Src/stm32f4xx_hal_pcd.c ****   * @retval HAL status
 834:Drivers/STM32F4xx_HAL_Driver/Src/stm32f4xx_hal_pcd.c ****   */
 835:Drivers/STM32F4xx_HAL_Driver/Src/stm32f4xx_hal_pcd.c **** HAL_StatusTypeDef HAL_PCD_RegisterBcdCallback(PCD_HandleTypeDef *hpcd, pPCD_BcdCallbackTypeDef pCal
 836:Drivers/STM32F4xx_HAL_Driver/Src/stm32f4xx_hal_pcd.c **** {
 837:Drivers/STM32F4xx_HAL_Driver/Src/stm32f4xx_hal_pcd.c ****   HAL_StatusTypeDef status = HAL_OK;
 838:Drivers/STM32F4xx_HAL_Driver/Src/stm32f4xx_hal_pcd.c **** 
 839:Drivers/STM32F4xx_HAL_Driver/Src/stm32f4xx_hal_pcd.c ****   if (pCallback == NULL)
 840:Drivers/STM32F4xx_HAL_Driver/Src/stm32f4xx_hal_pcd.c ****   {
 841:Drivers/STM32F4xx_HAL_Driver/Src/stm32f4xx_hal_pcd.c ****     /* Update the error code */
 842:Drivers/STM32F4xx_HAL_Driver/Src/stm32f4xx_hal_pcd.c ****     hpcd->ErrorCode |= HAL_PCD_ERROR_INVALID_CALLBACK;
 843:Drivers/STM32F4xx_HAL_Driver/Src/stm32f4xx_hal_pcd.c **** 
 844:Drivers/STM32F4xx_HAL_Driver/Src/stm32f4xx_hal_pcd.c ****     return HAL_ERROR;
 845:Drivers/STM32F4xx_HAL_Driver/Src/stm32f4xx_hal_pcd.c ****   }
 846:Drivers/STM32F4xx_HAL_Driver/Src/stm32f4xx_hal_pcd.c **** 
 847:Drivers/STM32F4xx_HAL_Driver/Src/stm32f4xx_hal_pcd.c ****   /* Process locked */
 848:Drivers/STM32F4xx_HAL_Driver/Src/stm32f4xx_hal_pcd.c ****   __HAL_LOCK(hpcd);
 849:Drivers/STM32F4xx_HAL_Driver/Src/stm32f4xx_hal_pcd.c **** 
 850:Drivers/STM32F4xx_HAL_Driver/Src/stm32f4xx_hal_pcd.c ****   if (hpcd->State == HAL_PCD_STATE_READY)
 851:Drivers/STM32F4xx_HAL_Driver/Src/stm32f4xx_hal_pcd.c ****   {
 852:Drivers/STM32F4xx_HAL_Driver/Src/stm32f4xx_hal_pcd.c ****     hpcd->BCDCallback = pCallback;
 853:Drivers/STM32F4xx_HAL_Driver/Src/stm32f4xx_hal_pcd.c ****   }
 854:Drivers/STM32F4xx_HAL_Driver/Src/stm32f4xx_hal_pcd.c ****   else
 855:Drivers/STM32F4xx_HAL_Driver/Src/stm32f4xx_hal_pcd.c ****   {
 856:Drivers/STM32F4xx_HAL_Driver/Src/stm32f4xx_hal_pcd.c ****     /* Update the error code */
 857:Drivers/STM32F4xx_HAL_Driver/Src/stm32f4xx_hal_pcd.c ****     hpcd->ErrorCode |= HAL_PCD_ERROR_INVALID_CALLBACK;
 858:Drivers/STM32F4xx_HAL_Driver/Src/stm32f4xx_hal_pcd.c **** 
 859:Drivers/STM32F4xx_HAL_Driver/Src/stm32f4xx_hal_pcd.c ****     /* Return error status */
 860:Drivers/STM32F4xx_HAL_Driver/Src/stm32f4xx_hal_pcd.c ****     status =  HAL_ERROR;
 861:Drivers/STM32F4xx_HAL_Driver/Src/stm32f4xx_hal_pcd.c ****   }
 862:Drivers/STM32F4xx_HAL_Driver/Src/stm32f4xx_hal_pcd.c **** 
 863:Drivers/STM32F4xx_HAL_Driver/Src/stm32f4xx_hal_pcd.c ****   /* Release Lock */
 864:Drivers/STM32F4xx_HAL_Driver/Src/stm32f4xx_hal_pcd.c ****   __HAL_UNLOCK(hpcd);
 865:Drivers/STM32F4xx_HAL_Driver/Src/stm32f4xx_hal_pcd.c **** 
 866:Drivers/STM32F4xx_HAL_Driver/Src/stm32f4xx_hal_pcd.c ****   return status;
ARM GAS  /var/folders/vq/qt4vp3kd5rxf7v2b6_fdtdt80000gn/T//ccs5IouC.s 			page 26


 867:Drivers/STM32F4xx_HAL_Driver/Src/stm32f4xx_hal_pcd.c **** }
 868:Drivers/STM32F4xx_HAL_Driver/Src/stm32f4xx_hal_pcd.c **** 
 869:Drivers/STM32F4xx_HAL_Driver/Src/stm32f4xx_hal_pcd.c **** /**
 870:Drivers/STM32F4xx_HAL_Driver/Src/stm32f4xx_hal_pcd.c ****   * @brief  Unregister the USB PCD BCD Callback
 871:Drivers/STM32F4xx_HAL_Driver/Src/stm32f4xx_hal_pcd.c ****   *         USB BCD Callback is redirected to the weak HAL_PCDEx_BCD_Callback() predefined callback
 872:Drivers/STM32F4xx_HAL_Driver/Src/stm32f4xx_hal_pcd.c ****   * @param  hpcd PCD handle
 873:Drivers/STM32F4xx_HAL_Driver/Src/stm32f4xx_hal_pcd.c ****   * @retval HAL status
 874:Drivers/STM32F4xx_HAL_Driver/Src/stm32f4xx_hal_pcd.c ****   */
 875:Drivers/STM32F4xx_HAL_Driver/Src/stm32f4xx_hal_pcd.c **** HAL_StatusTypeDef HAL_PCD_UnRegisterBcdCallback(PCD_HandleTypeDef *hpcd)
 876:Drivers/STM32F4xx_HAL_Driver/Src/stm32f4xx_hal_pcd.c **** {
 877:Drivers/STM32F4xx_HAL_Driver/Src/stm32f4xx_hal_pcd.c ****   HAL_StatusTypeDef status = HAL_OK;
 878:Drivers/STM32F4xx_HAL_Driver/Src/stm32f4xx_hal_pcd.c **** 
 879:Drivers/STM32F4xx_HAL_Driver/Src/stm32f4xx_hal_pcd.c ****   /* Process locked */
 880:Drivers/STM32F4xx_HAL_Driver/Src/stm32f4xx_hal_pcd.c ****   __HAL_LOCK(hpcd);
 881:Drivers/STM32F4xx_HAL_Driver/Src/stm32f4xx_hal_pcd.c **** 
 882:Drivers/STM32F4xx_HAL_Driver/Src/stm32f4xx_hal_pcd.c ****   if (hpcd->State == HAL_PCD_STATE_READY)
 883:Drivers/STM32F4xx_HAL_Driver/Src/stm32f4xx_hal_pcd.c ****   {
 884:Drivers/STM32F4xx_HAL_Driver/Src/stm32f4xx_hal_pcd.c ****     hpcd->BCDCallback = HAL_PCDEx_BCD_Callback; /* Legacy weak HAL_PCDEx_BCD_Callback  */
 885:Drivers/STM32F4xx_HAL_Driver/Src/stm32f4xx_hal_pcd.c ****   }
 886:Drivers/STM32F4xx_HAL_Driver/Src/stm32f4xx_hal_pcd.c ****   else
 887:Drivers/STM32F4xx_HAL_Driver/Src/stm32f4xx_hal_pcd.c ****   {
 888:Drivers/STM32F4xx_HAL_Driver/Src/stm32f4xx_hal_pcd.c ****     /* Update the error code */
 889:Drivers/STM32F4xx_HAL_Driver/Src/stm32f4xx_hal_pcd.c ****     hpcd->ErrorCode |= HAL_PCD_ERROR_INVALID_CALLBACK;
 890:Drivers/STM32F4xx_HAL_Driver/Src/stm32f4xx_hal_pcd.c **** 
 891:Drivers/STM32F4xx_HAL_Driver/Src/stm32f4xx_hal_pcd.c ****     /* Return error status */
 892:Drivers/STM32F4xx_HAL_Driver/Src/stm32f4xx_hal_pcd.c ****     status =  HAL_ERROR;
 893:Drivers/STM32F4xx_HAL_Driver/Src/stm32f4xx_hal_pcd.c ****   }
 894:Drivers/STM32F4xx_HAL_Driver/Src/stm32f4xx_hal_pcd.c **** 
 895:Drivers/STM32F4xx_HAL_Driver/Src/stm32f4xx_hal_pcd.c ****   /* Release Lock */
 896:Drivers/STM32F4xx_HAL_Driver/Src/stm32f4xx_hal_pcd.c ****   __HAL_UNLOCK(hpcd);
 897:Drivers/STM32F4xx_HAL_Driver/Src/stm32f4xx_hal_pcd.c **** 
 898:Drivers/STM32F4xx_HAL_Driver/Src/stm32f4xx_hal_pcd.c ****   return status;
 899:Drivers/STM32F4xx_HAL_Driver/Src/stm32f4xx_hal_pcd.c **** }
 900:Drivers/STM32F4xx_HAL_Driver/Src/stm32f4xx_hal_pcd.c **** 
 901:Drivers/STM32F4xx_HAL_Driver/Src/stm32f4xx_hal_pcd.c **** /**
 902:Drivers/STM32F4xx_HAL_Driver/Src/stm32f4xx_hal_pcd.c ****   * @brief  Register USB PCD LPM Callback
 903:Drivers/STM32F4xx_HAL_Driver/Src/stm32f4xx_hal_pcd.c ****   *         To be used instead of the weak HAL_PCDEx_LPM_Callback() predefined callback
 904:Drivers/STM32F4xx_HAL_Driver/Src/stm32f4xx_hal_pcd.c ****   * @param  hpcd PCD handle
 905:Drivers/STM32F4xx_HAL_Driver/Src/stm32f4xx_hal_pcd.c ****   * @param  pCallback pointer to the USB PCD LPM Callback function
 906:Drivers/STM32F4xx_HAL_Driver/Src/stm32f4xx_hal_pcd.c ****   * @retval HAL status
 907:Drivers/STM32F4xx_HAL_Driver/Src/stm32f4xx_hal_pcd.c ****   */
 908:Drivers/STM32F4xx_HAL_Driver/Src/stm32f4xx_hal_pcd.c **** HAL_StatusTypeDef HAL_PCD_RegisterLpmCallback(PCD_HandleTypeDef *hpcd, pPCD_LpmCallbackTypeDef pCal
 909:Drivers/STM32F4xx_HAL_Driver/Src/stm32f4xx_hal_pcd.c **** {
 910:Drivers/STM32F4xx_HAL_Driver/Src/stm32f4xx_hal_pcd.c ****   HAL_StatusTypeDef status = HAL_OK;
 911:Drivers/STM32F4xx_HAL_Driver/Src/stm32f4xx_hal_pcd.c **** 
 912:Drivers/STM32F4xx_HAL_Driver/Src/stm32f4xx_hal_pcd.c ****   if (pCallback == NULL)
 913:Drivers/STM32F4xx_HAL_Driver/Src/stm32f4xx_hal_pcd.c ****   {
 914:Drivers/STM32F4xx_HAL_Driver/Src/stm32f4xx_hal_pcd.c ****     /* Update the error code */
 915:Drivers/STM32F4xx_HAL_Driver/Src/stm32f4xx_hal_pcd.c ****     hpcd->ErrorCode |= HAL_PCD_ERROR_INVALID_CALLBACK;
 916:Drivers/STM32F4xx_HAL_Driver/Src/stm32f4xx_hal_pcd.c **** 
 917:Drivers/STM32F4xx_HAL_Driver/Src/stm32f4xx_hal_pcd.c ****     return HAL_ERROR;
 918:Drivers/STM32F4xx_HAL_Driver/Src/stm32f4xx_hal_pcd.c ****   }
 919:Drivers/STM32F4xx_HAL_Driver/Src/stm32f4xx_hal_pcd.c **** 
 920:Drivers/STM32F4xx_HAL_Driver/Src/stm32f4xx_hal_pcd.c ****   /* Process locked */
 921:Drivers/STM32F4xx_HAL_Driver/Src/stm32f4xx_hal_pcd.c ****   __HAL_LOCK(hpcd);
 922:Drivers/STM32F4xx_HAL_Driver/Src/stm32f4xx_hal_pcd.c **** 
 923:Drivers/STM32F4xx_HAL_Driver/Src/stm32f4xx_hal_pcd.c ****   if (hpcd->State == HAL_PCD_STATE_READY)
ARM GAS  /var/folders/vq/qt4vp3kd5rxf7v2b6_fdtdt80000gn/T//ccs5IouC.s 			page 27


 924:Drivers/STM32F4xx_HAL_Driver/Src/stm32f4xx_hal_pcd.c ****   {
 925:Drivers/STM32F4xx_HAL_Driver/Src/stm32f4xx_hal_pcd.c ****     hpcd->LPMCallback = pCallback;
 926:Drivers/STM32F4xx_HAL_Driver/Src/stm32f4xx_hal_pcd.c ****   }
 927:Drivers/STM32F4xx_HAL_Driver/Src/stm32f4xx_hal_pcd.c ****   else
 928:Drivers/STM32F4xx_HAL_Driver/Src/stm32f4xx_hal_pcd.c ****   {
 929:Drivers/STM32F4xx_HAL_Driver/Src/stm32f4xx_hal_pcd.c ****     /* Update the error code */
 930:Drivers/STM32F4xx_HAL_Driver/Src/stm32f4xx_hal_pcd.c ****     hpcd->ErrorCode |= HAL_PCD_ERROR_INVALID_CALLBACK;
 931:Drivers/STM32F4xx_HAL_Driver/Src/stm32f4xx_hal_pcd.c **** 
 932:Drivers/STM32F4xx_HAL_Driver/Src/stm32f4xx_hal_pcd.c ****     /* Return error status */
 933:Drivers/STM32F4xx_HAL_Driver/Src/stm32f4xx_hal_pcd.c ****     status =  HAL_ERROR;
 934:Drivers/STM32F4xx_HAL_Driver/Src/stm32f4xx_hal_pcd.c ****   }
 935:Drivers/STM32F4xx_HAL_Driver/Src/stm32f4xx_hal_pcd.c **** 
 936:Drivers/STM32F4xx_HAL_Driver/Src/stm32f4xx_hal_pcd.c ****   /* Release Lock */
 937:Drivers/STM32F4xx_HAL_Driver/Src/stm32f4xx_hal_pcd.c ****   __HAL_UNLOCK(hpcd);
 938:Drivers/STM32F4xx_HAL_Driver/Src/stm32f4xx_hal_pcd.c **** 
 939:Drivers/STM32F4xx_HAL_Driver/Src/stm32f4xx_hal_pcd.c ****   return status;
 940:Drivers/STM32F4xx_HAL_Driver/Src/stm32f4xx_hal_pcd.c **** }
 941:Drivers/STM32F4xx_HAL_Driver/Src/stm32f4xx_hal_pcd.c **** 
 942:Drivers/STM32F4xx_HAL_Driver/Src/stm32f4xx_hal_pcd.c **** /**
 943:Drivers/STM32F4xx_HAL_Driver/Src/stm32f4xx_hal_pcd.c ****   * @brief  Unregister the USB PCD LPM Callback
 944:Drivers/STM32F4xx_HAL_Driver/Src/stm32f4xx_hal_pcd.c ****   *         USB LPM Callback is redirected to the weak HAL_PCDEx_LPM_Callback() predefined callback
 945:Drivers/STM32F4xx_HAL_Driver/Src/stm32f4xx_hal_pcd.c ****   * @param  hpcd PCD handle
 946:Drivers/STM32F4xx_HAL_Driver/Src/stm32f4xx_hal_pcd.c ****   * @retval HAL status
 947:Drivers/STM32F4xx_HAL_Driver/Src/stm32f4xx_hal_pcd.c ****   */
 948:Drivers/STM32F4xx_HAL_Driver/Src/stm32f4xx_hal_pcd.c **** HAL_StatusTypeDef HAL_PCD_UnRegisterLpmCallback(PCD_HandleTypeDef *hpcd)
 949:Drivers/STM32F4xx_HAL_Driver/Src/stm32f4xx_hal_pcd.c **** {
 950:Drivers/STM32F4xx_HAL_Driver/Src/stm32f4xx_hal_pcd.c ****   HAL_StatusTypeDef status = HAL_OK;
 951:Drivers/STM32F4xx_HAL_Driver/Src/stm32f4xx_hal_pcd.c **** 
 952:Drivers/STM32F4xx_HAL_Driver/Src/stm32f4xx_hal_pcd.c ****   /* Process locked */
 953:Drivers/STM32F4xx_HAL_Driver/Src/stm32f4xx_hal_pcd.c ****   __HAL_LOCK(hpcd);
 954:Drivers/STM32F4xx_HAL_Driver/Src/stm32f4xx_hal_pcd.c **** 
 955:Drivers/STM32F4xx_HAL_Driver/Src/stm32f4xx_hal_pcd.c ****   if (hpcd->State == HAL_PCD_STATE_READY)
 956:Drivers/STM32F4xx_HAL_Driver/Src/stm32f4xx_hal_pcd.c ****   {
 957:Drivers/STM32F4xx_HAL_Driver/Src/stm32f4xx_hal_pcd.c ****     hpcd->LPMCallback = HAL_PCDEx_LPM_Callback; /* Legacy weak HAL_PCDEx_LPM_Callback  */
 958:Drivers/STM32F4xx_HAL_Driver/Src/stm32f4xx_hal_pcd.c ****   }
 959:Drivers/STM32F4xx_HAL_Driver/Src/stm32f4xx_hal_pcd.c ****   else
 960:Drivers/STM32F4xx_HAL_Driver/Src/stm32f4xx_hal_pcd.c ****   {
 961:Drivers/STM32F4xx_HAL_Driver/Src/stm32f4xx_hal_pcd.c ****     /* Update the error code */
 962:Drivers/STM32F4xx_HAL_Driver/Src/stm32f4xx_hal_pcd.c ****     hpcd->ErrorCode |= HAL_PCD_ERROR_INVALID_CALLBACK;
 963:Drivers/STM32F4xx_HAL_Driver/Src/stm32f4xx_hal_pcd.c **** 
 964:Drivers/STM32F4xx_HAL_Driver/Src/stm32f4xx_hal_pcd.c ****     /* Return error status */
 965:Drivers/STM32F4xx_HAL_Driver/Src/stm32f4xx_hal_pcd.c ****     status =  HAL_ERROR;
 966:Drivers/STM32F4xx_HAL_Driver/Src/stm32f4xx_hal_pcd.c ****   }
 967:Drivers/STM32F4xx_HAL_Driver/Src/stm32f4xx_hal_pcd.c **** 
 968:Drivers/STM32F4xx_HAL_Driver/Src/stm32f4xx_hal_pcd.c ****   /* Release Lock */
 969:Drivers/STM32F4xx_HAL_Driver/Src/stm32f4xx_hal_pcd.c ****   __HAL_UNLOCK(hpcd);
 970:Drivers/STM32F4xx_HAL_Driver/Src/stm32f4xx_hal_pcd.c **** 
 971:Drivers/STM32F4xx_HAL_Driver/Src/stm32f4xx_hal_pcd.c ****   return status;
 972:Drivers/STM32F4xx_HAL_Driver/Src/stm32f4xx_hal_pcd.c **** }
 973:Drivers/STM32F4xx_HAL_Driver/Src/stm32f4xx_hal_pcd.c **** #endif /* USE_HAL_PCD_REGISTER_CALLBACKS */
 974:Drivers/STM32F4xx_HAL_Driver/Src/stm32f4xx_hal_pcd.c **** 
 975:Drivers/STM32F4xx_HAL_Driver/Src/stm32f4xx_hal_pcd.c **** /**
 976:Drivers/STM32F4xx_HAL_Driver/Src/stm32f4xx_hal_pcd.c ****   * @}
 977:Drivers/STM32F4xx_HAL_Driver/Src/stm32f4xx_hal_pcd.c ****   */
 978:Drivers/STM32F4xx_HAL_Driver/Src/stm32f4xx_hal_pcd.c **** 
 979:Drivers/STM32F4xx_HAL_Driver/Src/stm32f4xx_hal_pcd.c **** /** @defgroup PCD_Exported_Functions_Group2 Input and Output operation functions
 980:Drivers/STM32F4xx_HAL_Driver/Src/stm32f4xx_hal_pcd.c ****   *  @brief   Data transfers functions
ARM GAS  /var/folders/vq/qt4vp3kd5rxf7v2b6_fdtdt80000gn/T//ccs5IouC.s 			page 28


 981:Drivers/STM32F4xx_HAL_Driver/Src/stm32f4xx_hal_pcd.c ****   *
 982:Drivers/STM32F4xx_HAL_Driver/Src/stm32f4xx_hal_pcd.c **** @verbatim
 983:Drivers/STM32F4xx_HAL_Driver/Src/stm32f4xx_hal_pcd.c ****  ===============================================================================
 984:Drivers/STM32F4xx_HAL_Driver/Src/stm32f4xx_hal_pcd.c ****                       ##### IO operation functions #####
 985:Drivers/STM32F4xx_HAL_Driver/Src/stm32f4xx_hal_pcd.c ****  ===============================================================================
 986:Drivers/STM32F4xx_HAL_Driver/Src/stm32f4xx_hal_pcd.c ****     [..]
 987:Drivers/STM32F4xx_HAL_Driver/Src/stm32f4xx_hal_pcd.c ****     This subsection provides a set of functions allowing to manage the PCD data
 988:Drivers/STM32F4xx_HAL_Driver/Src/stm32f4xx_hal_pcd.c ****     transfers.
 989:Drivers/STM32F4xx_HAL_Driver/Src/stm32f4xx_hal_pcd.c **** 
 990:Drivers/STM32F4xx_HAL_Driver/Src/stm32f4xx_hal_pcd.c **** @endverbatim
 991:Drivers/STM32F4xx_HAL_Driver/Src/stm32f4xx_hal_pcd.c ****   * @{
 992:Drivers/STM32F4xx_HAL_Driver/Src/stm32f4xx_hal_pcd.c ****   */
 993:Drivers/STM32F4xx_HAL_Driver/Src/stm32f4xx_hal_pcd.c **** 
 994:Drivers/STM32F4xx_HAL_Driver/Src/stm32f4xx_hal_pcd.c **** /**
 995:Drivers/STM32F4xx_HAL_Driver/Src/stm32f4xx_hal_pcd.c ****   * @brief  Start the USB device
 996:Drivers/STM32F4xx_HAL_Driver/Src/stm32f4xx_hal_pcd.c ****   * @param  hpcd PCD handle
 997:Drivers/STM32F4xx_HAL_Driver/Src/stm32f4xx_hal_pcd.c ****   * @retval HAL status
 998:Drivers/STM32F4xx_HAL_Driver/Src/stm32f4xx_hal_pcd.c ****   */
 999:Drivers/STM32F4xx_HAL_Driver/Src/stm32f4xx_hal_pcd.c **** HAL_StatusTypeDef HAL_PCD_Start(PCD_HandleTypeDef *hpcd)
1000:Drivers/STM32F4xx_HAL_Driver/Src/stm32f4xx_hal_pcd.c **** {
 561              		.loc 1 1000 1
 562              		.cfi_startproc
 563              		@ args = 0, pretend = 0, frame = 16
 564              		@ frame_needed = 1, uses_anonymous_args = 0
 565 0000 80B5     		push	{r7, lr}
 566              	.LCFI22:
 567              		.cfi_def_cfa_offset 8
 568              		.cfi_offset 7, -8
 569              		.cfi_offset 14, -4
 570 0002 84B0     		sub	sp, sp, #16
 571              	.LCFI23:
 572              		.cfi_def_cfa_offset 24
 573 0004 00AF     		add	r7, sp, #0
 574              	.LCFI24:
 575              		.cfi_def_cfa_register 7
 576 0006 7860     		str	r0, [r7, #4]
1001:Drivers/STM32F4xx_HAL_Driver/Src/stm32f4xx_hal_pcd.c ****   USB_OTG_GlobalTypeDef *USBx = hpcd->Instance;
 577              		.loc 1 1001 26
 578 0008 7B68     		ldr	r3, [r7, #4]
 579 000a 1B68     		ldr	r3, [r3]
 580 000c FB60     		str	r3, [r7, #12]
1002:Drivers/STM32F4xx_HAL_Driver/Src/stm32f4xx_hal_pcd.c **** 
1003:Drivers/STM32F4xx_HAL_Driver/Src/stm32f4xx_hal_pcd.c ****   __HAL_LOCK(hpcd);
 581              		.loc 1 1003 3
 582 000e 7B68     		ldr	r3, [r7, #4]
 583 0010 93F8BC33 		ldrb	r3, [r3, #956]	@ zero_extendqisi2
 584 0014 012B     		cmp	r3, #1
 585 0016 01D1     		bne	.L19
 586              		.loc 1 1003 3 is_stmt 0 discriminator 1
 587 0018 0223     		movs	r3, #2
 588 001a 20E0     		b	.L20
 589              	.L19:
 590              		.loc 1 1003 3 discriminator 2
 591 001c 7B68     		ldr	r3, [r7, #4]
 592 001e 0122     		movs	r2, #1
 593 0020 83F8BC23 		strb	r2, [r3, #956]
1004:Drivers/STM32F4xx_HAL_Driver/Src/stm32f4xx_hal_pcd.c **** 
ARM GAS  /var/folders/vq/qt4vp3kd5rxf7v2b6_fdtdt80000gn/T//ccs5IouC.s 			page 29


1005:Drivers/STM32F4xx_HAL_Driver/Src/stm32f4xx_hal_pcd.c ****   if ((hpcd->Init.battery_charging_enable == 1U) &&
 594              		.loc 1 1005 18 is_stmt 1 discriminator 2
 595 0024 7B68     		ldr	r3, [r7, #4]
 596 0026 9B6A     		ldr	r3, [r3, #40]
 597              		.loc 1 1005 6 discriminator 2
 598 0028 012B     		cmp	r3, #1
 599 002a 09D1     		bne	.L21
1006:Drivers/STM32F4xx_HAL_Driver/Src/stm32f4xx_hal_pcd.c ****       (hpcd->Init.phy_itface != USB_OTG_ULPI_PHY))
 600              		.loc 1 1006 18 discriminator 1
 601 002c 7B68     		ldr	r3, [r7, #4]
 602 002e 9B69     		ldr	r3, [r3, #24]
1005:Drivers/STM32F4xx_HAL_Driver/Src/stm32f4xx_hal_pcd.c ****       (hpcd->Init.phy_itface != USB_OTG_ULPI_PHY))
 603              		.loc 1 1005 50 discriminator 1
 604 0030 012B     		cmp	r3, #1
 605 0032 05D0     		beq	.L21
1007:Drivers/STM32F4xx_HAL_Driver/Src/stm32f4xx_hal_pcd.c ****   {
1008:Drivers/STM32F4xx_HAL_Driver/Src/stm32f4xx_hal_pcd.c ****     /* Enable USB Transceiver */
1009:Drivers/STM32F4xx_HAL_Driver/Src/stm32f4xx_hal_pcd.c ****     USBx->GCCFG |= USB_OTG_GCCFG_PWRDWN;
 606              		.loc 1 1009 17
 607 0034 FB68     		ldr	r3, [r7, #12]
 608 0036 9B6B     		ldr	r3, [r3, #56]
 609 0038 43F48032 		orr	r2, r3, #65536
 610 003c FB68     		ldr	r3, [r7, #12]
 611 003e 9A63     		str	r2, [r3, #56]
 612              	.L21:
1010:Drivers/STM32F4xx_HAL_Driver/Src/stm32f4xx_hal_pcd.c ****   }
1011:Drivers/STM32F4xx_HAL_Driver/Src/stm32f4xx_hal_pcd.c **** 
1012:Drivers/STM32F4xx_HAL_Driver/Src/stm32f4xx_hal_pcd.c ****   __HAL_PCD_ENABLE(hpcd);
 613              		.loc 1 1012 3
 614 0040 7B68     		ldr	r3, [r7, #4]
 615 0042 1B68     		ldr	r3, [r3]
 616 0044 1846     		mov	r0, r3
 617 0046 FFF7FEFF 		bl	USB_EnableGlobalInt
1013:Drivers/STM32F4xx_HAL_Driver/Src/stm32f4xx_hal_pcd.c ****   (void)USB_DevConnect(hpcd->Instance);
 618              		.loc 1 1013 28
 619 004a 7B68     		ldr	r3, [r7, #4]
 620 004c 1B68     		ldr	r3, [r3]
 621              		.loc 1 1013 9
 622 004e 1846     		mov	r0, r3
 623 0050 FFF7FEFF 		bl	USB_DevConnect
1014:Drivers/STM32F4xx_HAL_Driver/Src/stm32f4xx_hal_pcd.c ****   __HAL_UNLOCK(hpcd);
 624              		.loc 1 1014 3
 625 0054 7B68     		ldr	r3, [r7, #4]
 626 0056 0022     		movs	r2, #0
 627 0058 83F8BC23 		strb	r2, [r3, #956]
1015:Drivers/STM32F4xx_HAL_Driver/Src/stm32f4xx_hal_pcd.c **** 
1016:Drivers/STM32F4xx_HAL_Driver/Src/stm32f4xx_hal_pcd.c ****   return HAL_OK;
 628              		.loc 1 1016 10
 629 005c 0023     		movs	r3, #0
 630              	.L20:
1017:Drivers/STM32F4xx_HAL_Driver/Src/stm32f4xx_hal_pcd.c **** }
 631              		.loc 1 1017 1
 632 005e 1846     		mov	r0, r3
 633 0060 1037     		adds	r7, r7, #16
 634              	.LCFI25:
 635              		.cfi_def_cfa_offset 8
 636 0062 BD46     		mov	sp, r7
ARM GAS  /var/folders/vq/qt4vp3kd5rxf7v2b6_fdtdt80000gn/T//ccs5IouC.s 			page 30


 637              	.LCFI26:
 638              		.cfi_def_cfa_register 13
 639              		@ sp needed
 640 0064 80BD     		pop	{r7, pc}
 641              		.cfi_endproc
 642              	.LFE134:
 644              		.section	.text.HAL_PCD_Stop,"ax",%progbits
 645              		.align	1
 646              		.global	HAL_PCD_Stop
 647              		.syntax unified
 648              		.thumb
 649              		.thumb_func
 650              		.fpu fpv4-sp-d16
 652              	HAL_PCD_Stop:
 653              	.LFB135:
1018:Drivers/STM32F4xx_HAL_Driver/Src/stm32f4xx_hal_pcd.c **** 
1019:Drivers/STM32F4xx_HAL_Driver/Src/stm32f4xx_hal_pcd.c **** /**
1020:Drivers/STM32F4xx_HAL_Driver/Src/stm32f4xx_hal_pcd.c ****   * @brief  Stop the USB device.
1021:Drivers/STM32F4xx_HAL_Driver/Src/stm32f4xx_hal_pcd.c ****   * @param  hpcd PCD handle
1022:Drivers/STM32F4xx_HAL_Driver/Src/stm32f4xx_hal_pcd.c ****   * @retval HAL status
1023:Drivers/STM32F4xx_HAL_Driver/Src/stm32f4xx_hal_pcd.c ****   */
1024:Drivers/STM32F4xx_HAL_Driver/Src/stm32f4xx_hal_pcd.c **** HAL_StatusTypeDef HAL_PCD_Stop(PCD_HandleTypeDef *hpcd)
1025:Drivers/STM32F4xx_HAL_Driver/Src/stm32f4xx_hal_pcd.c **** {
 654              		.loc 1 1025 1
 655              		.cfi_startproc
 656              		@ args = 0, pretend = 0, frame = 16
 657              		@ frame_needed = 1, uses_anonymous_args = 0
 658 0000 80B5     		push	{r7, lr}
 659              	.LCFI27:
 660              		.cfi_def_cfa_offset 8
 661              		.cfi_offset 7, -8
 662              		.cfi_offset 14, -4
 663 0002 84B0     		sub	sp, sp, #16
 664              	.LCFI28:
 665              		.cfi_def_cfa_offset 24
 666 0004 00AF     		add	r7, sp, #0
 667              	.LCFI29:
 668              		.cfi_def_cfa_register 7
 669 0006 7860     		str	r0, [r7, #4]
1026:Drivers/STM32F4xx_HAL_Driver/Src/stm32f4xx_hal_pcd.c ****   USB_OTG_GlobalTypeDef *USBx = hpcd->Instance;
 670              		.loc 1 1026 26
 671 0008 7B68     		ldr	r3, [r7, #4]
 672 000a 1B68     		ldr	r3, [r3]
 673 000c FB60     		str	r3, [r7, #12]
1027:Drivers/STM32F4xx_HAL_Driver/Src/stm32f4xx_hal_pcd.c **** 
1028:Drivers/STM32F4xx_HAL_Driver/Src/stm32f4xx_hal_pcd.c ****   __HAL_LOCK(hpcd);
 674              		.loc 1 1028 3
 675 000e 7B68     		ldr	r3, [r7, #4]
 676 0010 93F8BC33 		ldrb	r3, [r3, #956]	@ zero_extendqisi2
 677 0014 012B     		cmp	r3, #1
 678 0016 01D1     		bne	.L23
 679              		.loc 1 1028 3 is_stmt 0 discriminator 1
 680 0018 0223     		movs	r3, #2
 681 001a 26E0     		b	.L24
 682              	.L23:
 683              		.loc 1 1028 3 discriminator 2
 684 001c 7B68     		ldr	r3, [r7, #4]
ARM GAS  /var/folders/vq/qt4vp3kd5rxf7v2b6_fdtdt80000gn/T//ccs5IouC.s 			page 31


 685 001e 0122     		movs	r2, #1
 686 0020 83F8BC23 		strb	r2, [r3, #956]
1029:Drivers/STM32F4xx_HAL_Driver/Src/stm32f4xx_hal_pcd.c ****   __HAL_PCD_DISABLE(hpcd);
 687              		.loc 1 1029 3 is_stmt 1 discriminator 2
 688 0024 7B68     		ldr	r3, [r7, #4]
 689 0026 1B68     		ldr	r3, [r3]
 690 0028 1846     		mov	r0, r3
 691 002a FFF7FEFF 		bl	USB_DisableGlobalInt
1030:Drivers/STM32F4xx_HAL_Driver/Src/stm32f4xx_hal_pcd.c ****   (void)USB_DevDisconnect(hpcd->Instance);
 692              		.loc 1 1030 31 discriminator 2
 693 002e 7B68     		ldr	r3, [r7, #4]
 694 0030 1B68     		ldr	r3, [r3]
 695              		.loc 1 1030 9 discriminator 2
 696 0032 1846     		mov	r0, r3
 697 0034 FFF7FEFF 		bl	USB_DevDisconnect
1031:Drivers/STM32F4xx_HAL_Driver/Src/stm32f4xx_hal_pcd.c **** 
1032:Drivers/STM32F4xx_HAL_Driver/Src/stm32f4xx_hal_pcd.c ****   (void)USB_FlushTxFifo(hpcd->Instance, 0x10U);
 698              		.loc 1 1032 29 discriminator 2
 699 0038 7B68     		ldr	r3, [r7, #4]
 700 003a 1B68     		ldr	r3, [r3]
 701              		.loc 1 1032 9 discriminator 2
 702 003c 1021     		movs	r1, #16
 703 003e 1846     		mov	r0, r3
 704 0040 FFF7FEFF 		bl	USB_FlushTxFifo
1033:Drivers/STM32F4xx_HAL_Driver/Src/stm32f4xx_hal_pcd.c **** 
1034:Drivers/STM32F4xx_HAL_Driver/Src/stm32f4xx_hal_pcd.c ****   if ((hpcd->Init.battery_charging_enable == 1U) &&
 705              		.loc 1 1034 18 discriminator 2
 706 0044 7B68     		ldr	r3, [r7, #4]
 707 0046 9B6A     		ldr	r3, [r3, #40]
 708              		.loc 1 1034 6 discriminator 2
 709 0048 012B     		cmp	r3, #1
 710 004a 09D1     		bne	.L25
1035:Drivers/STM32F4xx_HAL_Driver/Src/stm32f4xx_hal_pcd.c ****       (hpcd->Init.phy_itface != USB_OTG_ULPI_PHY))
 711              		.loc 1 1035 18 discriminator 1
 712 004c 7B68     		ldr	r3, [r7, #4]
 713 004e 9B69     		ldr	r3, [r3, #24]
1034:Drivers/STM32F4xx_HAL_Driver/Src/stm32f4xx_hal_pcd.c ****       (hpcd->Init.phy_itface != USB_OTG_ULPI_PHY))
 714              		.loc 1 1034 50 discriminator 1
 715 0050 012B     		cmp	r3, #1
 716 0052 05D0     		beq	.L25
1036:Drivers/STM32F4xx_HAL_Driver/Src/stm32f4xx_hal_pcd.c ****   {
1037:Drivers/STM32F4xx_HAL_Driver/Src/stm32f4xx_hal_pcd.c ****     /* Disable USB Transceiver */
1038:Drivers/STM32F4xx_HAL_Driver/Src/stm32f4xx_hal_pcd.c ****     USBx->GCCFG &= ~(USB_OTG_GCCFG_PWRDWN);
 717              		.loc 1 1038 17
 718 0054 FB68     		ldr	r3, [r7, #12]
 719 0056 9B6B     		ldr	r3, [r3, #56]
 720 0058 23F48032 		bic	r2, r3, #65536
 721 005c FB68     		ldr	r3, [r7, #12]
 722 005e 9A63     		str	r2, [r3, #56]
 723              	.L25:
1039:Drivers/STM32F4xx_HAL_Driver/Src/stm32f4xx_hal_pcd.c ****   }
1040:Drivers/STM32F4xx_HAL_Driver/Src/stm32f4xx_hal_pcd.c ****   __HAL_UNLOCK(hpcd);
 724              		.loc 1 1040 3
 725 0060 7B68     		ldr	r3, [r7, #4]
 726 0062 0022     		movs	r2, #0
 727 0064 83F8BC23 		strb	r2, [r3, #956]
1041:Drivers/STM32F4xx_HAL_Driver/Src/stm32f4xx_hal_pcd.c **** 
ARM GAS  /var/folders/vq/qt4vp3kd5rxf7v2b6_fdtdt80000gn/T//ccs5IouC.s 			page 32


1042:Drivers/STM32F4xx_HAL_Driver/Src/stm32f4xx_hal_pcd.c ****   return HAL_OK;
 728              		.loc 1 1042 10
 729 0068 0023     		movs	r3, #0
 730              	.L24:
1043:Drivers/STM32F4xx_HAL_Driver/Src/stm32f4xx_hal_pcd.c **** }
 731              		.loc 1 1043 1
 732 006a 1846     		mov	r0, r3
 733 006c 1037     		adds	r7, r7, #16
 734              	.LCFI30:
 735              		.cfi_def_cfa_offset 8
 736 006e BD46     		mov	sp, r7
 737              	.LCFI31:
 738              		.cfi_def_cfa_register 13
 739              		@ sp needed
 740 0070 80BD     		pop	{r7, pc}
 741              		.cfi_endproc
 742              	.LFE135:
 744              		.section	.text.HAL_PCD_IRQHandler,"ax",%progbits
 745              		.align	1
 746              		.global	HAL_PCD_IRQHandler
 747              		.syntax unified
 748              		.thumb
 749              		.thumb_func
 750              		.fpu fpv4-sp-d16
 752              	HAL_PCD_IRQHandler:
 753              	.LFB136:
1044:Drivers/STM32F4xx_HAL_Driver/Src/stm32f4xx_hal_pcd.c **** 
1045:Drivers/STM32F4xx_HAL_Driver/Src/stm32f4xx_hal_pcd.c **** #if defined (USB_OTG_FS) || defined (USB_OTG_HS)
1046:Drivers/STM32F4xx_HAL_Driver/Src/stm32f4xx_hal_pcd.c **** /**
1047:Drivers/STM32F4xx_HAL_Driver/Src/stm32f4xx_hal_pcd.c ****   * @brief  Handles PCD interrupt request.
1048:Drivers/STM32F4xx_HAL_Driver/Src/stm32f4xx_hal_pcd.c ****   * @param  hpcd PCD handle
1049:Drivers/STM32F4xx_HAL_Driver/Src/stm32f4xx_hal_pcd.c ****   * @retval HAL status
1050:Drivers/STM32F4xx_HAL_Driver/Src/stm32f4xx_hal_pcd.c ****   */
1051:Drivers/STM32F4xx_HAL_Driver/Src/stm32f4xx_hal_pcd.c **** void HAL_PCD_IRQHandler(PCD_HandleTypeDef *hpcd)
1052:Drivers/STM32F4xx_HAL_Driver/Src/stm32f4xx_hal_pcd.c **** {
 754              		.loc 1 1052 1
 755              		.cfi_startproc
 756              		@ args = 0, pretend = 0, frame = 48
 757              		@ frame_needed = 1, uses_anonymous_args = 0
 758 0000 90B5     		push	{r4, r7, lr}
 759              	.LCFI32:
 760              		.cfi_def_cfa_offset 12
 761              		.cfi_offset 4, -12
 762              		.cfi_offset 7, -8
 763              		.cfi_offset 14, -4
 764 0002 8DB0     		sub	sp, sp, #52
 765              	.LCFI33:
 766              		.cfi_def_cfa_offset 64
 767 0004 00AF     		add	r7, sp, #0
 768              	.LCFI34:
 769              		.cfi_def_cfa_register 7
 770 0006 7860     		str	r0, [r7, #4]
1053:Drivers/STM32F4xx_HAL_Driver/Src/stm32f4xx_hal_pcd.c ****   USB_OTG_GlobalTypeDef *USBx = hpcd->Instance;
 771              		.loc 1 1053 26
 772 0008 7B68     		ldr	r3, [r7, #4]
 773 000a 1B68     		ldr	r3, [r3]
 774 000c 3B62     		str	r3, [r7, #32]
ARM GAS  /var/folders/vq/qt4vp3kd5rxf7v2b6_fdtdt80000gn/T//ccs5IouC.s 			page 33


1054:Drivers/STM32F4xx_HAL_Driver/Src/stm32f4xx_hal_pcd.c ****   uint32_t USBx_BASE = (uint32_t)USBx;
 775              		.loc 1 1054 12
 776 000e 3B6A     		ldr	r3, [r7, #32]
 777 0010 FB61     		str	r3, [r7, #28]
1055:Drivers/STM32F4xx_HAL_Driver/Src/stm32f4xx_hal_pcd.c ****   uint32_t i, ep_intr, epint, epnum;
1056:Drivers/STM32F4xx_HAL_Driver/Src/stm32f4xx_hal_pcd.c ****   uint32_t fifoemptymsk, temp;
1057:Drivers/STM32F4xx_HAL_Driver/Src/stm32f4xx_hal_pcd.c ****   USB_OTG_EPTypeDef *ep;
1058:Drivers/STM32F4xx_HAL_Driver/Src/stm32f4xx_hal_pcd.c **** 
1059:Drivers/STM32F4xx_HAL_Driver/Src/stm32f4xx_hal_pcd.c ****   /* ensure that we are in device mode */
1060:Drivers/STM32F4xx_HAL_Driver/Src/stm32f4xx_hal_pcd.c ****   if (USB_GetMode(hpcd->Instance) == USB_OTG_MODE_DEVICE)
 778              		.loc 1 1060 23
 779 0012 7B68     		ldr	r3, [r7, #4]
 780 0014 1B68     		ldr	r3, [r3]
 781              		.loc 1 1060 7
 782 0016 1846     		mov	r0, r3
 783 0018 FFF7FEFF 		bl	USB_GetMode
 784 001c 0346     		mov	r3, r0
 785              		.loc 1 1060 6
 786 001e 002B     		cmp	r3, #0
 787 0020 40F09D83 		bne	.L26
1061:Drivers/STM32F4xx_HAL_Driver/Src/stm32f4xx_hal_pcd.c ****   {
1062:Drivers/STM32F4xx_HAL_Driver/Src/stm32f4xx_hal_pcd.c ****     /* avoid spurious interrupt */
1063:Drivers/STM32F4xx_HAL_Driver/Src/stm32f4xx_hal_pcd.c ****     if (__HAL_PCD_IS_INVALID_INTERRUPT(hpcd))
 788              		.loc 1 1063 9
 789 0024 7B68     		ldr	r3, [r7, #4]
 790 0026 1B68     		ldr	r3, [r3]
 791 0028 1846     		mov	r0, r3
 792 002a FFF7FEFF 		bl	USB_ReadInterrupts
 793 002e 0346     		mov	r3, r0
 794              		.loc 1 1063 8
 795 0030 002B     		cmp	r3, #0
 796 0032 00F09383 		beq	.L67
1064:Drivers/STM32F4xx_HAL_Driver/Src/stm32f4xx_hal_pcd.c ****     {
1065:Drivers/STM32F4xx_HAL_Driver/Src/stm32f4xx_hal_pcd.c ****       return;
1066:Drivers/STM32F4xx_HAL_Driver/Src/stm32f4xx_hal_pcd.c ****     }
1067:Drivers/STM32F4xx_HAL_Driver/Src/stm32f4xx_hal_pcd.c **** 
1068:Drivers/STM32F4xx_HAL_Driver/Src/stm32f4xx_hal_pcd.c ****     if (__HAL_PCD_GET_FLAG(hpcd, USB_OTG_GINTSTS_MMIS))
 797              		.loc 1 1068 9
 798 0036 7B68     		ldr	r3, [r7, #4]
 799 0038 1B68     		ldr	r3, [r3]
 800 003a 1846     		mov	r0, r3
 801 003c FFF7FEFF 		bl	USB_ReadInterrupts
 802 0040 0346     		mov	r3, r0
 803 0042 03F00203 		and	r3, r3, #2
 804              		.loc 1 1068 8
 805 0046 022B     		cmp	r3, #2
 806 0048 07D1     		bne	.L29
1069:Drivers/STM32F4xx_HAL_Driver/Src/stm32f4xx_hal_pcd.c ****     {
1070:Drivers/STM32F4xx_HAL_Driver/Src/stm32f4xx_hal_pcd.c ****       /* incorrect mode, acknowledge the interrupt */
1071:Drivers/STM32F4xx_HAL_Driver/Src/stm32f4xx_hal_pcd.c ****       __HAL_PCD_CLEAR_FLAG(hpcd, USB_OTG_GINTSTS_MMIS);
 807              		.loc 1 1071 7
 808 004a 7B68     		ldr	r3, [r7, #4]
 809 004c 1B68     		ldr	r3, [r3]
 810 004e 5A69     		ldr	r2, [r3, #20]
 811 0050 7B68     		ldr	r3, [r7, #4]
 812 0052 1B68     		ldr	r3, [r3]
 813 0054 02F00202 		and	r2, r2, #2
ARM GAS  /var/folders/vq/qt4vp3kd5rxf7v2b6_fdtdt80000gn/T//ccs5IouC.s 			page 34


 814 0058 5A61     		str	r2, [r3, #20]
 815              	.L29:
1072:Drivers/STM32F4xx_HAL_Driver/Src/stm32f4xx_hal_pcd.c ****     }
1073:Drivers/STM32F4xx_HAL_Driver/Src/stm32f4xx_hal_pcd.c **** 
1074:Drivers/STM32F4xx_HAL_Driver/Src/stm32f4xx_hal_pcd.c ****     /* Handle RxQLevel Interrupt */
1075:Drivers/STM32F4xx_HAL_Driver/Src/stm32f4xx_hal_pcd.c ****     if (__HAL_PCD_GET_FLAG(hpcd, USB_OTG_GINTSTS_RXFLVL))
 816              		.loc 1 1075 9
 817 005a 7B68     		ldr	r3, [r7, #4]
 818 005c 1B68     		ldr	r3, [r3]
 819 005e 1846     		mov	r0, r3
 820 0060 FFF7FEFF 		bl	USB_ReadInterrupts
 821 0064 0346     		mov	r3, r0
 822 0066 03F01003 		and	r3, r3, #16
 823              		.loc 1 1075 8
 824 006a 102B     		cmp	r3, #16
 825 006c 61D1     		bne	.L30
1076:Drivers/STM32F4xx_HAL_Driver/Src/stm32f4xx_hal_pcd.c ****     {
1077:Drivers/STM32F4xx_HAL_Driver/Src/stm32f4xx_hal_pcd.c ****       USB_MASK_INTERRUPT(hpcd->Instance, USB_OTG_GINTSTS_RXFLVL);
 826              		.loc 1 1077 7
 827 006e 7B68     		ldr	r3, [r7, #4]
 828 0070 1B68     		ldr	r3, [r3]
 829 0072 9A69     		ldr	r2, [r3, #24]
 830 0074 7B68     		ldr	r3, [r7, #4]
 831 0076 1B68     		ldr	r3, [r3]
 832 0078 22F01002 		bic	r2, r2, #16
 833 007c 9A61     		str	r2, [r3, #24]
1078:Drivers/STM32F4xx_HAL_Driver/Src/stm32f4xx_hal_pcd.c **** 
1079:Drivers/STM32F4xx_HAL_Driver/Src/stm32f4xx_hal_pcd.c ****       temp = USBx->GRXSTSP;
 834              		.loc 1 1079 12
 835 007e 3B6A     		ldr	r3, [r7, #32]
 836 0080 1B6A     		ldr	r3, [r3, #32]
 837 0082 BB61     		str	r3, [r7, #24]
1080:Drivers/STM32F4xx_HAL_Driver/Src/stm32f4xx_hal_pcd.c **** 
1081:Drivers/STM32F4xx_HAL_Driver/Src/stm32f4xx_hal_pcd.c ****       ep = &hpcd->OUT_ep[temp & USB_OTG_GRXSTSP_EPNUM];
 838              		.loc 1 1081 31
 839 0084 BB69     		ldr	r3, [r7, #24]
 840 0086 03F00F02 		and	r2, r3, #15
 841              		.loc 1 1081 10
 842 008a 1346     		mov	r3, r2
 843 008c DB00     		lsls	r3, r3, #3
 844 008e 9B1A     		subs	r3, r3, r2
 845 0090 9B00     		lsls	r3, r3, #2
 846 0092 03F5FC73 		add	r3, r3, #504
 847 0096 7A68     		ldr	r2, [r7, #4]
 848 0098 1344     		add	r3, r3, r2
 849 009a 0433     		adds	r3, r3, #4
 850 009c 7B61     		str	r3, [r7, #20]
1082:Drivers/STM32F4xx_HAL_Driver/Src/stm32f4xx_hal_pcd.c **** 
1083:Drivers/STM32F4xx_HAL_Driver/Src/stm32f4xx_hal_pcd.c ****       if (((temp & USB_OTG_GRXSTSP_PKTSTS) >> 17) ==  STS_DATA_UPDT)
 851              		.loc 1 1083 44
 852 009e BB69     		ldr	r3, [r7, #24]
 853 00a0 5B0C     		lsrs	r3, r3, #17
 854 00a2 03F00F03 		and	r3, r3, #15
 855              		.loc 1 1083 10
 856 00a6 022B     		cmp	r3, #2
 857 00a8 24D1     		bne	.L31
1084:Drivers/STM32F4xx_HAL_Driver/Src/stm32f4xx_hal_pcd.c ****       {
ARM GAS  /var/folders/vq/qt4vp3kd5rxf7v2b6_fdtdt80000gn/T//ccs5IouC.s 			page 35


1085:Drivers/STM32F4xx_HAL_Driver/Src/stm32f4xx_hal_pcd.c ****         if ((temp & USB_OTG_GRXSTSP_BCNT) != 0U)
 858              		.loc 1 1085 19
 859 00aa BA69     		ldr	r2, [r7, #24]
 860 00ac 47F6F073 		movw	r3, #32752
 861 00b0 1340     		ands	r3, r3, r2
 862              		.loc 1 1085 12
 863 00b2 002B     		cmp	r3, #0
 864 00b4 35D0     		beq	.L32
1086:Drivers/STM32F4xx_HAL_Driver/Src/stm32f4xx_hal_pcd.c ****         {
1087:Drivers/STM32F4xx_HAL_Driver/Src/stm32f4xx_hal_pcd.c ****           (void)USB_ReadPacket(USBx, ep->xfer_buff,
 865              		.loc 1 1087 17
 866 00b6 7B69     		ldr	r3, [r7, #20]
 867 00b8 D968     		ldr	r1, [r3, #12]
1088:Drivers/STM32F4xx_HAL_Driver/Src/stm32f4xx_hal_pcd.c ****                                (uint16_t)((temp & USB_OTG_GRXSTSP_BCNT) >> 4));
 868              		.loc 1 1088 73
 869 00ba BB69     		ldr	r3, [r7, #24]
 870 00bc 1B09     		lsrs	r3, r3, #4
 871              		.loc 1 1088 32
 872 00be 9BB2     		uxth	r3, r3
1087:Drivers/STM32F4xx_HAL_Driver/Src/stm32f4xx_hal_pcd.c ****                                (uint16_t)((temp & USB_OTG_GRXSTSP_BCNT) >> 4));
 873              		.loc 1 1087 17
 874 00c0 C3F30A03 		ubfx	r3, r3, #0, #11
 875 00c4 9BB2     		uxth	r3, r3
 876 00c6 1A46     		mov	r2, r3
 877 00c8 386A     		ldr	r0, [r7, #32]
 878 00ca FFF7FEFF 		bl	USB_ReadPacket
1089:Drivers/STM32F4xx_HAL_Driver/Src/stm32f4xx_hal_pcd.c **** 
1090:Drivers/STM32F4xx_HAL_Driver/Src/stm32f4xx_hal_pcd.c ****           ep->xfer_buff += (temp & USB_OTG_GRXSTSP_BCNT) >> 4;
 879              		.loc 1 1090 25
 880 00ce 7B69     		ldr	r3, [r7, #20]
 881 00d0 DA68     		ldr	r2, [r3, #12]
 882              		.loc 1 1090 58
 883 00d2 BB69     		ldr	r3, [r7, #24]
 884 00d4 1B09     		lsrs	r3, r3, #4
 885 00d6 C3F30A03 		ubfx	r3, r3, #0, #11
 886              		.loc 1 1090 25
 887 00da 1A44     		add	r2, r2, r3
 888 00dc 7B69     		ldr	r3, [r7, #20]
 889 00de DA60     		str	r2, [r3, #12]
1091:Drivers/STM32F4xx_HAL_Driver/Src/stm32f4xx_hal_pcd.c ****           ep->xfer_count += (temp & USB_OTG_GRXSTSP_BCNT) >> 4;
 890              		.loc 1 1091 26
 891 00e0 7B69     		ldr	r3, [r7, #20]
 892 00e2 9A69     		ldr	r2, [r3, #24]
 893              		.loc 1 1091 59
 894 00e4 BB69     		ldr	r3, [r7, #24]
 895 00e6 1B09     		lsrs	r3, r3, #4
 896 00e8 C3F30A03 		ubfx	r3, r3, #0, #11
 897              		.loc 1 1091 26
 898 00ec 1A44     		add	r2, r2, r3
 899 00ee 7B69     		ldr	r3, [r7, #20]
 900 00f0 9A61     		str	r2, [r3, #24]
 901 00f2 16E0     		b	.L32
 902              	.L31:
1092:Drivers/STM32F4xx_HAL_Driver/Src/stm32f4xx_hal_pcd.c ****         }
1093:Drivers/STM32F4xx_HAL_Driver/Src/stm32f4xx_hal_pcd.c ****       }
1094:Drivers/STM32F4xx_HAL_Driver/Src/stm32f4xx_hal_pcd.c ****       else if (((temp & USB_OTG_GRXSTSP_PKTSTS) >> 17) ==  STS_SETUP_UPDT)
 903              		.loc 1 1094 49
ARM GAS  /var/folders/vq/qt4vp3kd5rxf7v2b6_fdtdt80000gn/T//ccs5IouC.s 			page 36


 904 00f4 BB69     		ldr	r3, [r7, #24]
 905 00f6 5B0C     		lsrs	r3, r3, #17
 906 00f8 03F00F03 		and	r3, r3, #15
 907              		.loc 1 1094 15
 908 00fc 062B     		cmp	r3, #6
 909 00fe 10D1     		bne	.L32
1095:Drivers/STM32F4xx_HAL_Driver/Src/stm32f4xx_hal_pcd.c ****       {
1096:Drivers/STM32F4xx_HAL_Driver/Src/stm32f4xx_hal_pcd.c ****         (void)USB_ReadPacket(USBx, (uint8_t *)hpcd->Setup, 8U);
 910              		.loc 1 1096 47
 911 0100 7B68     		ldr	r3, [r7, #4]
 912 0102 03F57173 		add	r3, r3, #964
 913              		.loc 1 1096 15
 914 0106 0822     		movs	r2, #8
 915 0108 1946     		mov	r1, r3
 916 010a 386A     		ldr	r0, [r7, #32]
 917 010c FFF7FEFF 		bl	USB_ReadPacket
1097:Drivers/STM32F4xx_HAL_Driver/Src/stm32f4xx_hal_pcd.c ****         ep->xfer_count += (temp & USB_OTG_GRXSTSP_BCNT) >> 4;
 918              		.loc 1 1097 24
 919 0110 7B69     		ldr	r3, [r7, #20]
 920 0112 9A69     		ldr	r2, [r3, #24]
 921              		.loc 1 1097 57
 922 0114 BB69     		ldr	r3, [r7, #24]
 923 0116 1B09     		lsrs	r3, r3, #4
 924 0118 C3F30A03 		ubfx	r3, r3, #0, #11
 925              		.loc 1 1097 24
 926 011c 1A44     		add	r2, r2, r3
 927 011e 7B69     		ldr	r3, [r7, #20]
 928 0120 9A61     		str	r2, [r3, #24]
 929              	.L32:
1098:Drivers/STM32F4xx_HAL_Driver/Src/stm32f4xx_hal_pcd.c ****       }
1099:Drivers/STM32F4xx_HAL_Driver/Src/stm32f4xx_hal_pcd.c ****       else
1100:Drivers/STM32F4xx_HAL_Driver/Src/stm32f4xx_hal_pcd.c ****       {
1101:Drivers/STM32F4xx_HAL_Driver/Src/stm32f4xx_hal_pcd.c ****         /* ... */
1102:Drivers/STM32F4xx_HAL_Driver/Src/stm32f4xx_hal_pcd.c ****       }
1103:Drivers/STM32F4xx_HAL_Driver/Src/stm32f4xx_hal_pcd.c ****       USB_UNMASK_INTERRUPT(hpcd->Instance, USB_OTG_GINTSTS_RXFLVL);
 930              		.loc 1 1103 7
 931 0122 7B68     		ldr	r3, [r7, #4]
 932 0124 1B68     		ldr	r3, [r3]
 933 0126 9A69     		ldr	r2, [r3, #24]
 934 0128 7B68     		ldr	r3, [r7, #4]
 935 012a 1B68     		ldr	r3, [r3]
 936 012c 42F01002 		orr	r2, r2, #16
 937 0130 9A61     		str	r2, [r3, #24]
 938              	.L30:
1104:Drivers/STM32F4xx_HAL_Driver/Src/stm32f4xx_hal_pcd.c ****     }
1105:Drivers/STM32F4xx_HAL_Driver/Src/stm32f4xx_hal_pcd.c **** 
1106:Drivers/STM32F4xx_HAL_Driver/Src/stm32f4xx_hal_pcd.c ****     if (__HAL_PCD_GET_FLAG(hpcd, USB_OTG_GINTSTS_OEPINT))
 939              		.loc 1 1106 9
 940 0132 7B68     		ldr	r3, [r7, #4]
 941 0134 1B68     		ldr	r3, [r3]
 942 0136 1846     		mov	r0, r3
 943 0138 FFF7FEFF 		bl	USB_ReadInterrupts
 944 013c 0346     		mov	r3, r0
 945 013e 03F40023 		and	r3, r3, #524288
 946              		.loc 1 1106 8
 947 0142 B3F5002F 		cmp	r3, #524288
 948 0146 6ED1     		bne	.L33
ARM GAS  /var/folders/vq/qt4vp3kd5rxf7v2b6_fdtdt80000gn/T//ccs5IouC.s 			page 37


1107:Drivers/STM32F4xx_HAL_Driver/Src/stm32f4xx_hal_pcd.c ****     {
1108:Drivers/STM32F4xx_HAL_Driver/Src/stm32f4xx_hal_pcd.c ****       epnum = 0U;
 949              		.loc 1 1108 13
 950 0148 0023     		movs	r3, #0
 951 014a 7B62     		str	r3, [r7, #36]
1109:Drivers/STM32F4xx_HAL_Driver/Src/stm32f4xx_hal_pcd.c **** 
1110:Drivers/STM32F4xx_HAL_Driver/Src/stm32f4xx_hal_pcd.c ****       /* Read in the device interrupt bits */
1111:Drivers/STM32F4xx_HAL_Driver/Src/stm32f4xx_hal_pcd.c ****       ep_intr = USB_ReadDevAllOutEpInterrupt(hpcd->Instance);
 952              		.loc 1 1111 50
 953 014c 7B68     		ldr	r3, [r7, #4]
 954 014e 1B68     		ldr	r3, [r3]
 955              		.loc 1 1111 17
 956 0150 1846     		mov	r0, r3
 957 0152 FFF7FEFF 		bl	USB_ReadDevAllOutEpInterrupt
 958 0156 B862     		str	r0, [r7, #40]
1112:Drivers/STM32F4xx_HAL_Driver/Src/stm32f4xx_hal_pcd.c **** 
1113:Drivers/STM32F4xx_HAL_Driver/Src/stm32f4xx_hal_pcd.c ****       while (ep_intr != 0U)
 959              		.loc 1 1113 13
 960 0158 62E0     		b	.L34
 961              	.L40:
1114:Drivers/STM32F4xx_HAL_Driver/Src/stm32f4xx_hal_pcd.c ****       {
1115:Drivers/STM32F4xx_HAL_Driver/Src/stm32f4xx_hal_pcd.c ****         if ((ep_intr & 0x1U) != 0U)
 962              		.loc 1 1115 22
 963 015a BB6A     		ldr	r3, [r7, #40]
 964 015c 03F00103 		and	r3, r3, #1
 965              		.loc 1 1115 12
 966 0160 002B     		cmp	r3, #0
 967 0162 57D0     		beq	.L35
1116:Drivers/STM32F4xx_HAL_Driver/Src/stm32f4xx_hal_pcd.c ****         {
1117:Drivers/STM32F4xx_HAL_Driver/Src/stm32f4xx_hal_pcd.c ****           epint = USB_ReadDevOutEPInterrupt(hpcd->Instance, (uint8_t)epnum);
 968              		.loc 1 1117 49
 969 0164 7B68     		ldr	r3, [r7, #4]
 970 0166 1B68     		ldr	r3, [r3]
 971              		.loc 1 1117 19
 972 0168 7A6A     		ldr	r2, [r7, #36]
 973 016a D2B2     		uxtb	r2, r2
 974 016c 1146     		mov	r1, r2
 975 016e 1846     		mov	r0, r3
 976 0170 FFF7FEFF 		bl	USB_ReadDevOutEPInterrupt
 977 0174 3861     		str	r0, [r7, #16]
1118:Drivers/STM32F4xx_HAL_Driver/Src/stm32f4xx_hal_pcd.c **** 
1119:Drivers/STM32F4xx_HAL_Driver/Src/stm32f4xx_hal_pcd.c ****           if ((epint & USB_OTG_DOEPINT_XFRC) == USB_OTG_DOEPINT_XFRC)
 978              		.loc 1 1119 22
 979 0176 3B69     		ldr	r3, [r7, #16]
 980 0178 03F00103 		and	r3, r3, #1
 981              		.loc 1 1119 14
 982 017c 002B     		cmp	r3, #0
 983 017e 0CD0     		beq	.L36
1120:Drivers/STM32F4xx_HAL_Driver/Src/stm32f4xx_hal_pcd.c ****           {
1121:Drivers/STM32F4xx_HAL_Driver/Src/stm32f4xx_hal_pcd.c ****             CLEAR_OUT_EP_INTR(epnum, USB_OTG_DOEPINT_XFRC);
 984              		.loc 1 1121 13
 985 0180 7B6A     		ldr	r3, [r7, #36]
 986 0182 5A01     		lsls	r2, r3, #5
 987 0184 FB69     		ldr	r3, [r7, #28]
 988 0186 1344     		add	r3, r3, r2
 989 0188 03F53063 		add	r3, r3, #2816
 990 018c 1A46     		mov	r2, r3
ARM GAS  /var/folders/vq/qt4vp3kd5rxf7v2b6_fdtdt80000gn/T//ccs5IouC.s 			page 38


 991 018e 0123     		movs	r3, #1
 992 0190 9360     		str	r3, [r2, #8]
1122:Drivers/STM32F4xx_HAL_Driver/Src/stm32f4xx_hal_pcd.c ****             (void)PCD_EP_OutXfrComplete_int(hpcd, epnum);
 993              		.loc 1 1122 19
 994 0192 796A     		ldr	r1, [r7, #36]
 995 0194 7868     		ldr	r0, [r7, #4]
 996 0196 FFF7FEFF 		bl	PCD_EP_OutXfrComplete_int
 997              	.L36:
1123:Drivers/STM32F4xx_HAL_Driver/Src/stm32f4xx_hal_pcd.c ****           }
1124:Drivers/STM32F4xx_HAL_Driver/Src/stm32f4xx_hal_pcd.c **** 
1125:Drivers/STM32F4xx_HAL_Driver/Src/stm32f4xx_hal_pcd.c ****           if ((epint & USB_OTG_DOEPINT_STUP) == USB_OTG_DOEPINT_STUP)
 998              		.loc 1 1125 22
 999 019a 3B69     		ldr	r3, [r7, #16]
 1000 019c 03F00803 		and	r3, r3, #8
 1001              		.loc 1 1125 14
 1002 01a0 002B     		cmp	r3, #0
 1003 01a2 0CD0     		beq	.L37
1126:Drivers/STM32F4xx_HAL_Driver/Src/stm32f4xx_hal_pcd.c ****           {
1127:Drivers/STM32F4xx_HAL_Driver/Src/stm32f4xx_hal_pcd.c ****             CLEAR_OUT_EP_INTR(epnum, USB_OTG_DOEPINT_STUP);
 1004              		.loc 1 1127 13
 1005 01a4 7B6A     		ldr	r3, [r7, #36]
 1006 01a6 5A01     		lsls	r2, r3, #5
 1007 01a8 FB69     		ldr	r3, [r7, #28]
 1008 01aa 1344     		add	r3, r3, r2
 1009 01ac 03F53063 		add	r3, r3, #2816
 1010 01b0 1A46     		mov	r2, r3
 1011 01b2 0823     		movs	r3, #8
 1012 01b4 9360     		str	r3, [r2, #8]
1128:Drivers/STM32F4xx_HAL_Driver/Src/stm32f4xx_hal_pcd.c ****             /* Class B setup phase done for previous decoded setup */
1129:Drivers/STM32F4xx_HAL_Driver/Src/stm32f4xx_hal_pcd.c ****             (void)PCD_EP_OutSetupPacket_int(hpcd, epnum);
 1013              		.loc 1 1129 19
 1014 01b6 796A     		ldr	r1, [r7, #36]
 1015 01b8 7868     		ldr	r0, [r7, #4]
 1016 01ba FFF7FEFF 		bl	PCD_EP_OutSetupPacket_int
 1017              	.L37:
1130:Drivers/STM32F4xx_HAL_Driver/Src/stm32f4xx_hal_pcd.c ****           }
1131:Drivers/STM32F4xx_HAL_Driver/Src/stm32f4xx_hal_pcd.c **** 
1132:Drivers/STM32F4xx_HAL_Driver/Src/stm32f4xx_hal_pcd.c ****           if ((epint & USB_OTG_DOEPINT_OTEPDIS) == USB_OTG_DOEPINT_OTEPDIS)
 1018              		.loc 1 1132 22
 1019 01be 3B69     		ldr	r3, [r7, #16]
 1020 01c0 03F01003 		and	r3, r3, #16
 1021              		.loc 1 1132 14
 1022 01c4 002B     		cmp	r3, #0
 1023 01c6 08D0     		beq	.L38
1133:Drivers/STM32F4xx_HAL_Driver/Src/stm32f4xx_hal_pcd.c ****           {
1134:Drivers/STM32F4xx_HAL_Driver/Src/stm32f4xx_hal_pcd.c ****             CLEAR_OUT_EP_INTR(epnum, USB_OTG_DOEPINT_OTEPDIS);
 1024              		.loc 1 1134 13
 1025 01c8 7B6A     		ldr	r3, [r7, #36]
 1026 01ca 5A01     		lsls	r2, r3, #5
 1027 01cc FB69     		ldr	r3, [r7, #28]
 1028 01ce 1344     		add	r3, r3, r2
 1029 01d0 03F53063 		add	r3, r3, #2816
 1030 01d4 1A46     		mov	r2, r3
 1031 01d6 1023     		movs	r3, #16
 1032 01d8 9360     		str	r3, [r2, #8]
 1033              	.L38:
1135:Drivers/STM32F4xx_HAL_Driver/Src/stm32f4xx_hal_pcd.c ****           }
ARM GAS  /var/folders/vq/qt4vp3kd5rxf7v2b6_fdtdt80000gn/T//ccs5IouC.s 			page 39


1136:Drivers/STM32F4xx_HAL_Driver/Src/stm32f4xx_hal_pcd.c **** 
1137:Drivers/STM32F4xx_HAL_Driver/Src/stm32f4xx_hal_pcd.c ****           /* Clear Status Phase Received interrupt */
1138:Drivers/STM32F4xx_HAL_Driver/Src/stm32f4xx_hal_pcd.c ****           if ((epint & USB_OTG_DOEPINT_OTEPSPR) == USB_OTG_DOEPINT_OTEPSPR)
 1034              		.loc 1 1138 22
 1035 01da 3B69     		ldr	r3, [r7, #16]
 1036 01dc 03F02003 		and	r3, r3, #32
 1037              		.loc 1 1138 14
 1038 01e0 002B     		cmp	r3, #0
 1039 01e2 08D0     		beq	.L39
1139:Drivers/STM32F4xx_HAL_Driver/Src/stm32f4xx_hal_pcd.c ****           {
1140:Drivers/STM32F4xx_HAL_Driver/Src/stm32f4xx_hal_pcd.c ****             CLEAR_OUT_EP_INTR(epnum, USB_OTG_DOEPINT_OTEPSPR);
 1040              		.loc 1 1140 13
 1041 01e4 7B6A     		ldr	r3, [r7, #36]
 1042 01e6 5A01     		lsls	r2, r3, #5
 1043 01e8 FB69     		ldr	r3, [r7, #28]
 1044 01ea 1344     		add	r3, r3, r2
 1045 01ec 03F53063 		add	r3, r3, #2816
 1046 01f0 1A46     		mov	r2, r3
 1047 01f2 2023     		movs	r3, #32
 1048 01f4 9360     		str	r3, [r2, #8]
 1049              	.L39:
1141:Drivers/STM32F4xx_HAL_Driver/Src/stm32f4xx_hal_pcd.c ****           }
1142:Drivers/STM32F4xx_HAL_Driver/Src/stm32f4xx_hal_pcd.c **** 
1143:Drivers/STM32F4xx_HAL_Driver/Src/stm32f4xx_hal_pcd.c ****           /* Clear OUT NAK interrupt */
1144:Drivers/STM32F4xx_HAL_Driver/Src/stm32f4xx_hal_pcd.c ****           if ((epint & USB_OTG_DOEPINT_NAK) == USB_OTG_DOEPINT_NAK)
 1050              		.loc 1 1144 22
 1051 01f6 3B69     		ldr	r3, [r7, #16]
 1052 01f8 03F40053 		and	r3, r3, #8192
 1053              		.loc 1 1144 14
 1054 01fc 002B     		cmp	r3, #0
 1055 01fe 09D0     		beq	.L35
1145:Drivers/STM32F4xx_HAL_Driver/Src/stm32f4xx_hal_pcd.c ****           {
1146:Drivers/STM32F4xx_HAL_Driver/Src/stm32f4xx_hal_pcd.c ****             CLEAR_OUT_EP_INTR(epnum, USB_OTG_DOEPINT_NAK);
 1056              		.loc 1 1146 13
 1057 0200 7B6A     		ldr	r3, [r7, #36]
 1058 0202 5A01     		lsls	r2, r3, #5
 1059 0204 FB69     		ldr	r3, [r7, #28]
 1060 0206 1344     		add	r3, r3, r2
 1061 0208 03F53063 		add	r3, r3, #2816
 1062 020c 1A46     		mov	r2, r3
 1063 020e 4FF40053 		mov	r3, #8192
 1064 0212 9360     		str	r3, [r2, #8]
 1065              	.L35:
1147:Drivers/STM32F4xx_HAL_Driver/Src/stm32f4xx_hal_pcd.c ****           }
1148:Drivers/STM32F4xx_HAL_Driver/Src/stm32f4xx_hal_pcd.c ****         }
1149:Drivers/STM32F4xx_HAL_Driver/Src/stm32f4xx_hal_pcd.c ****         epnum++;
 1066              		.loc 1 1149 14
 1067 0214 7B6A     		ldr	r3, [r7, #36]
 1068 0216 0133     		adds	r3, r3, #1
 1069 0218 7B62     		str	r3, [r7, #36]
1150:Drivers/STM32F4xx_HAL_Driver/Src/stm32f4xx_hal_pcd.c ****         ep_intr >>= 1U;
 1070              		.loc 1 1150 17
 1071 021a BB6A     		ldr	r3, [r7, #40]
 1072 021c 5B08     		lsrs	r3, r3, #1
 1073 021e BB62     		str	r3, [r7, #40]
 1074              	.L34:
1113:Drivers/STM32F4xx_HAL_Driver/Src/stm32f4xx_hal_pcd.c ****       {
ARM GAS  /var/folders/vq/qt4vp3kd5rxf7v2b6_fdtdt80000gn/T//ccs5IouC.s 			page 40


 1075              		.loc 1 1113 13
 1076 0220 BB6A     		ldr	r3, [r7, #40]
 1077 0222 002B     		cmp	r3, #0
 1078 0224 99D1     		bne	.L40
 1079              	.L33:
1151:Drivers/STM32F4xx_HAL_Driver/Src/stm32f4xx_hal_pcd.c ****       }
1152:Drivers/STM32F4xx_HAL_Driver/Src/stm32f4xx_hal_pcd.c ****     }
1153:Drivers/STM32F4xx_HAL_Driver/Src/stm32f4xx_hal_pcd.c **** 
1154:Drivers/STM32F4xx_HAL_Driver/Src/stm32f4xx_hal_pcd.c ****     if (__HAL_PCD_GET_FLAG(hpcd, USB_OTG_GINTSTS_IEPINT))
 1080              		.loc 1 1154 9
 1081 0226 7B68     		ldr	r3, [r7, #4]
 1082 0228 1B68     		ldr	r3, [r3]
 1083 022a 1846     		mov	r0, r3
 1084 022c FFF7FEFF 		bl	USB_ReadInterrupts
 1085 0230 0346     		mov	r3, r0
 1086 0232 03F48023 		and	r3, r3, #262144
 1087              		.loc 1 1154 8
 1088 0236 B3F5802F 		cmp	r3, #262144
 1089 023a 40F0C080 		bne	.L41
1155:Drivers/STM32F4xx_HAL_Driver/Src/stm32f4xx_hal_pcd.c ****     {
1156:Drivers/STM32F4xx_HAL_Driver/Src/stm32f4xx_hal_pcd.c ****       /* Read in the device interrupt bits */
1157:Drivers/STM32F4xx_HAL_Driver/Src/stm32f4xx_hal_pcd.c ****       ep_intr = USB_ReadDevAllInEpInterrupt(hpcd->Instance);
 1090              		.loc 1 1157 49
 1091 023e 7B68     		ldr	r3, [r7, #4]
 1092 0240 1B68     		ldr	r3, [r3]
 1093              		.loc 1 1157 17
 1094 0242 1846     		mov	r0, r3
 1095 0244 FFF7FEFF 		bl	USB_ReadDevAllInEpInterrupt
 1096 0248 B862     		str	r0, [r7, #40]
1158:Drivers/STM32F4xx_HAL_Driver/Src/stm32f4xx_hal_pcd.c **** 
1159:Drivers/STM32F4xx_HAL_Driver/Src/stm32f4xx_hal_pcd.c ****       epnum = 0U;
 1097              		.loc 1 1159 13
 1098 024a 0023     		movs	r3, #0
 1099 024c 7B62     		str	r3, [r7, #36]
1160:Drivers/STM32F4xx_HAL_Driver/Src/stm32f4xx_hal_pcd.c **** 
1161:Drivers/STM32F4xx_HAL_Driver/Src/stm32f4xx_hal_pcd.c ****       while (ep_intr != 0U)
 1100              		.loc 1 1161 13
 1101 024e B2E0     		b	.L42
 1102              	.L50:
1162:Drivers/STM32F4xx_HAL_Driver/Src/stm32f4xx_hal_pcd.c ****       {
1163:Drivers/STM32F4xx_HAL_Driver/Src/stm32f4xx_hal_pcd.c ****         if ((ep_intr & 0x1U) != 0U) /* In ITR */
 1103              		.loc 1 1163 22
 1104 0250 BB6A     		ldr	r3, [r7, #40]
 1105 0252 03F00103 		and	r3, r3, #1
 1106              		.loc 1 1163 12
 1107 0256 002B     		cmp	r3, #0
 1108 0258 00F0A780 		beq	.L43
1164:Drivers/STM32F4xx_HAL_Driver/Src/stm32f4xx_hal_pcd.c ****         {
1165:Drivers/STM32F4xx_HAL_Driver/Src/stm32f4xx_hal_pcd.c ****           epint = USB_ReadDevInEPInterrupt(hpcd->Instance, (uint8_t)epnum);
 1109              		.loc 1 1165 48
 1110 025c 7B68     		ldr	r3, [r7, #4]
 1111 025e 1B68     		ldr	r3, [r3]
 1112              		.loc 1 1165 19
 1113 0260 7A6A     		ldr	r2, [r7, #36]
 1114 0262 D2B2     		uxtb	r2, r2
 1115 0264 1146     		mov	r1, r2
 1116 0266 1846     		mov	r0, r3
ARM GAS  /var/folders/vq/qt4vp3kd5rxf7v2b6_fdtdt80000gn/T//ccs5IouC.s 			page 41


 1117 0268 FFF7FEFF 		bl	USB_ReadDevInEPInterrupt
 1118 026c 3861     		str	r0, [r7, #16]
1166:Drivers/STM32F4xx_HAL_Driver/Src/stm32f4xx_hal_pcd.c **** 
1167:Drivers/STM32F4xx_HAL_Driver/Src/stm32f4xx_hal_pcd.c ****           if ((epint & USB_OTG_DIEPINT_XFRC) == USB_OTG_DIEPINT_XFRC)
 1119              		.loc 1 1167 22
 1120 026e 3B69     		ldr	r3, [r7, #16]
 1121 0270 03F00103 		and	r3, r3, #1
 1122              		.loc 1 1167 14
 1123 0274 002B     		cmp	r3, #0
 1124 0276 57D0     		beq	.L44
1168:Drivers/STM32F4xx_HAL_Driver/Src/stm32f4xx_hal_pcd.c ****           {
1169:Drivers/STM32F4xx_HAL_Driver/Src/stm32f4xx_hal_pcd.c ****             fifoemptymsk = (uint32_t)(0x1UL << (epnum & EP_ADDR_MSK));
 1125              		.loc 1 1169 55
 1126 0278 7B6A     		ldr	r3, [r7, #36]
 1127 027a 03F00F03 		and	r3, r3, #15
 1128              		.loc 1 1169 26
 1129 027e 0122     		movs	r2, #1
 1130 0280 02FA03F3 		lsl	r3, r2, r3
 1131 0284 FB60     		str	r3, [r7, #12]
1170:Drivers/STM32F4xx_HAL_Driver/Src/stm32f4xx_hal_pcd.c ****             USBx_DEVICE->DIEPEMPMSK &= ~fifoemptymsk;
 1132              		.loc 1 1170 37
 1133 0286 FB69     		ldr	r3, [r7, #28]
 1134 0288 03F50063 		add	r3, r3, #2048
 1135 028c 5A6B     		ldr	r2, [r3, #52]
 1136              		.loc 1 1170 40
 1137 028e FB68     		ldr	r3, [r7, #12]
 1138 0290 DB43     		mvns	r3, r3
 1139              		.loc 1 1170 37
 1140 0292 F969     		ldr	r1, [r7, #28]
 1141 0294 01F50061 		add	r1, r1, #2048
 1142 0298 1340     		ands	r3, r3, r2
 1143 029a 4B63     		str	r3, [r1, #52]
1171:Drivers/STM32F4xx_HAL_Driver/Src/stm32f4xx_hal_pcd.c **** 
1172:Drivers/STM32F4xx_HAL_Driver/Src/stm32f4xx_hal_pcd.c ****             CLEAR_IN_EP_INTR(epnum, USB_OTG_DIEPINT_XFRC);
 1144              		.loc 1 1172 13
 1145 029c 7B6A     		ldr	r3, [r7, #36]
 1146 029e 5A01     		lsls	r2, r3, #5
 1147 02a0 FB69     		ldr	r3, [r7, #28]
 1148 02a2 1344     		add	r3, r3, r2
 1149 02a4 03F51063 		add	r3, r3, #2304
 1150 02a8 1A46     		mov	r2, r3
 1151 02aa 0123     		movs	r3, #1
 1152 02ac 9360     		str	r3, [r2, #8]
1173:Drivers/STM32F4xx_HAL_Driver/Src/stm32f4xx_hal_pcd.c **** 
1174:Drivers/STM32F4xx_HAL_Driver/Src/stm32f4xx_hal_pcd.c ****             if (hpcd->Init.dma_enable == 1U)
 1153              		.loc 1 1174 27
 1154 02ae 7B68     		ldr	r3, [r7, #4]
 1155 02b0 1B69     		ldr	r3, [r3, #16]
 1156              		.loc 1 1174 16
 1157 02b2 012B     		cmp	r3, #1
 1158 02b4 32D1     		bne	.L45
1175:Drivers/STM32F4xx_HAL_Driver/Src/stm32f4xx_hal_pcd.c ****             {
1176:Drivers/STM32F4xx_HAL_Driver/Src/stm32f4xx_hal_pcd.c ****               hpcd->IN_ep[epnum].xfer_buff += hpcd->IN_ep[epnum].maxpacket;
 1159              		.loc 1 1176 44
 1160 02b6 7968     		ldr	r1, [r7, #4]
 1161 02b8 7A6A     		ldr	r2, [r7, #36]
 1162 02ba 1346     		mov	r3, r2
ARM GAS  /var/folders/vq/qt4vp3kd5rxf7v2b6_fdtdt80000gn/T//ccs5IouC.s 			page 42


 1163 02bc DB00     		lsls	r3, r3, #3
 1164 02be 9B1A     		subs	r3, r3, r2
 1165 02c0 9B00     		lsls	r3, r3, #2
 1166 02c2 0B44     		add	r3, r3, r1
 1167 02c4 4833     		adds	r3, r3, #72
 1168 02c6 1968     		ldr	r1, [r3]
 1169              		.loc 1 1176 65
 1170 02c8 7868     		ldr	r0, [r7, #4]
 1171 02ca 7A6A     		ldr	r2, [r7, #36]
 1172 02cc 1346     		mov	r3, r2
 1173 02ce DB00     		lsls	r3, r3, #3
 1174 02d0 9B1A     		subs	r3, r3, r2
 1175 02d2 9B00     		lsls	r3, r3, #2
 1176 02d4 0344     		add	r3, r3, r0
 1177 02d6 4433     		adds	r3, r3, #68
 1178 02d8 1B68     		ldr	r3, [r3]
 1179              		.loc 1 1176 44
 1180 02da 1944     		add	r1, r1, r3
 1181 02dc 7868     		ldr	r0, [r7, #4]
 1182 02de 7A6A     		ldr	r2, [r7, #36]
 1183 02e0 1346     		mov	r3, r2
 1184 02e2 DB00     		lsls	r3, r3, #3
 1185 02e4 9B1A     		subs	r3, r3, r2
 1186 02e6 9B00     		lsls	r3, r3, #2
 1187 02e8 0344     		add	r3, r3, r0
 1188 02ea 4833     		adds	r3, r3, #72
 1189 02ec 1960     		str	r1, [r3]
1177:Drivers/STM32F4xx_HAL_Driver/Src/stm32f4xx_hal_pcd.c **** 
1178:Drivers/STM32F4xx_HAL_Driver/Src/stm32f4xx_hal_pcd.c ****               /* this is ZLP, so prepare EP0 for next setup */
1179:Drivers/STM32F4xx_HAL_Driver/Src/stm32f4xx_hal_pcd.c ****               if ((epnum == 0U) && (hpcd->IN_ep[epnum].xfer_len == 0U))
 1190              		.loc 1 1179 18
 1191 02ee 7B6A     		ldr	r3, [r7, #36]
 1192 02f0 002B     		cmp	r3, #0
 1193 02f2 13D1     		bne	.L45
 1194              		.loc 1 1179 55 discriminator 1
 1195 02f4 7968     		ldr	r1, [r7, #4]
 1196 02f6 7A6A     		ldr	r2, [r7, #36]
 1197 02f8 1346     		mov	r3, r2
 1198 02fa DB00     		lsls	r3, r3, #3
 1199 02fc 9B1A     		subs	r3, r3, r2
 1200 02fe 9B00     		lsls	r3, r3, #2
 1201 0300 0B44     		add	r3, r3, r1
 1202 0302 5033     		adds	r3, r3, #80
 1203 0304 1B68     		ldr	r3, [r3]
 1204              		.loc 1 1179 33 discriminator 1
 1205 0306 002B     		cmp	r3, #0
 1206 0308 08D1     		bne	.L45
1180:Drivers/STM32F4xx_HAL_Driver/Src/stm32f4xx_hal_pcd.c ****               {
1181:Drivers/STM32F4xx_HAL_Driver/Src/stm32f4xx_hal_pcd.c ****                 /* prepare to rx more setup packets */
1182:Drivers/STM32F4xx_HAL_Driver/Src/stm32f4xx_hal_pcd.c ****                 (void)USB_EP0_OutStart(hpcd->Instance, 1U, (uint8_t *)hpcd->Setup);
 1207              		.loc 1 1182 44
 1208 030a 7B68     		ldr	r3, [r7, #4]
 1209 030c 1868     		ldr	r0, [r3]
 1210              		.loc 1 1182 71
 1211 030e 7B68     		ldr	r3, [r7, #4]
 1212 0310 03F57173 		add	r3, r3, #964
 1213              		.loc 1 1182 23
ARM GAS  /var/folders/vq/qt4vp3kd5rxf7v2b6_fdtdt80000gn/T//ccs5IouC.s 			page 43


 1214 0314 1A46     		mov	r2, r3
 1215 0316 0121     		movs	r1, #1
 1216 0318 FFF7FEFF 		bl	USB_EP0_OutStart
 1217              	.L45:
1183:Drivers/STM32F4xx_HAL_Driver/Src/stm32f4xx_hal_pcd.c ****               }
1184:Drivers/STM32F4xx_HAL_Driver/Src/stm32f4xx_hal_pcd.c ****             }
1185:Drivers/STM32F4xx_HAL_Driver/Src/stm32f4xx_hal_pcd.c **** 
1186:Drivers/STM32F4xx_HAL_Driver/Src/stm32f4xx_hal_pcd.c **** #if (USE_HAL_PCD_REGISTER_CALLBACKS == 1U)
1187:Drivers/STM32F4xx_HAL_Driver/Src/stm32f4xx_hal_pcd.c ****             hpcd->DataInStageCallback(hpcd, (uint8_t)epnum);
1188:Drivers/STM32F4xx_HAL_Driver/Src/stm32f4xx_hal_pcd.c **** #else
1189:Drivers/STM32F4xx_HAL_Driver/Src/stm32f4xx_hal_pcd.c ****             HAL_PCD_DataInStageCallback(hpcd, (uint8_t)epnum);
 1218              		.loc 1 1189 13
 1219 031c 7B6A     		ldr	r3, [r7, #36]
 1220 031e DBB2     		uxtb	r3, r3
 1221 0320 1946     		mov	r1, r3
 1222 0322 7868     		ldr	r0, [r7, #4]
 1223 0324 FFF7FEFF 		bl	HAL_PCD_DataInStageCallback
 1224              	.L44:
1190:Drivers/STM32F4xx_HAL_Driver/Src/stm32f4xx_hal_pcd.c **** #endif /* USE_HAL_PCD_REGISTER_CALLBACKS */
1191:Drivers/STM32F4xx_HAL_Driver/Src/stm32f4xx_hal_pcd.c ****           }
1192:Drivers/STM32F4xx_HAL_Driver/Src/stm32f4xx_hal_pcd.c ****           if ((epint & USB_OTG_DIEPINT_TOC) == USB_OTG_DIEPINT_TOC)
 1225              		.loc 1 1192 22
 1226 0328 3B69     		ldr	r3, [r7, #16]
 1227 032a 03F00803 		and	r3, r3, #8
 1228              		.loc 1 1192 14
 1229 032e 002B     		cmp	r3, #0
 1230 0330 08D0     		beq	.L46
1193:Drivers/STM32F4xx_HAL_Driver/Src/stm32f4xx_hal_pcd.c ****           {
1194:Drivers/STM32F4xx_HAL_Driver/Src/stm32f4xx_hal_pcd.c ****             CLEAR_IN_EP_INTR(epnum, USB_OTG_DIEPINT_TOC);
 1231              		.loc 1 1194 13
 1232 0332 7B6A     		ldr	r3, [r7, #36]
 1233 0334 5A01     		lsls	r2, r3, #5
 1234 0336 FB69     		ldr	r3, [r7, #28]
 1235 0338 1344     		add	r3, r3, r2
 1236 033a 03F51063 		add	r3, r3, #2304
 1237 033e 1A46     		mov	r2, r3
 1238 0340 0823     		movs	r3, #8
 1239 0342 9360     		str	r3, [r2, #8]
 1240              	.L46:
1195:Drivers/STM32F4xx_HAL_Driver/Src/stm32f4xx_hal_pcd.c ****           }
1196:Drivers/STM32F4xx_HAL_Driver/Src/stm32f4xx_hal_pcd.c ****           if ((epint & USB_OTG_DIEPINT_ITTXFE) == USB_OTG_DIEPINT_ITTXFE)
 1241              		.loc 1 1196 22
 1242 0344 3B69     		ldr	r3, [r7, #16]
 1243 0346 03F01003 		and	r3, r3, #16
 1244              		.loc 1 1196 14
 1245 034a 002B     		cmp	r3, #0
 1246 034c 08D0     		beq	.L47
1197:Drivers/STM32F4xx_HAL_Driver/Src/stm32f4xx_hal_pcd.c ****           {
1198:Drivers/STM32F4xx_HAL_Driver/Src/stm32f4xx_hal_pcd.c ****             CLEAR_IN_EP_INTR(epnum, USB_OTG_DIEPINT_ITTXFE);
 1247              		.loc 1 1198 13
 1248 034e 7B6A     		ldr	r3, [r7, #36]
 1249 0350 5A01     		lsls	r2, r3, #5
 1250 0352 FB69     		ldr	r3, [r7, #28]
 1251 0354 1344     		add	r3, r3, r2
 1252 0356 03F51063 		add	r3, r3, #2304
 1253 035a 1A46     		mov	r2, r3
 1254 035c 1023     		movs	r3, #16
ARM GAS  /var/folders/vq/qt4vp3kd5rxf7v2b6_fdtdt80000gn/T//ccs5IouC.s 			page 44


 1255 035e 9360     		str	r3, [r2, #8]
 1256              	.L47:
1199:Drivers/STM32F4xx_HAL_Driver/Src/stm32f4xx_hal_pcd.c ****           }
1200:Drivers/STM32F4xx_HAL_Driver/Src/stm32f4xx_hal_pcd.c ****           if ((epint & USB_OTG_DIEPINT_INEPNE) == USB_OTG_DIEPINT_INEPNE)
 1257              		.loc 1 1200 22
 1258 0360 3B69     		ldr	r3, [r7, #16]
 1259 0362 03F04003 		and	r3, r3, #64
 1260              		.loc 1 1200 14
 1261 0366 002B     		cmp	r3, #0
 1262 0368 08D0     		beq	.L48
1201:Drivers/STM32F4xx_HAL_Driver/Src/stm32f4xx_hal_pcd.c ****           {
1202:Drivers/STM32F4xx_HAL_Driver/Src/stm32f4xx_hal_pcd.c ****             CLEAR_IN_EP_INTR(epnum, USB_OTG_DIEPINT_INEPNE);
 1263              		.loc 1 1202 13
 1264 036a 7B6A     		ldr	r3, [r7, #36]
 1265 036c 5A01     		lsls	r2, r3, #5
 1266 036e FB69     		ldr	r3, [r7, #28]
 1267 0370 1344     		add	r3, r3, r2
 1268 0372 03F51063 		add	r3, r3, #2304
 1269 0376 1A46     		mov	r2, r3
 1270 0378 4023     		movs	r3, #64
 1271 037a 9360     		str	r3, [r2, #8]
 1272              	.L48:
1203:Drivers/STM32F4xx_HAL_Driver/Src/stm32f4xx_hal_pcd.c ****           }
1204:Drivers/STM32F4xx_HAL_Driver/Src/stm32f4xx_hal_pcd.c ****           if ((epint & USB_OTG_DIEPINT_EPDISD) == USB_OTG_DIEPINT_EPDISD)
 1273              		.loc 1 1204 22
 1274 037c 3B69     		ldr	r3, [r7, #16]
 1275 037e 03F00203 		and	r3, r3, #2
 1276              		.loc 1 1204 14
 1277 0382 002B     		cmp	r3, #0
 1278 0384 08D0     		beq	.L49
1205:Drivers/STM32F4xx_HAL_Driver/Src/stm32f4xx_hal_pcd.c ****           {
1206:Drivers/STM32F4xx_HAL_Driver/Src/stm32f4xx_hal_pcd.c ****             CLEAR_IN_EP_INTR(epnum, USB_OTG_DIEPINT_EPDISD);
 1279              		.loc 1 1206 13
 1280 0386 7B6A     		ldr	r3, [r7, #36]
 1281 0388 5A01     		lsls	r2, r3, #5
 1282 038a FB69     		ldr	r3, [r7, #28]
 1283 038c 1344     		add	r3, r3, r2
 1284 038e 03F51063 		add	r3, r3, #2304
 1285 0392 1A46     		mov	r2, r3
 1286 0394 0223     		movs	r3, #2
 1287 0396 9360     		str	r3, [r2, #8]
 1288              	.L49:
1207:Drivers/STM32F4xx_HAL_Driver/Src/stm32f4xx_hal_pcd.c ****           }
1208:Drivers/STM32F4xx_HAL_Driver/Src/stm32f4xx_hal_pcd.c ****           if ((epint & USB_OTG_DIEPINT_TXFE) == USB_OTG_DIEPINT_TXFE)
 1289              		.loc 1 1208 22
 1290 0398 3B69     		ldr	r3, [r7, #16]
 1291 039a 03F08003 		and	r3, r3, #128
 1292              		.loc 1 1208 14
 1293 039e 002B     		cmp	r3, #0
 1294 03a0 03D0     		beq	.L43
1209:Drivers/STM32F4xx_HAL_Driver/Src/stm32f4xx_hal_pcd.c ****           {
1210:Drivers/STM32F4xx_HAL_Driver/Src/stm32f4xx_hal_pcd.c ****             (void)PCD_WriteEmptyTxFifo(hpcd, epnum);
 1295              		.loc 1 1210 19
 1296 03a2 796A     		ldr	r1, [r7, #36]
 1297 03a4 7868     		ldr	r0, [r7, #4]
 1298 03a6 FFF7FEFF 		bl	PCD_WriteEmptyTxFifo
 1299              	.L43:
ARM GAS  /var/folders/vq/qt4vp3kd5rxf7v2b6_fdtdt80000gn/T//ccs5IouC.s 			page 45


1211:Drivers/STM32F4xx_HAL_Driver/Src/stm32f4xx_hal_pcd.c ****           }
1212:Drivers/STM32F4xx_HAL_Driver/Src/stm32f4xx_hal_pcd.c ****         }
1213:Drivers/STM32F4xx_HAL_Driver/Src/stm32f4xx_hal_pcd.c ****         epnum++;
 1300              		.loc 1 1213 14
 1301 03aa 7B6A     		ldr	r3, [r7, #36]
 1302 03ac 0133     		adds	r3, r3, #1
 1303 03ae 7B62     		str	r3, [r7, #36]
1214:Drivers/STM32F4xx_HAL_Driver/Src/stm32f4xx_hal_pcd.c ****         ep_intr >>= 1U;
 1304              		.loc 1 1214 17
 1305 03b0 BB6A     		ldr	r3, [r7, #40]
 1306 03b2 5B08     		lsrs	r3, r3, #1
 1307 03b4 BB62     		str	r3, [r7, #40]
 1308              	.L42:
1161:Drivers/STM32F4xx_HAL_Driver/Src/stm32f4xx_hal_pcd.c ****       {
 1309              		.loc 1 1161 13
 1310 03b6 BB6A     		ldr	r3, [r7, #40]
 1311 03b8 002B     		cmp	r3, #0
 1312 03ba 7FF449AF 		bne	.L50
 1313              	.L41:
1215:Drivers/STM32F4xx_HAL_Driver/Src/stm32f4xx_hal_pcd.c ****       }
1216:Drivers/STM32F4xx_HAL_Driver/Src/stm32f4xx_hal_pcd.c ****     }
1217:Drivers/STM32F4xx_HAL_Driver/Src/stm32f4xx_hal_pcd.c **** 
1218:Drivers/STM32F4xx_HAL_Driver/Src/stm32f4xx_hal_pcd.c ****     /* Handle Resume Interrupt */
1219:Drivers/STM32F4xx_HAL_Driver/Src/stm32f4xx_hal_pcd.c ****     if (__HAL_PCD_GET_FLAG(hpcd, USB_OTG_GINTSTS_WKUINT))
 1314              		.loc 1 1219 9
 1315 03be 7B68     		ldr	r3, [r7, #4]
 1316 03c0 1B68     		ldr	r3, [r3]
 1317 03c2 1846     		mov	r0, r3
 1318 03c4 FFF7FEFF 		bl	USB_ReadInterrupts
 1319 03c8 0346     		mov	r3, r0
 1320 03ca 03F00043 		and	r3, r3, #-2147483648
 1321              		.loc 1 1219 8
 1322 03ce B3F1004F 		cmp	r3, #-2147483648
 1323 03d2 22D1     		bne	.L51
1220:Drivers/STM32F4xx_HAL_Driver/Src/stm32f4xx_hal_pcd.c ****     {
1221:Drivers/STM32F4xx_HAL_Driver/Src/stm32f4xx_hal_pcd.c ****       /* Clear the Remote Wake-up Signaling */
1222:Drivers/STM32F4xx_HAL_Driver/Src/stm32f4xx_hal_pcd.c ****       USBx_DEVICE->DCTL &= ~USB_OTG_DCTL_RWUSIG;
 1324              		.loc 1 1222 25
 1325 03d4 FB69     		ldr	r3, [r7, #28]
 1326 03d6 03F50063 		add	r3, r3, #2048
 1327 03da 5B68     		ldr	r3, [r3, #4]
 1328 03dc FA69     		ldr	r2, [r7, #28]
 1329 03de 02F50062 		add	r2, r2, #2048
 1330 03e2 23F00103 		bic	r3, r3, #1
 1331 03e6 5360     		str	r3, [r2, #4]
1223:Drivers/STM32F4xx_HAL_Driver/Src/stm32f4xx_hal_pcd.c **** 
1224:Drivers/STM32F4xx_HAL_Driver/Src/stm32f4xx_hal_pcd.c ****       if (hpcd->LPM_State == LPM_L1)
 1332              		.loc 1 1224 15
 1333 03e8 7B68     		ldr	r3, [r7, #4]
 1334 03ea 93F8F433 		ldrb	r3, [r3, #1012]	@ zero_extendqisi2
 1335              		.loc 1 1224 10
 1336 03ee 012B     		cmp	r3, #1
 1337 03f0 08D1     		bne	.L52
1225:Drivers/STM32F4xx_HAL_Driver/Src/stm32f4xx_hal_pcd.c ****       {
1226:Drivers/STM32F4xx_HAL_Driver/Src/stm32f4xx_hal_pcd.c ****         hpcd->LPM_State = LPM_L0;
 1338              		.loc 1 1226 25
 1339 03f2 7B68     		ldr	r3, [r7, #4]
ARM GAS  /var/folders/vq/qt4vp3kd5rxf7v2b6_fdtdt80000gn/T//ccs5IouC.s 			page 46


 1340 03f4 0022     		movs	r2, #0
 1341 03f6 83F8F423 		strb	r2, [r3, #1012]
1227:Drivers/STM32F4xx_HAL_Driver/Src/stm32f4xx_hal_pcd.c **** 
1228:Drivers/STM32F4xx_HAL_Driver/Src/stm32f4xx_hal_pcd.c **** #if (USE_HAL_PCD_REGISTER_CALLBACKS == 1U)
1229:Drivers/STM32F4xx_HAL_Driver/Src/stm32f4xx_hal_pcd.c ****         hpcd->LPMCallback(hpcd, PCD_LPM_L0_ACTIVE);
1230:Drivers/STM32F4xx_HAL_Driver/Src/stm32f4xx_hal_pcd.c **** #else
1231:Drivers/STM32F4xx_HAL_Driver/Src/stm32f4xx_hal_pcd.c ****         HAL_PCDEx_LPM_Callback(hpcd, PCD_LPM_L0_ACTIVE);
 1342              		.loc 1 1231 9
 1343 03fa 0021     		movs	r1, #0
 1344 03fc 7868     		ldr	r0, [r7, #4]
 1345 03fe FFF7FEFF 		bl	HAL_PCDEx_LPM_Callback
 1346 0402 02E0     		b	.L53
 1347              	.L52:
1232:Drivers/STM32F4xx_HAL_Driver/Src/stm32f4xx_hal_pcd.c **** #endif /* USE_HAL_PCD_REGISTER_CALLBACKS */
1233:Drivers/STM32F4xx_HAL_Driver/Src/stm32f4xx_hal_pcd.c ****       }
1234:Drivers/STM32F4xx_HAL_Driver/Src/stm32f4xx_hal_pcd.c ****       else
1235:Drivers/STM32F4xx_HAL_Driver/Src/stm32f4xx_hal_pcd.c ****       {
1236:Drivers/STM32F4xx_HAL_Driver/Src/stm32f4xx_hal_pcd.c **** #if (USE_HAL_PCD_REGISTER_CALLBACKS == 1U)
1237:Drivers/STM32F4xx_HAL_Driver/Src/stm32f4xx_hal_pcd.c ****         hpcd->ResumeCallback(hpcd);
1238:Drivers/STM32F4xx_HAL_Driver/Src/stm32f4xx_hal_pcd.c **** #else
1239:Drivers/STM32F4xx_HAL_Driver/Src/stm32f4xx_hal_pcd.c ****         HAL_PCD_ResumeCallback(hpcd);
 1348              		.loc 1 1239 9
 1349 0404 7868     		ldr	r0, [r7, #4]
 1350 0406 FFF7FEFF 		bl	HAL_PCD_ResumeCallback
 1351              	.L53:
1240:Drivers/STM32F4xx_HAL_Driver/Src/stm32f4xx_hal_pcd.c **** #endif /* USE_HAL_PCD_REGISTER_CALLBACKS */
1241:Drivers/STM32F4xx_HAL_Driver/Src/stm32f4xx_hal_pcd.c ****       }
1242:Drivers/STM32F4xx_HAL_Driver/Src/stm32f4xx_hal_pcd.c **** 
1243:Drivers/STM32F4xx_HAL_Driver/Src/stm32f4xx_hal_pcd.c ****       __HAL_PCD_CLEAR_FLAG(hpcd, USB_OTG_GINTSTS_WKUINT);
 1352              		.loc 1 1243 7
 1353 040a 7B68     		ldr	r3, [r7, #4]
 1354 040c 1B68     		ldr	r3, [r3]
 1355 040e 5A69     		ldr	r2, [r3, #20]
 1356 0410 7B68     		ldr	r3, [r7, #4]
 1357 0412 1B68     		ldr	r3, [r3]
 1358 0414 02F00042 		and	r2, r2, #-2147483648
 1359 0418 5A61     		str	r2, [r3, #20]
 1360              	.L51:
1244:Drivers/STM32F4xx_HAL_Driver/Src/stm32f4xx_hal_pcd.c ****     }
1245:Drivers/STM32F4xx_HAL_Driver/Src/stm32f4xx_hal_pcd.c **** 
1246:Drivers/STM32F4xx_HAL_Driver/Src/stm32f4xx_hal_pcd.c ****     /* Handle Suspend Interrupt */
1247:Drivers/STM32F4xx_HAL_Driver/Src/stm32f4xx_hal_pcd.c ****     if (__HAL_PCD_GET_FLAG(hpcd, USB_OTG_GINTSTS_USBSUSP))
 1361              		.loc 1 1247 9
 1362 041a 7B68     		ldr	r3, [r7, #4]
 1363 041c 1B68     		ldr	r3, [r3]
 1364 041e 1846     		mov	r0, r3
 1365 0420 FFF7FEFF 		bl	USB_ReadInterrupts
 1366 0424 0346     		mov	r3, r0
 1367 0426 03F40063 		and	r3, r3, #2048
 1368              		.loc 1 1247 8
 1369 042a B3F5006F 		cmp	r3, #2048
 1370 042e 12D1     		bne	.L54
1248:Drivers/STM32F4xx_HAL_Driver/Src/stm32f4xx_hal_pcd.c ****     {
1249:Drivers/STM32F4xx_HAL_Driver/Src/stm32f4xx_hal_pcd.c ****       if ((USBx_DEVICE->DSTS & USB_OTG_DSTS_SUSPSTS) == USB_OTG_DSTS_SUSPSTS)
 1371              		.loc 1 1249 12
 1372 0430 FB69     		ldr	r3, [r7, #28]
 1373 0432 03F50063 		add	r3, r3, #2048
ARM GAS  /var/folders/vq/qt4vp3kd5rxf7v2b6_fdtdt80000gn/T//ccs5IouC.s 			page 47


 1374              		.loc 1 1249 23
 1375 0436 9B68     		ldr	r3, [r3, #8]
 1376              		.loc 1 1249 30
 1377 0438 03F00103 		and	r3, r3, #1
 1378              		.loc 1 1249 10
 1379 043c 012B     		cmp	r3, #1
 1380 043e 02D1     		bne	.L55
1250:Drivers/STM32F4xx_HAL_Driver/Src/stm32f4xx_hal_pcd.c ****       {
1251:Drivers/STM32F4xx_HAL_Driver/Src/stm32f4xx_hal_pcd.c **** #if (USE_HAL_PCD_REGISTER_CALLBACKS == 1U)
1252:Drivers/STM32F4xx_HAL_Driver/Src/stm32f4xx_hal_pcd.c ****         hpcd->SuspendCallback(hpcd);
1253:Drivers/STM32F4xx_HAL_Driver/Src/stm32f4xx_hal_pcd.c **** #else
1254:Drivers/STM32F4xx_HAL_Driver/Src/stm32f4xx_hal_pcd.c ****         HAL_PCD_SuspendCallback(hpcd);
 1381              		.loc 1 1254 9
 1382 0440 7868     		ldr	r0, [r7, #4]
 1383 0442 FFF7FEFF 		bl	HAL_PCD_SuspendCallback
 1384              	.L55:
1255:Drivers/STM32F4xx_HAL_Driver/Src/stm32f4xx_hal_pcd.c **** #endif /* USE_HAL_PCD_REGISTER_CALLBACKS */
1256:Drivers/STM32F4xx_HAL_Driver/Src/stm32f4xx_hal_pcd.c ****       }
1257:Drivers/STM32F4xx_HAL_Driver/Src/stm32f4xx_hal_pcd.c ****       __HAL_PCD_CLEAR_FLAG(hpcd, USB_OTG_GINTSTS_USBSUSP);
 1385              		.loc 1 1257 7
 1386 0446 7B68     		ldr	r3, [r7, #4]
 1387 0448 1B68     		ldr	r3, [r3]
 1388 044a 5A69     		ldr	r2, [r3, #20]
 1389 044c 7B68     		ldr	r3, [r7, #4]
 1390 044e 1B68     		ldr	r3, [r3]
 1391 0450 02F40062 		and	r2, r2, #2048
 1392 0454 5A61     		str	r2, [r3, #20]
 1393              	.L54:
1258:Drivers/STM32F4xx_HAL_Driver/Src/stm32f4xx_hal_pcd.c ****     }
1259:Drivers/STM32F4xx_HAL_Driver/Src/stm32f4xx_hal_pcd.c **** #if defined(STM32F446xx) || defined(STM32F469xx) || defined(STM32F479xx) || defined(STM32F412Zx) ||
1260:Drivers/STM32F4xx_HAL_Driver/Src/stm32f4xx_hal_pcd.c ****     /* Handle LPM Interrupt */
1261:Drivers/STM32F4xx_HAL_Driver/Src/stm32f4xx_hal_pcd.c ****     if (__HAL_PCD_GET_FLAG(hpcd, USB_OTG_GINTSTS_LPMINT))
1262:Drivers/STM32F4xx_HAL_Driver/Src/stm32f4xx_hal_pcd.c ****     {
1263:Drivers/STM32F4xx_HAL_Driver/Src/stm32f4xx_hal_pcd.c ****       __HAL_PCD_CLEAR_FLAG(hpcd, USB_OTG_GINTSTS_LPMINT);
1264:Drivers/STM32F4xx_HAL_Driver/Src/stm32f4xx_hal_pcd.c **** 
1265:Drivers/STM32F4xx_HAL_Driver/Src/stm32f4xx_hal_pcd.c ****       if (hpcd->LPM_State == LPM_L0)
1266:Drivers/STM32F4xx_HAL_Driver/Src/stm32f4xx_hal_pcd.c ****       {
1267:Drivers/STM32F4xx_HAL_Driver/Src/stm32f4xx_hal_pcd.c ****         hpcd->LPM_State = LPM_L1;
1268:Drivers/STM32F4xx_HAL_Driver/Src/stm32f4xx_hal_pcd.c ****         hpcd->BESL = (hpcd->Instance->GLPMCFG & USB_OTG_GLPMCFG_BESL) >> 2U;
1269:Drivers/STM32F4xx_HAL_Driver/Src/stm32f4xx_hal_pcd.c **** 
1270:Drivers/STM32F4xx_HAL_Driver/Src/stm32f4xx_hal_pcd.c **** #if (USE_HAL_PCD_REGISTER_CALLBACKS == 1U)
1271:Drivers/STM32F4xx_HAL_Driver/Src/stm32f4xx_hal_pcd.c ****         hpcd->LPMCallback(hpcd, PCD_LPM_L1_ACTIVE);
1272:Drivers/STM32F4xx_HAL_Driver/Src/stm32f4xx_hal_pcd.c **** #else
1273:Drivers/STM32F4xx_HAL_Driver/Src/stm32f4xx_hal_pcd.c ****         HAL_PCDEx_LPM_Callback(hpcd, PCD_LPM_L1_ACTIVE);
1274:Drivers/STM32F4xx_HAL_Driver/Src/stm32f4xx_hal_pcd.c **** #endif /* USE_HAL_PCD_REGISTER_CALLBACKS */
1275:Drivers/STM32F4xx_HAL_Driver/Src/stm32f4xx_hal_pcd.c ****       }
1276:Drivers/STM32F4xx_HAL_Driver/Src/stm32f4xx_hal_pcd.c ****       else
1277:Drivers/STM32F4xx_HAL_Driver/Src/stm32f4xx_hal_pcd.c ****       {
1278:Drivers/STM32F4xx_HAL_Driver/Src/stm32f4xx_hal_pcd.c **** #if (USE_HAL_PCD_REGISTER_CALLBACKS == 1U)
1279:Drivers/STM32F4xx_HAL_Driver/Src/stm32f4xx_hal_pcd.c ****         hpcd->SuspendCallback(hpcd);
1280:Drivers/STM32F4xx_HAL_Driver/Src/stm32f4xx_hal_pcd.c **** #else
1281:Drivers/STM32F4xx_HAL_Driver/Src/stm32f4xx_hal_pcd.c ****         HAL_PCD_SuspendCallback(hpcd);
1282:Drivers/STM32F4xx_HAL_Driver/Src/stm32f4xx_hal_pcd.c **** #endif /* USE_HAL_PCD_REGISTER_CALLBACKS */
1283:Drivers/STM32F4xx_HAL_Driver/Src/stm32f4xx_hal_pcd.c ****       }
1284:Drivers/STM32F4xx_HAL_Driver/Src/stm32f4xx_hal_pcd.c ****     }
1285:Drivers/STM32F4xx_HAL_Driver/Src/stm32f4xx_hal_pcd.c **** #endif /* defined(STM32F446xx) || defined(STM32F469xx) || defined(STM32F479xx) || defined(STM32F412
1286:Drivers/STM32F4xx_HAL_Driver/Src/stm32f4xx_hal_pcd.c ****     /* Handle Reset Interrupt */
ARM GAS  /var/folders/vq/qt4vp3kd5rxf7v2b6_fdtdt80000gn/T//ccs5IouC.s 			page 48


1287:Drivers/STM32F4xx_HAL_Driver/Src/stm32f4xx_hal_pcd.c ****     if (__HAL_PCD_GET_FLAG(hpcd, USB_OTG_GINTSTS_USBRST))
 1394              		.loc 1 1287 9
 1395 0456 7B68     		ldr	r3, [r7, #4]
 1396 0458 1B68     		ldr	r3, [r3]
 1397 045a 1846     		mov	r0, r3
 1398 045c FFF7FEFF 		bl	USB_ReadInterrupts
 1399 0460 0346     		mov	r3, r0
 1400 0462 03F48053 		and	r3, r3, #4096
 1401              		.loc 1 1287 8
 1402 0466 B3F5805F 		cmp	r3, #4096
 1403 046a 40F0C780 		bne	.L56
1288:Drivers/STM32F4xx_HAL_Driver/Src/stm32f4xx_hal_pcd.c ****     {
1289:Drivers/STM32F4xx_HAL_Driver/Src/stm32f4xx_hal_pcd.c ****       USBx_DEVICE->DCTL &= ~USB_OTG_DCTL_RWUSIG;
 1404              		.loc 1 1289 25
 1405 046e FB69     		ldr	r3, [r7, #28]
 1406 0470 03F50063 		add	r3, r3, #2048
 1407 0474 5B68     		ldr	r3, [r3, #4]
 1408 0476 FA69     		ldr	r2, [r7, #28]
 1409 0478 02F50062 		add	r2, r2, #2048
 1410 047c 23F00103 		bic	r3, r3, #1
 1411 0480 5360     		str	r3, [r2, #4]
1290:Drivers/STM32F4xx_HAL_Driver/Src/stm32f4xx_hal_pcd.c ****       (void)USB_FlushTxFifo(hpcd->Instance, 0x10U);
 1412              		.loc 1 1290 33
 1413 0482 7B68     		ldr	r3, [r7, #4]
 1414 0484 1B68     		ldr	r3, [r3]
 1415              		.loc 1 1290 13
 1416 0486 1021     		movs	r1, #16
 1417 0488 1846     		mov	r0, r3
 1418 048a FFF7FEFF 		bl	USB_FlushTxFifo
1291:Drivers/STM32F4xx_HAL_Driver/Src/stm32f4xx_hal_pcd.c **** 
1292:Drivers/STM32F4xx_HAL_Driver/Src/stm32f4xx_hal_pcd.c ****       for (i = 0U; i < hpcd->Init.dev_endpoints; i++)
 1419              		.loc 1 1292 14
 1420 048e 0023     		movs	r3, #0
 1421 0490 FB62     		str	r3, [r7, #44]
 1422              		.loc 1 1292 7
 1423 0492 56E0     		b	.L57
 1424              	.L58:
1293:Drivers/STM32F4xx_HAL_Driver/Src/stm32f4xx_hal_pcd.c ****       {
1294:Drivers/STM32F4xx_HAL_Driver/Src/stm32f4xx_hal_pcd.c ****         USBx_INEP(i)->DIEPINT = 0xFB7FU;
 1425              		.loc 1 1294 9 discriminator 3
 1426 0494 FB6A     		ldr	r3, [r7, #44]
 1427 0496 5A01     		lsls	r2, r3, #5
 1428 0498 FB69     		ldr	r3, [r7, #28]
 1429 049a 1344     		add	r3, r3, r2
 1430 049c 03F51063 		add	r3, r3, #2304
 1431 04a0 1A46     		mov	r2, r3
 1432              		.loc 1 1294 31 discriminator 3
 1433 04a2 4FF67F33 		movw	r3, #64383
 1434 04a6 9360     		str	r3, [r2, #8]
1295:Drivers/STM32F4xx_HAL_Driver/Src/stm32f4xx_hal_pcd.c ****         USBx_INEP(i)->DIEPCTL &= ~USB_OTG_DIEPCTL_STALL;
 1435              		.loc 1 1295 31 discriminator 3
 1436 04a8 FB6A     		ldr	r3, [r7, #44]
 1437 04aa 5A01     		lsls	r2, r3, #5
 1438 04ac FB69     		ldr	r3, [r7, #28]
 1439 04ae 1344     		add	r3, r3, r2
 1440 04b0 03F51063 		add	r3, r3, #2304
 1441 04b4 1B68     		ldr	r3, [r3]
ARM GAS  /var/folders/vq/qt4vp3kd5rxf7v2b6_fdtdt80000gn/T//ccs5IouC.s 			page 49


 1442 04b6 FA6A     		ldr	r2, [r7, #44]
 1443 04b8 5101     		lsls	r1, r2, #5
 1444 04ba FA69     		ldr	r2, [r7, #28]
 1445 04bc 0A44     		add	r2, r2, r1
 1446 04be 02F51062 		add	r2, r2, #2304
 1447 04c2 23F40013 		bic	r3, r3, #2097152
 1448 04c6 1360     		str	r3, [r2]
1296:Drivers/STM32F4xx_HAL_Driver/Src/stm32f4xx_hal_pcd.c ****         USBx_INEP(i)->DIEPCTL |= USB_OTG_DIEPCTL_SNAK;
 1449              		.loc 1 1296 31 discriminator 3
 1450 04c8 FB6A     		ldr	r3, [r7, #44]
 1451 04ca 5A01     		lsls	r2, r3, #5
 1452 04cc FB69     		ldr	r3, [r7, #28]
 1453 04ce 1344     		add	r3, r3, r2
 1454 04d0 03F51063 		add	r3, r3, #2304
 1455 04d4 1B68     		ldr	r3, [r3]
 1456 04d6 FA6A     		ldr	r2, [r7, #44]
 1457 04d8 5101     		lsls	r1, r2, #5
 1458 04da FA69     		ldr	r2, [r7, #28]
 1459 04dc 0A44     		add	r2, r2, r1
 1460 04de 02F51062 		add	r2, r2, #2304
 1461 04e2 43F00063 		orr	r3, r3, #134217728
 1462 04e6 1360     		str	r3, [r2]
1297:Drivers/STM32F4xx_HAL_Driver/Src/stm32f4xx_hal_pcd.c ****         USBx_OUTEP(i)->DOEPINT = 0xFB7FU;
 1463              		.loc 1 1297 9 discriminator 3
 1464 04e8 FB6A     		ldr	r3, [r7, #44]
 1465 04ea 5A01     		lsls	r2, r3, #5
 1466 04ec FB69     		ldr	r3, [r7, #28]
 1467 04ee 1344     		add	r3, r3, r2
 1468 04f0 03F53063 		add	r3, r3, #2816
 1469 04f4 1A46     		mov	r2, r3
 1470              		.loc 1 1297 32 discriminator 3
 1471 04f6 4FF67F33 		movw	r3, #64383
 1472 04fa 9360     		str	r3, [r2, #8]
1298:Drivers/STM32F4xx_HAL_Driver/Src/stm32f4xx_hal_pcd.c ****         USBx_OUTEP(i)->DOEPCTL &= ~USB_OTG_DOEPCTL_STALL;
 1473              		.loc 1 1298 32 discriminator 3
 1474 04fc FB6A     		ldr	r3, [r7, #44]
 1475 04fe 5A01     		lsls	r2, r3, #5
 1476 0500 FB69     		ldr	r3, [r7, #28]
 1477 0502 1344     		add	r3, r3, r2
 1478 0504 03F53063 		add	r3, r3, #2816
 1479 0508 1B68     		ldr	r3, [r3]
 1480 050a FA6A     		ldr	r2, [r7, #44]
 1481 050c 5101     		lsls	r1, r2, #5
 1482 050e FA69     		ldr	r2, [r7, #28]
 1483 0510 0A44     		add	r2, r2, r1
 1484 0512 02F53062 		add	r2, r2, #2816
 1485 0516 23F40013 		bic	r3, r3, #2097152
 1486 051a 1360     		str	r3, [r2]
1299:Drivers/STM32F4xx_HAL_Driver/Src/stm32f4xx_hal_pcd.c ****         USBx_OUTEP(i)->DOEPCTL |= USB_OTG_DOEPCTL_SNAK;
 1487              		.loc 1 1299 32 discriminator 3
 1488 051c FB6A     		ldr	r3, [r7, #44]
 1489 051e 5A01     		lsls	r2, r3, #5
 1490 0520 FB69     		ldr	r3, [r7, #28]
 1491 0522 1344     		add	r3, r3, r2
 1492 0524 03F53063 		add	r3, r3, #2816
 1493 0528 1B68     		ldr	r3, [r3]
 1494 052a FA6A     		ldr	r2, [r7, #44]
ARM GAS  /var/folders/vq/qt4vp3kd5rxf7v2b6_fdtdt80000gn/T//ccs5IouC.s 			page 50


 1495 052c 5101     		lsls	r1, r2, #5
 1496 052e FA69     		ldr	r2, [r7, #28]
 1497 0530 0A44     		add	r2, r2, r1
 1498 0532 02F53062 		add	r2, r2, #2816
 1499 0536 43F00063 		orr	r3, r3, #134217728
 1500 053a 1360     		str	r3, [r2]
1292:Drivers/STM32F4xx_HAL_Driver/Src/stm32f4xx_hal_pcd.c ****       {
 1501              		.loc 1 1292 51 discriminator 3
 1502 053c FB6A     		ldr	r3, [r7, #44]
 1503 053e 0133     		adds	r3, r3, #1
 1504 0540 FB62     		str	r3, [r7, #44]
 1505              	.L57:
1292:Drivers/STM32F4xx_HAL_Driver/Src/stm32f4xx_hal_pcd.c ****       {
 1506              		.loc 1 1292 34 discriminator 1
 1507 0542 7B68     		ldr	r3, [r7, #4]
 1508 0544 5B68     		ldr	r3, [r3, #4]
1292:Drivers/STM32F4xx_HAL_Driver/Src/stm32f4xx_hal_pcd.c ****       {
 1509              		.loc 1 1292 7 discriminator 1
 1510 0546 FA6A     		ldr	r2, [r7, #44]
 1511 0548 9A42     		cmp	r2, r3
 1512 054a A3D3     		bcc	.L58
1300:Drivers/STM32F4xx_HAL_Driver/Src/stm32f4xx_hal_pcd.c ****       }
1301:Drivers/STM32F4xx_HAL_Driver/Src/stm32f4xx_hal_pcd.c ****       USBx_DEVICE->DAINTMSK |= 0x10001U;
 1513              		.loc 1 1301 29
 1514 054c FB69     		ldr	r3, [r7, #28]
 1515 054e 03F50063 		add	r3, r3, #2048
 1516 0552 DB69     		ldr	r3, [r3, #28]
 1517 0554 FA69     		ldr	r2, [r7, #28]
 1518 0556 02F50062 		add	r2, r2, #2048
 1519 055a 43F00113 		orr	r3, r3, #65537
 1520 055e D361     		str	r3, [r2, #28]
1302:Drivers/STM32F4xx_HAL_Driver/Src/stm32f4xx_hal_pcd.c **** 
1303:Drivers/STM32F4xx_HAL_Driver/Src/stm32f4xx_hal_pcd.c ****       if (hpcd->Init.use_dedicated_ep1 != 0U)
 1521              		.loc 1 1303 21
 1522 0560 7B68     		ldr	r3, [r7, #4]
 1523 0562 1B6B     		ldr	r3, [r3, #48]
 1524              		.loc 1 1303 10
 1525 0564 002B     		cmp	r3, #0
 1526 0566 16D0     		beq	.L59
1304:Drivers/STM32F4xx_HAL_Driver/Src/stm32f4xx_hal_pcd.c ****       {
1305:Drivers/STM32F4xx_HAL_Driver/Src/stm32f4xx_hal_pcd.c ****         USBx_DEVICE->DOUTEP1MSK |= USB_OTG_DOEPMSK_STUPM |
 1527              		.loc 1 1305 33
 1528 0568 FB69     		ldr	r3, [r7, #28]
 1529 056a 03F50063 		add	r3, r3, #2048
 1530 056e D3F88430 		ldr	r3, [r3, #132]
 1531 0572 FA69     		ldr	r2, [r7, #28]
 1532 0574 02F50062 		add	r2, r2, #2048
 1533 0578 43F00B03 		orr	r3, r3, #11
 1534 057c C2F88430 		str	r3, [r2, #132]
1306:Drivers/STM32F4xx_HAL_Driver/Src/stm32f4xx_hal_pcd.c ****                                    USB_OTG_DOEPMSK_XFRCM |
1307:Drivers/STM32F4xx_HAL_Driver/Src/stm32f4xx_hal_pcd.c ****                                    USB_OTG_DOEPMSK_EPDM;
1308:Drivers/STM32F4xx_HAL_Driver/Src/stm32f4xx_hal_pcd.c **** 
1309:Drivers/STM32F4xx_HAL_Driver/Src/stm32f4xx_hal_pcd.c ****         USBx_DEVICE->DINEP1MSK |= USB_OTG_DIEPMSK_TOM |
 1535              		.loc 1 1309 32
 1536 0580 FB69     		ldr	r3, [r7, #28]
 1537 0582 03F50063 		add	r3, r3, #2048
 1538 0586 5B6C     		ldr	r3, [r3, #68]
ARM GAS  /var/folders/vq/qt4vp3kd5rxf7v2b6_fdtdt80000gn/T//ccs5IouC.s 			page 51


 1539 0588 FA69     		ldr	r2, [r7, #28]
 1540 058a 02F50062 		add	r2, r2, #2048
 1541 058e 43F00B03 		orr	r3, r3, #11
 1542 0592 5364     		str	r3, [r2, #68]
 1543 0594 15E0     		b	.L60
 1544              	.L59:
1310:Drivers/STM32F4xx_HAL_Driver/Src/stm32f4xx_hal_pcd.c ****                                   USB_OTG_DIEPMSK_XFRCM |
1311:Drivers/STM32F4xx_HAL_Driver/Src/stm32f4xx_hal_pcd.c ****                                   USB_OTG_DIEPMSK_EPDM;
1312:Drivers/STM32F4xx_HAL_Driver/Src/stm32f4xx_hal_pcd.c ****       }
1313:Drivers/STM32F4xx_HAL_Driver/Src/stm32f4xx_hal_pcd.c ****       else
1314:Drivers/STM32F4xx_HAL_Driver/Src/stm32f4xx_hal_pcd.c ****       {
1315:Drivers/STM32F4xx_HAL_Driver/Src/stm32f4xx_hal_pcd.c ****         USBx_DEVICE->DOEPMSK |= USB_OTG_DOEPMSK_STUPM |
 1545              		.loc 1 1315 30
 1546 0596 FB69     		ldr	r3, [r7, #28]
 1547 0598 03F50063 		add	r3, r3, #2048
 1548 059c 5B69     		ldr	r3, [r3, #20]
 1549 059e FA69     		ldr	r2, [r7, #28]
 1550 05a0 02F50062 		add	r2, r2, #2048
 1551 05a4 43F40053 		orr	r3, r3, #8192
 1552 05a8 43F02B03 		orr	r3, r3, #43
 1553 05ac 5361     		str	r3, [r2, #20]
1316:Drivers/STM32F4xx_HAL_Driver/Src/stm32f4xx_hal_pcd.c ****                                 USB_OTG_DOEPMSK_XFRCM |
1317:Drivers/STM32F4xx_HAL_Driver/Src/stm32f4xx_hal_pcd.c ****                                 USB_OTG_DOEPMSK_EPDM |
1318:Drivers/STM32F4xx_HAL_Driver/Src/stm32f4xx_hal_pcd.c ****                                 USB_OTG_DOEPMSK_OTEPSPRM |
1319:Drivers/STM32F4xx_HAL_Driver/Src/stm32f4xx_hal_pcd.c ****                                 USB_OTG_DOEPMSK_NAKM;
1320:Drivers/STM32F4xx_HAL_Driver/Src/stm32f4xx_hal_pcd.c **** 
1321:Drivers/STM32F4xx_HAL_Driver/Src/stm32f4xx_hal_pcd.c ****         USBx_DEVICE->DIEPMSK |= USB_OTG_DIEPMSK_TOM |
 1554              		.loc 1 1321 30
 1555 05ae FB69     		ldr	r3, [r7, #28]
 1556 05b0 03F50063 		add	r3, r3, #2048
 1557 05b4 1B69     		ldr	r3, [r3, #16]
 1558 05b6 FA69     		ldr	r2, [r7, #28]
 1559 05b8 02F50062 		add	r2, r2, #2048
 1560 05bc 43F00B03 		orr	r3, r3, #11
 1561 05c0 1361     		str	r3, [r2, #16]
 1562              	.L60:
1322:Drivers/STM32F4xx_HAL_Driver/Src/stm32f4xx_hal_pcd.c ****                                 USB_OTG_DIEPMSK_XFRCM |
1323:Drivers/STM32F4xx_HAL_Driver/Src/stm32f4xx_hal_pcd.c ****                                 USB_OTG_DIEPMSK_EPDM;
1324:Drivers/STM32F4xx_HAL_Driver/Src/stm32f4xx_hal_pcd.c ****       }
1325:Drivers/STM32F4xx_HAL_Driver/Src/stm32f4xx_hal_pcd.c **** 
1326:Drivers/STM32F4xx_HAL_Driver/Src/stm32f4xx_hal_pcd.c ****       /* Set Default Address to 0 */
1327:Drivers/STM32F4xx_HAL_Driver/Src/stm32f4xx_hal_pcd.c ****       USBx_DEVICE->DCFG &= ~USB_OTG_DCFG_DAD;
 1563              		.loc 1 1327 25
 1564 05c2 FB69     		ldr	r3, [r7, #28]
 1565 05c4 03F50063 		add	r3, r3, #2048
 1566 05c8 1B68     		ldr	r3, [r3]
 1567 05ca FA69     		ldr	r2, [r7, #28]
 1568 05cc 02F50062 		add	r2, r2, #2048
 1569 05d0 23F4FE63 		bic	r3, r3, #2032
 1570 05d4 1360     		str	r3, [r2]
1328:Drivers/STM32F4xx_HAL_Driver/Src/stm32f4xx_hal_pcd.c **** 
1329:Drivers/STM32F4xx_HAL_Driver/Src/stm32f4xx_hal_pcd.c ****       /* setup EP0 to receive SETUP packets */
1330:Drivers/STM32F4xx_HAL_Driver/Src/stm32f4xx_hal_pcd.c ****       (void)USB_EP0_OutStart(hpcd->Instance, (uint8_t)hpcd->Init.dma_enable,
 1571              		.loc 1 1330 34
 1572 05d6 7B68     		ldr	r3, [r7, #4]
 1573 05d8 1868     		ldr	r0, [r3]
 1574              		.loc 1 1330 65
ARM GAS  /var/folders/vq/qt4vp3kd5rxf7v2b6_fdtdt80000gn/T//ccs5IouC.s 			page 52


 1575 05da 7B68     		ldr	r3, [r7, #4]
 1576 05dc 1B69     		ldr	r3, [r3, #16]
 1577              		.loc 1 1330 13
 1578 05de D9B2     		uxtb	r1, r3
1331:Drivers/STM32F4xx_HAL_Driver/Src/stm32f4xx_hal_pcd.c ****                              (uint8_t *)hpcd->Setup);
 1579              		.loc 1 1331 41
 1580 05e0 7B68     		ldr	r3, [r7, #4]
 1581 05e2 03F57173 		add	r3, r3, #964
1330:Drivers/STM32F4xx_HAL_Driver/Src/stm32f4xx_hal_pcd.c ****                              (uint8_t *)hpcd->Setup);
 1582              		.loc 1 1330 13
 1583 05e6 1A46     		mov	r2, r3
 1584 05e8 FFF7FEFF 		bl	USB_EP0_OutStart
1332:Drivers/STM32F4xx_HAL_Driver/Src/stm32f4xx_hal_pcd.c **** 
1333:Drivers/STM32F4xx_HAL_Driver/Src/stm32f4xx_hal_pcd.c ****       __HAL_PCD_CLEAR_FLAG(hpcd, USB_OTG_GINTSTS_USBRST);
 1585              		.loc 1 1333 7
 1586 05ec 7B68     		ldr	r3, [r7, #4]
 1587 05ee 1B68     		ldr	r3, [r3]
 1588 05f0 5A69     		ldr	r2, [r3, #20]
 1589 05f2 7B68     		ldr	r3, [r7, #4]
 1590 05f4 1B68     		ldr	r3, [r3]
 1591 05f6 02F48052 		and	r2, r2, #4096
 1592 05fa 5A61     		str	r2, [r3, #20]
 1593              	.L56:
1334:Drivers/STM32F4xx_HAL_Driver/Src/stm32f4xx_hal_pcd.c ****     }
1335:Drivers/STM32F4xx_HAL_Driver/Src/stm32f4xx_hal_pcd.c **** 
1336:Drivers/STM32F4xx_HAL_Driver/Src/stm32f4xx_hal_pcd.c ****     /* Handle Enumeration done Interrupt */
1337:Drivers/STM32F4xx_HAL_Driver/Src/stm32f4xx_hal_pcd.c ****     if (__HAL_PCD_GET_FLAG(hpcd, USB_OTG_GINTSTS_ENUMDNE))
 1594              		.loc 1 1337 9
 1595 05fc 7B68     		ldr	r3, [r7, #4]
 1596 05fe 1B68     		ldr	r3, [r3]
 1597 0600 1846     		mov	r0, r3
 1598 0602 FFF7FEFF 		bl	USB_ReadInterrupts
 1599 0606 0346     		mov	r3, r0
 1600 0608 03F40053 		and	r3, r3, #8192
 1601              		.loc 1 1337 8
 1602 060c B3F5005F 		cmp	r3, #8192
 1603 0610 24D1     		bne	.L61
1338:Drivers/STM32F4xx_HAL_Driver/Src/stm32f4xx_hal_pcd.c ****     {
1339:Drivers/STM32F4xx_HAL_Driver/Src/stm32f4xx_hal_pcd.c ****       (void)USB_ActivateSetup(hpcd->Instance);
 1604              		.loc 1 1339 35
 1605 0612 7B68     		ldr	r3, [r7, #4]
 1606 0614 1B68     		ldr	r3, [r3]
 1607              		.loc 1 1339 13
 1608 0616 1846     		mov	r0, r3
 1609 0618 FFF7FEFF 		bl	USB_ActivateSetup
1340:Drivers/STM32F4xx_HAL_Driver/Src/stm32f4xx_hal_pcd.c ****       hpcd->Init.speed = USB_GetDevSpeed(hpcd->Instance);
 1610              		.loc 1 1340 46
 1611 061c 7B68     		ldr	r3, [r7, #4]
 1612 061e 1B68     		ldr	r3, [r3]
 1613              		.loc 1 1340 26
 1614 0620 1846     		mov	r0, r3
 1615 0622 FFF7FEFF 		bl	USB_GetDevSpeed
 1616 0626 0346     		mov	r3, r0
 1617 0628 1A46     		mov	r2, r3
 1618              		.loc 1 1340 24
 1619 062a 7B68     		ldr	r3, [r7, #4]
 1620 062c DA60     		str	r2, [r3, #12]
ARM GAS  /var/folders/vq/qt4vp3kd5rxf7v2b6_fdtdt80000gn/T//ccs5IouC.s 			page 53


1341:Drivers/STM32F4xx_HAL_Driver/Src/stm32f4xx_hal_pcd.c **** 
1342:Drivers/STM32F4xx_HAL_Driver/Src/stm32f4xx_hal_pcd.c ****       /* Set USB Turnaround time */
1343:Drivers/STM32F4xx_HAL_Driver/Src/stm32f4xx_hal_pcd.c ****       (void)USB_SetTurnaroundTime(hpcd->Instance,
 1621              		.loc 1 1343 39
 1622 062e 7B68     		ldr	r3, [r7, #4]
 1623 0630 1C68     		ldr	r4, [r3]
 1624              		.loc 1 1343 13
 1625 0632 FFF7FEFF 		bl	HAL_RCC_GetHCLKFreq
 1626 0636 0146     		mov	r1, r0
1344:Drivers/STM32F4xx_HAL_Driver/Src/stm32f4xx_hal_pcd.c ****                                   HAL_RCC_GetHCLKFreq(),
1345:Drivers/STM32F4xx_HAL_Driver/Src/stm32f4xx_hal_pcd.c ****                                   (uint8_t)hpcd->Init.speed);
 1627              		.loc 1 1345 54
 1628 0638 7B68     		ldr	r3, [r7, #4]
 1629 063a DB68     		ldr	r3, [r3, #12]
1343:Drivers/STM32F4xx_HAL_Driver/Src/stm32f4xx_hal_pcd.c ****                                   HAL_RCC_GetHCLKFreq(),
 1630              		.loc 1 1343 13
 1631 063c DBB2     		uxtb	r3, r3
 1632 063e 1A46     		mov	r2, r3
 1633 0640 2046     		mov	r0, r4
 1634 0642 FFF7FEFF 		bl	USB_SetTurnaroundTime
1346:Drivers/STM32F4xx_HAL_Driver/Src/stm32f4xx_hal_pcd.c **** 
1347:Drivers/STM32F4xx_HAL_Driver/Src/stm32f4xx_hal_pcd.c **** #if (USE_HAL_PCD_REGISTER_CALLBACKS == 1U)
1348:Drivers/STM32F4xx_HAL_Driver/Src/stm32f4xx_hal_pcd.c ****       hpcd->ResetCallback(hpcd);
1349:Drivers/STM32F4xx_HAL_Driver/Src/stm32f4xx_hal_pcd.c **** #else
1350:Drivers/STM32F4xx_HAL_Driver/Src/stm32f4xx_hal_pcd.c ****       HAL_PCD_ResetCallback(hpcd);
 1635              		.loc 1 1350 7
 1636 0646 7868     		ldr	r0, [r7, #4]
 1637 0648 FFF7FEFF 		bl	HAL_PCD_ResetCallback
1351:Drivers/STM32F4xx_HAL_Driver/Src/stm32f4xx_hal_pcd.c **** #endif /* USE_HAL_PCD_REGISTER_CALLBACKS */
1352:Drivers/STM32F4xx_HAL_Driver/Src/stm32f4xx_hal_pcd.c **** 
1353:Drivers/STM32F4xx_HAL_Driver/Src/stm32f4xx_hal_pcd.c ****       __HAL_PCD_CLEAR_FLAG(hpcd, USB_OTG_GINTSTS_ENUMDNE);
 1638              		.loc 1 1353 7
 1639 064c 7B68     		ldr	r3, [r7, #4]
 1640 064e 1B68     		ldr	r3, [r3]
 1641 0650 5A69     		ldr	r2, [r3, #20]
 1642 0652 7B68     		ldr	r3, [r7, #4]
 1643 0654 1B68     		ldr	r3, [r3]
 1644 0656 02F40052 		and	r2, r2, #8192
 1645 065a 5A61     		str	r2, [r3, #20]
 1646              	.L61:
1354:Drivers/STM32F4xx_HAL_Driver/Src/stm32f4xx_hal_pcd.c ****     }
1355:Drivers/STM32F4xx_HAL_Driver/Src/stm32f4xx_hal_pcd.c **** 
1356:Drivers/STM32F4xx_HAL_Driver/Src/stm32f4xx_hal_pcd.c ****     /* Handle SOF Interrupt */
1357:Drivers/STM32F4xx_HAL_Driver/Src/stm32f4xx_hal_pcd.c ****     if (__HAL_PCD_GET_FLAG(hpcd, USB_OTG_GINTSTS_SOF))
 1647              		.loc 1 1357 9
 1648 065c 7B68     		ldr	r3, [r7, #4]
 1649 065e 1B68     		ldr	r3, [r3]
 1650 0660 1846     		mov	r0, r3
 1651 0662 FFF7FEFF 		bl	USB_ReadInterrupts
 1652 0666 0346     		mov	r3, r0
 1653 0668 03F00803 		and	r3, r3, #8
 1654              		.loc 1 1357 8
 1655 066c 082B     		cmp	r3, #8
 1656 066e 0AD1     		bne	.L62
1358:Drivers/STM32F4xx_HAL_Driver/Src/stm32f4xx_hal_pcd.c ****     {
1359:Drivers/STM32F4xx_HAL_Driver/Src/stm32f4xx_hal_pcd.c **** #if (USE_HAL_PCD_REGISTER_CALLBACKS == 1U)
1360:Drivers/STM32F4xx_HAL_Driver/Src/stm32f4xx_hal_pcd.c ****       hpcd->SOFCallback(hpcd);
ARM GAS  /var/folders/vq/qt4vp3kd5rxf7v2b6_fdtdt80000gn/T//ccs5IouC.s 			page 54


1361:Drivers/STM32F4xx_HAL_Driver/Src/stm32f4xx_hal_pcd.c **** #else
1362:Drivers/STM32F4xx_HAL_Driver/Src/stm32f4xx_hal_pcd.c ****       HAL_PCD_SOFCallback(hpcd);
 1657              		.loc 1 1362 7
 1658 0670 7868     		ldr	r0, [r7, #4]
 1659 0672 FFF7FEFF 		bl	HAL_PCD_SOFCallback
1363:Drivers/STM32F4xx_HAL_Driver/Src/stm32f4xx_hal_pcd.c **** #endif /* USE_HAL_PCD_REGISTER_CALLBACKS */
1364:Drivers/STM32F4xx_HAL_Driver/Src/stm32f4xx_hal_pcd.c **** 
1365:Drivers/STM32F4xx_HAL_Driver/Src/stm32f4xx_hal_pcd.c ****       __HAL_PCD_CLEAR_FLAG(hpcd, USB_OTG_GINTSTS_SOF);
 1660              		.loc 1 1365 7
 1661 0676 7B68     		ldr	r3, [r7, #4]
 1662 0678 1B68     		ldr	r3, [r3]
 1663 067a 5A69     		ldr	r2, [r3, #20]
 1664 067c 7B68     		ldr	r3, [r7, #4]
 1665 067e 1B68     		ldr	r3, [r3]
 1666 0680 02F00802 		and	r2, r2, #8
 1667 0684 5A61     		str	r2, [r3, #20]
 1668              	.L62:
1366:Drivers/STM32F4xx_HAL_Driver/Src/stm32f4xx_hal_pcd.c ****     }
1367:Drivers/STM32F4xx_HAL_Driver/Src/stm32f4xx_hal_pcd.c **** 
1368:Drivers/STM32F4xx_HAL_Driver/Src/stm32f4xx_hal_pcd.c ****     /* Handle Incomplete ISO IN Interrupt */
1369:Drivers/STM32F4xx_HAL_Driver/Src/stm32f4xx_hal_pcd.c ****     if (__HAL_PCD_GET_FLAG(hpcd, USB_OTG_GINTSTS_IISOIXFR))
 1669              		.loc 1 1369 9
 1670 0686 7B68     		ldr	r3, [r7, #4]
 1671 0688 1B68     		ldr	r3, [r3]
 1672 068a 1846     		mov	r0, r3
 1673 068c FFF7FEFF 		bl	USB_ReadInterrupts
 1674 0690 0346     		mov	r3, r0
 1675 0692 03F48013 		and	r3, r3, #1048576
 1676              		.loc 1 1369 8
 1677 0696 B3F5801F 		cmp	r3, #1048576
 1678 069a 0FD1     		bne	.L63
1370:Drivers/STM32F4xx_HAL_Driver/Src/stm32f4xx_hal_pcd.c ****     {
1371:Drivers/STM32F4xx_HAL_Driver/Src/stm32f4xx_hal_pcd.c ****       /* Keep application checking the corresponding Iso IN endpoint
1372:Drivers/STM32F4xx_HAL_Driver/Src/stm32f4xx_hal_pcd.c ****       causing the incomplete Interrupt */
1373:Drivers/STM32F4xx_HAL_Driver/Src/stm32f4xx_hal_pcd.c ****       epnum = 0U;
 1679              		.loc 1 1373 13
 1680 069c 0023     		movs	r3, #0
 1681 069e 7B62     		str	r3, [r7, #36]
1374:Drivers/STM32F4xx_HAL_Driver/Src/stm32f4xx_hal_pcd.c **** 
1375:Drivers/STM32F4xx_HAL_Driver/Src/stm32f4xx_hal_pcd.c **** #if (USE_HAL_PCD_REGISTER_CALLBACKS == 1U)
1376:Drivers/STM32F4xx_HAL_Driver/Src/stm32f4xx_hal_pcd.c ****       hpcd->ISOINIncompleteCallback(hpcd, (uint8_t)epnum);
1377:Drivers/STM32F4xx_HAL_Driver/Src/stm32f4xx_hal_pcd.c **** #else
1378:Drivers/STM32F4xx_HAL_Driver/Src/stm32f4xx_hal_pcd.c ****       HAL_PCD_ISOINIncompleteCallback(hpcd, (uint8_t)epnum);
 1682              		.loc 1 1378 7
 1683 06a0 7B6A     		ldr	r3, [r7, #36]
 1684 06a2 DBB2     		uxtb	r3, r3
 1685 06a4 1946     		mov	r1, r3
 1686 06a6 7868     		ldr	r0, [r7, #4]
 1687 06a8 FFF7FEFF 		bl	HAL_PCD_ISOINIncompleteCallback
1379:Drivers/STM32F4xx_HAL_Driver/Src/stm32f4xx_hal_pcd.c **** #endif /* USE_HAL_PCD_REGISTER_CALLBACKS */
1380:Drivers/STM32F4xx_HAL_Driver/Src/stm32f4xx_hal_pcd.c **** 
1381:Drivers/STM32F4xx_HAL_Driver/Src/stm32f4xx_hal_pcd.c ****       __HAL_PCD_CLEAR_FLAG(hpcd, USB_OTG_GINTSTS_IISOIXFR);
 1688              		.loc 1 1381 7
 1689 06ac 7B68     		ldr	r3, [r7, #4]
 1690 06ae 1B68     		ldr	r3, [r3]
 1691 06b0 5A69     		ldr	r2, [r3, #20]
 1692 06b2 7B68     		ldr	r3, [r7, #4]
ARM GAS  /var/folders/vq/qt4vp3kd5rxf7v2b6_fdtdt80000gn/T//ccs5IouC.s 			page 55


 1693 06b4 1B68     		ldr	r3, [r3]
 1694 06b6 02F48012 		and	r2, r2, #1048576
 1695 06ba 5A61     		str	r2, [r3, #20]
 1696              	.L63:
1382:Drivers/STM32F4xx_HAL_Driver/Src/stm32f4xx_hal_pcd.c ****     }
1383:Drivers/STM32F4xx_HAL_Driver/Src/stm32f4xx_hal_pcd.c **** 
1384:Drivers/STM32F4xx_HAL_Driver/Src/stm32f4xx_hal_pcd.c ****     /* Handle Incomplete ISO OUT Interrupt */
1385:Drivers/STM32F4xx_HAL_Driver/Src/stm32f4xx_hal_pcd.c ****     if (__HAL_PCD_GET_FLAG(hpcd, USB_OTG_GINTSTS_PXFR_INCOMPISOOUT))
 1697              		.loc 1 1385 9
 1698 06bc 7B68     		ldr	r3, [r7, #4]
 1699 06be 1B68     		ldr	r3, [r3]
 1700 06c0 1846     		mov	r0, r3
 1701 06c2 FFF7FEFF 		bl	USB_ReadInterrupts
 1702 06c6 0346     		mov	r3, r0
 1703 06c8 03F40013 		and	r3, r3, #2097152
 1704              		.loc 1 1385 8
 1705 06cc B3F5001F 		cmp	r3, #2097152
 1706 06d0 0FD1     		bne	.L64
1386:Drivers/STM32F4xx_HAL_Driver/Src/stm32f4xx_hal_pcd.c ****     {
1387:Drivers/STM32F4xx_HAL_Driver/Src/stm32f4xx_hal_pcd.c ****       /* Keep application checking the corresponding Iso OUT endpoint
1388:Drivers/STM32F4xx_HAL_Driver/Src/stm32f4xx_hal_pcd.c ****       causing the incomplete Interrupt */
1389:Drivers/STM32F4xx_HAL_Driver/Src/stm32f4xx_hal_pcd.c ****       epnum = 0U;
 1707              		.loc 1 1389 13
 1708 06d2 0023     		movs	r3, #0
 1709 06d4 7B62     		str	r3, [r7, #36]
1390:Drivers/STM32F4xx_HAL_Driver/Src/stm32f4xx_hal_pcd.c **** 
1391:Drivers/STM32F4xx_HAL_Driver/Src/stm32f4xx_hal_pcd.c **** #if (USE_HAL_PCD_REGISTER_CALLBACKS == 1U)
1392:Drivers/STM32F4xx_HAL_Driver/Src/stm32f4xx_hal_pcd.c ****       hpcd->ISOOUTIncompleteCallback(hpcd, (uint8_t)epnum);
1393:Drivers/STM32F4xx_HAL_Driver/Src/stm32f4xx_hal_pcd.c **** #else
1394:Drivers/STM32F4xx_HAL_Driver/Src/stm32f4xx_hal_pcd.c ****       HAL_PCD_ISOOUTIncompleteCallback(hpcd, (uint8_t)epnum);
 1710              		.loc 1 1394 7
 1711 06d6 7B6A     		ldr	r3, [r7, #36]
 1712 06d8 DBB2     		uxtb	r3, r3
 1713 06da 1946     		mov	r1, r3
 1714 06dc 7868     		ldr	r0, [r7, #4]
 1715 06de FFF7FEFF 		bl	HAL_PCD_ISOOUTIncompleteCallback
1395:Drivers/STM32F4xx_HAL_Driver/Src/stm32f4xx_hal_pcd.c **** #endif /* USE_HAL_PCD_REGISTER_CALLBACKS */
1396:Drivers/STM32F4xx_HAL_Driver/Src/stm32f4xx_hal_pcd.c **** 
1397:Drivers/STM32F4xx_HAL_Driver/Src/stm32f4xx_hal_pcd.c ****       __HAL_PCD_CLEAR_FLAG(hpcd, USB_OTG_GINTSTS_PXFR_INCOMPISOOUT);
 1716              		.loc 1 1397 7
 1717 06e2 7B68     		ldr	r3, [r7, #4]
 1718 06e4 1B68     		ldr	r3, [r3]
 1719 06e6 5A69     		ldr	r2, [r3, #20]
 1720 06e8 7B68     		ldr	r3, [r7, #4]
 1721 06ea 1B68     		ldr	r3, [r3]
 1722 06ec 02F40012 		and	r2, r2, #2097152
 1723 06f0 5A61     		str	r2, [r3, #20]
 1724              	.L64:
1398:Drivers/STM32F4xx_HAL_Driver/Src/stm32f4xx_hal_pcd.c ****     }
1399:Drivers/STM32F4xx_HAL_Driver/Src/stm32f4xx_hal_pcd.c **** 
1400:Drivers/STM32F4xx_HAL_Driver/Src/stm32f4xx_hal_pcd.c ****     /* Handle Connection event Interrupt */
1401:Drivers/STM32F4xx_HAL_Driver/Src/stm32f4xx_hal_pcd.c ****     if (__HAL_PCD_GET_FLAG(hpcd, USB_OTG_GINTSTS_SRQINT))
 1725              		.loc 1 1401 9
 1726 06f2 7B68     		ldr	r3, [r7, #4]
 1727 06f4 1B68     		ldr	r3, [r3]
 1728 06f6 1846     		mov	r0, r3
 1729 06f8 FFF7FEFF 		bl	USB_ReadInterrupts
ARM GAS  /var/folders/vq/qt4vp3kd5rxf7v2b6_fdtdt80000gn/T//ccs5IouC.s 			page 56


 1730 06fc 0346     		mov	r3, r0
 1731 06fe 03F08043 		and	r3, r3, #1073741824
 1732              		.loc 1 1401 8
 1733 0702 B3F1804F 		cmp	r3, #1073741824
 1734 0706 0AD1     		bne	.L65
1402:Drivers/STM32F4xx_HAL_Driver/Src/stm32f4xx_hal_pcd.c ****     {
1403:Drivers/STM32F4xx_HAL_Driver/Src/stm32f4xx_hal_pcd.c **** #if (USE_HAL_PCD_REGISTER_CALLBACKS == 1U)
1404:Drivers/STM32F4xx_HAL_Driver/Src/stm32f4xx_hal_pcd.c ****       hpcd->ConnectCallback(hpcd);
1405:Drivers/STM32F4xx_HAL_Driver/Src/stm32f4xx_hal_pcd.c **** #else
1406:Drivers/STM32F4xx_HAL_Driver/Src/stm32f4xx_hal_pcd.c ****       HAL_PCD_ConnectCallback(hpcd);
 1735              		.loc 1 1406 7
 1736 0708 7868     		ldr	r0, [r7, #4]
 1737 070a FFF7FEFF 		bl	HAL_PCD_ConnectCallback
1407:Drivers/STM32F4xx_HAL_Driver/Src/stm32f4xx_hal_pcd.c **** #endif /* USE_HAL_PCD_REGISTER_CALLBACKS */
1408:Drivers/STM32F4xx_HAL_Driver/Src/stm32f4xx_hal_pcd.c **** 
1409:Drivers/STM32F4xx_HAL_Driver/Src/stm32f4xx_hal_pcd.c ****       __HAL_PCD_CLEAR_FLAG(hpcd, USB_OTG_GINTSTS_SRQINT);
 1738              		.loc 1 1409 7
 1739 070e 7B68     		ldr	r3, [r7, #4]
 1740 0710 1B68     		ldr	r3, [r3]
 1741 0712 5A69     		ldr	r2, [r3, #20]
 1742 0714 7B68     		ldr	r3, [r7, #4]
 1743 0716 1B68     		ldr	r3, [r3]
 1744 0718 02F08042 		and	r2, r2, #1073741824
 1745 071c 5A61     		str	r2, [r3, #20]
 1746              	.L65:
1410:Drivers/STM32F4xx_HAL_Driver/Src/stm32f4xx_hal_pcd.c ****     }
1411:Drivers/STM32F4xx_HAL_Driver/Src/stm32f4xx_hal_pcd.c **** 
1412:Drivers/STM32F4xx_HAL_Driver/Src/stm32f4xx_hal_pcd.c ****     /* Handle Disconnection event Interrupt */
1413:Drivers/STM32F4xx_HAL_Driver/Src/stm32f4xx_hal_pcd.c ****     if (__HAL_PCD_GET_FLAG(hpcd, USB_OTG_GINTSTS_OTGINT))
 1747              		.loc 1 1413 9
 1748 071e 7B68     		ldr	r3, [r7, #4]
 1749 0720 1B68     		ldr	r3, [r3]
 1750 0722 1846     		mov	r0, r3
 1751 0724 FFF7FEFF 		bl	USB_ReadInterrupts
 1752 0728 0346     		mov	r3, r0
 1753 072a 03F00403 		and	r3, r3, #4
 1754              		.loc 1 1413 8
 1755 072e 042B     		cmp	r3, #4
 1756 0730 15D1     		bne	.L26
1414:Drivers/STM32F4xx_HAL_Driver/Src/stm32f4xx_hal_pcd.c ****     {
1415:Drivers/STM32F4xx_HAL_Driver/Src/stm32f4xx_hal_pcd.c ****       temp = hpcd->Instance->GOTGINT;
 1757              		.loc 1 1415 18
 1758 0732 7B68     		ldr	r3, [r7, #4]
 1759 0734 1B68     		ldr	r3, [r3]
 1760              		.loc 1 1415 12
 1761 0736 5B68     		ldr	r3, [r3, #4]
 1762 0738 BB61     		str	r3, [r7, #24]
1416:Drivers/STM32F4xx_HAL_Driver/Src/stm32f4xx_hal_pcd.c **** 
1417:Drivers/STM32F4xx_HAL_Driver/Src/stm32f4xx_hal_pcd.c ****       if ((temp & USB_OTG_GOTGINT_SEDET) == USB_OTG_GOTGINT_SEDET)
 1763              		.loc 1 1417 17
 1764 073a BB69     		ldr	r3, [r7, #24]
 1765 073c 03F00403 		and	r3, r3, #4
 1766              		.loc 1 1417 10
 1767 0740 002B     		cmp	r3, #0
 1768 0742 02D0     		beq	.L66
1418:Drivers/STM32F4xx_HAL_Driver/Src/stm32f4xx_hal_pcd.c ****       {
1419:Drivers/STM32F4xx_HAL_Driver/Src/stm32f4xx_hal_pcd.c **** #if (USE_HAL_PCD_REGISTER_CALLBACKS == 1U)
ARM GAS  /var/folders/vq/qt4vp3kd5rxf7v2b6_fdtdt80000gn/T//ccs5IouC.s 			page 57


1420:Drivers/STM32F4xx_HAL_Driver/Src/stm32f4xx_hal_pcd.c ****         hpcd->DisconnectCallback(hpcd);
1421:Drivers/STM32F4xx_HAL_Driver/Src/stm32f4xx_hal_pcd.c **** #else
1422:Drivers/STM32F4xx_HAL_Driver/Src/stm32f4xx_hal_pcd.c ****         HAL_PCD_DisconnectCallback(hpcd);
 1769              		.loc 1 1422 9
 1770 0744 7868     		ldr	r0, [r7, #4]
 1771 0746 FFF7FEFF 		bl	HAL_PCD_DisconnectCallback
 1772              	.L66:
1423:Drivers/STM32F4xx_HAL_Driver/Src/stm32f4xx_hal_pcd.c **** #endif /* USE_HAL_PCD_REGISTER_CALLBACKS */
1424:Drivers/STM32F4xx_HAL_Driver/Src/stm32f4xx_hal_pcd.c ****       }
1425:Drivers/STM32F4xx_HAL_Driver/Src/stm32f4xx_hal_pcd.c ****       hpcd->Instance->GOTGINT |= temp;
 1773              		.loc 1 1425 11
 1774 074a 7B68     		ldr	r3, [r7, #4]
 1775 074c 1B68     		ldr	r3, [r3]
 1776              		.loc 1 1425 31
 1777 074e 5968     		ldr	r1, [r3, #4]
 1778              		.loc 1 1425 11
 1779 0750 7B68     		ldr	r3, [r7, #4]
 1780 0752 1B68     		ldr	r3, [r3]
 1781              		.loc 1 1425 31
 1782 0754 BA69     		ldr	r2, [r7, #24]
 1783 0756 0A43     		orrs	r2, r2, r1
 1784 0758 5A60     		str	r2, [r3, #4]
 1785 075a 00E0     		b	.L26
 1786              	.L67:
1065:Drivers/STM32F4xx_HAL_Driver/Src/stm32f4xx_hal_pcd.c ****     }
 1787              		.loc 1 1065 7
 1788 075c 00BF     		nop
 1789              	.L26:
1426:Drivers/STM32F4xx_HAL_Driver/Src/stm32f4xx_hal_pcd.c ****     }
1427:Drivers/STM32F4xx_HAL_Driver/Src/stm32f4xx_hal_pcd.c ****   }
1428:Drivers/STM32F4xx_HAL_Driver/Src/stm32f4xx_hal_pcd.c **** }
 1790              		.loc 1 1428 1
 1791 075e 3437     		adds	r7, r7, #52
 1792              	.LCFI35:
 1793              		.cfi_def_cfa_offset 12
 1794 0760 BD46     		mov	sp, r7
 1795              	.LCFI36:
 1796              		.cfi_def_cfa_register 13
 1797              		@ sp needed
 1798 0762 90BD     		pop	{r4, r7, pc}
 1799              		.cfi_endproc
 1800              	.LFE136:
 1802              		.section	.text.HAL_PCD_WKUP_IRQHandler,"ax",%progbits
 1803              		.align	1
 1804              		.global	HAL_PCD_WKUP_IRQHandler
 1805              		.syntax unified
 1806              		.thumb
 1807              		.thumb_func
 1808              		.fpu fpv4-sp-d16
 1810              	HAL_PCD_WKUP_IRQHandler:
 1811              	.LFB137:
1429:Drivers/STM32F4xx_HAL_Driver/Src/stm32f4xx_hal_pcd.c **** 
1430:Drivers/STM32F4xx_HAL_Driver/Src/stm32f4xx_hal_pcd.c **** 
1431:Drivers/STM32F4xx_HAL_Driver/Src/stm32f4xx_hal_pcd.c **** /**
1432:Drivers/STM32F4xx_HAL_Driver/Src/stm32f4xx_hal_pcd.c ****   * @brief  Handles PCD Wakeup interrupt request.
1433:Drivers/STM32F4xx_HAL_Driver/Src/stm32f4xx_hal_pcd.c ****   * @param  hpcd PCD handle
1434:Drivers/STM32F4xx_HAL_Driver/Src/stm32f4xx_hal_pcd.c ****   * @retval HAL status
ARM GAS  /var/folders/vq/qt4vp3kd5rxf7v2b6_fdtdt80000gn/T//ccs5IouC.s 			page 58


1435:Drivers/STM32F4xx_HAL_Driver/Src/stm32f4xx_hal_pcd.c ****   */
1436:Drivers/STM32F4xx_HAL_Driver/Src/stm32f4xx_hal_pcd.c **** void HAL_PCD_WKUP_IRQHandler(PCD_HandleTypeDef *hpcd)
1437:Drivers/STM32F4xx_HAL_Driver/Src/stm32f4xx_hal_pcd.c **** {
 1812              		.loc 1 1437 1
 1813              		.cfi_startproc
 1814              		@ args = 0, pretend = 0, frame = 16
 1815              		@ frame_needed = 1, uses_anonymous_args = 0
 1816              		@ link register save eliminated.
 1817 0000 80B4     		push	{r7}
 1818              	.LCFI37:
 1819              		.cfi_def_cfa_offset 4
 1820              		.cfi_offset 7, -4
 1821 0002 85B0     		sub	sp, sp, #20
 1822              	.LCFI38:
 1823              		.cfi_def_cfa_offset 24
 1824 0004 00AF     		add	r7, sp, #0
 1825              	.LCFI39:
 1826              		.cfi_def_cfa_register 7
 1827 0006 7860     		str	r0, [r7, #4]
1438:Drivers/STM32F4xx_HAL_Driver/Src/stm32f4xx_hal_pcd.c ****   USB_OTG_GlobalTypeDef *USBx;
1439:Drivers/STM32F4xx_HAL_Driver/Src/stm32f4xx_hal_pcd.c **** 
1440:Drivers/STM32F4xx_HAL_Driver/Src/stm32f4xx_hal_pcd.c ****   USBx = hpcd->Instance;
 1828              		.loc 1 1440 8
 1829 0008 7B68     		ldr	r3, [r7, #4]
 1830 000a 1B68     		ldr	r3, [r3]
 1831 000c FB60     		str	r3, [r7, #12]
1441:Drivers/STM32F4xx_HAL_Driver/Src/stm32f4xx_hal_pcd.c **** 
1442:Drivers/STM32F4xx_HAL_Driver/Src/stm32f4xx_hal_pcd.c ****   if ((USBx->CID & (0x1U << 8)) == 0U)
 1832              		.loc 1 1442 12
 1833 000e FB68     		ldr	r3, [r7, #12]
 1834 0010 DB6B     		ldr	r3, [r3, #60]
 1835              		.loc 1 1442 18
 1836 0012 03F48073 		and	r3, r3, #256
 1837              		.loc 1 1442 6
 1838 0016 002B     		cmp	r3, #0
 1839 0018 04D1     		bne	.L69
1443:Drivers/STM32F4xx_HAL_Driver/Src/stm32f4xx_hal_pcd.c ****   {
1444:Drivers/STM32F4xx_HAL_Driver/Src/stm32f4xx_hal_pcd.c ****     /* Clear EXTI pending Bit */
1445:Drivers/STM32F4xx_HAL_Driver/Src/stm32f4xx_hal_pcd.c ****     __HAL_USB_OTG_FS_WAKEUP_EXTI_CLEAR_FLAG();
 1840              		.loc 1 1445 5
 1841 001a 074B     		ldr	r3, .L72
 1842 001c 4FF48022 		mov	r2, #262144
 1843 0020 5A61     		str	r2, [r3, #20]
1446:Drivers/STM32F4xx_HAL_Driver/Src/stm32f4xx_hal_pcd.c ****   }
1447:Drivers/STM32F4xx_HAL_Driver/Src/stm32f4xx_hal_pcd.c ****   else
1448:Drivers/STM32F4xx_HAL_Driver/Src/stm32f4xx_hal_pcd.c ****   {
1449:Drivers/STM32F4xx_HAL_Driver/Src/stm32f4xx_hal_pcd.c ****     /* Clear EXTI pending Bit */
1450:Drivers/STM32F4xx_HAL_Driver/Src/stm32f4xx_hal_pcd.c ****     __HAL_USB_OTG_HS_WAKEUP_EXTI_CLEAR_FLAG();
1451:Drivers/STM32F4xx_HAL_Driver/Src/stm32f4xx_hal_pcd.c ****   }
1452:Drivers/STM32F4xx_HAL_Driver/Src/stm32f4xx_hal_pcd.c **** }
 1844              		.loc 1 1452 1
 1845 0022 03E0     		b	.L71
 1846              	.L69:
1450:Drivers/STM32F4xx_HAL_Driver/Src/stm32f4xx_hal_pcd.c ****   }
 1847              		.loc 1 1450 5
 1848 0024 044B     		ldr	r3, .L72
 1849 0026 4FF48012 		mov	r2, #1048576
ARM GAS  /var/folders/vq/qt4vp3kd5rxf7v2b6_fdtdt80000gn/T//ccs5IouC.s 			page 59


 1850 002a 5A61     		str	r2, [r3, #20]
 1851              	.L71:
 1852              		.loc 1 1452 1
 1853 002c 00BF     		nop
 1854 002e 1437     		adds	r7, r7, #20
 1855              	.LCFI40:
 1856              		.cfi_def_cfa_offset 4
 1857 0030 BD46     		mov	sp, r7
 1858              	.LCFI41:
 1859              		.cfi_def_cfa_register 13
 1860              		@ sp needed
 1861 0032 5DF8047B 		ldr	r7, [sp], #4
 1862              	.LCFI42:
 1863              		.cfi_restore 7
 1864              		.cfi_def_cfa_offset 0
 1865 0036 7047     		bx	lr
 1866              	.L73:
 1867              		.align	2
 1868              	.L72:
 1869 0038 003C0140 		.word	1073822720
 1870              		.cfi_endproc
 1871              	.LFE137:
 1873              		.section	.text.HAL_PCD_DataOutStageCallback,"ax",%progbits
 1874              		.align	1
 1875              		.weak	HAL_PCD_DataOutStageCallback
 1876              		.syntax unified
 1877              		.thumb
 1878              		.thumb_func
 1879              		.fpu fpv4-sp-d16
 1881              	HAL_PCD_DataOutStageCallback:
 1882              	.LFB138:
1453:Drivers/STM32F4xx_HAL_Driver/Src/stm32f4xx_hal_pcd.c **** #endif /* defined (USB_OTG_FS) || defined (USB_OTG_HS) */
1454:Drivers/STM32F4xx_HAL_Driver/Src/stm32f4xx_hal_pcd.c **** 
1455:Drivers/STM32F4xx_HAL_Driver/Src/stm32f4xx_hal_pcd.c **** 
1456:Drivers/STM32F4xx_HAL_Driver/Src/stm32f4xx_hal_pcd.c **** /**
1457:Drivers/STM32F4xx_HAL_Driver/Src/stm32f4xx_hal_pcd.c ****   * @brief  Data OUT stage callback.
1458:Drivers/STM32F4xx_HAL_Driver/Src/stm32f4xx_hal_pcd.c ****   * @param  hpcd PCD handle
1459:Drivers/STM32F4xx_HAL_Driver/Src/stm32f4xx_hal_pcd.c ****   * @param  epnum endpoint number
1460:Drivers/STM32F4xx_HAL_Driver/Src/stm32f4xx_hal_pcd.c ****   * @retval None
1461:Drivers/STM32F4xx_HAL_Driver/Src/stm32f4xx_hal_pcd.c ****   */
1462:Drivers/STM32F4xx_HAL_Driver/Src/stm32f4xx_hal_pcd.c **** __weak void HAL_PCD_DataOutStageCallback(PCD_HandleTypeDef *hpcd, uint8_t epnum)
1463:Drivers/STM32F4xx_HAL_Driver/Src/stm32f4xx_hal_pcd.c **** {
 1883              		.loc 1 1463 1
 1884              		.cfi_startproc
 1885              		@ args = 0, pretend = 0, frame = 8
 1886              		@ frame_needed = 1, uses_anonymous_args = 0
 1887              		@ link register save eliminated.
 1888 0000 80B4     		push	{r7}
 1889              	.LCFI43:
 1890              		.cfi_def_cfa_offset 4
 1891              		.cfi_offset 7, -4
 1892 0002 83B0     		sub	sp, sp, #12
 1893              	.LCFI44:
 1894              		.cfi_def_cfa_offset 16
 1895 0004 00AF     		add	r7, sp, #0
 1896              	.LCFI45:
 1897              		.cfi_def_cfa_register 7
ARM GAS  /var/folders/vq/qt4vp3kd5rxf7v2b6_fdtdt80000gn/T//ccs5IouC.s 			page 60


 1898 0006 7860     		str	r0, [r7, #4]
 1899 0008 0B46     		mov	r3, r1
 1900 000a FB70     		strb	r3, [r7, #3]
1464:Drivers/STM32F4xx_HAL_Driver/Src/stm32f4xx_hal_pcd.c ****   /* Prevent unused argument(s) compilation warning */
1465:Drivers/STM32F4xx_HAL_Driver/Src/stm32f4xx_hal_pcd.c ****   UNUSED(hpcd);
1466:Drivers/STM32F4xx_HAL_Driver/Src/stm32f4xx_hal_pcd.c ****   UNUSED(epnum);
1467:Drivers/STM32F4xx_HAL_Driver/Src/stm32f4xx_hal_pcd.c **** 
1468:Drivers/STM32F4xx_HAL_Driver/Src/stm32f4xx_hal_pcd.c ****   /* NOTE : This function should not be modified, when the callback is needed,
1469:Drivers/STM32F4xx_HAL_Driver/Src/stm32f4xx_hal_pcd.c ****             the HAL_PCD_DataOutStageCallback could be implemented in the user file
1470:Drivers/STM32F4xx_HAL_Driver/Src/stm32f4xx_hal_pcd.c ****    */
1471:Drivers/STM32F4xx_HAL_Driver/Src/stm32f4xx_hal_pcd.c **** }
 1901              		.loc 1 1471 1
 1902 000c 00BF     		nop
 1903 000e 0C37     		adds	r7, r7, #12
 1904              	.LCFI46:
 1905              		.cfi_def_cfa_offset 4
 1906 0010 BD46     		mov	sp, r7
 1907              	.LCFI47:
 1908              		.cfi_def_cfa_register 13
 1909              		@ sp needed
 1910 0012 5DF8047B 		ldr	r7, [sp], #4
 1911              	.LCFI48:
 1912              		.cfi_restore 7
 1913              		.cfi_def_cfa_offset 0
 1914 0016 7047     		bx	lr
 1915              		.cfi_endproc
 1916              	.LFE138:
 1918              		.section	.text.HAL_PCD_DataInStageCallback,"ax",%progbits
 1919              		.align	1
 1920              		.weak	HAL_PCD_DataInStageCallback
 1921              		.syntax unified
 1922              		.thumb
 1923              		.thumb_func
 1924              		.fpu fpv4-sp-d16
 1926              	HAL_PCD_DataInStageCallback:
 1927              	.LFB139:
1472:Drivers/STM32F4xx_HAL_Driver/Src/stm32f4xx_hal_pcd.c **** 
1473:Drivers/STM32F4xx_HAL_Driver/Src/stm32f4xx_hal_pcd.c **** /**
1474:Drivers/STM32F4xx_HAL_Driver/Src/stm32f4xx_hal_pcd.c ****   * @brief  Data IN stage callback
1475:Drivers/STM32F4xx_HAL_Driver/Src/stm32f4xx_hal_pcd.c ****   * @param  hpcd PCD handle
1476:Drivers/STM32F4xx_HAL_Driver/Src/stm32f4xx_hal_pcd.c ****   * @param  epnum endpoint number
1477:Drivers/STM32F4xx_HAL_Driver/Src/stm32f4xx_hal_pcd.c ****   * @retval None
1478:Drivers/STM32F4xx_HAL_Driver/Src/stm32f4xx_hal_pcd.c ****   */
1479:Drivers/STM32F4xx_HAL_Driver/Src/stm32f4xx_hal_pcd.c **** __weak void HAL_PCD_DataInStageCallback(PCD_HandleTypeDef *hpcd, uint8_t epnum)
1480:Drivers/STM32F4xx_HAL_Driver/Src/stm32f4xx_hal_pcd.c **** {
 1928              		.loc 1 1480 1
 1929              		.cfi_startproc
 1930              		@ args = 0, pretend = 0, frame = 8
 1931              		@ frame_needed = 1, uses_anonymous_args = 0
 1932              		@ link register save eliminated.
 1933 0000 80B4     		push	{r7}
 1934              	.LCFI49:
 1935              		.cfi_def_cfa_offset 4
 1936              		.cfi_offset 7, -4
 1937 0002 83B0     		sub	sp, sp, #12
 1938              	.LCFI50:
 1939              		.cfi_def_cfa_offset 16
ARM GAS  /var/folders/vq/qt4vp3kd5rxf7v2b6_fdtdt80000gn/T//ccs5IouC.s 			page 61


 1940 0004 00AF     		add	r7, sp, #0
 1941              	.LCFI51:
 1942              		.cfi_def_cfa_register 7
 1943 0006 7860     		str	r0, [r7, #4]
 1944 0008 0B46     		mov	r3, r1
 1945 000a FB70     		strb	r3, [r7, #3]
1481:Drivers/STM32F4xx_HAL_Driver/Src/stm32f4xx_hal_pcd.c ****   /* Prevent unused argument(s) compilation warning */
1482:Drivers/STM32F4xx_HAL_Driver/Src/stm32f4xx_hal_pcd.c ****   UNUSED(hpcd);
1483:Drivers/STM32F4xx_HAL_Driver/Src/stm32f4xx_hal_pcd.c ****   UNUSED(epnum);
1484:Drivers/STM32F4xx_HAL_Driver/Src/stm32f4xx_hal_pcd.c **** 
1485:Drivers/STM32F4xx_HAL_Driver/Src/stm32f4xx_hal_pcd.c ****   /* NOTE : This function should not be modified, when the callback is needed,
1486:Drivers/STM32F4xx_HAL_Driver/Src/stm32f4xx_hal_pcd.c ****             the HAL_PCD_DataInStageCallback could be implemented in the user file
1487:Drivers/STM32F4xx_HAL_Driver/Src/stm32f4xx_hal_pcd.c ****    */
1488:Drivers/STM32F4xx_HAL_Driver/Src/stm32f4xx_hal_pcd.c **** }
 1946              		.loc 1 1488 1
 1947 000c 00BF     		nop
 1948 000e 0C37     		adds	r7, r7, #12
 1949              	.LCFI52:
 1950              		.cfi_def_cfa_offset 4
 1951 0010 BD46     		mov	sp, r7
 1952              	.LCFI53:
 1953              		.cfi_def_cfa_register 13
 1954              		@ sp needed
 1955 0012 5DF8047B 		ldr	r7, [sp], #4
 1956              	.LCFI54:
 1957              		.cfi_restore 7
 1958              		.cfi_def_cfa_offset 0
 1959 0016 7047     		bx	lr
 1960              		.cfi_endproc
 1961              	.LFE139:
 1963              		.section	.text.HAL_PCD_SetupStageCallback,"ax",%progbits
 1964              		.align	1
 1965              		.weak	HAL_PCD_SetupStageCallback
 1966              		.syntax unified
 1967              		.thumb
 1968              		.thumb_func
 1969              		.fpu fpv4-sp-d16
 1971              	HAL_PCD_SetupStageCallback:
 1972              	.LFB140:
1489:Drivers/STM32F4xx_HAL_Driver/Src/stm32f4xx_hal_pcd.c **** /**
1490:Drivers/STM32F4xx_HAL_Driver/Src/stm32f4xx_hal_pcd.c ****   * @brief  Setup stage callback
1491:Drivers/STM32F4xx_HAL_Driver/Src/stm32f4xx_hal_pcd.c ****   * @param  hpcd PCD handle
1492:Drivers/STM32F4xx_HAL_Driver/Src/stm32f4xx_hal_pcd.c ****   * @retval None
1493:Drivers/STM32F4xx_HAL_Driver/Src/stm32f4xx_hal_pcd.c ****   */
1494:Drivers/STM32F4xx_HAL_Driver/Src/stm32f4xx_hal_pcd.c **** __weak void HAL_PCD_SetupStageCallback(PCD_HandleTypeDef *hpcd)
1495:Drivers/STM32F4xx_HAL_Driver/Src/stm32f4xx_hal_pcd.c **** {
 1973              		.loc 1 1495 1
 1974              		.cfi_startproc
 1975              		@ args = 0, pretend = 0, frame = 8
 1976              		@ frame_needed = 1, uses_anonymous_args = 0
 1977              		@ link register save eliminated.
 1978 0000 80B4     		push	{r7}
 1979              	.LCFI55:
 1980              		.cfi_def_cfa_offset 4
 1981              		.cfi_offset 7, -4
 1982 0002 83B0     		sub	sp, sp, #12
 1983              	.LCFI56:
ARM GAS  /var/folders/vq/qt4vp3kd5rxf7v2b6_fdtdt80000gn/T//ccs5IouC.s 			page 62


 1984              		.cfi_def_cfa_offset 16
 1985 0004 00AF     		add	r7, sp, #0
 1986              	.LCFI57:
 1987              		.cfi_def_cfa_register 7
 1988 0006 7860     		str	r0, [r7, #4]
1496:Drivers/STM32F4xx_HAL_Driver/Src/stm32f4xx_hal_pcd.c ****   /* Prevent unused argument(s) compilation warning */
1497:Drivers/STM32F4xx_HAL_Driver/Src/stm32f4xx_hal_pcd.c ****   UNUSED(hpcd);
1498:Drivers/STM32F4xx_HAL_Driver/Src/stm32f4xx_hal_pcd.c **** 
1499:Drivers/STM32F4xx_HAL_Driver/Src/stm32f4xx_hal_pcd.c ****   /* NOTE : This function should not be modified, when the callback is needed,
1500:Drivers/STM32F4xx_HAL_Driver/Src/stm32f4xx_hal_pcd.c ****             the HAL_PCD_SetupStageCallback could be implemented in the user file
1501:Drivers/STM32F4xx_HAL_Driver/Src/stm32f4xx_hal_pcd.c ****    */
1502:Drivers/STM32F4xx_HAL_Driver/Src/stm32f4xx_hal_pcd.c **** }
 1989              		.loc 1 1502 1
 1990 0008 00BF     		nop
 1991 000a 0C37     		adds	r7, r7, #12
 1992              	.LCFI58:
 1993              		.cfi_def_cfa_offset 4
 1994 000c BD46     		mov	sp, r7
 1995              	.LCFI59:
 1996              		.cfi_def_cfa_register 13
 1997              		@ sp needed
 1998 000e 5DF8047B 		ldr	r7, [sp], #4
 1999              	.LCFI60:
 2000              		.cfi_restore 7
 2001              		.cfi_def_cfa_offset 0
 2002 0012 7047     		bx	lr
 2003              		.cfi_endproc
 2004              	.LFE140:
 2006              		.section	.text.HAL_PCD_SOFCallback,"ax",%progbits
 2007              		.align	1
 2008              		.weak	HAL_PCD_SOFCallback
 2009              		.syntax unified
 2010              		.thumb
 2011              		.thumb_func
 2012              		.fpu fpv4-sp-d16
 2014              	HAL_PCD_SOFCallback:
 2015              	.LFB141:
1503:Drivers/STM32F4xx_HAL_Driver/Src/stm32f4xx_hal_pcd.c **** 
1504:Drivers/STM32F4xx_HAL_Driver/Src/stm32f4xx_hal_pcd.c **** /**
1505:Drivers/STM32F4xx_HAL_Driver/Src/stm32f4xx_hal_pcd.c ****   * @brief  USB Start Of Frame callback.
1506:Drivers/STM32F4xx_HAL_Driver/Src/stm32f4xx_hal_pcd.c ****   * @param  hpcd PCD handle
1507:Drivers/STM32F4xx_HAL_Driver/Src/stm32f4xx_hal_pcd.c ****   * @retval None
1508:Drivers/STM32F4xx_HAL_Driver/Src/stm32f4xx_hal_pcd.c ****   */
1509:Drivers/STM32F4xx_HAL_Driver/Src/stm32f4xx_hal_pcd.c **** __weak void HAL_PCD_SOFCallback(PCD_HandleTypeDef *hpcd)
1510:Drivers/STM32F4xx_HAL_Driver/Src/stm32f4xx_hal_pcd.c **** {
 2016              		.loc 1 1510 1
 2017              		.cfi_startproc
 2018              		@ args = 0, pretend = 0, frame = 8
 2019              		@ frame_needed = 1, uses_anonymous_args = 0
 2020              		@ link register save eliminated.
 2021 0000 80B4     		push	{r7}
 2022              	.LCFI61:
 2023              		.cfi_def_cfa_offset 4
 2024              		.cfi_offset 7, -4
 2025 0002 83B0     		sub	sp, sp, #12
 2026              	.LCFI62:
 2027              		.cfi_def_cfa_offset 16
ARM GAS  /var/folders/vq/qt4vp3kd5rxf7v2b6_fdtdt80000gn/T//ccs5IouC.s 			page 63


 2028 0004 00AF     		add	r7, sp, #0
 2029              	.LCFI63:
 2030              		.cfi_def_cfa_register 7
 2031 0006 7860     		str	r0, [r7, #4]
1511:Drivers/STM32F4xx_HAL_Driver/Src/stm32f4xx_hal_pcd.c ****   /* Prevent unused argument(s) compilation warning */
1512:Drivers/STM32F4xx_HAL_Driver/Src/stm32f4xx_hal_pcd.c ****   UNUSED(hpcd);
1513:Drivers/STM32F4xx_HAL_Driver/Src/stm32f4xx_hal_pcd.c **** 
1514:Drivers/STM32F4xx_HAL_Driver/Src/stm32f4xx_hal_pcd.c ****   /* NOTE : This function should not be modified, when the callback is needed,
1515:Drivers/STM32F4xx_HAL_Driver/Src/stm32f4xx_hal_pcd.c ****             the HAL_PCD_SOFCallback could be implemented in the user file
1516:Drivers/STM32F4xx_HAL_Driver/Src/stm32f4xx_hal_pcd.c ****    */
1517:Drivers/STM32F4xx_HAL_Driver/Src/stm32f4xx_hal_pcd.c **** }
 2032              		.loc 1 1517 1
 2033 0008 00BF     		nop
 2034 000a 0C37     		adds	r7, r7, #12
 2035              	.LCFI64:
 2036              		.cfi_def_cfa_offset 4
 2037 000c BD46     		mov	sp, r7
 2038              	.LCFI65:
 2039              		.cfi_def_cfa_register 13
 2040              		@ sp needed
 2041 000e 5DF8047B 		ldr	r7, [sp], #4
 2042              	.LCFI66:
 2043              		.cfi_restore 7
 2044              		.cfi_def_cfa_offset 0
 2045 0012 7047     		bx	lr
 2046              		.cfi_endproc
 2047              	.LFE141:
 2049              		.section	.text.HAL_PCD_ResetCallback,"ax",%progbits
 2050              		.align	1
 2051              		.weak	HAL_PCD_ResetCallback
 2052              		.syntax unified
 2053              		.thumb
 2054              		.thumb_func
 2055              		.fpu fpv4-sp-d16
 2057              	HAL_PCD_ResetCallback:
 2058              	.LFB142:
1518:Drivers/STM32F4xx_HAL_Driver/Src/stm32f4xx_hal_pcd.c **** 
1519:Drivers/STM32F4xx_HAL_Driver/Src/stm32f4xx_hal_pcd.c **** /**
1520:Drivers/STM32F4xx_HAL_Driver/Src/stm32f4xx_hal_pcd.c ****   * @brief  USB Reset callback.
1521:Drivers/STM32F4xx_HAL_Driver/Src/stm32f4xx_hal_pcd.c ****   * @param  hpcd PCD handle
1522:Drivers/STM32F4xx_HAL_Driver/Src/stm32f4xx_hal_pcd.c ****   * @retval None
1523:Drivers/STM32F4xx_HAL_Driver/Src/stm32f4xx_hal_pcd.c ****   */
1524:Drivers/STM32F4xx_HAL_Driver/Src/stm32f4xx_hal_pcd.c **** __weak void HAL_PCD_ResetCallback(PCD_HandleTypeDef *hpcd)
1525:Drivers/STM32F4xx_HAL_Driver/Src/stm32f4xx_hal_pcd.c **** {
 2059              		.loc 1 1525 1
 2060              		.cfi_startproc
 2061              		@ args = 0, pretend = 0, frame = 8
 2062              		@ frame_needed = 1, uses_anonymous_args = 0
 2063              		@ link register save eliminated.
 2064 0000 80B4     		push	{r7}
 2065              	.LCFI67:
 2066              		.cfi_def_cfa_offset 4
 2067              		.cfi_offset 7, -4
 2068 0002 83B0     		sub	sp, sp, #12
 2069              	.LCFI68:
 2070              		.cfi_def_cfa_offset 16
 2071 0004 00AF     		add	r7, sp, #0
ARM GAS  /var/folders/vq/qt4vp3kd5rxf7v2b6_fdtdt80000gn/T//ccs5IouC.s 			page 64


 2072              	.LCFI69:
 2073              		.cfi_def_cfa_register 7
 2074 0006 7860     		str	r0, [r7, #4]
1526:Drivers/STM32F4xx_HAL_Driver/Src/stm32f4xx_hal_pcd.c ****   /* Prevent unused argument(s) compilation warning */
1527:Drivers/STM32F4xx_HAL_Driver/Src/stm32f4xx_hal_pcd.c ****   UNUSED(hpcd);
1528:Drivers/STM32F4xx_HAL_Driver/Src/stm32f4xx_hal_pcd.c **** 
1529:Drivers/STM32F4xx_HAL_Driver/Src/stm32f4xx_hal_pcd.c ****   /* NOTE : This function should not be modified, when the callback is needed,
1530:Drivers/STM32F4xx_HAL_Driver/Src/stm32f4xx_hal_pcd.c ****             the HAL_PCD_ResetCallback could be implemented in the user file
1531:Drivers/STM32F4xx_HAL_Driver/Src/stm32f4xx_hal_pcd.c ****    */
1532:Drivers/STM32F4xx_HAL_Driver/Src/stm32f4xx_hal_pcd.c **** }
 2075              		.loc 1 1532 1
 2076 0008 00BF     		nop
 2077 000a 0C37     		adds	r7, r7, #12
 2078              	.LCFI70:
 2079              		.cfi_def_cfa_offset 4
 2080 000c BD46     		mov	sp, r7
 2081              	.LCFI71:
 2082              		.cfi_def_cfa_register 13
 2083              		@ sp needed
 2084 000e 5DF8047B 		ldr	r7, [sp], #4
 2085              	.LCFI72:
 2086              		.cfi_restore 7
 2087              		.cfi_def_cfa_offset 0
 2088 0012 7047     		bx	lr
 2089              		.cfi_endproc
 2090              	.LFE142:
 2092              		.section	.text.HAL_PCD_SuspendCallback,"ax",%progbits
 2093              		.align	1
 2094              		.weak	HAL_PCD_SuspendCallback
 2095              		.syntax unified
 2096              		.thumb
 2097              		.thumb_func
 2098              		.fpu fpv4-sp-d16
 2100              	HAL_PCD_SuspendCallback:
 2101              	.LFB143:
1533:Drivers/STM32F4xx_HAL_Driver/Src/stm32f4xx_hal_pcd.c **** 
1534:Drivers/STM32F4xx_HAL_Driver/Src/stm32f4xx_hal_pcd.c **** /**
1535:Drivers/STM32F4xx_HAL_Driver/Src/stm32f4xx_hal_pcd.c ****   * @brief  Suspend event callback.
1536:Drivers/STM32F4xx_HAL_Driver/Src/stm32f4xx_hal_pcd.c ****   * @param  hpcd PCD handle
1537:Drivers/STM32F4xx_HAL_Driver/Src/stm32f4xx_hal_pcd.c ****   * @retval None
1538:Drivers/STM32F4xx_HAL_Driver/Src/stm32f4xx_hal_pcd.c ****   */
1539:Drivers/STM32F4xx_HAL_Driver/Src/stm32f4xx_hal_pcd.c **** __weak void HAL_PCD_SuspendCallback(PCD_HandleTypeDef *hpcd)
1540:Drivers/STM32F4xx_HAL_Driver/Src/stm32f4xx_hal_pcd.c **** {
 2102              		.loc 1 1540 1
 2103              		.cfi_startproc
 2104              		@ args = 0, pretend = 0, frame = 8
 2105              		@ frame_needed = 1, uses_anonymous_args = 0
 2106              		@ link register save eliminated.
 2107 0000 80B4     		push	{r7}
 2108              	.LCFI73:
 2109              		.cfi_def_cfa_offset 4
 2110              		.cfi_offset 7, -4
 2111 0002 83B0     		sub	sp, sp, #12
 2112              	.LCFI74:
 2113              		.cfi_def_cfa_offset 16
 2114 0004 00AF     		add	r7, sp, #0
 2115              	.LCFI75:
ARM GAS  /var/folders/vq/qt4vp3kd5rxf7v2b6_fdtdt80000gn/T//ccs5IouC.s 			page 65


 2116              		.cfi_def_cfa_register 7
 2117 0006 7860     		str	r0, [r7, #4]
1541:Drivers/STM32F4xx_HAL_Driver/Src/stm32f4xx_hal_pcd.c ****   /* Prevent unused argument(s) compilation warning */
1542:Drivers/STM32F4xx_HAL_Driver/Src/stm32f4xx_hal_pcd.c ****   UNUSED(hpcd);
1543:Drivers/STM32F4xx_HAL_Driver/Src/stm32f4xx_hal_pcd.c **** 
1544:Drivers/STM32F4xx_HAL_Driver/Src/stm32f4xx_hal_pcd.c ****   /* NOTE : This function should not be modified, when the callback is needed,
1545:Drivers/STM32F4xx_HAL_Driver/Src/stm32f4xx_hal_pcd.c ****             the HAL_PCD_SuspendCallback could be implemented in the user file
1546:Drivers/STM32F4xx_HAL_Driver/Src/stm32f4xx_hal_pcd.c ****    */
1547:Drivers/STM32F4xx_HAL_Driver/Src/stm32f4xx_hal_pcd.c **** }
 2118              		.loc 1 1547 1
 2119 0008 00BF     		nop
 2120 000a 0C37     		adds	r7, r7, #12
 2121              	.LCFI76:
 2122              		.cfi_def_cfa_offset 4
 2123 000c BD46     		mov	sp, r7
 2124              	.LCFI77:
 2125              		.cfi_def_cfa_register 13
 2126              		@ sp needed
 2127 000e 5DF8047B 		ldr	r7, [sp], #4
 2128              	.LCFI78:
 2129              		.cfi_restore 7
 2130              		.cfi_def_cfa_offset 0
 2131 0012 7047     		bx	lr
 2132              		.cfi_endproc
 2133              	.LFE143:
 2135              		.section	.text.HAL_PCD_ResumeCallback,"ax",%progbits
 2136              		.align	1
 2137              		.weak	HAL_PCD_ResumeCallback
 2138              		.syntax unified
 2139              		.thumb
 2140              		.thumb_func
 2141              		.fpu fpv4-sp-d16
 2143              	HAL_PCD_ResumeCallback:
 2144              	.LFB144:
1548:Drivers/STM32F4xx_HAL_Driver/Src/stm32f4xx_hal_pcd.c **** 
1549:Drivers/STM32F4xx_HAL_Driver/Src/stm32f4xx_hal_pcd.c **** /**
1550:Drivers/STM32F4xx_HAL_Driver/Src/stm32f4xx_hal_pcd.c ****   * @brief  Resume event callback.
1551:Drivers/STM32F4xx_HAL_Driver/Src/stm32f4xx_hal_pcd.c ****   * @param  hpcd PCD handle
1552:Drivers/STM32F4xx_HAL_Driver/Src/stm32f4xx_hal_pcd.c ****   * @retval None
1553:Drivers/STM32F4xx_HAL_Driver/Src/stm32f4xx_hal_pcd.c ****   */
1554:Drivers/STM32F4xx_HAL_Driver/Src/stm32f4xx_hal_pcd.c **** __weak void HAL_PCD_ResumeCallback(PCD_HandleTypeDef *hpcd)
1555:Drivers/STM32F4xx_HAL_Driver/Src/stm32f4xx_hal_pcd.c **** {
 2145              		.loc 1 1555 1
 2146              		.cfi_startproc
 2147              		@ args = 0, pretend = 0, frame = 8
 2148              		@ frame_needed = 1, uses_anonymous_args = 0
 2149              		@ link register save eliminated.
 2150 0000 80B4     		push	{r7}
 2151              	.LCFI79:
 2152              		.cfi_def_cfa_offset 4
 2153              		.cfi_offset 7, -4
 2154 0002 83B0     		sub	sp, sp, #12
 2155              	.LCFI80:
 2156              		.cfi_def_cfa_offset 16
 2157 0004 00AF     		add	r7, sp, #0
 2158              	.LCFI81:
 2159              		.cfi_def_cfa_register 7
ARM GAS  /var/folders/vq/qt4vp3kd5rxf7v2b6_fdtdt80000gn/T//ccs5IouC.s 			page 66


 2160 0006 7860     		str	r0, [r7, #4]
1556:Drivers/STM32F4xx_HAL_Driver/Src/stm32f4xx_hal_pcd.c ****   /* Prevent unused argument(s) compilation warning */
1557:Drivers/STM32F4xx_HAL_Driver/Src/stm32f4xx_hal_pcd.c ****   UNUSED(hpcd);
1558:Drivers/STM32F4xx_HAL_Driver/Src/stm32f4xx_hal_pcd.c **** 
1559:Drivers/STM32F4xx_HAL_Driver/Src/stm32f4xx_hal_pcd.c ****   /* NOTE : This function should not be modified, when the callback is needed,
1560:Drivers/STM32F4xx_HAL_Driver/Src/stm32f4xx_hal_pcd.c ****             the HAL_PCD_ResumeCallback could be implemented in the user file
1561:Drivers/STM32F4xx_HAL_Driver/Src/stm32f4xx_hal_pcd.c ****    */
1562:Drivers/STM32F4xx_HAL_Driver/Src/stm32f4xx_hal_pcd.c **** }
 2161              		.loc 1 1562 1
 2162 0008 00BF     		nop
 2163 000a 0C37     		adds	r7, r7, #12
 2164              	.LCFI82:
 2165              		.cfi_def_cfa_offset 4
 2166 000c BD46     		mov	sp, r7
 2167              	.LCFI83:
 2168              		.cfi_def_cfa_register 13
 2169              		@ sp needed
 2170 000e 5DF8047B 		ldr	r7, [sp], #4
 2171              	.LCFI84:
 2172              		.cfi_restore 7
 2173              		.cfi_def_cfa_offset 0
 2174 0012 7047     		bx	lr
 2175              		.cfi_endproc
 2176              	.LFE144:
 2178              		.section	.text.HAL_PCD_ISOOUTIncompleteCallback,"ax",%progbits
 2179              		.align	1
 2180              		.weak	HAL_PCD_ISOOUTIncompleteCallback
 2181              		.syntax unified
 2182              		.thumb
 2183              		.thumb_func
 2184              		.fpu fpv4-sp-d16
 2186              	HAL_PCD_ISOOUTIncompleteCallback:
 2187              	.LFB145:
1563:Drivers/STM32F4xx_HAL_Driver/Src/stm32f4xx_hal_pcd.c **** 
1564:Drivers/STM32F4xx_HAL_Driver/Src/stm32f4xx_hal_pcd.c **** /**
1565:Drivers/STM32F4xx_HAL_Driver/Src/stm32f4xx_hal_pcd.c ****   * @brief  Incomplete ISO OUT callback.
1566:Drivers/STM32F4xx_HAL_Driver/Src/stm32f4xx_hal_pcd.c ****   * @param  hpcd PCD handle
1567:Drivers/STM32F4xx_HAL_Driver/Src/stm32f4xx_hal_pcd.c ****   * @param  epnum endpoint number
1568:Drivers/STM32F4xx_HAL_Driver/Src/stm32f4xx_hal_pcd.c ****   * @retval None
1569:Drivers/STM32F4xx_HAL_Driver/Src/stm32f4xx_hal_pcd.c ****   */
1570:Drivers/STM32F4xx_HAL_Driver/Src/stm32f4xx_hal_pcd.c **** __weak void HAL_PCD_ISOOUTIncompleteCallback(PCD_HandleTypeDef *hpcd, uint8_t epnum)
1571:Drivers/STM32F4xx_HAL_Driver/Src/stm32f4xx_hal_pcd.c **** {
 2188              		.loc 1 1571 1
 2189              		.cfi_startproc
 2190              		@ args = 0, pretend = 0, frame = 8
 2191              		@ frame_needed = 1, uses_anonymous_args = 0
 2192              		@ link register save eliminated.
 2193 0000 80B4     		push	{r7}
 2194              	.LCFI85:
 2195              		.cfi_def_cfa_offset 4
 2196              		.cfi_offset 7, -4
 2197 0002 83B0     		sub	sp, sp, #12
 2198              	.LCFI86:
 2199              		.cfi_def_cfa_offset 16
 2200 0004 00AF     		add	r7, sp, #0
 2201              	.LCFI87:
 2202              		.cfi_def_cfa_register 7
ARM GAS  /var/folders/vq/qt4vp3kd5rxf7v2b6_fdtdt80000gn/T//ccs5IouC.s 			page 67


 2203 0006 7860     		str	r0, [r7, #4]
 2204 0008 0B46     		mov	r3, r1
 2205 000a FB70     		strb	r3, [r7, #3]
1572:Drivers/STM32F4xx_HAL_Driver/Src/stm32f4xx_hal_pcd.c ****   /* Prevent unused argument(s) compilation warning */
1573:Drivers/STM32F4xx_HAL_Driver/Src/stm32f4xx_hal_pcd.c ****   UNUSED(hpcd);
1574:Drivers/STM32F4xx_HAL_Driver/Src/stm32f4xx_hal_pcd.c ****   UNUSED(epnum);
1575:Drivers/STM32F4xx_HAL_Driver/Src/stm32f4xx_hal_pcd.c **** 
1576:Drivers/STM32F4xx_HAL_Driver/Src/stm32f4xx_hal_pcd.c ****   /* NOTE : This function should not be modified, when the callback is needed,
1577:Drivers/STM32F4xx_HAL_Driver/Src/stm32f4xx_hal_pcd.c ****             the HAL_PCD_ISOOUTIncompleteCallback could be implemented in the user file
1578:Drivers/STM32F4xx_HAL_Driver/Src/stm32f4xx_hal_pcd.c ****    */
1579:Drivers/STM32F4xx_HAL_Driver/Src/stm32f4xx_hal_pcd.c **** }
 2206              		.loc 1 1579 1
 2207 000c 00BF     		nop
 2208 000e 0C37     		adds	r7, r7, #12
 2209              	.LCFI88:
 2210              		.cfi_def_cfa_offset 4
 2211 0010 BD46     		mov	sp, r7
 2212              	.LCFI89:
 2213              		.cfi_def_cfa_register 13
 2214              		@ sp needed
 2215 0012 5DF8047B 		ldr	r7, [sp], #4
 2216              	.LCFI90:
 2217              		.cfi_restore 7
 2218              		.cfi_def_cfa_offset 0
 2219 0016 7047     		bx	lr
 2220              		.cfi_endproc
 2221              	.LFE145:
 2223              		.section	.text.HAL_PCD_ISOINIncompleteCallback,"ax",%progbits
 2224              		.align	1
 2225              		.weak	HAL_PCD_ISOINIncompleteCallback
 2226              		.syntax unified
 2227              		.thumb
 2228              		.thumb_func
 2229              		.fpu fpv4-sp-d16
 2231              	HAL_PCD_ISOINIncompleteCallback:
 2232              	.LFB146:
1580:Drivers/STM32F4xx_HAL_Driver/Src/stm32f4xx_hal_pcd.c **** 
1581:Drivers/STM32F4xx_HAL_Driver/Src/stm32f4xx_hal_pcd.c **** /**
1582:Drivers/STM32F4xx_HAL_Driver/Src/stm32f4xx_hal_pcd.c ****   * @brief  Incomplete ISO IN callback.
1583:Drivers/STM32F4xx_HAL_Driver/Src/stm32f4xx_hal_pcd.c ****   * @param  hpcd PCD handle
1584:Drivers/STM32F4xx_HAL_Driver/Src/stm32f4xx_hal_pcd.c ****   * @param  epnum endpoint number
1585:Drivers/STM32F4xx_HAL_Driver/Src/stm32f4xx_hal_pcd.c ****   * @retval None
1586:Drivers/STM32F4xx_HAL_Driver/Src/stm32f4xx_hal_pcd.c ****   */
1587:Drivers/STM32F4xx_HAL_Driver/Src/stm32f4xx_hal_pcd.c **** __weak void HAL_PCD_ISOINIncompleteCallback(PCD_HandleTypeDef *hpcd, uint8_t epnum)
1588:Drivers/STM32F4xx_HAL_Driver/Src/stm32f4xx_hal_pcd.c **** {
 2233              		.loc 1 1588 1
 2234              		.cfi_startproc
 2235              		@ args = 0, pretend = 0, frame = 8
 2236              		@ frame_needed = 1, uses_anonymous_args = 0
 2237              		@ link register save eliminated.
 2238 0000 80B4     		push	{r7}
 2239              	.LCFI91:
 2240              		.cfi_def_cfa_offset 4
 2241              		.cfi_offset 7, -4
 2242 0002 83B0     		sub	sp, sp, #12
 2243              	.LCFI92:
 2244              		.cfi_def_cfa_offset 16
ARM GAS  /var/folders/vq/qt4vp3kd5rxf7v2b6_fdtdt80000gn/T//ccs5IouC.s 			page 68


 2245 0004 00AF     		add	r7, sp, #0
 2246              	.LCFI93:
 2247              		.cfi_def_cfa_register 7
 2248 0006 7860     		str	r0, [r7, #4]
 2249 0008 0B46     		mov	r3, r1
 2250 000a FB70     		strb	r3, [r7, #3]
1589:Drivers/STM32F4xx_HAL_Driver/Src/stm32f4xx_hal_pcd.c ****   /* Prevent unused argument(s) compilation warning */
1590:Drivers/STM32F4xx_HAL_Driver/Src/stm32f4xx_hal_pcd.c ****   UNUSED(hpcd);
1591:Drivers/STM32F4xx_HAL_Driver/Src/stm32f4xx_hal_pcd.c ****   UNUSED(epnum);
1592:Drivers/STM32F4xx_HAL_Driver/Src/stm32f4xx_hal_pcd.c **** 
1593:Drivers/STM32F4xx_HAL_Driver/Src/stm32f4xx_hal_pcd.c ****   /* NOTE : This function should not be modified, when the callback is needed,
1594:Drivers/STM32F4xx_HAL_Driver/Src/stm32f4xx_hal_pcd.c ****             the HAL_PCD_ISOINIncompleteCallback could be implemented in the user file
1595:Drivers/STM32F4xx_HAL_Driver/Src/stm32f4xx_hal_pcd.c ****    */
1596:Drivers/STM32F4xx_HAL_Driver/Src/stm32f4xx_hal_pcd.c **** }
 2251              		.loc 1 1596 1
 2252 000c 00BF     		nop
 2253 000e 0C37     		adds	r7, r7, #12
 2254              	.LCFI94:
 2255              		.cfi_def_cfa_offset 4
 2256 0010 BD46     		mov	sp, r7
 2257              	.LCFI95:
 2258              		.cfi_def_cfa_register 13
 2259              		@ sp needed
 2260 0012 5DF8047B 		ldr	r7, [sp], #4
 2261              	.LCFI96:
 2262              		.cfi_restore 7
 2263              		.cfi_def_cfa_offset 0
 2264 0016 7047     		bx	lr
 2265              		.cfi_endproc
 2266              	.LFE146:
 2268              		.section	.text.HAL_PCD_ConnectCallback,"ax",%progbits
 2269              		.align	1
 2270              		.weak	HAL_PCD_ConnectCallback
 2271              		.syntax unified
 2272              		.thumb
 2273              		.thumb_func
 2274              		.fpu fpv4-sp-d16
 2276              	HAL_PCD_ConnectCallback:
 2277              	.LFB147:
1597:Drivers/STM32F4xx_HAL_Driver/Src/stm32f4xx_hal_pcd.c **** 
1598:Drivers/STM32F4xx_HAL_Driver/Src/stm32f4xx_hal_pcd.c **** /**
1599:Drivers/STM32F4xx_HAL_Driver/Src/stm32f4xx_hal_pcd.c ****   * @brief  Connection event callback.
1600:Drivers/STM32F4xx_HAL_Driver/Src/stm32f4xx_hal_pcd.c ****   * @param  hpcd PCD handle
1601:Drivers/STM32F4xx_HAL_Driver/Src/stm32f4xx_hal_pcd.c ****   * @retval None
1602:Drivers/STM32F4xx_HAL_Driver/Src/stm32f4xx_hal_pcd.c ****   */
1603:Drivers/STM32F4xx_HAL_Driver/Src/stm32f4xx_hal_pcd.c **** __weak void HAL_PCD_ConnectCallback(PCD_HandleTypeDef *hpcd)
1604:Drivers/STM32F4xx_HAL_Driver/Src/stm32f4xx_hal_pcd.c **** {
 2278              		.loc 1 1604 1
 2279              		.cfi_startproc
 2280              		@ args = 0, pretend = 0, frame = 8
 2281              		@ frame_needed = 1, uses_anonymous_args = 0
 2282              		@ link register save eliminated.
 2283 0000 80B4     		push	{r7}
 2284              	.LCFI97:
 2285              		.cfi_def_cfa_offset 4
 2286              		.cfi_offset 7, -4
 2287 0002 83B0     		sub	sp, sp, #12
ARM GAS  /var/folders/vq/qt4vp3kd5rxf7v2b6_fdtdt80000gn/T//ccs5IouC.s 			page 69


 2288              	.LCFI98:
 2289              		.cfi_def_cfa_offset 16
 2290 0004 00AF     		add	r7, sp, #0
 2291              	.LCFI99:
 2292              		.cfi_def_cfa_register 7
 2293 0006 7860     		str	r0, [r7, #4]
1605:Drivers/STM32F4xx_HAL_Driver/Src/stm32f4xx_hal_pcd.c ****   /* Prevent unused argument(s) compilation warning */
1606:Drivers/STM32F4xx_HAL_Driver/Src/stm32f4xx_hal_pcd.c ****   UNUSED(hpcd);
1607:Drivers/STM32F4xx_HAL_Driver/Src/stm32f4xx_hal_pcd.c **** 
1608:Drivers/STM32F4xx_HAL_Driver/Src/stm32f4xx_hal_pcd.c ****   /* NOTE : This function should not be modified, when the callback is needed,
1609:Drivers/STM32F4xx_HAL_Driver/Src/stm32f4xx_hal_pcd.c ****             the HAL_PCD_ConnectCallback could be implemented in the user file
1610:Drivers/STM32F4xx_HAL_Driver/Src/stm32f4xx_hal_pcd.c ****    */
1611:Drivers/STM32F4xx_HAL_Driver/Src/stm32f4xx_hal_pcd.c **** }
 2294              		.loc 1 1611 1
 2295 0008 00BF     		nop
 2296 000a 0C37     		adds	r7, r7, #12
 2297              	.LCFI100:
 2298              		.cfi_def_cfa_offset 4
 2299 000c BD46     		mov	sp, r7
 2300              	.LCFI101:
 2301              		.cfi_def_cfa_register 13
 2302              		@ sp needed
 2303 000e 5DF8047B 		ldr	r7, [sp], #4
 2304              	.LCFI102:
 2305              		.cfi_restore 7
 2306              		.cfi_def_cfa_offset 0
 2307 0012 7047     		bx	lr
 2308              		.cfi_endproc
 2309              	.LFE147:
 2311              		.section	.text.HAL_PCD_DisconnectCallback,"ax",%progbits
 2312              		.align	1
 2313              		.weak	HAL_PCD_DisconnectCallback
 2314              		.syntax unified
 2315              		.thumb
 2316              		.thumb_func
 2317              		.fpu fpv4-sp-d16
 2319              	HAL_PCD_DisconnectCallback:
 2320              	.LFB148:
1612:Drivers/STM32F4xx_HAL_Driver/Src/stm32f4xx_hal_pcd.c **** 
1613:Drivers/STM32F4xx_HAL_Driver/Src/stm32f4xx_hal_pcd.c **** /**
1614:Drivers/STM32F4xx_HAL_Driver/Src/stm32f4xx_hal_pcd.c ****   * @brief  Disconnection event callback.
1615:Drivers/STM32F4xx_HAL_Driver/Src/stm32f4xx_hal_pcd.c ****   * @param  hpcd PCD handle
1616:Drivers/STM32F4xx_HAL_Driver/Src/stm32f4xx_hal_pcd.c ****   * @retval None
1617:Drivers/STM32F4xx_HAL_Driver/Src/stm32f4xx_hal_pcd.c ****   */
1618:Drivers/STM32F4xx_HAL_Driver/Src/stm32f4xx_hal_pcd.c **** __weak void HAL_PCD_DisconnectCallback(PCD_HandleTypeDef *hpcd)
1619:Drivers/STM32F4xx_HAL_Driver/Src/stm32f4xx_hal_pcd.c **** {
 2321              		.loc 1 1619 1
 2322              		.cfi_startproc
 2323              		@ args = 0, pretend = 0, frame = 8
 2324              		@ frame_needed = 1, uses_anonymous_args = 0
 2325              		@ link register save eliminated.
 2326 0000 80B4     		push	{r7}
 2327              	.LCFI103:
 2328              		.cfi_def_cfa_offset 4
 2329              		.cfi_offset 7, -4
 2330 0002 83B0     		sub	sp, sp, #12
 2331              	.LCFI104:
ARM GAS  /var/folders/vq/qt4vp3kd5rxf7v2b6_fdtdt80000gn/T//ccs5IouC.s 			page 70


 2332              		.cfi_def_cfa_offset 16
 2333 0004 00AF     		add	r7, sp, #0
 2334              	.LCFI105:
 2335              		.cfi_def_cfa_register 7
 2336 0006 7860     		str	r0, [r7, #4]
1620:Drivers/STM32F4xx_HAL_Driver/Src/stm32f4xx_hal_pcd.c ****   /* Prevent unused argument(s) compilation warning */
1621:Drivers/STM32F4xx_HAL_Driver/Src/stm32f4xx_hal_pcd.c ****   UNUSED(hpcd);
1622:Drivers/STM32F4xx_HAL_Driver/Src/stm32f4xx_hal_pcd.c **** 
1623:Drivers/STM32F4xx_HAL_Driver/Src/stm32f4xx_hal_pcd.c ****   /* NOTE : This function should not be modified, when the callback is needed,
1624:Drivers/STM32F4xx_HAL_Driver/Src/stm32f4xx_hal_pcd.c ****             the HAL_PCD_DisconnectCallback could be implemented in the user file
1625:Drivers/STM32F4xx_HAL_Driver/Src/stm32f4xx_hal_pcd.c ****    */
1626:Drivers/STM32F4xx_HAL_Driver/Src/stm32f4xx_hal_pcd.c **** }
 2337              		.loc 1 1626 1
 2338 0008 00BF     		nop
 2339 000a 0C37     		adds	r7, r7, #12
 2340              	.LCFI106:
 2341              		.cfi_def_cfa_offset 4
 2342 000c BD46     		mov	sp, r7
 2343              	.LCFI107:
 2344              		.cfi_def_cfa_register 13
 2345              		@ sp needed
 2346 000e 5DF8047B 		ldr	r7, [sp], #4
 2347              	.LCFI108:
 2348              		.cfi_restore 7
 2349              		.cfi_def_cfa_offset 0
 2350 0012 7047     		bx	lr
 2351              		.cfi_endproc
 2352              	.LFE148:
 2354              		.section	.text.HAL_PCD_DevConnect,"ax",%progbits
 2355              		.align	1
 2356              		.global	HAL_PCD_DevConnect
 2357              		.syntax unified
 2358              		.thumb
 2359              		.thumb_func
 2360              		.fpu fpv4-sp-d16
 2362              	HAL_PCD_DevConnect:
 2363              	.LFB149:
1627:Drivers/STM32F4xx_HAL_Driver/Src/stm32f4xx_hal_pcd.c **** 
1628:Drivers/STM32F4xx_HAL_Driver/Src/stm32f4xx_hal_pcd.c **** /**
1629:Drivers/STM32F4xx_HAL_Driver/Src/stm32f4xx_hal_pcd.c ****   * @}
1630:Drivers/STM32F4xx_HAL_Driver/Src/stm32f4xx_hal_pcd.c ****   */
1631:Drivers/STM32F4xx_HAL_Driver/Src/stm32f4xx_hal_pcd.c **** 
1632:Drivers/STM32F4xx_HAL_Driver/Src/stm32f4xx_hal_pcd.c **** /** @defgroup PCD_Exported_Functions_Group3 Peripheral Control functions
1633:Drivers/STM32F4xx_HAL_Driver/Src/stm32f4xx_hal_pcd.c ****   *  @brief   management functions
1634:Drivers/STM32F4xx_HAL_Driver/Src/stm32f4xx_hal_pcd.c ****   *
1635:Drivers/STM32F4xx_HAL_Driver/Src/stm32f4xx_hal_pcd.c **** @verbatim
1636:Drivers/STM32F4xx_HAL_Driver/Src/stm32f4xx_hal_pcd.c ****  ===============================================================================
1637:Drivers/STM32F4xx_HAL_Driver/Src/stm32f4xx_hal_pcd.c ****                       ##### Peripheral Control functions #####
1638:Drivers/STM32F4xx_HAL_Driver/Src/stm32f4xx_hal_pcd.c ****  ===============================================================================
1639:Drivers/STM32F4xx_HAL_Driver/Src/stm32f4xx_hal_pcd.c ****     [..]
1640:Drivers/STM32F4xx_HAL_Driver/Src/stm32f4xx_hal_pcd.c ****     This subsection provides a set of functions allowing to control the PCD data
1641:Drivers/STM32F4xx_HAL_Driver/Src/stm32f4xx_hal_pcd.c ****     transfers.
1642:Drivers/STM32F4xx_HAL_Driver/Src/stm32f4xx_hal_pcd.c **** 
1643:Drivers/STM32F4xx_HAL_Driver/Src/stm32f4xx_hal_pcd.c **** @endverbatim
1644:Drivers/STM32F4xx_HAL_Driver/Src/stm32f4xx_hal_pcd.c ****   * @{
1645:Drivers/STM32F4xx_HAL_Driver/Src/stm32f4xx_hal_pcd.c ****   */
1646:Drivers/STM32F4xx_HAL_Driver/Src/stm32f4xx_hal_pcd.c **** 
ARM GAS  /var/folders/vq/qt4vp3kd5rxf7v2b6_fdtdt80000gn/T//ccs5IouC.s 			page 71


1647:Drivers/STM32F4xx_HAL_Driver/Src/stm32f4xx_hal_pcd.c **** /**
1648:Drivers/STM32F4xx_HAL_Driver/Src/stm32f4xx_hal_pcd.c ****   * @brief  Connect the USB device
1649:Drivers/STM32F4xx_HAL_Driver/Src/stm32f4xx_hal_pcd.c ****   * @param  hpcd PCD handle
1650:Drivers/STM32F4xx_HAL_Driver/Src/stm32f4xx_hal_pcd.c ****   * @retval HAL status
1651:Drivers/STM32F4xx_HAL_Driver/Src/stm32f4xx_hal_pcd.c ****   */
1652:Drivers/STM32F4xx_HAL_Driver/Src/stm32f4xx_hal_pcd.c **** HAL_StatusTypeDef HAL_PCD_DevConnect(PCD_HandleTypeDef *hpcd)
1653:Drivers/STM32F4xx_HAL_Driver/Src/stm32f4xx_hal_pcd.c **** {
 2364              		.loc 1 1653 1
 2365              		.cfi_startproc
 2366              		@ args = 0, pretend = 0, frame = 16
 2367              		@ frame_needed = 1, uses_anonymous_args = 0
 2368 0000 80B5     		push	{r7, lr}
 2369              	.LCFI109:
 2370              		.cfi_def_cfa_offset 8
 2371              		.cfi_offset 7, -8
 2372              		.cfi_offset 14, -4
 2373 0002 84B0     		sub	sp, sp, #16
 2374              	.LCFI110:
 2375              		.cfi_def_cfa_offset 24
 2376 0004 00AF     		add	r7, sp, #0
 2377              	.LCFI111:
 2378              		.cfi_def_cfa_register 7
 2379 0006 7860     		str	r0, [r7, #4]
1654:Drivers/STM32F4xx_HAL_Driver/Src/stm32f4xx_hal_pcd.c **** #if defined (USB_OTG_FS) || defined (USB_OTG_HS)
1655:Drivers/STM32F4xx_HAL_Driver/Src/stm32f4xx_hal_pcd.c ****   USB_OTG_GlobalTypeDef *USBx = hpcd->Instance;
 2380              		.loc 1 1655 26
 2381 0008 7B68     		ldr	r3, [r7, #4]
 2382 000a 1B68     		ldr	r3, [r3]
 2383 000c FB60     		str	r3, [r7, #12]
1656:Drivers/STM32F4xx_HAL_Driver/Src/stm32f4xx_hal_pcd.c **** #endif /* defined (USB_OTG_FS) || defined (USB_OTG_HS) */
1657:Drivers/STM32F4xx_HAL_Driver/Src/stm32f4xx_hal_pcd.c **** 
1658:Drivers/STM32F4xx_HAL_Driver/Src/stm32f4xx_hal_pcd.c ****   __HAL_LOCK(hpcd);
 2384              		.loc 1 1658 3
 2385 000e 7B68     		ldr	r3, [r7, #4]
 2386 0010 93F8BC33 		ldrb	r3, [r3, #956]	@ zero_extendqisi2
 2387 0014 012B     		cmp	r3, #1
 2388 0016 01D1     		bne	.L86
 2389              		.loc 1 1658 3 is_stmt 0 discriminator 1
 2390 0018 0223     		movs	r3, #2
 2391 001a 1BE0     		b	.L87
 2392              	.L86:
 2393              		.loc 1 1658 3 discriminator 2
 2394 001c 7B68     		ldr	r3, [r7, #4]
 2395 001e 0122     		movs	r2, #1
 2396 0020 83F8BC23 		strb	r2, [r3, #956]
1659:Drivers/STM32F4xx_HAL_Driver/Src/stm32f4xx_hal_pcd.c **** #if defined (USB_OTG_FS) || defined (USB_OTG_HS)
1660:Drivers/STM32F4xx_HAL_Driver/Src/stm32f4xx_hal_pcd.c ****   if ((hpcd->Init.battery_charging_enable == 1U) &&
 2397              		.loc 1 1660 18 is_stmt 1 discriminator 2
 2398 0024 7B68     		ldr	r3, [r7, #4]
 2399 0026 9B6A     		ldr	r3, [r3, #40]
 2400              		.loc 1 1660 6 discriminator 2
 2401 0028 012B     		cmp	r3, #1
 2402 002a 09D1     		bne	.L88
1661:Drivers/STM32F4xx_HAL_Driver/Src/stm32f4xx_hal_pcd.c ****       (hpcd->Init.phy_itface != USB_OTG_ULPI_PHY))
 2403              		.loc 1 1661 18 discriminator 1
 2404 002c 7B68     		ldr	r3, [r7, #4]
 2405 002e 9B69     		ldr	r3, [r3, #24]
ARM GAS  /var/folders/vq/qt4vp3kd5rxf7v2b6_fdtdt80000gn/T//ccs5IouC.s 			page 72


1660:Drivers/STM32F4xx_HAL_Driver/Src/stm32f4xx_hal_pcd.c ****       (hpcd->Init.phy_itface != USB_OTG_ULPI_PHY))
 2406              		.loc 1 1660 50 discriminator 1
 2407 0030 012B     		cmp	r3, #1
 2408 0032 05D0     		beq	.L88
1662:Drivers/STM32F4xx_HAL_Driver/Src/stm32f4xx_hal_pcd.c ****   {
1663:Drivers/STM32F4xx_HAL_Driver/Src/stm32f4xx_hal_pcd.c ****     /* Enable USB Transceiver */
1664:Drivers/STM32F4xx_HAL_Driver/Src/stm32f4xx_hal_pcd.c ****     USBx->GCCFG |= USB_OTG_GCCFG_PWRDWN;
 2409              		.loc 1 1664 17
 2410 0034 FB68     		ldr	r3, [r7, #12]
 2411 0036 9B6B     		ldr	r3, [r3, #56]
 2412 0038 43F48032 		orr	r2, r3, #65536
 2413 003c FB68     		ldr	r3, [r7, #12]
 2414 003e 9A63     		str	r2, [r3, #56]
 2415              	.L88:
1665:Drivers/STM32F4xx_HAL_Driver/Src/stm32f4xx_hal_pcd.c ****   }
1666:Drivers/STM32F4xx_HAL_Driver/Src/stm32f4xx_hal_pcd.c **** #endif /* defined (USB_OTG_FS) || defined (USB_OTG_HS) */
1667:Drivers/STM32F4xx_HAL_Driver/Src/stm32f4xx_hal_pcd.c ****   (void)USB_DevConnect(hpcd->Instance);
 2416              		.loc 1 1667 28
 2417 0040 7B68     		ldr	r3, [r7, #4]
 2418 0042 1B68     		ldr	r3, [r3]
 2419              		.loc 1 1667 9
 2420 0044 1846     		mov	r0, r3
 2421 0046 FFF7FEFF 		bl	USB_DevConnect
1668:Drivers/STM32F4xx_HAL_Driver/Src/stm32f4xx_hal_pcd.c ****   __HAL_UNLOCK(hpcd);
 2422              		.loc 1 1668 3
 2423 004a 7B68     		ldr	r3, [r7, #4]
 2424 004c 0022     		movs	r2, #0
 2425 004e 83F8BC23 		strb	r2, [r3, #956]
1669:Drivers/STM32F4xx_HAL_Driver/Src/stm32f4xx_hal_pcd.c **** 
1670:Drivers/STM32F4xx_HAL_Driver/Src/stm32f4xx_hal_pcd.c ****   return HAL_OK;
 2426              		.loc 1 1670 10
 2427 0052 0023     		movs	r3, #0
 2428              	.L87:
1671:Drivers/STM32F4xx_HAL_Driver/Src/stm32f4xx_hal_pcd.c **** }
 2429              		.loc 1 1671 1
 2430 0054 1846     		mov	r0, r3
 2431 0056 1037     		adds	r7, r7, #16
 2432              	.LCFI112:
 2433              		.cfi_def_cfa_offset 8
 2434 0058 BD46     		mov	sp, r7
 2435              	.LCFI113:
 2436              		.cfi_def_cfa_register 13
 2437              		@ sp needed
 2438 005a 80BD     		pop	{r7, pc}
 2439              		.cfi_endproc
 2440              	.LFE149:
 2442              		.section	.text.HAL_PCD_DevDisconnect,"ax",%progbits
 2443              		.align	1
 2444              		.global	HAL_PCD_DevDisconnect
 2445              		.syntax unified
 2446              		.thumb
 2447              		.thumb_func
 2448              		.fpu fpv4-sp-d16
 2450              	HAL_PCD_DevDisconnect:
 2451              	.LFB150:
1672:Drivers/STM32F4xx_HAL_Driver/Src/stm32f4xx_hal_pcd.c **** 
1673:Drivers/STM32F4xx_HAL_Driver/Src/stm32f4xx_hal_pcd.c **** /**
ARM GAS  /var/folders/vq/qt4vp3kd5rxf7v2b6_fdtdt80000gn/T//ccs5IouC.s 			page 73


1674:Drivers/STM32F4xx_HAL_Driver/Src/stm32f4xx_hal_pcd.c ****   * @brief  Disconnect the USB device.
1675:Drivers/STM32F4xx_HAL_Driver/Src/stm32f4xx_hal_pcd.c ****   * @param  hpcd PCD handle
