ARM GAS  /var/folders/vq/qt4vp3kd5rxf7v2b6_fdtdt80000gn/T//cc2roKPb.s 			page 1


   1              		.cpu cortex-m4
   2              		.eabi_attribute 27, 1
   3              		.eabi_attribute 28, 1
   4              		.eabi_attribute 20, 1
   5              		.eabi_attribute 21, 1
   6              		.eabi_attribute 23, 3
   7              		.eabi_attribute 24, 1
   8              		.eabi_attribute 25, 1
   9              		.eabi_attribute 26, 1
  10              		.eabi_attribute 30, 6
  11              		.eabi_attribute 34, 1
  12              		.eabi_attribute 18, 4
  13              		.file	"stm32f4xx_hal.c"
  14              		.text
  15              	.Ltext0:
  16              		.cfi_sections	.debug_frame
  17              		.comm	uwTick,4,4
  18              		.global	uwTickPrio
  19              		.section	.data.uwTickPrio,"aw"
  20              		.align	2
  23              	uwTickPrio:
  24 0000 10000000 		.word	16
  25              		.global	uwTickFreq
  26              		.section	.data.uwTickFreq,"aw"
  29              	uwTickFreq:
  30 0000 01       		.byte	1
  31              		.section	.text.HAL_Init,"ax",%progbits
  32              		.align	1
  33              		.global	HAL_Init
  34              		.arch armv7e-m
  35              		.syntax unified
  36              		.thumb
  37              		.thumb_func
  38              		.fpu fpv4-sp-d16
  40              	HAL_Init:
  41              	.LFB130:
  42              		.file 1 "Drivers/STM32F4xx_HAL_Driver/Src/stm32f4xx_hal.c"
   1:Drivers/STM32F4xx_HAL_Driver/Src/stm32f4xx_hal.c **** /**
   2:Drivers/STM32F4xx_HAL_Driver/Src/stm32f4xx_hal.c ****   ******************************************************************************
   3:Drivers/STM32F4xx_HAL_Driver/Src/stm32f4xx_hal.c ****   * @file    stm32f4xx_hal.c
   4:Drivers/STM32F4xx_HAL_Driver/Src/stm32f4xx_hal.c ****   * @author  MCD Application Team
   5:Drivers/STM32F4xx_HAL_Driver/Src/stm32f4xx_hal.c ****   * @brief   HAL module driver.
   6:Drivers/STM32F4xx_HAL_Driver/Src/stm32f4xx_hal.c ****   *          This is the common part of the HAL initialization
   7:Drivers/STM32F4xx_HAL_Driver/Src/stm32f4xx_hal.c ****   *
   8:Drivers/STM32F4xx_HAL_Driver/Src/stm32f4xx_hal.c ****   @verbatim
   9:Drivers/STM32F4xx_HAL_Driver/Src/stm32f4xx_hal.c ****   ==============================================================================
  10:Drivers/STM32F4xx_HAL_Driver/Src/stm32f4xx_hal.c ****                      ##### How to use this driver #####
  11:Drivers/STM32F4xx_HAL_Driver/Src/stm32f4xx_hal.c ****   ==============================================================================
  12:Drivers/STM32F4xx_HAL_Driver/Src/stm32f4xx_hal.c ****     [..]
  13:Drivers/STM32F4xx_HAL_Driver/Src/stm32f4xx_hal.c ****     The common HAL driver contains a set of generic and common APIs that can be
  14:Drivers/STM32F4xx_HAL_Driver/Src/stm32f4xx_hal.c ****     used by the PPP peripheral drivers and the user to start using the HAL. 
  15:Drivers/STM32F4xx_HAL_Driver/Src/stm32f4xx_hal.c ****     [..]
  16:Drivers/STM32F4xx_HAL_Driver/Src/stm32f4xx_hal.c ****     The HAL contains two APIs' categories: 
  17:Drivers/STM32F4xx_HAL_Driver/Src/stm32f4xx_hal.c ****          (+) Common HAL APIs
  18:Drivers/STM32F4xx_HAL_Driver/Src/stm32f4xx_hal.c ****          (+) Services HAL APIs
  19:Drivers/STM32F4xx_HAL_Driver/Src/stm32f4xx_hal.c **** 
  20:Drivers/STM32F4xx_HAL_Driver/Src/stm32f4xx_hal.c ****   @endverbatim
ARM GAS  /var/folders/vq/qt4vp3kd5rxf7v2b6_fdtdt80000gn/T//cc2roKPb.s 			page 2


  21:Drivers/STM32F4xx_HAL_Driver/Src/stm32f4xx_hal.c ****   ******************************************************************************
  22:Drivers/STM32F4xx_HAL_Driver/Src/stm32f4xx_hal.c ****   * @attention
  23:Drivers/STM32F4xx_HAL_Driver/Src/stm32f4xx_hal.c ****   *
  24:Drivers/STM32F4xx_HAL_Driver/Src/stm32f4xx_hal.c ****   * <h2><center>&copy; Copyright (c) 2017 STMicroelectronics.
  25:Drivers/STM32F4xx_HAL_Driver/Src/stm32f4xx_hal.c ****   * All rights reserved.</center></h2>
  26:Drivers/STM32F4xx_HAL_Driver/Src/stm32f4xx_hal.c ****   *
  27:Drivers/STM32F4xx_HAL_Driver/Src/stm32f4xx_hal.c ****   * This software component is licensed by ST under BSD 3-Clause license,
  28:Drivers/STM32F4xx_HAL_Driver/Src/stm32f4xx_hal.c ****   * the "License"; You may not use this file except in compliance with the
  29:Drivers/STM32F4xx_HAL_Driver/Src/stm32f4xx_hal.c ****   * License. You may obtain a copy of the License at:
  30:Drivers/STM32F4xx_HAL_Driver/Src/stm32f4xx_hal.c ****   *                        opensource.org/licenses/BSD-3-Clause
  31:Drivers/STM32F4xx_HAL_Driver/Src/stm32f4xx_hal.c ****   *
  32:Drivers/STM32F4xx_HAL_Driver/Src/stm32f4xx_hal.c ****   ******************************************************************************
  33:Drivers/STM32F4xx_HAL_Driver/Src/stm32f4xx_hal.c ****   */ 
  34:Drivers/STM32F4xx_HAL_Driver/Src/stm32f4xx_hal.c **** 
  35:Drivers/STM32F4xx_HAL_Driver/Src/stm32f4xx_hal.c **** /* Includes ------------------------------------------------------------------*/
  36:Drivers/STM32F4xx_HAL_Driver/Src/stm32f4xx_hal.c **** #include "stm32f4xx_hal.h"
  37:Drivers/STM32F4xx_HAL_Driver/Src/stm32f4xx_hal.c **** 
  38:Drivers/STM32F4xx_HAL_Driver/Src/stm32f4xx_hal.c **** /** @addtogroup STM32F4xx_HAL_Driver
  39:Drivers/STM32F4xx_HAL_Driver/Src/stm32f4xx_hal.c ****   * @{
  40:Drivers/STM32F4xx_HAL_Driver/Src/stm32f4xx_hal.c ****   */
  41:Drivers/STM32F4xx_HAL_Driver/Src/stm32f4xx_hal.c **** 
  42:Drivers/STM32F4xx_HAL_Driver/Src/stm32f4xx_hal.c **** /** @defgroup HAL HAL
  43:Drivers/STM32F4xx_HAL_Driver/Src/stm32f4xx_hal.c ****   * @brief HAL module driver.
  44:Drivers/STM32F4xx_HAL_Driver/Src/stm32f4xx_hal.c ****   * @{
  45:Drivers/STM32F4xx_HAL_Driver/Src/stm32f4xx_hal.c ****   */
  46:Drivers/STM32F4xx_HAL_Driver/Src/stm32f4xx_hal.c **** 
  47:Drivers/STM32F4xx_HAL_Driver/Src/stm32f4xx_hal.c **** /* Private typedef -----------------------------------------------------------*/
  48:Drivers/STM32F4xx_HAL_Driver/Src/stm32f4xx_hal.c **** /* Private define ------------------------------------------------------------*/
  49:Drivers/STM32F4xx_HAL_Driver/Src/stm32f4xx_hal.c **** /** @addtogroup HAL_Private_Constants
  50:Drivers/STM32F4xx_HAL_Driver/Src/stm32f4xx_hal.c ****   * @{
  51:Drivers/STM32F4xx_HAL_Driver/Src/stm32f4xx_hal.c ****   */
  52:Drivers/STM32F4xx_HAL_Driver/Src/stm32f4xx_hal.c **** /**
  53:Drivers/STM32F4xx_HAL_Driver/Src/stm32f4xx_hal.c ****   * @brief STM32F4xx HAL Driver version number V1.7.12
  54:Drivers/STM32F4xx_HAL_Driver/Src/stm32f4xx_hal.c ****   */
  55:Drivers/STM32F4xx_HAL_Driver/Src/stm32f4xx_hal.c **** #define __STM32F4xx_HAL_VERSION_MAIN   (0x01U) /*!< [31:24] main version */
  56:Drivers/STM32F4xx_HAL_Driver/Src/stm32f4xx_hal.c **** #define __STM32F4xx_HAL_VERSION_SUB1   (0x07U) /*!< [23:16] sub1 version */
  57:Drivers/STM32F4xx_HAL_Driver/Src/stm32f4xx_hal.c **** #define __STM32F4xx_HAL_VERSION_SUB2   (0x0CU) /*!< [15:8]  sub2 version */
  58:Drivers/STM32F4xx_HAL_Driver/Src/stm32f4xx_hal.c **** #define __STM32F4xx_HAL_VERSION_RC     (0x00U) /*!< [7:0]  release candidate */ 
  59:Drivers/STM32F4xx_HAL_Driver/Src/stm32f4xx_hal.c **** #define __STM32F4xx_HAL_VERSION         ((__STM32F4xx_HAL_VERSION_MAIN << 24U)\
  60:Drivers/STM32F4xx_HAL_Driver/Src/stm32f4xx_hal.c ****                                         |(__STM32F4xx_HAL_VERSION_SUB1 << 16U)\
  61:Drivers/STM32F4xx_HAL_Driver/Src/stm32f4xx_hal.c ****                                         |(__STM32F4xx_HAL_VERSION_SUB2 << 8U )\
  62:Drivers/STM32F4xx_HAL_Driver/Src/stm32f4xx_hal.c ****                                         |(__STM32F4xx_HAL_VERSION_RC))
  63:Drivers/STM32F4xx_HAL_Driver/Src/stm32f4xx_hal.c ****                                         
  64:Drivers/STM32F4xx_HAL_Driver/Src/stm32f4xx_hal.c **** #define IDCODE_DEVID_MASK    0x00000FFFU
  65:Drivers/STM32F4xx_HAL_Driver/Src/stm32f4xx_hal.c **** 
  66:Drivers/STM32F4xx_HAL_Driver/Src/stm32f4xx_hal.c **** /* ------------ RCC registers bit address in the alias region ----------- */
  67:Drivers/STM32F4xx_HAL_Driver/Src/stm32f4xx_hal.c **** #define SYSCFG_OFFSET             (SYSCFG_BASE - PERIPH_BASE)
  68:Drivers/STM32F4xx_HAL_Driver/Src/stm32f4xx_hal.c **** /* ---  MEMRMP Register ---*/ 
  69:Drivers/STM32F4xx_HAL_Driver/Src/stm32f4xx_hal.c **** /* Alias word address of UFB_MODE bit */ 
  70:Drivers/STM32F4xx_HAL_Driver/Src/stm32f4xx_hal.c **** #define MEMRMP_OFFSET             SYSCFG_OFFSET 
  71:Drivers/STM32F4xx_HAL_Driver/Src/stm32f4xx_hal.c **** #define UFB_MODE_BIT_NUMBER       SYSCFG_MEMRMP_UFB_MODE_Pos
  72:Drivers/STM32F4xx_HAL_Driver/Src/stm32f4xx_hal.c **** #define UFB_MODE_BB               (uint32_t)(PERIPH_BB_BASE + (MEMRMP_OFFSET * 32U) + (UFB_MODE_BIT
  73:Drivers/STM32F4xx_HAL_Driver/Src/stm32f4xx_hal.c **** 
  74:Drivers/STM32F4xx_HAL_Driver/Src/stm32f4xx_hal.c **** /* ---  CMPCR Register ---*/ 
  75:Drivers/STM32F4xx_HAL_Driver/Src/stm32f4xx_hal.c **** /* Alias word address of CMP_PD bit */ 
  76:Drivers/STM32F4xx_HAL_Driver/Src/stm32f4xx_hal.c **** #define CMPCR_OFFSET              (SYSCFG_OFFSET + 0x20U) 
  77:Drivers/STM32F4xx_HAL_Driver/Src/stm32f4xx_hal.c **** #define CMP_PD_BIT_NUMBER         SYSCFG_CMPCR_CMP_PD_Pos
ARM GAS  /var/folders/vq/qt4vp3kd5rxf7v2b6_fdtdt80000gn/T//cc2roKPb.s 			page 3


  78:Drivers/STM32F4xx_HAL_Driver/Src/stm32f4xx_hal.c **** #define CMPCR_CMP_PD_BB           (uint32_t)(PERIPH_BB_BASE + (CMPCR_OFFSET * 32U) + (CMP_PD_BIT_NU
  79:Drivers/STM32F4xx_HAL_Driver/Src/stm32f4xx_hal.c **** 
  80:Drivers/STM32F4xx_HAL_Driver/Src/stm32f4xx_hal.c **** /* ---  MCHDLYCR Register ---*/ 
  81:Drivers/STM32F4xx_HAL_Driver/Src/stm32f4xx_hal.c **** /* Alias word address of BSCKSEL bit */ 
  82:Drivers/STM32F4xx_HAL_Driver/Src/stm32f4xx_hal.c **** #define MCHDLYCR_OFFSET            (SYSCFG_OFFSET + 0x30U) 
  83:Drivers/STM32F4xx_HAL_Driver/Src/stm32f4xx_hal.c **** #define BSCKSEL_BIT_NUMBER         SYSCFG_MCHDLYCR_BSCKSEL_Pos
  84:Drivers/STM32F4xx_HAL_Driver/Src/stm32f4xx_hal.c **** #define MCHDLYCR_BSCKSEL_BB        (uint32_t)(PERIPH_BB_BASE + (MCHDLYCR_OFFSET * 32U) + (BSCKSEL_B
  85:Drivers/STM32F4xx_HAL_Driver/Src/stm32f4xx_hal.c **** /**
  86:Drivers/STM32F4xx_HAL_Driver/Src/stm32f4xx_hal.c ****   * @}
  87:Drivers/STM32F4xx_HAL_Driver/Src/stm32f4xx_hal.c ****   */
  88:Drivers/STM32F4xx_HAL_Driver/Src/stm32f4xx_hal.c **** 
  89:Drivers/STM32F4xx_HAL_Driver/Src/stm32f4xx_hal.c **** /* Private macro -------------------------------------------------------------*/
  90:Drivers/STM32F4xx_HAL_Driver/Src/stm32f4xx_hal.c **** /* Private variables ---------------------------------------------------------*/
  91:Drivers/STM32F4xx_HAL_Driver/Src/stm32f4xx_hal.c **** /** @addtogroup HAL_Private_Variables
  92:Drivers/STM32F4xx_HAL_Driver/Src/stm32f4xx_hal.c ****   * @{
  93:Drivers/STM32F4xx_HAL_Driver/Src/stm32f4xx_hal.c ****   */
  94:Drivers/STM32F4xx_HAL_Driver/Src/stm32f4xx_hal.c **** __IO uint32_t uwTick;
  95:Drivers/STM32F4xx_HAL_Driver/Src/stm32f4xx_hal.c **** uint32_t uwTickPrio   = (1UL << __NVIC_PRIO_BITS); /* Invalid PRIO */
  96:Drivers/STM32F4xx_HAL_Driver/Src/stm32f4xx_hal.c **** HAL_TickFreqTypeDef uwTickFreq = HAL_TICK_FREQ_DEFAULT;  /* 1KHz */
  97:Drivers/STM32F4xx_HAL_Driver/Src/stm32f4xx_hal.c **** /**
  98:Drivers/STM32F4xx_HAL_Driver/Src/stm32f4xx_hal.c ****   * @}
  99:Drivers/STM32F4xx_HAL_Driver/Src/stm32f4xx_hal.c ****   */
 100:Drivers/STM32F4xx_HAL_Driver/Src/stm32f4xx_hal.c **** /* Private function prototypes -----------------------------------------------*/
 101:Drivers/STM32F4xx_HAL_Driver/Src/stm32f4xx_hal.c **** /* Private functions ---------------------------------------------------------*/
 102:Drivers/STM32F4xx_HAL_Driver/Src/stm32f4xx_hal.c **** 
 103:Drivers/STM32F4xx_HAL_Driver/Src/stm32f4xx_hal.c **** /** @defgroup HAL_Exported_Functions HAL Exported Functions
 104:Drivers/STM32F4xx_HAL_Driver/Src/stm32f4xx_hal.c ****   * @{
 105:Drivers/STM32F4xx_HAL_Driver/Src/stm32f4xx_hal.c ****   */
 106:Drivers/STM32F4xx_HAL_Driver/Src/stm32f4xx_hal.c **** 
 107:Drivers/STM32F4xx_HAL_Driver/Src/stm32f4xx_hal.c **** /** @defgroup HAL_Exported_Functions_Group1 Initialization and de-initialization Functions 
 108:Drivers/STM32F4xx_HAL_Driver/Src/stm32f4xx_hal.c ****  *  @brief    Initialization and de-initialization functions
 109:Drivers/STM32F4xx_HAL_Driver/Src/stm32f4xx_hal.c ****  *
 110:Drivers/STM32F4xx_HAL_Driver/Src/stm32f4xx_hal.c **** @verbatim    
 111:Drivers/STM32F4xx_HAL_Driver/Src/stm32f4xx_hal.c ****  ===============================================================================
 112:Drivers/STM32F4xx_HAL_Driver/Src/stm32f4xx_hal.c ****               ##### Initialization and Configuration functions #####
 113:Drivers/STM32F4xx_HAL_Driver/Src/stm32f4xx_hal.c ****  ===============================================================================
 114:Drivers/STM32F4xx_HAL_Driver/Src/stm32f4xx_hal.c ****     [..]  This section provides functions allowing to:
 115:Drivers/STM32F4xx_HAL_Driver/Src/stm32f4xx_hal.c ****       (+) Initializes the Flash interface the NVIC allocation and initial clock 
 116:Drivers/STM32F4xx_HAL_Driver/Src/stm32f4xx_hal.c ****           configuration. It initializes the systick also when timeout is needed 
 117:Drivers/STM32F4xx_HAL_Driver/Src/stm32f4xx_hal.c ****           and the backup domain when enabled.
 118:Drivers/STM32F4xx_HAL_Driver/Src/stm32f4xx_hal.c ****       (+) De-Initializes common part of the HAL.
 119:Drivers/STM32F4xx_HAL_Driver/Src/stm32f4xx_hal.c ****       (+) Configure the time base source to have 1ms time base with a dedicated 
 120:Drivers/STM32F4xx_HAL_Driver/Src/stm32f4xx_hal.c ****           Tick interrupt priority. 
 121:Drivers/STM32F4xx_HAL_Driver/Src/stm32f4xx_hal.c ****         (++) SysTick timer is used by default as source of time base, but user
 122:Drivers/STM32F4xx_HAL_Driver/Src/stm32f4xx_hal.c ****              can eventually implement his proper time base source (a general purpose 
 123:Drivers/STM32F4xx_HAL_Driver/Src/stm32f4xx_hal.c ****              timer for example or other time source), keeping in mind that Time base 
 124:Drivers/STM32F4xx_HAL_Driver/Src/stm32f4xx_hal.c ****              duration should be kept 1ms since PPP_TIMEOUT_VALUEs are defined and 
 125:Drivers/STM32F4xx_HAL_Driver/Src/stm32f4xx_hal.c ****              handled in milliseconds basis.
 126:Drivers/STM32F4xx_HAL_Driver/Src/stm32f4xx_hal.c ****         (++) Time base configuration function (HAL_InitTick ()) is called automatically 
 127:Drivers/STM32F4xx_HAL_Driver/Src/stm32f4xx_hal.c ****              at the beginning of the program after reset by HAL_Init() or at any time 
 128:Drivers/STM32F4xx_HAL_Driver/Src/stm32f4xx_hal.c ****              when clock is configured, by HAL_RCC_ClockConfig(). 
 129:Drivers/STM32F4xx_HAL_Driver/Src/stm32f4xx_hal.c ****         (++) Source of time base is configured  to generate interrupts at regular 
 130:Drivers/STM32F4xx_HAL_Driver/Src/stm32f4xx_hal.c ****              time intervals. Care must be taken if HAL_Delay() is called from a 
 131:Drivers/STM32F4xx_HAL_Driver/Src/stm32f4xx_hal.c ****              peripheral ISR process, the Tick interrupt line must have higher priority 
 132:Drivers/STM32F4xx_HAL_Driver/Src/stm32f4xx_hal.c ****             (numerically lower) than the peripheral interrupt. Otherwise the caller 
 133:Drivers/STM32F4xx_HAL_Driver/Src/stm32f4xx_hal.c ****             ISR process will be blocked. 
 134:Drivers/STM32F4xx_HAL_Driver/Src/stm32f4xx_hal.c ****        (++) functions affecting time base configurations are declared as __weak  
ARM GAS  /var/folders/vq/qt4vp3kd5rxf7v2b6_fdtdt80000gn/T//cc2roKPb.s 			page 4


 135:Drivers/STM32F4xx_HAL_Driver/Src/stm32f4xx_hal.c ****              to make  override possible  in case of other  implementations in user file.
 136:Drivers/STM32F4xx_HAL_Driver/Src/stm32f4xx_hal.c **** @endverbatim
 137:Drivers/STM32F4xx_HAL_Driver/Src/stm32f4xx_hal.c ****   * @{
 138:Drivers/STM32F4xx_HAL_Driver/Src/stm32f4xx_hal.c ****   */
 139:Drivers/STM32F4xx_HAL_Driver/Src/stm32f4xx_hal.c **** 
 140:Drivers/STM32F4xx_HAL_Driver/Src/stm32f4xx_hal.c **** /**
 141:Drivers/STM32F4xx_HAL_Driver/Src/stm32f4xx_hal.c ****   * @brief  This function is used to initialize the HAL Library; it must be the first 
 142:Drivers/STM32F4xx_HAL_Driver/Src/stm32f4xx_hal.c ****   *         instruction to be executed in the main program (before to call any other
 143:Drivers/STM32F4xx_HAL_Driver/Src/stm32f4xx_hal.c ****   *         HAL function), it performs the following:
 144:Drivers/STM32F4xx_HAL_Driver/Src/stm32f4xx_hal.c ****   *           Configure the Flash prefetch, instruction and Data caches.
 145:Drivers/STM32F4xx_HAL_Driver/Src/stm32f4xx_hal.c ****   *           Configures the SysTick to generate an interrupt each 1 millisecond,
 146:Drivers/STM32F4xx_HAL_Driver/Src/stm32f4xx_hal.c ****   *           which is clocked by the HSI (at this stage, the clock is not yet
 147:Drivers/STM32F4xx_HAL_Driver/Src/stm32f4xx_hal.c ****   *           configured and thus the system is running from the internal HSI at 16 MHz).
 148:Drivers/STM32F4xx_HAL_Driver/Src/stm32f4xx_hal.c ****   *           Set NVIC Group Priority to 4.
 149:Drivers/STM32F4xx_HAL_Driver/Src/stm32f4xx_hal.c ****   *           Calls the HAL_MspInit() callback function defined in user file 
 150:Drivers/STM32F4xx_HAL_Driver/Src/stm32f4xx_hal.c ****   *           "stm32f4xx_hal_msp.c" to do the global low level hardware initialization 
 151:Drivers/STM32F4xx_HAL_Driver/Src/stm32f4xx_hal.c ****   *            
 152:Drivers/STM32F4xx_HAL_Driver/Src/stm32f4xx_hal.c ****   * @note   SysTick is used as time base for the HAL_Delay() function, the application
 153:Drivers/STM32F4xx_HAL_Driver/Src/stm32f4xx_hal.c ****   *         need to ensure that the SysTick time base is always set to 1 millisecond
 154:Drivers/STM32F4xx_HAL_Driver/Src/stm32f4xx_hal.c ****   *         to have correct HAL operation.
 155:Drivers/STM32F4xx_HAL_Driver/Src/stm32f4xx_hal.c ****   * @retval HAL status
 156:Drivers/STM32F4xx_HAL_Driver/Src/stm32f4xx_hal.c ****   */
 157:Drivers/STM32F4xx_HAL_Driver/Src/stm32f4xx_hal.c **** HAL_StatusTypeDef HAL_Init(void)
 158:Drivers/STM32F4xx_HAL_Driver/Src/stm32f4xx_hal.c **** {
  43              		.loc 1 158 1
  44              		.cfi_startproc
  45              		@ args = 0, pretend = 0, frame = 0
  46              		@ frame_needed = 1, uses_anonymous_args = 0
  47 0000 80B5     		push	{r7, lr}
  48              	.LCFI0:
  49              		.cfi_def_cfa_offset 8
  50              		.cfi_offset 7, -8
  51              		.cfi_offset 14, -4
  52 0002 00AF     		add	r7, sp, #0
  53              	.LCFI1:
  54              		.cfi_def_cfa_register 7
 159:Drivers/STM32F4xx_HAL_Driver/Src/stm32f4xx_hal.c ****   /* Configure Flash prefetch, Instruction cache, Data cache */ 
 160:Drivers/STM32F4xx_HAL_Driver/Src/stm32f4xx_hal.c **** #if (INSTRUCTION_CACHE_ENABLE != 0U)
 161:Drivers/STM32F4xx_HAL_Driver/Src/stm32f4xx_hal.c ****   __HAL_FLASH_INSTRUCTION_CACHE_ENABLE();
  55              		.loc 1 161 3
  56 0004 0E4B     		ldr	r3, .L3
  57 0006 1B68     		ldr	r3, [r3]
  58 0008 0D4A     		ldr	r2, .L3
  59 000a 43F40073 		orr	r3, r3, #512
  60 000e 1360     		str	r3, [r2]
 162:Drivers/STM32F4xx_HAL_Driver/Src/stm32f4xx_hal.c **** #endif /* INSTRUCTION_CACHE_ENABLE */
 163:Drivers/STM32F4xx_HAL_Driver/Src/stm32f4xx_hal.c **** 
 164:Drivers/STM32F4xx_HAL_Driver/Src/stm32f4xx_hal.c **** #if (DATA_CACHE_ENABLE != 0U)
 165:Drivers/STM32F4xx_HAL_Driver/Src/stm32f4xx_hal.c ****   __HAL_FLASH_DATA_CACHE_ENABLE();
  61              		.loc 1 165 3
  62 0010 0B4B     		ldr	r3, .L3
  63 0012 1B68     		ldr	r3, [r3]
  64 0014 0A4A     		ldr	r2, .L3
  65 0016 43F48063 		orr	r3, r3, #1024
  66 001a 1360     		str	r3, [r2]
 166:Drivers/STM32F4xx_HAL_Driver/Src/stm32f4xx_hal.c **** #endif /* DATA_CACHE_ENABLE */
 167:Drivers/STM32F4xx_HAL_Driver/Src/stm32f4xx_hal.c **** 
ARM GAS  /var/folders/vq/qt4vp3kd5rxf7v2b6_fdtdt80000gn/T//cc2roKPb.s 			page 5


 168:Drivers/STM32F4xx_HAL_Driver/Src/stm32f4xx_hal.c **** #if (PREFETCH_ENABLE != 0U)
 169:Drivers/STM32F4xx_HAL_Driver/Src/stm32f4xx_hal.c ****   __HAL_FLASH_PREFETCH_BUFFER_ENABLE();
  67              		.loc 1 169 3
  68 001c 084B     		ldr	r3, .L3
  69 001e 1B68     		ldr	r3, [r3]
  70 0020 074A     		ldr	r2, .L3
  71 0022 43F48073 		orr	r3, r3, #256
  72 0026 1360     		str	r3, [r2]
 170:Drivers/STM32F4xx_HAL_Driver/Src/stm32f4xx_hal.c **** #endif /* PREFETCH_ENABLE */
 171:Drivers/STM32F4xx_HAL_Driver/Src/stm32f4xx_hal.c **** 
 172:Drivers/STM32F4xx_HAL_Driver/Src/stm32f4xx_hal.c ****   /* Set Interrupt Group Priority */
 173:Drivers/STM32F4xx_HAL_Driver/Src/stm32f4xx_hal.c ****   HAL_NVIC_SetPriorityGrouping(NVIC_PRIORITYGROUP_4);
  73              		.loc 1 173 3
  74 0028 0320     		movs	r0, #3
  75 002a FFF7FEFF 		bl	HAL_NVIC_SetPriorityGrouping
 174:Drivers/STM32F4xx_HAL_Driver/Src/stm32f4xx_hal.c **** 
 175:Drivers/STM32F4xx_HAL_Driver/Src/stm32f4xx_hal.c ****   /* Use systick as time base source and configure 1ms tick (default clock after Reset is HSI) */
 176:Drivers/STM32F4xx_HAL_Driver/Src/stm32f4xx_hal.c ****   HAL_InitTick(TICK_INT_PRIORITY);
  76              		.loc 1 176 3
  77 002e 0020     		movs	r0, #0
  78 0030 FFF7FEFF 		bl	HAL_InitTick
 177:Drivers/STM32F4xx_HAL_Driver/Src/stm32f4xx_hal.c **** 
 178:Drivers/STM32F4xx_HAL_Driver/Src/stm32f4xx_hal.c ****   /* Init the low level hardware */
 179:Drivers/STM32F4xx_HAL_Driver/Src/stm32f4xx_hal.c ****   HAL_MspInit();
  79              		.loc 1 179 3
  80 0034 FFF7FEFF 		bl	HAL_MspInit
 180:Drivers/STM32F4xx_HAL_Driver/Src/stm32f4xx_hal.c **** 
 181:Drivers/STM32F4xx_HAL_Driver/Src/stm32f4xx_hal.c ****   /* Return function status */
 182:Drivers/STM32F4xx_HAL_Driver/Src/stm32f4xx_hal.c ****   return HAL_OK;
  81              		.loc 1 182 10
  82 0038 0023     		movs	r3, #0
 183:Drivers/STM32F4xx_HAL_Driver/Src/stm32f4xx_hal.c **** }
  83              		.loc 1 183 1
  84 003a 1846     		mov	r0, r3
  85 003c 80BD     		pop	{r7, pc}
  86              	.L4:
  87 003e 00BF     		.align	2
  88              	.L3:
  89 0040 003C0240 		.word	1073888256
  90              		.cfi_endproc
  91              	.LFE130:
  93              		.section	.text.HAL_DeInit,"ax",%progbits
  94              		.align	1
  95              		.global	HAL_DeInit
  96              		.syntax unified
  97              		.thumb
  98              		.thumb_func
  99              		.fpu fpv4-sp-d16
 101              	HAL_DeInit:
 102              	.LFB131:
 184:Drivers/STM32F4xx_HAL_Driver/Src/stm32f4xx_hal.c **** 
 185:Drivers/STM32F4xx_HAL_Driver/Src/stm32f4xx_hal.c **** /**
 186:Drivers/STM32F4xx_HAL_Driver/Src/stm32f4xx_hal.c ****   * @brief  This function de-Initializes common part of the HAL and stops the systick.
 187:Drivers/STM32F4xx_HAL_Driver/Src/stm32f4xx_hal.c ****   *         This function is optional.   
 188:Drivers/STM32F4xx_HAL_Driver/Src/stm32f4xx_hal.c ****   * @retval HAL status
 189:Drivers/STM32F4xx_HAL_Driver/Src/stm32f4xx_hal.c ****   */
 190:Drivers/STM32F4xx_HAL_Driver/Src/stm32f4xx_hal.c **** HAL_StatusTypeDef HAL_DeInit(void)
ARM GAS  /var/folders/vq/qt4vp3kd5rxf7v2b6_fdtdt80000gn/T//cc2roKPb.s 			page 6


 191:Drivers/STM32F4xx_HAL_Driver/Src/stm32f4xx_hal.c **** {
 103              		.loc 1 191 1
 104              		.cfi_startproc
 105              		@ args = 0, pretend = 0, frame = 0
 106              		@ frame_needed = 1, uses_anonymous_args = 0
 107 0000 80B5     		push	{r7, lr}
 108              	.LCFI2:
 109              		.cfi_def_cfa_offset 8
 110              		.cfi_offset 7, -8
 111              		.cfi_offset 14, -4
 112 0002 00AF     		add	r7, sp, #0
 113              	.LCFI3:
 114              		.cfi_def_cfa_register 7
 192:Drivers/STM32F4xx_HAL_Driver/Src/stm32f4xx_hal.c ****   /* Reset of all peripherals */
 193:Drivers/STM32F4xx_HAL_Driver/Src/stm32f4xx_hal.c ****   __HAL_RCC_APB1_FORCE_RESET();
 115              		.loc 1 193 3
 116 0004 134B     		ldr	r3, .L7
 117 0006 4FF0FF32 		mov	r2, #-1
 118 000a 1A62     		str	r2, [r3, #32]
 194:Drivers/STM32F4xx_HAL_Driver/Src/stm32f4xx_hal.c ****   __HAL_RCC_APB1_RELEASE_RESET();
 119              		.loc 1 194 3
 120 000c 114B     		ldr	r3, .L7
 121 000e 0022     		movs	r2, #0
 122 0010 1A62     		str	r2, [r3, #32]
 195:Drivers/STM32F4xx_HAL_Driver/Src/stm32f4xx_hal.c **** 
 196:Drivers/STM32F4xx_HAL_Driver/Src/stm32f4xx_hal.c ****   __HAL_RCC_APB2_FORCE_RESET();
 123              		.loc 1 196 3
 124 0012 104B     		ldr	r3, .L7
 125 0014 4FF0FF32 		mov	r2, #-1
 126 0018 5A62     		str	r2, [r3, #36]
 197:Drivers/STM32F4xx_HAL_Driver/Src/stm32f4xx_hal.c ****   __HAL_RCC_APB2_RELEASE_RESET();
 127              		.loc 1 197 3
 128 001a 0E4B     		ldr	r3, .L7
 129 001c 0022     		movs	r2, #0
 130 001e 5A62     		str	r2, [r3, #36]
 198:Drivers/STM32F4xx_HAL_Driver/Src/stm32f4xx_hal.c **** 
 199:Drivers/STM32F4xx_HAL_Driver/Src/stm32f4xx_hal.c ****   __HAL_RCC_AHB1_FORCE_RESET();
 131              		.loc 1 199 3
 132 0020 0C4B     		ldr	r3, .L7
 133 0022 4FF0FF32 		mov	r2, #-1
 134 0026 1A61     		str	r2, [r3, #16]
 200:Drivers/STM32F4xx_HAL_Driver/Src/stm32f4xx_hal.c ****   __HAL_RCC_AHB1_RELEASE_RESET();
 135              		.loc 1 200 3
 136 0028 0A4B     		ldr	r3, .L7
 137 002a 0022     		movs	r2, #0
 138 002c 1A61     		str	r2, [r3, #16]
 201:Drivers/STM32F4xx_HAL_Driver/Src/stm32f4xx_hal.c **** 
 202:Drivers/STM32F4xx_HAL_Driver/Src/stm32f4xx_hal.c ****   __HAL_RCC_AHB2_FORCE_RESET();
 139              		.loc 1 202 3
 140 002e 094B     		ldr	r3, .L7
 141 0030 4FF0FF32 		mov	r2, #-1
 142 0034 5A61     		str	r2, [r3, #20]
 203:Drivers/STM32F4xx_HAL_Driver/Src/stm32f4xx_hal.c ****   __HAL_RCC_AHB2_RELEASE_RESET();
 143              		.loc 1 203 3
 144 0036 074B     		ldr	r3, .L7
 145 0038 0022     		movs	r2, #0
 146 003a 5A61     		str	r2, [r3, #20]
ARM GAS  /var/folders/vq/qt4vp3kd5rxf7v2b6_fdtdt80000gn/T//cc2roKPb.s 			page 7


 204:Drivers/STM32F4xx_HAL_Driver/Src/stm32f4xx_hal.c **** 
 205:Drivers/STM32F4xx_HAL_Driver/Src/stm32f4xx_hal.c ****   __HAL_RCC_AHB3_FORCE_RESET();
 147              		.loc 1 205 3
 148 003c 054B     		ldr	r3, .L7
 149 003e 4FF0FF32 		mov	r2, #-1
 150 0042 9A61     		str	r2, [r3, #24]
 206:Drivers/STM32F4xx_HAL_Driver/Src/stm32f4xx_hal.c ****   __HAL_RCC_AHB3_RELEASE_RESET();
 151              		.loc 1 206 3
 152 0044 034B     		ldr	r3, .L7
 153 0046 0022     		movs	r2, #0
 154 0048 9A61     		str	r2, [r3, #24]
 207:Drivers/STM32F4xx_HAL_Driver/Src/stm32f4xx_hal.c **** 
 208:Drivers/STM32F4xx_HAL_Driver/Src/stm32f4xx_hal.c ****   /* De-Init the low level hardware */
 209:Drivers/STM32F4xx_HAL_Driver/Src/stm32f4xx_hal.c ****   HAL_MspDeInit();
 155              		.loc 1 209 3
 156 004a FFF7FEFF 		bl	HAL_MspDeInit
 210:Drivers/STM32F4xx_HAL_Driver/Src/stm32f4xx_hal.c ****     
 211:Drivers/STM32F4xx_HAL_Driver/Src/stm32f4xx_hal.c ****   /* Return function status */
 212:Drivers/STM32F4xx_HAL_Driver/Src/stm32f4xx_hal.c ****   return HAL_OK;
 157              		.loc 1 212 10
 158 004e 0023     		movs	r3, #0
 213:Drivers/STM32F4xx_HAL_Driver/Src/stm32f4xx_hal.c **** }
 159              		.loc 1 213 1
 160 0050 1846     		mov	r0, r3
 161 0052 80BD     		pop	{r7, pc}
 162              	.L8:
 163              		.align	2
 164              	.L7:
 165 0054 00380240 		.word	1073887232
 166              		.cfi_endproc
 167              	.LFE131:
 169              		.section	.text.HAL_MspInit,"ax",%progbits
 170              		.align	1
 171              		.weak	HAL_MspInit
 172              		.syntax unified
 173              		.thumb
 174              		.thumb_func
 175              		.fpu fpv4-sp-d16
 177              	HAL_MspInit:
 178              	.LFB132:
 214:Drivers/STM32F4xx_HAL_Driver/Src/stm32f4xx_hal.c **** 
 215:Drivers/STM32F4xx_HAL_Driver/Src/stm32f4xx_hal.c **** /**
 216:Drivers/STM32F4xx_HAL_Driver/Src/stm32f4xx_hal.c ****   * @brief  Initialize the MSP.
 217:Drivers/STM32F4xx_HAL_Driver/Src/stm32f4xx_hal.c ****   * @retval None
 218:Drivers/STM32F4xx_HAL_Driver/Src/stm32f4xx_hal.c ****   */
 219:Drivers/STM32F4xx_HAL_Driver/Src/stm32f4xx_hal.c **** __weak void HAL_MspInit(void)
 220:Drivers/STM32F4xx_HAL_Driver/Src/stm32f4xx_hal.c **** {
 179              		.loc 1 220 1
 180              		.cfi_startproc
 181              		@ args = 0, pretend = 0, frame = 0
 182              		@ frame_needed = 1, uses_anonymous_args = 0
 183              		@ link register save eliminated.
 184 0000 80B4     		push	{r7}
 185              	.LCFI4:
 186              		.cfi_def_cfa_offset 4
 187              		.cfi_offset 7, -4
 188 0002 00AF     		add	r7, sp, #0
ARM GAS  /var/folders/vq/qt4vp3kd5rxf7v2b6_fdtdt80000gn/T//cc2roKPb.s 			page 8


 189              	.LCFI5:
 190              		.cfi_def_cfa_register 7
 221:Drivers/STM32F4xx_HAL_Driver/Src/stm32f4xx_hal.c ****   /* NOTE : This function should not be modified, when the callback is needed,
 222:Drivers/STM32F4xx_HAL_Driver/Src/stm32f4xx_hal.c ****             the HAL_MspInit could be implemented in the user file
 223:Drivers/STM32F4xx_HAL_Driver/Src/stm32f4xx_hal.c ****    */
 224:Drivers/STM32F4xx_HAL_Driver/Src/stm32f4xx_hal.c **** }
 191              		.loc 1 224 1
 192 0004 00BF     		nop
 193 0006 BD46     		mov	sp, r7
 194              	.LCFI6:
 195              		.cfi_def_cfa_register 13
 196              		@ sp needed
 197 0008 5DF8047B 		ldr	r7, [sp], #4
 198              	.LCFI7:
 199              		.cfi_restore 7
 200              		.cfi_def_cfa_offset 0
 201 000c 7047     		bx	lr
 202              		.cfi_endproc
 203              	.LFE132:
 205              		.section	.text.HAL_MspDeInit,"ax",%progbits
 206              		.align	1
 207              		.weak	HAL_MspDeInit
 208              		.syntax unified
 209              		.thumb
 210              		.thumb_func
 211              		.fpu fpv4-sp-d16
 213              	HAL_MspDeInit:
 214              	.LFB133:
 225:Drivers/STM32F4xx_HAL_Driver/Src/stm32f4xx_hal.c **** 
 226:Drivers/STM32F4xx_HAL_Driver/Src/stm32f4xx_hal.c **** /**
 227:Drivers/STM32F4xx_HAL_Driver/Src/stm32f4xx_hal.c ****   * @brief  DeInitializes the MSP.
 228:Drivers/STM32F4xx_HAL_Driver/Src/stm32f4xx_hal.c ****   * @retval None
 229:Drivers/STM32F4xx_HAL_Driver/Src/stm32f4xx_hal.c ****   */
 230:Drivers/STM32F4xx_HAL_Driver/Src/stm32f4xx_hal.c **** __weak void HAL_MspDeInit(void)
 231:Drivers/STM32F4xx_HAL_Driver/Src/stm32f4xx_hal.c **** {
 215              		.loc 1 231 1
 216              		.cfi_startproc
 217              		@ args = 0, pretend = 0, frame = 0
 218              		@ frame_needed = 1, uses_anonymous_args = 0
 219              		@ link register save eliminated.
 220 0000 80B4     		push	{r7}
 221              	.LCFI8:
 222              		.cfi_def_cfa_offset 4
 223              		.cfi_offset 7, -4
 224 0002 00AF     		add	r7, sp, #0
 225              	.LCFI9:
 226              		.cfi_def_cfa_register 7
 232:Drivers/STM32F4xx_HAL_Driver/Src/stm32f4xx_hal.c ****   /* NOTE : This function should not be modified, when the callback is needed,
 233:Drivers/STM32F4xx_HAL_Driver/Src/stm32f4xx_hal.c ****             the HAL_MspDeInit could be implemented in the user file
 234:Drivers/STM32F4xx_HAL_Driver/Src/stm32f4xx_hal.c ****    */ 
 235:Drivers/STM32F4xx_HAL_Driver/Src/stm32f4xx_hal.c **** }
 227              		.loc 1 235 1
 228 0004 00BF     		nop
 229 0006 BD46     		mov	sp, r7
 230              	.LCFI10:
 231              		.cfi_def_cfa_register 13
 232              		@ sp needed
ARM GAS  /var/folders/vq/qt4vp3kd5rxf7v2b6_fdtdt80000gn/T//cc2roKPb.s 			page 9


 233 0008 5DF8047B 		ldr	r7, [sp], #4
 234              	.LCFI11:
 235              		.cfi_restore 7
 236              		.cfi_def_cfa_offset 0
 237 000c 7047     		bx	lr
 238              		.cfi_endproc
 239              	.LFE133:
 241              		.section	.text.HAL_InitTick,"ax",%progbits
 242              		.align	1
 243              		.weak	HAL_InitTick
 244              		.syntax unified
 245              		.thumb
 246              		.thumb_func
 247              		.fpu fpv4-sp-d16
 249              	HAL_InitTick:
 250              	.LFB134:
 236:Drivers/STM32F4xx_HAL_Driver/Src/stm32f4xx_hal.c **** 
 237:Drivers/STM32F4xx_HAL_Driver/Src/stm32f4xx_hal.c **** /**
 238:Drivers/STM32F4xx_HAL_Driver/Src/stm32f4xx_hal.c ****   * @brief This function configures the source of the time base.
 239:Drivers/STM32F4xx_HAL_Driver/Src/stm32f4xx_hal.c ****   *        The time source is configured  to have 1ms time base with a dedicated 
 240:Drivers/STM32F4xx_HAL_Driver/Src/stm32f4xx_hal.c ****   *        Tick interrupt priority.
 241:Drivers/STM32F4xx_HAL_Driver/Src/stm32f4xx_hal.c ****   * @note This function is called  automatically at the beginning of program after
 242:Drivers/STM32F4xx_HAL_Driver/Src/stm32f4xx_hal.c ****   *       reset by HAL_Init() or at any time when clock is reconfigured  by HAL_RCC_ClockConfig().
 243:Drivers/STM32F4xx_HAL_Driver/Src/stm32f4xx_hal.c ****   * @note In the default implementation, SysTick timer is the source of time base. 
 244:Drivers/STM32F4xx_HAL_Driver/Src/stm32f4xx_hal.c ****   *       It is used to generate interrupts at regular time intervals. 
 245:Drivers/STM32F4xx_HAL_Driver/Src/stm32f4xx_hal.c ****   *       Care must be taken if HAL_Delay() is called from a peripheral ISR process, 
 246:Drivers/STM32F4xx_HAL_Driver/Src/stm32f4xx_hal.c ****   *       The SysTick interrupt must have higher priority (numerically lower)
 247:Drivers/STM32F4xx_HAL_Driver/Src/stm32f4xx_hal.c ****   *       than the peripheral interrupt. Otherwise the caller ISR process will be blocked.
 248:Drivers/STM32F4xx_HAL_Driver/Src/stm32f4xx_hal.c ****   *       The function is declared as __weak  to be overwritten  in case of other
 249:Drivers/STM32F4xx_HAL_Driver/Src/stm32f4xx_hal.c ****   *       implementation  in user file.
 250:Drivers/STM32F4xx_HAL_Driver/Src/stm32f4xx_hal.c ****   * @param TickPriority Tick interrupt priority.
 251:Drivers/STM32F4xx_HAL_Driver/Src/stm32f4xx_hal.c ****   * @retval HAL status
 252:Drivers/STM32F4xx_HAL_Driver/Src/stm32f4xx_hal.c ****   */
 253:Drivers/STM32F4xx_HAL_Driver/Src/stm32f4xx_hal.c **** __weak HAL_StatusTypeDef HAL_InitTick(uint32_t TickPriority)
 254:Drivers/STM32F4xx_HAL_Driver/Src/stm32f4xx_hal.c **** {
 251              		.loc 1 254 1
 252              		.cfi_startproc
 253              		@ args = 0, pretend = 0, frame = 8
 254              		@ frame_needed = 1, uses_anonymous_args = 0
 255 0000 80B5     		push	{r7, lr}
 256              	.LCFI12:
 257              		.cfi_def_cfa_offset 8
 258              		.cfi_offset 7, -8
 259              		.cfi_offset 14, -4
 260 0002 82B0     		sub	sp, sp, #8
 261              	.LCFI13:
 262              		.cfi_def_cfa_offset 16
 263 0004 00AF     		add	r7, sp, #0
 264              	.LCFI14:
 265              		.cfi_def_cfa_register 7
 266 0006 7860     		str	r0, [r7, #4]
 255:Drivers/STM32F4xx_HAL_Driver/Src/stm32f4xx_hal.c ****   /* Configure the SysTick to have interrupt in 1ms time basis*/
 256:Drivers/STM32F4xx_HAL_Driver/Src/stm32f4xx_hal.c ****   if (HAL_SYSTICK_Config(SystemCoreClock / (1000U / uwTickFreq)) > 0U)
 267              		.loc 1 256 7
 268 0008 124B     		ldr	r3, .L16
 269 000a 1A68     		ldr	r2, [r3]
 270              		.loc 1 256 51
ARM GAS  /var/folders/vq/qt4vp3kd5rxf7v2b6_fdtdt80000gn/T//cc2roKPb.s 			page 10


 271 000c 124B     		ldr	r3, .L16+4
 272 000e 1B78     		ldrb	r3, [r3]	@ zero_extendqisi2
 273 0010 1946     		mov	r1, r3
 274 0012 4FF47A73 		mov	r3, #1000
 275 0016 B3FBF1F3 		udiv	r3, r3, r1
 276              		.loc 1 256 7
 277 001a B2FBF3F3 		udiv	r3, r2, r3
 278 001e 1846     		mov	r0, r3
 279 0020 FFF7FEFF 		bl	HAL_SYSTICK_Config
 280 0024 0346     		mov	r3, r0
 281              		.loc 1 256 6
 282 0026 002B     		cmp	r3, #0
 283 0028 01D0     		beq	.L12
 257:Drivers/STM32F4xx_HAL_Driver/Src/stm32f4xx_hal.c ****   {
 258:Drivers/STM32F4xx_HAL_Driver/Src/stm32f4xx_hal.c ****     return HAL_ERROR;
 284              		.loc 1 258 12
 285 002a 0123     		movs	r3, #1
 286 002c 0EE0     		b	.L13
 287              	.L12:
 259:Drivers/STM32F4xx_HAL_Driver/Src/stm32f4xx_hal.c ****   }
 260:Drivers/STM32F4xx_HAL_Driver/Src/stm32f4xx_hal.c **** 
 261:Drivers/STM32F4xx_HAL_Driver/Src/stm32f4xx_hal.c ****   /* Configure the SysTick IRQ priority */
 262:Drivers/STM32F4xx_HAL_Driver/Src/stm32f4xx_hal.c ****   if (TickPriority < (1UL << __NVIC_PRIO_BITS))
 288              		.loc 1 262 6
 289 002e 7B68     		ldr	r3, [r7, #4]
 290 0030 0F2B     		cmp	r3, #15
 291 0032 0AD8     		bhi	.L14
 263:Drivers/STM32F4xx_HAL_Driver/Src/stm32f4xx_hal.c ****   {
 264:Drivers/STM32F4xx_HAL_Driver/Src/stm32f4xx_hal.c ****     HAL_NVIC_SetPriority(SysTick_IRQn, TickPriority, 0U);
 292              		.loc 1 264 5
 293 0034 0022     		movs	r2, #0
 294 0036 7968     		ldr	r1, [r7, #4]
 295 0038 4FF0FF30 		mov	r0, #-1
 296 003c FFF7FEFF 		bl	HAL_NVIC_SetPriority
 265:Drivers/STM32F4xx_HAL_Driver/Src/stm32f4xx_hal.c ****     uwTickPrio = TickPriority;
 297              		.loc 1 265 16
 298 0040 064A     		ldr	r2, .L16+8
 299 0042 7B68     		ldr	r3, [r7, #4]
 300 0044 1360     		str	r3, [r2]
 266:Drivers/STM32F4xx_HAL_Driver/Src/stm32f4xx_hal.c ****   }
 267:Drivers/STM32F4xx_HAL_Driver/Src/stm32f4xx_hal.c ****   else
 268:Drivers/STM32F4xx_HAL_Driver/Src/stm32f4xx_hal.c ****   {
 269:Drivers/STM32F4xx_HAL_Driver/Src/stm32f4xx_hal.c ****     return HAL_ERROR;
 270:Drivers/STM32F4xx_HAL_Driver/Src/stm32f4xx_hal.c ****   }
 271:Drivers/STM32F4xx_HAL_Driver/Src/stm32f4xx_hal.c **** 
 272:Drivers/STM32F4xx_HAL_Driver/Src/stm32f4xx_hal.c ****   /* Return function status */
 273:Drivers/STM32F4xx_HAL_Driver/Src/stm32f4xx_hal.c ****   return HAL_OK;
 301              		.loc 1 273 10
 302 0046 0023     		movs	r3, #0
 303 0048 00E0     		b	.L13
 304              	.L14:
 269:Drivers/STM32F4xx_HAL_Driver/Src/stm32f4xx_hal.c ****   }
 305              		.loc 1 269 12
 306 004a 0123     		movs	r3, #1
 307              	.L13:
 274:Drivers/STM32F4xx_HAL_Driver/Src/stm32f4xx_hal.c **** }
 308              		.loc 1 274 1
ARM GAS  /var/folders/vq/qt4vp3kd5rxf7v2b6_fdtdt80000gn/T//cc2roKPb.s 			page 11


 309 004c 1846     		mov	r0, r3
 310 004e 0837     		adds	r7, r7, #8
 311              	.LCFI15:
 312              		.cfi_def_cfa_offset 8
 313 0050 BD46     		mov	sp, r7
 314              	.LCFI16:
 315              		.cfi_def_cfa_register 13
 316              		@ sp needed
 317 0052 80BD     		pop	{r7, pc}
 318              	.L17:
 319              		.align	2
 320              	.L16:
 321 0054 00000000 		.word	SystemCoreClock
 322 0058 00000000 		.word	uwTickFreq
 323 005c 00000000 		.word	uwTickPrio
 324              		.cfi_endproc
 325              	.LFE134:
 327              		.section	.text.HAL_IncTick,"ax",%progbits
 328              		.align	1
 329              		.weak	HAL_IncTick
 330              		.syntax unified
 331              		.thumb
 332              		.thumb_func
 333              		.fpu fpv4-sp-d16
 335              	HAL_IncTick:
 336              	.LFB135:
 275:Drivers/STM32F4xx_HAL_Driver/Src/stm32f4xx_hal.c **** 
 276:Drivers/STM32F4xx_HAL_Driver/Src/stm32f4xx_hal.c **** /**
 277:Drivers/STM32F4xx_HAL_Driver/Src/stm32f4xx_hal.c ****   * @}
 278:Drivers/STM32F4xx_HAL_Driver/Src/stm32f4xx_hal.c ****   */
 279:Drivers/STM32F4xx_HAL_Driver/Src/stm32f4xx_hal.c **** 
 280:Drivers/STM32F4xx_HAL_Driver/Src/stm32f4xx_hal.c **** /** @defgroup HAL_Exported_Functions_Group2 HAL Control functions 
 281:Drivers/STM32F4xx_HAL_Driver/Src/stm32f4xx_hal.c ****  *  @brief    HAL Control functions
 282:Drivers/STM32F4xx_HAL_Driver/Src/stm32f4xx_hal.c ****  *
 283:Drivers/STM32F4xx_HAL_Driver/Src/stm32f4xx_hal.c **** @verbatim
 284:Drivers/STM32F4xx_HAL_Driver/Src/stm32f4xx_hal.c ****  ===============================================================================
 285:Drivers/STM32F4xx_HAL_Driver/Src/stm32f4xx_hal.c ****                       ##### HAL Control functions #####
 286:Drivers/STM32F4xx_HAL_Driver/Src/stm32f4xx_hal.c ****  ===============================================================================
 287:Drivers/STM32F4xx_HAL_Driver/Src/stm32f4xx_hal.c ****     [..]  This section provides functions allowing to:
 288:Drivers/STM32F4xx_HAL_Driver/Src/stm32f4xx_hal.c ****       (+) Provide a tick value in millisecond
 289:Drivers/STM32F4xx_HAL_Driver/Src/stm32f4xx_hal.c ****       (+) Provide a blocking delay in millisecond
 290:Drivers/STM32F4xx_HAL_Driver/Src/stm32f4xx_hal.c ****       (+) Suspend the time base source interrupt
 291:Drivers/STM32F4xx_HAL_Driver/Src/stm32f4xx_hal.c ****       (+) Resume the time base source interrupt
 292:Drivers/STM32F4xx_HAL_Driver/Src/stm32f4xx_hal.c ****       (+) Get the HAL API driver version
 293:Drivers/STM32F4xx_HAL_Driver/Src/stm32f4xx_hal.c ****       (+) Get the device identifier
 294:Drivers/STM32F4xx_HAL_Driver/Src/stm32f4xx_hal.c ****       (+) Get the device revision identifier
 295:Drivers/STM32F4xx_HAL_Driver/Src/stm32f4xx_hal.c ****       (+) Enable/Disable Debug module during SLEEP mode
 296:Drivers/STM32F4xx_HAL_Driver/Src/stm32f4xx_hal.c ****       (+) Enable/Disable Debug module during STOP mode
 297:Drivers/STM32F4xx_HAL_Driver/Src/stm32f4xx_hal.c ****       (+) Enable/Disable Debug module during STANDBY mode
 298:Drivers/STM32F4xx_HAL_Driver/Src/stm32f4xx_hal.c **** 
 299:Drivers/STM32F4xx_HAL_Driver/Src/stm32f4xx_hal.c **** @endverbatim
 300:Drivers/STM32F4xx_HAL_Driver/Src/stm32f4xx_hal.c ****   * @{
 301:Drivers/STM32F4xx_HAL_Driver/Src/stm32f4xx_hal.c ****   */
 302:Drivers/STM32F4xx_HAL_Driver/Src/stm32f4xx_hal.c **** 
 303:Drivers/STM32F4xx_HAL_Driver/Src/stm32f4xx_hal.c **** /**
 304:Drivers/STM32F4xx_HAL_Driver/Src/stm32f4xx_hal.c ****   * @brief This function is called to increment  a global variable "uwTick"
 305:Drivers/STM32F4xx_HAL_Driver/Src/stm32f4xx_hal.c ****   *        used as application time base.
ARM GAS  /var/folders/vq/qt4vp3kd5rxf7v2b6_fdtdt80000gn/T//cc2roKPb.s 			page 12


 306:Drivers/STM32F4xx_HAL_Driver/Src/stm32f4xx_hal.c ****   * @note In the default implementation, this variable is incremented each 1ms
 307:Drivers/STM32F4xx_HAL_Driver/Src/stm32f4xx_hal.c ****   *       in SysTick ISR.
 308:Drivers/STM32F4xx_HAL_Driver/Src/stm32f4xx_hal.c ****  * @note This function is declared as __weak to be overwritten in case of other 
 309:Drivers/STM32F4xx_HAL_Driver/Src/stm32f4xx_hal.c ****   *      implementations in user file.
 310:Drivers/STM32F4xx_HAL_Driver/Src/stm32f4xx_hal.c ****   * @retval None
 311:Drivers/STM32F4xx_HAL_Driver/Src/stm32f4xx_hal.c ****   */
 312:Drivers/STM32F4xx_HAL_Driver/Src/stm32f4xx_hal.c **** __weak void HAL_IncTick(void)
 313:Drivers/STM32F4xx_HAL_Driver/Src/stm32f4xx_hal.c **** {
 337              		.loc 1 313 1
 338              		.cfi_startproc
 339              		@ args = 0, pretend = 0, frame = 0
 340              		@ frame_needed = 1, uses_anonymous_args = 0
 341              		@ link register save eliminated.
 342 0000 80B4     		push	{r7}
 343              	.LCFI17:
 344              		.cfi_def_cfa_offset 4
 345              		.cfi_offset 7, -4
 346 0002 00AF     		add	r7, sp, #0
 347              	.LCFI18:
 348              		.cfi_def_cfa_register 7
 314:Drivers/STM32F4xx_HAL_Driver/Src/stm32f4xx_hal.c ****   uwTick += uwTickFreq;
 349              		.loc 1 314 10
 350 0004 064B     		ldr	r3, .L19
 351 0006 1B78     		ldrb	r3, [r3]	@ zero_extendqisi2
 352 0008 1A46     		mov	r2, r3
 353 000a 064B     		ldr	r3, .L19+4
 354 000c 1B68     		ldr	r3, [r3]
 355 000e 1344     		add	r3, r3, r2
 356 0010 044A     		ldr	r2, .L19+4
 357 0012 1360     		str	r3, [r2]
 315:Drivers/STM32F4xx_HAL_Driver/Src/stm32f4xx_hal.c **** }
 358              		.loc 1 315 1
 359 0014 00BF     		nop
 360 0016 BD46     		mov	sp, r7
 361              	.LCFI19:
 362              		.cfi_def_cfa_register 13
 363              		@ sp needed
 364 0018 5DF8047B 		ldr	r7, [sp], #4
 365              	.LCFI20:
 366              		.cfi_restore 7
 367              		.cfi_def_cfa_offset 0
 368 001c 7047     		bx	lr
 369              	.L20:
 370 001e 00BF     		.align	2
 371              	.L19:
 372 0020 00000000 		.word	uwTickFreq
 373 0024 00000000 		.word	uwTick
 374              		.cfi_endproc
 375              	.LFE135:
 377              		.section	.text.HAL_GetTick,"ax",%progbits
 378              		.align	1
 379              		.weak	HAL_GetTick
 380              		.syntax unified
 381              		.thumb
 382              		.thumb_func
 383              		.fpu fpv4-sp-d16
 385              	HAL_GetTick:
ARM GAS  /var/folders/vq/qt4vp3kd5rxf7v2b6_fdtdt80000gn/T//cc2roKPb.s 			page 13


 386              	.LFB136:
 316:Drivers/STM32F4xx_HAL_Driver/Src/stm32f4xx_hal.c **** 
 317:Drivers/STM32F4xx_HAL_Driver/Src/stm32f4xx_hal.c **** /**
 318:Drivers/STM32F4xx_HAL_Driver/Src/stm32f4xx_hal.c ****   * @brief Provides a tick value in millisecond.
 319:Drivers/STM32F4xx_HAL_Driver/Src/stm32f4xx_hal.c ****   * @note This function is declared as __weak to be overwritten in case of other 
 320:Drivers/STM32F4xx_HAL_Driver/Src/stm32f4xx_hal.c ****   *       implementations in user file.
 321:Drivers/STM32F4xx_HAL_Driver/Src/stm32f4xx_hal.c ****   * @retval tick value
 322:Drivers/STM32F4xx_HAL_Driver/Src/stm32f4xx_hal.c ****   */
 323:Drivers/STM32F4xx_HAL_Driver/Src/stm32f4xx_hal.c **** __weak uint32_t HAL_GetTick(void)
 324:Drivers/STM32F4xx_HAL_Driver/Src/stm32f4xx_hal.c **** {
 387              		.loc 1 324 1
 388              		.cfi_startproc
 389              		@ args = 0, pretend = 0, frame = 0
 390              		@ frame_needed = 1, uses_anonymous_args = 0
 391              		@ link register save eliminated.
 392 0000 80B4     		push	{r7}
 393              	.LCFI21:
 394              		.cfi_def_cfa_offset 4
 395              		.cfi_offset 7, -4
 396 0002 00AF     		add	r7, sp, #0
 397              	.LCFI22:
 398              		.cfi_def_cfa_register 7
 325:Drivers/STM32F4xx_HAL_Driver/Src/stm32f4xx_hal.c ****   return uwTick;
 399              		.loc 1 325 10
 400 0004 034B     		ldr	r3, .L23
 401 0006 1B68     		ldr	r3, [r3]
 326:Drivers/STM32F4xx_HAL_Driver/Src/stm32f4xx_hal.c **** }
 402              		.loc 1 326 1
 403 0008 1846     		mov	r0, r3
 404 000a BD46     		mov	sp, r7
 405              	.LCFI23:
 406              		.cfi_def_cfa_register 13
 407              		@ sp needed
 408 000c 5DF8047B 		ldr	r7, [sp], #4
 409              	.LCFI24:
 410              		.cfi_restore 7
 411              		.cfi_def_cfa_offset 0
 412 0010 7047     		bx	lr
 413              	.L24:
 414 0012 00BF     		.align	2
 415              	.L23:
 416 0014 00000000 		.word	uwTick
 417              		.cfi_endproc
 418              	.LFE136:
 420              		.section	.text.HAL_GetTickPrio,"ax",%progbits
 421              		.align	1
 422              		.global	HAL_GetTickPrio
 423              		.syntax unified
 424              		.thumb
 425              		.thumb_func
 426              		.fpu fpv4-sp-d16
 428              	HAL_GetTickPrio:
 429              	.LFB137:
 327:Drivers/STM32F4xx_HAL_Driver/Src/stm32f4xx_hal.c **** 
 328:Drivers/STM32F4xx_HAL_Driver/Src/stm32f4xx_hal.c **** /**
 329:Drivers/STM32F4xx_HAL_Driver/Src/stm32f4xx_hal.c ****   * @brief This function returns a tick priority.
 330:Drivers/STM32F4xx_HAL_Driver/Src/stm32f4xx_hal.c ****   * @retval tick priority
ARM GAS  /var/folders/vq/qt4vp3kd5rxf7v2b6_fdtdt80000gn/T//cc2roKPb.s 			page 14


 331:Drivers/STM32F4xx_HAL_Driver/Src/stm32f4xx_hal.c ****   */
 332:Drivers/STM32F4xx_HAL_Driver/Src/stm32f4xx_hal.c **** uint32_t HAL_GetTickPrio(void)
 333:Drivers/STM32F4xx_HAL_Driver/Src/stm32f4xx_hal.c **** {
 430              		.loc 1 333 1
 431              		.cfi_startproc
 432              		@ args = 0, pretend = 0, frame = 0
 433              		@ frame_needed = 1, uses_anonymous_args = 0
 434              		@ link register save eliminated.
 435 0000 80B4     		push	{r7}
 436              	.LCFI25:
 437              		.cfi_def_cfa_offset 4
 438              		.cfi_offset 7, -4
 439 0002 00AF     		add	r7, sp, #0
 440              	.LCFI26:
 441              		.cfi_def_cfa_register 7
 334:Drivers/STM32F4xx_HAL_Driver/Src/stm32f4xx_hal.c ****   return uwTickPrio;
 442              		.loc 1 334 10
 443 0004 034B     		ldr	r3, .L27
 444 0006 1B68     		ldr	r3, [r3]
 335:Drivers/STM32F4xx_HAL_Driver/Src/stm32f4xx_hal.c **** }
 445              		.loc 1 335 1
 446 0008 1846     		mov	r0, r3
 447 000a BD46     		mov	sp, r7
 448              	.LCFI27:
 449              		.cfi_def_cfa_register 13
 450              		@ sp needed
 451 000c 5DF8047B 		ldr	r7, [sp], #4
 452              	.LCFI28:
 453              		.cfi_restore 7
 454              		.cfi_def_cfa_offset 0
 455 0010 7047     		bx	lr
 456              	.L28:
 457 0012 00BF     		.align	2
 458              	.L27:
 459 0014 00000000 		.word	uwTickPrio
 460              		.cfi_endproc
 461              	.LFE137:
 463              		.section	.text.HAL_SetTickFreq,"ax",%progbits
 464              		.align	1
 465              		.global	HAL_SetTickFreq
 466              		.syntax unified
 467              		.thumb
 468              		.thumb_func
 469              		.fpu fpv4-sp-d16
 471              	HAL_SetTickFreq:
 472              	.LFB138:
 336:Drivers/STM32F4xx_HAL_Driver/Src/stm32f4xx_hal.c **** 
 337:Drivers/STM32F4xx_HAL_Driver/Src/stm32f4xx_hal.c **** /**
 338:Drivers/STM32F4xx_HAL_Driver/Src/stm32f4xx_hal.c ****   * @brief Set new tick Freq.
 339:Drivers/STM32F4xx_HAL_Driver/Src/stm32f4xx_hal.c ****   * @retval Status
 340:Drivers/STM32F4xx_HAL_Driver/Src/stm32f4xx_hal.c ****   */
 341:Drivers/STM32F4xx_HAL_Driver/Src/stm32f4xx_hal.c **** HAL_StatusTypeDef HAL_SetTickFreq(HAL_TickFreqTypeDef Freq)
 342:Drivers/STM32F4xx_HAL_Driver/Src/stm32f4xx_hal.c **** {
 473              		.loc 1 342 1
 474              		.cfi_startproc
 475              		@ args = 0, pretend = 0, frame = 16
 476              		@ frame_needed = 1, uses_anonymous_args = 0
ARM GAS  /var/folders/vq/qt4vp3kd5rxf7v2b6_fdtdt80000gn/T//cc2roKPb.s 			page 15


 477 0000 80B5     		push	{r7, lr}
 478              	.LCFI29:
 479              		.cfi_def_cfa_offset 8
 480              		.cfi_offset 7, -8
 481              		.cfi_offset 14, -4
 482 0002 84B0     		sub	sp, sp, #16
 483              	.LCFI30:
 484              		.cfi_def_cfa_offset 24
 485 0004 00AF     		add	r7, sp, #0
 486              	.LCFI31:
 487              		.cfi_def_cfa_register 7
 488 0006 0346     		mov	r3, r0
 489 0008 FB71     		strb	r3, [r7, #7]
 343:Drivers/STM32F4xx_HAL_Driver/Src/stm32f4xx_hal.c ****   HAL_StatusTypeDef status  = HAL_OK;
 490              		.loc 1 343 21
 491 000a 0023     		movs	r3, #0
 492 000c FB73     		strb	r3, [r7, #15]
 344:Drivers/STM32F4xx_HAL_Driver/Src/stm32f4xx_hal.c ****   HAL_TickFreqTypeDef prevTickFreq;
 345:Drivers/STM32F4xx_HAL_Driver/Src/stm32f4xx_hal.c **** 
 346:Drivers/STM32F4xx_HAL_Driver/Src/stm32f4xx_hal.c ****   assert_param(IS_TICKFREQ(Freq));
 347:Drivers/STM32F4xx_HAL_Driver/Src/stm32f4xx_hal.c **** 
 348:Drivers/STM32F4xx_HAL_Driver/Src/stm32f4xx_hal.c ****   if (uwTickFreq != Freq)
 493              		.loc 1 348 18
 494 000e 0E4B     		ldr	r3, .L32
 495 0010 1B78     		ldrb	r3, [r3]	@ zero_extendqisi2
 496              		.loc 1 348 6
 497 0012 FA79     		ldrb	r2, [r7, #7]	@ zero_extendqisi2
 498 0014 9A42     		cmp	r2, r3
 499 0016 12D0     		beq	.L30
 349:Drivers/STM32F4xx_HAL_Driver/Src/stm32f4xx_hal.c ****   {
 350:Drivers/STM32F4xx_HAL_Driver/Src/stm32f4xx_hal.c ****     /* Back up uwTickFreq frequency */
 351:Drivers/STM32F4xx_HAL_Driver/Src/stm32f4xx_hal.c ****     prevTickFreq = uwTickFreq;
 500              		.loc 1 351 18
 501 0018 0B4B     		ldr	r3, .L32
 502 001a 1B78     		ldrb	r3, [r3]
 503 001c BB73     		strb	r3, [r7, #14]
 352:Drivers/STM32F4xx_HAL_Driver/Src/stm32f4xx_hal.c **** 
 353:Drivers/STM32F4xx_HAL_Driver/Src/stm32f4xx_hal.c ****     /* Update uwTickFreq global variable used by HAL_InitTick() */
 354:Drivers/STM32F4xx_HAL_Driver/Src/stm32f4xx_hal.c ****     uwTickFreq = Freq;
 504              		.loc 1 354 16
 505 001e 0A4A     		ldr	r2, .L32
 506 0020 FB79     		ldrb	r3, [r7, #7]
 507 0022 1370     		strb	r3, [r2]
 355:Drivers/STM32F4xx_HAL_Driver/Src/stm32f4xx_hal.c **** 
 356:Drivers/STM32F4xx_HAL_Driver/Src/stm32f4xx_hal.c ****     /* Apply the new tick Freq  */
 357:Drivers/STM32F4xx_HAL_Driver/Src/stm32f4xx_hal.c ****     status = HAL_InitTick(uwTickPrio);
 508              		.loc 1 357 14
 509 0024 094B     		ldr	r3, .L32+4
 510 0026 1B68     		ldr	r3, [r3]
 511 0028 1846     		mov	r0, r3
 512 002a FFF7FEFF 		bl	HAL_InitTick
 513 002e 0346     		mov	r3, r0
 514 0030 FB73     		strb	r3, [r7, #15]
 358:Drivers/STM32F4xx_HAL_Driver/Src/stm32f4xx_hal.c **** 
 359:Drivers/STM32F4xx_HAL_Driver/Src/stm32f4xx_hal.c ****     if (status != HAL_OK)
 515              		.loc 1 359 8
 516 0032 FB7B     		ldrb	r3, [r7, #15]	@ zero_extendqisi2
ARM GAS  /var/folders/vq/qt4vp3kd5rxf7v2b6_fdtdt80000gn/T//cc2roKPb.s 			page 16


 517 0034 002B     		cmp	r3, #0
 518 0036 02D0     		beq	.L30
 360:Drivers/STM32F4xx_HAL_Driver/Src/stm32f4xx_hal.c ****     {
 361:Drivers/STM32F4xx_HAL_Driver/Src/stm32f4xx_hal.c ****       /* Restore previous tick frequency */
 362:Drivers/STM32F4xx_HAL_Driver/Src/stm32f4xx_hal.c ****       uwTickFreq = prevTickFreq;
 519              		.loc 1 362 18
 520 0038 034A     		ldr	r2, .L32
 521 003a BB7B     		ldrb	r3, [r7, #14]
 522 003c 1370     		strb	r3, [r2]
 523              	.L30:
 363:Drivers/STM32F4xx_HAL_Driver/Src/stm32f4xx_hal.c ****     }
 364:Drivers/STM32F4xx_HAL_Driver/Src/stm32f4xx_hal.c ****   }
 365:Drivers/STM32F4xx_HAL_Driver/Src/stm32f4xx_hal.c **** 
 366:Drivers/STM32F4xx_HAL_Driver/Src/stm32f4xx_hal.c ****   return status;
 524              		.loc 1 366 10
 525 003e FB7B     		ldrb	r3, [r7, #15]	@ zero_extendqisi2
 367:Drivers/STM32F4xx_HAL_Driver/Src/stm32f4xx_hal.c **** }
 526              		.loc 1 367 1
 527 0040 1846     		mov	r0, r3
 528 0042 1037     		adds	r7, r7, #16
 529              	.LCFI32:
 530              		.cfi_def_cfa_offset 8
 531 0044 BD46     		mov	sp, r7
 532              	.LCFI33:
 533              		.cfi_def_cfa_register 13
 534              		@ sp needed
 535 0046 80BD     		pop	{r7, pc}
 536              	.L33:
 537              		.align	2
 538              	.L32:
 539 0048 00000000 		.word	uwTickFreq
 540 004c 00000000 		.word	uwTickPrio
 541              		.cfi_endproc
 542              	.LFE138:
 544              		.section	.text.HAL_GetTickFreq,"ax",%progbits
 545              		.align	1
 546              		.global	HAL_GetTickFreq
 547              		.syntax unified
 548              		.thumb
 549              		.thumb_func
 550              		.fpu fpv4-sp-d16
 552              	HAL_GetTickFreq:
 553              	.LFB139:
 368:Drivers/STM32F4xx_HAL_Driver/Src/stm32f4xx_hal.c **** 
 369:Drivers/STM32F4xx_HAL_Driver/Src/stm32f4xx_hal.c **** /**
 370:Drivers/STM32F4xx_HAL_Driver/Src/stm32f4xx_hal.c ****   * @brief Return tick frequency.
 371:Drivers/STM32F4xx_HAL_Driver/Src/stm32f4xx_hal.c ****   * @retval tick period in Hz
 372:Drivers/STM32F4xx_HAL_Driver/Src/stm32f4xx_hal.c ****   */
 373:Drivers/STM32F4xx_HAL_Driver/Src/stm32f4xx_hal.c **** HAL_TickFreqTypeDef HAL_GetTickFreq(void)
 374:Drivers/STM32F4xx_HAL_Driver/Src/stm32f4xx_hal.c **** {
 554              		.loc 1 374 1
 555              		.cfi_startproc
 556              		@ args = 0, pretend = 0, frame = 0
 557              		@ frame_needed = 1, uses_anonymous_args = 0
 558              		@ link register save eliminated.
 559 0000 80B4     		push	{r7}
 560              	.LCFI34:
ARM GAS  /var/folders/vq/qt4vp3kd5rxf7v2b6_fdtdt80000gn/T//cc2roKPb.s 			page 17


 561              		.cfi_def_cfa_offset 4
 562              		.cfi_offset 7, -4
 563 0002 00AF     		add	r7, sp, #0
 564              	.LCFI35:
 565              		.cfi_def_cfa_register 7
 375:Drivers/STM32F4xx_HAL_Driver/Src/stm32f4xx_hal.c ****   return uwTickFreq;
 566              		.loc 1 375 10
 567 0004 034B     		ldr	r3, .L36
 568 0006 1B78     		ldrb	r3, [r3]	@ zero_extendqisi2
 376:Drivers/STM32F4xx_HAL_Driver/Src/stm32f4xx_hal.c **** }
 569              		.loc 1 376 1
 570 0008 1846     		mov	r0, r3
 571 000a BD46     		mov	sp, r7
 572              	.LCFI36:
 573              		.cfi_def_cfa_register 13
 574              		@ sp needed
 575 000c 5DF8047B 		ldr	r7, [sp], #4
 576              	.LCFI37:
 577              		.cfi_restore 7
 578              		.cfi_def_cfa_offset 0
 579 0010 7047     		bx	lr
 580              	.L37:
 581 0012 00BF     		.align	2
 582              	.L36:
 583 0014 00000000 		.word	uwTickFreq
 584              		.cfi_endproc
 585              	.LFE139:
 587              		.section	.text.HAL_Delay,"ax",%progbits
 588              		.align	1
 589              		.weak	HAL_Delay
 590              		.syntax unified
 591              		.thumb
 592              		.thumb_func
 593              		.fpu fpv4-sp-d16
 595              	HAL_Delay:
 596              	.LFB140:
 377:Drivers/STM32F4xx_HAL_Driver/Src/stm32f4xx_hal.c **** 
 378:Drivers/STM32F4xx_HAL_Driver/Src/stm32f4xx_hal.c **** /**
 379:Drivers/STM32F4xx_HAL_Driver/Src/stm32f4xx_hal.c ****   * @brief This function provides minimum delay (in milliseconds) based 
 380:Drivers/STM32F4xx_HAL_Driver/Src/stm32f4xx_hal.c ****   *        on variable incremented.
 381:Drivers/STM32F4xx_HAL_Driver/Src/stm32f4xx_hal.c ****   * @note In the default implementation , SysTick timer is the source of time base.
 382:Drivers/STM32F4xx_HAL_Driver/Src/stm32f4xx_hal.c ****   *       It is used to generate interrupts at regular time intervals where uwTick
 383:Drivers/STM32F4xx_HAL_Driver/Src/stm32f4xx_hal.c ****   *       is incremented.
 384:Drivers/STM32F4xx_HAL_Driver/Src/stm32f4xx_hal.c ****   * @note This function is declared as __weak to be overwritten in case of other
 385:Drivers/STM32F4xx_HAL_Driver/Src/stm32f4xx_hal.c ****   *       implementations in user file.
 386:Drivers/STM32F4xx_HAL_Driver/Src/stm32f4xx_hal.c ****   * @param Delay specifies the delay time length, in milliseconds.
 387:Drivers/STM32F4xx_HAL_Driver/Src/stm32f4xx_hal.c ****   * @retval None
 388:Drivers/STM32F4xx_HAL_Driver/Src/stm32f4xx_hal.c ****   */
 389:Drivers/STM32F4xx_HAL_Driver/Src/stm32f4xx_hal.c **** __weak void HAL_Delay(uint32_t Delay)
 390:Drivers/STM32F4xx_HAL_Driver/Src/stm32f4xx_hal.c **** {
 597              		.loc 1 390 1
 598              		.cfi_startproc
 599              		@ args = 0, pretend = 0, frame = 16
 600              		@ frame_needed = 1, uses_anonymous_args = 0
 601 0000 80B5     		push	{r7, lr}
 602              	.LCFI38:
 603              		.cfi_def_cfa_offset 8
ARM GAS  /var/folders/vq/qt4vp3kd5rxf7v2b6_fdtdt80000gn/T//cc2roKPb.s 			page 18


 604              		.cfi_offset 7, -8
 605              		.cfi_offset 14, -4
 606 0002 84B0     		sub	sp, sp, #16
 607              	.LCFI39:
 608              		.cfi_def_cfa_offset 24
 609 0004 00AF     		add	r7, sp, #0
 610              	.LCFI40:
 611              		.cfi_def_cfa_register 7
 612 0006 7860     		str	r0, [r7, #4]
 391:Drivers/STM32F4xx_HAL_Driver/Src/stm32f4xx_hal.c ****   uint32_t tickstart = HAL_GetTick();
 613              		.loc 1 391 24
 614 0008 FFF7FEFF 		bl	HAL_GetTick
 615 000c B860     		str	r0, [r7, #8]
 392:Drivers/STM32F4xx_HAL_Driver/Src/stm32f4xx_hal.c ****   uint32_t wait = Delay;
 616              		.loc 1 392 12
 617 000e 7B68     		ldr	r3, [r7, #4]
 618 0010 FB60     		str	r3, [r7, #12]
 393:Drivers/STM32F4xx_HAL_Driver/Src/stm32f4xx_hal.c **** 
 394:Drivers/STM32F4xx_HAL_Driver/Src/stm32f4xx_hal.c ****   /* Add a freq to guarantee minimum wait */
 395:Drivers/STM32F4xx_HAL_Driver/Src/stm32f4xx_hal.c ****   if (wait < HAL_MAX_DELAY)
 619              		.loc 1 395 6
 620 0012 FB68     		ldr	r3, [r7, #12]
 621 0014 B3F1FF3F 		cmp	r3, #-1
 622 0018 05D0     		beq	.L41
 396:Drivers/STM32F4xx_HAL_Driver/Src/stm32f4xx_hal.c ****   {
 397:Drivers/STM32F4xx_HAL_Driver/Src/stm32f4xx_hal.c ****     wait += (uint32_t)(uwTickFreq);
 623              		.loc 1 397 13
 624 001a 0A4B     		ldr	r3, .L42
 625 001c 1B78     		ldrb	r3, [r3]	@ zero_extendqisi2
 626 001e 1A46     		mov	r2, r3
 627              		.loc 1 397 10
 628 0020 FB68     		ldr	r3, [r7, #12]
 629 0022 1344     		add	r3, r3, r2
 630 0024 FB60     		str	r3, [r7, #12]
 631              	.L41:
 398:Drivers/STM32F4xx_HAL_Driver/Src/stm32f4xx_hal.c ****   }
 399:Drivers/STM32F4xx_HAL_Driver/Src/stm32f4xx_hal.c **** 
 400:Drivers/STM32F4xx_HAL_Driver/Src/stm32f4xx_hal.c ****   while((HAL_GetTick() - tickstart) < wait)
 632              		.loc 1 400 8
 633 0026 00BF     		nop
 634              	.L40:
 635              		.loc 1 400 10 discriminator 1
 636 0028 FFF7FEFF 		bl	HAL_GetTick
 637 002c 0246     		mov	r2, r0
 638              		.loc 1 400 24 discriminator 1
 639 002e BB68     		ldr	r3, [r7, #8]
 640 0030 D31A     		subs	r3, r2, r3
 641              		.loc 1 400 8 discriminator 1
 642 0032 FA68     		ldr	r2, [r7, #12]
 643 0034 9A42     		cmp	r2, r3
 644 0036 F7D8     		bhi	.L40
 401:Drivers/STM32F4xx_HAL_Driver/Src/stm32f4xx_hal.c ****   {
 402:Drivers/STM32F4xx_HAL_Driver/Src/stm32f4xx_hal.c ****   }
 403:Drivers/STM32F4xx_HAL_Driver/Src/stm32f4xx_hal.c **** }
 645              		.loc 1 403 1
 646 0038 00BF     		nop
 647 003a 00BF     		nop
ARM GAS  /var/folders/vq/qt4vp3kd5rxf7v2b6_fdtdt80000gn/T//cc2roKPb.s 			page 19


 648 003c 1037     		adds	r7, r7, #16
 649              	.LCFI41:
 650              		.cfi_def_cfa_offset 8
 651 003e BD46     		mov	sp, r7
 652              	.LCFI42:
 653              		.cfi_def_cfa_register 13
 654              		@ sp needed
 655 0040 80BD     		pop	{r7, pc}
 656              	.L43:
 657 0042 00BF     		.align	2
 658              	.L42:
 659 0044 00000000 		.word	uwTickFreq
 660              		.cfi_endproc
 661              	.LFE140:
 663              		.section	.text.HAL_SuspendTick,"ax",%progbits
 664              		.align	1
 665              		.weak	HAL_SuspendTick
 666              		.syntax unified
 667              		.thumb
 668              		.thumb_func
 669              		.fpu fpv4-sp-d16
 671              	HAL_SuspendTick:
 672              	.LFB141:
 404:Drivers/STM32F4xx_HAL_Driver/Src/stm32f4xx_hal.c **** 
 405:Drivers/STM32F4xx_HAL_Driver/Src/stm32f4xx_hal.c **** /**
 406:Drivers/STM32F4xx_HAL_Driver/Src/stm32f4xx_hal.c ****   * @brief Suspend Tick increment.
 407:Drivers/STM32F4xx_HAL_Driver/Src/stm32f4xx_hal.c ****   * @note In the default implementation , SysTick timer is the source of time base. It is
 408:Drivers/STM32F4xx_HAL_Driver/Src/stm32f4xx_hal.c ****   *       used to generate interrupts at regular time intervals. Once HAL_SuspendTick()
 409:Drivers/STM32F4xx_HAL_Driver/Src/stm32f4xx_hal.c ****   *       is called, the SysTick interrupt will be disabled and so Tick increment 
 410:Drivers/STM32F4xx_HAL_Driver/Src/stm32f4xx_hal.c ****   *       is suspended.
 411:Drivers/STM32F4xx_HAL_Driver/Src/stm32f4xx_hal.c ****   * @note This function is declared as __weak to be overwritten in case of other
 412:Drivers/STM32F4xx_HAL_Driver/Src/stm32f4xx_hal.c ****   *       implementations in user file.
 413:Drivers/STM32F4xx_HAL_Driver/Src/stm32f4xx_hal.c ****   * @retval None
 414:Drivers/STM32F4xx_HAL_Driver/Src/stm32f4xx_hal.c ****   */
 415:Drivers/STM32F4xx_HAL_Driver/Src/stm32f4xx_hal.c **** __weak void HAL_SuspendTick(void)
 416:Drivers/STM32F4xx_HAL_Driver/Src/stm32f4xx_hal.c **** {
 673              		.loc 1 416 1
 674              		.cfi_startproc
 675              		@ args = 0, pretend = 0, frame = 0
 676              		@ frame_needed = 1, uses_anonymous_args = 0
 677              		@ link register save eliminated.
 678 0000 80B4     		push	{r7}
 679              	.LCFI43:
 680              		.cfi_def_cfa_offset 4
 681              		.cfi_offset 7, -4
 682 0002 00AF     		add	r7, sp, #0
 683              	.LCFI44:
 684              		.cfi_def_cfa_register 7
 417:Drivers/STM32F4xx_HAL_Driver/Src/stm32f4xx_hal.c ****   /* Disable SysTick Interrupt */
 418:Drivers/STM32F4xx_HAL_Driver/Src/stm32f4xx_hal.c ****   SysTick->CTRL &= ~SysTick_CTRL_TICKINT_Msk;
 685              		.loc 1 418 17
 686 0004 054B     		ldr	r3, .L45
 687 0006 1B68     		ldr	r3, [r3]
 688 0008 044A     		ldr	r2, .L45
 689 000a 23F00203 		bic	r3, r3, #2
 690 000e 1360     		str	r3, [r2]
 419:Drivers/STM32F4xx_HAL_Driver/Src/stm32f4xx_hal.c **** }
ARM GAS  /var/folders/vq/qt4vp3kd5rxf7v2b6_fdtdt80000gn/T//cc2roKPb.s 			page 20


 691              		.loc 1 419 1
 692 0010 00BF     		nop
 693 0012 BD46     		mov	sp, r7
 694              	.LCFI45:
 695              		.cfi_def_cfa_register 13
 696              		@ sp needed
 697 0014 5DF8047B 		ldr	r7, [sp], #4
 698              	.LCFI46:
 699              		.cfi_restore 7
 700              		.cfi_def_cfa_offset 0
 701 0018 7047     		bx	lr
 702              	.L46:
 703 001a 00BF     		.align	2
 704              	.L45:
 705 001c 10E000E0 		.word	-536813552
 706              		.cfi_endproc
 707              	.LFE141:
 709              		.section	.text.HAL_ResumeTick,"ax",%progbits
 710              		.align	1
 711              		.weak	HAL_ResumeTick
 712              		.syntax unified
 713              		.thumb
 714              		.thumb_func
 715              		.fpu fpv4-sp-d16
 717              	HAL_ResumeTick:
 718              	.LFB142:
 420:Drivers/STM32F4xx_HAL_Driver/Src/stm32f4xx_hal.c **** 
 421:Drivers/STM32F4xx_HAL_Driver/Src/stm32f4xx_hal.c **** /**
 422:Drivers/STM32F4xx_HAL_Driver/Src/stm32f4xx_hal.c ****   * @brief Resume Tick increment.
 423:Drivers/STM32F4xx_HAL_Driver/Src/stm32f4xx_hal.c ****   * @note In the default implementation , SysTick timer is the source of time base. It is
 424:Drivers/STM32F4xx_HAL_Driver/Src/stm32f4xx_hal.c ****   *       used to generate interrupts at regular time intervals. Once HAL_ResumeTick()
 425:Drivers/STM32F4xx_HAL_Driver/Src/stm32f4xx_hal.c ****   *       is called, the SysTick interrupt will be enabled and so Tick increment 
 426:Drivers/STM32F4xx_HAL_Driver/Src/stm32f4xx_hal.c ****   *       is resumed.
 427:Drivers/STM32F4xx_HAL_Driver/Src/stm32f4xx_hal.c ****   * @note This function is declared as __weak to be overwritten in case of other
 428:Drivers/STM32F4xx_HAL_Driver/Src/stm32f4xx_hal.c ****   *       implementations in user file.
 429:Drivers/STM32F4xx_HAL_Driver/Src/stm32f4xx_hal.c ****   * @retval None
 430:Drivers/STM32F4xx_HAL_Driver/Src/stm32f4xx_hal.c ****   */
 431:Drivers/STM32F4xx_HAL_Driver/Src/stm32f4xx_hal.c **** __weak void HAL_ResumeTick(void)
 432:Drivers/STM32F4xx_HAL_Driver/Src/stm32f4xx_hal.c **** {
 719              		.loc 1 432 1
 720              		.cfi_startproc
 721              		@ args = 0, pretend = 0, frame = 0
 722              		@ frame_needed = 1, uses_anonymous_args = 0
 723              		@ link register save eliminated.
 724 0000 80B4     		push	{r7}
 725              	.LCFI47:
 726              		.cfi_def_cfa_offset 4
 727              		.cfi_offset 7, -4
 728 0002 00AF     		add	r7, sp, #0
 729              	.LCFI48:
 730              		.cfi_def_cfa_register 7
 433:Drivers/STM32F4xx_HAL_Driver/Src/stm32f4xx_hal.c ****   /* Enable SysTick Interrupt */
 434:Drivers/STM32F4xx_HAL_Driver/Src/stm32f4xx_hal.c ****   SysTick->CTRL  |= SysTick_CTRL_TICKINT_Msk;
 731              		.loc 1 434 18
 732 0004 054B     		ldr	r3, .L48
 733 0006 1B68     		ldr	r3, [r3]
 734 0008 044A     		ldr	r2, .L48
ARM GAS  /var/folders/vq/qt4vp3kd5rxf7v2b6_fdtdt80000gn/T//cc2roKPb.s 			page 21


 735 000a 43F00203 		orr	r3, r3, #2
 736 000e 1360     		str	r3, [r2]
 435:Drivers/STM32F4xx_HAL_Driver/Src/stm32f4xx_hal.c **** }
 737              		.loc 1 435 1
 738 0010 00BF     		nop
 739 0012 BD46     		mov	sp, r7
 740              	.LCFI49:
 741              		.cfi_def_cfa_register 13
 742              		@ sp needed
 743 0014 5DF8047B 		ldr	r7, [sp], #4
 744              	.LCFI50:
 745              		.cfi_restore 7
 746              		.cfi_def_cfa_offset 0
 747 0018 7047     		bx	lr
 748              	.L49:
 749 001a 00BF     		.align	2
 750              	.L48:
 751 001c 10E000E0 		.word	-536813552
 752              		.cfi_endproc
 753              	.LFE142:
 755              		.section	.text.HAL_GetHalVersion,"ax",%progbits
 756              		.align	1
 757              		.global	HAL_GetHalVersion
 758              		.syntax unified
 759              		.thumb
 760              		.thumb_func
 761              		.fpu fpv4-sp-d16
 763              	HAL_GetHalVersion:
 764              	.LFB143:
 436:Drivers/STM32F4xx_HAL_Driver/Src/stm32f4xx_hal.c **** 
 437:Drivers/STM32F4xx_HAL_Driver/Src/stm32f4xx_hal.c **** /**
 438:Drivers/STM32F4xx_HAL_Driver/Src/stm32f4xx_hal.c ****   * @brief  Returns the HAL revision
 439:Drivers/STM32F4xx_HAL_Driver/Src/stm32f4xx_hal.c ****   * @retval version : 0xXYZR (8bits for each decimal, R for RC)
 440:Drivers/STM32F4xx_HAL_Driver/Src/stm32f4xx_hal.c ****   */
 441:Drivers/STM32F4xx_HAL_Driver/Src/stm32f4xx_hal.c **** uint32_t HAL_GetHalVersion(void)
 442:Drivers/STM32F4xx_HAL_Driver/Src/stm32f4xx_hal.c **** {
 765              		.loc 1 442 1
 766              		.cfi_startproc
 767              		@ args = 0, pretend = 0, frame = 0
 768              		@ frame_needed = 1, uses_anonymous_args = 0
 769              		@ link register save eliminated.
 770 0000 80B4     		push	{r7}
 771              	.LCFI51:
 772              		.cfi_def_cfa_offset 4
 773              		.cfi_offset 7, -4
 774 0002 00AF     		add	r7, sp, #0
 775              	.LCFI52:
 776              		.cfi_def_cfa_register 7
 443:Drivers/STM32F4xx_HAL_Driver/Src/stm32f4xx_hal.c ****   return __STM32F4xx_HAL_VERSION;
 777              		.loc 1 443 10
 778 0004 024B     		ldr	r3, .L52
 444:Drivers/STM32F4xx_HAL_Driver/Src/stm32f4xx_hal.c **** }
 779              		.loc 1 444 1
 780 0006 1846     		mov	r0, r3
 781 0008 BD46     		mov	sp, r7
 782              	.LCFI53:
 783              		.cfi_def_cfa_register 13
ARM GAS  /var/folders/vq/qt4vp3kd5rxf7v2b6_fdtdt80000gn/T//cc2roKPb.s 			page 22


 784              		@ sp needed
 785 000a 5DF8047B 		ldr	r7, [sp], #4
 786              	.LCFI54:
 787              		.cfi_restore 7
 788              		.cfi_def_cfa_offset 0
 789 000e 7047     		bx	lr
 790              	.L53:
 791              		.align	2
 792              	.L52:
 793 0010 000C0701 		.word	17239040
 794              		.cfi_endproc
 795              	.LFE143:
 797              		.section	.text.HAL_GetREVID,"ax",%progbits
 798              		.align	1
 799              		.global	HAL_GetREVID
 800              		.syntax unified
 801              		.thumb
 802              		.thumb_func
 803              		.fpu fpv4-sp-d16
 805              	HAL_GetREVID:
 806              	.LFB144:
 445:Drivers/STM32F4xx_HAL_Driver/Src/stm32f4xx_hal.c **** 
 446:Drivers/STM32F4xx_HAL_Driver/Src/stm32f4xx_hal.c **** /**
 447:Drivers/STM32F4xx_HAL_Driver/Src/stm32f4xx_hal.c ****   * @brief  Returns the device revision identifier.
 448:Drivers/STM32F4xx_HAL_Driver/Src/stm32f4xx_hal.c ****   * @retval Device revision identifier
 449:Drivers/STM32F4xx_HAL_Driver/Src/stm32f4xx_hal.c ****   */
 450:Drivers/STM32F4xx_HAL_Driver/Src/stm32f4xx_hal.c **** uint32_t HAL_GetREVID(void)
 451:Drivers/STM32F4xx_HAL_Driver/Src/stm32f4xx_hal.c **** {
 807              		.loc 1 451 1
 808              		.cfi_startproc
 809              		@ args = 0, pretend = 0, frame = 0
 810              		@ frame_needed = 1, uses_anonymous_args = 0
 811              		@ link register save eliminated.
 812 0000 80B4     		push	{r7}
 813              	.LCFI55:
 814              		.cfi_def_cfa_offset 4
 815              		.cfi_offset 7, -4
 816 0002 00AF     		add	r7, sp, #0
 817              	.LCFI56:
 818              		.cfi_def_cfa_register 7
 452:Drivers/STM32F4xx_HAL_Driver/Src/stm32f4xx_hal.c ****   return((DBGMCU->IDCODE) >> 16U);
 819              		.loc 1 452 17
 820 0004 034B     		ldr	r3, .L56
 821 0006 1B68     		ldr	r3, [r3]
 822              		.loc 1 452 27
 823 0008 1B0C     		lsrs	r3, r3, #16
 453:Drivers/STM32F4xx_HAL_Driver/Src/stm32f4xx_hal.c **** }
 824              		.loc 1 453 1
 825 000a 1846     		mov	r0, r3
 826 000c BD46     		mov	sp, r7
 827              	.LCFI57:
 828              		.cfi_def_cfa_register 13
 829              		@ sp needed
 830 000e 5DF8047B 		ldr	r7, [sp], #4
 831              	.LCFI58:
 832              		.cfi_restore 7
 833              		.cfi_def_cfa_offset 0
ARM GAS  /var/folders/vq/qt4vp3kd5rxf7v2b6_fdtdt80000gn/T//cc2roKPb.s 			page 23


 834 0012 7047     		bx	lr
 835              	.L57:
 836              		.align	2
 837              	.L56:
 838 0014 002004E0 		.word	-536600576
 839              		.cfi_endproc
 840              	.LFE144:
 842              		.section	.text.HAL_GetDEVID,"ax",%progbits
 843              		.align	1
 844              		.global	HAL_GetDEVID
 845              		.syntax unified
 846              		.thumb
 847              		.thumb_func
 848              		.fpu fpv4-sp-d16
 850              	HAL_GetDEVID:
 851              	.LFB145:
 454:Drivers/STM32F4xx_HAL_Driver/Src/stm32f4xx_hal.c **** 
 455:Drivers/STM32F4xx_HAL_Driver/Src/stm32f4xx_hal.c **** /**
 456:Drivers/STM32F4xx_HAL_Driver/Src/stm32f4xx_hal.c ****   * @brief  Returns the device identifier.
 457:Drivers/STM32F4xx_HAL_Driver/Src/stm32f4xx_hal.c ****   * @retval Device identifier
 458:Drivers/STM32F4xx_HAL_Driver/Src/stm32f4xx_hal.c ****   */
 459:Drivers/STM32F4xx_HAL_Driver/Src/stm32f4xx_hal.c **** uint32_t HAL_GetDEVID(void)
 460:Drivers/STM32F4xx_HAL_Driver/Src/stm32f4xx_hal.c **** {
 852              		.loc 1 460 1
 853              		.cfi_startproc
 854              		@ args = 0, pretend = 0, frame = 0
 855              		@ frame_needed = 1, uses_anonymous_args = 0
 856              		@ link register save eliminated.
 857 0000 80B4     		push	{r7}
 858              	.LCFI59:
 859              		.cfi_def_cfa_offset 4
 860              		.cfi_offset 7, -4
 861 0002 00AF     		add	r7, sp, #0
 862              	.LCFI60:
 863              		.cfi_def_cfa_register 7
 461:Drivers/STM32F4xx_HAL_Driver/Src/stm32f4xx_hal.c ****   return((DBGMCU->IDCODE) & IDCODE_DEVID_MASK);
 864              		.loc 1 461 17
 865 0004 044B     		ldr	r3, .L60
 866 0006 1B68     		ldr	r3, [r3]
 867              		.loc 1 461 27
 868 0008 C3F30B03 		ubfx	r3, r3, #0, #12
 462:Drivers/STM32F4xx_HAL_Driver/Src/stm32f4xx_hal.c **** }
 869              		.loc 1 462 1
 870 000c 1846     		mov	r0, r3
 871 000e BD46     		mov	sp, r7
 872              	.LCFI61:
 873              		.cfi_def_cfa_register 13
 874              		@ sp needed
 875 0010 5DF8047B 		ldr	r7, [sp], #4
 876              	.LCFI62:
 877              		.cfi_restore 7
 878              		.cfi_def_cfa_offset 0
 879 0014 7047     		bx	lr
 880              	.L61:
 881 0016 00BF     		.align	2
 882              	.L60:
 883 0018 002004E0 		.word	-536600576
ARM GAS  /var/folders/vq/qt4vp3kd5rxf7v2b6_fdtdt80000gn/T//cc2roKPb.s 			page 24


 884              		.cfi_endproc
 885              	.LFE145:
 887              		.section	.text.HAL_DBGMCU_EnableDBGSleepMode,"ax",%progbits
 888              		.align	1
 889              		.global	HAL_DBGMCU_EnableDBGSleepMode
 890              		.syntax unified
 891              		.thumb
 892              		.thumb_func
 893              		.fpu fpv4-sp-d16
 895              	HAL_DBGMCU_EnableDBGSleepMode:
 896              	.LFB146:
 463:Drivers/STM32F4xx_HAL_Driver/Src/stm32f4xx_hal.c **** 
 464:Drivers/STM32F4xx_HAL_Driver/Src/stm32f4xx_hal.c **** /**
 465:Drivers/STM32F4xx_HAL_Driver/Src/stm32f4xx_hal.c ****   * @brief  Enable the Debug Module during SLEEP mode
 466:Drivers/STM32F4xx_HAL_Driver/Src/stm32f4xx_hal.c ****   * @retval None
 467:Drivers/STM32F4xx_HAL_Driver/Src/stm32f4xx_hal.c ****   */
 468:Drivers/STM32F4xx_HAL_Driver/Src/stm32f4xx_hal.c **** void HAL_DBGMCU_EnableDBGSleepMode(void)
 469:Drivers/STM32F4xx_HAL_Driver/Src/stm32f4xx_hal.c **** {
 897              		.loc 1 469 1
 898              		.cfi_startproc
 899              		@ args = 0, pretend = 0, frame = 0
 900              		@ frame_needed = 1, uses_anonymous_args = 0
 901              		@ link register save eliminated.
 902 0000 80B4     		push	{r7}
 903              	.LCFI63:
 904              		.cfi_def_cfa_offset 4
 905              		.cfi_offset 7, -4
 906 0002 00AF     		add	r7, sp, #0
 907              	.LCFI64:
 908              		.cfi_def_cfa_register 7
 470:Drivers/STM32F4xx_HAL_Driver/Src/stm32f4xx_hal.c ****   SET_BIT(DBGMCU->CR, DBGMCU_CR_DBG_SLEEP);
 909              		.loc 1 470 3
 910 0004 054B     		ldr	r3, .L63
 911 0006 5B68     		ldr	r3, [r3, #4]
 912 0008 044A     		ldr	r2, .L63
 913 000a 43F00103 		orr	r3, r3, #1
 914 000e 5360     		str	r3, [r2, #4]
 471:Drivers/STM32F4xx_HAL_Driver/Src/stm32f4xx_hal.c **** }
 915              		.loc 1 471 1
 916 0010 00BF     		nop
 917 0012 BD46     		mov	sp, r7
 918              	.LCFI65:
 919              		.cfi_def_cfa_register 13
 920              		@ sp needed
 921 0014 5DF8047B 		ldr	r7, [sp], #4
 922              	.LCFI66:
 923              		.cfi_restore 7
 924              		.cfi_def_cfa_offset 0
 925 0018 7047     		bx	lr
 926              	.L64:
 927 001a 00BF     		.align	2
 928              	.L63:
 929 001c 002004E0 		.word	-536600576
 930              		.cfi_endproc
 931              	.LFE146:
 933              		.section	.text.HAL_DBGMCU_DisableDBGSleepMode,"ax",%progbits
 934              		.align	1
ARM GAS  /var/folders/vq/qt4vp3kd5rxf7v2b6_fdtdt80000gn/T//cc2roKPb.s 			page 25


 935              		.global	HAL_DBGMCU_DisableDBGSleepMode
 936              		.syntax unified
 937              		.thumb
 938              		.thumb_func
 939              		.fpu fpv4-sp-d16
 941              	HAL_DBGMCU_DisableDBGSleepMode:
 942              	.LFB147:
 472:Drivers/STM32F4xx_HAL_Driver/Src/stm32f4xx_hal.c **** 
 473:Drivers/STM32F4xx_HAL_Driver/Src/stm32f4xx_hal.c **** /**
 474:Drivers/STM32F4xx_HAL_Driver/Src/stm32f4xx_hal.c ****   * @brief  Disable the Debug Module during SLEEP mode
 475:Drivers/STM32F4xx_HAL_Driver/Src/stm32f4xx_hal.c ****   * @retval None
 476:Drivers/STM32F4xx_HAL_Driver/Src/stm32f4xx_hal.c ****   */
 477:Drivers/STM32F4xx_HAL_Driver/Src/stm32f4xx_hal.c **** void HAL_DBGMCU_DisableDBGSleepMode(void)
 478:Drivers/STM32F4xx_HAL_Driver/Src/stm32f4xx_hal.c **** {
 943              		.loc 1 478 1
 944              		.cfi_startproc
 945              		@ args = 0, pretend = 0, frame = 0
 946              		@ frame_needed = 1, uses_anonymous_args = 0
 947              		@ link register save eliminated.
 948 0000 80B4     		push	{r7}
 949              	.LCFI67:
 950              		.cfi_def_cfa_offset 4
 951              		.cfi_offset 7, -4
 952 0002 00AF     		add	r7, sp, #0
 953              	.LCFI68:
 954              		.cfi_def_cfa_register 7
 479:Drivers/STM32F4xx_HAL_Driver/Src/stm32f4xx_hal.c ****   CLEAR_BIT(DBGMCU->CR, DBGMCU_CR_DBG_SLEEP);
 955              		.loc 1 479 3
 956 0004 054B     		ldr	r3, .L66
 957 0006 5B68     		ldr	r3, [r3, #4]
 958 0008 044A     		ldr	r2, .L66
 959 000a 23F00103 		bic	r3, r3, #1
 960 000e 5360     		str	r3, [r2, #4]
 480:Drivers/STM32F4xx_HAL_Driver/Src/stm32f4xx_hal.c **** }
 961              		.loc 1 480 1
 962 0010 00BF     		nop
 963 0012 BD46     		mov	sp, r7
 964              	.LCFI69:
 965              		.cfi_def_cfa_register 13
 966              		@ sp needed
 967 0014 5DF8047B 		ldr	r7, [sp], #4
 968              	.LCFI70:
 969              		.cfi_restore 7
 970              		.cfi_def_cfa_offset 0
 971 0018 7047     		bx	lr
 972              	.L67:
 973 001a 00BF     		.align	2
 974              	.L66:
 975 001c 002004E0 		.word	-536600576
 976              		.cfi_endproc
 977              	.LFE147:
 979              		.section	.text.HAL_DBGMCU_EnableDBGStopMode,"ax",%progbits
 980              		.align	1
 981              		.global	HAL_DBGMCU_EnableDBGStopMode
 982              		.syntax unified
 983              		.thumb
 984              		.thumb_func
ARM GAS  /var/folders/vq/qt4vp3kd5rxf7v2b6_fdtdt80000gn/T//cc2roKPb.s 			page 26


 985              		.fpu fpv4-sp-d16
 987              	HAL_DBGMCU_EnableDBGStopMode:
 988              	.LFB148:
 481:Drivers/STM32F4xx_HAL_Driver/Src/stm32f4xx_hal.c **** 
 482:Drivers/STM32F4xx_HAL_Driver/Src/stm32f4xx_hal.c **** /**
 483:Drivers/STM32F4xx_HAL_Driver/Src/stm32f4xx_hal.c ****   * @brief  Enable the Debug Module during STOP mode
 484:Drivers/STM32F4xx_HAL_Driver/Src/stm32f4xx_hal.c ****   * @retval None
 485:Drivers/STM32F4xx_HAL_Driver/Src/stm32f4xx_hal.c ****   */
 486:Drivers/STM32F4xx_HAL_Driver/Src/stm32f4xx_hal.c **** void HAL_DBGMCU_EnableDBGStopMode(void)
 487:Drivers/STM32F4xx_HAL_Driver/Src/stm32f4xx_hal.c **** {
 989              		.loc 1 487 1
 990              		.cfi_startproc
 991              		@ args = 0, pretend = 0, frame = 0
 992              		@ frame_needed = 1, uses_anonymous_args = 0
 993              		@ link register save eliminated.
 994 0000 80B4     		push	{r7}
 995              	.LCFI71:
 996              		.cfi_def_cfa_offset 4
 997              		.cfi_offset 7, -4
 998 0002 00AF     		add	r7, sp, #0
 999              	.LCFI72:
 1000              		.cfi_def_cfa_register 7
 488:Drivers/STM32F4xx_HAL_Driver/Src/stm32f4xx_hal.c ****   SET_BIT(DBGMCU->CR, DBGMCU_CR_DBG_STOP);
 1001              		.loc 1 488 3
 1002 0004 054B     		ldr	r3, .L69
 1003 0006 5B68     		ldr	r3, [r3, #4]
 1004 0008 044A     		ldr	r2, .L69
 1005 000a 43F00203 		orr	r3, r3, #2
 1006 000e 5360     		str	r3, [r2, #4]
 489:Drivers/STM32F4xx_HAL_Driver/Src/stm32f4xx_hal.c **** }
 1007              		.loc 1 489 1
 1008 0010 00BF     		nop
 1009 0012 BD46     		mov	sp, r7
 1010              	.LCFI73:
 1011              		.cfi_def_cfa_register 13
 1012              		@ sp needed
 1013 0014 5DF8047B 		ldr	r7, [sp], #4
 1014              	.LCFI74:
 1015              		.cfi_restore 7
 1016              		.cfi_def_cfa_offset 0
 1017 0018 7047     		bx	lr
 1018              	.L70:
 1019 001a 00BF     		.align	2
 1020              	.L69:
 1021 001c 002004E0 		.word	-536600576
 1022              		.cfi_endproc
 1023              	.LFE148:
 1025              		.section	.text.HAL_DBGMCU_DisableDBGStopMode,"ax",%progbits
 1026              		.align	1
 1027              		.global	HAL_DBGMCU_DisableDBGStopMode
 1028              		.syntax unified
 1029              		.thumb
 1030              		.thumb_func
 1031              		.fpu fpv4-sp-d16
 1033              	HAL_DBGMCU_DisableDBGStopMode:
 1034              	.LFB149:
 490:Drivers/STM32F4xx_HAL_Driver/Src/stm32f4xx_hal.c **** 
ARM GAS  /var/folders/vq/qt4vp3kd5rxf7v2b6_fdtdt80000gn/T//cc2roKPb.s 			page 27


 491:Drivers/STM32F4xx_HAL_Driver/Src/stm32f4xx_hal.c **** /**
 492:Drivers/STM32F4xx_HAL_Driver/Src/stm32f4xx_hal.c ****   * @brief  Disable the Debug Module during STOP mode
 493:Drivers/STM32F4xx_HAL_Driver/Src/stm32f4xx_hal.c ****   * @retval None
 494:Drivers/STM32F4xx_HAL_Driver/Src/stm32f4xx_hal.c ****   */
 495:Drivers/STM32F4xx_HAL_Driver/Src/stm32f4xx_hal.c **** void HAL_DBGMCU_DisableDBGStopMode(void)
 496:Drivers/STM32F4xx_HAL_Driver/Src/stm32f4xx_hal.c **** {
 1035              		.loc 1 496 1
 1036              		.cfi_startproc
 1037              		@ args = 0, pretend = 0, frame = 0
 1038              		@ frame_needed = 1, uses_anonymous_args = 0
 1039              		@ link register save eliminated.
 1040 0000 80B4     		push	{r7}
 1041              	.LCFI75:
 1042              		.cfi_def_cfa_offset 4
 1043              		.cfi_offset 7, -4
 1044 0002 00AF     		add	r7, sp, #0
 1045              	.LCFI76:
 1046              		.cfi_def_cfa_register 7
 497:Drivers/STM32F4xx_HAL_Driver/Src/stm32f4xx_hal.c ****   CLEAR_BIT(DBGMCU->CR, DBGMCU_CR_DBG_STOP);
 1047              		.loc 1 497 3
 1048 0004 054B     		ldr	r3, .L72
 1049 0006 5B68     		ldr	r3, [r3, #4]
 1050 0008 044A     		ldr	r2, .L72
 1051 000a 23F00203 		bic	r3, r3, #2
 1052 000e 5360     		str	r3, [r2, #4]
 498:Drivers/STM32F4xx_HAL_Driver/Src/stm32f4xx_hal.c **** }
 1053              		.loc 1 498 1
 1054 0010 00BF     		nop
 1055 0012 BD46     		mov	sp, r7
 1056              	.LCFI77:
 1057              		.cfi_def_cfa_register 13
 1058              		@ sp needed
 1059 0014 5DF8047B 		ldr	r7, [sp], #4
 1060              	.LCFI78:
 1061              		.cfi_restore 7
 1062              		.cfi_def_cfa_offset 0
 1063 0018 7047     		bx	lr
 1064              	.L73:
 1065 001a 00BF     		.align	2
 1066              	.L72:
 1067 001c 002004E0 		.word	-536600576
 1068              		.cfi_endproc
 1069              	.LFE149:
 1071              		.section	.text.HAL_DBGMCU_EnableDBGStandbyMode,"ax",%progbits
 1072              		.align	1
 1073              		.global	HAL_DBGMCU_EnableDBGStandbyMode
 1074              		.syntax unified
 1075              		.thumb
 1076              		.thumb_func
 1077              		.fpu fpv4-sp-d16
 1079              	HAL_DBGMCU_EnableDBGStandbyMode:
 1080              	.LFB150:
 499:Drivers/STM32F4xx_HAL_Driver/Src/stm32f4xx_hal.c **** 
 500:Drivers/STM32F4xx_HAL_Driver/Src/stm32f4xx_hal.c **** /**
 501:Drivers/STM32F4xx_HAL_Driver/Src/stm32f4xx_hal.c ****   * @brief  Enable the Debug Module during STANDBY mode
 502:Drivers/STM32F4xx_HAL_Driver/Src/stm32f4xx_hal.c ****   * @retval None
 503:Drivers/STM32F4xx_HAL_Driver/Src/stm32f4xx_hal.c ****   */
ARM GAS  /var/folders/vq/qt4vp3kd5rxf7v2b6_fdtdt80000gn/T//cc2roKPb.s 			page 28


 504:Drivers/STM32F4xx_HAL_Driver/Src/stm32f4xx_hal.c **** void HAL_DBGMCU_EnableDBGStandbyMode(void)
 505:Drivers/STM32F4xx_HAL_Driver/Src/stm32f4xx_hal.c **** {
 1081              		.loc 1 505 1
 1082              		.cfi_startproc
 1083              		@ args = 0, pretend = 0, frame = 0
 1084              		@ frame_needed = 1, uses_anonymous_args = 0
 1085              		@ link register save eliminated.
 1086 0000 80B4     		push	{r7}
 1087              	.LCFI79:
 1088              		.cfi_def_cfa_offset 4
 1089              		.cfi_offset 7, -4
 1090 0002 00AF     		add	r7, sp, #0
 1091              	.LCFI80:
 1092              		.cfi_def_cfa_register 7
 506:Drivers/STM32F4xx_HAL_Driver/Src/stm32f4xx_hal.c ****   SET_BIT(DBGMCU->CR, DBGMCU_CR_DBG_STANDBY);
 1093              		.loc 1 506 3
 1094 0004 054B     		ldr	r3, .L75
 1095 0006 5B68     		ldr	r3, [r3, #4]
 1096 0008 044A     		ldr	r2, .L75
 1097 000a 43F00403 		orr	r3, r3, #4
 1098 000e 5360     		str	r3, [r2, #4]
 507:Drivers/STM32F4xx_HAL_Driver/Src/stm32f4xx_hal.c **** }
 1099              		.loc 1 507 1
 1100 0010 00BF     		nop
 1101 0012 BD46     		mov	sp, r7
 1102              	.LCFI81:
 1103              		.cfi_def_cfa_register 13
 1104              		@ sp needed
 1105 0014 5DF8047B 		ldr	r7, [sp], #4
 1106              	.LCFI82:
 1107              		.cfi_restore 7
 1108              		.cfi_def_cfa_offset 0
 1109 0018 7047     		bx	lr
 1110              	.L76:
 1111 001a 00BF     		.align	2
 1112              	.L75:
 1113 001c 002004E0 		.word	-536600576
 1114              		.cfi_endproc
 1115              	.LFE150:
 1117              		.section	.text.HAL_DBGMCU_DisableDBGStandbyMode,"ax",%progbits
 1118              		.align	1
 1119              		.global	HAL_DBGMCU_DisableDBGStandbyMode
 1120              		.syntax unified
 1121              		.thumb
 1122              		.thumb_func
 1123              		.fpu fpv4-sp-d16
 1125              	HAL_DBGMCU_DisableDBGStandbyMode:
 1126              	.LFB151:
 508:Drivers/STM32F4xx_HAL_Driver/Src/stm32f4xx_hal.c **** 
 509:Drivers/STM32F4xx_HAL_Driver/Src/stm32f4xx_hal.c **** /**
 510:Drivers/STM32F4xx_HAL_Driver/Src/stm32f4xx_hal.c ****   * @brief  Disable the Debug Module during STANDBY mode
 511:Drivers/STM32F4xx_HAL_Driver/Src/stm32f4xx_hal.c ****   * @retval None
 512:Drivers/STM32F4xx_HAL_Driver/Src/stm32f4xx_hal.c ****   */
 513:Drivers/STM32F4xx_HAL_Driver/Src/stm32f4xx_hal.c **** void HAL_DBGMCU_DisableDBGStandbyMode(void)
 514:Drivers/STM32F4xx_HAL_Driver/Src/stm32f4xx_hal.c **** {
 1127              		.loc 1 514 1
 1128              		.cfi_startproc
ARM GAS  /var/folders/vq/qt4vp3kd5rxf7v2b6_fdtdt80000gn/T//cc2roKPb.s 			page 29


 1129              		@ args = 0, pretend = 0, frame = 0
 1130              		@ frame_needed = 1, uses_anonymous_args = 0
 1131              		@ link register save eliminated.
 1132 0000 80B4     		push	{r7}
 1133              	.LCFI83:
 1134              		.cfi_def_cfa_offset 4
 1135              		.cfi_offset 7, -4
 1136 0002 00AF     		add	r7, sp, #0
 1137              	.LCFI84:
 1138              		.cfi_def_cfa_register 7
 515:Drivers/STM32F4xx_HAL_Driver/Src/stm32f4xx_hal.c ****   CLEAR_BIT(DBGMCU->CR, DBGMCU_CR_DBG_STANDBY);
 1139              		.loc 1 515 3
 1140 0004 054B     		ldr	r3, .L78
 1141 0006 5B68     		ldr	r3, [r3, #4]
 1142 0008 044A     		ldr	r2, .L78
 1143 000a 23F00403 		bic	r3, r3, #4
 1144 000e 5360     		str	r3, [r2, #4]
 516:Drivers/STM32F4xx_HAL_Driver/Src/stm32f4xx_hal.c **** }
 1145              		.loc 1 516 1
 1146 0010 00BF     		nop
 1147 0012 BD46     		mov	sp, r7
 1148              	.LCFI85:
 1149              		.cfi_def_cfa_register 13
 1150              		@ sp needed
 1151 0014 5DF8047B 		ldr	r7, [sp], #4
 1152              	.LCFI86:
 1153              		.cfi_restore 7
 1154              		.cfi_def_cfa_offset 0
 1155 0018 7047     		bx	lr
 1156              	.L79:
 1157 001a 00BF     		.align	2
 1158              	.L78:
 1159 001c 002004E0 		.word	-536600576
 1160              		.cfi_endproc
 1161              	.LFE151:
 1163              		.section	.text.HAL_EnableCompensationCell,"ax",%progbits
 1164              		.align	1
 1165              		.global	HAL_EnableCompensationCell
 1166              		.syntax unified
 1167              		.thumb
 1168              		.thumb_func
 1169              		.fpu fpv4-sp-d16
 1171              	HAL_EnableCompensationCell:
 1172              	.LFB152:
 517:Drivers/STM32F4xx_HAL_Driver/Src/stm32f4xx_hal.c **** 
 518:Drivers/STM32F4xx_HAL_Driver/Src/stm32f4xx_hal.c **** /**
 519:Drivers/STM32F4xx_HAL_Driver/Src/stm32f4xx_hal.c ****   * @brief  Enables the I/O Compensation Cell.
 520:Drivers/STM32F4xx_HAL_Driver/Src/stm32f4xx_hal.c ****   * @note   The I/O compensation cell can be used only when the device supply
 521:Drivers/STM32F4xx_HAL_Driver/Src/stm32f4xx_hal.c ****   *         voltage ranges from 2.4 to 3.6 V.  
 522:Drivers/STM32F4xx_HAL_Driver/Src/stm32f4xx_hal.c ****   * @retval None
 523:Drivers/STM32F4xx_HAL_Driver/Src/stm32f4xx_hal.c ****   */
 524:Drivers/STM32F4xx_HAL_Driver/Src/stm32f4xx_hal.c **** void HAL_EnableCompensationCell(void)
 525:Drivers/STM32F4xx_HAL_Driver/Src/stm32f4xx_hal.c **** {
 1173              		.loc 1 525 1
 1174              		.cfi_startproc
 1175              		@ args = 0, pretend = 0, frame = 0
 1176              		@ frame_needed = 1, uses_anonymous_args = 0
ARM GAS  /var/folders/vq/qt4vp3kd5rxf7v2b6_fdtdt80000gn/T//cc2roKPb.s 			page 30


 1177              		@ link register save eliminated.
 1178 0000 80B4     		push	{r7}
 1179              	.LCFI87:
 1180              		.cfi_def_cfa_offset 4
 1181              		.cfi_offset 7, -4
 1182 0002 00AF     		add	r7, sp, #0
 1183              	.LCFI88:
 1184              		.cfi_def_cfa_register 7
 526:Drivers/STM32F4xx_HAL_Driver/Src/stm32f4xx_hal.c ****   *(__IO uint32_t *)CMPCR_CMP_PD_BB = (uint32_t)ENABLE;
 1185              		.loc 1 526 3
 1186 0004 034B     		ldr	r3, .L81
 1187              		.loc 1 526 37
 1188 0006 0122     		movs	r2, #1
 1189 0008 1A60     		str	r2, [r3]
 527:Drivers/STM32F4xx_HAL_Driver/Src/stm32f4xx_hal.c **** }
 1190              		.loc 1 527 1
 1191 000a 00BF     		nop
 1192 000c BD46     		mov	sp, r7
 1193              	.LCFI89:
 1194              		.cfi_def_cfa_register 13
 1195              		@ sp needed
 1196 000e 5DF8047B 		ldr	r7, [sp], #4
 1197              	.LCFI90:
 1198              		.cfi_restore 7
 1199              		.cfi_def_cfa_offset 0
 1200 0012 7047     		bx	lr
 1201              	.L82:
 1202              		.align	2
 1203              	.L81:
 1204 0014 00042742 		.word	1109853184
 1205              		.cfi_endproc
 1206              	.LFE152:
 1208              		.section	.text.HAL_DisableCompensationCell,"ax",%progbits
 1209              		.align	1
 1210              		.global	HAL_DisableCompensationCell
 1211              		.syntax unified
 1212              		.thumb
 1213              		.thumb_func
 1214              		.fpu fpv4-sp-d16
 1216              	HAL_DisableCompensationCell:
 1217              	.LFB153:
 528:Drivers/STM32F4xx_HAL_Driver/Src/stm32f4xx_hal.c **** 
 529:Drivers/STM32F4xx_HAL_Driver/Src/stm32f4xx_hal.c **** /**
 530:Drivers/STM32F4xx_HAL_Driver/Src/stm32f4xx_hal.c ****   * @brief  Power-down the I/O Compensation Cell.
 531:Drivers/STM32F4xx_HAL_Driver/Src/stm32f4xx_hal.c ****   * @note   The I/O compensation cell can be used only when the device supply
 532:Drivers/STM32F4xx_HAL_Driver/Src/stm32f4xx_hal.c ****   *         voltage ranges from 2.4 to 3.6 V.  
 533:Drivers/STM32F4xx_HAL_Driver/Src/stm32f4xx_hal.c ****   * @retval None
 534:Drivers/STM32F4xx_HAL_Driver/Src/stm32f4xx_hal.c ****   */
 535:Drivers/STM32F4xx_HAL_Driver/Src/stm32f4xx_hal.c **** void HAL_DisableCompensationCell(void)
 536:Drivers/STM32F4xx_HAL_Driver/Src/stm32f4xx_hal.c **** {
 1218              		.loc 1 536 1
 1219              		.cfi_startproc
 1220              		@ args = 0, pretend = 0, frame = 0
 1221              		@ frame_needed = 1, uses_anonymous_args = 0
 1222              		@ link register save eliminated.
 1223 0000 80B4     		push	{r7}
 1224              	.LCFI91:
ARM GAS  /var/folders/vq/qt4vp3kd5rxf7v2b6_fdtdt80000gn/T//cc2roKPb.s 			page 31


 1225              		.cfi_def_cfa_offset 4
 1226              		.cfi_offset 7, -4
 1227 0002 00AF     		add	r7, sp, #0
 1228              	.LCFI92:
 1229              		.cfi_def_cfa_register 7
 537:Drivers/STM32F4xx_HAL_Driver/Src/stm32f4xx_hal.c ****   *(__IO uint32_t *)CMPCR_CMP_PD_BB = (uint32_t)DISABLE;
 1230              		.loc 1 537 3
 1231 0004 034B     		ldr	r3, .L84
 1232              		.loc 1 537 37
 1233 0006 0022     		movs	r2, #0
 1234 0008 1A60     		str	r2, [r3]
 538:Drivers/STM32F4xx_HAL_Driver/Src/stm32f4xx_hal.c **** }
 1235              		.loc 1 538 1
 1236 000a 00BF     		nop
 1237 000c BD46     		mov	sp, r7
 1238              	.LCFI93:
 1239              		.cfi_def_cfa_register 13
 1240              		@ sp needed
 1241 000e 5DF8047B 		ldr	r7, [sp], #4
 1242              	.LCFI94:
 1243              		.cfi_restore 7
 1244              		.cfi_def_cfa_offset 0
 1245 0012 7047     		bx	lr
 1246              	.L85:
 1247              		.align	2
 1248              	.L84:
 1249 0014 00042742 		.word	1109853184
 1250              		.cfi_endproc
 1251              	.LFE153:
 1253              		.section	.text.HAL_GetUIDw0,"ax",%progbits
 1254              		.align	1
 1255              		.global	HAL_GetUIDw0
 1256              		.syntax unified
 1257              		.thumb
 1258              		.thumb_func
 1259              		.fpu fpv4-sp-d16
 1261              	HAL_GetUIDw0:
 1262              	.LFB154:
 539:Drivers/STM32F4xx_HAL_Driver/Src/stm32f4xx_hal.c **** 
 540:Drivers/STM32F4xx_HAL_Driver/Src/stm32f4xx_hal.c **** /**
 541:Drivers/STM32F4xx_HAL_Driver/Src/stm32f4xx_hal.c ****   * @brief  Returns first word of the unique device identifier (UID based on 96 bits)
 542:Drivers/STM32F4xx_HAL_Driver/Src/stm32f4xx_hal.c ****   * @retval Device identifier
 543:Drivers/STM32F4xx_HAL_Driver/Src/stm32f4xx_hal.c ****   */
 544:Drivers/STM32F4xx_HAL_Driver/Src/stm32f4xx_hal.c **** uint32_t HAL_GetUIDw0(void)
 545:Drivers/STM32F4xx_HAL_Driver/Src/stm32f4xx_hal.c **** {
 1263              		.loc 1 545 1
 1264              		.cfi_startproc
 1265              		@ args = 0, pretend = 0, frame = 0
 1266              		@ frame_needed = 1, uses_anonymous_args = 0
 1267              		@ link register save eliminated.
 1268 0000 80B4     		push	{r7}
 1269              	.LCFI95:
 1270              		.cfi_def_cfa_offset 4
 1271              		.cfi_offset 7, -4
 1272 0002 00AF     		add	r7, sp, #0
 1273              	.LCFI96:
 1274              		.cfi_def_cfa_register 7
ARM GAS  /var/folders/vq/qt4vp3kd5rxf7v2b6_fdtdt80000gn/T//cc2roKPb.s 			page 32


 546:Drivers/STM32F4xx_HAL_Driver/Src/stm32f4xx_hal.c ****   return (READ_REG(*((uint32_t *)UID_BASE)));
 1275              		.loc 1 546 11
 1276 0004 034B     		ldr	r3, .L88
 1277 0006 1B68     		ldr	r3, [r3]
 547:Drivers/STM32F4xx_HAL_Driver/Src/stm32f4xx_hal.c **** }
 1278              		.loc 1 547 1
 1279 0008 1846     		mov	r0, r3
 1280 000a BD46     		mov	sp, r7
 1281              	.LCFI97:
 1282              		.cfi_def_cfa_register 13
 1283              		@ sp needed
 1284 000c 5DF8047B 		ldr	r7, [sp], #4
 1285              	.LCFI98:
 1286              		.cfi_restore 7
 1287              		.cfi_def_cfa_offset 0
 1288 0010 7047     		bx	lr
 1289              	.L89:
 1290 0012 00BF     		.align	2
 1291              	.L88:
 1292 0014 107AFF1F 		.word	536836624
 1293              		.cfi_endproc
 1294              	.LFE154:
 1296              		.section	.text.HAL_GetUIDw1,"ax",%progbits
 1297              		.align	1
 1298              		.global	HAL_GetUIDw1
 1299              		.syntax unified
 1300              		.thumb
 1301              		.thumb_func
 1302              		.fpu fpv4-sp-d16
 1304              	HAL_GetUIDw1:
 1305              	.LFB155:
 548:Drivers/STM32F4xx_HAL_Driver/Src/stm32f4xx_hal.c **** 
 549:Drivers/STM32F4xx_HAL_Driver/Src/stm32f4xx_hal.c **** /**
 550:Drivers/STM32F4xx_HAL_Driver/Src/stm32f4xx_hal.c ****   * @brief  Returns second word of the unique device identifier (UID based on 96 bits)
 551:Drivers/STM32F4xx_HAL_Driver/Src/stm32f4xx_hal.c ****   * @retval Device identifier
 552:Drivers/STM32F4xx_HAL_Driver/Src/stm32f4xx_hal.c ****   */
 553:Drivers/STM32F4xx_HAL_Driver/Src/stm32f4xx_hal.c **** uint32_t HAL_GetUIDw1(void)
 554:Drivers/STM32F4xx_HAL_Driver/Src/stm32f4xx_hal.c **** {
 1306              		.loc 1 554 1
 1307              		.cfi_startproc
 1308              		@ args = 0, pretend = 0, frame = 0
 1309              		@ frame_needed = 1, uses_anonymous_args = 0
 1310              		@ link register save eliminated.
 1311 0000 80B4     		push	{r7}
 1312              	.LCFI99:
 1313              		.cfi_def_cfa_offset 4
 1314              		.cfi_offset 7, -4
 1315 0002 00AF     		add	r7, sp, #0
 1316              	.LCFI100:
 1317              		.cfi_def_cfa_register 7
 555:Drivers/STM32F4xx_HAL_Driver/Src/stm32f4xx_hal.c ****   return (READ_REG(*((uint32_t *)(UID_BASE + 4U))));
 1318              		.loc 1 555 11
 1319 0004 034B     		ldr	r3, .L92
 1320 0006 1B68     		ldr	r3, [r3]
 556:Drivers/STM32F4xx_HAL_Driver/Src/stm32f4xx_hal.c **** }
 1321              		.loc 1 556 1
 1322 0008 1846     		mov	r0, r3
ARM GAS  /var/folders/vq/qt4vp3kd5rxf7v2b6_fdtdt80000gn/T//cc2roKPb.s 			page 33


 1323 000a BD46     		mov	sp, r7
 1324              	.LCFI101:
 1325              		.cfi_def_cfa_register 13
 1326              		@ sp needed
 1327 000c 5DF8047B 		ldr	r7, [sp], #4
 1328              	.LCFI102:
 1329              		.cfi_restore 7
 1330              		.cfi_def_cfa_offset 0
 1331 0010 7047     		bx	lr
 1332              	.L93:
 1333 0012 00BF     		.align	2
 1334              	.L92:
 1335 0014 147AFF1F 		.word	536836628
 1336              		.cfi_endproc
 1337              	.LFE155:
 1339              		.section	.text.HAL_GetUIDw2,"ax",%progbits
 1340              		.align	1
 1341              		.global	HAL_GetUIDw2
 1342              		.syntax unified
 1343              		.thumb
 1344              		.thumb_func
 1345              		.fpu fpv4-sp-d16
 1347              	HAL_GetUIDw2:
 1348              	.LFB156:
 557:Drivers/STM32F4xx_HAL_Driver/Src/stm32f4xx_hal.c **** 
 558:Drivers/STM32F4xx_HAL_Driver/Src/stm32f4xx_hal.c **** /**
 559:Drivers/STM32F4xx_HAL_Driver/Src/stm32f4xx_hal.c ****   * @brief  Returns third word of the unique device identifier (UID based on 96 bits)
 560:Drivers/STM32F4xx_HAL_Driver/Src/stm32f4xx_hal.c ****   * @retval Device identifier
 561:Drivers/STM32F4xx_HAL_Driver/Src/stm32f4xx_hal.c ****   */
 562:Drivers/STM32F4xx_HAL_Driver/Src/stm32f4xx_hal.c **** uint32_t HAL_GetUIDw2(void)
 563:Drivers/STM32F4xx_HAL_Driver/Src/stm32f4xx_hal.c **** {
 1349              		.loc 1 563 1
 1350              		.cfi_startproc
 1351              		@ args = 0, pretend = 0, frame = 0
 1352              		@ frame_needed = 1, uses_anonymous_args = 0
 1353              		@ link register save eliminated.
 1354 0000 80B4     		push	{r7}
 1355              	.LCFI103:
 1356              		.cfi_def_cfa_offset 4
 1357              		.cfi_offset 7, -4
 1358 0002 00AF     		add	r7, sp, #0
 1359              	.LCFI104:
 1360              		.cfi_def_cfa_register 7
 564:Drivers/STM32F4xx_HAL_Driver/Src/stm32f4xx_hal.c ****   return (READ_REG(*((uint32_t *)(UID_BASE + 8U))));
 1361              		.loc 1 564 11
 1362 0004 034B     		ldr	r3, .L96
 1363 0006 1B68     		ldr	r3, [r3]
 565:Drivers/STM32F4xx_HAL_Driver/Src/stm32f4xx_hal.c **** }
 1364              		.loc 1 565 1
 1365 0008 1846     		mov	r0, r3
 1366 000a BD46     		mov	sp, r7
 1367              	.LCFI105:
 1368              		.cfi_def_cfa_register 13
 1369              		@ sp needed
 1370 000c 5DF8047B 		ldr	r7, [sp], #4
 1371              	.LCFI106:
 1372              		.cfi_restore 7
ARM GAS  /var/folders/vq/qt4vp3kd5rxf7v2b6_fdtdt80000gn/T//cc2roKPb.s 			page 34


 1373              		.cfi_def_cfa_offset 0
 1374 0010 7047     		bx	lr
 1375              	.L97:
 1376 0012 00BF     		.align	2
 1377              	.L96:
 1378 0014 187AFF1F 		.word	536836632
 1379              		.cfi_endproc
 1380              	.LFE156:
 1382              		.text
 1383              	.Letext0:
 1384              		.file 2 "/usr/local/Cellar/arm-none-eabi-gcc/9-2019-q4-major/gcc/arm-none-eabi/include/machine/_de
 1385              		.file 3 "/usr/local/Cellar/arm-none-eabi-gcc/9-2019-q4-major/gcc/arm-none-eabi/include/sys/_stdint
 1386              		.file 4 "Drivers/CMSIS/Include/core_cm4.h"
 1387              		.file 5 "Drivers/CMSIS/Device/ST/STM32F4xx/Include/system_stm32f4xx.h"
 1388              		.file 6 "Drivers/CMSIS/Device/ST/STM32F4xx/Include/stm32f407xx.h"
 1389              		.file 7 "Drivers/CMSIS/Device/ST/STM32F4xx/Include/stm32f4xx.h"
 1390              		.file 8 "Drivers/STM32F4xx_HAL_Driver/Inc/stm32f4xx_hal_def.h"
 1391              		.file 9 "Drivers/STM32F4xx_HAL_Driver/Inc/stm32f4xx_hal.h"
ARM GAS  /var/folders/vq/qt4vp3kd5rxf7v2b6_fdtdt80000gn/T//cc2roKPb.s 			page 35

