ARM GAS  /var/folders/vq/qt4vp3kd5rxf7v2b6_fdtdt80000gn/T//cccgRN2W.s 			page 1


   1              		.cpu cortex-m4
   2              		.eabi_attribute 27, 1
   3              		.eabi_attribute 28, 1
   4              		.eabi_attribute 20, 1
   5              		.eabi_attribute 21, 1
   6              		.eabi_attribute 23, 3
   7              		.eabi_attribute 24, 1
   8              		.eabi_attribute 25, 1
   9              		.eabi_attribute 26, 1
  10              		.eabi_attribute 30, 6
  11              		.eabi_attribute 34, 1
  12              		.eabi_attribute 18, 4
  13              		.file	"usbd_cdc.c"
  14              		.text
  15              	.Ltext0:
  16              		.cfi_sections	.debug_frame
  17              		.section	.data.USBD_CDC_DeviceQualifierDesc,"aw"
  18              		.align	2
  21              	USBD_CDC_DeviceQualifierDesc:
  22 0000 0A060002 		.ascii	"\012\006\000\002\000\000\000@\001\000"
  22      00000040 
  22      0100
  23              		.global	USBD_CDC
  24              		.section	.data.USBD_CDC,"aw"
  25              		.align	2
  28              	USBD_CDC:
  29 0000 00000000 		.word	USBD_CDC_Init
  30 0004 00000000 		.word	USBD_CDC_DeInit
  31 0008 00000000 		.word	USBD_CDC_Setup
  32 000c 00000000 		.word	0
  33 0010 00000000 		.word	USBD_CDC_EP0_RxReady
  34 0014 00000000 		.word	USBD_CDC_DataIn
  35 0018 00000000 		.word	USBD_CDC_DataOut
  36 001c 00000000 		.word	0
  37 0020 00000000 		.word	0
  38 0024 00000000 		.word	0
  39 0028 00000000 		.word	USBD_CDC_GetHSCfgDesc
  40 002c 00000000 		.word	USBD_CDC_GetFSCfgDesc
  41 0030 00000000 		.word	USBD_CDC_GetOtherSpeedCfgDesc
  42 0034 00000000 		.word	USBD_CDC_GetDeviceQualifierDescriptor
  43              		.section	.data.USBD_CDC_CfgHSDesc,"aw"
  44              		.align	2
  47              	USBD_CDC_CfgHSDesc:
  48 0000 09024300 		.ascii	"\011\002C\000\002\001\000\3002\011\004\000\000\001\002"
  48      020100C0 
  48      32090400 
  48      000102
  49 000f 02010005 		.ascii	"\002\001\000\005$\000\020\001\005$\001\000\001\004$"
  49      24001001 
  49      05240100 
  49      010424
  50 001e 02020524 		.ascii	"\002\002\005$\006\000\001\007\005\202\003\010\000\020"
  50      06000107 
  50      05820308 
  50      0010
  51 002c 09040100 		.ascii	"\011\004\001\000\002\012\000\000\000\007\005\001\002"
  51      020A0000 
ARM GAS  /var/folders/vq/qt4vp3kd5rxf7v2b6_fdtdt80000gn/T//cccgRN2W.s 			page 2


  51      00070501 
  51      02
  52 0039 00020007 		.ascii	"\000\002\000\007\005\201\002\000\002\000"
  52      05810200 
  52      0200
  53              		.section	.data.USBD_CDC_CfgFSDesc,"aw"
  54              		.align	2
  57              	USBD_CDC_CfgFSDesc:
  58 0000 09024300 		.ascii	"\011\002C\000\002\001\000\3002\011\004\000\000\001\002"
  58      020100C0 
  58      32090400 
  58      000102
  59 000f 02010005 		.ascii	"\002\001\000\005$\000\020\001\005$\001\000\001\004$"
  59      24001001 
  59      05240100 
  59      010424
  60 001e 02020524 		.ascii	"\002\002\005$\006\000\001\007\005\202\003\010\000\020"
  60      06000107 
  60      05820308 
  60      0010
  61 002c 09040100 		.ascii	"\011\004\001\000\002\012\000\000\000\007\005\001\002"
  61      020A0000 
  61      00070501 
  61      02
  62 0039 40000007 		.ascii	"@\000\000\007\005\201\002@\000\000"
  62      05810240 
  62      0000
  63              		.section	.data.USBD_CDC_OtherSpeedCfgDesc,"aw"
  64              		.align	2
  67              	USBD_CDC_OtherSpeedCfgDesc:
  68 0000 09074300 		.ascii	"\011\007C\000\002\001\004\3002\011\004\000\000\001\002"
  68      020104C0 
  68      32090400 
  68      000102
  69 000f 02010005 		.ascii	"\002\001\000\005$\000\020\001\005$\001\000\001\004$"
  69      24001001 
  69      05240100 
  69      010424
  70 001e 02020524 		.ascii	"\002\002\005$\006\000\001\007\005\202\003\010\000\020"
  70      06000107 
  70      05820308 
  70      0010
  71 002c 09040100 		.ascii	"\011\004\001\000\002\012\000\000\000\007\005\001\002"
  71      020A0000 
  71      00070501 
  71      02
  72 0039 40000007 		.ascii	"@\000\000\007\005\201\002@\000\000"
  72      05810240 
  72      0000
  73              		.section	.text.USBD_CDC_Init,"ax",%progbits
  74              		.align	1
  75              		.arch armv7e-m
  76              		.syntax unified
  77              		.thumb
  78              		.thumb_func
  79              		.fpu fpv4-sp-d16
  81              	USBD_CDC_Init:
ARM GAS  /var/folders/vq/qt4vp3kd5rxf7v2b6_fdtdt80000gn/T//cccgRN2W.s 			page 3


  82              	.LFB134:
  83              		.file 1 "Middlewares/ST/STM32_USB_Device_Library/Class/CDC/Src/usbd_cdc.c"
   1:Middlewares/ST/STM32_USB_Device_Library/Class/CDC/Src/usbd_cdc.c **** /**
   2:Middlewares/ST/STM32_USB_Device_Library/Class/CDC/Src/usbd_cdc.c ****   ******************************************************************************
   3:Middlewares/ST/STM32_USB_Device_Library/Class/CDC/Src/usbd_cdc.c ****   * @file    usbd_cdc.c
   4:Middlewares/ST/STM32_USB_Device_Library/Class/CDC/Src/usbd_cdc.c ****   * @author  MCD Application Team
   5:Middlewares/ST/STM32_USB_Device_Library/Class/CDC/Src/usbd_cdc.c ****   * @brief   This file provides the high layer firmware functions to manage the
   6:Middlewares/ST/STM32_USB_Device_Library/Class/CDC/Src/usbd_cdc.c ****   *          following functionalities of the USB CDC Class:
   7:Middlewares/ST/STM32_USB_Device_Library/Class/CDC/Src/usbd_cdc.c ****   *           - Initialization and Configuration of high and low layer
   8:Middlewares/ST/STM32_USB_Device_Library/Class/CDC/Src/usbd_cdc.c ****   *           - Enumeration as CDC Device (and enumeration for each implemented memory interface)
   9:Middlewares/ST/STM32_USB_Device_Library/Class/CDC/Src/usbd_cdc.c ****   *           - OUT/IN data transfer
  10:Middlewares/ST/STM32_USB_Device_Library/Class/CDC/Src/usbd_cdc.c ****   *           - Command IN transfer (class requests management)
  11:Middlewares/ST/STM32_USB_Device_Library/Class/CDC/Src/usbd_cdc.c ****   *           - Error management
  12:Middlewares/ST/STM32_USB_Device_Library/Class/CDC/Src/usbd_cdc.c ****   *
  13:Middlewares/ST/STM32_USB_Device_Library/Class/CDC/Src/usbd_cdc.c ****   *  @verbatim
  14:Middlewares/ST/STM32_USB_Device_Library/Class/CDC/Src/usbd_cdc.c ****   *
  15:Middlewares/ST/STM32_USB_Device_Library/Class/CDC/Src/usbd_cdc.c ****   *          ===================================================================
  16:Middlewares/ST/STM32_USB_Device_Library/Class/CDC/Src/usbd_cdc.c ****   *                                CDC Class Driver Description
  17:Middlewares/ST/STM32_USB_Device_Library/Class/CDC/Src/usbd_cdc.c ****   *          ===================================================================
  18:Middlewares/ST/STM32_USB_Device_Library/Class/CDC/Src/usbd_cdc.c ****   *           This driver manages the "Universal Serial Bus Class Definitions for Communications De
  19:Middlewares/ST/STM32_USB_Device_Library/Class/CDC/Src/usbd_cdc.c ****   *           Revision 1.2 November 16, 2007" and the sub-protocol specification of "Universal Seri
  20:Middlewares/ST/STM32_USB_Device_Library/Class/CDC/Src/usbd_cdc.c ****   *           Communications Class Subclass Specification for PSTN Devices Revision 1.2 February 9,
  21:Middlewares/ST/STM32_USB_Device_Library/Class/CDC/Src/usbd_cdc.c ****   *           This driver implements the following aspects of the specification:
  22:Middlewares/ST/STM32_USB_Device_Library/Class/CDC/Src/usbd_cdc.c ****   *             - Device descriptor management
  23:Middlewares/ST/STM32_USB_Device_Library/Class/CDC/Src/usbd_cdc.c ****   *             - Configuration descriptor management
  24:Middlewares/ST/STM32_USB_Device_Library/Class/CDC/Src/usbd_cdc.c ****   *             - Enumeration as CDC device with 2 data endpoints (IN and OUT) and 1 command endpoi
  25:Middlewares/ST/STM32_USB_Device_Library/Class/CDC/Src/usbd_cdc.c ****   *             - Requests management (as described in section 6.2 in specification)
  26:Middlewares/ST/STM32_USB_Device_Library/Class/CDC/Src/usbd_cdc.c ****   *             - Abstract Control Model compliant
  27:Middlewares/ST/STM32_USB_Device_Library/Class/CDC/Src/usbd_cdc.c ****   *             - Union Functional collection (using 1 IN endpoint for control)
  28:Middlewares/ST/STM32_USB_Device_Library/Class/CDC/Src/usbd_cdc.c ****   *             - Data interface class
  29:Middlewares/ST/STM32_USB_Device_Library/Class/CDC/Src/usbd_cdc.c ****   *
  30:Middlewares/ST/STM32_USB_Device_Library/Class/CDC/Src/usbd_cdc.c ****   *           These aspects may be enriched or modified for a specific user application.
  31:Middlewares/ST/STM32_USB_Device_Library/Class/CDC/Src/usbd_cdc.c ****   *
  32:Middlewares/ST/STM32_USB_Device_Library/Class/CDC/Src/usbd_cdc.c ****   *            This driver doesn't implement the following aspects of the specification
  33:Middlewares/ST/STM32_USB_Device_Library/Class/CDC/Src/usbd_cdc.c ****   *            (but it is possible to manage these features with some modifications on this driver)
  34:Middlewares/ST/STM32_USB_Device_Library/Class/CDC/Src/usbd_cdc.c ****   *             - Any class-specific aspect relative to communication classes should be managed by 
  35:Middlewares/ST/STM32_USB_Device_Library/Class/CDC/Src/usbd_cdc.c ****   *             - All communication classes other than PSTN are not managed
  36:Middlewares/ST/STM32_USB_Device_Library/Class/CDC/Src/usbd_cdc.c ****   *
  37:Middlewares/ST/STM32_USB_Device_Library/Class/CDC/Src/usbd_cdc.c ****   *  @endverbatim
  38:Middlewares/ST/STM32_USB_Device_Library/Class/CDC/Src/usbd_cdc.c ****   *
  39:Middlewares/ST/STM32_USB_Device_Library/Class/CDC/Src/usbd_cdc.c ****   ******************************************************************************
  40:Middlewares/ST/STM32_USB_Device_Library/Class/CDC/Src/usbd_cdc.c ****   * @attention
  41:Middlewares/ST/STM32_USB_Device_Library/Class/CDC/Src/usbd_cdc.c ****   *
  42:Middlewares/ST/STM32_USB_Device_Library/Class/CDC/Src/usbd_cdc.c ****   * <h2><center>&copy; Copyright (c) 2015 STMicroelectronics.
  43:Middlewares/ST/STM32_USB_Device_Library/Class/CDC/Src/usbd_cdc.c ****   * All rights reserved.</center></h2>
  44:Middlewares/ST/STM32_USB_Device_Library/Class/CDC/Src/usbd_cdc.c ****   *
  45:Middlewares/ST/STM32_USB_Device_Library/Class/CDC/Src/usbd_cdc.c ****   * This software component is licensed by ST under Ultimate Liberty license
  46:Middlewares/ST/STM32_USB_Device_Library/Class/CDC/Src/usbd_cdc.c ****   * SLA0044, the "License"; You may not use this file except in compliance with
  47:Middlewares/ST/STM32_USB_Device_Library/Class/CDC/Src/usbd_cdc.c ****   * the License. You may obtain a copy of the License at:
  48:Middlewares/ST/STM32_USB_Device_Library/Class/CDC/Src/usbd_cdc.c ****   *                      www.st.com/SLA0044
  49:Middlewares/ST/STM32_USB_Device_Library/Class/CDC/Src/usbd_cdc.c ****   *
  50:Middlewares/ST/STM32_USB_Device_Library/Class/CDC/Src/usbd_cdc.c ****   ******************************************************************************
  51:Middlewares/ST/STM32_USB_Device_Library/Class/CDC/Src/usbd_cdc.c ****   */
  52:Middlewares/ST/STM32_USB_Device_Library/Class/CDC/Src/usbd_cdc.c **** 
  53:Middlewares/ST/STM32_USB_Device_Library/Class/CDC/Src/usbd_cdc.c **** /* BSPDependencies
  54:Middlewares/ST/STM32_USB_Device_Library/Class/CDC/Src/usbd_cdc.c **** - "stm32xxxxx_{eval}{discovery}{nucleo_144}.c"
  55:Middlewares/ST/STM32_USB_Device_Library/Class/CDC/Src/usbd_cdc.c **** - "stm32xxxxx_{eval}{discovery}_io.c"
ARM GAS  /var/folders/vq/qt4vp3kd5rxf7v2b6_fdtdt80000gn/T//cccgRN2W.s 			page 4


  56:Middlewares/ST/STM32_USB_Device_Library/Class/CDC/Src/usbd_cdc.c **** EndBSPDependencies */
  57:Middlewares/ST/STM32_USB_Device_Library/Class/CDC/Src/usbd_cdc.c **** 
  58:Middlewares/ST/STM32_USB_Device_Library/Class/CDC/Src/usbd_cdc.c **** /* Includes ------------------------------------------------------------------*/
  59:Middlewares/ST/STM32_USB_Device_Library/Class/CDC/Src/usbd_cdc.c **** #include "usbd_cdc.h"
  60:Middlewares/ST/STM32_USB_Device_Library/Class/CDC/Src/usbd_cdc.c **** #include "usbd_ctlreq.h"
  61:Middlewares/ST/STM32_USB_Device_Library/Class/CDC/Src/usbd_cdc.c **** 
  62:Middlewares/ST/STM32_USB_Device_Library/Class/CDC/Src/usbd_cdc.c **** #include "stm32f407xx.h"
  63:Middlewares/ST/STM32_USB_Device_Library/Class/CDC/Src/usbd_cdc.c **** 
  64:Middlewares/ST/STM32_USB_Device_Library/Class/CDC/Src/usbd_cdc.c **** 
  65:Middlewares/ST/STM32_USB_Device_Library/Class/CDC/Src/usbd_cdc.c **** /** @addtogroup STM32_USB_DEVICE_LIBRARY
  66:Middlewares/ST/STM32_USB_Device_Library/Class/CDC/Src/usbd_cdc.c ****   * @{
  67:Middlewares/ST/STM32_USB_Device_Library/Class/CDC/Src/usbd_cdc.c ****   */
  68:Middlewares/ST/STM32_USB_Device_Library/Class/CDC/Src/usbd_cdc.c **** 
  69:Middlewares/ST/STM32_USB_Device_Library/Class/CDC/Src/usbd_cdc.c **** 
  70:Middlewares/ST/STM32_USB_Device_Library/Class/CDC/Src/usbd_cdc.c **** /** @defgroup USBD_CDC
  71:Middlewares/ST/STM32_USB_Device_Library/Class/CDC/Src/usbd_cdc.c ****   * @brief usbd core module
  72:Middlewares/ST/STM32_USB_Device_Library/Class/CDC/Src/usbd_cdc.c ****   * @{
  73:Middlewares/ST/STM32_USB_Device_Library/Class/CDC/Src/usbd_cdc.c ****   */
  74:Middlewares/ST/STM32_USB_Device_Library/Class/CDC/Src/usbd_cdc.c **** 
  75:Middlewares/ST/STM32_USB_Device_Library/Class/CDC/Src/usbd_cdc.c **** /** @defgroup USBD_CDC_Private_TypesDefinitions
  76:Middlewares/ST/STM32_USB_Device_Library/Class/CDC/Src/usbd_cdc.c ****   * @{
  77:Middlewares/ST/STM32_USB_Device_Library/Class/CDC/Src/usbd_cdc.c ****   */
  78:Middlewares/ST/STM32_USB_Device_Library/Class/CDC/Src/usbd_cdc.c **** /**
  79:Middlewares/ST/STM32_USB_Device_Library/Class/CDC/Src/usbd_cdc.c ****   * @}
  80:Middlewares/ST/STM32_USB_Device_Library/Class/CDC/Src/usbd_cdc.c ****   */
  81:Middlewares/ST/STM32_USB_Device_Library/Class/CDC/Src/usbd_cdc.c **** 
  82:Middlewares/ST/STM32_USB_Device_Library/Class/CDC/Src/usbd_cdc.c **** 
  83:Middlewares/ST/STM32_USB_Device_Library/Class/CDC/Src/usbd_cdc.c **** /** @defgroup USBD_CDC_Private_Defines
  84:Middlewares/ST/STM32_USB_Device_Library/Class/CDC/Src/usbd_cdc.c ****   * @{
  85:Middlewares/ST/STM32_USB_Device_Library/Class/CDC/Src/usbd_cdc.c ****   */
  86:Middlewares/ST/STM32_USB_Device_Library/Class/CDC/Src/usbd_cdc.c **** /**
  87:Middlewares/ST/STM32_USB_Device_Library/Class/CDC/Src/usbd_cdc.c ****   * @}
  88:Middlewares/ST/STM32_USB_Device_Library/Class/CDC/Src/usbd_cdc.c ****   */
  89:Middlewares/ST/STM32_USB_Device_Library/Class/CDC/Src/usbd_cdc.c **** 
  90:Middlewares/ST/STM32_USB_Device_Library/Class/CDC/Src/usbd_cdc.c **** 
  91:Middlewares/ST/STM32_USB_Device_Library/Class/CDC/Src/usbd_cdc.c **** /** @defgroup USBD_CDC_Private_Macros
  92:Middlewares/ST/STM32_USB_Device_Library/Class/CDC/Src/usbd_cdc.c ****   * @{
  93:Middlewares/ST/STM32_USB_Device_Library/Class/CDC/Src/usbd_cdc.c ****   */
  94:Middlewares/ST/STM32_USB_Device_Library/Class/CDC/Src/usbd_cdc.c **** 
  95:Middlewares/ST/STM32_USB_Device_Library/Class/CDC/Src/usbd_cdc.c **** /**
  96:Middlewares/ST/STM32_USB_Device_Library/Class/CDC/Src/usbd_cdc.c ****   * @}
  97:Middlewares/ST/STM32_USB_Device_Library/Class/CDC/Src/usbd_cdc.c ****   */
  98:Middlewares/ST/STM32_USB_Device_Library/Class/CDC/Src/usbd_cdc.c **** 
  99:Middlewares/ST/STM32_USB_Device_Library/Class/CDC/Src/usbd_cdc.c **** 
 100:Middlewares/ST/STM32_USB_Device_Library/Class/CDC/Src/usbd_cdc.c **** /** @defgroup USBD_CDC_Private_FunctionPrototypes
 101:Middlewares/ST/STM32_USB_Device_Library/Class/CDC/Src/usbd_cdc.c ****   * @{
 102:Middlewares/ST/STM32_USB_Device_Library/Class/CDC/Src/usbd_cdc.c ****   */
 103:Middlewares/ST/STM32_USB_Device_Library/Class/CDC/Src/usbd_cdc.c **** 
 104:Middlewares/ST/STM32_USB_Device_Library/Class/CDC/Src/usbd_cdc.c **** static uint8_t USBD_CDC_Init(USBD_HandleTypeDef *pdev, uint8_t cfgidx);
 105:Middlewares/ST/STM32_USB_Device_Library/Class/CDC/Src/usbd_cdc.c **** static uint8_t USBD_CDC_DeInit(USBD_HandleTypeDef *pdev, uint8_t cfgidx);
 106:Middlewares/ST/STM32_USB_Device_Library/Class/CDC/Src/usbd_cdc.c **** static uint8_t USBD_CDC_Setup(USBD_HandleTypeDef *pdev, USBD_SetupReqTypedef *req);
 107:Middlewares/ST/STM32_USB_Device_Library/Class/CDC/Src/usbd_cdc.c **** static uint8_t USBD_CDC_DataIn(USBD_HandleTypeDef *pdev, uint8_t epnum);
 108:Middlewares/ST/STM32_USB_Device_Library/Class/CDC/Src/usbd_cdc.c **** static uint8_t USBD_CDC_DataOut(USBD_HandleTypeDef *pdev, uint8_t epnum);
 109:Middlewares/ST/STM32_USB_Device_Library/Class/CDC/Src/usbd_cdc.c **** static uint8_t USBD_CDC_EP0_RxReady(USBD_HandleTypeDef *pdev);
 110:Middlewares/ST/STM32_USB_Device_Library/Class/CDC/Src/usbd_cdc.c **** 
 111:Middlewares/ST/STM32_USB_Device_Library/Class/CDC/Src/usbd_cdc.c **** static uint8_t *USBD_CDC_GetFSCfgDesc(uint16_t *length);
 112:Middlewares/ST/STM32_USB_Device_Library/Class/CDC/Src/usbd_cdc.c **** static uint8_t *USBD_CDC_GetHSCfgDesc(uint16_t *length);
ARM GAS  /var/folders/vq/qt4vp3kd5rxf7v2b6_fdtdt80000gn/T//cccgRN2W.s 			page 5


 113:Middlewares/ST/STM32_USB_Device_Library/Class/CDC/Src/usbd_cdc.c **** static uint8_t *USBD_CDC_GetOtherSpeedCfgDesc(uint16_t *length);
 114:Middlewares/ST/STM32_USB_Device_Library/Class/CDC/Src/usbd_cdc.c **** static uint8_t *USBD_CDC_GetOtherSpeedCfgDesc(uint16_t *length);
 115:Middlewares/ST/STM32_USB_Device_Library/Class/CDC/Src/usbd_cdc.c **** uint8_t *USBD_CDC_GetDeviceQualifierDescriptor(uint16_t *length);
 116:Middlewares/ST/STM32_USB_Device_Library/Class/CDC/Src/usbd_cdc.c **** 
 117:Middlewares/ST/STM32_USB_Device_Library/Class/CDC/Src/usbd_cdc.c **** /* USB Standard Device Descriptor */
 118:Middlewares/ST/STM32_USB_Device_Library/Class/CDC/Src/usbd_cdc.c **** __ALIGN_BEGIN static uint8_t USBD_CDC_DeviceQualifierDesc[USB_LEN_DEV_QUALIFIER_DESC] __ALIGN_END =
 119:Middlewares/ST/STM32_USB_Device_Library/Class/CDC/Src/usbd_cdc.c **** {
 120:Middlewares/ST/STM32_USB_Device_Library/Class/CDC/Src/usbd_cdc.c ****   USB_LEN_DEV_QUALIFIER_DESC,
 121:Middlewares/ST/STM32_USB_Device_Library/Class/CDC/Src/usbd_cdc.c ****   USB_DESC_TYPE_DEVICE_QUALIFIER,
 122:Middlewares/ST/STM32_USB_Device_Library/Class/CDC/Src/usbd_cdc.c ****   0x00,
 123:Middlewares/ST/STM32_USB_Device_Library/Class/CDC/Src/usbd_cdc.c ****   0x02,
 124:Middlewares/ST/STM32_USB_Device_Library/Class/CDC/Src/usbd_cdc.c ****   0x00,
 125:Middlewares/ST/STM32_USB_Device_Library/Class/CDC/Src/usbd_cdc.c ****   0x00,
 126:Middlewares/ST/STM32_USB_Device_Library/Class/CDC/Src/usbd_cdc.c ****   0x00,
 127:Middlewares/ST/STM32_USB_Device_Library/Class/CDC/Src/usbd_cdc.c ****   0x40,
 128:Middlewares/ST/STM32_USB_Device_Library/Class/CDC/Src/usbd_cdc.c ****   0x01,
 129:Middlewares/ST/STM32_USB_Device_Library/Class/CDC/Src/usbd_cdc.c ****   0x00,
 130:Middlewares/ST/STM32_USB_Device_Library/Class/CDC/Src/usbd_cdc.c **** };
 131:Middlewares/ST/STM32_USB_Device_Library/Class/CDC/Src/usbd_cdc.c **** 
 132:Middlewares/ST/STM32_USB_Device_Library/Class/CDC/Src/usbd_cdc.c **** /**
 133:Middlewares/ST/STM32_USB_Device_Library/Class/CDC/Src/usbd_cdc.c ****   * @}
 134:Middlewares/ST/STM32_USB_Device_Library/Class/CDC/Src/usbd_cdc.c ****   */
 135:Middlewares/ST/STM32_USB_Device_Library/Class/CDC/Src/usbd_cdc.c **** 
 136:Middlewares/ST/STM32_USB_Device_Library/Class/CDC/Src/usbd_cdc.c **** /** @defgroup USBD_CDC_Private_Variables
 137:Middlewares/ST/STM32_USB_Device_Library/Class/CDC/Src/usbd_cdc.c ****   * @{
 138:Middlewares/ST/STM32_USB_Device_Library/Class/CDC/Src/usbd_cdc.c ****   */
 139:Middlewares/ST/STM32_USB_Device_Library/Class/CDC/Src/usbd_cdc.c **** 
 140:Middlewares/ST/STM32_USB_Device_Library/Class/CDC/Src/usbd_cdc.c **** 
 141:Middlewares/ST/STM32_USB_Device_Library/Class/CDC/Src/usbd_cdc.c **** /* CDC interface class callbacks structure */
 142:Middlewares/ST/STM32_USB_Device_Library/Class/CDC/Src/usbd_cdc.c **** USBD_ClassTypeDef  USBD_CDC =
 143:Middlewares/ST/STM32_USB_Device_Library/Class/CDC/Src/usbd_cdc.c **** {
 144:Middlewares/ST/STM32_USB_Device_Library/Class/CDC/Src/usbd_cdc.c ****   USBD_CDC_Init,
 145:Middlewares/ST/STM32_USB_Device_Library/Class/CDC/Src/usbd_cdc.c ****   USBD_CDC_DeInit,
 146:Middlewares/ST/STM32_USB_Device_Library/Class/CDC/Src/usbd_cdc.c ****   USBD_CDC_Setup,
 147:Middlewares/ST/STM32_USB_Device_Library/Class/CDC/Src/usbd_cdc.c ****   NULL,                 /* EP0_TxSent, */
 148:Middlewares/ST/STM32_USB_Device_Library/Class/CDC/Src/usbd_cdc.c ****   USBD_CDC_EP0_RxReady,
 149:Middlewares/ST/STM32_USB_Device_Library/Class/CDC/Src/usbd_cdc.c ****   USBD_CDC_DataIn,
 150:Middlewares/ST/STM32_USB_Device_Library/Class/CDC/Src/usbd_cdc.c ****   USBD_CDC_DataOut,
 151:Middlewares/ST/STM32_USB_Device_Library/Class/CDC/Src/usbd_cdc.c ****   NULL,
 152:Middlewares/ST/STM32_USB_Device_Library/Class/CDC/Src/usbd_cdc.c ****   NULL,
 153:Middlewares/ST/STM32_USB_Device_Library/Class/CDC/Src/usbd_cdc.c ****   NULL,
 154:Middlewares/ST/STM32_USB_Device_Library/Class/CDC/Src/usbd_cdc.c ****   USBD_CDC_GetHSCfgDesc,
 155:Middlewares/ST/STM32_USB_Device_Library/Class/CDC/Src/usbd_cdc.c ****   USBD_CDC_GetFSCfgDesc,
 156:Middlewares/ST/STM32_USB_Device_Library/Class/CDC/Src/usbd_cdc.c ****   USBD_CDC_GetOtherSpeedCfgDesc,
 157:Middlewares/ST/STM32_USB_Device_Library/Class/CDC/Src/usbd_cdc.c ****   USBD_CDC_GetDeviceQualifierDescriptor,
 158:Middlewares/ST/STM32_USB_Device_Library/Class/CDC/Src/usbd_cdc.c **** };
 159:Middlewares/ST/STM32_USB_Device_Library/Class/CDC/Src/usbd_cdc.c **** 
 160:Middlewares/ST/STM32_USB_Device_Library/Class/CDC/Src/usbd_cdc.c **** /* USB CDC device Configuration Descriptor */
 161:Middlewares/ST/STM32_USB_Device_Library/Class/CDC/Src/usbd_cdc.c **** __ALIGN_BEGIN static uint8_t USBD_CDC_CfgHSDesc[USB_CDC_CONFIG_DESC_SIZ] __ALIGN_END =
 162:Middlewares/ST/STM32_USB_Device_Library/Class/CDC/Src/usbd_cdc.c **** {
 163:Middlewares/ST/STM32_USB_Device_Library/Class/CDC/Src/usbd_cdc.c ****   /* Configuration Descriptor */
 164:Middlewares/ST/STM32_USB_Device_Library/Class/CDC/Src/usbd_cdc.c ****   0x09,                                       /* bLength: Configuration Descriptor size */
 165:Middlewares/ST/STM32_USB_Device_Library/Class/CDC/Src/usbd_cdc.c ****   USB_DESC_TYPE_CONFIGURATION,                /* bDescriptorType: Configuration */
 166:Middlewares/ST/STM32_USB_Device_Library/Class/CDC/Src/usbd_cdc.c ****   USB_CDC_CONFIG_DESC_SIZ,                    /* wTotalLength:no of returned bytes */
 167:Middlewares/ST/STM32_USB_Device_Library/Class/CDC/Src/usbd_cdc.c ****   0x00,
 168:Middlewares/ST/STM32_USB_Device_Library/Class/CDC/Src/usbd_cdc.c ****   0x02,                                       /* bNumInterfaces: 2 interface */
 169:Middlewares/ST/STM32_USB_Device_Library/Class/CDC/Src/usbd_cdc.c ****   0x01,                                       /* bConfigurationValue: Configuration value */
ARM GAS  /var/folders/vq/qt4vp3kd5rxf7v2b6_fdtdt80000gn/T//cccgRN2W.s 			page 6


 170:Middlewares/ST/STM32_USB_Device_Library/Class/CDC/Src/usbd_cdc.c ****   0x00,                                       /* iConfiguration: Index of string descriptor describ
 171:Middlewares/ST/STM32_USB_Device_Library/Class/CDC/Src/usbd_cdc.c **** #if (USBD_SELF_POWERED == 1U)
 172:Middlewares/ST/STM32_USB_Device_Library/Class/CDC/Src/usbd_cdc.c ****   0xC0,                                       /* bmAttributes: Bus Powered according to user config
 173:Middlewares/ST/STM32_USB_Device_Library/Class/CDC/Src/usbd_cdc.c **** #else
 174:Middlewares/ST/STM32_USB_Device_Library/Class/CDC/Src/usbd_cdc.c ****   0x80,                                       /* bmAttributes: Bus Powered according to user config
 175:Middlewares/ST/STM32_USB_Device_Library/Class/CDC/Src/usbd_cdc.c **** #endif
 176:Middlewares/ST/STM32_USB_Device_Library/Class/CDC/Src/usbd_cdc.c ****   USBD_MAX_POWER,                             /* MaxPower 100 mA */
 177:Middlewares/ST/STM32_USB_Device_Library/Class/CDC/Src/usbd_cdc.c **** 
 178:Middlewares/ST/STM32_USB_Device_Library/Class/CDC/Src/usbd_cdc.c ****   /*---------------------------------------------------------------------------*/
 179:Middlewares/ST/STM32_USB_Device_Library/Class/CDC/Src/usbd_cdc.c **** 
 180:Middlewares/ST/STM32_USB_Device_Library/Class/CDC/Src/usbd_cdc.c ****   /* Interface Descriptor */
 181:Middlewares/ST/STM32_USB_Device_Library/Class/CDC/Src/usbd_cdc.c ****   0x09,                                       /* bLength: Interface Descriptor size */
 182:Middlewares/ST/STM32_USB_Device_Library/Class/CDC/Src/usbd_cdc.c ****   USB_DESC_TYPE_INTERFACE,                    /* bDescriptorType: Interface */
 183:Middlewares/ST/STM32_USB_Device_Library/Class/CDC/Src/usbd_cdc.c ****   0x00,                                       /* bInterfaceNumber: Number of Interface */
 184:Middlewares/ST/STM32_USB_Device_Library/Class/CDC/Src/usbd_cdc.c ****   0x00,                                       /* bAlternateSetting: Alternate setting */
 185:Middlewares/ST/STM32_USB_Device_Library/Class/CDC/Src/usbd_cdc.c ****   0x01,                                       /* bNumEndpoints: One endpoints used */
 186:Middlewares/ST/STM32_USB_Device_Library/Class/CDC/Src/usbd_cdc.c ****   0x02,                                       /* bInterfaceClass: Communication Interface Class */
 187:Middlewares/ST/STM32_USB_Device_Library/Class/CDC/Src/usbd_cdc.c ****   0x02,                                       /* bInterfaceSubClass: Abstract Control Model */
 188:Middlewares/ST/STM32_USB_Device_Library/Class/CDC/Src/usbd_cdc.c ****   0x01,                                       /* bInterfaceProtocol: Common AT commands */
 189:Middlewares/ST/STM32_USB_Device_Library/Class/CDC/Src/usbd_cdc.c ****   0x00,                                       /* iInterface: */
 190:Middlewares/ST/STM32_USB_Device_Library/Class/CDC/Src/usbd_cdc.c **** 
 191:Middlewares/ST/STM32_USB_Device_Library/Class/CDC/Src/usbd_cdc.c ****   /* Header Functional Descriptor */
 192:Middlewares/ST/STM32_USB_Device_Library/Class/CDC/Src/usbd_cdc.c ****   0x05,                                       /* bLength: Endpoint Descriptor size */
 193:Middlewares/ST/STM32_USB_Device_Library/Class/CDC/Src/usbd_cdc.c ****   0x24,                                       /* bDescriptorType: CS_INTERFACE */
 194:Middlewares/ST/STM32_USB_Device_Library/Class/CDC/Src/usbd_cdc.c ****   0x00,                                       /* bDescriptorSubtype: Header Func Desc */
 195:Middlewares/ST/STM32_USB_Device_Library/Class/CDC/Src/usbd_cdc.c ****   0x10,                                       /* bcdCDC: spec release number */
 196:Middlewares/ST/STM32_USB_Device_Library/Class/CDC/Src/usbd_cdc.c ****   0x01,
 197:Middlewares/ST/STM32_USB_Device_Library/Class/CDC/Src/usbd_cdc.c **** 
 198:Middlewares/ST/STM32_USB_Device_Library/Class/CDC/Src/usbd_cdc.c ****   /* Call Management Functional Descriptor */
 199:Middlewares/ST/STM32_USB_Device_Library/Class/CDC/Src/usbd_cdc.c ****   0x05,                                       /* bFunctionLength */
 200:Middlewares/ST/STM32_USB_Device_Library/Class/CDC/Src/usbd_cdc.c ****   0x24,                                       /* bDescriptorType: CS_INTERFACE */
 201:Middlewares/ST/STM32_USB_Device_Library/Class/CDC/Src/usbd_cdc.c ****   0x01,                                       /* bDescriptorSubtype: Call Management Func Desc */
 202:Middlewares/ST/STM32_USB_Device_Library/Class/CDC/Src/usbd_cdc.c ****   0x00,                                       /* bmCapabilities: D0+D1 */
 203:Middlewares/ST/STM32_USB_Device_Library/Class/CDC/Src/usbd_cdc.c ****   0x01,                                       /* bDataInterface: 1 */
 204:Middlewares/ST/STM32_USB_Device_Library/Class/CDC/Src/usbd_cdc.c **** 
 205:Middlewares/ST/STM32_USB_Device_Library/Class/CDC/Src/usbd_cdc.c ****   /* ACM Functional Descriptor */
 206:Middlewares/ST/STM32_USB_Device_Library/Class/CDC/Src/usbd_cdc.c ****   0x04,                                       /* bFunctionLength */
 207:Middlewares/ST/STM32_USB_Device_Library/Class/CDC/Src/usbd_cdc.c ****   0x24,                                       /* bDescriptorType: CS_INTERFACE */
 208:Middlewares/ST/STM32_USB_Device_Library/Class/CDC/Src/usbd_cdc.c ****   0x02,                                       /* bDescriptorSubtype: Abstract Control Management de
 209:Middlewares/ST/STM32_USB_Device_Library/Class/CDC/Src/usbd_cdc.c ****   0x02,                                       /* bmCapabilities */
 210:Middlewares/ST/STM32_USB_Device_Library/Class/CDC/Src/usbd_cdc.c **** 
 211:Middlewares/ST/STM32_USB_Device_Library/Class/CDC/Src/usbd_cdc.c ****   /* Union Functional Descriptor */
 212:Middlewares/ST/STM32_USB_Device_Library/Class/CDC/Src/usbd_cdc.c ****   0x05,                                       /* bFunctionLength */
 213:Middlewares/ST/STM32_USB_Device_Library/Class/CDC/Src/usbd_cdc.c ****   0x24,                                       /* bDescriptorType: CS_INTERFACE */
 214:Middlewares/ST/STM32_USB_Device_Library/Class/CDC/Src/usbd_cdc.c ****   0x06,                                       /* bDescriptorSubtype: Union func desc */
 215:Middlewares/ST/STM32_USB_Device_Library/Class/CDC/Src/usbd_cdc.c ****   0x00,                                       /* bMasterInterface: Communication class interface */
 216:Middlewares/ST/STM32_USB_Device_Library/Class/CDC/Src/usbd_cdc.c ****   0x01,                                       /* bSlaveInterface0: Data Class Interface */
 217:Middlewares/ST/STM32_USB_Device_Library/Class/CDC/Src/usbd_cdc.c **** 
 218:Middlewares/ST/STM32_USB_Device_Library/Class/CDC/Src/usbd_cdc.c ****   /* Endpoint 2 Descriptor */
 219:Middlewares/ST/STM32_USB_Device_Library/Class/CDC/Src/usbd_cdc.c ****   0x07,                                       /* bLength: Endpoint Descriptor size */
 220:Middlewares/ST/STM32_USB_Device_Library/Class/CDC/Src/usbd_cdc.c ****   USB_DESC_TYPE_ENDPOINT,                     /* bDescriptorType: Endpoint */
 221:Middlewares/ST/STM32_USB_Device_Library/Class/CDC/Src/usbd_cdc.c ****   CDC_CMD_EP,                                 /* bEndpointAddress */
 222:Middlewares/ST/STM32_USB_Device_Library/Class/CDC/Src/usbd_cdc.c ****   0x03,                                       /* bmAttributes: Interrupt */
 223:Middlewares/ST/STM32_USB_Device_Library/Class/CDC/Src/usbd_cdc.c ****   LOBYTE(CDC_CMD_PACKET_SIZE),                /* wMaxPacketSize: */
 224:Middlewares/ST/STM32_USB_Device_Library/Class/CDC/Src/usbd_cdc.c ****   HIBYTE(CDC_CMD_PACKET_SIZE),
 225:Middlewares/ST/STM32_USB_Device_Library/Class/CDC/Src/usbd_cdc.c ****   CDC_HS_BINTERVAL,                           /* bInterval: */
 226:Middlewares/ST/STM32_USB_Device_Library/Class/CDC/Src/usbd_cdc.c ****   /*---------------------------------------------------------------------------*/
ARM GAS  /var/folders/vq/qt4vp3kd5rxf7v2b6_fdtdt80000gn/T//cccgRN2W.s 			page 7


 227:Middlewares/ST/STM32_USB_Device_Library/Class/CDC/Src/usbd_cdc.c **** 
 228:Middlewares/ST/STM32_USB_Device_Library/Class/CDC/Src/usbd_cdc.c ****   /* Data class interface descriptor */
 229:Middlewares/ST/STM32_USB_Device_Library/Class/CDC/Src/usbd_cdc.c ****   0x09,                                       /* bLength: Endpoint Descriptor size */
 230:Middlewares/ST/STM32_USB_Device_Library/Class/CDC/Src/usbd_cdc.c ****   USB_DESC_TYPE_INTERFACE,                    /* bDescriptorType: */
 231:Middlewares/ST/STM32_USB_Device_Library/Class/CDC/Src/usbd_cdc.c ****   0x01,                                       /* bInterfaceNumber: Number of Interface */
 232:Middlewares/ST/STM32_USB_Device_Library/Class/CDC/Src/usbd_cdc.c ****   0x00,                                       /* bAlternateSetting: Alternate setting */
 233:Middlewares/ST/STM32_USB_Device_Library/Class/CDC/Src/usbd_cdc.c ****   0x02,                                       /* bNumEndpoints: Two endpoints used */
 234:Middlewares/ST/STM32_USB_Device_Library/Class/CDC/Src/usbd_cdc.c ****   0x0A,                                       /* bInterfaceClass: CDC */
 235:Middlewares/ST/STM32_USB_Device_Library/Class/CDC/Src/usbd_cdc.c ****   0x00,                                       /* bInterfaceSubClass: */
 236:Middlewares/ST/STM32_USB_Device_Library/Class/CDC/Src/usbd_cdc.c ****   0x00,                                       /* bInterfaceProtocol: */
 237:Middlewares/ST/STM32_USB_Device_Library/Class/CDC/Src/usbd_cdc.c ****   0x00,                                       /* iInterface: */
 238:Middlewares/ST/STM32_USB_Device_Library/Class/CDC/Src/usbd_cdc.c **** 
 239:Middlewares/ST/STM32_USB_Device_Library/Class/CDC/Src/usbd_cdc.c ****   /* Endpoint OUT Descriptor */
 240:Middlewares/ST/STM32_USB_Device_Library/Class/CDC/Src/usbd_cdc.c ****   0x07,                                       /* bLength: Endpoint Descriptor size */
 241:Middlewares/ST/STM32_USB_Device_Library/Class/CDC/Src/usbd_cdc.c ****   USB_DESC_TYPE_ENDPOINT,                     /* bDescriptorType: Endpoint */
 242:Middlewares/ST/STM32_USB_Device_Library/Class/CDC/Src/usbd_cdc.c ****   CDC_OUT_EP,                                 /* bEndpointAddress */
 243:Middlewares/ST/STM32_USB_Device_Library/Class/CDC/Src/usbd_cdc.c ****   0x02,                                       /* bmAttributes: Bulk */
 244:Middlewares/ST/STM32_USB_Device_Library/Class/CDC/Src/usbd_cdc.c ****   LOBYTE(CDC_DATA_HS_MAX_PACKET_SIZE),        /* wMaxPacketSize: */
 245:Middlewares/ST/STM32_USB_Device_Library/Class/CDC/Src/usbd_cdc.c ****   HIBYTE(CDC_DATA_HS_MAX_PACKET_SIZE),
 246:Middlewares/ST/STM32_USB_Device_Library/Class/CDC/Src/usbd_cdc.c ****   0x00,                                       /* bInterval: ignore for Bulk transfer */
 247:Middlewares/ST/STM32_USB_Device_Library/Class/CDC/Src/usbd_cdc.c **** 
 248:Middlewares/ST/STM32_USB_Device_Library/Class/CDC/Src/usbd_cdc.c ****   /* Endpoint IN Descriptor */
 249:Middlewares/ST/STM32_USB_Device_Library/Class/CDC/Src/usbd_cdc.c ****   0x07,                                       /* bLength: Endpoint Descriptor size */
 250:Middlewares/ST/STM32_USB_Device_Library/Class/CDC/Src/usbd_cdc.c ****   USB_DESC_TYPE_ENDPOINT,                     /* bDescriptorType: Endpoint */
 251:Middlewares/ST/STM32_USB_Device_Library/Class/CDC/Src/usbd_cdc.c ****   CDC_IN_EP,                                  /* bEndpointAddress */
 252:Middlewares/ST/STM32_USB_Device_Library/Class/CDC/Src/usbd_cdc.c ****   0x02,                                       /* bmAttributes: Bulk */
 253:Middlewares/ST/STM32_USB_Device_Library/Class/CDC/Src/usbd_cdc.c ****   LOBYTE(CDC_DATA_HS_MAX_PACKET_SIZE),        /* wMaxPacketSize: */
 254:Middlewares/ST/STM32_USB_Device_Library/Class/CDC/Src/usbd_cdc.c ****   HIBYTE(CDC_DATA_HS_MAX_PACKET_SIZE),
 255:Middlewares/ST/STM32_USB_Device_Library/Class/CDC/Src/usbd_cdc.c ****   0x00                                        /* bInterval: ignore for Bulk transfer */
 256:Middlewares/ST/STM32_USB_Device_Library/Class/CDC/Src/usbd_cdc.c **** };
 257:Middlewares/ST/STM32_USB_Device_Library/Class/CDC/Src/usbd_cdc.c **** 
 258:Middlewares/ST/STM32_USB_Device_Library/Class/CDC/Src/usbd_cdc.c **** 
 259:Middlewares/ST/STM32_USB_Device_Library/Class/CDC/Src/usbd_cdc.c **** /* USB CDC device Configuration Descriptor */
 260:Middlewares/ST/STM32_USB_Device_Library/Class/CDC/Src/usbd_cdc.c **** __ALIGN_BEGIN static uint8_t USBD_CDC_CfgFSDesc[USB_CDC_CONFIG_DESC_SIZ] __ALIGN_END =
 261:Middlewares/ST/STM32_USB_Device_Library/Class/CDC/Src/usbd_cdc.c **** {
 262:Middlewares/ST/STM32_USB_Device_Library/Class/CDC/Src/usbd_cdc.c ****   /* Configuration Descriptor */
 263:Middlewares/ST/STM32_USB_Device_Library/Class/CDC/Src/usbd_cdc.c ****   0x09,                                       /* bLength: Configuration Descriptor size */
 264:Middlewares/ST/STM32_USB_Device_Library/Class/CDC/Src/usbd_cdc.c ****   USB_DESC_TYPE_CONFIGURATION,                /* bDescriptorType: Configuration */
 265:Middlewares/ST/STM32_USB_Device_Library/Class/CDC/Src/usbd_cdc.c ****   USB_CDC_CONFIG_DESC_SIZ,                    /* wTotalLength:no of returned bytes */
 266:Middlewares/ST/STM32_USB_Device_Library/Class/CDC/Src/usbd_cdc.c ****   0x00,
 267:Middlewares/ST/STM32_USB_Device_Library/Class/CDC/Src/usbd_cdc.c ****   0x02,                                       /* bNumInterfaces: 2 interface */
 268:Middlewares/ST/STM32_USB_Device_Library/Class/CDC/Src/usbd_cdc.c ****   0x01,                                       /* bConfigurationValue: Configuration value */
 269:Middlewares/ST/STM32_USB_Device_Library/Class/CDC/Src/usbd_cdc.c ****   0x00,                                       /* iConfiguration: Index of string descriptor describ
 270:Middlewares/ST/STM32_USB_Device_Library/Class/CDC/Src/usbd_cdc.c **** #if (USBD_SELF_POWERED == 1U)
 271:Middlewares/ST/STM32_USB_Device_Library/Class/CDC/Src/usbd_cdc.c ****   0xC0,                                       /* bmAttributes: Bus Powered according to user config
 272:Middlewares/ST/STM32_USB_Device_Library/Class/CDC/Src/usbd_cdc.c **** #else
 273:Middlewares/ST/STM32_USB_Device_Library/Class/CDC/Src/usbd_cdc.c ****   0x80,                                       /* bmAttributes: Bus Powered according to user config
 274:Middlewares/ST/STM32_USB_Device_Library/Class/CDC/Src/usbd_cdc.c **** #endif
 275:Middlewares/ST/STM32_USB_Device_Library/Class/CDC/Src/usbd_cdc.c ****   USBD_MAX_POWER,                             /* MaxPower 100 mA */
 276:Middlewares/ST/STM32_USB_Device_Library/Class/CDC/Src/usbd_cdc.c **** 
 277:Middlewares/ST/STM32_USB_Device_Library/Class/CDC/Src/usbd_cdc.c ****   /*---------------------------------------------------------------------------*/
 278:Middlewares/ST/STM32_USB_Device_Library/Class/CDC/Src/usbd_cdc.c **** 
 279:Middlewares/ST/STM32_USB_Device_Library/Class/CDC/Src/usbd_cdc.c ****   /* Interface Descriptor */
 280:Middlewares/ST/STM32_USB_Device_Library/Class/CDC/Src/usbd_cdc.c ****   0x09,                                       /* bLength: Interface Descriptor size */
 281:Middlewares/ST/STM32_USB_Device_Library/Class/CDC/Src/usbd_cdc.c ****   USB_DESC_TYPE_INTERFACE,                    /* bDescriptorType: Interface */
 282:Middlewares/ST/STM32_USB_Device_Library/Class/CDC/Src/usbd_cdc.c ****   /* Interface descriptor type */
 283:Middlewares/ST/STM32_USB_Device_Library/Class/CDC/Src/usbd_cdc.c ****   0x00,                                       /* bInterfaceNumber: Number of Interface */
ARM GAS  /var/folders/vq/qt4vp3kd5rxf7v2b6_fdtdt80000gn/T//cccgRN2W.s 			page 8


 284:Middlewares/ST/STM32_USB_Device_Library/Class/CDC/Src/usbd_cdc.c ****   0x00,                                       /* bAlternateSetting: Alternate setting */
 285:Middlewares/ST/STM32_USB_Device_Library/Class/CDC/Src/usbd_cdc.c ****   0x01,                                       /* bNumEndpoints: One endpoints used */
 286:Middlewares/ST/STM32_USB_Device_Library/Class/CDC/Src/usbd_cdc.c ****   0x02,                                       /* bInterfaceClass: Communication Interface Class */
 287:Middlewares/ST/STM32_USB_Device_Library/Class/CDC/Src/usbd_cdc.c ****   0x02,                                       /* bInterfaceSubClass: Abstract Control Model */
 288:Middlewares/ST/STM32_USB_Device_Library/Class/CDC/Src/usbd_cdc.c ****   0x01,                                       /* bInterfaceProtocol: Common AT commands */
 289:Middlewares/ST/STM32_USB_Device_Library/Class/CDC/Src/usbd_cdc.c ****   0x00,                                       /* iInterface: */
 290:Middlewares/ST/STM32_USB_Device_Library/Class/CDC/Src/usbd_cdc.c **** 
 291:Middlewares/ST/STM32_USB_Device_Library/Class/CDC/Src/usbd_cdc.c ****   /* Header Functional Descriptor */
 292:Middlewares/ST/STM32_USB_Device_Library/Class/CDC/Src/usbd_cdc.c ****   0x05,                                       /* bLength: Endpoint Descriptor size */
 293:Middlewares/ST/STM32_USB_Device_Library/Class/CDC/Src/usbd_cdc.c ****   0x24,                                       /* bDescriptorType: CS_INTERFACE */
 294:Middlewares/ST/STM32_USB_Device_Library/Class/CDC/Src/usbd_cdc.c ****   0x00,                                       /* bDescriptorSubtype: Header Func Desc */
 295:Middlewares/ST/STM32_USB_Device_Library/Class/CDC/Src/usbd_cdc.c ****   0x10,                                       /* bcdCDC: spec release number */
 296:Middlewares/ST/STM32_USB_Device_Library/Class/CDC/Src/usbd_cdc.c ****   0x01,
 297:Middlewares/ST/STM32_USB_Device_Library/Class/CDC/Src/usbd_cdc.c **** 
 298:Middlewares/ST/STM32_USB_Device_Library/Class/CDC/Src/usbd_cdc.c ****   /* Call Management Functional Descriptor */
 299:Middlewares/ST/STM32_USB_Device_Library/Class/CDC/Src/usbd_cdc.c ****   0x05,                                       /* bFunctionLength */
 300:Middlewares/ST/STM32_USB_Device_Library/Class/CDC/Src/usbd_cdc.c ****   0x24,                                       /* bDescriptorType: CS_INTERFACE */
 301:Middlewares/ST/STM32_USB_Device_Library/Class/CDC/Src/usbd_cdc.c ****   0x01,                                       /* bDescriptorSubtype: Call Management Func Desc */
 302:Middlewares/ST/STM32_USB_Device_Library/Class/CDC/Src/usbd_cdc.c ****   0x00,                                       /* bmCapabilities: D0+D1 */
 303:Middlewares/ST/STM32_USB_Device_Library/Class/CDC/Src/usbd_cdc.c ****   0x01,                                       /* bDataInterface: 1 */
 304:Middlewares/ST/STM32_USB_Device_Library/Class/CDC/Src/usbd_cdc.c **** 
 305:Middlewares/ST/STM32_USB_Device_Library/Class/CDC/Src/usbd_cdc.c ****   /* ACM Functional Descriptor */
 306:Middlewares/ST/STM32_USB_Device_Library/Class/CDC/Src/usbd_cdc.c ****   0x04,                                       /* bFunctionLength */
 307:Middlewares/ST/STM32_USB_Device_Library/Class/CDC/Src/usbd_cdc.c ****   0x24,                                       /* bDescriptorType: CS_INTERFACE */
 308:Middlewares/ST/STM32_USB_Device_Library/Class/CDC/Src/usbd_cdc.c ****   0x02,                                       /* bDescriptorSubtype: Abstract Control Management de
 309:Middlewares/ST/STM32_USB_Device_Library/Class/CDC/Src/usbd_cdc.c ****   0x02,                                       /* bmCapabilities */
 310:Middlewares/ST/STM32_USB_Device_Library/Class/CDC/Src/usbd_cdc.c **** 
 311:Middlewares/ST/STM32_USB_Device_Library/Class/CDC/Src/usbd_cdc.c ****   /* Union Functional Descriptor */
 312:Middlewares/ST/STM32_USB_Device_Library/Class/CDC/Src/usbd_cdc.c ****   0x05,                                       /* bFunctionLength */
 313:Middlewares/ST/STM32_USB_Device_Library/Class/CDC/Src/usbd_cdc.c ****   0x24,                                       /* bDescriptorType: CS_INTERFACE */
 314:Middlewares/ST/STM32_USB_Device_Library/Class/CDC/Src/usbd_cdc.c ****   0x06,                                       /* bDescriptorSubtype: Union func desc */
 315:Middlewares/ST/STM32_USB_Device_Library/Class/CDC/Src/usbd_cdc.c ****   0x00,                                       /* bMasterInterface: Communication class interface */
 316:Middlewares/ST/STM32_USB_Device_Library/Class/CDC/Src/usbd_cdc.c ****   0x01,                                       /* bSlaveInterface0: Data Class Interface */
 317:Middlewares/ST/STM32_USB_Device_Library/Class/CDC/Src/usbd_cdc.c **** 
 318:Middlewares/ST/STM32_USB_Device_Library/Class/CDC/Src/usbd_cdc.c ****   /* Endpoint 2 Descriptor */
 319:Middlewares/ST/STM32_USB_Device_Library/Class/CDC/Src/usbd_cdc.c ****   0x07,                                       /* bLength: Endpoint Descriptor size */
 320:Middlewares/ST/STM32_USB_Device_Library/Class/CDC/Src/usbd_cdc.c ****   USB_DESC_TYPE_ENDPOINT,                     /* bDescriptorType: Endpoint */
 321:Middlewares/ST/STM32_USB_Device_Library/Class/CDC/Src/usbd_cdc.c ****   CDC_CMD_EP,                                 /* bEndpointAddress */
 322:Middlewares/ST/STM32_USB_Device_Library/Class/CDC/Src/usbd_cdc.c ****   0x03,                                       /* bmAttributes: Interrupt */
 323:Middlewares/ST/STM32_USB_Device_Library/Class/CDC/Src/usbd_cdc.c ****   LOBYTE(CDC_CMD_PACKET_SIZE),                /* wMaxPacketSize: */
 324:Middlewares/ST/STM32_USB_Device_Library/Class/CDC/Src/usbd_cdc.c ****   HIBYTE(CDC_CMD_PACKET_SIZE),
 325:Middlewares/ST/STM32_USB_Device_Library/Class/CDC/Src/usbd_cdc.c ****   CDC_FS_BINTERVAL,                           /* bInterval: */
 326:Middlewares/ST/STM32_USB_Device_Library/Class/CDC/Src/usbd_cdc.c ****   /*---------------------------------------------------------------------------*/
 327:Middlewares/ST/STM32_USB_Device_Library/Class/CDC/Src/usbd_cdc.c **** 
 328:Middlewares/ST/STM32_USB_Device_Library/Class/CDC/Src/usbd_cdc.c ****   /* Data class interface descriptor */
 329:Middlewares/ST/STM32_USB_Device_Library/Class/CDC/Src/usbd_cdc.c ****   0x09,                                       /* bLength: Endpoint Descriptor size */
 330:Middlewares/ST/STM32_USB_Device_Library/Class/CDC/Src/usbd_cdc.c ****   USB_DESC_TYPE_INTERFACE,                    /* bDescriptorType: */
 331:Middlewares/ST/STM32_USB_Device_Library/Class/CDC/Src/usbd_cdc.c ****   0x01,                                       /* bInterfaceNumber: Number of Interface */
 332:Middlewares/ST/STM32_USB_Device_Library/Class/CDC/Src/usbd_cdc.c ****   0x00,                                       /* bAlternateSetting: Alternate setting */
 333:Middlewares/ST/STM32_USB_Device_Library/Class/CDC/Src/usbd_cdc.c ****   0x02,                                       /* bNumEndpoints: Two endpoints used */
 334:Middlewares/ST/STM32_USB_Device_Library/Class/CDC/Src/usbd_cdc.c ****   0x0A,                                       /* bInterfaceClass: CDC */
 335:Middlewares/ST/STM32_USB_Device_Library/Class/CDC/Src/usbd_cdc.c ****   0x00,                                       /* bInterfaceSubClass: */
 336:Middlewares/ST/STM32_USB_Device_Library/Class/CDC/Src/usbd_cdc.c ****   0x00,                                       /* bInterfaceProtocol: */
 337:Middlewares/ST/STM32_USB_Device_Library/Class/CDC/Src/usbd_cdc.c ****   0x00,                                       /* iInterface: */
 338:Middlewares/ST/STM32_USB_Device_Library/Class/CDC/Src/usbd_cdc.c **** 
 339:Middlewares/ST/STM32_USB_Device_Library/Class/CDC/Src/usbd_cdc.c ****   /* Endpoint OUT Descriptor */
 340:Middlewares/ST/STM32_USB_Device_Library/Class/CDC/Src/usbd_cdc.c ****   0x07,                                       /* bLength: Endpoint Descriptor size */
ARM GAS  /var/folders/vq/qt4vp3kd5rxf7v2b6_fdtdt80000gn/T//cccgRN2W.s 			page 9


 341:Middlewares/ST/STM32_USB_Device_Library/Class/CDC/Src/usbd_cdc.c ****   USB_DESC_TYPE_ENDPOINT,                     /* bDescriptorType: Endpoint */
 342:Middlewares/ST/STM32_USB_Device_Library/Class/CDC/Src/usbd_cdc.c ****   CDC_OUT_EP,                                 /* bEndpointAddress */
 343:Middlewares/ST/STM32_USB_Device_Library/Class/CDC/Src/usbd_cdc.c ****   0x02,                                       /* bmAttributes: Bulk */
 344:Middlewares/ST/STM32_USB_Device_Library/Class/CDC/Src/usbd_cdc.c ****   LOBYTE(CDC_DATA_FS_MAX_PACKET_SIZE),        /* wMaxPacketSize: */
 345:Middlewares/ST/STM32_USB_Device_Library/Class/CDC/Src/usbd_cdc.c ****   HIBYTE(CDC_DATA_FS_MAX_PACKET_SIZE),
 346:Middlewares/ST/STM32_USB_Device_Library/Class/CDC/Src/usbd_cdc.c ****   0x00,                                       /* bInterval: ignore for Bulk transfer */
 347:Middlewares/ST/STM32_USB_Device_Library/Class/CDC/Src/usbd_cdc.c **** 
 348:Middlewares/ST/STM32_USB_Device_Library/Class/CDC/Src/usbd_cdc.c ****   /* Endpoint IN Descriptor */
 349:Middlewares/ST/STM32_USB_Device_Library/Class/CDC/Src/usbd_cdc.c ****   0x07,                                       /* bLength: Endpoint Descriptor size */
 350:Middlewares/ST/STM32_USB_Device_Library/Class/CDC/Src/usbd_cdc.c ****   USB_DESC_TYPE_ENDPOINT,                     /* bDescriptorType: Endpoint */
 351:Middlewares/ST/STM32_USB_Device_Library/Class/CDC/Src/usbd_cdc.c ****   CDC_IN_EP,                                  /* bEndpointAddress */
 352:Middlewares/ST/STM32_USB_Device_Library/Class/CDC/Src/usbd_cdc.c ****   0x02,                                       /* bmAttributes: Bulk */
 353:Middlewares/ST/STM32_USB_Device_Library/Class/CDC/Src/usbd_cdc.c ****   LOBYTE(CDC_DATA_FS_MAX_PACKET_SIZE),        /* wMaxPacketSize: */
 354:Middlewares/ST/STM32_USB_Device_Library/Class/CDC/Src/usbd_cdc.c ****   HIBYTE(CDC_DATA_FS_MAX_PACKET_SIZE),
 355:Middlewares/ST/STM32_USB_Device_Library/Class/CDC/Src/usbd_cdc.c ****   0x00                                        /* bInterval: ignore for Bulk transfer */
 356:Middlewares/ST/STM32_USB_Device_Library/Class/CDC/Src/usbd_cdc.c **** };
 357:Middlewares/ST/STM32_USB_Device_Library/Class/CDC/Src/usbd_cdc.c **** 
 358:Middlewares/ST/STM32_USB_Device_Library/Class/CDC/Src/usbd_cdc.c **** __ALIGN_BEGIN static uint8_t USBD_CDC_OtherSpeedCfgDesc[USB_CDC_CONFIG_DESC_SIZ] __ALIGN_END =
 359:Middlewares/ST/STM32_USB_Device_Library/Class/CDC/Src/usbd_cdc.c **** {
 360:Middlewares/ST/STM32_USB_Device_Library/Class/CDC/Src/usbd_cdc.c ****   0x09,                                       /* bLength: Configuration Descriptor size */
 361:Middlewares/ST/STM32_USB_Device_Library/Class/CDC/Src/usbd_cdc.c ****   USB_DESC_TYPE_OTHER_SPEED_CONFIGURATION,
 362:Middlewares/ST/STM32_USB_Device_Library/Class/CDC/Src/usbd_cdc.c ****   USB_CDC_CONFIG_DESC_SIZ,
 363:Middlewares/ST/STM32_USB_Device_Library/Class/CDC/Src/usbd_cdc.c ****   0x00,
 364:Middlewares/ST/STM32_USB_Device_Library/Class/CDC/Src/usbd_cdc.c ****   0x02,                                       /* bNumInterfaces: 2 interfaces */
 365:Middlewares/ST/STM32_USB_Device_Library/Class/CDC/Src/usbd_cdc.c ****   0x01,                                       /* bConfigurationValue: */
 366:Middlewares/ST/STM32_USB_Device_Library/Class/CDC/Src/usbd_cdc.c ****   0x04,                                       /* iConfiguration: */
 367:Middlewares/ST/STM32_USB_Device_Library/Class/CDC/Src/usbd_cdc.c **** #if (USBD_SELF_POWERED == 1U)
 368:Middlewares/ST/STM32_USB_Device_Library/Class/CDC/Src/usbd_cdc.c ****   0xC0,                                       /* bmAttributes: Bus Powered according to user config
 369:Middlewares/ST/STM32_USB_Device_Library/Class/CDC/Src/usbd_cdc.c **** #else
 370:Middlewares/ST/STM32_USB_Device_Library/Class/CDC/Src/usbd_cdc.c ****   0x80,                                       /* bmAttributes: Bus Powered according to user config
 371:Middlewares/ST/STM32_USB_Device_Library/Class/CDC/Src/usbd_cdc.c **** #endif
 372:Middlewares/ST/STM32_USB_Device_Library/Class/CDC/Src/usbd_cdc.c ****   USBD_MAX_POWER,                             /* MaxPower 100 mA */
 373:Middlewares/ST/STM32_USB_Device_Library/Class/CDC/Src/usbd_cdc.c **** 
 374:Middlewares/ST/STM32_USB_Device_Library/Class/CDC/Src/usbd_cdc.c ****   /*Interface Descriptor */
 375:Middlewares/ST/STM32_USB_Device_Library/Class/CDC/Src/usbd_cdc.c ****   0x09,                                       /* bLength: Interface Descriptor size */
 376:Middlewares/ST/STM32_USB_Device_Library/Class/CDC/Src/usbd_cdc.c ****   USB_DESC_TYPE_INTERFACE,                    /* bDescriptorType: Interface */
 377:Middlewares/ST/STM32_USB_Device_Library/Class/CDC/Src/usbd_cdc.c ****   /* Interface descriptor type */
 378:Middlewares/ST/STM32_USB_Device_Library/Class/CDC/Src/usbd_cdc.c ****   0x00,                                       /* bInterfaceNumber: Number of Interface */
 379:Middlewares/ST/STM32_USB_Device_Library/Class/CDC/Src/usbd_cdc.c ****   0x00,                                       /* bAlternateSetting: Alternate setting */
 380:Middlewares/ST/STM32_USB_Device_Library/Class/CDC/Src/usbd_cdc.c ****   0x01,                                       /* bNumEndpoints: One endpoints used */
 381:Middlewares/ST/STM32_USB_Device_Library/Class/CDC/Src/usbd_cdc.c ****   0x02,                                       /* bInterfaceClass: Communication Interface Class */
 382:Middlewares/ST/STM32_USB_Device_Library/Class/CDC/Src/usbd_cdc.c ****   0x02,                                       /* bInterfaceSubClass: Abstract Control Model */
 383:Middlewares/ST/STM32_USB_Device_Library/Class/CDC/Src/usbd_cdc.c ****   0x01,                                       /* bInterfaceProtocol: Common AT commands */
 384:Middlewares/ST/STM32_USB_Device_Library/Class/CDC/Src/usbd_cdc.c ****   0x00,                                       /* iInterface: */
 385:Middlewares/ST/STM32_USB_Device_Library/Class/CDC/Src/usbd_cdc.c **** 
 386:Middlewares/ST/STM32_USB_Device_Library/Class/CDC/Src/usbd_cdc.c ****   /* Header Functional Descriptor */
 387:Middlewares/ST/STM32_USB_Device_Library/Class/CDC/Src/usbd_cdc.c ****   0x05,                                       /* bLength: Endpoint Descriptor size */
 388:Middlewares/ST/STM32_USB_Device_Library/Class/CDC/Src/usbd_cdc.c ****   0x24,                                       /* bDescriptorType: CS_INTERFACE */
 389:Middlewares/ST/STM32_USB_Device_Library/Class/CDC/Src/usbd_cdc.c ****   0x00,                                       /* bDescriptorSubtype: Header Func Desc */
 390:Middlewares/ST/STM32_USB_Device_Library/Class/CDC/Src/usbd_cdc.c ****   0x10,                                       /* bcdCDC: spec release number */
 391:Middlewares/ST/STM32_USB_Device_Library/Class/CDC/Src/usbd_cdc.c ****   0x01,
 392:Middlewares/ST/STM32_USB_Device_Library/Class/CDC/Src/usbd_cdc.c **** 
 393:Middlewares/ST/STM32_USB_Device_Library/Class/CDC/Src/usbd_cdc.c ****   /*Call Management Functional Descriptor*/
 394:Middlewares/ST/STM32_USB_Device_Library/Class/CDC/Src/usbd_cdc.c ****   0x05,                                       /* bFunctionLength */
 395:Middlewares/ST/STM32_USB_Device_Library/Class/CDC/Src/usbd_cdc.c ****   0x24,                                       /* bDescriptorType: CS_INTERFACE */
 396:Middlewares/ST/STM32_USB_Device_Library/Class/CDC/Src/usbd_cdc.c ****   0x01,                                       /* bDescriptorSubtype: Call Management Func Desc */
 397:Middlewares/ST/STM32_USB_Device_Library/Class/CDC/Src/usbd_cdc.c ****   0x00,                                       /* bmCapabilities: D0+D1 */
ARM GAS  /var/folders/vq/qt4vp3kd5rxf7v2b6_fdtdt80000gn/T//cccgRN2W.s 			page 10


 398:Middlewares/ST/STM32_USB_Device_Library/Class/CDC/Src/usbd_cdc.c ****   0x01,                                       /* bDataInterface: 1 */
 399:Middlewares/ST/STM32_USB_Device_Library/Class/CDC/Src/usbd_cdc.c **** 
 400:Middlewares/ST/STM32_USB_Device_Library/Class/CDC/Src/usbd_cdc.c ****   /*ACM Functional Descriptor*/
 401:Middlewares/ST/STM32_USB_Device_Library/Class/CDC/Src/usbd_cdc.c ****   0x04,                                       /* bFunctionLength */
 402:Middlewares/ST/STM32_USB_Device_Library/Class/CDC/Src/usbd_cdc.c ****   0x24,                                       /* bDescriptorType: CS_INTERFACE */
 403:Middlewares/ST/STM32_USB_Device_Library/Class/CDC/Src/usbd_cdc.c ****   0x02,                                       /* bDescriptorSubtype: Abstract Control Management de
 404:Middlewares/ST/STM32_USB_Device_Library/Class/CDC/Src/usbd_cdc.c ****   0x02,                                       /* bmCapabilities */
 405:Middlewares/ST/STM32_USB_Device_Library/Class/CDC/Src/usbd_cdc.c **** 
 406:Middlewares/ST/STM32_USB_Device_Library/Class/CDC/Src/usbd_cdc.c ****   /*Union Functional Descriptor*/
 407:Middlewares/ST/STM32_USB_Device_Library/Class/CDC/Src/usbd_cdc.c ****   0x05,                                       /* bFunctionLength */
 408:Middlewares/ST/STM32_USB_Device_Library/Class/CDC/Src/usbd_cdc.c ****   0x24,                                       /* bDescriptorType: CS_INTERFACE */
 409:Middlewares/ST/STM32_USB_Device_Library/Class/CDC/Src/usbd_cdc.c ****   0x06,                                       /* bDescriptorSubtype: Union func desc */
 410:Middlewares/ST/STM32_USB_Device_Library/Class/CDC/Src/usbd_cdc.c ****   0x00,                                       /* bMasterInterface: Communication class interface */
 411:Middlewares/ST/STM32_USB_Device_Library/Class/CDC/Src/usbd_cdc.c ****   0x01,                                       /* bSlaveInterface0: Data Class Interface */
 412:Middlewares/ST/STM32_USB_Device_Library/Class/CDC/Src/usbd_cdc.c **** 
 413:Middlewares/ST/STM32_USB_Device_Library/Class/CDC/Src/usbd_cdc.c ****   /*Endpoint 2 Descriptor*/
 414:Middlewares/ST/STM32_USB_Device_Library/Class/CDC/Src/usbd_cdc.c ****   0x07,                                       /* bLength: Endpoint Descriptor size */
 415:Middlewares/ST/STM32_USB_Device_Library/Class/CDC/Src/usbd_cdc.c ****   USB_DESC_TYPE_ENDPOINT,                     /* bDescriptorType: Endpoint */
 416:Middlewares/ST/STM32_USB_Device_Library/Class/CDC/Src/usbd_cdc.c ****   CDC_CMD_EP,                                 /* bEndpointAddress */
 417:Middlewares/ST/STM32_USB_Device_Library/Class/CDC/Src/usbd_cdc.c ****   0x03,                                       /* bmAttributes: Interrupt */
 418:Middlewares/ST/STM32_USB_Device_Library/Class/CDC/Src/usbd_cdc.c ****   LOBYTE(CDC_CMD_PACKET_SIZE),                /* wMaxPacketSize: */
 419:Middlewares/ST/STM32_USB_Device_Library/Class/CDC/Src/usbd_cdc.c ****   HIBYTE(CDC_CMD_PACKET_SIZE),
 420:Middlewares/ST/STM32_USB_Device_Library/Class/CDC/Src/usbd_cdc.c ****   CDC_FS_BINTERVAL,                           /* bInterval: */
 421:Middlewares/ST/STM32_USB_Device_Library/Class/CDC/Src/usbd_cdc.c **** 
 422:Middlewares/ST/STM32_USB_Device_Library/Class/CDC/Src/usbd_cdc.c ****   /*---------------------------------------------------------------------------*/
 423:Middlewares/ST/STM32_USB_Device_Library/Class/CDC/Src/usbd_cdc.c **** 
 424:Middlewares/ST/STM32_USB_Device_Library/Class/CDC/Src/usbd_cdc.c ****   /*Data class interface descriptor*/
 425:Middlewares/ST/STM32_USB_Device_Library/Class/CDC/Src/usbd_cdc.c ****   0x09,                                       /* bLength: Endpoint Descriptor size */
 426:Middlewares/ST/STM32_USB_Device_Library/Class/CDC/Src/usbd_cdc.c ****   USB_DESC_TYPE_INTERFACE,                    /* bDescriptorType: */
 427:Middlewares/ST/STM32_USB_Device_Library/Class/CDC/Src/usbd_cdc.c ****   0x01,                                       /* bInterfaceNumber: Number of Interface */
 428:Middlewares/ST/STM32_USB_Device_Library/Class/CDC/Src/usbd_cdc.c ****   0x00,                                       /* bAlternateSetting: Alternate setting */
 429:Middlewares/ST/STM32_USB_Device_Library/Class/CDC/Src/usbd_cdc.c ****   0x02,                                       /* bNumEndpoints: Two endpoints used */
 430:Middlewares/ST/STM32_USB_Device_Library/Class/CDC/Src/usbd_cdc.c ****   0x0A,                                       /* bInterfaceClass: CDC */
 431:Middlewares/ST/STM32_USB_Device_Library/Class/CDC/Src/usbd_cdc.c ****   0x00,                                       /* bInterfaceSubClass: */
 432:Middlewares/ST/STM32_USB_Device_Library/Class/CDC/Src/usbd_cdc.c ****   0x00,                                       /* bInterfaceProtocol: */
 433:Middlewares/ST/STM32_USB_Device_Library/Class/CDC/Src/usbd_cdc.c ****   0x00,                                       /* iInterface: */
 434:Middlewares/ST/STM32_USB_Device_Library/Class/CDC/Src/usbd_cdc.c **** 
 435:Middlewares/ST/STM32_USB_Device_Library/Class/CDC/Src/usbd_cdc.c ****   /*Endpoint OUT Descriptor*/
 436:Middlewares/ST/STM32_USB_Device_Library/Class/CDC/Src/usbd_cdc.c ****   0x07,                                       /* bLength: Endpoint Descriptor size */
 437:Middlewares/ST/STM32_USB_Device_Library/Class/CDC/Src/usbd_cdc.c ****   USB_DESC_TYPE_ENDPOINT,                     /* bDescriptorType: Endpoint */
 438:Middlewares/ST/STM32_USB_Device_Library/Class/CDC/Src/usbd_cdc.c ****   CDC_OUT_EP,                                 /* bEndpointAddress */
 439:Middlewares/ST/STM32_USB_Device_Library/Class/CDC/Src/usbd_cdc.c ****   0x02,                                       /* bmAttributes: Bulk */
 440:Middlewares/ST/STM32_USB_Device_Library/Class/CDC/Src/usbd_cdc.c ****   0x40,                                       /* wMaxPacketSize: */
 441:Middlewares/ST/STM32_USB_Device_Library/Class/CDC/Src/usbd_cdc.c ****   0x00,
 442:Middlewares/ST/STM32_USB_Device_Library/Class/CDC/Src/usbd_cdc.c ****   0x00,                                       /* bInterval: ignore for Bulk transfer */
 443:Middlewares/ST/STM32_USB_Device_Library/Class/CDC/Src/usbd_cdc.c **** 
 444:Middlewares/ST/STM32_USB_Device_Library/Class/CDC/Src/usbd_cdc.c ****   /*Endpoint IN Descriptor*/
 445:Middlewares/ST/STM32_USB_Device_Library/Class/CDC/Src/usbd_cdc.c ****   0x07,                                       /* bLength: Endpoint Descriptor size */
 446:Middlewares/ST/STM32_USB_Device_Library/Class/CDC/Src/usbd_cdc.c ****   USB_DESC_TYPE_ENDPOINT,                     /* bDescriptorType: Endpoint */
 447:Middlewares/ST/STM32_USB_Device_Library/Class/CDC/Src/usbd_cdc.c ****   CDC_IN_EP,                                  /* bEndpointAddress */
 448:Middlewares/ST/STM32_USB_Device_Library/Class/CDC/Src/usbd_cdc.c ****   0x02,                                       /* bmAttributes: Bulk */
 449:Middlewares/ST/STM32_USB_Device_Library/Class/CDC/Src/usbd_cdc.c ****   0x40,                                       /* wMaxPacketSize: */
 450:Middlewares/ST/STM32_USB_Device_Library/Class/CDC/Src/usbd_cdc.c ****   0x00,
 451:Middlewares/ST/STM32_USB_Device_Library/Class/CDC/Src/usbd_cdc.c ****   0x00                                        /* bInterval */
 452:Middlewares/ST/STM32_USB_Device_Library/Class/CDC/Src/usbd_cdc.c **** };
 453:Middlewares/ST/STM32_USB_Device_Library/Class/CDC/Src/usbd_cdc.c **** 
 454:Middlewares/ST/STM32_USB_Device_Library/Class/CDC/Src/usbd_cdc.c **** /**
ARM GAS  /var/folders/vq/qt4vp3kd5rxf7v2b6_fdtdt80000gn/T//cccgRN2W.s 			page 11


 455:Middlewares/ST/STM32_USB_Device_Library/Class/CDC/Src/usbd_cdc.c ****   * @}
 456:Middlewares/ST/STM32_USB_Device_Library/Class/CDC/Src/usbd_cdc.c ****   */
 457:Middlewares/ST/STM32_USB_Device_Library/Class/CDC/Src/usbd_cdc.c **** 
 458:Middlewares/ST/STM32_USB_Device_Library/Class/CDC/Src/usbd_cdc.c **** /** @defgroup USBD_CDC_Private_Functions
 459:Middlewares/ST/STM32_USB_Device_Library/Class/CDC/Src/usbd_cdc.c ****   * @{
 460:Middlewares/ST/STM32_USB_Device_Library/Class/CDC/Src/usbd_cdc.c ****   */
 461:Middlewares/ST/STM32_USB_Device_Library/Class/CDC/Src/usbd_cdc.c **** 
 462:Middlewares/ST/STM32_USB_Device_Library/Class/CDC/Src/usbd_cdc.c **** /**
 463:Middlewares/ST/STM32_USB_Device_Library/Class/CDC/Src/usbd_cdc.c ****   * @brief  USBD_CDC_Init
 464:Middlewares/ST/STM32_USB_Device_Library/Class/CDC/Src/usbd_cdc.c ****   *         Initialize the CDC interface
 465:Middlewares/ST/STM32_USB_Device_Library/Class/CDC/Src/usbd_cdc.c ****   * @param  pdev: device instance
 466:Middlewares/ST/STM32_USB_Device_Library/Class/CDC/Src/usbd_cdc.c ****   * @param  cfgidx: Configuration index
 467:Middlewares/ST/STM32_USB_Device_Library/Class/CDC/Src/usbd_cdc.c ****   * @retval status
 468:Middlewares/ST/STM32_USB_Device_Library/Class/CDC/Src/usbd_cdc.c ****   */
 469:Middlewares/ST/STM32_USB_Device_Library/Class/CDC/Src/usbd_cdc.c **** static uint8_t USBD_CDC_Init(USBD_HandleTypeDef *pdev, uint8_t cfgidx)
 470:Middlewares/ST/STM32_USB_Device_Library/Class/CDC/Src/usbd_cdc.c **** {
  84              		.loc 1 470 1
  85              		.cfi_startproc
  86              		@ args = 0, pretend = 0, frame = 16
  87              		@ frame_needed = 1, uses_anonymous_args = 0
  88 0000 80B5     		push	{r7, lr}
  89              	.LCFI0:
  90              		.cfi_def_cfa_offset 8
  91              		.cfi_offset 7, -8
  92              		.cfi_offset 14, -4
  93 0002 84B0     		sub	sp, sp, #16
  94              	.LCFI1:
  95              		.cfi_def_cfa_offset 24
  96 0004 00AF     		add	r7, sp, #0
  97              	.LCFI2:
  98              		.cfi_def_cfa_register 7
  99 0006 7860     		str	r0, [r7, #4]
 100 0008 0B46     		mov	r3, r1
 101 000a FB70     		strb	r3, [r7, #3]
 471:Middlewares/ST/STM32_USB_Device_Library/Class/CDC/Src/usbd_cdc.c ****   UNUSED(cfgidx);
 472:Middlewares/ST/STM32_USB_Device_Library/Class/CDC/Src/usbd_cdc.c ****   USBD_CDC_HandleTypeDef *hcdc;
 473:Middlewares/ST/STM32_USB_Device_Library/Class/CDC/Src/usbd_cdc.c **** 
 474:Middlewares/ST/STM32_USB_Device_Library/Class/CDC/Src/usbd_cdc.c ****   hcdc = USBD_malloc(sizeof(USBD_CDC_HandleTypeDef));
 102              		.loc 1 474 10
 103 000c 4FF40770 		mov	r0, #540
 104 0010 FFF7FEFF 		bl	USBD_static_malloc
 105 0014 F860     		str	r0, [r7, #12]
 475:Middlewares/ST/STM32_USB_Device_Library/Class/CDC/Src/usbd_cdc.c **** 
 476:Middlewares/ST/STM32_USB_Device_Library/Class/CDC/Src/usbd_cdc.c ****   if (hcdc == NULL)
 106              		.loc 1 476 6
 107 0016 FB68     		ldr	r3, [r7, #12]
 108 0018 002B     		cmp	r3, #0
 109 001a 05D1     		bne	.L2
 477:Middlewares/ST/STM32_USB_Device_Library/Class/CDC/Src/usbd_cdc.c ****   {
 478:Middlewares/ST/STM32_USB_Device_Library/Class/CDC/Src/usbd_cdc.c ****     pdev->pClassData = NULL;
 110              		.loc 1 478 22
 111 001c 7B68     		ldr	r3, [r7, #4]
 112 001e 0022     		movs	r2, #0
 113 0020 C3F8BC22 		str	r2, [r3, #700]
 479:Middlewares/ST/STM32_USB_Device_Library/Class/CDC/Src/usbd_cdc.c ****     return (uint8_t)USBD_EMEM;
 114              		.loc 1 479 12
 115 0024 0223     		movs	r3, #2
ARM GAS  /var/folders/vq/qt4vp3kd5rxf7v2b6_fdtdt80000gn/T//cccgRN2W.s 			page 12


 116 0026 66E0     		b	.L3
 117              	.L2:
 480:Middlewares/ST/STM32_USB_Device_Library/Class/CDC/Src/usbd_cdc.c ****   }
 481:Middlewares/ST/STM32_USB_Device_Library/Class/CDC/Src/usbd_cdc.c **** 
 482:Middlewares/ST/STM32_USB_Device_Library/Class/CDC/Src/usbd_cdc.c ****   pdev->pClassData = (void *)hcdc;
 118              		.loc 1 482 20
 119 0028 7B68     		ldr	r3, [r7, #4]
 120 002a FA68     		ldr	r2, [r7, #12]
 121 002c C3F8BC22 		str	r2, [r3, #700]
 483:Middlewares/ST/STM32_USB_Device_Library/Class/CDC/Src/usbd_cdc.c **** 
 484:Middlewares/ST/STM32_USB_Device_Library/Class/CDC/Src/usbd_cdc.c ****   if (pdev->dev_speed == USBD_SPEED_HIGH)
 122              		.loc 1 484 11
 123 0030 7B68     		ldr	r3, [r7, #4]
 124 0032 1B7C     		ldrb	r3, [r3, #16]	@ zero_extendqisi2
 125              		.loc 1 484 6
 126 0034 002B     		cmp	r3, #0
 127 0036 19D1     		bne	.L4
 485:Middlewares/ST/STM32_USB_Device_Library/Class/CDC/Src/usbd_cdc.c ****   {
 486:Middlewares/ST/STM32_USB_Device_Library/Class/CDC/Src/usbd_cdc.c ****     /* Open EP IN */
 487:Middlewares/ST/STM32_USB_Device_Library/Class/CDC/Src/usbd_cdc.c ****     (void)USBD_LL_OpenEP(pdev, CDC_IN_EP, USBD_EP_TYPE_BULK,
 128              		.loc 1 487 11
 129 0038 4FF40073 		mov	r3, #512
 130 003c 0222     		movs	r2, #2
 131 003e 8121     		movs	r1, #129
 132 0040 7868     		ldr	r0, [r7, #4]
 133 0042 FFF7FEFF 		bl	USBD_LL_OpenEP
 488:Middlewares/ST/STM32_USB_Device_Library/Class/CDC/Src/usbd_cdc.c ****                          CDC_DATA_HS_IN_PACKET_SIZE);
 489:Middlewares/ST/STM32_USB_Device_Library/Class/CDC/Src/usbd_cdc.c **** 
 490:Middlewares/ST/STM32_USB_Device_Library/Class/CDC/Src/usbd_cdc.c ****     pdev->ep_in[CDC_IN_EP & 0xFU].is_used = 1U;
 134              		.loc 1 490 43
 135 0046 7B68     		ldr	r3, [r7, #4]
 136 0048 0122     		movs	r2, #1
 137 004a 1A87     		strh	r2, [r3, #56]	@ movhi
 491:Middlewares/ST/STM32_USB_Device_Library/Class/CDC/Src/usbd_cdc.c **** 
 492:Middlewares/ST/STM32_USB_Device_Library/Class/CDC/Src/usbd_cdc.c ****     /* Open EP OUT */
 493:Middlewares/ST/STM32_USB_Device_Library/Class/CDC/Src/usbd_cdc.c ****     (void)USBD_LL_OpenEP(pdev, CDC_OUT_EP, USBD_EP_TYPE_BULK,
 138              		.loc 1 493 11
 139 004c 4FF40073 		mov	r3, #512
 140 0050 0222     		movs	r2, #2
 141 0052 0121     		movs	r1, #1
 142 0054 7868     		ldr	r0, [r7, #4]
 143 0056 FFF7FEFF 		bl	USBD_LL_OpenEP
 494:Middlewares/ST/STM32_USB_Device_Library/Class/CDC/Src/usbd_cdc.c ****                          CDC_DATA_HS_OUT_PACKET_SIZE);
 495:Middlewares/ST/STM32_USB_Device_Library/Class/CDC/Src/usbd_cdc.c **** 
 496:Middlewares/ST/STM32_USB_Device_Library/Class/CDC/Src/usbd_cdc.c ****     pdev->ep_out[CDC_OUT_EP & 0xFU].is_used = 1U;
 144              		.loc 1 496 45
 145 005a 7B68     		ldr	r3, [r7, #4]
 146 005c 0122     		movs	r2, #1
 147 005e A3F87821 		strh	r2, [r3, #376]	@ movhi
 497:Middlewares/ST/STM32_USB_Device_Library/Class/CDC/Src/usbd_cdc.c **** 
 498:Middlewares/ST/STM32_USB_Device_Library/Class/CDC/Src/usbd_cdc.c ****     /* Set bInterval for CDC CMD Endpoint */
 499:Middlewares/ST/STM32_USB_Device_Library/Class/CDC/Src/usbd_cdc.c ****     pdev->ep_in[CDC_CMD_EP & 0xFU].bInterval = CDC_HS_BINTERVAL;
 148              		.loc 1 499 46
 149 0062 7B68     		ldr	r3, [r7, #4]
 150 0064 1022     		movs	r2, #16
 151 0066 A3F84E20 		strh	r2, [r3, #78]	@ movhi
 152 006a 16E0     		b	.L5
ARM GAS  /var/folders/vq/qt4vp3kd5rxf7v2b6_fdtdt80000gn/T//cccgRN2W.s 			page 13


 153              	.L4:
 500:Middlewares/ST/STM32_USB_Device_Library/Class/CDC/Src/usbd_cdc.c ****   }
 501:Middlewares/ST/STM32_USB_Device_Library/Class/CDC/Src/usbd_cdc.c ****   else
 502:Middlewares/ST/STM32_USB_Device_Library/Class/CDC/Src/usbd_cdc.c ****   {
 503:Middlewares/ST/STM32_USB_Device_Library/Class/CDC/Src/usbd_cdc.c ****     /* Open EP IN */
 504:Middlewares/ST/STM32_USB_Device_Library/Class/CDC/Src/usbd_cdc.c ****     (void)USBD_LL_OpenEP(pdev, CDC_IN_EP, USBD_EP_TYPE_BULK,
 154              		.loc 1 504 11
 155 006c 4023     		movs	r3, #64
 156 006e 0222     		movs	r2, #2
 157 0070 8121     		movs	r1, #129
 158 0072 7868     		ldr	r0, [r7, #4]
 159 0074 FFF7FEFF 		bl	USBD_LL_OpenEP
 505:Middlewares/ST/STM32_USB_Device_Library/Class/CDC/Src/usbd_cdc.c ****                          CDC_DATA_FS_IN_PACKET_SIZE);
 506:Middlewares/ST/STM32_USB_Device_Library/Class/CDC/Src/usbd_cdc.c **** 
 507:Middlewares/ST/STM32_USB_Device_Library/Class/CDC/Src/usbd_cdc.c ****     pdev->ep_in[CDC_IN_EP & 0xFU].is_used = 1U;
 160              		.loc 1 507 43
 161 0078 7B68     		ldr	r3, [r7, #4]
 162 007a 0122     		movs	r2, #1
 163 007c 1A87     		strh	r2, [r3, #56]	@ movhi
 508:Middlewares/ST/STM32_USB_Device_Library/Class/CDC/Src/usbd_cdc.c **** 
 509:Middlewares/ST/STM32_USB_Device_Library/Class/CDC/Src/usbd_cdc.c ****     /* Open EP OUT */
 510:Middlewares/ST/STM32_USB_Device_Library/Class/CDC/Src/usbd_cdc.c ****     (void)USBD_LL_OpenEP(pdev, CDC_OUT_EP, USBD_EP_TYPE_BULK,
 164              		.loc 1 510 11
 165 007e 4023     		movs	r3, #64
 166 0080 0222     		movs	r2, #2
 167 0082 0121     		movs	r1, #1
 168 0084 7868     		ldr	r0, [r7, #4]
 169 0086 FFF7FEFF 		bl	USBD_LL_OpenEP
 511:Middlewares/ST/STM32_USB_Device_Library/Class/CDC/Src/usbd_cdc.c ****                          CDC_DATA_FS_OUT_PACKET_SIZE);
 512:Middlewares/ST/STM32_USB_Device_Library/Class/CDC/Src/usbd_cdc.c **** 
 513:Middlewares/ST/STM32_USB_Device_Library/Class/CDC/Src/usbd_cdc.c ****     pdev->ep_out[CDC_OUT_EP & 0xFU].is_used = 1U;
 170              		.loc 1 513 45
 171 008a 7B68     		ldr	r3, [r7, #4]
 172 008c 0122     		movs	r2, #1
 173 008e A3F87821 		strh	r2, [r3, #376]	@ movhi
 514:Middlewares/ST/STM32_USB_Device_Library/Class/CDC/Src/usbd_cdc.c **** 
 515:Middlewares/ST/STM32_USB_Device_Library/Class/CDC/Src/usbd_cdc.c ****     /* Set bInterval for CMD Endpoint */
 516:Middlewares/ST/STM32_USB_Device_Library/Class/CDC/Src/usbd_cdc.c ****     pdev->ep_in[CDC_CMD_EP & 0xFU].bInterval = CDC_FS_BINTERVAL;
 174              		.loc 1 516 46
 175 0092 7B68     		ldr	r3, [r7, #4]
 176 0094 1022     		movs	r2, #16
 177 0096 A3F84E20 		strh	r2, [r3, #78]	@ movhi
 178              	.L5:
 517:Middlewares/ST/STM32_USB_Device_Library/Class/CDC/Src/usbd_cdc.c ****   }
 518:Middlewares/ST/STM32_USB_Device_Library/Class/CDC/Src/usbd_cdc.c **** 
 519:Middlewares/ST/STM32_USB_Device_Library/Class/CDC/Src/usbd_cdc.c ****   /* Open Command IN EP */
 520:Middlewares/ST/STM32_USB_Device_Library/Class/CDC/Src/usbd_cdc.c ****   (void)USBD_LL_OpenEP(pdev, CDC_CMD_EP, USBD_EP_TYPE_INTR, CDC_CMD_PACKET_SIZE);
 179              		.loc 1 520 9
 180 009a 0823     		movs	r3, #8
 181 009c 0322     		movs	r2, #3
 182 009e 8221     		movs	r1, #130
 183 00a0 7868     		ldr	r0, [r7, #4]
 184 00a2 FFF7FEFF 		bl	USBD_LL_OpenEP
 521:Middlewares/ST/STM32_USB_Device_Library/Class/CDC/Src/usbd_cdc.c ****   pdev->ep_in[CDC_CMD_EP & 0xFU].is_used = 1U;
 185              		.loc 1 521 42
 186 00a6 7B68     		ldr	r3, [r7, #4]
 187 00a8 0122     		movs	r2, #1
ARM GAS  /var/folders/vq/qt4vp3kd5rxf7v2b6_fdtdt80000gn/T//cccgRN2W.s 			page 14


 188 00aa A3F84C20 		strh	r2, [r3, #76]	@ movhi
 522:Middlewares/ST/STM32_USB_Device_Library/Class/CDC/Src/usbd_cdc.c **** 
 523:Middlewares/ST/STM32_USB_Device_Library/Class/CDC/Src/usbd_cdc.c ****   /* Init  physical Interface components */
 524:Middlewares/ST/STM32_USB_Device_Library/Class/CDC/Src/usbd_cdc.c ****   ((USBD_CDC_ItfTypeDef *)pdev->pUserData)->Init();
 189              		.loc 1 524 31
 190 00ae 7B68     		ldr	r3, [r7, #4]
 191 00b0 D3F8C032 		ldr	r3, [r3, #704]
 192              		.loc 1 524 43
 193 00b4 1B68     		ldr	r3, [r3]
 194              		.loc 1 524 4
 195 00b6 9847     		blx	r3
 196              	.LVL0:
 525:Middlewares/ST/STM32_USB_Device_Library/Class/CDC/Src/usbd_cdc.c **** 
 526:Middlewares/ST/STM32_USB_Device_Library/Class/CDC/Src/usbd_cdc.c ****   /* Init Xfer states */
 527:Middlewares/ST/STM32_USB_Device_Library/Class/CDC/Src/usbd_cdc.c ****   hcdc->TxState = 0U;
 197              		.loc 1 527 17
 198 00b8 FB68     		ldr	r3, [r7, #12]
 199 00ba 0022     		movs	r2, #0
 200 00bc C3F81422 		str	r2, [r3, #532]
 528:Middlewares/ST/STM32_USB_Device_Library/Class/CDC/Src/usbd_cdc.c ****   hcdc->RxState = 0U;
 201              		.loc 1 528 17
 202 00c0 FB68     		ldr	r3, [r7, #12]
 203 00c2 0022     		movs	r2, #0
 204 00c4 C3F81822 		str	r2, [r3, #536]
 529:Middlewares/ST/STM32_USB_Device_Library/Class/CDC/Src/usbd_cdc.c **** 
 530:Middlewares/ST/STM32_USB_Device_Library/Class/CDC/Src/usbd_cdc.c ****   if (pdev->dev_speed == USBD_SPEED_HIGH)
 205              		.loc 1 530 11
 206 00c8 7B68     		ldr	r3, [r7, #4]
 207 00ca 1B7C     		ldrb	r3, [r3, #16]	@ zero_extendqisi2
 208              		.loc 1 530 6
 209 00cc 002B     		cmp	r3, #0
 210 00ce 09D1     		bne	.L6
 531:Middlewares/ST/STM32_USB_Device_Library/Class/CDC/Src/usbd_cdc.c ****   {
 532:Middlewares/ST/STM32_USB_Device_Library/Class/CDC/Src/usbd_cdc.c ****     /* Prepare Out endpoint to receive next packet */
 533:Middlewares/ST/STM32_USB_Device_Library/Class/CDC/Src/usbd_cdc.c ****     (void)USBD_LL_PrepareReceive(pdev, CDC_OUT_EP, hcdc->RxBuffer,
 211              		.loc 1 533 11
 212 00d0 FB68     		ldr	r3, [r7, #12]
 213 00d2 D3F80422 		ldr	r2, [r3, #516]
 214 00d6 4FF40073 		mov	r3, #512
 215 00da 0121     		movs	r1, #1
 216 00dc 7868     		ldr	r0, [r7, #4]
 217 00de FFF7FEFF 		bl	USBD_LL_PrepareReceive
 218 00e2 07E0     		b	.L7
 219              	.L6:
 534:Middlewares/ST/STM32_USB_Device_Library/Class/CDC/Src/usbd_cdc.c ****                                  CDC_DATA_HS_OUT_PACKET_SIZE);
 535:Middlewares/ST/STM32_USB_Device_Library/Class/CDC/Src/usbd_cdc.c ****   }
 536:Middlewares/ST/STM32_USB_Device_Library/Class/CDC/Src/usbd_cdc.c ****   else
 537:Middlewares/ST/STM32_USB_Device_Library/Class/CDC/Src/usbd_cdc.c ****   {
 538:Middlewares/ST/STM32_USB_Device_Library/Class/CDC/Src/usbd_cdc.c ****     /* Prepare Out endpoint to receive next packet */
 539:Middlewares/ST/STM32_USB_Device_Library/Class/CDC/Src/usbd_cdc.c ****     (void)USBD_LL_PrepareReceive(pdev, CDC_OUT_EP, hcdc->RxBuffer,
 220              		.loc 1 539 11
 221 00e4 FB68     		ldr	r3, [r7, #12]
 222 00e6 D3F80422 		ldr	r2, [r3, #516]
 223 00ea 4023     		movs	r3, #64
 224 00ec 0121     		movs	r1, #1
 225 00ee 7868     		ldr	r0, [r7, #4]
 226 00f0 FFF7FEFF 		bl	USBD_LL_PrepareReceive
ARM GAS  /var/folders/vq/qt4vp3kd5rxf7v2b6_fdtdt80000gn/T//cccgRN2W.s 			page 15


 227              	.L7:
 540:Middlewares/ST/STM32_USB_Device_Library/Class/CDC/Src/usbd_cdc.c ****                                  CDC_DATA_FS_OUT_PACKET_SIZE);
 541:Middlewares/ST/STM32_USB_Device_Library/Class/CDC/Src/usbd_cdc.c ****   }
 542:Middlewares/ST/STM32_USB_Device_Library/Class/CDC/Src/usbd_cdc.c **** 
 543:Middlewares/ST/STM32_USB_Device_Library/Class/CDC/Src/usbd_cdc.c ****   return (uint8_t)USBD_OK;
 228              		.loc 1 543 10
 229 00f4 0023     		movs	r3, #0
 230              	.L3:
 544:Middlewares/ST/STM32_USB_Device_Library/Class/CDC/Src/usbd_cdc.c **** }
 231              		.loc 1 544 1
 232 00f6 1846     		mov	r0, r3
 233 00f8 1037     		adds	r7, r7, #16
 234              	.LCFI3:
 235              		.cfi_def_cfa_offset 8
 236 00fa BD46     		mov	sp, r7
 237              	.LCFI4:
 238              		.cfi_def_cfa_register 13
 239              		@ sp needed
 240 00fc 80BD     		pop	{r7, pc}
 241              		.cfi_endproc
 242              	.LFE134:
 244              		.section	.text.USBD_CDC_DeInit,"ax",%progbits
 245              		.align	1
 246              		.syntax unified
 247              		.thumb
 248              		.thumb_func
 249              		.fpu fpv4-sp-d16
 251              	USBD_CDC_DeInit:
 252              	.LFB135:
 545:Middlewares/ST/STM32_USB_Device_Library/Class/CDC/Src/usbd_cdc.c **** 
 546:Middlewares/ST/STM32_USB_Device_Library/Class/CDC/Src/usbd_cdc.c **** /**
 547:Middlewares/ST/STM32_USB_Device_Library/Class/CDC/Src/usbd_cdc.c ****   * @brief  USBD_CDC_Init
 548:Middlewares/ST/STM32_USB_Device_Library/Class/CDC/Src/usbd_cdc.c ****   *         DeInitialize the CDC layer
 549:Middlewares/ST/STM32_USB_Device_Library/Class/CDC/Src/usbd_cdc.c ****   * @param  pdev: device instance
 550:Middlewares/ST/STM32_USB_Device_Library/Class/CDC/Src/usbd_cdc.c ****   * @param  cfgidx: Configuration index
 551:Middlewares/ST/STM32_USB_Device_Library/Class/CDC/Src/usbd_cdc.c ****   * @retval status
 552:Middlewares/ST/STM32_USB_Device_Library/Class/CDC/Src/usbd_cdc.c ****   */
 553:Middlewares/ST/STM32_USB_Device_Library/Class/CDC/Src/usbd_cdc.c **** static uint8_t USBD_CDC_DeInit(USBD_HandleTypeDef *pdev, uint8_t cfgidx)
 554:Middlewares/ST/STM32_USB_Device_Library/Class/CDC/Src/usbd_cdc.c **** {
 253              		.loc 1 554 1
 254              		.cfi_startproc
 255              		@ args = 0, pretend = 0, frame = 8
 256              		@ frame_needed = 1, uses_anonymous_args = 0
 257 0000 80B5     		push	{r7, lr}
 258              	.LCFI5:
 259              		.cfi_def_cfa_offset 8
 260              		.cfi_offset 7, -8
 261              		.cfi_offset 14, -4
 262 0002 82B0     		sub	sp, sp, #8
 263              	.LCFI6:
 264              		.cfi_def_cfa_offset 16
 265 0004 00AF     		add	r7, sp, #0
 266              	.LCFI7:
 267              		.cfi_def_cfa_register 7
 268 0006 7860     		str	r0, [r7, #4]
 269 0008 0B46     		mov	r3, r1
 270 000a FB70     		strb	r3, [r7, #3]
ARM GAS  /var/folders/vq/qt4vp3kd5rxf7v2b6_fdtdt80000gn/T//cccgRN2W.s 			page 16


 555:Middlewares/ST/STM32_USB_Device_Library/Class/CDC/Src/usbd_cdc.c ****   UNUSED(cfgidx);
 556:Middlewares/ST/STM32_USB_Device_Library/Class/CDC/Src/usbd_cdc.c **** 
 557:Middlewares/ST/STM32_USB_Device_Library/Class/CDC/Src/usbd_cdc.c ****   /* Close EP IN */
 558:Middlewares/ST/STM32_USB_Device_Library/Class/CDC/Src/usbd_cdc.c ****   (void)USBD_LL_CloseEP(pdev, CDC_IN_EP);
 271              		.loc 1 558 9
 272 000c 8121     		movs	r1, #129
 273 000e 7868     		ldr	r0, [r7, #4]
 274 0010 FFF7FEFF 		bl	USBD_LL_CloseEP
 559:Middlewares/ST/STM32_USB_Device_Library/Class/CDC/Src/usbd_cdc.c ****   pdev->ep_in[CDC_IN_EP & 0xFU].is_used = 0U;
 275              		.loc 1 559 41
 276 0014 7B68     		ldr	r3, [r7, #4]
 277 0016 0022     		movs	r2, #0
 278 0018 1A87     		strh	r2, [r3, #56]	@ movhi
 560:Middlewares/ST/STM32_USB_Device_Library/Class/CDC/Src/usbd_cdc.c **** 
 561:Middlewares/ST/STM32_USB_Device_Library/Class/CDC/Src/usbd_cdc.c ****   /* Close EP OUT */
 562:Middlewares/ST/STM32_USB_Device_Library/Class/CDC/Src/usbd_cdc.c ****   (void)USBD_LL_CloseEP(pdev, CDC_OUT_EP);
 279              		.loc 1 562 9
 280 001a 0121     		movs	r1, #1
 281 001c 7868     		ldr	r0, [r7, #4]
 282 001e FFF7FEFF 		bl	USBD_LL_CloseEP
 563:Middlewares/ST/STM32_USB_Device_Library/Class/CDC/Src/usbd_cdc.c ****   pdev->ep_out[CDC_OUT_EP & 0xFU].is_used = 0U;
 283              		.loc 1 563 43
 284 0022 7B68     		ldr	r3, [r7, #4]
 285 0024 0022     		movs	r2, #0
 286 0026 A3F87821 		strh	r2, [r3, #376]	@ movhi
 564:Middlewares/ST/STM32_USB_Device_Library/Class/CDC/Src/usbd_cdc.c **** 
 565:Middlewares/ST/STM32_USB_Device_Library/Class/CDC/Src/usbd_cdc.c ****   /* Close Command IN EP */
 566:Middlewares/ST/STM32_USB_Device_Library/Class/CDC/Src/usbd_cdc.c ****   (void)USBD_LL_CloseEP(pdev, CDC_CMD_EP);
 287              		.loc 1 566 9
 288 002a 8221     		movs	r1, #130
 289 002c 7868     		ldr	r0, [r7, #4]
 290 002e FFF7FEFF 		bl	USBD_LL_CloseEP
 567:Middlewares/ST/STM32_USB_Device_Library/Class/CDC/Src/usbd_cdc.c ****   pdev->ep_in[CDC_CMD_EP & 0xFU].is_used = 0U;
 291              		.loc 1 567 42
 292 0032 7B68     		ldr	r3, [r7, #4]
 293 0034 0022     		movs	r2, #0
 294 0036 A3F84C20 		strh	r2, [r3, #76]	@ movhi
 568:Middlewares/ST/STM32_USB_Device_Library/Class/CDC/Src/usbd_cdc.c ****   pdev->ep_in[CDC_CMD_EP & 0xFU].bInterval = 0U;
 295              		.loc 1 568 44
 296 003a 7B68     		ldr	r3, [r7, #4]
 297 003c 0022     		movs	r2, #0
 298 003e A3F84E20 		strh	r2, [r3, #78]	@ movhi
 569:Middlewares/ST/STM32_USB_Device_Library/Class/CDC/Src/usbd_cdc.c **** 
 570:Middlewares/ST/STM32_USB_Device_Library/Class/CDC/Src/usbd_cdc.c ****   /* DeInit  physical Interface components */
 571:Middlewares/ST/STM32_USB_Device_Library/Class/CDC/Src/usbd_cdc.c ****   if (pdev->pClassData != NULL)
 299              		.loc 1 571 11
 300 0042 7B68     		ldr	r3, [r7, #4]
 301 0044 D3F8BC32 		ldr	r3, [r3, #700]
 302              		.loc 1 571 6
 303 0048 002B     		cmp	r3, #0
 304 004a 0ED0     		beq	.L9
 572:Middlewares/ST/STM32_USB_Device_Library/Class/CDC/Src/usbd_cdc.c ****   {
 573:Middlewares/ST/STM32_USB_Device_Library/Class/CDC/Src/usbd_cdc.c ****     ((USBD_CDC_ItfTypeDef *)pdev->pUserData)->DeInit();
 305              		.loc 1 573 33
 306 004c 7B68     		ldr	r3, [r7, #4]
 307 004e D3F8C032 		ldr	r3, [r3, #704]
 308              		.loc 1 573 45
ARM GAS  /var/folders/vq/qt4vp3kd5rxf7v2b6_fdtdt80000gn/T//cccgRN2W.s 			page 17


 309 0052 5B68     		ldr	r3, [r3, #4]
 310              		.loc 1 573 6
 311 0054 9847     		blx	r3
 312              	.LVL1:
 574:Middlewares/ST/STM32_USB_Device_Library/Class/CDC/Src/usbd_cdc.c ****     (void)USBD_free(pdev->pClassData);
 313              		.loc 1 574 5
 314 0056 7B68     		ldr	r3, [r7, #4]
 315 0058 D3F8BC32 		ldr	r3, [r3, #700]
 316 005c 1846     		mov	r0, r3
 317 005e FFF7FEFF 		bl	USBD_static_free
 575:Middlewares/ST/STM32_USB_Device_Library/Class/CDC/Src/usbd_cdc.c ****     pdev->pClassData = NULL;
 318              		.loc 1 575 22
 319 0062 7B68     		ldr	r3, [r7, #4]
 320 0064 0022     		movs	r2, #0
 321 0066 C3F8BC22 		str	r2, [r3, #700]
 322              	.L9:
 576:Middlewares/ST/STM32_USB_Device_Library/Class/CDC/Src/usbd_cdc.c ****   }
 577:Middlewares/ST/STM32_USB_Device_Library/Class/CDC/Src/usbd_cdc.c **** 
 578:Middlewares/ST/STM32_USB_Device_Library/Class/CDC/Src/usbd_cdc.c ****   return (uint8_t)USBD_OK;
 323              		.loc 1 578 10
 324 006a 0023     		movs	r3, #0
 579:Middlewares/ST/STM32_USB_Device_Library/Class/CDC/Src/usbd_cdc.c **** }
 325              		.loc 1 579 1
 326 006c 1846     		mov	r0, r3
 327 006e 0837     		adds	r7, r7, #8
 328              	.LCFI8:
 329              		.cfi_def_cfa_offset 8
 330 0070 BD46     		mov	sp, r7
 331              	.LCFI9:
 332              		.cfi_def_cfa_register 13
 333              		@ sp needed
 334 0072 80BD     		pop	{r7, pc}
 335              		.cfi_endproc
 336              	.LFE135:
 338              		.section	.text.USBD_CDC_Setup,"ax",%progbits
 339              		.align	1
 340              		.syntax unified
 341              		.thumb
 342              		.thumb_func
 343              		.fpu fpv4-sp-d16
 345              	USBD_CDC_Setup:
 346              	.LFB136:
 580:Middlewares/ST/STM32_USB_Device_Library/Class/CDC/Src/usbd_cdc.c **** 
 581:Middlewares/ST/STM32_USB_Device_Library/Class/CDC/Src/usbd_cdc.c **** /**
 582:Middlewares/ST/STM32_USB_Device_Library/Class/CDC/Src/usbd_cdc.c ****   * @brief  USBD_CDC_Setup
 583:Middlewares/ST/STM32_USB_Device_Library/Class/CDC/Src/usbd_cdc.c ****   *         Handle the CDC specific requests
 584:Middlewares/ST/STM32_USB_Device_Library/Class/CDC/Src/usbd_cdc.c ****   * @param  pdev: instance
 585:Middlewares/ST/STM32_USB_Device_Library/Class/CDC/Src/usbd_cdc.c ****   * @param  req: usb requests
 586:Middlewares/ST/STM32_USB_Device_Library/Class/CDC/Src/usbd_cdc.c ****   * @retval status
 587:Middlewares/ST/STM32_USB_Device_Library/Class/CDC/Src/usbd_cdc.c ****   */
 588:Middlewares/ST/STM32_USB_Device_Library/Class/CDC/Src/usbd_cdc.c **** static uint8_t USBD_CDC_Setup(USBD_HandleTypeDef *pdev,
 589:Middlewares/ST/STM32_USB_Device_Library/Class/CDC/Src/usbd_cdc.c ****                               USBD_SetupReqTypedef *req)
 590:Middlewares/ST/STM32_USB_Device_Library/Class/CDC/Src/usbd_cdc.c **** {
 347              		.loc 1 590 1
 348              		.cfi_startproc
 349              		@ args = 0, pretend = 0, frame = 24
 350              		@ frame_needed = 1, uses_anonymous_args = 0
ARM GAS  /var/folders/vq/qt4vp3kd5rxf7v2b6_fdtdt80000gn/T//cccgRN2W.s 			page 18


 351 0000 80B5     		push	{r7, lr}
 352              	.LCFI10:
 353              		.cfi_def_cfa_offset 8
 354              		.cfi_offset 7, -8
 355              		.cfi_offset 14, -4
 356 0002 86B0     		sub	sp, sp, #24
 357              	.LCFI11:
 358              		.cfi_def_cfa_offset 32
 359 0004 00AF     		add	r7, sp, #0
 360              	.LCFI12:
 361              		.cfi_def_cfa_register 7
 362 0006 7860     		str	r0, [r7, #4]
 363 0008 3960     		str	r1, [r7]
 591:Middlewares/ST/STM32_USB_Device_Library/Class/CDC/Src/usbd_cdc.c **** 
 592:Middlewares/ST/STM32_USB_Device_Library/Class/CDC/Src/usbd_cdc.c ****   GPIOD->ODR ^= (1U << 12);  // Toggle LED
 364              		.loc 1 592 14
 365 000a 5F4B     		ldr	r3, .L33
 366 000c 5B69     		ldr	r3, [r3, #20]
 367 000e 5E4A     		ldr	r2, .L33
 368 0010 83F48053 		eor	r3, r3, #4096
 369 0014 5361     		str	r3, [r2, #20]
 593:Middlewares/ST/STM32_USB_Device_Library/Class/CDC/Src/usbd_cdc.c ****   //GPIOD->ODR |= 0x1000;
 594:Middlewares/ST/STM32_USB_Device_Library/Class/CDC/Src/usbd_cdc.c **** 
 595:Middlewares/ST/STM32_USB_Device_Library/Class/CDC/Src/usbd_cdc.c ****   USBD_CDC_HandleTypeDef *hcdc = (USBD_CDC_HandleTypeDef *)pdev->pClassData;
 370              		.loc 1 595 27
 371 0016 7B68     		ldr	r3, [r7, #4]
 372 0018 D3F8BC32 		ldr	r3, [r3, #700]
 373 001c 3B61     		str	r3, [r7, #16]
 596:Middlewares/ST/STM32_USB_Device_Library/Class/CDC/Src/usbd_cdc.c ****   uint8_t ifalt = 0U;
 374              		.loc 1 596 11
 375 001e 0023     		movs	r3, #0
 376 0020 FB73     		strb	r3, [r7, #15]
 597:Middlewares/ST/STM32_USB_Device_Library/Class/CDC/Src/usbd_cdc.c ****   uint16_t status_info = 0U;
 377              		.loc 1 597 12
 378 0022 0023     		movs	r3, #0
 379 0024 BB81     		strh	r3, [r7, #12]	@ movhi
 598:Middlewares/ST/STM32_USB_Device_Library/Class/CDC/Src/usbd_cdc.c ****   USBD_StatusTypeDef ret = USBD_OK;
 380              		.loc 1 598 22
 381 0026 0023     		movs	r3, #0
 382 0028 FB75     		strb	r3, [r7, #23]
 599:Middlewares/ST/STM32_USB_Device_Library/Class/CDC/Src/usbd_cdc.c **** 
 600:Middlewares/ST/STM32_USB_Device_Library/Class/CDC/Src/usbd_cdc.c ****   switch (req->bmRequest & USB_REQ_TYPE_MASK)
 383              		.loc 1 600 14
 384 002a 3B68     		ldr	r3, [r7]
 385 002c 1B78     		ldrb	r3, [r3]	@ zero_extendqisi2
 386              		.loc 1 600 26
 387 002e 03F06003 		and	r3, r3, #96
 388              		.loc 1 600 3
 389 0032 002B     		cmp	r3, #0
 390 0034 3AD0     		beq	.L12
 391 0036 202B     		cmp	r3, #32
 392 0038 40F09A80 		bne	.L13
 601:Middlewares/ST/STM32_USB_Device_Library/Class/CDC/Src/usbd_cdc.c ****   {
 602:Middlewares/ST/STM32_USB_Device_Library/Class/CDC/Src/usbd_cdc.c ****   case USB_REQ_TYPE_CLASS:
 603:Middlewares/ST/STM32_USB_Device_Library/Class/CDC/Src/usbd_cdc.c ****     if (req->wLength != 0U)
 393              		.loc 1 603 12
 394 003c 3B68     		ldr	r3, [r7]
ARM GAS  /var/folders/vq/qt4vp3kd5rxf7v2b6_fdtdt80000gn/T//cccgRN2W.s 			page 19


 395 003e DB88     		ldrh	r3, [r3, #6]
 396              		.loc 1 603 8
 397 0040 002B     		cmp	r3, #0
 398 0042 29D0     		beq	.L14
 604:Middlewares/ST/STM32_USB_Device_Library/Class/CDC/Src/usbd_cdc.c ****     {
 605:Middlewares/ST/STM32_USB_Device_Library/Class/CDC/Src/usbd_cdc.c ****       if ((req->bmRequest & 0x80U) != 0U)
 399              		.loc 1 605 15
 400 0044 3B68     		ldr	r3, [r7]
 401 0046 1B78     		ldrb	r3, [r3]	@ zero_extendqisi2
 402              		.loc 1 605 36
 403 0048 5BB2     		sxtb	r3, r3
 404              		.loc 1 605 10
 405 004a 002B     		cmp	r3, #0
 406 004c 11DA     		bge	.L15
 606:Middlewares/ST/STM32_USB_Device_Library/Class/CDC/Src/usbd_cdc.c ****       {
 607:Middlewares/ST/STM32_USB_Device_Library/Class/CDC/Src/usbd_cdc.c ****         ((USBD_CDC_ItfTypeDef *)pdev->pUserData)->Control(req->bRequest,
 407              		.loc 1 607 37
 408 004e 7B68     		ldr	r3, [r7, #4]
 409 0050 D3F8C032 		ldr	r3, [r3, #704]
 410              		.loc 1 607 49
 411 0054 9B68     		ldr	r3, [r3, #8]
 412              		.loc 1 607 10
 413 0056 3A68     		ldr	r2, [r7]
 414 0058 5078     		ldrb	r0, [r2, #1]	@ zero_extendqisi2
 608:Middlewares/ST/STM32_USB_Device_Library/Class/CDC/Src/usbd_cdc.c ****                                                           (uint8_t *)hcdc->data,
 415              		.loc 1 608 70
 416 005a 3969     		ldr	r1, [r7, #16]
 607:Middlewares/ST/STM32_USB_Device_Library/Class/CDC/Src/usbd_cdc.c ****                                                           (uint8_t *)hcdc->data,
 417              		.loc 1 607 10
 418 005c 3A68     		ldr	r2, [r7]
 419 005e D288     		ldrh	r2, [r2, #6]
 420 0060 9847     		blx	r3
 421              	.LVL2:
 609:Middlewares/ST/STM32_USB_Device_Library/Class/CDC/Src/usbd_cdc.c ****                                                           req->wLength);
 610:Middlewares/ST/STM32_USB_Device_Library/Class/CDC/Src/usbd_cdc.c **** 
 611:Middlewares/ST/STM32_USB_Device_Library/Class/CDC/Src/usbd_cdc.c ****           (void)USBD_CtlSendData(pdev, (uint8_t *)hcdc->data, req->wLength);
 422              		.loc 1 611 51
 423 0062 3969     		ldr	r1, [r7, #16]
 424              		.loc 1 611 66
 425 0064 3B68     		ldr	r3, [r7]
 426 0066 DB88     		ldrh	r3, [r3, #6]
 427              		.loc 1 611 17
 428 0068 1A46     		mov	r2, r3
 429 006a 7868     		ldr	r0, [r7, #4]
 430 006c FFF7FEFF 		bl	USBD_CtlSendData
 612:Middlewares/ST/STM32_USB_Device_Library/Class/CDC/Src/usbd_cdc.c ****       }
 613:Middlewares/ST/STM32_USB_Device_Library/Class/CDC/Src/usbd_cdc.c ****       else
 614:Middlewares/ST/STM32_USB_Device_Library/Class/CDC/Src/usbd_cdc.c ****       {
 615:Middlewares/ST/STM32_USB_Device_Library/Class/CDC/Src/usbd_cdc.c ****         hcdc->CmdOpCode = req->bRequest;
 616:Middlewares/ST/STM32_USB_Device_Library/Class/CDC/Src/usbd_cdc.c ****         hcdc->CmdLength = (uint8_t)req->wLength;
 617:Middlewares/ST/STM32_USB_Device_Library/Class/CDC/Src/usbd_cdc.c **** 
 618:Middlewares/ST/STM32_USB_Device_Library/Class/CDC/Src/usbd_cdc.c ****         (void)USBD_CtlPrepareRx(pdev, (uint8_t *)hcdc->data, req->wLength);
 619:Middlewares/ST/STM32_USB_Device_Library/Class/CDC/Src/usbd_cdc.c ****       }
 620:Middlewares/ST/STM32_USB_Device_Library/Class/CDC/Src/usbd_cdc.c ****     }
 621:Middlewares/ST/STM32_USB_Device_Library/Class/CDC/Src/usbd_cdc.c ****     else
 622:Middlewares/ST/STM32_USB_Device_Library/Class/CDC/Src/usbd_cdc.c ****     {
 623:Middlewares/ST/STM32_USB_Device_Library/Class/CDC/Src/usbd_cdc.c ****       ((USBD_CDC_ItfTypeDef *)pdev->pUserData)->Control(req->bRequest,
ARM GAS  /var/folders/vq/qt4vp3kd5rxf7v2b6_fdtdt80000gn/T//cccgRN2W.s 			page 20


 624:Middlewares/ST/STM32_USB_Device_Library/Class/CDC/Src/usbd_cdc.c ****                                                         (uint8_t *)req, 0U);
 625:Middlewares/ST/STM32_USB_Device_Library/Class/CDC/Src/usbd_cdc.c ****     }
 626:Middlewares/ST/STM32_USB_Device_Library/Class/CDC/Src/usbd_cdc.c ****     break;
 431              		.loc 1 626 5
 432 0070 85E0     		b	.L17
 433              	.L15:
 615:Middlewares/ST/STM32_USB_Device_Library/Class/CDC/Src/usbd_cdc.c ****         hcdc->CmdLength = (uint8_t)req->wLength;
 434              		.loc 1 615 30
 435 0072 3B68     		ldr	r3, [r7]
 436 0074 5A78     		ldrb	r2, [r3, #1]	@ zero_extendqisi2
 615:Middlewares/ST/STM32_USB_Device_Library/Class/CDC/Src/usbd_cdc.c ****         hcdc->CmdLength = (uint8_t)req->wLength;
 437              		.loc 1 615 25
 438 0076 3B69     		ldr	r3, [r7, #16]
 439 0078 83F80022 		strb	r2, [r3, #512]
 616:Middlewares/ST/STM32_USB_Device_Library/Class/CDC/Src/usbd_cdc.c **** 
 440              		.loc 1 616 39
 441 007c 3B68     		ldr	r3, [r7]
 442 007e DB88     		ldrh	r3, [r3, #6]
 616:Middlewares/ST/STM32_USB_Device_Library/Class/CDC/Src/usbd_cdc.c **** 
 443              		.loc 1 616 27
 444 0080 DAB2     		uxtb	r2, r3
 616:Middlewares/ST/STM32_USB_Device_Library/Class/CDC/Src/usbd_cdc.c **** 
 445              		.loc 1 616 25
 446 0082 3B69     		ldr	r3, [r7, #16]
 447 0084 83F80122 		strb	r2, [r3, #513]
 618:Middlewares/ST/STM32_USB_Device_Library/Class/CDC/Src/usbd_cdc.c ****       }
 448              		.loc 1 618 50
 449 0088 3969     		ldr	r1, [r7, #16]
 618:Middlewares/ST/STM32_USB_Device_Library/Class/CDC/Src/usbd_cdc.c ****       }
 450              		.loc 1 618 65
 451 008a 3B68     		ldr	r3, [r7]
 452 008c DB88     		ldrh	r3, [r3, #6]
 618:Middlewares/ST/STM32_USB_Device_Library/Class/CDC/Src/usbd_cdc.c ****       }
 453              		.loc 1 618 15
 454 008e 1A46     		mov	r2, r3
 455 0090 7868     		ldr	r0, [r7, #4]
 456 0092 FFF7FEFF 		bl	USBD_CtlPrepareRx
 457              		.loc 1 626 5
 458 0096 72E0     		b	.L17
 459              	.L14:
 623:Middlewares/ST/STM32_USB_Device_Library/Class/CDC/Src/usbd_cdc.c ****                                                         (uint8_t *)req, 0U);
 460              		.loc 1 623 35
 461 0098 7B68     		ldr	r3, [r7, #4]
 462 009a D3F8C032 		ldr	r3, [r3, #704]
 623:Middlewares/ST/STM32_USB_Device_Library/Class/CDC/Src/usbd_cdc.c ****                                                         (uint8_t *)req, 0U);
 463              		.loc 1 623 47
 464 009e 9B68     		ldr	r3, [r3, #8]
 623:Middlewares/ST/STM32_USB_Device_Library/Class/CDC/Src/usbd_cdc.c ****                                                         (uint8_t *)req, 0U);
 465              		.loc 1 623 8
 466 00a0 3A68     		ldr	r2, [r7]
 467 00a2 5078     		ldrb	r0, [r2, #1]	@ zero_extendqisi2
 468 00a4 0022     		movs	r2, #0
 469 00a6 3968     		ldr	r1, [r7]
 470 00a8 9847     		blx	r3
 471              	.LVL3:
 472              		.loc 1 626 5
 473 00aa 68E0     		b	.L17
ARM GAS  /var/folders/vq/qt4vp3kd5rxf7v2b6_fdtdt80000gn/T//cccgRN2W.s 			page 21


 474              	.L12:
 627:Middlewares/ST/STM32_USB_Device_Library/Class/CDC/Src/usbd_cdc.c **** 
 628:Middlewares/ST/STM32_USB_Device_Library/Class/CDC/Src/usbd_cdc.c ****   case USB_REQ_TYPE_STANDARD:
 629:Middlewares/ST/STM32_USB_Device_Library/Class/CDC/Src/usbd_cdc.c ****     switch (req->bRequest)
 475              		.loc 1 629 16
 476 00ac 3B68     		ldr	r3, [r7]
 477 00ae 5B78     		ldrb	r3, [r3, #1]	@ zero_extendqisi2
 478 00b0 0B2B     		cmp	r3, #11
 479 00b2 52D8     		bhi	.L18
 480 00b4 01A2     		adr	r2, .L20
 481 00b6 52F823F0 		ldr	pc, [r2, r3, lsl #2]
 482 00ba 00BF     		.p2align 2
 483              	.L20:
 484 00bc ED000000 		.word	.L23+1
 485 00c0 69010000 		.word	.L31+1
 486 00c4 5B010000 		.word	.L18+1
 487 00c8 5B010000 		.word	.L18+1
 488 00cc 5B010000 		.word	.L18+1
 489 00d0 5B010000 		.word	.L18+1
 490 00d4 5B010000 		.word	.L18+1
 491 00d8 5B010000 		.word	.L18+1
 492 00dc 5B010000 		.word	.L18+1
 493 00e0 5B010000 		.word	.L18+1
 494 00e4 17010000 		.word	.L21+1
 495 00e8 41010000 		.word	.L19+1
 496              		.p2align 1
 497              	.L23:
 630:Middlewares/ST/STM32_USB_Device_Library/Class/CDC/Src/usbd_cdc.c ****     {
 631:Middlewares/ST/STM32_USB_Device_Library/Class/CDC/Src/usbd_cdc.c ****     case USB_REQ_GET_STATUS:
 632:Middlewares/ST/STM32_USB_Device_Library/Class/CDC/Src/usbd_cdc.c ****       if (pdev->dev_state == USBD_STATE_CONFIGURED)
 498              		.loc 1 632 15
 499 00ec 7B68     		ldr	r3, [r7, #4]
 500 00ee 93F89C32 		ldrb	r3, [r3, #668]
 501 00f2 DBB2     		uxtb	r3, r3
 502              		.loc 1 632 10
 503 00f4 032B     		cmp	r3, #3
 504 00f6 07D1     		bne	.L24
 633:Middlewares/ST/STM32_USB_Device_Library/Class/CDC/Src/usbd_cdc.c ****       {
 634:Middlewares/ST/STM32_USB_Device_Library/Class/CDC/Src/usbd_cdc.c ****         (void)USBD_CtlSendData(pdev, (uint8_t *)&status_info, 2U);
 505              		.loc 1 634 15
 506 00f8 07F10C03 		add	r3, r7, #12
 507 00fc 0222     		movs	r2, #2
 508 00fe 1946     		mov	r1, r3
 509 0100 7868     		ldr	r0, [r7, #4]
 510 0102 FFF7FEFF 		bl	USBD_CtlSendData
 635:Middlewares/ST/STM32_USB_Device_Library/Class/CDC/Src/usbd_cdc.c ****       }
 636:Middlewares/ST/STM32_USB_Device_Library/Class/CDC/Src/usbd_cdc.c ****       else
 637:Middlewares/ST/STM32_USB_Device_Library/Class/CDC/Src/usbd_cdc.c ****       {
 638:Middlewares/ST/STM32_USB_Device_Library/Class/CDC/Src/usbd_cdc.c ****         USBD_CtlError(pdev, req);
 639:Middlewares/ST/STM32_USB_Device_Library/Class/CDC/Src/usbd_cdc.c ****         ret = USBD_FAIL;
 640:Middlewares/ST/STM32_USB_Device_Library/Class/CDC/Src/usbd_cdc.c ****       }
 641:Middlewares/ST/STM32_USB_Device_Library/Class/CDC/Src/usbd_cdc.c ****       break;
 511              		.loc 1 641 7
 512 0106 32E0     		b	.L26
 513              	.L24:
 638:Middlewares/ST/STM32_USB_Device_Library/Class/CDC/Src/usbd_cdc.c ****         ret = USBD_FAIL;
 514              		.loc 1 638 9
ARM GAS  /var/folders/vq/qt4vp3kd5rxf7v2b6_fdtdt80000gn/T//cccgRN2W.s 			page 22


 515 0108 3968     		ldr	r1, [r7]
 516 010a 7868     		ldr	r0, [r7, #4]
 517 010c FFF7FEFF 		bl	USBD_CtlError
 639:Middlewares/ST/STM32_USB_Device_Library/Class/CDC/Src/usbd_cdc.c ****       }
 518              		.loc 1 639 13
 519 0110 0323     		movs	r3, #3
 520 0112 FB75     		strb	r3, [r7, #23]
 521              		.loc 1 641 7
 522 0114 2BE0     		b	.L26
 523              	.L21:
 642:Middlewares/ST/STM32_USB_Device_Library/Class/CDC/Src/usbd_cdc.c **** 
 643:Middlewares/ST/STM32_USB_Device_Library/Class/CDC/Src/usbd_cdc.c ****     case USB_REQ_GET_INTERFACE:
 644:Middlewares/ST/STM32_USB_Device_Library/Class/CDC/Src/usbd_cdc.c ****       if (pdev->dev_state == USBD_STATE_CONFIGURED)
 524              		.loc 1 644 15
 525 0116 7B68     		ldr	r3, [r7, #4]
 526 0118 93F89C32 		ldrb	r3, [r3, #668]
 527 011c DBB2     		uxtb	r3, r3
 528              		.loc 1 644 10
 529 011e 032B     		cmp	r3, #3
 530 0120 07D1     		bne	.L27
 645:Middlewares/ST/STM32_USB_Device_Library/Class/CDC/Src/usbd_cdc.c ****       {
 646:Middlewares/ST/STM32_USB_Device_Library/Class/CDC/Src/usbd_cdc.c ****         (void)USBD_CtlSendData(pdev, &ifalt, 1U);
 531              		.loc 1 646 15
 532 0122 07F10F03 		add	r3, r7, #15
 533 0126 0122     		movs	r2, #1
 534 0128 1946     		mov	r1, r3
 535 012a 7868     		ldr	r0, [r7, #4]
 536 012c FFF7FEFF 		bl	USBD_CtlSendData
 647:Middlewares/ST/STM32_USB_Device_Library/Class/CDC/Src/usbd_cdc.c ****       }
 648:Middlewares/ST/STM32_USB_Device_Library/Class/CDC/Src/usbd_cdc.c ****       else
 649:Middlewares/ST/STM32_USB_Device_Library/Class/CDC/Src/usbd_cdc.c ****       {
 650:Middlewares/ST/STM32_USB_Device_Library/Class/CDC/Src/usbd_cdc.c ****         USBD_CtlError(pdev, req);
 651:Middlewares/ST/STM32_USB_Device_Library/Class/CDC/Src/usbd_cdc.c ****         ret = USBD_FAIL;
 652:Middlewares/ST/STM32_USB_Device_Library/Class/CDC/Src/usbd_cdc.c ****       }
 653:Middlewares/ST/STM32_USB_Device_Library/Class/CDC/Src/usbd_cdc.c ****       break;
 537              		.loc 1 653 7
 538 0130 1DE0     		b	.L26
 539              	.L27:
 650:Middlewares/ST/STM32_USB_Device_Library/Class/CDC/Src/usbd_cdc.c ****         ret = USBD_FAIL;
 540              		.loc 1 650 9
 541 0132 3968     		ldr	r1, [r7]
 542 0134 7868     		ldr	r0, [r7, #4]
 543 0136 FFF7FEFF 		bl	USBD_CtlError
 651:Middlewares/ST/STM32_USB_Device_Library/Class/CDC/Src/usbd_cdc.c ****       }
 544              		.loc 1 651 13
 545 013a 0323     		movs	r3, #3
 546 013c FB75     		strb	r3, [r7, #23]
 547              		.loc 1 653 7
 548 013e 16E0     		b	.L26
 549              	.L19:
 654:Middlewares/ST/STM32_USB_Device_Library/Class/CDC/Src/usbd_cdc.c **** 
 655:Middlewares/ST/STM32_USB_Device_Library/Class/CDC/Src/usbd_cdc.c ****     case USB_REQ_SET_INTERFACE:
 656:Middlewares/ST/STM32_USB_Device_Library/Class/CDC/Src/usbd_cdc.c ****       if (pdev->dev_state != USBD_STATE_CONFIGURED)
 550              		.loc 1 656 15
 551 0140 7B68     		ldr	r3, [r7, #4]
 552 0142 93F89C32 		ldrb	r3, [r3, #668]
 553 0146 DBB2     		uxtb	r3, r3
ARM GAS  /var/folders/vq/qt4vp3kd5rxf7v2b6_fdtdt80000gn/T//cccgRN2W.s 			page 23


 554              		.loc 1 656 10
 555 0148 032B     		cmp	r3, #3
 556 014a 0FD0     		beq	.L32
 657:Middlewares/ST/STM32_USB_Device_Library/Class/CDC/Src/usbd_cdc.c ****       {
 658:Middlewares/ST/STM32_USB_Device_Library/Class/CDC/Src/usbd_cdc.c ****         USBD_CtlError(pdev, req);
 557              		.loc 1 658 9
 558 014c 3968     		ldr	r1, [r7]
 559 014e 7868     		ldr	r0, [r7, #4]
 560 0150 FFF7FEFF 		bl	USBD_CtlError
 659:Middlewares/ST/STM32_USB_Device_Library/Class/CDC/Src/usbd_cdc.c ****         ret = USBD_FAIL;
 561              		.loc 1 659 13
 562 0154 0323     		movs	r3, #3
 563 0156 FB75     		strb	r3, [r7, #23]
 660:Middlewares/ST/STM32_USB_Device_Library/Class/CDC/Src/usbd_cdc.c ****       }
 661:Middlewares/ST/STM32_USB_Device_Library/Class/CDC/Src/usbd_cdc.c ****       break;
 564              		.loc 1 661 7
 565 0158 08E0     		b	.L32
 566              	.L18:
 662:Middlewares/ST/STM32_USB_Device_Library/Class/CDC/Src/usbd_cdc.c **** 
 663:Middlewares/ST/STM32_USB_Device_Library/Class/CDC/Src/usbd_cdc.c ****     case USB_REQ_CLEAR_FEATURE:
 664:Middlewares/ST/STM32_USB_Device_Library/Class/CDC/Src/usbd_cdc.c ****       break;
 665:Middlewares/ST/STM32_USB_Device_Library/Class/CDC/Src/usbd_cdc.c **** 
 666:Middlewares/ST/STM32_USB_Device_Library/Class/CDC/Src/usbd_cdc.c ****     default:
 667:Middlewares/ST/STM32_USB_Device_Library/Class/CDC/Src/usbd_cdc.c ****       USBD_CtlError(pdev, req);
 567              		.loc 1 667 7
 568 015a 3968     		ldr	r1, [r7]
 569 015c 7868     		ldr	r0, [r7, #4]
 570 015e FFF7FEFF 		bl	USBD_CtlError
 668:Middlewares/ST/STM32_USB_Device_Library/Class/CDC/Src/usbd_cdc.c ****       ret = USBD_FAIL;
 571              		.loc 1 668 11
 572 0162 0323     		movs	r3, #3
 573 0164 FB75     		strb	r3, [r7, #23]
 669:Middlewares/ST/STM32_USB_Device_Library/Class/CDC/Src/usbd_cdc.c ****       break;
 574              		.loc 1 669 7
 575 0166 02E0     		b	.L26
 576              	.L31:
 664:Middlewares/ST/STM32_USB_Device_Library/Class/CDC/Src/usbd_cdc.c **** 
 577              		.loc 1 664 7
 578 0168 00BF     		nop
 579 016a 08E0     		b	.L17
 580              	.L32:
 661:Middlewares/ST/STM32_USB_Device_Library/Class/CDC/Src/usbd_cdc.c **** 
 581              		.loc 1 661 7
 582 016c 00BF     		nop
 583              	.L26:
 670:Middlewares/ST/STM32_USB_Device_Library/Class/CDC/Src/usbd_cdc.c ****     }
 671:Middlewares/ST/STM32_USB_Device_Library/Class/CDC/Src/usbd_cdc.c ****     break;
 584              		.loc 1 671 5
 585 016e 06E0     		b	.L17
 586              	.L13:
 672:Middlewares/ST/STM32_USB_Device_Library/Class/CDC/Src/usbd_cdc.c **** 
 673:Middlewares/ST/STM32_USB_Device_Library/Class/CDC/Src/usbd_cdc.c ****   default:
 674:Middlewares/ST/STM32_USB_Device_Library/Class/CDC/Src/usbd_cdc.c ****     USBD_CtlError(pdev, req);
 587              		.loc 1 674 5
 588 0170 3968     		ldr	r1, [r7]
 589 0172 7868     		ldr	r0, [r7, #4]
 590 0174 FFF7FEFF 		bl	USBD_CtlError
ARM GAS  /var/folders/vq/qt4vp3kd5rxf7v2b6_fdtdt80000gn/T//cccgRN2W.s 			page 24


 675:Middlewares/ST/STM32_USB_Device_Library/Class/CDC/Src/usbd_cdc.c ****     ret = USBD_FAIL;
 591              		.loc 1 675 9
 592 0178 0323     		movs	r3, #3
 593 017a FB75     		strb	r3, [r7, #23]
 676:Middlewares/ST/STM32_USB_Device_Library/Class/CDC/Src/usbd_cdc.c ****     break;
 594              		.loc 1 676 5
 595 017c 00BF     		nop
 596              	.L17:
 677:Middlewares/ST/STM32_USB_Device_Library/Class/CDC/Src/usbd_cdc.c ****   }
 678:Middlewares/ST/STM32_USB_Device_Library/Class/CDC/Src/usbd_cdc.c **** 
 679:Middlewares/ST/STM32_USB_Device_Library/Class/CDC/Src/usbd_cdc.c ****   return (uint8_t)ret;
 597              		.loc 1 679 10
 598 017e FB7D     		ldrb	r3, [r7, #23]	@ zero_extendqisi2
 680:Middlewares/ST/STM32_USB_Device_Library/Class/CDC/Src/usbd_cdc.c **** }
 599              		.loc 1 680 1
 600 0180 1846     		mov	r0, r3
 601 0182 1837     		adds	r7, r7, #24
 602              	.LCFI13:
 603              		.cfi_def_cfa_offset 8
 604 0184 BD46     		mov	sp, r7
 605              	.LCFI14:
 606              		.cfi_def_cfa_register 13
 607              		@ sp needed
 608 0186 80BD     		pop	{r7, pc}
 609              	.L34:
 610              		.align	2
 611              	.L33:
 612 0188 000C0240 		.word	1073875968
 613              		.cfi_endproc
 614              	.LFE136:
 616              		.section	.text.USBD_CDC_DataIn,"ax",%progbits
 617              		.align	1
 618              		.syntax unified
 619              		.thumb
 620              		.thumb_func
 621              		.fpu fpv4-sp-d16
 623              	USBD_CDC_DataIn:
 624              	.LFB137:
 681:Middlewares/ST/STM32_USB_Device_Library/Class/CDC/Src/usbd_cdc.c **** 
 682:Middlewares/ST/STM32_USB_Device_Library/Class/CDC/Src/usbd_cdc.c **** /**
 683:Middlewares/ST/STM32_USB_Device_Library/Class/CDC/Src/usbd_cdc.c ****   * @brief  USBD_CDC_DataIn
 684:Middlewares/ST/STM32_USB_Device_Library/Class/CDC/Src/usbd_cdc.c ****   *         Data sent on non-control IN endpoint
 685:Middlewares/ST/STM32_USB_Device_Library/Class/CDC/Src/usbd_cdc.c ****   * @param  pdev: device instance
 686:Middlewares/ST/STM32_USB_Device_Library/Class/CDC/Src/usbd_cdc.c ****   * @param  epnum: endpoint number
 687:Middlewares/ST/STM32_USB_Device_Library/Class/CDC/Src/usbd_cdc.c ****   * @retval status
 688:Middlewares/ST/STM32_USB_Device_Library/Class/CDC/Src/usbd_cdc.c ****   */
 689:Middlewares/ST/STM32_USB_Device_Library/Class/CDC/Src/usbd_cdc.c **** static uint8_t USBD_CDC_DataIn(USBD_HandleTypeDef *pdev, uint8_t epnum)
 690:Middlewares/ST/STM32_USB_Device_Library/Class/CDC/Src/usbd_cdc.c **** {
 625              		.loc 1 690 1
 626              		.cfi_startproc
 627              		@ args = 0, pretend = 0, frame = 16
 628              		@ frame_needed = 1, uses_anonymous_args = 0
 629 0000 80B5     		push	{r7, lr}
 630              	.LCFI15:
 631              		.cfi_def_cfa_offset 8
 632              		.cfi_offset 7, -8
 633              		.cfi_offset 14, -4
ARM GAS  /var/folders/vq/qt4vp3kd5rxf7v2b6_fdtdt80000gn/T//cccgRN2W.s 			page 25


 634 0002 84B0     		sub	sp, sp, #16
 635              	.LCFI16:
 636              		.cfi_def_cfa_offset 24
 637 0004 00AF     		add	r7, sp, #0
 638              	.LCFI17:
 639              		.cfi_def_cfa_register 7
 640 0006 7860     		str	r0, [r7, #4]
 641 0008 0B46     		mov	r3, r1
 642 000a FB70     		strb	r3, [r7, #3]
 691:Middlewares/ST/STM32_USB_Device_Library/Class/CDC/Src/usbd_cdc.c ****   USBD_CDC_HandleTypeDef *hcdc;
 692:Middlewares/ST/STM32_USB_Device_Library/Class/CDC/Src/usbd_cdc.c ****   PCD_HandleTypeDef *hpcd = pdev->pData;
 643              		.loc 1 692 22
 644 000c 7B68     		ldr	r3, [r7, #4]
 645 000e D3F8C432 		ldr	r3, [r3, #708]
 646 0012 FB60     		str	r3, [r7, #12]
 693:Middlewares/ST/STM32_USB_Device_Library/Class/CDC/Src/usbd_cdc.c **** 
 694:Middlewares/ST/STM32_USB_Device_Library/Class/CDC/Src/usbd_cdc.c ****   if (pdev->pClassData == NULL)
 647              		.loc 1 694 11
 648 0014 7B68     		ldr	r3, [r7, #4]
 649 0016 D3F8BC32 		ldr	r3, [r3, #700]
 650              		.loc 1 694 6
 651 001a 002B     		cmp	r3, #0
 652 001c 01D1     		bne	.L36
 695:Middlewares/ST/STM32_USB_Device_Library/Class/CDC/Src/usbd_cdc.c ****   {
 696:Middlewares/ST/STM32_USB_Device_Library/Class/CDC/Src/usbd_cdc.c ****     return (uint8_t)USBD_FAIL;
 653              		.loc 1 696 12
 654 001e 0323     		movs	r3, #3
 655 0020 4FE0     		b	.L37
 656              	.L36:
 697:Middlewares/ST/STM32_USB_Device_Library/Class/CDC/Src/usbd_cdc.c ****   }
 698:Middlewares/ST/STM32_USB_Device_Library/Class/CDC/Src/usbd_cdc.c **** 
 699:Middlewares/ST/STM32_USB_Device_Library/Class/CDC/Src/usbd_cdc.c ****   hcdc = (USBD_CDC_HandleTypeDef *)pdev->pClassData;
 657              		.loc 1 699 8
 658 0022 7B68     		ldr	r3, [r7, #4]
 659 0024 D3F8BC32 		ldr	r3, [r3, #700]
 660 0028 BB60     		str	r3, [r7, #8]
 700:Middlewares/ST/STM32_USB_Device_Library/Class/CDC/Src/usbd_cdc.c **** 
 701:Middlewares/ST/STM32_USB_Device_Library/Class/CDC/Src/usbd_cdc.c ****   if ((pdev->ep_in[epnum].total_length > 0U) &&
 661              		.loc 1 701 26
 662 002a FA78     		ldrb	r2, [r7, #3]	@ zero_extendqisi2
 663 002c 7968     		ldr	r1, [r7, #4]
 664 002e 1346     		mov	r3, r2
 665 0030 9B00     		lsls	r3, r3, #2
 666 0032 1344     		add	r3, r3, r2
 667 0034 9B00     		lsls	r3, r3, #2
 668 0036 0B44     		add	r3, r3, r1
 669 0038 1833     		adds	r3, r3, #24
 670 003a 1B68     		ldr	r3, [r3]
 671              		.loc 1 701 6
 672 003c 002B     		cmp	r3, #0
 673 003e 29D0     		beq	.L38
 702:Middlewares/ST/STM32_USB_Device_Library/Class/CDC/Src/usbd_cdc.c ****       ((pdev->ep_in[epnum].total_length % hpcd->IN_ep[epnum].maxpacket) == 0U))
 674              		.loc 1 702 27 discriminator 1
 675 0040 FA78     		ldrb	r2, [r7, #3]	@ zero_extendqisi2
 676 0042 7968     		ldr	r1, [r7, #4]
 677 0044 1346     		mov	r3, r2
 678 0046 9B00     		lsls	r3, r3, #2
ARM GAS  /var/folders/vq/qt4vp3kd5rxf7v2b6_fdtdt80000gn/T//cccgRN2W.s 			page 26


 679 0048 1344     		add	r3, r3, r2
 680 004a 9B00     		lsls	r3, r3, #2
 681 004c 0B44     		add	r3, r3, r1
 682 004e 1833     		adds	r3, r3, #24
 683 0050 1A68     		ldr	r2, [r3]
 684              		.loc 1 702 61 discriminator 1
 685 0052 F978     		ldrb	r1, [r7, #3]	@ zero_extendqisi2
 686 0054 F868     		ldr	r0, [r7, #12]
 687 0056 0B46     		mov	r3, r1
 688 0058 DB00     		lsls	r3, r3, #3
 689 005a 5B1A     		subs	r3, r3, r1
 690 005c 9B00     		lsls	r3, r3, #2
 691 005e 0344     		add	r3, r3, r0
 692 0060 4433     		adds	r3, r3, #68
 693 0062 1B68     		ldr	r3, [r3]
 694              		.loc 1 702 41 discriminator 1
 695 0064 B2FBF3F1 		udiv	r1, r2, r3
 696 0068 03FB01F3 		mul	r3, r3, r1
 697 006c D31A     		subs	r3, r2, r3
 701:Middlewares/ST/STM32_USB_Device_Library/Class/CDC/Src/usbd_cdc.c ****       ((pdev->ep_in[epnum].total_length % hpcd->IN_ep[epnum].maxpacket) == 0U))
 698              		.loc 1 701 46 discriminator 1
 699 006e 002B     		cmp	r3, #0
 700 0070 10D1     		bne	.L38
 703:Middlewares/ST/STM32_USB_Device_Library/Class/CDC/Src/usbd_cdc.c ****   {
 704:Middlewares/ST/STM32_USB_Device_Library/Class/CDC/Src/usbd_cdc.c ****     /* Update the packet total length */
 705:Middlewares/ST/STM32_USB_Device_Library/Class/CDC/Src/usbd_cdc.c ****     pdev->ep_in[epnum].total_length = 0U;
 701              		.loc 1 705 23
 702 0072 FA78     		ldrb	r2, [r7, #3]	@ zero_extendqisi2
 703              		.loc 1 705 37
 704 0074 7968     		ldr	r1, [r7, #4]
 705 0076 1346     		mov	r3, r2
 706 0078 9B00     		lsls	r3, r3, #2
 707 007a 1344     		add	r3, r3, r2
 708 007c 9B00     		lsls	r3, r3, #2
 709 007e 0B44     		add	r3, r3, r1
 710 0080 1833     		adds	r3, r3, #24
 711 0082 0022     		movs	r2, #0
 712 0084 1A60     		str	r2, [r3]
 706:Middlewares/ST/STM32_USB_Device_Library/Class/CDC/Src/usbd_cdc.c **** 
 707:Middlewares/ST/STM32_USB_Device_Library/Class/CDC/Src/usbd_cdc.c ****     /* Send ZLP */
 708:Middlewares/ST/STM32_USB_Device_Library/Class/CDC/Src/usbd_cdc.c ****     (void)USBD_LL_Transmit(pdev, epnum, NULL, 0U);
 713              		.loc 1 708 11
 714 0086 F978     		ldrb	r1, [r7, #3]	@ zero_extendqisi2
 715 0088 0023     		movs	r3, #0
 716 008a 0022     		movs	r2, #0
 717 008c 7868     		ldr	r0, [r7, #4]
 718 008e FFF7FEFF 		bl	USBD_LL_Transmit
 719              		.loc 1 708 5
 720 0092 15E0     		b	.L39
 721              	.L38:
 709:Middlewares/ST/STM32_USB_Device_Library/Class/CDC/Src/usbd_cdc.c ****   }
 710:Middlewares/ST/STM32_USB_Device_Library/Class/CDC/Src/usbd_cdc.c ****   else
 711:Middlewares/ST/STM32_USB_Device_Library/Class/CDC/Src/usbd_cdc.c ****   {
 712:Middlewares/ST/STM32_USB_Device_Library/Class/CDC/Src/usbd_cdc.c ****     hcdc->TxState = 0U;
 722              		.loc 1 712 19
 723 0094 BB68     		ldr	r3, [r7, #8]
 724 0096 0022     		movs	r2, #0
ARM GAS  /var/folders/vq/qt4vp3kd5rxf7v2b6_fdtdt80000gn/T//cccgRN2W.s 			page 27


 725 0098 C3F81422 		str	r2, [r3, #532]
 713:Middlewares/ST/STM32_USB_Device_Library/Class/CDC/Src/usbd_cdc.c **** 
 714:Middlewares/ST/STM32_USB_Device_Library/Class/CDC/Src/usbd_cdc.c ****     if (((USBD_CDC_ItfTypeDef *)pdev->pUserData)->TransmitCplt != NULL)
 726              		.loc 1 714 37
 727 009c 7B68     		ldr	r3, [r7, #4]
 728 009e D3F8C032 		ldr	r3, [r3, #704]
 729              		.loc 1 714 49
 730 00a2 1B69     		ldr	r3, [r3, #16]
 731              		.loc 1 714 8
 732 00a4 002B     		cmp	r3, #0
 733 00a6 0BD0     		beq	.L39
 715:Middlewares/ST/STM32_USB_Device_Library/Class/CDC/Src/usbd_cdc.c ****     {
 716:Middlewares/ST/STM32_USB_Device_Library/Class/CDC/Src/usbd_cdc.c ****       ((USBD_CDC_ItfTypeDef *)pdev->pUserData)->TransmitCplt(hcdc->TxBuffer, &hcdc->TxLength, epnum
 734              		.loc 1 716 35
 735 00a8 7B68     		ldr	r3, [r7, #4]
 736 00aa D3F8C032 		ldr	r3, [r3, #704]
 737              		.loc 1 716 47
 738 00ae 1B69     		ldr	r3, [r3, #16]
 739              		.loc 1 716 8
 740 00b0 BA68     		ldr	r2, [r7, #8]
 741 00b2 D2F80802 		ldr	r0, [r2, #520]
 742 00b6 BA68     		ldr	r2, [r7, #8]
 743 00b8 02F50471 		add	r1, r2, #528
 744 00bc FA78     		ldrb	r2, [r7, #3]	@ zero_extendqisi2
 745 00be 9847     		blx	r3
 746              	.LVL4:
 747              	.L39:
 717:Middlewares/ST/STM32_USB_Device_Library/Class/CDC/Src/usbd_cdc.c ****     }
 718:Middlewares/ST/STM32_USB_Device_Library/Class/CDC/Src/usbd_cdc.c ****   }
 719:Middlewares/ST/STM32_USB_Device_Library/Class/CDC/Src/usbd_cdc.c **** 
 720:Middlewares/ST/STM32_USB_Device_Library/Class/CDC/Src/usbd_cdc.c ****   return (uint8_t)USBD_OK;
 748              		.loc 1 720 10
 749 00c0 0023     		movs	r3, #0
 750              	.L37:
 721:Middlewares/ST/STM32_USB_Device_Library/Class/CDC/Src/usbd_cdc.c **** }
 751              		.loc 1 721 1
 752 00c2 1846     		mov	r0, r3
 753 00c4 1037     		adds	r7, r7, #16
 754              	.LCFI18:
 755              		.cfi_def_cfa_offset 8
 756 00c6 BD46     		mov	sp, r7
 757              	.LCFI19:
 758              		.cfi_def_cfa_register 13
 759              		@ sp needed
 760 00c8 80BD     		pop	{r7, pc}
 761              		.cfi_endproc
 762              	.LFE137:
 764              		.section	.text.USBD_CDC_DataOut,"ax",%progbits
 765              		.align	1
 766              		.syntax unified
 767              		.thumb
 768              		.thumb_func
 769              		.fpu fpv4-sp-d16
 771              	USBD_CDC_DataOut:
 772              	.LFB138:
 722:Middlewares/ST/STM32_USB_Device_Library/Class/CDC/Src/usbd_cdc.c **** 
 723:Middlewares/ST/STM32_USB_Device_Library/Class/CDC/Src/usbd_cdc.c **** /**
ARM GAS  /var/folders/vq/qt4vp3kd5rxf7v2b6_fdtdt80000gn/T//cccgRN2W.s 			page 28


 724:Middlewares/ST/STM32_USB_Device_Library/Class/CDC/Src/usbd_cdc.c ****   * @brief  USBD_CDC_DataOut
 725:Middlewares/ST/STM32_USB_Device_Library/Class/CDC/Src/usbd_cdc.c ****   *         Data received on non-control Out endpoint
 726:Middlewares/ST/STM32_USB_Device_Library/Class/CDC/Src/usbd_cdc.c ****   * @param  pdev: device instance
 727:Middlewares/ST/STM32_USB_Device_Library/Class/CDC/Src/usbd_cdc.c ****   * @param  epnum: endpoint number
 728:Middlewares/ST/STM32_USB_Device_Library/Class/CDC/Src/usbd_cdc.c ****   * @retval status
 729:Middlewares/ST/STM32_USB_Device_Library/Class/CDC/Src/usbd_cdc.c ****   */
 730:Middlewares/ST/STM32_USB_Device_Library/Class/CDC/Src/usbd_cdc.c **** static uint8_t USBD_CDC_DataOut(USBD_HandleTypeDef *pdev, uint8_t epnum)
 731:Middlewares/ST/STM32_USB_Device_Library/Class/CDC/Src/usbd_cdc.c **** {
 773              		.loc 1 731 1
 774              		.cfi_startproc
 775              		@ args = 0, pretend = 0, frame = 16
 776              		@ frame_needed = 1, uses_anonymous_args = 0
 777 0000 80B5     		push	{r7, lr}
 778              	.LCFI20:
 779              		.cfi_def_cfa_offset 8
 780              		.cfi_offset 7, -8
 781              		.cfi_offset 14, -4
 782 0002 84B0     		sub	sp, sp, #16
 783              	.LCFI21:
 784              		.cfi_def_cfa_offset 24
 785 0004 00AF     		add	r7, sp, #0
 786              	.LCFI22:
 787              		.cfi_def_cfa_register 7
 788 0006 7860     		str	r0, [r7, #4]
 789 0008 0B46     		mov	r3, r1
 790 000a FB70     		strb	r3, [r7, #3]
 732:Middlewares/ST/STM32_USB_Device_Library/Class/CDC/Src/usbd_cdc.c ****   USBD_CDC_HandleTypeDef *hcdc = (USBD_CDC_HandleTypeDef *)pdev->pClassData;
 791              		.loc 1 732 27
 792 000c 7B68     		ldr	r3, [r7, #4]
 793 000e D3F8BC32 		ldr	r3, [r3, #700]
 794 0012 FB60     		str	r3, [r7, #12]
 733:Middlewares/ST/STM32_USB_Device_Library/Class/CDC/Src/usbd_cdc.c **** 
 734:Middlewares/ST/STM32_USB_Device_Library/Class/CDC/Src/usbd_cdc.c ****   if (pdev->pClassData == NULL)
 795              		.loc 1 734 11
 796 0014 7B68     		ldr	r3, [r7, #4]
 797 0016 D3F8BC32 		ldr	r3, [r3, #700]
 798              		.loc 1 734 6
 799 001a 002B     		cmp	r3, #0
 800 001c 01D1     		bne	.L41
 735:Middlewares/ST/STM32_USB_Device_Library/Class/CDC/Src/usbd_cdc.c ****   {
 736:Middlewares/ST/STM32_USB_Device_Library/Class/CDC/Src/usbd_cdc.c ****     return (uint8_t)USBD_FAIL;
 801              		.loc 1 736 12
 802 001e 0323     		movs	r3, #3
 803 0020 15E0     		b	.L42
 804              	.L41:
 737:Middlewares/ST/STM32_USB_Device_Library/Class/CDC/Src/usbd_cdc.c ****   }
 738:Middlewares/ST/STM32_USB_Device_Library/Class/CDC/Src/usbd_cdc.c **** 
 739:Middlewares/ST/STM32_USB_Device_Library/Class/CDC/Src/usbd_cdc.c ****   /* Get the received data length */
 740:Middlewares/ST/STM32_USB_Device_Library/Class/CDC/Src/usbd_cdc.c ****   hcdc->RxLength = USBD_LL_GetRxDataSize(pdev, epnum);
 805              		.loc 1 740 20
 806 0022 FB78     		ldrb	r3, [r7, #3]	@ zero_extendqisi2
 807 0024 1946     		mov	r1, r3
 808 0026 7868     		ldr	r0, [r7, #4]
 809 0028 FFF7FEFF 		bl	USBD_LL_GetRxDataSize
 810 002c 0246     		mov	r2, r0
 811              		.loc 1 740 18
 812 002e FB68     		ldr	r3, [r7, #12]
ARM GAS  /var/folders/vq/qt4vp3kd5rxf7v2b6_fdtdt80000gn/T//cccgRN2W.s 			page 29


 813 0030 C3F80C22 		str	r2, [r3, #524]
 741:Middlewares/ST/STM32_USB_Device_Library/Class/CDC/Src/usbd_cdc.c **** 
 742:Middlewares/ST/STM32_USB_Device_Library/Class/CDC/Src/usbd_cdc.c ****   /* USB data will be immediately processed, this allow next USB traffic being
 743:Middlewares/ST/STM32_USB_Device_Library/Class/CDC/Src/usbd_cdc.c ****   NAKed till the end of the application Xfer */
 744:Middlewares/ST/STM32_USB_Device_Library/Class/CDC/Src/usbd_cdc.c **** 
 745:Middlewares/ST/STM32_USB_Device_Library/Class/CDC/Src/usbd_cdc.c ****   ((USBD_CDC_ItfTypeDef *)pdev->pUserData)->Receive(hcdc->RxBuffer, &hcdc->RxLength);
 814              		.loc 1 745 31
 815 0034 7B68     		ldr	r3, [r7, #4]
 816 0036 D3F8C032 		ldr	r3, [r3, #704]
 817              		.loc 1 745 43
 818 003a DB68     		ldr	r3, [r3, #12]
 819              		.loc 1 745 4
 820 003c FA68     		ldr	r2, [r7, #12]
 821 003e D2F80402 		ldr	r0, [r2, #516]
 822 0042 FA68     		ldr	r2, [r7, #12]
 823 0044 02F50372 		add	r2, r2, #524
 824 0048 1146     		mov	r1, r2
 825 004a 9847     		blx	r3
 826              	.LVL5:
 746:Middlewares/ST/STM32_USB_Device_Library/Class/CDC/Src/usbd_cdc.c **** 
 747:Middlewares/ST/STM32_USB_Device_Library/Class/CDC/Src/usbd_cdc.c ****   return (uint8_t)USBD_OK;
 827              		.loc 1 747 10
 828 004c 0023     		movs	r3, #0
 829              	.L42:
 748:Middlewares/ST/STM32_USB_Device_Library/Class/CDC/Src/usbd_cdc.c **** }
 830              		.loc 1 748 1
 831 004e 1846     		mov	r0, r3
 832 0050 1037     		adds	r7, r7, #16
 833              	.LCFI23:
 834              		.cfi_def_cfa_offset 8
 835 0052 BD46     		mov	sp, r7
 836              	.LCFI24:
 837              		.cfi_def_cfa_register 13
 838              		@ sp needed
 839 0054 80BD     		pop	{r7, pc}
 840              		.cfi_endproc
 841              	.LFE138:
 843              		.section	.text.USBD_CDC_EP0_RxReady,"ax",%progbits
 844              		.align	1
 845              		.syntax unified
 846              		.thumb
 847              		.thumb_func
 848              		.fpu fpv4-sp-d16
 850              	USBD_CDC_EP0_RxReady:
 851              	.LFB139:
 749:Middlewares/ST/STM32_USB_Device_Library/Class/CDC/Src/usbd_cdc.c **** 
 750:Middlewares/ST/STM32_USB_Device_Library/Class/CDC/Src/usbd_cdc.c **** /**
 751:Middlewares/ST/STM32_USB_Device_Library/Class/CDC/Src/usbd_cdc.c ****   * @brief  USBD_CDC_EP0_RxReady
 752:Middlewares/ST/STM32_USB_Device_Library/Class/CDC/Src/usbd_cdc.c ****   *         Handle EP0 Rx Ready event
 753:Middlewares/ST/STM32_USB_Device_Library/Class/CDC/Src/usbd_cdc.c ****   * @param  pdev: device instance
 754:Middlewares/ST/STM32_USB_Device_Library/Class/CDC/Src/usbd_cdc.c ****   * @retval status
 755:Middlewares/ST/STM32_USB_Device_Library/Class/CDC/Src/usbd_cdc.c ****   */
 756:Middlewares/ST/STM32_USB_Device_Library/Class/CDC/Src/usbd_cdc.c **** static uint8_t USBD_CDC_EP0_RxReady(USBD_HandleTypeDef *pdev)
 757:Middlewares/ST/STM32_USB_Device_Library/Class/CDC/Src/usbd_cdc.c **** {
 852              		.loc 1 757 1
 853              		.cfi_startproc
 854              		@ args = 0, pretend = 0, frame = 16
ARM GAS  /var/folders/vq/qt4vp3kd5rxf7v2b6_fdtdt80000gn/T//cccgRN2W.s 			page 30


 855              		@ frame_needed = 1, uses_anonymous_args = 0
 856 0000 80B5     		push	{r7, lr}
 857              	.LCFI25:
 858              		.cfi_def_cfa_offset 8
 859              		.cfi_offset 7, -8
 860              		.cfi_offset 14, -4
 861 0002 84B0     		sub	sp, sp, #16
 862              	.LCFI26:
 863              		.cfi_def_cfa_offset 24
 864 0004 00AF     		add	r7, sp, #0
 865              	.LCFI27:
 866              		.cfi_def_cfa_register 7
 867 0006 7860     		str	r0, [r7, #4]
 758:Middlewares/ST/STM32_USB_Device_Library/Class/CDC/Src/usbd_cdc.c ****   USBD_CDC_HandleTypeDef *hcdc = (USBD_CDC_HandleTypeDef *)pdev->pClassData;
 868              		.loc 1 758 27
 869 0008 7B68     		ldr	r3, [r7, #4]
 870 000a D3F8BC32 		ldr	r3, [r3, #700]
 871 000e FB60     		str	r3, [r7, #12]
 759:Middlewares/ST/STM32_USB_Device_Library/Class/CDC/Src/usbd_cdc.c **** 
 760:Middlewares/ST/STM32_USB_Device_Library/Class/CDC/Src/usbd_cdc.c ****   if (hcdc == NULL)
 872              		.loc 1 760 6
 873 0010 FB68     		ldr	r3, [r7, #12]
 874 0012 002B     		cmp	r3, #0
 875 0014 01D1     		bne	.L44
 761:Middlewares/ST/STM32_USB_Device_Library/Class/CDC/Src/usbd_cdc.c ****   {
 762:Middlewares/ST/STM32_USB_Device_Library/Class/CDC/Src/usbd_cdc.c ****     return (uint8_t)USBD_FAIL;
 876              		.loc 1 762 12
 877 0016 0323     		movs	r3, #3
 878 0018 1BE0     		b	.L45
 879              	.L44:
 763:Middlewares/ST/STM32_USB_Device_Library/Class/CDC/Src/usbd_cdc.c ****   }
 764:Middlewares/ST/STM32_USB_Device_Library/Class/CDC/Src/usbd_cdc.c **** 
 765:Middlewares/ST/STM32_USB_Device_Library/Class/CDC/Src/usbd_cdc.c ****   if ((pdev->pUserData != NULL) && (hcdc->CmdOpCode != 0xFFU))
 880              		.loc 1 765 12
 881 001a 7B68     		ldr	r3, [r7, #4]
 882 001c D3F8C032 		ldr	r3, [r3, #704]
 883              		.loc 1 765 6
 884 0020 002B     		cmp	r3, #0
 885 0022 15D0     		beq	.L46
 886              		.loc 1 765 41 discriminator 1
 887 0024 FB68     		ldr	r3, [r7, #12]
 888 0026 93F80032 		ldrb	r3, [r3, #512]	@ zero_extendqisi2
 889              		.loc 1 765 33 discriminator 1
 890 002a FF2B     		cmp	r3, #255
 891 002c 10D0     		beq	.L46
 766:Middlewares/ST/STM32_USB_Device_Library/Class/CDC/Src/usbd_cdc.c ****   {
 767:Middlewares/ST/STM32_USB_Device_Library/Class/CDC/Src/usbd_cdc.c ****     ((USBD_CDC_ItfTypeDef *)pdev->pUserData)->Control(hcdc->CmdOpCode,
 892              		.loc 1 767 33
 893 002e 7B68     		ldr	r3, [r7, #4]
 894 0030 D3F8C032 		ldr	r3, [r3, #704]
 895              		.loc 1 767 45
 896 0034 9B68     		ldr	r3, [r3, #8]
 897              		.loc 1 767 6
 898 0036 FA68     		ldr	r2, [r7, #12]
 899 0038 92F80002 		ldrb	r0, [r2, #512]	@ zero_extendqisi2
 768:Middlewares/ST/STM32_USB_Device_Library/Class/CDC/Src/usbd_cdc.c ****                                                       (uint8_t *)hcdc->data,
 900              		.loc 1 768 66
ARM GAS  /var/folders/vq/qt4vp3kd5rxf7v2b6_fdtdt80000gn/T//cccgRN2W.s 			page 31


 901 003c F968     		ldr	r1, [r7, #12]
 769:Middlewares/ST/STM32_USB_Device_Library/Class/CDC/Src/usbd_cdc.c ****                                                       (uint16_t)hcdc->CmdLength);
 902              		.loc 1 769 69
 903 003e FA68     		ldr	r2, [r7, #12]
 904 0040 92F80122 		ldrb	r2, [r2, #513]	@ zero_extendqisi2
 767:Middlewares/ST/STM32_USB_Device_Library/Class/CDC/Src/usbd_cdc.c ****                                                       (uint8_t *)hcdc->data,
 905              		.loc 1 767 6
 906 0044 92B2     		uxth	r2, r2
 907 0046 9847     		blx	r3
 908              	.LVL6:
 770:Middlewares/ST/STM32_USB_Device_Library/Class/CDC/Src/usbd_cdc.c ****     hcdc->CmdOpCode = 0xFFU;
 909              		.loc 1 770 21
 910 0048 FB68     		ldr	r3, [r7, #12]
 911 004a FF22     		movs	r2, #255
 912 004c 83F80022 		strb	r2, [r3, #512]
 913              	.L46:
 771:Middlewares/ST/STM32_USB_Device_Library/Class/CDC/Src/usbd_cdc.c ****   }
 772:Middlewares/ST/STM32_USB_Device_Library/Class/CDC/Src/usbd_cdc.c **** 
 773:Middlewares/ST/STM32_USB_Device_Library/Class/CDC/Src/usbd_cdc.c ****   return (uint8_t)USBD_OK;
 914              		.loc 1 773 10
 915 0050 0023     		movs	r3, #0
 916              	.L45:
 774:Middlewares/ST/STM32_USB_Device_Library/Class/CDC/Src/usbd_cdc.c **** }
 917              		.loc 1 774 1
 918 0052 1846     		mov	r0, r3
 919 0054 1037     		adds	r7, r7, #16
 920              	.LCFI28:
 921              		.cfi_def_cfa_offset 8
 922 0056 BD46     		mov	sp, r7
 923              	.LCFI29:
 924              		.cfi_def_cfa_register 13
 925              		@ sp needed
 926 0058 80BD     		pop	{r7, pc}
 927              		.cfi_endproc
 928              	.LFE139:
 930              		.section	.text.USBD_CDC_GetFSCfgDesc,"ax",%progbits
 931              		.align	1
 932              		.syntax unified
 933              		.thumb
 934              		.thumb_func
 935              		.fpu fpv4-sp-d16
 937              	USBD_CDC_GetFSCfgDesc:
 938              	.LFB140:
 775:Middlewares/ST/STM32_USB_Device_Library/Class/CDC/Src/usbd_cdc.c **** 
 776:Middlewares/ST/STM32_USB_Device_Library/Class/CDC/Src/usbd_cdc.c **** /**
 777:Middlewares/ST/STM32_USB_Device_Library/Class/CDC/Src/usbd_cdc.c ****   * @brief  USBD_CDC_GetFSCfgDesc
 778:Middlewares/ST/STM32_USB_Device_Library/Class/CDC/Src/usbd_cdc.c ****   *         Return configuration descriptor
 779:Middlewares/ST/STM32_USB_Device_Library/Class/CDC/Src/usbd_cdc.c ****   * @param  speed : current device speed
 780:Middlewares/ST/STM32_USB_Device_Library/Class/CDC/Src/usbd_cdc.c ****   * @param  length : pointer data length
 781:Middlewares/ST/STM32_USB_Device_Library/Class/CDC/Src/usbd_cdc.c ****   * @retval pointer to descriptor buffer
 782:Middlewares/ST/STM32_USB_Device_Library/Class/CDC/Src/usbd_cdc.c ****   */
 783:Middlewares/ST/STM32_USB_Device_Library/Class/CDC/Src/usbd_cdc.c **** static uint8_t *USBD_CDC_GetFSCfgDesc(uint16_t *length)
 784:Middlewares/ST/STM32_USB_Device_Library/Class/CDC/Src/usbd_cdc.c **** {
 939              		.loc 1 784 1
 940              		.cfi_startproc
 941              		@ args = 0, pretend = 0, frame = 8
 942              		@ frame_needed = 1, uses_anonymous_args = 0
ARM GAS  /var/folders/vq/qt4vp3kd5rxf7v2b6_fdtdt80000gn/T//cccgRN2W.s 			page 32


 943              		@ link register save eliminated.
 944 0000 80B4     		push	{r7}
 945              	.LCFI30:
 946              		.cfi_def_cfa_offset 4
 947              		.cfi_offset 7, -4
 948 0002 83B0     		sub	sp, sp, #12
 949              	.LCFI31:
 950              		.cfi_def_cfa_offset 16
 951 0004 00AF     		add	r7, sp, #0
 952              	.LCFI32:
 953              		.cfi_def_cfa_register 7
 954 0006 7860     		str	r0, [r7, #4]
 785:Middlewares/ST/STM32_USB_Device_Library/Class/CDC/Src/usbd_cdc.c ****   *length = (uint16_t)sizeof(USBD_CDC_CfgFSDesc);
 955              		.loc 1 785 11
 956 0008 7B68     		ldr	r3, [r7, #4]
 957 000a 4322     		movs	r2, #67
 958 000c 1A80     		strh	r2, [r3]	@ movhi
 786:Middlewares/ST/STM32_USB_Device_Library/Class/CDC/Src/usbd_cdc.c **** 
 787:Middlewares/ST/STM32_USB_Device_Library/Class/CDC/Src/usbd_cdc.c ****   return USBD_CDC_CfgFSDesc;
 959              		.loc 1 787 10
 960 000e 034B     		ldr	r3, .L49
 788:Middlewares/ST/STM32_USB_Device_Library/Class/CDC/Src/usbd_cdc.c **** }
 961              		.loc 1 788 1
 962 0010 1846     		mov	r0, r3
 963 0012 0C37     		adds	r7, r7, #12
 964              	.LCFI33:
 965              		.cfi_def_cfa_offset 4
 966 0014 BD46     		mov	sp, r7
 967              	.LCFI34:
 968              		.cfi_def_cfa_register 13
 969              		@ sp needed
 970 0016 5DF8047B 		ldr	r7, [sp], #4
 971              	.LCFI35:
 972              		.cfi_restore 7
 973              		.cfi_def_cfa_offset 0
 974 001a 7047     		bx	lr
 975              	.L50:
 976              		.align	2
 977              	.L49:
 978 001c 00000000 		.word	USBD_CDC_CfgFSDesc
 979              		.cfi_endproc
 980              	.LFE140:
 982              		.section	.text.USBD_CDC_GetHSCfgDesc,"ax",%progbits
 983              		.align	1
 984              		.syntax unified
 985              		.thumb
 986              		.thumb_func
 987              		.fpu fpv4-sp-d16
 989              	USBD_CDC_GetHSCfgDesc:
 990              	.LFB141:
 789:Middlewares/ST/STM32_USB_Device_Library/Class/CDC/Src/usbd_cdc.c **** 
 790:Middlewares/ST/STM32_USB_Device_Library/Class/CDC/Src/usbd_cdc.c **** /**
 791:Middlewares/ST/STM32_USB_Device_Library/Class/CDC/Src/usbd_cdc.c ****   * @brief  USBD_CDC_GetHSCfgDesc
 792:Middlewares/ST/STM32_USB_Device_Library/Class/CDC/Src/usbd_cdc.c ****   *         Return configuration descriptor
 793:Middlewares/ST/STM32_USB_Device_Library/Class/CDC/Src/usbd_cdc.c ****   * @param  speed : current device speed
 794:Middlewares/ST/STM32_USB_Device_Library/Class/CDC/Src/usbd_cdc.c ****   * @param  length : pointer data length
 795:Middlewares/ST/STM32_USB_Device_Library/Class/CDC/Src/usbd_cdc.c ****   * @retval pointer to descriptor buffer
ARM GAS  /var/folders/vq/qt4vp3kd5rxf7v2b6_fdtdt80000gn/T//cccgRN2W.s 			page 33


 796:Middlewares/ST/STM32_USB_Device_Library/Class/CDC/Src/usbd_cdc.c ****   */
 797:Middlewares/ST/STM32_USB_Device_Library/Class/CDC/Src/usbd_cdc.c **** static uint8_t *USBD_CDC_GetHSCfgDesc(uint16_t *length)
 798:Middlewares/ST/STM32_USB_Device_Library/Class/CDC/Src/usbd_cdc.c **** {
 991              		.loc 1 798 1
 992              		.cfi_startproc
 993              		@ args = 0, pretend = 0, frame = 8
 994              		@ frame_needed = 1, uses_anonymous_args = 0
 995              		@ link register save eliminated.
 996 0000 80B4     		push	{r7}
 997              	.LCFI36:
 998              		.cfi_def_cfa_offset 4
 999              		.cfi_offset 7, -4
 1000 0002 83B0     		sub	sp, sp, #12
 1001              	.LCFI37:
 1002              		.cfi_def_cfa_offset 16
 1003 0004 00AF     		add	r7, sp, #0
 1004              	.LCFI38:
 1005              		.cfi_def_cfa_register 7
 1006 0006 7860     		str	r0, [r7, #4]
 799:Middlewares/ST/STM32_USB_Device_Library/Class/CDC/Src/usbd_cdc.c ****   *length = (uint16_t)sizeof(USBD_CDC_CfgHSDesc);
 1007              		.loc 1 799 11
 1008 0008 7B68     		ldr	r3, [r7, #4]
 1009 000a 4322     		movs	r2, #67
 1010 000c 1A80     		strh	r2, [r3]	@ movhi
 800:Middlewares/ST/STM32_USB_Device_Library/Class/CDC/Src/usbd_cdc.c **** 
 801:Middlewares/ST/STM32_USB_Device_Library/Class/CDC/Src/usbd_cdc.c ****   return USBD_CDC_CfgHSDesc;
 1011              		.loc 1 801 10
 1012 000e 034B     		ldr	r3, .L53
 802:Middlewares/ST/STM32_USB_Device_Library/Class/CDC/Src/usbd_cdc.c **** }
 1013              		.loc 1 802 1
 1014 0010 1846     		mov	r0, r3
 1015 0012 0C37     		adds	r7, r7, #12
 1016              	.LCFI39:
 1017              		.cfi_def_cfa_offset 4
 1018 0014 BD46     		mov	sp, r7
 1019              	.LCFI40:
 1020              		.cfi_def_cfa_register 13
 1021              		@ sp needed
 1022 0016 5DF8047B 		ldr	r7, [sp], #4
 1023              	.LCFI41:
 1024              		.cfi_restore 7
 1025              		.cfi_def_cfa_offset 0
 1026 001a 7047     		bx	lr
 1027              	.L54:
 1028              		.align	2
 1029              	.L53:
 1030 001c 00000000 		.word	USBD_CDC_CfgHSDesc
 1031              		.cfi_endproc
 1032              	.LFE141:
 1034              		.section	.text.USBD_CDC_GetOtherSpeedCfgDesc,"ax",%progbits
 1035              		.align	1
 1036              		.syntax unified
 1037              		.thumb
 1038              		.thumb_func
 1039              		.fpu fpv4-sp-d16
 1041              	USBD_CDC_GetOtherSpeedCfgDesc:
 1042              	.LFB142:
ARM GAS  /var/folders/vq/qt4vp3kd5rxf7v2b6_fdtdt80000gn/T//cccgRN2W.s 			page 34


 803:Middlewares/ST/STM32_USB_Device_Library/Class/CDC/Src/usbd_cdc.c **** 
 804:Middlewares/ST/STM32_USB_Device_Library/Class/CDC/Src/usbd_cdc.c **** /**
 805:Middlewares/ST/STM32_USB_Device_Library/Class/CDC/Src/usbd_cdc.c ****   * @brief  USBD_CDC_GetOtherSpeedCfgDesc
 806:Middlewares/ST/STM32_USB_Device_Library/Class/CDC/Src/usbd_cdc.c ****   *         Return configuration descriptor
 807:Middlewares/ST/STM32_USB_Device_Library/Class/CDC/Src/usbd_cdc.c ****   * @param  speed : current device speed
 808:Middlewares/ST/STM32_USB_Device_Library/Class/CDC/Src/usbd_cdc.c ****   * @param  length : pointer data length
 809:Middlewares/ST/STM32_USB_Device_Library/Class/CDC/Src/usbd_cdc.c ****   * @retval pointer to descriptor buffer
 810:Middlewares/ST/STM32_USB_Device_Library/Class/CDC/Src/usbd_cdc.c ****   */
 811:Middlewares/ST/STM32_USB_Device_Library/Class/CDC/Src/usbd_cdc.c **** static uint8_t *USBD_CDC_GetOtherSpeedCfgDesc(uint16_t *length)
 812:Middlewares/ST/STM32_USB_Device_Library/Class/CDC/Src/usbd_cdc.c **** {
 1043              		.loc 1 812 1
 1044              		.cfi_startproc
 1045              		@ args = 0, pretend = 0, frame = 8
 1046              		@ frame_needed = 1, uses_anonymous_args = 0
 1047              		@ link register save eliminated.
 1048 0000 80B4     		push	{r7}
 1049              	.LCFI42:
 1050              		.cfi_def_cfa_offset 4
 1051              		.cfi_offset 7, -4
 1052 0002 83B0     		sub	sp, sp, #12
 1053              	.LCFI43:
 1054              		.cfi_def_cfa_offset 16
 1055 0004 00AF     		add	r7, sp, #0
 1056              	.LCFI44:
 1057              		.cfi_def_cfa_register 7
 1058 0006 7860     		str	r0, [r7, #4]
 813:Middlewares/ST/STM32_USB_Device_Library/Class/CDC/Src/usbd_cdc.c ****   *length = (uint16_t)sizeof(USBD_CDC_OtherSpeedCfgDesc);
 1059              		.loc 1 813 11
 1060 0008 7B68     		ldr	r3, [r7, #4]
 1061 000a 4322     		movs	r2, #67
 1062 000c 1A80     		strh	r2, [r3]	@ movhi
 814:Middlewares/ST/STM32_USB_Device_Library/Class/CDC/Src/usbd_cdc.c **** 
 815:Middlewares/ST/STM32_USB_Device_Library/Class/CDC/Src/usbd_cdc.c ****   return USBD_CDC_OtherSpeedCfgDesc;
 1063              		.loc 1 815 10
 1064 000e 034B     		ldr	r3, .L57
 816:Middlewares/ST/STM32_USB_Device_Library/Class/CDC/Src/usbd_cdc.c **** }
 1065              		.loc 1 816 1
 1066 0010 1846     		mov	r0, r3
 1067 0012 0C37     		adds	r7, r7, #12
 1068              	.LCFI45:
 1069              		.cfi_def_cfa_offset 4
 1070 0014 BD46     		mov	sp, r7
 1071              	.LCFI46:
 1072              		.cfi_def_cfa_register 13
 1073              		@ sp needed
 1074 0016 5DF8047B 		ldr	r7, [sp], #4
 1075              	.LCFI47:
 1076              		.cfi_restore 7
 1077              		.cfi_def_cfa_offset 0
 1078 001a 7047     		bx	lr
 1079              	.L58:
 1080              		.align	2
 1081              	.L57:
 1082 001c 00000000 		.word	USBD_CDC_OtherSpeedCfgDesc
 1083              		.cfi_endproc
 1084              	.LFE142:
 1086              		.section	.text.USBD_CDC_GetDeviceQualifierDescriptor,"ax",%progbits
ARM GAS  /var/folders/vq/qt4vp3kd5rxf7v2b6_fdtdt80000gn/T//cccgRN2W.s 			page 35


 1087              		.align	1
 1088              		.global	USBD_CDC_GetDeviceQualifierDescriptor
 1089              		.syntax unified
 1090              		.thumb
 1091              		.thumb_func
 1092              		.fpu fpv4-sp-d16
 1094              	USBD_CDC_GetDeviceQualifierDescriptor:
 1095              	.LFB143:
 817:Middlewares/ST/STM32_USB_Device_Library/Class/CDC/Src/usbd_cdc.c **** 
 818:Middlewares/ST/STM32_USB_Device_Library/Class/CDC/Src/usbd_cdc.c **** /**
 819:Middlewares/ST/STM32_USB_Device_Library/Class/CDC/Src/usbd_cdc.c ****   * @brief  USBD_CDC_GetDeviceQualifierDescriptor
 820:Middlewares/ST/STM32_USB_Device_Library/Class/CDC/Src/usbd_cdc.c ****   *         return Device Qualifier descriptor
 821:Middlewares/ST/STM32_USB_Device_Library/Class/CDC/Src/usbd_cdc.c ****   * @param  length : pointer data length
 822:Middlewares/ST/STM32_USB_Device_Library/Class/CDC/Src/usbd_cdc.c ****   * @retval pointer to descriptor buffer
 823:Middlewares/ST/STM32_USB_Device_Library/Class/CDC/Src/usbd_cdc.c ****   */
 824:Middlewares/ST/STM32_USB_Device_Library/Class/CDC/Src/usbd_cdc.c **** uint8_t *USBD_CDC_GetDeviceQualifierDescriptor(uint16_t *length)
 825:Middlewares/ST/STM32_USB_Device_Library/Class/CDC/Src/usbd_cdc.c **** {
 1096              		.loc 1 825 1
 1097              		.cfi_startproc
 1098              		@ args = 0, pretend = 0, frame = 8
 1099              		@ frame_needed = 1, uses_anonymous_args = 0
 1100              		@ link register save eliminated.
 1101 0000 80B4     		push	{r7}
 1102              	.LCFI48:
 1103              		.cfi_def_cfa_offset 4
 1104              		.cfi_offset 7, -4
 1105 0002 83B0     		sub	sp, sp, #12
 1106              	.LCFI49:
 1107              		.cfi_def_cfa_offset 16
 1108 0004 00AF     		add	r7, sp, #0
 1109              	.LCFI50:
 1110              		.cfi_def_cfa_register 7
 1111 0006 7860     		str	r0, [r7, #4]
 826:Middlewares/ST/STM32_USB_Device_Library/Class/CDC/Src/usbd_cdc.c ****   *length = (uint16_t)sizeof(USBD_CDC_DeviceQualifierDesc);
 1112              		.loc 1 826 11
 1113 0008 7B68     		ldr	r3, [r7, #4]
 1114 000a 0A22     		movs	r2, #10
 1115 000c 1A80     		strh	r2, [r3]	@ movhi
 827:Middlewares/ST/STM32_USB_Device_Library/Class/CDC/Src/usbd_cdc.c **** 
 828:Middlewares/ST/STM32_USB_Device_Library/Class/CDC/Src/usbd_cdc.c ****   return USBD_CDC_DeviceQualifierDesc;
 1116              		.loc 1 828 10
 1117 000e 034B     		ldr	r3, .L61
 829:Middlewares/ST/STM32_USB_Device_Library/Class/CDC/Src/usbd_cdc.c **** }
 1118              		.loc 1 829 1
 1119 0010 1846     		mov	r0, r3
 1120 0012 0C37     		adds	r7, r7, #12
 1121              	.LCFI51:
 1122              		.cfi_def_cfa_offset 4
 1123 0014 BD46     		mov	sp, r7
 1124              	.LCFI52:
 1125              		.cfi_def_cfa_register 13
 1126              		@ sp needed
 1127 0016 5DF8047B 		ldr	r7, [sp], #4
 1128              	.LCFI53:
 1129              		.cfi_restore 7
 1130              		.cfi_def_cfa_offset 0
 1131 001a 7047     		bx	lr
ARM GAS  /var/folders/vq/qt4vp3kd5rxf7v2b6_fdtdt80000gn/T//cccgRN2W.s 			page 36


 1132              	.L62:
 1133              		.align	2
 1134              	.L61:
 1135 001c 00000000 		.word	USBD_CDC_DeviceQualifierDesc
 1136              		.cfi_endproc
 1137              	.LFE143:
 1139              		.section	.text.USBD_CDC_RegisterInterface,"ax",%progbits
 1140              		.align	1
 1141              		.global	USBD_CDC_RegisterInterface
 1142              		.syntax unified
 1143              		.thumb
 1144              		.thumb_func
 1145              		.fpu fpv4-sp-d16
 1147              	USBD_CDC_RegisterInterface:
 1148              	.LFB144:
 830:Middlewares/ST/STM32_USB_Device_Library/Class/CDC/Src/usbd_cdc.c **** 
 831:Middlewares/ST/STM32_USB_Device_Library/Class/CDC/Src/usbd_cdc.c **** /**
 832:Middlewares/ST/STM32_USB_Device_Library/Class/CDC/Src/usbd_cdc.c ****   * @brief  USBD_CDC_RegisterInterface
 833:Middlewares/ST/STM32_USB_Device_Library/Class/CDC/Src/usbd_cdc.c ****   * @param  pdev: device instance
 834:Middlewares/ST/STM32_USB_Device_Library/Class/CDC/Src/usbd_cdc.c ****   * @param  fops: CD  Interface callback
 835:Middlewares/ST/STM32_USB_Device_Library/Class/CDC/Src/usbd_cdc.c ****   * @retval status
 836:Middlewares/ST/STM32_USB_Device_Library/Class/CDC/Src/usbd_cdc.c ****   */
 837:Middlewares/ST/STM32_USB_Device_Library/Class/CDC/Src/usbd_cdc.c **** uint8_t USBD_CDC_RegisterInterface(USBD_HandleTypeDef *pdev,
 838:Middlewares/ST/STM32_USB_Device_Library/Class/CDC/Src/usbd_cdc.c ****                                    USBD_CDC_ItfTypeDef *fops)
 839:Middlewares/ST/STM32_USB_Device_Library/Class/CDC/Src/usbd_cdc.c **** {
 1149              		.loc 1 839 1
 1150              		.cfi_startproc
 1151              		@ args = 0, pretend = 0, frame = 8
 1152              		@ frame_needed = 1, uses_anonymous_args = 0
 1153              		@ link register save eliminated.
 1154 0000 80B4     		push	{r7}
 1155              	.LCFI54:
 1156              		.cfi_def_cfa_offset 4
 1157              		.cfi_offset 7, -4
 1158 0002 83B0     		sub	sp, sp, #12
 1159              	.LCFI55:
 1160              		.cfi_def_cfa_offset 16
 1161 0004 00AF     		add	r7, sp, #0
 1162              	.LCFI56:
 1163              		.cfi_def_cfa_register 7
 1164 0006 7860     		str	r0, [r7, #4]
 1165 0008 3960     		str	r1, [r7]
 840:Middlewares/ST/STM32_USB_Device_Library/Class/CDC/Src/usbd_cdc.c ****   if (fops == NULL)
 1166              		.loc 1 840 6
 1167 000a 3B68     		ldr	r3, [r7]
 1168 000c 002B     		cmp	r3, #0
 1169 000e 01D1     		bne	.L64
 841:Middlewares/ST/STM32_USB_Device_Library/Class/CDC/Src/usbd_cdc.c ****   {
 842:Middlewares/ST/STM32_USB_Device_Library/Class/CDC/Src/usbd_cdc.c ****     return (uint8_t)USBD_FAIL;
 1170              		.loc 1 842 12
 1171 0010 0323     		movs	r3, #3
 1172 0012 04E0     		b	.L65
 1173              	.L64:
 843:Middlewares/ST/STM32_USB_Device_Library/Class/CDC/Src/usbd_cdc.c ****   }
 844:Middlewares/ST/STM32_USB_Device_Library/Class/CDC/Src/usbd_cdc.c **** 
 845:Middlewares/ST/STM32_USB_Device_Library/Class/CDC/Src/usbd_cdc.c ****   pdev->pUserData = fops;
 1174              		.loc 1 845 19
ARM GAS  /var/folders/vq/qt4vp3kd5rxf7v2b6_fdtdt80000gn/T//cccgRN2W.s 			page 37


 1175 0014 7B68     		ldr	r3, [r7, #4]
 1176 0016 3A68     		ldr	r2, [r7]
 1177 0018 C3F8C022 		str	r2, [r3, #704]
 846:Middlewares/ST/STM32_USB_Device_Library/Class/CDC/Src/usbd_cdc.c **** 
 847:Middlewares/ST/STM32_USB_Device_Library/Class/CDC/Src/usbd_cdc.c ****   return (uint8_t)USBD_OK;
 1178              		.loc 1 847 10
 1179 001c 0023     		movs	r3, #0
 1180              	.L65:
 848:Middlewares/ST/STM32_USB_Device_Library/Class/CDC/Src/usbd_cdc.c **** }
 1181              		.loc 1 848 1
 1182 001e 1846     		mov	r0, r3
 1183 0020 0C37     		adds	r7, r7, #12
 1184              	.LCFI57:
 1185              		.cfi_def_cfa_offset 4
 1186 0022 BD46     		mov	sp, r7
 1187              	.LCFI58:
 1188              		.cfi_def_cfa_register 13
 1189              		@ sp needed
 1190 0024 5DF8047B 		ldr	r7, [sp], #4
 1191              	.LCFI59:
 1192              		.cfi_restore 7
 1193              		.cfi_def_cfa_offset 0
 1194 0028 7047     		bx	lr
 1195              		.cfi_endproc
 1196              	.LFE144:
 1198              		.section	.text.USBD_CDC_SetTxBuffer,"ax",%progbits
 1199              		.align	1
 1200              		.global	USBD_CDC_SetTxBuffer
 1201              		.syntax unified
 1202              		.thumb
 1203              		.thumb_func
 1204              		.fpu fpv4-sp-d16
 1206              	USBD_CDC_SetTxBuffer:
 1207              	.LFB145:
 849:Middlewares/ST/STM32_USB_Device_Library/Class/CDC/Src/usbd_cdc.c **** 
 850:Middlewares/ST/STM32_USB_Device_Library/Class/CDC/Src/usbd_cdc.c **** /**
 851:Middlewares/ST/STM32_USB_Device_Library/Class/CDC/Src/usbd_cdc.c ****   * @brief  USBD_CDC_SetTxBuffer
 852:Middlewares/ST/STM32_USB_Device_Library/Class/CDC/Src/usbd_cdc.c ****   * @param  pdev: device instance
 853:Middlewares/ST/STM32_USB_Device_Library/Class/CDC/Src/usbd_cdc.c ****   * @param  pbuff: Tx Buffer
 854:Middlewares/ST/STM32_USB_Device_Library/Class/CDC/Src/usbd_cdc.c ****   * @retval status
 855:Middlewares/ST/STM32_USB_Device_Library/Class/CDC/Src/usbd_cdc.c ****   */
 856:Middlewares/ST/STM32_USB_Device_Library/Class/CDC/Src/usbd_cdc.c **** uint8_t USBD_CDC_SetTxBuffer(USBD_HandleTypeDef *pdev,
 857:Middlewares/ST/STM32_USB_Device_Library/Class/CDC/Src/usbd_cdc.c ****                              uint8_t *pbuff, uint32_t length)
 858:Middlewares/ST/STM32_USB_Device_Library/Class/CDC/Src/usbd_cdc.c **** {
 1208              		.loc 1 858 1
 1209              		.cfi_startproc
 1210              		@ args = 0, pretend = 0, frame = 24
 1211              		@ frame_needed = 1, uses_anonymous_args = 0
 1212              		@ link register save eliminated.
 1213 0000 80B4     		push	{r7}
 1214              	.LCFI60:
 1215              		.cfi_def_cfa_offset 4
 1216              		.cfi_offset 7, -4
 1217 0002 87B0     		sub	sp, sp, #28
 1218              	.LCFI61:
 1219              		.cfi_def_cfa_offset 32
 1220 0004 00AF     		add	r7, sp, #0
ARM GAS  /var/folders/vq/qt4vp3kd5rxf7v2b6_fdtdt80000gn/T//cccgRN2W.s 			page 38


 1221              	.LCFI62:
 1222              		.cfi_def_cfa_register 7
 1223 0006 F860     		str	r0, [r7, #12]
 1224 0008 B960     		str	r1, [r7, #8]
 1225 000a 7A60     		str	r2, [r7, #4]
 859:Middlewares/ST/STM32_USB_Device_Library/Class/CDC/Src/usbd_cdc.c ****   USBD_CDC_HandleTypeDef *hcdc = (USBD_CDC_HandleTypeDef *)pdev->pClassData;
 1226              		.loc 1 859 27
 1227 000c FB68     		ldr	r3, [r7, #12]
 1228 000e D3F8BC32 		ldr	r3, [r3, #700]
 1229 0012 7B61     		str	r3, [r7, #20]
 860:Middlewares/ST/STM32_USB_Device_Library/Class/CDC/Src/usbd_cdc.c **** 
 861:Middlewares/ST/STM32_USB_Device_Library/Class/CDC/Src/usbd_cdc.c ****   if (hcdc == NULL)
 1230              		.loc 1 861 6
 1231 0014 7B69     		ldr	r3, [r7, #20]
 1232 0016 002B     		cmp	r3, #0
 1233 0018 01D1     		bne	.L67
 862:Middlewares/ST/STM32_USB_Device_Library/Class/CDC/Src/usbd_cdc.c ****   {
 863:Middlewares/ST/STM32_USB_Device_Library/Class/CDC/Src/usbd_cdc.c ****     return (uint8_t)USBD_FAIL;
 1234              		.loc 1 863 12
 1235 001a 0323     		movs	r3, #3
 1236 001c 08E0     		b	.L68
 1237              	.L67:
 864:Middlewares/ST/STM32_USB_Device_Library/Class/CDC/Src/usbd_cdc.c ****   }
 865:Middlewares/ST/STM32_USB_Device_Library/Class/CDC/Src/usbd_cdc.c **** 
 866:Middlewares/ST/STM32_USB_Device_Library/Class/CDC/Src/usbd_cdc.c ****   hcdc->TxBuffer = pbuff;
 1238              		.loc 1 866 18
 1239 001e 7B69     		ldr	r3, [r7, #20]
 1240 0020 BA68     		ldr	r2, [r7, #8]
 1241 0022 C3F80822 		str	r2, [r3, #520]
 867:Middlewares/ST/STM32_USB_Device_Library/Class/CDC/Src/usbd_cdc.c ****   hcdc->TxLength = length;
 1242              		.loc 1 867 18
 1243 0026 7B69     		ldr	r3, [r7, #20]
 1244 0028 7A68     		ldr	r2, [r7, #4]
 1245 002a C3F81022 		str	r2, [r3, #528]
 868:Middlewares/ST/STM32_USB_Device_Library/Class/CDC/Src/usbd_cdc.c **** 
 869:Middlewares/ST/STM32_USB_Device_Library/Class/CDC/Src/usbd_cdc.c ****   return (uint8_t)USBD_OK;
 1246              		.loc 1 869 10
 1247 002e 0023     		movs	r3, #0
 1248              	.L68:
 870:Middlewares/ST/STM32_USB_Device_Library/Class/CDC/Src/usbd_cdc.c **** }
 1249              		.loc 1 870 1
 1250 0030 1846     		mov	r0, r3
 1251 0032 1C37     		adds	r7, r7, #28
 1252              	.LCFI63:
 1253              		.cfi_def_cfa_offset 4
 1254 0034 BD46     		mov	sp, r7
 1255              	.LCFI64:
 1256              		.cfi_def_cfa_register 13
 1257              		@ sp needed
 1258 0036 5DF8047B 		ldr	r7, [sp], #4
 1259              	.LCFI65:
 1260              		.cfi_restore 7
 1261              		.cfi_def_cfa_offset 0
 1262 003a 7047     		bx	lr
 1263              		.cfi_endproc
 1264              	.LFE145:
 1266              		.section	.text.USBD_CDC_SetRxBuffer,"ax",%progbits
ARM GAS  /var/folders/vq/qt4vp3kd5rxf7v2b6_fdtdt80000gn/T//cccgRN2W.s 			page 39


 1267              		.align	1
 1268              		.global	USBD_CDC_SetRxBuffer
 1269              		.syntax unified
 1270              		.thumb
 1271              		.thumb_func
 1272              		.fpu fpv4-sp-d16
 1274              	USBD_CDC_SetRxBuffer:
 1275              	.LFB146:
 871:Middlewares/ST/STM32_USB_Device_Library/Class/CDC/Src/usbd_cdc.c **** 
 872:Middlewares/ST/STM32_USB_Device_Library/Class/CDC/Src/usbd_cdc.c **** /**
 873:Middlewares/ST/STM32_USB_Device_Library/Class/CDC/Src/usbd_cdc.c ****   * @brief  USBD_CDC_SetRxBuffer
 874:Middlewares/ST/STM32_USB_Device_Library/Class/CDC/Src/usbd_cdc.c ****   * @param  pdev: device instance
 875:Middlewares/ST/STM32_USB_Device_Library/Class/CDC/Src/usbd_cdc.c ****   * @param  pbuff: Rx Buffer
 876:Middlewares/ST/STM32_USB_Device_Library/Class/CDC/Src/usbd_cdc.c ****   * @retval status
 877:Middlewares/ST/STM32_USB_Device_Library/Class/CDC/Src/usbd_cdc.c ****   */
 878:Middlewares/ST/STM32_USB_Device_Library/Class/CDC/Src/usbd_cdc.c **** uint8_t USBD_CDC_SetRxBuffer(USBD_HandleTypeDef *pdev, uint8_t *pbuff)
 879:Middlewares/ST/STM32_USB_Device_Library/Class/CDC/Src/usbd_cdc.c **** {
 1276              		.loc 1 879 1
 1277              		.cfi_startproc
 1278              		@ args = 0, pretend = 0, frame = 16
 1279              		@ frame_needed = 1, uses_anonymous_args = 0
 1280              		@ link register save eliminated.
 1281 0000 80B4     		push	{r7}
 1282              	.LCFI66:
 1283              		.cfi_def_cfa_offset 4
 1284              		.cfi_offset 7, -4
 1285 0002 85B0     		sub	sp, sp, #20
 1286              	.LCFI67:
 1287              		.cfi_def_cfa_offset 24
 1288 0004 00AF     		add	r7, sp, #0
 1289              	.LCFI68:
 1290              		.cfi_def_cfa_register 7
 1291 0006 7860     		str	r0, [r7, #4]
 1292 0008 3960     		str	r1, [r7]
 880:Middlewares/ST/STM32_USB_Device_Library/Class/CDC/Src/usbd_cdc.c ****   USBD_CDC_HandleTypeDef *hcdc = (USBD_CDC_HandleTypeDef *)pdev->pClassData;
 1293              		.loc 1 880 27
 1294 000a 7B68     		ldr	r3, [r7, #4]
 1295 000c D3F8BC32 		ldr	r3, [r3, #700]
 1296 0010 FB60     		str	r3, [r7, #12]
 881:Middlewares/ST/STM32_USB_Device_Library/Class/CDC/Src/usbd_cdc.c **** 
 882:Middlewares/ST/STM32_USB_Device_Library/Class/CDC/Src/usbd_cdc.c ****   if (hcdc == NULL)
 1297              		.loc 1 882 6
 1298 0012 FB68     		ldr	r3, [r7, #12]
 1299 0014 002B     		cmp	r3, #0
 1300 0016 01D1     		bne	.L70
 883:Middlewares/ST/STM32_USB_Device_Library/Class/CDC/Src/usbd_cdc.c ****   {
 884:Middlewares/ST/STM32_USB_Device_Library/Class/CDC/Src/usbd_cdc.c ****     return (uint8_t)USBD_FAIL;
 1301              		.loc 1 884 12
 1302 0018 0323     		movs	r3, #3
 1303 001a 04E0     		b	.L71
 1304              	.L70:
 885:Middlewares/ST/STM32_USB_Device_Library/Class/CDC/Src/usbd_cdc.c ****   }
 886:Middlewares/ST/STM32_USB_Device_Library/Class/CDC/Src/usbd_cdc.c **** 
 887:Middlewares/ST/STM32_USB_Device_Library/Class/CDC/Src/usbd_cdc.c ****   hcdc->RxBuffer = pbuff;
 1305              		.loc 1 887 18
 1306 001c FB68     		ldr	r3, [r7, #12]
 1307 001e 3A68     		ldr	r2, [r7]
ARM GAS  /var/folders/vq/qt4vp3kd5rxf7v2b6_fdtdt80000gn/T//cccgRN2W.s 			page 40


 1308 0020 C3F80422 		str	r2, [r3, #516]
 888:Middlewares/ST/STM32_USB_Device_Library/Class/CDC/Src/usbd_cdc.c **** 
 889:Middlewares/ST/STM32_USB_Device_Library/Class/CDC/Src/usbd_cdc.c ****   return (uint8_t)USBD_OK;
 1309              		.loc 1 889 10
 1310 0024 0023     		movs	r3, #0
 1311              	.L71:
 890:Middlewares/ST/STM32_USB_Device_Library/Class/CDC/Src/usbd_cdc.c **** }
 1312              		.loc 1 890 1
 1313 0026 1846     		mov	r0, r3
 1314 0028 1437     		adds	r7, r7, #20
 1315              	.LCFI69:
 1316              		.cfi_def_cfa_offset 4
 1317 002a BD46     		mov	sp, r7
 1318              	.LCFI70:
 1319              		.cfi_def_cfa_register 13
 1320              		@ sp needed
 1321 002c 5DF8047B 		ldr	r7, [sp], #4
 1322              	.LCFI71:
 1323              		.cfi_restore 7
 1324              		.cfi_def_cfa_offset 0
 1325 0030 7047     		bx	lr
 1326              		.cfi_endproc
 1327              	.LFE146:
 1329              		.section	.text.USBD_CDC_TransmitPacket,"ax",%progbits
 1330              		.align	1
 1331              		.global	USBD_CDC_TransmitPacket
 1332              		.syntax unified
 1333              		.thumb
 1334              		.thumb_func
 1335              		.fpu fpv4-sp-d16
 1337              	USBD_CDC_TransmitPacket:
 1338              	.LFB147:
 891:Middlewares/ST/STM32_USB_Device_Library/Class/CDC/Src/usbd_cdc.c **** 
 892:Middlewares/ST/STM32_USB_Device_Library/Class/CDC/Src/usbd_cdc.c **** /**
 893:Middlewares/ST/STM32_USB_Device_Library/Class/CDC/Src/usbd_cdc.c ****   * @brief  USBD_CDC_TransmitPacket
 894:Middlewares/ST/STM32_USB_Device_Library/Class/CDC/Src/usbd_cdc.c ****   *         Transmit packet on IN endpoint
 895:Middlewares/ST/STM32_USB_Device_Library/Class/CDC/Src/usbd_cdc.c ****   * @param  pdev: device instance
 896:Middlewares/ST/STM32_USB_Device_Library/Class/CDC/Src/usbd_cdc.c ****   * @retval status
 897:Middlewares/ST/STM32_USB_Device_Library/Class/CDC/Src/usbd_cdc.c ****   */
 898:Middlewares/ST/STM32_USB_Device_Library/Class/CDC/Src/usbd_cdc.c **** uint8_t USBD_CDC_TransmitPacket(USBD_HandleTypeDef *pdev)
 899:Middlewares/ST/STM32_USB_Device_Library/Class/CDC/Src/usbd_cdc.c **** {
 1339              		.loc 1 899 1
 1340              		.cfi_startproc
 1341              		@ args = 0, pretend = 0, frame = 16
 1342              		@ frame_needed = 1, uses_anonymous_args = 0
 1343 0000 80B5     		push	{r7, lr}
 1344              	.LCFI72:
 1345              		.cfi_def_cfa_offset 8
 1346              		.cfi_offset 7, -8
 1347              		.cfi_offset 14, -4
 1348 0002 84B0     		sub	sp, sp, #16
 1349              	.LCFI73:
 1350              		.cfi_def_cfa_offset 24
 1351 0004 00AF     		add	r7, sp, #0
 1352              	.LCFI74:
 1353              		.cfi_def_cfa_register 7
 1354 0006 7860     		str	r0, [r7, #4]
ARM GAS  /var/folders/vq/qt4vp3kd5rxf7v2b6_fdtdt80000gn/T//cccgRN2W.s 			page 41


 900:Middlewares/ST/STM32_USB_Device_Library/Class/CDC/Src/usbd_cdc.c ****   USBD_CDC_HandleTypeDef *hcdc = (USBD_CDC_HandleTypeDef *)pdev->pClassData;
 1355              		.loc 1 900 27
 1356 0008 7B68     		ldr	r3, [r7, #4]
 1357 000a D3F8BC32 		ldr	r3, [r3, #700]
 1358 000e BB60     		str	r3, [r7, #8]
 901:Middlewares/ST/STM32_USB_Device_Library/Class/CDC/Src/usbd_cdc.c ****   USBD_StatusTypeDef ret = USBD_BUSY;
 1359              		.loc 1 901 22
 1360 0010 0123     		movs	r3, #1
 1361 0012 FB73     		strb	r3, [r7, #15]
 902:Middlewares/ST/STM32_USB_Device_Library/Class/CDC/Src/usbd_cdc.c **** 
 903:Middlewares/ST/STM32_USB_Device_Library/Class/CDC/Src/usbd_cdc.c ****   if (pdev->pClassData == NULL)
 1362              		.loc 1 903 11
 1363 0014 7B68     		ldr	r3, [r7, #4]
 1364 0016 D3F8BC32 		ldr	r3, [r3, #700]
 1365              		.loc 1 903 6
 1366 001a 002B     		cmp	r3, #0
 1367 001c 01D1     		bne	.L73
 904:Middlewares/ST/STM32_USB_Device_Library/Class/CDC/Src/usbd_cdc.c ****   {
 905:Middlewares/ST/STM32_USB_Device_Library/Class/CDC/Src/usbd_cdc.c ****     return (uint8_t)USBD_FAIL;
 1368              		.loc 1 905 12
 1369 001e 0323     		movs	r3, #3
 1370 0020 1AE0     		b	.L74
 1371              	.L73:
 906:Middlewares/ST/STM32_USB_Device_Library/Class/CDC/Src/usbd_cdc.c ****   }
 907:Middlewares/ST/STM32_USB_Device_Library/Class/CDC/Src/usbd_cdc.c **** 
 908:Middlewares/ST/STM32_USB_Device_Library/Class/CDC/Src/usbd_cdc.c ****   if (hcdc->TxState == 0U)
 1372              		.loc 1 908 11
 1373 0022 BB68     		ldr	r3, [r7, #8]
 1374 0024 D3F81432 		ldr	r3, [r3, #532]
 1375              		.loc 1 908 6
 1376 0028 002B     		cmp	r3, #0
 1377 002a 14D1     		bne	.L75
 909:Middlewares/ST/STM32_USB_Device_Library/Class/CDC/Src/usbd_cdc.c ****   {
 910:Middlewares/ST/STM32_USB_Device_Library/Class/CDC/Src/usbd_cdc.c ****     /* Tx Transfer in progress */
 911:Middlewares/ST/STM32_USB_Device_Library/Class/CDC/Src/usbd_cdc.c ****     hcdc->TxState = 1U;
 1378              		.loc 1 911 19
 1379 002c BB68     		ldr	r3, [r7, #8]
 1380 002e 0122     		movs	r2, #1
 1381 0030 C3F81422 		str	r2, [r3, #532]
 912:Middlewares/ST/STM32_USB_Device_Library/Class/CDC/Src/usbd_cdc.c **** 
 913:Middlewares/ST/STM32_USB_Device_Library/Class/CDC/Src/usbd_cdc.c ****     /* Update the packet total length */
 914:Middlewares/ST/STM32_USB_Device_Library/Class/CDC/Src/usbd_cdc.c ****     pdev->ep_in[CDC_IN_EP & 0xFU].total_length = hcdc->TxLength;
 1382              		.loc 1 914 54
 1383 0034 BB68     		ldr	r3, [r7, #8]
 1384 0036 D3F81022 		ldr	r2, [r3, #528]
 1385              		.loc 1 914 48
 1386 003a 7B68     		ldr	r3, [r7, #4]
 1387 003c DA62     		str	r2, [r3, #44]
 915:Middlewares/ST/STM32_USB_Device_Library/Class/CDC/Src/usbd_cdc.c **** 
 916:Middlewares/ST/STM32_USB_Device_Library/Class/CDC/Src/usbd_cdc.c ****     /* Transmit next packet */
 917:Middlewares/ST/STM32_USB_Device_Library/Class/CDC/Src/usbd_cdc.c ****     (void)USBD_LL_Transmit(pdev, CDC_IN_EP, hcdc->TxBuffer, hcdc->TxLength);
 1388              		.loc 1 917 11
 1389 003e BB68     		ldr	r3, [r7, #8]
 1390 0040 D3F80822 		ldr	r2, [r3, #520]
 1391 0044 BB68     		ldr	r3, [r7, #8]
 1392 0046 D3F81032 		ldr	r3, [r3, #528]
 1393 004a 8121     		movs	r1, #129
ARM GAS  /var/folders/vq/qt4vp3kd5rxf7v2b6_fdtdt80000gn/T//cccgRN2W.s 			page 42


 1394 004c 7868     		ldr	r0, [r7, #4]
 1395 004e FFF7FEFF 		bl	USBD_LL_Transmit
 918:Middlewares/ST/STM32_USB_Device_Library/Class/CDC/Src/usbd_cdc.c **** 
 919:Middlewares/ST/STM32_USB_Device_Library/Class/CDC/Src/usbd_cdc.c ****     ret = USBD_OK;
 1396              		.loc 1 919 9
 1397 0052 0023     		movs	r3, #0
 1398 0054 FB73     		strb	r3, [r7, #15]
 1399              	.L75:
 920:Middlewares/ST/STM32_USB_Device_Library/Class/CDC/Src/usbd_cdc.c ****   }
 921:Middlewares/ST/STM32_USB_Device_Library/Class/CDC/Src/usbd_cdc.c **** 
 922:Middlewares/ST/STM32_USB_Device_Library/Class/CDC/Src/usbd_cdc.c ****   return (uint8_t)ret;
 1400              		.loc 1 922 10
 1401 0056 FB7B     		ldrb	r3, [r7, #15]	@ zero_extendqisi2
 1402              	.L74:
 923:Middlewares/ST/STM32_USB_Device_Library/Class/CDC/Src/usbd_cdc.c **** }
 1403              		.loc 1 923 1
 1404 0058 1846     		mov	r0, r3
 1405 005a 1037     		adds	r7, r7, #16
 1406              	.LCFI75:
 1407              		.cfi_def_cfa_offset 8
 1408 005c BD46     		mov	sp, r7
 1409              	.LCFI76:
 1410              		.cfi_def_cfa_register 13
 1411              		@ sp needed
 1412 005e 80BD     		pop	{r7, pc}
 1413              		.cfi_endproc
 1414              	.LFE147:
 1416              		.section	.text.USBD_CDC_ReceivePacket,"ax",%progbits
 1417              		.align	1
 1418              		.global	USBD_CDC_ReceivePacket
 1419              		.syntax unified
 1420              		.thumb
 1421              		.thumb_func
 1422              		.fpu fpv4-sp-d16
 1424              	USBD_CDC_ReceivePacket:
 1425              	.LFB148:
 924:Middlewares/ST/STM32_USB_Device_Library/Class/CDC/Src/usbd_cdc.c **** 
 925:Middlewares/ST/STM32_USB_Device_Library/Class/CDC/Src/usbd_cdc.c **** /**
 926:Middlewares/ST/STM32_USB_Device_Library/Class/CDC/Src/usbd_cdc.c ****   * @brief  USBD_CDC_ReceivePacket
 927:Middlewares/ST/STM32_USB_Device_Library/Class/CDC/Src/usbd_cdc.c ****   *         prepare OUT Endpoint for reception
 928:Middlewares/ST/STM32_USB_Device_Library/Class/CDC/Src/usbd_cdc.c ****   * @param  pdev: device instance
 929:Middlewares/ST/STM32_USB_Device_Library/Class/CDC/Src/usbd_cdc.c ****   * @retval status
 930:Middlewares/ST/STM32_USB_Device_Library/Class/CDC/Src/usbd_cdc.c ****   */
 931:Middlewares/ST/STM32_USB_Device_Library/Class/CDC/Src/usbd_cdc.c **** uint8_t USBD_CDC_ReceivePacket(USBD_HandleTypeDef *pdev)
 932:Middlewares/ST/STM32_USB_Device_Library/Class/CDC/Src/usbd_cdc.c **** {
 1426              		.loc 1 932 1
 1427              		.cfi_startproc
 1428              		@ args = 0, pretend = 0, frame = 16
 1429              		@ frame_needed = 1, uses_anonymous_args = 0
 1430 0000 80B5     		push	{r7, lr}
 1431              	.LCFI77:
 1432              		.cfi_def_cfa_offset 8
 1433              		.cfi_offset 7, -8
 1434              		.cfi_offset 14, -4
 1435 0002 84B0     		sub	sp, sp, #16
 1436              	.LCFI78:
 1437              		.cfi_def_cfa_offset 24
ARM GAS  /var/folders/vq/qt4vp3kd5rxf7v2b6_fdtdt80000gn/T//cccgRN2W.s 			page 43


 1438 0004 00AF     		add	r7, sp, #0
 1439              	.LCFI79:
 1440              		.cfi_def_cfa_register 7
 1441 0006 7860     		str	r0, [r7, #4]
 933:Middlewares/ST/STM32_USB_Device_Library/Class/CDC/Src/usbd_cdc.c ****   USBD_CDC_HandleTypeDef *hcdc = (USBD_CDC_HandleTypeDef *)pdev->pClassData;
 1442              		.loc 1 933 27
 1443 0008 7B68     		ldr	r3, [r7, #4]
 1444 000a D3F8BC32 		ldr	r3, [r3, #700]
 1445 000e FB60     		str	r3, [r7, #12]
 934:Middlewares/ST/STM32_USB_Device_Library/Class/CDC/Src/usbd_cdc.c **** 
 935:Middlewares/ST/STM32_USB_Device_Library/Class/CDC/Src/usbd_cdc.c ****   if (pdev->pClassData == NULL)
 1446              		.loc 1 935 11
 1447 0010 7B68     		ldr	r3, [r7, #4]
 1448 0012 D3F8BC32 		ldr	r3, [r3, #700]
 1449              		.loc 1 935 6
 1450 0016 002B     		cmp	r3, #0
 1451 0018 01D1     		bne	.L77
 936:Middlewares/ST/STM32_USB_Device_Library/Class/CDC/Src/usbd_cdc.c ****   {
 937:Middlewares/ST/STM32_USB_Device_Library/Class/CDC/Src/usbd_cdc.c ****     return (uint8_t)USBD_FAIL;
 1452              		.loc 1 937 12
 1453 001a 0323     		movs	r3, #3
 1454 001c 16E0     		b	.L78
 1455              	.L77:
 938:Middlewares/ST/STM32_USB_Device_Library/Class/CDC/Src/usbd_cdc.c ****   }
 939:Middlewares/ST/STM32_USB_Device_Library/Class/CDC/Src/usbd_cdc.c **** 
 940:Middlewares/ST/STM32_USB_Device_Library/Class/CDC/Src/usbd_cdc.c ****   if (pdev->dev_speed == USBD_SPEED_HIGH)
 1456              		.loc 1 940 11
 1457 001e 7B68     		ldr	r3, [r7, #4]
 1458 0020 1B7C     		ldrb	r3, [r3, #16]	@ zero_extendqisi2
 1459              		.loc 1 940 6
 1460 0022 002B     		cmp	r3, #0
 1461 0024 09D1     		bne	.L79
 941:Middlewares/ST/STM32_USB_Device_Library/Class/CDC/Src/usbd_cdc.c ****   {
 942:Middlewares/ST/STM32_USB_Device_Library/Class/CDC/Src/usbd_cdc.c ****     /* Prepare Out endpoint to receive next packet */
 943:Middlewares/ST/STM32_USB_Device_Library/Class/CDC/Src/usbd_cdc.c ****     (void)USBD_LL_PrepareReceive(pdev, CDC_OUT_EP, hcdc->RxBuffer,
 1462              		.loc 1 943 11
 1463 0026 FB68     		ldr	r3, [r7, #12]
 1464 0028 D3F80422 		ldr	r2, [r3, #516]
 1465 002c 4FF40073 		mov	r3, #512
 1466 0030 0121     		movs	r1, #1
 1467 0032 7868     		ldr	r0, [r7, #4]
 1468 0034 FFF7FEFF 		bl	USBD_LL_PrepareReceive
 1469 0038 07E0     		b	.L80
 1470              	.L79:
 944:Middlewares/ST/STM32_USB_Device_Library/Class/CDC/Src/usbd_cdc.c ****                                  CDC_DATA_HS_OUT_PACKET_SIZE);
 945:Middlewares/ST/STM32_USB_Device_Library/Class/CDC/Src/usbd_cdc.c ****   }
 946:Middlewares/ST/STM32_USB_Device_Library/Class/CDC/Src/usbd_cdc.c ****   else
 947:Middlewares/ST/STM32_USB_Device_Library/Class/CDC/Src/usbd_cdc.c ****   {
 948:Middlewares/ST/STM32_USB_Device_Library/Class/CDC/Src/usbd_cdc.c ****     /* Prepare Out endpoint to receive next packet */
 949:Middlewares/ST/STM32_USB_Device_Library/Class/CDC/Src/usbd_cdc.c ****     (void)USBD_LL_PrepareReceive(pdev, CDC_OUT_EP, hcdc->RxBuffer,
 1471              		.loc 1 949 11
 1472 003a FB68     		ldr	r3, [r7, #12]
 1473 003c D3F80422 		ldr	r2, [r3, #516]
 1474 0040 4023     		movs	r3, #64
 1475 0042 0121     		movs	r1, #1
 1476 0044 7868     		ldr	r0, [r7, #4]
 1477 0046 FFF7FEFF 		bl	USBD_LL_PrepareReceive
ARM GAS  /var/folders/vq/qt4vp3kd5rxf7v2b6_fdtdt80000gn/T//cccgRN2W.s 			page 44


 1478              	.L80:
 950:Middlewares/ST/STM32_USB_Device_Library/Class/CDC/Src/usbd_cdc.c ****                                  CDC_DATA_FS_OUT_PACKET_SIZE);
 951:Middlewares/ST/STM32_USB_Device_Library/Class/CDC/Src/usbd_cdc.c ****   }
 952:Middlewares/ST/STM32_USB_Device_Library/Class/CDC/Src/usbd_cdc.c **** 
 953:Middlewares/ST/STM32_USB_Device_Library/Class/CDC/Src/usbd_cdc.c ****   return (uint8_t)USBD_OK;
 1479              		.loc 1 953 10
 1480 004a 0023     		movs	r3, #0
 1481              	.L78:
 954:Middlewares/ST/STM32_USB_Device_Library/Class/CDC/Src/usbd_cdc.c **** }
 1482              		.loc 1 954 1
 1483 004c 1846     		mov	r0, r3
 1484 004e 1037     		adds	r7, r7, #16
 1485              	.LCFI80:
 1486              		.cfi_def_cfa_offset 8
 1487 0050 BD46     		mov	sp, r7
 1488              	.LCFI81:
 1489              		.cfi_def_cfa_register 13
 1490              		@ sp needed
 1491 0052 80BD     		pop	{r7, pc}
 1492              		.cfi_endproc
 1493              	.LFE148:
 1495              		.text
 1496              	.Letext0:
 1497              		.file 2 "/usr/local/Cellar/arm-none-eabi-gcc/9-2019-q4-major/gcc/arm-none-eabi/include/machine/_de
 1498              		.file 3 "/usr/local/Cellar/arm-none-eabi-gcc/9-2019-q4-major/gcc/arm-none-eabi/include/sys/lock.h"
 1499              		.file 4 "/usr/local/Cellar/arm-none-eabi-gcc/9-2019-q4-major/gcc/arm-none-eabi/include/sys/_types.
 1500              		.file 5 "/usr/local/Cellar/arm-none-eabi-gcc/9-2019-q4-major/gcc/lib/gcc/arm-none-eabi/9.2.1/inclu
 1501              		.file 6 "/usr/local/Cellar/arm-none-eabi-gcc/9-2019-q4-major/gcc/arm-none-eabi/include/sys/reent.h
 1502              		.file 7 "/usr/local/Cellar/arm-none-eabi-gcc/9-2019-q4-major/gcc/arm-none-eabi/include/sys/_stdint
 1503              		.file 8 "/usr/local/Cellar/arm-none-eabi-gcc/9-2019-q4-major/gcc/arm-none-eabi/include/stdlib.h"
 1504              		.file 9 "Drivers/CMSIS/Include/core_cm4.h"
 1505              		.file 10 "Drivers/CMSIS/Device/ST/STM32F4xx/Include/system_stm32f4xx.h"
 1506              		.file 11 "Drivers/CMSIS/Device/ST/STM32F4xx/Include/stm32f407xx.h"
 1507              		.file 12 "Drivers/STM32F4xx_HAL_Driver/Inc/stm32f4xx_hal_def.h"
 1508              		.file 13 "Drivers/STM32F4xx_HAL_Driver/Inc/stm32f4xx_ll_usb.h"
 1509              		.file 14 "Drivers/STM32F4xx_HAL_Driver/Inc/stm32f4xx_hal_pcd.h"
 1510              		.file 15 "Drivers/STM32F4xx_HAL_Driver/Inc/stm32f4xx_hal.h"
 1511              		.file 16 "Middlewares/ST/STM32_USB_Device_Library/Core/Inc/usbd_def.h"
 1512              		.file 17 "Middlewares/ST/STM32_USB_Device_Library/Class/CDC/Inc/usbd_cdc.h"
ARM GAS  /var/folders/vq/qt4vp3kd5rxf7v2b6_fdtdt80000gn/T//cccgRN2W.s 			page 45

