ARM GAS  /var/folders/vq/qt4vp3kd5rxf7v2b6_fdtdt80000gn/T//ccYuNl5P.s 			page 1


   1              		.cpu cortex-m4
   2              		.eabi_attribute 27, 1
   3              		.eabi_attribute 28, 1
   4              		.eabi_attribute 20, 1
   5              		.eabi_attribute 21, 1
   6              		.eabi_attribute 23, 3
   7              		.eabi_attribute 24, 1
   8              		.eabi_attribute 25, 1
   9              		.eabi_attribute 26, 1
  10              		.eabi_attribute 30, 6
  11              		.eabi_attribute 34, 1
  12              		.eabi_attribute 18, 4
  13              		.file	"usbd_cdc_if.c"
  14              		.text
  15              	.Ltext0:
  16              		.cfi_sections	.debug_frame
  17              		.comm	UserRxBufferFS,2048,4
  18              		.comm	UserTxBufferFS,2048,4
  19              		.global	USBD_Interface_fops_FS
  20              		.section	.data.USBD_Interface_fops_FS,"aw"
  21              		.align	2
  24              	USBD_Interface_fops_FS:
  25 0000 00000000 		.word	CDC_Init_FS
  26 0004 00000000 		.word	CDC_DeInit_FS
  27 0008 00000000 		.word	CDC_Control_FS
  28 000c 00000000 		.word	CDC_Receive_FS
  29 0010 00000000 		.word	CDC_TransmitCplt_FS
  30              		.section	.text.CDC_Init_FS,"ax",%progbits
  31              		.align	1
  32              		.arch armv7e-m
  33              		.syntax unified
  34              		.thumb
  35              		.thumb_func
  36              		.fpu fpv4-sp-d16
  38              	CDC_Init_FS:
  39              	.LFB134:
  40              		.file 1 "USB_DEVICE/App/usbd_cdc_if.c"
   1:USB_DEVICE/App/usbd_cdc_if.c **** /* USER CODE BEGIN Header */
   2:USB_DEVICE/App/usbd_cdc_if.c **** /**
   3:USB_DEVICE/App/usbd_cdc_if.c ****   ******************************************************************************
   4:USB_DEVICE/App/usbd_cdc_if.c ****   * @file           : usbd_cdc_if.c
   5:USB_DEVICE/App/usbd_cdc_if.c ****   * @version        : v1.0_Cube
   6:USB_DEVICE/App/usbd_cdc_if.c ****   * @brief          : Usb device for Virtual Com Port.
   7:USB_DEVICE/App/usbd_cdc_if.c ****   ******************************************************************************
   8:USB_DEVICE/App/usbd_cdc_if.c ****   * @attention
   9:USB_DEVICE/App/usbd_cdc_if.c ****   *
  10:USB_DEVICE/App/usbd_cdc_if.c ****   * <h2><center>&copy; Copyright (c) 2021 STMicroelectronics.
  11:USB_DEVICE/App/usbd_cdc_if.c ****   * All rights reserved.</center></h2>
  12:USB_DEVICE/App/usbd_cdc_if.c ****   *
  13:USB_DEVICE/App/usbd_cdc_if.c ****   * This software component is licensed by ST under Ultimate Liberty license
  14:USB_DEVICE/App/usbd_cdc_if.c ****   * SLA0044, the "License"; You may not use this file except in compliance with
  15:USB_DEVICE/App/usbd_cdc_if.c ****   * the License. You may obtain a copy of the License at:
  16:USB_DEVICE/App/usbd_cdc_if.c ****   *                             www.st.com/SLA0044
  17:USB_DEVICE/App/usbd_cdc_if.c ****   *
  18:USB_DEVICE/App/usbd_cdc_if.c ****   ******************************************************************************
  19:USB_DEVICE/App/usbd_cdc_if.c ****   */
  20:USB_DEVICE/App/usbd_cdc_if.c **** /* USER CODE END Header */
ARM GAS  /var/folders/vq/qt4vp3kd5rxf7v2b6_fdtdt80000gn/T//ccYuNl5P.s 			page 2


  21:USB_DEVICE/App/usbd_cdc_if.c **** 
  22:USB_DEVICE/App/usbd_cdc_if.c **** /* Includes ------------------------------------------------------------------*/
  23:USB_DEVICE/App/usbd_cdc_if.c **** #include "usbd_cdc_if.h"
  24:USB_DEVICE/App/usbd_cdc_if.c **** #include <string.h>
  25:USB_DEVICE/App/usbd_cdc_if.c **** 
  26:USB_DEVICE/App/usbd_cdc_if.c **** /* USER CODE BEGIN INCLUDE */
  27:USB_DEVICE/App/usbd_cdc_if.c **** 
  28:USB_DEVICE/App/usbd_cdc_if.c **** /* USER CODE END INCLUDE */
  29:USB_DEVICE/App/usbd_cdc_if.c **** 
  30:USB_DEVICE/App/usbd_cdc_if.c **** /* Private typedef -----------------------------------------------------------*/
  31:USB_DEVICE/App/usbd_cdc_if.c **** /* Private define ------------------------------------------------------------*/
  32:USB_DEVICE/App/usbd_cdc_if.c **** /* Private macro -------------------------------------------------------------*/
  33:USB_DEVICE/App/usbd_cdc_if.c **** 
  34:USB_DEVICE/App/usbd_cdc_if.c **** /* USER CODE BEGIN PV */
  35:USB_DEVICE/App/usbd_cdc_if.c **** /* Private variables ---------------------------------------------------------*/
  36:USB_DEVICE/App/usbd_cdc_if.c **** //uint8_t buffer[7];
  37:USB_DEVICE/App/usbd_cdc_if.c **** /* USER CODE END PV */
  38:USB_DEVICE/App/usbd_cdc_if.c **** 
  39:USB_DEVICE/App/usbd_cdc_if.c **** /** @addtogroup STM32_USB_OTG_DEVICE_LIBRARY
  40:USB_DEVICE/App/usbd_cdc_if.c ****   * @brief Usb device library.
  41:USB_DEVICE/App/usbd_cdc_if.c ****   * @{
  42:USB_DEVICE/App/usbd_cdc_if.c ****   */
  43:USB_DEVICE/App/usbd_cdc_if.c **** 
  44:USB_DEVICE/App/usbd_cdc_if.c **** /** @addtogroup USBD_CDC_IF
  45:USB_DEVICE/App/usbd_cdc_if.c ****   * @{
  46:USB_DEVICE/App/usbd_cdc_if.c ****   */
  47:USB_DEVICE/App/usbd_cdc_if.c **** 
  48:USB_DEVICE/App/usbd_cdc_if.c **** /** @defgroup USBD_CDC_IF_Private_TypesDefinitions USBD_CDC_IF_Private_TypesDefinitions
  49:USB_DEVICE/App/usbd_cdc_if.c ****   * @brief Private types.
  50:USB_DEVICE/App/usbd_cdc_if.c ****   * @{
  51:USB_DEVICE/App/usbd_cdc_if.c ****   */
  52:USB_DEVICE/App/usbd_cdc_if.c **** 
  53:USB_DEVICE/App/usbd_cdc_if.c **** /* USER CODE BEGIN PRIVATE_TYPES */
  54:USB_DEVICE/App/usbd_cdc_if.c **** 
  55:USB_DEVICE/App/usbd_cdc_if.c **** /* USER CODE END PRIVATE_TYPES */
  56:USB_DEVICE/App/usbd_cdc_if.c **** 
  57:USB_DEVICE/App/usbd_cdc_if.c **** /**
  58:USB_DEVICE/App/usbd_cdc_if.c ****   * @}
  59:USB_DEVICE/App/usbd_cdc_if.c ****   */
  60:USB_DEVICE/App/usbd_cdc_if.c **** 
  61:USB_DEVICE/App/usbd_cdc_if.c **** /** @defgroup USBD_CDC_IF_Private_Defines USBD_CDC_IF_Private_Defines
  62:USB_DEVICE/App/usbd_cdc_if.c ****   * @brief Private defines.
  63:USB_DEVICE/App/usbd_cdc_if.c ****   * @{
  64:USB_DEVICE/App/usbd_cdc_if.c ****   */
  65:USB_DEVICE/App/usbd_cdc_if.c **** 
  66:USB_DEVICE/App/usbd_cdc_if.c **** /* USER CODE BEGIN PRIVATE_DEFINES */
  67:USB_DEVICE/App/usbd_cdc_if.c **** /* USER CODE END PRIVATE_DEFINES */
  68:USB_DEVICE/App/usbd_cdc_if.c **** 
  69:USB_DEVICE/App/usbd_cdc_if.c **** /**
  70:USB_DEVICE/App/usbd_cdc_if.c ****   * @}
  71:USB_DEVICE/App/usbd_cdc_if.c ****   */
  72:USB_DEVICE/App/usbd_cdc_if.c **** 
  73:USB_DEVICE/App/usbd_cdc_if.c **** /** @defgroup USBD_CDC_IF_Private_Macros USBD_CDC_IF_Private_Macros
  74:USB_DEVICE/App/usbd_cdc_if.c ****   * @brief Private macros.
  75:USB_DEVICE/App/usbd_cdc_if.c ****   * @{
  76:USB_DEVICE/App/usbd_cdc_if.c ****   */
  77:USB_DEVICE/App/usbd_cdc_if.c **** 
ARM GAS  /var/folders/vq/qt4vp3kd5rxf7v2b6_fdtdt80000gn/T//ccYuNl5P.s 			page 3


  78:USB_DEVICE/App/usbd_cdc_if.c **** /* USER CODE BEGIN PRIVATE_MACRO */
  79:USB_DEVICE/App/usbd_cdc_if.c **** 
  80:USB_DEVICE/App/usbd_cdc_if.c **** /* USER CODE END PRIVATE_MACRO */
  81:USB_DEVICE/App/usbd_cdc_if.c **** 
  82:USB_DEVICE/App/usbd_cdc_if.c **** /**
  83:USB_DEVICE/App/usbd_cdc_if.c ****   * @}
  84:USB_DEVICE/App/usbd_cdc_if.c ****   */
  85:USB_DEVICE/App/usbd_cdc_if.c **** 
  86:USB_DEVICE/App/usbd_cdc_if.c **** /** @defgroup USBD_CDC_IF_Private_Variables USBD_CDC_IF_Private_Variables
  87:USB_DEVICE/App/usbd_cdc_if.c ****   * @brief Private variables.
  88:USB_DEVICE/App/usbd_cdc_if.c ****   * @{
  89:USB_DEVICE/App/usbd_cdc_if.c ****   */
  90:USB_DEVICE/App/usbd_cdc_if.c **** /* Create buffer for reception and transmission           */
  91:USB_DEVICE/App/usbd_cdc_if.c **** /* It's up to user to redefine and/or remove those define */
  92:USB_DEVICE/App/usbd_cdc_if.c **** /** Received data over USB are stored in this buffer      */
  93:USB_DEVICE/App/usbd_cdc_if.c **** uint8_t UserRxBufferFS[APP_RX_DATA_SIZE];
  94:USB_DEVICE/App/usbd_cdc_if.c **** 
  95:USB_DEVICE/App/usbd_cdc_if.c **** /** Data to send over USB CDC are stored in this buffer   */
  96:USB_DEVICE/App/usbd_cdc_if.c **** uint8_t UserTxBufferFS[APP_TX_DATA_SIZE];
  97:USB_DEVICE/App/usbd_cdc_if.c **** 
  98:USB_DEVICE/App/usbd_cdc_if.c **** /* USER CODE BEGIN PRIVATE_VARIABLES */
  99:USB_DEVICE/App/usbd_cdc_if.c **** 
 100:USB_DEVICE/App/usbd_cdc_if.c **** /* USER CODE END PRIVATE_VARIABLES */
 101:USB_DEVICE/App/usbd_cdc_if.c **** 
 102:USB_DEVICE/App/usbd_cdc_if.c **** /**
 103:USB_DEVICE/App/usbd_cdc_if.c ****   * @}
 104:USB_DEVICE/App/usbd_cdc_if.c ****   */
 105:USB_DEVICE/App/usbd_cdc_if.c **** 
 106:USB_DEVICE/App/usbd_cdc_if.c **** /** @defgroup USBD_CDC_IF_Exported_Variables USBD_CDC_IF_Exported_Variables
 107:USB_DEVICE/App/usbd_cdc_if.c ****   * @brief Public variables.
 108:USB_DEVICE/App/usbd_cdc_if.c ****   * @{
 109:USB_DEVICE/App/usbd_cdc_if.c ****   */
 110:USB_DEVICE/App/usbd_cdc_if.c **** 
 111:USB_DEVICE/App/usbd_cdc_if.c **** extern USBD_HandleTypeDef hUsbDeviceFS;
 112:USB_DEVICE/App/usbd_cdc_if.c **** 
 113:USB_DEVICE/App/usbd_cdc_if.c **** /* USER CODE BEGIN EXPORTED_VARIABLES */
 114:USB_DEVICE/App/usbd_cdc_if.c **** 
 115:USB_DEVICE/App/usbd_cdc_if.c **** /* USER CODE END EXPORTED_VARIABLES */
 116:USB_DEVICE/App/usbd_cdc_if.c **** 
 117:USB_DEVICE/App/usbd_cdc_if.c **** /**
 118:USB_DEVICE/App/usbd_cdc_if.c ****   * @}
 119:USB_DEVICE/App/usbd_cdc_if.c ****   */
 120:USB_DEVICE/App/usbd_cdc_if.c **** 
 121:USB_DEVICE/App/usbd_cdc_if.c **** /** @defgroup USBD_CDC_IF_Private_FunctionPrototypes USBD_CDC_IF_Private_FunctionPrototypes
 122:USB_DEVICE/App/usbd_cdc_if.c ****   * @brief Private functions declaration.
 123:USB_DEVICE/App/usbd_cdc_if.c ****   * @{
 124:USB_DEVICE/App/usbd_cdc_if.c ****   */
 125:USB_DEVICE/App/usbd_cdc_if.c **** 
 126:USB_DEVICE/App/usbd_cdc_if.c **** static int8_t CDC_Init_FS(void);
 127:USB_DEVICE/App/usbd_cdc_if.c **** static int8_t CDC_DeInit_FS(void);
 128:USB_DEVICE/App/usbd_cdc_if.c **** static int8_t CDC_Control_FS(uint8_t cmd, uint8_t* pbuf, uint16_t length);
 129:USB_DEVICE/App/usbd_cdc_if.c **** static int8_t CDC_Receive_FS(uint8_t* pbuf, uint32_t *Len);
 130:USB_DEVICE/App/usbd_cdc_if.c **** static int8_t CDC_TransmitCplt_FS(uint8_t *pbuf, uint32_t *Len, uint8_t epnum);
 131:USB_DEVICE/App/usbd_cdc_if.c **** 
 132:USB_DEVICE/App/usbd_cdc_if.c **** /* USER CODE BEGIN PRIVATE_FUNCTIONS_DECLARATION */
 133:USB_DEVICE/App/usbd_cdc_if.c **** 
 134:USB_DEVICE/App/usbd_cdc_if.c **** /* USER CODE END PRIVATE_FUNCTIONS_DECLARATION */
ARM GAS  /var/folders/vq/qt4vp3kd5rxf7v2b6_fdtdt80000gn/T//ccYuNl5P.s 			page 4


 135:USB_DEVICE/App/usbd_cdc_if.c **** 
 136:USB_DEVICE/App/usbd_cdc_if.c **** /**
 137:USB_DEVICE/App/usbd_cdc_if.c ****   * @}
 138:USB_DEVICE/App/usbd_cdc_if.c ****   */
 139:USB_DEVICE/App/usbd_cdc_if.c **** 
 140:USB_DEVICE/App/usbd_cdc_if.c **** USBD_CDC_ItfTypeDef USBD_Interface_fops_FS =
 141:USB_DEVICE/App/usbd_cdc_if.c **** {
 142:USB_DEVICE/App/usbd_cdc_if.c ****   CDC_Init_FS,
 143:USB_DEVICE/App/usbd_cdc_if.c ****   CDC_DeInit_FS,
 144:USB_DEVICE/App/usbd_cdc_if.c ****   CDC_Control_FS,
 145:USB_DEVICE/App/usbd_cdc_if.c ****   CDC_Receive_FS,
 146:USB_DEVICE/App/usbd_cdc_if.c ****   CDC_TransmitCplt_FS
 147:USB_DEVICE/App/usbd_cdc_if.c **** };
 148:USB_DEVICE/App/usbd_cdc_if.c **** 
 149:USB_DEVICE/App/usbd_cdc_if.c **** /* Private functions ---------------------------------------------------------*/
 150:USB_DEVICE/App/usbd_cdc_if.c **** /**
 151:USB_DEVICE/App/usbd_cdc_if.c ****   * @brief  Initializes the CDC media low layer over the FS USB IP
 152:USB_DEVICE/App/usbd_cdc_if.c ****   * @retval USBD_OK if all operations are OK else USBD_FAIL
 153:USB_DEVICE/App/usbd_cdc_if.c ****   */
 154:USB_DEVICE/App/usbd_cdc_if.c **** static int8_t CDC_Init_FS(void)
 155:USB_DEVICE/App/usbd_cdc_if.c **** {
  41              		.loc 1 155 1
  42              		.cfi_startproc
  43              		@ args = 0, pretend = 0, frame = 0
  44              		@ frame_needed = 1, uses_anonymous_args = 0
  45 0000 80B5     		push	{r7, lr}
  46              	.LCFI0:
  47              		.cfi_def_cfa_offset 8
  48              		.cfi_offset 7, -8
  49              		.cfi_offset 14, -4
  50 0002 00AF     		add	r7, sp, #0
  51              	.LCFI1:
  52              		.cfi_def_cfa_register 7
 156:USB_DEVICE/App/usbd_cdc_if.c ****   /* USER CODE BEGIN 3 */
 157:USB_DEVICE/App/usbd_cdc_if.c ****   /* Set Application Buffers */
 158:USB_DEVICE/App/usbd_cdc_if.c ****   USBD_CDC_SetTxBuffer(&hUsbDeviceFS, UserTxBufferFS, 0);
  53              		.loc 1 158 3
  54 0004 0022     		movs	r2, #0
  55 0006 0549     		ldr	r1, .L3
  56 0008 0548     		ldr	r0, .L3+4
  57 000a FFF7FEFF 		bl	USBD_CDC_SetTxBuffer
 159:USB_DEVICE/App/usbd_cdc_if.c ****   USBD_CDC_SetRxBuffer(&hUsbDeviceFS, UserRxBufferFS);
  58              		.loc 1 159 3
  59 000e 0549     		ldr	r1, .L3+8
  60 0010 0348     		ldr	r0, .L3+4
  61 0012 FFF7FEFF 		bl	USBD_CDC_SetRxBuffer
 160:USB_DEVICE/App/usbd_cdc_if.c ****   return (USBD_OK);
  62              		.loc 1 160 10
  63 0016 0023     		movs	r3, #0
 161:USB_DEVICE/App/usbd_cdc_if.c ****   /* USER CODE END 3 */
 162:USB_DEVICE/App/usbd_cdc_if.c **** }
  64              		.loc 1 162 1
  65 0018 1846     		mov	r0, r3
  66 001a 80BD     		pop	{r7, pc}
  67              	.L4:
  68              		.align	2
  69              	.L3:
ARM GAS  /var/folders/vq/qt4vp3kd5rxf7v2b6_fdtdt80000gn/T//ccYuNl5P.s 			page 5


  70 001c 00000000 		.word	UserTxBufferFS
  71 0020 00000000 		.word	hUsbDeviceFS
  72 0024 00000000 		.word	UserRxBufferFS
  73              		.cfi_endproc
  74              	.LFE134:
  76              		.section	.text.CDC_DeInit_FS,"ax",%progbits
  77              		.align	1
  78              		.syntax unified
  79              		.thumb
  80              		.thumb_func
  81              		.fpu fpv4-sp-d16
  83              	CDC_DeInit_FS:
  84              	.LFB135:
 163:USB_DEVICE/App/usbd_cdc_if.c **** 
 164:USB_DEVICE/App/usbd_cdc_if.c **** /**
 165:USB_DEVICE/App/usbd_cdc_if.c ****   * @brief  DeInitializes the CDC media low layer
 166:USB_DEVICE/App/usbd_cdc_if.c ****   * @retval USBD_OK if all operations are OK else USBD_FAIL
 167:USB_DEVICE/App/usbd_cdc_if.c ****   */
 168:USB_DEVICE/App/usbd_cdc_if.c **** static int8_t CDC_DeInit_FS(void)
 169:USB_DEVICE/App/usbd_cdc_if.c **** {
  85              		.loc 1 169 1
  86              		.cfi_startproc
  87              		@ args = 0, pretend = 0, frame = 0
  88              		@ frame_needed = 1, uses_anonymous_args = 0
  89              		@ link register save eliminated.
  90 0000 80B4     		push	{r7}
  91              	.LCFI2:
  92              		.cfi_def_cfa_offset 4
  93              		.cfi_offset 7, -4
  94 0002 00AF     		add	r7, sp, #0
  95              	.LCFI3:
  96              		.cfi_def_cfa_register 7
 170:USB_DEVICE/App/usbd_cdc_if.c ****   /* USER CODE BEGIN 4 */
 171:USB_DEVICE/App/usbd_cdc_if.c ****   return (USBD_OK);
  97              		.loc 1 171 10
  98 0004 0023     		movs	r3, #0
 172:USB_DEVICE/App/usbd_cdc_if.c ****   /* USER CODE END 4 */
 173:USB_DEVICE/App/usbd_cdc_if.c **** }
  99              		.loc 1 173 1
 100 0006 1846     		mov	r0, r3
 101 0008 BD46     		mov	sp, r7
 102              	.LCFI4:
 103              		.cfi_def_cfa_register 13
 104              		@ sp needed
 105 000a 5DF8047B 		ldr	r7, [sp], #4
 106              	.LCFI5:
 107              		.cfi_restore 7
 108              		.cfi_def_cfa_offset 0
 109 000e 7047     		bx	lr
 110              		.cfi_endproc
 111              	.LFE135:
 113              		.section	.text.CDC_Control_FS,"ax",%progbits
 114              		.align	1
 115              		.syntax unified
 116              		.thumb
 117              		.thumb_func
 118              		.fpu fpv4-sp-d16
ARM GAS  /var/folders/vq/qt4vp3kd5rxf7v2b6_fdtdt80000gn/T//ccYuNl5P.s 			page 6


 120              	CDC_Control_FS:
 121              	.LFB136:
 174:USB_DEVICE/App/usbd_cdc_if.c **** 
 175:USB_DEVICE/App/usbd_cdc_if.c **** /**
 176:USB_DEVICE/App/usbd_cdc_if.c ****   * @brief  Manage the CDC class requests
 177:USB_DEVICE/App/usbd_cdc_if.c ****   * @param  cmd: Command code
 178:USB_DEVICE/App/usbd_cdc_if.c ****   * @param  pbuf: Buffer containing command data (request parameters)
 179:USB_DEVICE/App/usbd_cdc_if.c ****   * @param  length: Number of data to be sent (in bytes)
 180:USB_DEVICE/App/usbd_cdc_if.c ****   * @retval Result of the operation: USBD_OK if all operations are OK else USBD_FAIL
 181:USB_DEVICE/App/usbd_cdc_if.c ****   */
 182:USB_DEVICE/App/usbd_cdc_if.c **** static int8_t CDC_Control_FS(uint8_t cmd, uint8_t* pbuf, uint16_t length)
 183:USB_DEVICE/App/usbd_cdc_if.c **** {
 122              		.loc 1 183 1
 123              		.cfi_startproc
 124              		@ args = 0, pretend = 0, frame = 8
 125              		@ frame_needed = 1, uses_anonymous_args = 0
 126              		@ link register save eliminated.
 127 0000 80B4     		push	{r7}
 128              	.LCFI6:
 129              		.cfi_def_cfa_offset 4
 130              		.cfi_offset 7, -4
 131 0002 83B0     		sub	sp, sp, #12
 132              	.LCFI7:
 133              		.cfi_def_cfa_offset 16
 134 0004 00AF     		add	r7, sp, #0
 135              	.LCFI8:
 136              		.cfi_def_cfa_register 7
 137 0006 0346     		mov	r3, r0
 138 0008 3960     		str	r1, [r7]
 139 000a FB71     		strb	r3, [r7, #7]
 140 000c 1346     		mov	r3, r2	@ movhi
 141 000e BB80     		strh	r3, [r7, #4]	@ movhi
 184:USB_DEVICE/App/usbd_cdc_if.c ****   /* USER CODE BEGIN 5 */
 185:USB_DEVICE/App/usbd_cdc_if.c ****   switch(cmd)
 142              		.loc 1 185 3
 143 0010 FB79     		ldrb	r3, [r7, #7]	@ zero_extendqisi2
 144 0012 232B     		cmp	r3, #35
 145 0014 4AD8     		bhi	.L21
 146 0016 01A2     		adr	r2, .L10
 147 0018 52F823F0 		ldr	pc, [r2, r3, lsl #2]
 148              		.p2align 2
 149              	.L10:
 150 001c AD000000 		.word	.L21+1
 151 0020 AD000000 		.word	.L21+1
 152 0024 AD000000 		.word	.L21+1
 153 0028 AD000000 		.word	.L21+1
 154 002c AD000000 		.word	.L21+1
 155 0030 AD000000 		.word	.L21+1
 156 0034 AD000000 		.word	.L21+1
 157 0038 AD000000 		.word	.L21+1
 158 003c AD000000 		.word	.L21+1
 159 0040 AD000000 		.word	.L21+1
 160 0044 AD000000 		.word	.L21+1
 161 0048 AD000000 		.word	.L21+1
 162 004c AD000000 		.word	.L21+1
 163 0050 AD000000 		.word	.L21+1
 164 0054 AD000000 		.word	.L21+1
ARM GAS  /var/folders/vq/qt4vp3kd5rxf7v2b6_fdtdt80000gn/T//ccYuNl5P.s 			page 7


 165 0058 AD000000 		.word	.L21+1
 166 005c AD000000 		.word	.L21+1
 167 0060 AD000000 		.word	.L21+1
 168 0064 AD000000 		.word	.L21+1
 169 0068 AD000000 		.word	.L21+1
 170 006c AD000000 		.word	.L21+1
 171 0070 AD000000 		.word	.L21+1
 172 0074 AD000000 		.word	.L21+1
 173 0078 AD000000 		.word	.L21+1
 174 007c AD000000 		.word	.L21+1
 175 0080 AD000000 		.word	.L21+1
 176 0084 AD000000 		.word	.L21+1
 177 0088 AD000000 		.word	.L21+1
 178 008c AD000000 		.word	.L21+1
 179 0090 AD000000 		.word	.L21+1
 180 0094 AD000000 		.word	.L21+1
 181 0098 AD000000 		.word	.L21+1
 182 009c AD000000 		.word	.L21+1
 183 00a0 AD000000 		.word	.L21+1
 184 00a4 AD000000 		.word	.L21+1
 185 00a8 AD000000 		.word	.L21+1
 186              		.p2align 1
 187              	.L21:
 186:USB_DEVICE/App/usbd_cdc_if.c ****   {
 187:USB_DEVICE/App/usbd_cdc_if.c ****     case CDC_SEND_ENCAPSULATED_COMMAND:
 188:USB_DEVICE/App/usbd_cdc_if.c **** 
 189:USB_DEVICE/App/usbd_cdc_if.c ****     break;
 190:USB_DEVICE/App/usbd_cdc_if.c **** 
 191:USB_DEVICE/App/usbd_cdc_if.c ****     case CDC_GET_ENCAPSULATED_RESPONSE:
 192:USB_DEVICE/App/usbd_cdc_if.c **** 
 193:USB_DEVICE/App/usbd_cdc_if.c ****     break;
 194:USB_DEVICE/App/usbd_cdc_if.c **** 
 195:USB_DEVICE/App/usbd_cdc_if.c ****     case CDC_SET_COMM_FEATURE:
 196:USB_DEVICE/App/usbd_cdc_if.c **** 
 197:USB_DEVICE/App/usbd_cdc_if.c ****     break;
 198:USB_DEVICE/App/usbd_cdc_if.c **** 
 199:USB_DEVICE/App/usbd_cdc_if.c ****     case CDC_GET_COMM_FEATURE:
 200:USB_DEVICE/App/usbd_cdc_if.c **** 
 201:USB_DEVICE/App/usbd_cdc_if.c ****     break;
 202:USB_DEVICE/App/usbd_cdc_if.c **** 
 203:USB_DEVICE/App/usbd_cdc_if.c ****     case CDC_CLEAR_COMM_FEATURE:
 204:USB_DEVICE/App/usbd_cdc_if.c **** 
 205:USB_DEVICE/App/usbd_cdc_if.c ****     break;
 206:USB_DEVICE/App/usbd_cdc_if.c **** 
 207:USB_DEVICE/App/usbd_cdc_if.c ****   /*******************************************************************************/
 208:USB_DEVICE/App/usbd_cdc_if.c ****   /* Line Coding Structure                                                       */
 209:USB_DEVICE/App/usbd_cdc_if.c ****   /*-----------------------------------------------------------------------------*/
 210:USB_DEVICE/App/usbd_cdc_if.c ****   /* Offset | Field       | Size | Value  | Description                          */
 211:USB_DEVICE/App/usbd_cdc_if.c ****   /* 0      | dwDTERate   |   4  | Number |Data terminal rate, in bits per second*/
 212:USB_DEVICE/App/usbd_cdc_if.c ****   /* 4      | bCharFormat |   1  | Number | Stop bits                            */
 213:USB_DEVICE/App/usbd_cdc_if.c ****   /*                                        0 - 1 Stop bit                       */
 214:USB_DEVICE/App/usbd_cdc_if.c ****   /*                                        1 - 1.5 Stop bits                    */
 215:USB_DEVICE/App/usbd_cdc_if.c ****   /*                                        2 - 2 Stop bits                      */
 216:USB_DEVICE/App/usbd_cdc_if.c ****   /* 5      | bParityType |  1   | Number | Parity                               */
 217:USB_DEVICE/App/usbd_cdc_if.c ****   /*                                        0 - None                             */
 218:USB_DEVICE/App/usbd_cdc_if.c ****   /*                                        1 - Odd                              */
 219:USB_DEVICE/App/usbd_cdc_if.c ****   /*                                        2 - Even                             */
ARM GAS  /var/folders/vq/qt4vp3kd5rxf7v2b6_fdtdt80000gn/T//ccYuNl5P.s 			page 8


 220:USB_DEVICE/App/usbd_cdc_if.c ****   /*                                        3 - Mark                             */
 221:USB_DEVICE/App/usbd_cdc_if.c ****   /*                                        4 - Space                            */
 222:USB_DEVICE/App/usbd_cdc_if.c ****   /* 6      | bDataBits  |   1   | Number Data bits (5, 6, 7, 8 or 16).          */
 223:USB_DEVICE/App/usbd_cdc_if.c ****   /*******************************************************************************/
 224:USB_DEVICE/App/usbd_cdc_if.c ****     case CDC_SET_LINE_CODING:
 225:USB_DEVICE/App/usbd_cdc_if.c ****         //memcpy(buffer, pbuf, length);
 226:USB_DEVICE/App/usbd_cdc_if.c ****     break;
 227:USB_DEVICE/App/usbd_cdc_if.c **** 
 228:USB_DEVICE/App/usbd_cdc_if.c ****     case CDC_GET_LINE_CODING:
 229:USB_DEVICE/App/usbd_cdc_if.c **** 
 230:USB_DEVICE/App/usbd_cdc_if.c ****     break;
 231:USB_DEVICE/App/usbd_cdc_if.c **** 
 232:USB_DEVICE/App/usbd_cdc_if.c ****     case CDC_SET_CONTROL_LINE_STATE:
 233:USB_DEVICE/App/usbd_cdc_if.c **** 
 234:USB_DEVICE/App/usbd_cdc_if.c ****     break;
 235:USB_DEVICE/App/usbd_cdc_if.c **** 
 236:USB_DEVICE/App/usbd_cdc_if.c ****     case CDC_SEND_BREAK:
 237:USB_DEVICE/App/usbd_cdc_if.c **** 
 238:USB_DEVICE/App/usbd_cdc_if.c ****     break;
 239:USB_DEVICE/App/usbd_cdc_if.c **** 
 240:USB_DEVICE/App/usbd_cdc_if.c ****   default:
 241:USB_DEVICE/App/usbd_cdc_if.c ****     break;
 188              		.loc 1 241 5
 189 00ac 00BF     		nop
 242:USB_DEVICE/App/usbd_cdc_if.c ****   }
 243:USB_DEVICE/App/usbd_cdc_if.c **** 
 244:USB_DEVICE/App/usbd_cdc_if.c ****   return (USBD_OK);
 190              		.loc 1 244 10
 191 00ae 0023     		movs	r3, #0
 245:USB_DEVICE/App/usbd_cdc_if.c ****   /* USER CODE END 5 */
 246:USB_DEVICE/App/usbd_cdc_if.c **** }
 192              		.loc 1 246 1
 193 00b0 1846     		mov	r0, r3
 194 00b2 0C37     		adds	r7, r7, #12
 195              	.LCFI9:
 196              		.cfi_def_cfa_offset 4
 197 00b4 BD46     		mov	sp, r7
 198              	.LCFI10:
 199              		.cfi_def_cfa_register 13
 200              		@ sp needed
 201 00b6 5DF8047B 		ldr	r7, [sp], #4
 202              	.LCFI11:
 203              		.cfi_restore 7
 204              		.cfi_def_cfa_offset 0
 205 00ba 7047     		bx	lr
 206              		.cfi_endproc
 207              	.LFE136:
 209              		.section	.text.CDC_Receive_FS,"ax",%progbits
 210              		.align	1
 211              		.syntax unified
 212              		.thumb
 213              		.thumb_func
 214              		.fpu fpv4-sp-d16
 216              	CDC_Receive_FS:
 217              	.LFB137:
 247:USB_DEVICE/App/usbd_cdc_if.c **** 
 248:USB_DEVICE/App/usbd_cdc_if.c **** /**
ARM GAS  /var/folders/vq/qt4vp3kd5rxf7v2b6_fdtdt80000gn/T//ccYuNl5P.s 			page 9


 249:USB_DEVICE/App/usbd_cdc_if.c ****   * @brief  Data received over USB OUT endpoint are sent over CDC interface
 250:USB_DEVICE/App/usbd_cdc_if.c ****   *         through this function.
 251:USB_DEVICE/App/usbd_cdc_if.c ****   *
 252:USB_DEVICE/App/usbd_cdc_if.c ****   *         @note
 253:USB_DEVICE/App/usbd_cdc_if.c ****   *         This function will issue a NAK packet on any OUT packet received on
 254:USB_DEVICE/App/usbd_cdc_if.c ****   *         USB endpoint until exiting this function. If you exit this function
 255:USB_DEVICE/App/usbd_cdc_if.c ****   *         before transfer is complete on CDC interface (ie. using DMA controller)
 256:USB_DEVICE/App/usbd_cdc_if.c ****   *         it will result in receiving more data while previous ones are still
 257:USB_DEVICE/App/usbd_cdc_if.c ****   *         not sent.
 258:USB_DEVICE/App/usbd_cdc_if.c ****   *
 259:USB_DEVICE/App/usbd_cdc_if.c ****   * @param  Buf: Buffer of data to be received
 260:USB_DEVICE/App/usbd_cdc_if.c ****   * @param  Len: Number of data received (in bytes)
 261:USB_DEVICE/App/usbd_cdc_if.c ****   * @retval Result of the operation: USBD_OK if all operations are OK else USBD_FAIL
 262:USB_DEVICE/App/usbd_cdc_if.c ****   */
 263:USB_DEVICE/App/usbd_cdc_if.c **** static int8_t CDC_Receive_FS(uint8_t* Buf, uint32_t *Len)
 264:USB_DEVICE/App/usbd_cdc_if.c **** {
 218              		.loc 1 264 1
 219              		.cfi_startproc
 220              		@ args = 0, pretend = 0, frame = 8
 221              		@ frame_needed = 1, uses_anonymous_args = 0
 222 0000 80B5     		push	{r7, lr}
 223              	.LCFI12:
 224              		.cfi_def_cfa_offset 8
 225              		.cfi_offset 7, -8
 226              		.cfi_offset 14, -4
 227 0002 82B0     		sub	sp, sp, #8
 228              	.LCFI13:
 229              		.cfi_def_cfa_offset 16
 230 0004 00AF     		add	r7, sp, #0
 231              	.LCFI14:
 232              		.cfi_def_cfa_register 7
 233 0006 7860     		str	r0, [r7, #4]
 234 0008 3960     		str	r1, [r7]
 265:USB_DEVICE/App/usbd_cdc_if.c ****   /* USER CODE BEGIN 6 */
 266:USB_DEVICE/App/usbd_cdc_if.c ****   USBD_CDC_SetRxBuffer(&hUsbDeviceFS, &Buf[0]);
 235              		.loc 1 266 3
 236 000a 7968     		ldr	r1, [r7, #4]
 237 000c 0548     		ldr	r0, .L24
 238 000e FFF7FEFF 		bl	USBD_CDC_SetRxBuffer
 267:USB_DEVICE/App/usbd_cdc_if.c ****   USBD_CDC_ReceivePacket(&hUsbDeviceFS);
 239              		.loc 1 267 3
 240 0012 0448     		ldr	r0, .L24
 241 0014 FFF7FEFF 		bl	USBD_CDC_ReceivePacket
 268:USB_DEVICE/App/usbd_cdc_if.c **** 
 269:USB_DEVICE/App/usbd_cdc_if.c ****   //CDC_Transmit_FS(Buf, *Len);
 270:USB_DEVICE/App/usbd_cdc_if.c ****   return (USBD_OK);
 242              		.loc 1 270 10
 243 0018 0023     		movs	r3, #0
 271:USB_DEVICE/App/usbd_cdc_if.c ****   /* USER CODE END 6 */
 272:USB_DEVICE/App/usbd_cdc_if.c **** }
 244              		.loc 1 272 1
 245 001a 1846     		mov	r0, r3
 246 001c 0837     		adds	r7, r7, #8
 247              	.LCFI15:
 248              		.cfi_def_cfa_offset 8
 249 001e BD46     		mov	sp, r7
 250              	.LCFI16:
ARM GAS  /var/folders/vq/qt4vp3kd5rxf7v2b6_fdtdt80000gn/T//ccYuNl5P.s 			page 10


 251              		.cfi_def_cfa_register 13
 252              		@ sp needed
 253 0020 80BD     		pop	{r7, pc}
 254              	.L25:
 255 0022 00BF     		.align	2
 256              	.L24:
 257 0024 00000000 		.word	hUsbDeviceFS
 258              		.cfi_endproc
 259              	.LFE137:
 261              		.section	.text.CDC_Transmit_FS,"ax",%progbits
 262              		.align	1
 263              		.global	CDC_Transmit_FS
 264              		.syntax unified
 265              		.thumb
 266              		.thumb_func
 267              		.fpu fpv4-sp-d16
 269              	CDC_Transmit_FS:
 270              	.LFB138:
 273:USB_DEVICE/App/usbd_cdc_if.c **** 
 274:USB_DEVICE/App/usbd_cdc_if.c **** /**
 275:USB_DEVICE/App/usbd_cdc_if.c ****   * @brief  CDC_Transmit_FS
 276:USB_DEVICE/App/usbd_cdc_if.c ****   *         Data to send over USB IN endpoint are sent over CDC interface
 277:USB_DEVICE/App/usbd_cdc_if.c ****   *         through this function.
 278:USB_DEVICE/App/usbd_cdc_if.c ****   *         @note
 279:USB_DEVICE/App/usbd_cdc_if.c ****   *
 280:USB_DEVICE/App/usbd_cdc_if.c ****   *
 281:USB_DEVICE/App/usbd_cdc_if.c ****   * @param  Buf: Buffer of data to be sent
 282:USB_DEVICE/App/usbd_cdc_if.c ****   * @param  Len: Number of data to be sent (in bytes)
 283:USB_DEVICE/App/usbd_cdc_if.c ****   * @retval USBD_OK if all operations are OK else USBD_FAIL or USBD_BUSY
 284:USB_DEVICE/App/usbd_cdc_if.c ****   */
 285:USB_DEVICE/App/usbd_cdc_if.c **** uint8_t CDC_Transmit_FS(uint8_t* Buf, uint16_t Len)
 286:USB_DEVICE/App/usbd_cdc_if.c **** {
 271              		.loc 1 286 1
 272              		.cfi_startproc
 273              		@ args = 0, pretend = 0, frame = 16
 274              		@ frame_needed = 1, uses_anonymous_args = 0
 275 0000 80B5     		push	{r7, lr}
 276              	.LCFI17:
 277              		.cfi_def_cfa_offset 8
 278              		.cfi_offset 7, -8
 279              		.cfi_offset 14, -4
 280 0002 84B0     		sub	sp, sp, #16
 281              	.LCFI18:
 282              		.cfi_def_cfa_offset 24
 283 0004 00AF     		add	r7, sp, #0
 284              	.LCFI19:
 285              		.cfi_def_cfa_register 7
 286 0006 7860     		str	r0, [r7, #4]
 287 0008 0B46     		mov	r3, r1
 288 000a 7B80     		strh	r3, [r7, #2]	@ movhi
 287:USB_DEVICE/App/usbd_cdc_if.c ****   uint8_t result = USBD_OK;
 289              		.loc 1 287 11
 290 000c 0023     		movs	r3, #0
 291 000e FB73     		strb	r3, [r7, #15]
 288:USB_DEVICE/App/usbd_cdc_if.c ****   /* USER CODE BEGIN 7 */
 289:USB_DEVICE/App/usbd_cdc_if.c ****   USBD_CDC_HandleTypeDef *hcdc = (USBD_CDC_HandleTypeDef*)hUsbDeviceFS.pClassData;
 292              		.loc 1 289 27
ARM GAS  /var/folders/vq/qt4vp3kd5rxf7v2b6_fdtdt80000gn/T//ccYuNl5P.s 			page 11


 293 0010 0D4B     		ldr	r3, .L29
 294 0012 D3F8BC32 		ldr	r3, [r3, #700]
 295 0016 BB60     		str	r3, [r7, #8]
 290:USB_DEVICE/App/usbd_cdc_if.c ****   if (hcdc->TxState != 0){
 296              		.loc 1 290 11
 297 0018 BB68     		ldr	r3, [r7, #8]
 298 001a D3F81432 		ldr	r3, [r3, #532]
 299              		.loc 1 290 6
 300 001e 002B     		cmp	r3, #0
 301 0020 01D0     		beq	.L27
 291:USB_DEVICE/App/usbd_cdc_if.c ****     return USBD_BUSY;
 302              		.loc 1 291 12
 303 0022 0123     		movs	r3, #1
 304 0024 0BE0     		b	.L28
 305              	.L27:
 292:USB_DEVICE/App/usbd_cdc_if.c ****   }
 293:USB_DEVICE/App/usbd_cdc_if.c ****   USBD_CDC_SetTxBuffer(&hUsbDeviceFS, Buf, Len);
 306              		.loc 1 293 3
 307 0026 7B88     		ldrh	r3, [r7, #2]
 308 0028 1A46     		mov	r2, r3
 309 002a 7968     		ldr	r1, [r7, #4]
 310 002c 0648     		ldr	r0, .L29
 311 002e FFF7FEFF 		bl	USBD_CDC_SetTxBuffer
 294:USB_DEVICE/App/usbd_cdc_if.c ****   result = USBD_CDC_TransmitPacket(&hUsbDeviceFS);
 312              		.loc 1 294 12
 313 0032 0548     		ldr	r0, .L29
 314 0034 FFF7FEFF 		bl	USBD_CDC_TransmitPacket
 315 0038 0346     		mov	r3, r0
 316 003a FB73     		strb	r3, [r7, #15]
 295:USB_DEVICE/App/usbd_cdc_if.c ****   /* USER CODE END 7 */
 296:USB_DEVICE/App/usbd_cdc_if.c ****   return result;
 317              		.loc 1 296 10
 318 003c FB7B     		ldrb	r3, [r7, #15]	@ zero_extendqisi2
 319              	.L28:
 297:USB_DEVICE/App/usbd_cdc_if.c **** }
 320              		.loc 1 297 1
 321 003e 1846     		mov	r0, r3
 322 0040 1037     		adds	r7, r7, #16
 323              	.LCFI20:
 324              		.cfi_def_cfa_offset 8
 325 0042 BD46     		mov	sp, r7
 326              	.LCFI21:
 327              		.cfi_def_cfa_register 13
 328              		@ sp needed
 329 0044 80BD     		pop	{r7, pc}
 330              	.L30:
 331 0046 00BF     		.align	2
 332              	.L29:
 333 0048 00000000 		.word	hUsbDeviceFS
 334              		.cfi_endproc
 335              	.LFE138:
 337              		.section	.text.CDC_TransmitCplt_FS,"ax",%progbits
 338              		.align	1
 339              		.syntax unified
 340              		.thumb
 341              		.thumb_func
 342              		.fpu fpv4-sp-d16
ARM GAS  /var/folders/vq/qt4vp3kd5rxf7v2b6_fdtdt80000gn/T//ccYuNl5P.s 			page 12


 344              	CDC_TransmitCplt_FS:
 345              	.LFB139:
 298:USB_DEVICE/App/usbd_cdc_if.c **** 
 299:USB_DEVICE/App/usbd_cdc_if.c **** /**
 300:USB_DEVICE/App/usbd_cdc_if.c ****   * @brief  CDC_TransmitCplt_FS
 301:USB_DEVICE/App/usbd_cdc_if.c ****   *         Data transmited callback
 302:USB_DEVICE/App/usbd_cdc_if.c ****   *
 303:USB_DEVICE/App/usbd_cdc_if.c ****   *         @note
 304:USB_DEVICE/App/usbd_cdc_if.c ****   *         This function is IN transfer complete callback used to inform user that
 305:USB_DEVICE/App/usbd_cdc_if.c ****   *         the submitted Data is successfully sent over USB.
 306:USB_DEVICE/App/usbd_cdc_if.c ****   *
 307:USB_DEVICE/App/usbd_cdc_if.c ****   * @param  Buf: Buffer of data to be received
 308:USB_DEVICE/App/usbd_cdc_if.c ****   * @param  Len: Number of data received (in bytes)
 309:USB_DEVICE/App/usbd_cdc_if.c ****   * @retval Result of the operation: USBD_OK if all operations are OK else USBD_FAIL
 310:USB_DEVICE/App/usbd_cdc_if.c ****   */
 311:USB_DEVICE/App/usbd_cdc_if.c **** static int8_t CDC_TransmitCplt_FS(uint8_t *Buf, uint32_t *Len, uint8_t epnum)
 312:USB_DEVICE/App/usbd_cdc_if.c **** {
 346              		.loc 1 312 1
 347              		.cfi_startproc
 348              		@ args = 0, pretend = 0, frame = 24
 349              		@ frame_needed = 1, uses_anonymous_args = 0
 350              		@ link register save eliminated.
 351 0000 80B4     		push	{r7}
 352              	.LCFI22:
 353              		.cfi_def_cfa_offset 4
 354              		.cfi_offset 7, -4
 355 0002 87B0     		sub	sp, sp, #28
 356              	.LCFI23:
 357              		.cfi_def_cfa_offset 32
 358 0004 00AF     		add	r7, sp, #0
 359              	.LCFI24:
 360              		.cfi_def_cfa_register 7
 361 0006 F860     		str	r0, [r7, #12]
 362 0008 B960     		str	r1, [r7, #8]
 363 000a 1346     		mov	r3, r2
 364 000c FB71     		strb	r3, [r7, #7]
 313:USB_DEVICE/App/usbd_cdc_if.c ****   uint8_t result = USBD_OK;
 365              		.loc 1 313 11
 366 000e 0023     		movs	r3, #0
 367 0010 FB75     		strb	r3, [r7, #23]
 314:USB_DEVICE/App/usbd_cdc_if.c ****   /* USER CODE BEGIN 13 */
 315:USB_DEVICE/App/usbd_cdc_if.c ****   UNUSED(Buf);
 316:USB_DEVICE/App/usbd_cdc_if.c ****   UNUSED(Len);
 317:USB_DEVICE/App/usbd_cdc_if.c ****   UNUSED(epnum);
 318:USB_DEVICE/App/usbd_cdc_if.c ****   /* USER CODE END 13 */
 319:USB_DEVICE/App/usbd_cdc_if.c ****   return result;
 368              		.loc 1 319 10
 369 0012 97F91730 		ldrsb	r3, [r7, #23]
 320:USB_DEVICE/App/usbd_cdc_if.c **** }
 370              		.loc 1 320 1
 371 0016 1846     		mov	r0, r3
 372 0018 1C37     		adds	r7, r7, #28
 373              	.LCFI25:
 374              		.cfi_def_cfa_offset 4
 375 001a BD46     		mov	sp, r7
 376              	.LCFI26:
 377              		.cfi_def_cfa_register 13
ARM GAS  /var/folders/vq/qt4vp3kd5rxf7v2b6_fdtdt80000gn/T//ccYuNl5P.s 			page 13


 378              		@ sp needed
 379 001c 5DF8047B 		ldr	r7, [sp], #4
 380              	.LCFI27:
 381              		.cfi_restore 7
 382              		.cfi_def_cfa_offset 0
 383 0020 7047     		bx	lr
 384              		.cfi_endproc
 385              	.LFE139:
 387              		.text
 388              	.Letext0:
 389              		.file 2 "/usr/local/Cellar/arm-none-eabi-gcc/9-2019-q4-major/gcc/arm-none-eabi/include/machine/_de
 390              		.file 3 "/usr/local/Cellar/arm-none-eabi-gcc/9-2019-q4-major/gcc/arm-none-eabi/include/sys/lock.h"
 391              		.file 4 "/usr/local/Cellar/arm-none-eabi-gcc/9-2019-q4-major/gcc/arm-none-eabi/include/sys/_types.
 392              		.file 5 "/usr/local/Cellar/arm-none-eabi-gcc/9-2019-q4-major/gcc/lib/gcc/arm-none-eabi/9.2.1/inclu
 393              		.file 6 "/usr/local/Cellar/arm-none-eabi-gcc/9-2019-q4-major/gcc/arm-none-eabi/include/sys/reent.h
 394              		.file 7 "/usr/local/Cellar/arm-none-eabi-gcc/9-2019-q4-major/gcc/arm-none-eabi/include/sys/_stdint
 395              		.file 8 "/usr/local/Cellar/arm-none-eabi-gcc/9-2019-q4-major/gcc/arm-none-eabi/include/stdlib.h"
 396              		.file 9 "Drivers/CMSIS/Include/core_cm4.h"
 397              		.file 10 "Drivers/CMSIS/Device/ST/STM32F4xx/Include/system_stm32f4xx.h"
 398              		.file 11 "Drivers/STM32F4xx_HAL_Driver/Inc/stm32f4xx_hal.h"
 399              		.file 12 "Middlewares/ST/STM32_USB_Device_Library/Core/Inc/usbd_def.h"
 400              		.file 13 "Middlewares/ST/STM32_USB_Device_Library/Class/CDC/Inc/usbd_cdc.h"
 401              		.file 14 "USB_DEVICE/App/usbd_cdc_if.h"
ARM GAS  /var/folders/vq/qt4vp3kd5rxf7v2b6_fdtdt80000gn/T//ccYuNl5P.s 			page 14

