ARM GAS  /var/folders/vq/qt4vp3kd5rxf7v2b6_fdtdt80000gn/T//ccq7cW07.s 			page 1


   1              		.cpu cortex-m4
   2              		.eabi_attribute 27, 1
   3              		.eabi_attribute 28, 1
   4              		.eabi_attribute 20, 1
   5              		.eabi_attribute 21, 1
   6              		.eabi_attribute 23, 3
   7              		.eabi_attribute 24, 1
   8              		.eabi_attribute 25, 1
   9              		.eabi_attribute 26, 1
  10              		.eabi_attribute 30, 6
  11              		.eabi_attribute 34, 1
  12              		.eabi_attribute 18, 4
  13              		.file	"usbd_desc.c"
  14              		.text
  15              	.Ltext0:
  16              		.cfi_sections	.debug_frame
  17              		.global	FS_Desc
  18              		.section	.data.FS_Desc,"aw"
  19              		.align	2
  22              	FS_Desc:
  23 0000 00000000 		.word	USBD_FS_DeviceDescriptor
  24 0004 00000000 		.word	USBD_FS_LangIDStrDescriptor
  25 0008 00000000 		.word	USBD_FS_ManufacturerStrDescriptor
  26 000c 00000000 		.word	USBD_FS_ProductStrDescriptor
  27 0010 00000000 		.word	USBD_FS_SerialStrDescriptor
  28 0014 00000000 		.word	USBD_FS_ConfigStrDescriptor
  29 0018 00000000 		.word	USBD_FS_InterfaceStrDescriptor
  30              		.global	USBD_FS_DeviceDesc
  31              		.section	.data.USBD_FS_DeviceDesc,"aw"
  32              		.align	2
  35              	USBD_FS_DeviceDesc:
  36 0000 12010002 		.ascii	"\022\001\000\002\002\002\000@\203\004@W\000\002\001"
  36      02020040 
  36      83044057 
  36      000201
  37 000f 020301   		.ascii	"\002\003\001"
  38              		.global	USBD_LangIDDesc
  39              		.section	.data.USBD_LangIDDesc,"aw"
  40              		.align	2
  43              	USBD_LangIDDesc:
  44 0000 04030904 		.ascii	"\004\003\011\004"
  45              		.comm	USBD_StrDesc,512,4
  46              		.global	USBD_StringSerial
  47              		.section	.data.USBD_StringSerial,"aw"
  48              		.align	2
  51              	USBD_StringSerial:
  52 0000 1A0300   		.ascii	"\032\003\000"
  53 0003 00000000 		.space	23
  53      00000000 
  53      00000000 
  53      00000000 
  53      00000000 
  54              		.section	.text.USBD_FS_DeviceDescriptor,"ax",%progbits
  55              		.align	1
  56              		.global	USBD_FS_DeviceDescriptor
  57              		.arch armv7e-m
  58              		.syntax unified
ARM GAS  /var/folders/vq/qt4vp3kd5rxf7v2b6_fdtdt80000gn/T//ccq7cW07.s 			page 2


  59              		.thumb
  60              		.thumb_func
  61              		.fpu fpv4-sp-d16
  63              	USBD_FS_DeviceDescriptor:
  64              	.LFB134:
  65              		.file 1 "USB_DEVICE/App/usbd_desc.c"
   1:USB_DEVICE/App/usbd_desc.c **** /* USER CODE BEGIN Header */
   2:USB_DEVICE/App/usbd_desc.c **** /**
   3:USB_DEVICE/App/usbd_desc.c ****   ******************************************************************************
   4:USB_DEVICE/App/usbd_desc.c ****   * @file           : App/usbd_desc.c
   5:USB_DEVICE/App/usbd_desc.c ****   * @version        : v1.0_Cube
   6:USB_DEVICE/App/usbd_desc.c ****   * @brief          : This file implements the USB device descriptors.
   7:USB_DEVICE/App/usbd_desc.c ****   ******************************************************************************
   8:USB_DEVICE/App/usbd_desc.c ****   * @attention
   9:USB_DEVICE/App/usbd_desc.c ****   *
  10:USB_DEVICE/App/usbd_desc.c ****   * <h2><center>&copy; Copyright (c) 2021 STMicroelectronics.
  11:USB_DEVICE/App/usbd_desc.c ****   * All rights reserved.</center></h2>
  12:USB_DEVICE/App/usbd_desc.c ****   *
  13:USB_DEVICE/App/usbd_desc.c ****   * This software component is licensed by ST under Ultimate Liberty license
  14:USB_DEVICE/App/usbd_desc.c ****   * SLA0044, the "License"; You may not use this file except in compliance with
  15:USB_DEVICE/App/usbd_desc.c ****   * the License. You may obtain a copy of the License at:
  16:USB_DEVICE/App/usbd_desc.c ****   *                             www.st.com/SLA0044
  17:USB_DEVICE/App/usbd_desc.c ****   *
  18:USB_DEVICE/App/usbd_desc.c ****   ******************************************************************************
  19:USB_DEVICE/App/usbd_desc.c ****   */
  20:USB_DEVICE/App/usbd_desc.c **** /* USER CODE END Header */
  21:USB_DEVICE/App/usbd_desc.c **** 
  22:USB_DEVICE/App/usbd_desc.c **** /* Includes ------------------------------------------------------------------*/
  23:USB_DEVICE/App/usbd_desc.c **** #include "usbd_core.h"
  24:USB_DEVICE/App/usbd_desc.c **** #include "usbd_desc.h"
  25:USB_DEVICE/App/usbd_desc.c **** #include "usbd_conf.h"
  26:USB_DEVICE/App/usbd_desc.c **** 
  27:USB_DEVICE/App/usbd_desc.c **** /* USER CODE BEGIN INCLUDE */
  28:USB_DEVICE/App/usbd_desc.c **** 
  29:USB_DEVICE/App/usbd_desc.c **** /* USER CODE END INCLUDE */
  30:USB_DEVICE/App/usbd_desc.c **** 
  31:USB_DEVICE/App/usbd_desc.c **** /* Private typedef -----------------------------------------------------------*/
  32:USB_DEVICE/App/usbd_desc.c **** /* Private define ------------------------------------------------------------*/
  33:USB_DEVICE/App/usbd_desc.c **** /* Private macro -------------------------------------------------------------*/
  34:USB_DEVICE/App/usbd_desc.c **** 
  35:USB_DEVICE/App/usbd_desc.c **** /* USER CODE BEGIN PV */
  36:USB_DEVICE/App/usbd_desc.c **** /* Private variables ---------------------------------------------------------*/
  37:USB_DEVICE/App/usbd_desc.c **** 
  38:USB_DEVICE/App/usbd_desc.c **** /* USER CODE END PV */
  39:USB_DEVICE/App/usbd_desc.c **** 
  40:USB_DEVICE/App/usbd_desc.c **** /** @addtogroup STM32_USB_OTG_DEVICE_LIBRARY
  41:USB_DEVICE/App/usbd_desc.c ****   * @{
  42:USB_DEVICE/App/usbd_desc.c ****   */
  43:USB_DEVICE/App/usbd_desc.c **** 
  44:USB_DEVICE/App/usbd_desc.c **** /** @addtogroup USBD_DESC
  45:USB_DEVICE/App/usbd_desc.c ****   * @{
  46:USB_DEVICE/App/usbd_desc.c ****   */
  47:USB_DEVICE/App/usbd_desc.c **** 
  48:USB_DEVICE/App/usbd_desc.c **** /** @defgroup USBD_DESC_Private_TypesDefinitions USBD_DESC_Private_TypesDefinitions
  49:USB_DEVICE/App/usbd_desc.c ****   * @brief Private types.
  50:USB_DEVICE/App/usbd_desc.c ****   * @{
  51:USB_DEVICE/App/usbd_desc.c ****   */
ARM GAS  /var/folders/vq/qt4vp3kd5rxf7v2b6_fdtdt80000gn/T//ccq7cW07.s 			page 3


  52:USB_DEVICE/App/usbd_desc.c **** 
  53:USB_DEVICE/App/usbd_desc.c **** /* USER CODE BEGIN PRIVATE_TYPES */
  54:USB_DEVICE/App/usbd_desc.c **** 
  55:USB_DEVICE/App/usbd_desc.c **** /* USER CODE END PRIVATE_TYPES */
  56:USB_DEVICE/App/usbd_desc.c **** 
  57:USB_DEVICE/App/usbd_desc.c **** /**
  58:USB_DEVICE/App/usbd_desc.c ****   * @}
  59:USB_DEVICE/App/usbd_desc.c ****   */
  60:USB_DEVICE/App/usbd_desc.c **** 
  61:USB_DEVICE/App/usbd_desc.c **** /** @defgroup USBD_DESC_Private_Defines USBD_DESC_Private_Defines
  62:USB_DEVICE/App/usbd_desc.c ****   * @brief Private defines.
  63:USB_DEVICE/App/usbd_desc.c ****   * @{
  64:USB_DEVICE/App/usbd_desc.c ****   */
  65:USB_DEVICE/App/usbd_desc.c **** 
  66:USB_DEVICE/App/usbd_desc.c **** #define USBD_VID     1155
  67:USB_DEVICE/App/usbd_desc.c **** #define USBD_LANGID_STRING     1033
  68:USB_DEVICE/App/usbd_desc.c **** #define USBD_MANUFACTURER_STRING     "STMicroelectronics"
  69:USB_DEVICE/App/usbd_desc.c **** #define USBD_PID_FS     22336
  70:USB_DEVICE/App/usbd_desc.c **** #define USBD_PRODUCT_STRING_FS     "STM32 Virtual ComPort"
  71:USB_DEVICE/App/usbd_desc.c **** #define USBD_CONFIGURATION_STRING_FS     "CDC Config"
  72:USB_DEVICE/App/usbd_desc.c **** #define USBD_INTERFACE_STRING_FS     "CDC Interface"
  73:USB_DEVICE/App/usbd_desc.c **** 
  74:USB_DEVICE/App/usbd_desc.c **** #define USB_SIZ_BOS_DESC            0x0C
  75:USB_DEVICE/App/usbd_desc.c **** 
  76:USB_DEVICE/App/usbd_desc.c **** /* USER CODE BEGIN PRIVATE_DEFINES */
  77:USB_DEVICE/App/usbd_desc.c **** 
  78:USB_DEVICE/App/usbd_desc.c **** /* USER CODE END PRIVATE_DEFINES */
  79:USB_DEVICE/App/usbd_desc.c **** 
  80:USB_DEVICE/App/usbd_desc.c **** /**
  81:USB_DEVICE/App/usbd_desc.c ****   * @}
  82:USB_DEVICE/App/usbd_desc.c ****   */
  83:USB_DEVICE/App/usbd_desc.c **** 
  84:USB_DEVICE/App/usbd_desc.c **** /* USER CODE BEGIN 0 */
  85:USB_DEVICE/App/usbd_desc.c **** 
  86:USB_DEVICE/App/usbd_desc.c **** /* USER CODE END 0 */
  87:USB_DEVICE/App/usbd_desc.c **** 
  88:USB_DEVICE/App/usbd_desc.c **** /** @defgroup USBD_DESC_Private_Macros USBD_DESC_Private_Macros
  89:USB_DEVICE/App/usbd_desc.c ****   * @brief Private macros.
  90:USB_DEVICE/App/usbd_desc.c ****   * @{
  91:USB_DEVICE/App/usbd_desc.c ****   */
  92:USB_DEVICE/App/usbd_desc.c **** 
  93:USB_DEVICE/App/usbd_desc.c **** /* USER CODE BEGIN PRIVATE_MACRO */
  94:USB_DEVICE/App/usbd_desc.c **** 
  95:USB_DEVICE/App/usbd_desc.c **** /* USER CODE END PRIVATE_MACRO */
  96:USB_DEVICE/App/usbd_desc.c **** 
  97:USB_DEVICE/App/usbd_desc.c **** /**
  98:USB_DEVICE/App/usbd_desc.c ****   * @}
  99:USB_DEVICE/App/usbd_desc.c ****   */
 100:USB_DEVICE/App/usbd_desc.c **** 
 101:USB_DEVICE/App/usbd_desc.c **** /** @defgroup USBD_DESC_Private_FunctionPrototypes USBD_DESC_Private_FunctionPrototypes
 102:USB_DEVICE/App/usbd_desc.c ****   * @brief Private functions declaration.
 103:USB_DEVICE/App/usbd_desc.c ****   * @{
 104:USB_DEVICE/App/usbd_desc.c ****   */
 105:USB_DEVICE/App/usbd_desc.c **** 
 106:USB_DEVICE/App/usbd_desc.c **** static void Get_SerialNum(void);
 107:USB_DEVICE/App/usbd_desc.c **** static void IntToUnicode(uint32_t value, uint8_t * pbuf, uint8_t len);
 108:USB_DEVICE/App/usbd_desc.c **** 
ARM GAS  /var/folders/vq/qt4vp3kd5rxf7v2b6_fdtdt80000gn/T//ccq7cW07.s 			page 4


 109:USB_DEVICE/App/usbd_desc.c **** /**
 110:USB_DEVICE/App/usbd_desc.c ****   * @}
 111:USB_DEVICE/App/usbd_desc.c ****   */
 112:USB_DEVICE/App/usbd_desc.c **** 
 113:USB_DEVICE/App/usbd_desc.c **** /** @defgroup USBD_DESC_Private_FunctionPrototypes USBD_DESC_Private_FunctionPrototypes
 114:USB_DEVICE/App/usbd_desc.c ****   * @brief Private functions declaration for FS.
 115:USB_DEVICE/App/usbd_desc.c ****   * @{
 116:USB_DEVICE/App/usbd_desc.c ****   */
 117:USB_DEVICE/App/usbd_desc.c **** 
 118:USB_DEVICE/App/usbd_desc.c **** uint8_t * USBD_FS_DeviceDescriptor(USBD_SpeedTypeDef speed, uint16_t *length);
 119:USB_DEVICE/App/usbd_desc.c **** uint8_t * USBD_FS_LangIDStrDescriptor(USBD_SpeedTypeDef speed, uint16_t *length);
 120:USB_DEVICE/App/usbd_desc.c **** uint8_t * USBD_FS_ManufacturerStrDescriptor(USBD_SpeedTypeDef speed, uint16_t *length);
 121:USB_DEVICE/App/usbd_desc.c **** uint8_t * USBD_FS_ProductStrDescriptor(USBD_SpeedTypeDef speed, uint16_t *length);
 122:USB_DEVICE/App/usbd_desc.c **** uint8_t * USBD_FS_SerialStrDescriptor(USBD_SpeedTypeDef speed, uint16_t *length);
 123:USB_DEVICE/App/usbd_desc.c **** uint8_t * USBD_FS_ConfigStrDescriptor(USBD_SpeedTypeDef speed, uint16_t *length);
 124:USB_DEVICE/App/usbd_desc.c **** uint8_t * USBD_FS_InterfaceStrDescriptor(USBD_SpeedTypeDef speed, uint16_t *length);
 125:USB_DEVICE/App/usbd_desc.c **** #if (USBD_LPM_ENABLED == 1)
 126:USB_DEVICE/App/usbd_desc.c **** uint8_t * USBD_FS_USR_BOSDescriptor(USBD_SpeedTypeDef speed, uint16_t *length);
 127:USB_DEVICE/App/usbd_desc.c **** #endif /* (USBD_LPM_ENABLED == 1) */
 128:USB_DEVICE/App/usbd_desc.c **** 
 129:USB_DEVICE/App/usbd_desc.c **** /**
 130:USB_DEVICE/App/usbd_desc.c ****   * @}
 131:USB_DEVICE/App/usbd_desc.c ****   */
 132:USB_DEVICE/App/usbd_desc.c **** 
 133:USB_DEVICE/App/usbd_desc.c **** /** @defgroup USBD_DESC_Private_Variables USBD_DESC_Private_Variables
 134:USB_DEVICE/App/usbd_desc.c ****   * @brief Private variables.
 135:USB_DEVICE/App/usbd_desc.c ****   * @{
 136:USB_DEVICE/App/usbd_desc.c ****   */
 137:USB_DEVICE/App/usbd_desc.c **** 
 138:USB_DEVICE/App/usbd_desc.c **** USBD_DescriptorsTypeDef FS_Desc =
 139:USB_DEVICE/App/usbd_desc.c **** {
 140:USB_DEVICE/App/usbd_desc.c ****   USBD_FS_DeviceDescriptor
 141:USB_DEVICE/App/usbd_desc.c **** , USBD_FS_LangIDStrDescriptor
 142:USB_DEVICE/App/usbd_desc.c **** , USBD_FS_ManufacturerStrDescriptor
 143:USB_DEVICE/App/usbd_desc.c **** , USBD_FS_ProductStrDescriptor
 144:USB_DEVICE/App/usbd_desc.c **** , USBD_FS_SerialStrDescriptor
 145:USB_DEVICE/App/usbd_desc.c **** , USBD_FS_ConfigStrDescriptor
 146:USB_DEVICE/App/usbd_desc.c **** , USBD_FS_InterfaceStrDescriptor
 147:USB_DEVICE/App/usbd_desc.c **** #if (USBD_LPM_ENABLED == 1)
 148:USB_DEVICE/App/usbd_desc.c **** , USBD_FS_USR_BOSDescriptor
 149:USB_DEVICE/App/usbd_desc.c **** #endif /* (USBD_LPM_ENABLED == 1) */
 150:USB_DEVICE/App/usbd_desc.c **** };
 151:USB_DEVICE/App/usbd_desc.c **** 
 152:USB_DEVICE/App/usbd_desc.c **** #if defined ( __ICCARM__ ) /* IAR Compiler */
 153:USB_DEVICE/App/usbd_desc.c ****   #pragma data_alignment=4
 154:USB_DEVICE/App/usbd_desc.c **** #endif /* defined ( __ICCARM__ ) */
 155:USB_DEVICE/App/usbd_desc.c **** /** USB standard device descriptor. */
 156:USB_DEVICE/App/usbd_desc.c **** __ALIGN_BEGIN uint8_t USBD_FS_DeviceDesc[USB_LEN_DEV_DESC] __ALIGN_END =
 157:USB_DEVICE/App/usbd_desc.c **** {
 158:USB_DEVICE/App/usbd_desc.c ****   0x12,                       /*bLength */
 159:USB_DEVICE/App/usbd_desc.c ****   USB_DESC_TYPE_DEVICE,       /*bDescriptorType*/
 160:USB_DEVICE/App/usbd_desc.c **** #if (USBD_LPM_ENABLED == 1)
 161:USB_DEVICE/App/usbd_desc.c ****   0x01,                       /*bcdUSB */ /* changed to USB version 2.01
 162:USB_DEVICE/App/usbd_desc.c ****                                              in order to support LPM L1 suspend
 163:USB_DEVICE/App/usbd_desc.c ****                                              resume test of USBCV3.0*/
 164:USB_DEVICE/App/usbd_desc.c **** #else
 165:USB_DEVICE/App/usbd_desc.c ****   0x00,                       /*bcdUSB */
ARM GAS  /var/folders/vq/qt4vp3kd5rxf7v2b6_fdtdt80000gn/T//ccq7cW07.s 			page 5


 166:USB_DEVICE/App/usbd_desc.c **** #endif /* (USBD_LPM_ENABLED == 1) */
 167:USB_DEVICE/App/usbd_desc.c ****   0x02,
 168:USB_DEVICE/App/usbd_desc.c ****   0x02,                       /*bDeviceClass*/
 169:USB_DEVICE/App/usbd_desc.c ****   0x02,                       /*bDeviceSubClass*/
 170:USB_DEVICE/App/usbd_desc.c ****   0x00,                       /*bDeviceProtocol*/
 171:USB_DEVICE/App/usbd_desc.c ****   USB_MAX_EP0_SIZE,           /*bMaxPacketSize*/
 172:USB_DEVICE/App/usbd_desc.c ****   LOBYTE(USBD_VID),           /*idVendor*/
 173:USB_DEVICE/App/usbd_desc.c ****   HIBYTE(USBD_VID),           /*idVendor*/
 174:USB_DEVICE/App/usbd_desc.c ****   LOBYTE(USBD_PID_FS),        /*idProduct*/
 175:USB_DEVICE/App/usbd_desc.c ****   HIBYTE(USBD_PID_FS),        /*idProduct*/
 176:USB_DEVICE/App/usbd_desc.c ****   0x00,                       /*bcdDevice rel. 2.00*/
 177:USB_DEVICE/App/usbd_desc.c ****   0x02,
 178:USB_DEVICE/App/usbd_desc.c ****   USBD_IDX_MFC_STR,           /*Index of manufacturer  string*/
 179:USB_DEVICE/App/usbd_desc.c ****   USBD_IDX_PRODUCT_STR,       /*Index of product string*/
 180:USB_DEVICE/App/usbd_desc.c ****   USBD_IDX_SERIAL_STR,        /*Index of serial number string*/
 181:USB_DEVICE/App/usbd_desc.c ****   USBD_MAX_NUM_CONFIGURATION  /*bNumConfigurations*/
 182:USB_DEVICE/App/usbd_desc.c **** };
 183:USB_DEVICE/App/usbd_desc.c **** 
 184:USB_DEVICE/App/usbd_desc.c **** /* USB_DeviceDescriptor */
 185:USB_DEVICE/App/usbd_desc.c **** /** BOS descriptor. */
 186:USB_DEVICE/App/usbd_desc.c **** #if (USBD_LPM_ENABLED == 1)
 187:USB_DEVICE/App/usbd_desc.c **** #if defined ( __ICCARM__ ) /* IAR Compiler */
 188:USB_DEVICE/App/usbd_desc.c ****   #pragma data_alignment=4
 189:USB_DEVICE/App/usbd_desc.c **** #endif /* defined ( __ICCARM__ ) */
 190:USB_DEVICE/App/usbd_desc.c **** __ALIGN_BEGIN uint8_t USBD_FS_BOSDesc[USB_SIZ_BOS_DESC] __ALIGN_END =
 191:USB_DEVICE/App/usbd_desc.c **** {
 192:USB_DEVICE/App/usbd_desc.c ****   0x5,
 193:USB_DEVICE/App/usbd_desc.c ****   USB_DESC_TYPE_BOS,
 194:USB_DEVICE/App/usbd_desc.c ****   0xC,
 195:USB_DEVICE/App/usbd_desc.c ****   0x0,
 196:USB_DEVICE/App/usbd_desc.c ****   0x1,  /* 1 device capability*/
 197:USB_DEVICE/App/usbd_desc.c ****         /* device capability*/
 198:USB_DEVICE/App/usbd_desc.c ****   0x7,
 199:USB_DEVICE/App/usbd_desc.c ****   USB_DEVICE_CAPABITY_TYPE,
 200:USB_DEVICE/App/usbd_desc.c ****   0x2,
 201:USB_DEVICE/App/usbd_desc.c ****   0x2,  /* LPM capability bit set*/
 202:USB_DEVICE/App/usbd_desc.c ****   0x0,
 203:USB_DEVICE/App/usbd_desc.c ****   0x0,
 204:USB_DEVICE/App/usbd_desc.c ****   0x0
 205:USB_DEVICE/App/usbd_desc.c **** };
 206:USB_DEVICE/App/usbd_desc.c **** #endif /* (USBD_LPM_ENABLED == 1) */
 207:USB_DEVICE/App/usbd_desc.c **** 
 208:USB_DEVICE/App/usbd_desc.c **** /**
 209:USB_DEVICE/App/usbd_desc.c ****   * @}
 210:USB_DEVICE/App/usbd_desc.c ****   */
 211:USB_DEVICE/App/usbd_desc.c **** 
 212:USB_DEVICE/App/usbd_desc.c **** /** @defgroup USBD_DESC_Private_Variables USBD_DESC_Private_Variables
 213:USB_DEVICE/App/usbd_desc.c ****   * @brief Private variables.
 214:USB_DEVICE/App/usbd_desc.c ****   * @{
 215:USB_DEVICE/App/usbd_desc.c ****   */
 216:USB_DEVICE/App/usbd_desc.c **** 
 217:USB_DEVICE/App/usbd_desc.c **** #if defined ( __ICCARM__ ) /* IAR Compiler */
 218:USB_DEVICE/App/usbd_desc.c ****   #pragma data_alignment=4
 219:USB_DEVICE/App/usbd_desc.c **** #endif /* defined ( __ICCARM__ ) */
 220:USB_DEVICE/App/usbd_desc.c **** 
 221:USB_DEVICE/App/usbd_desc.c **** /** USB lang indentifier descriptor. */
 222:USB_DEVICE/App/usbd_desc.c **** __ALIGN_BEGIN uint8_t USBD_LangIDDesc[USB_LEN_LANGID_STR_DESC] __ALIGN_END =
ARM GAS  /var/folders/vq/qt4vp3kd5rxf7v2b6_fdtdt80000gn/T//ccq7cW07.s 			page 6


 223:USB_DEVICE/App/usbd_desc.c **** {
 224:USB_DEVICE/App/usbd_desc.c ****      USB_LEN_LANGID_STR_DESC,
 225:USB_DEVICE/App/usbd_desc.c ****      USB_DESC_TYPE_STRING,
 226:USB_DEVICE/App/usbd_desc.c ****      LOBYTE(USBD_LANGID_STRING),
 227:USB_DEVICE/App/usbd_desc.c ****      HIBYTE(USBD_LANGID_STRING)
 228:USB_DEVICE/App/usbd_desc.c **** };
 229:USB_DEVICE/App/usbd_desc.c **** 
 230:USB_DEVICE/App/usbd_desc.c **** #if defined ( __ICCARM__ ) /* IAR Compiler */
 231:USB_DEVICE/App/usbd_desc.c ****   #pragma data_alignment=4
 232:USB_DEVICE/App/usbd_desc.c **** #endif /* defined ( __ICCARM__ ) */
 233:USB_DEVICE/App/usbd_desc.c **** /* Internal string descriptor. */
 234:USB_DEVICE/App/usbd_desc.c **** __ALIGN_BEGIN uint8_t USBD_StrDesc[USBD_MAX_STR_DESC_SIZ] __ALIGN_END;
 235:USB_DEVICE/App/usbd_desc.c **** 
 236:USB_DEVICE/App/usbd_desc.c **** #if defined ( __ICCARM__ ) /*!< IAR Compiler */
 237:USB_DEVICE/App/usbd_desc.c ****   #pragma data_alignment=4
 238:USB_DEVICE/App/usbd_desc.c **** #endif
 239:USB_DEVICE/App/usbd_desc.c **** __ALIGN_BEGIN uint8_t USBD_StringSerial[USB_SIZ_STRING_SERIAL] __ALIGN_END = {
 240:USB_DEVICE/App/usbd_desc.c ****   USB_SIZ_STRING_SERIAL,
 241:USB_DEVICE/App/usbd_desc.c ****   USB_DESC_TYPE_STRING,
 242:USB_DEVICE/App/usbd_desc.c **** };
 243:USB_DEVICE/App/usbd_desc.c **** 
 244:USB_DEVICE/App/usbd_desc.c **** /**
 245:USB_DEVICE/App/usbd_desc.c ****   * @}
 246:USB_DEVICE/App/usbd_desc.c ****   */
 247:USB_DEVICE/App/usbd_desc.c **** 
 248:USB_DEVICE/App/usbd_desc.c **** /** @defgroup USBD_DESC_Private_Functions USBD_DESC_Private_Functions
 249:USB_DEVICE/App/usbd_desc.c ****   * @brief Private functions.
 250:USB_DEVICE/App/usbd_desc.c ****   * @{
 251:USB_DEVICE/App/usbd_desc.c ****   */
 252:USB_DEVICE/App/usbd_desc.c **** 
 253:USB_DEVICE/App/usbd_desc.c **** /**
 254:USB_DEVICE/App/usbd_desc.c ****   * @brief  Return the device descriptor
 255:USB_DEVICE/App/usbd_desc.c ****   * @param  speed : Current device speed
 256:USB_DEVICE/App/usbd_desc.c ****   * @param  length : Pointer to data length variable
 257:USB_DEVICE/App/usbd_desc.c ****   * @retval Pointer to descriptor buffer
 258:USB_DEVICE/App/usbd_desc.c ****   */
 259:USB_DEVICE/App/usbd_desc.c **** uint8_t * USBD_FS_DeviceDescriptor(USBD_SpeedTypeDef speed, uint16_t *length)
 260:USB_DEVICE/App/usbd_desc.c **** {
  66              		.loc 1 260 1
  67              		.cfi_startproc
  68              		@ args = 0, pretend = 0, frame = 8
  69              		@ frame_needed = 1, uses_anonymous_args = 0
  70              		@ link register save eliminated.
  71 0000 80B4     		push	{r7}
  72              	.LCFI0:
  73              		.cfi_def_cfa_offset 4
  74              		.cfi_offset 7, -4
  75 0002 83B0     		sub	sp, sp, #12
  76              	.LCFI1:
  77              		.cfi_def_cfa_offset 16
  78 0004 00AF     		add	r7, sp, #0
  79              	.LCFI2:
  80              		.cfi_def_cfa_register 7
  81 0006 0346     		mov	r3, r0
  82 0008 3960     		str	r1, [r7]
  83 000a FB71     		strb	r3, [r7, #7]
 261:USB_DEVICE/App/usbd_desc.c ****   UNUSED(speed);
ARM GAS  /var/folders/vq/qt4vp3kd5rxf7v2b6_fdtdt80000gn/T//ccq7cW07.s 			page 7


 262:USB_DEVICE/App/usbd_desc.c ****   *length = sizeof(USBD_FS_DeviceDesc);
  84              		.loc 1 262 11
  85 000c 3B68     		ldr	r3, [r7]
  86 000e 1222     		movs	r2, #18
  87 0010 1A80     		strh	r2, [r3]	@ movhi
 263:USB_DEVICE/App/usbd_desc.c ****   return USBD_FS_DeviceDesc;
  88              		.loc 1 263 10
  89 0012 034B     		ldr	r3, .L3
 264:USB_DEVICE/App/usbd_desc.c **** }
  90              		.loc 1 264 1
  91 0014 1846     		mov	r0, r3
  92 0016 0C37     		adds	r7, r7, #12
  93              	.LCFI3:
  94              		.cfi_def_cfa_offset 4
  95 0018 BD46     		mov	sp, r7
  96              	.LCFI4:
  97              		.cfi_def_cfa_register 13
  98              		@ sp needed
  99 001a 5DF8047B 		ldr	r7, [sp], #4
 100              	.LCFI5:
 101              		.cfi_restore 7
 102              		.cfi_def_cfa_offset 0
 103 001e 7047     		bx	lr
 104              	.L4:
 105              		.align	2
 106              	.L3:
 107 0020 00000000 		.word	USBD_FS_DeviceDesc
 108              		.cfi_endproc
 109              	.LFE134:
 111              		.section	.text.USBD_FS_LangIDStrDescriptor,"ax",%progbits
 112              		.align	1
 113              		.global	USBD_FS_LangIDStrDescriptor
 114              		.syntax unified
 115              		.thumb
 116              		.thumb_func
 117              		.fpu fpv4-sp-d16
 119              	USBD_FS_LangIDStrDescriptor:
 120              	.LFB135:
 265:USB_DEVICE/App/usbd_desc.c **** 
 266:USB_DEVICE/App/usbd_desc.c **** /**
 267:USB_DEVICE/App/usbd_desc.c ****   * @brief  Return the LangID string descriptor
 268:USB_DEVICE/App/usbd_desc.c ****   * @param  speed : Current device speed
 269:USB_DEVICE/App/usbd_desc.c ****   * @param  length : Pointer to data length variable
 270:USB_DEVICE/App/usbd_desc.c ****   * @retval Pointer to descriptor buffer
 271:USB_DEVICE/App/usbd_desc.c ****   */
 272:USB_DEVICE/App/usbd_desc.c **** uint8_t * USBD_FS_LangIDStrDescriptor(USBD_SpeedTypeDef speed, uint16_t *length)
 273:USB_DEVICE/App/usbd_desc.c **** {
 121              		.loc 1 273 1
 122              		.cfi_startproc
 123              		@ args = 0, pretend = 0, frame = 8
 124              		@ frame_needed = 1, uses_anonymous_args = 0
 125              		@ link register save eliminated.
 126 0000 80B4     		push	{r7}
 127              	.LCFI6:
 128              		.cfi_def_cfa_offset 4
 129              		.cfi_offset 7, -4
 130 0002 83B0     		sub	sp, sp, #12
ARM GAS  /var/folders/vq/qt4vp3kd5rxf7v2b6_fdtdt80000gn/T//ccq7cW07.s 			page 8


 131              	.LCFI7:
 132              		.cfi_def_cfa_offset 16
 133 0004 00AF     		add	r7, sp, #0
 134              	.LCFI8:
 135              		.cfi_def_cfa_register 7
 136 0006 0346     		mov	r3, r0
 137 0008 3960     		str	r1, [r7]
 138 000a FB71     		strb	r3, [r7, #7]
 274:USB_DEVICE/App/usbd_desc.c ****   UNUSED(speed);
 275:USB_DEVICE/App/usbd_desc.c ****   *length = sizeof(USBD_LangIDDesc);
 139              		.loc 1 275 11
 140 000c 3B68     		ldr	r3, [r7]
 141 000e 0422     		movs	r2, #4
 142 0010 1A80     		strh	r2, [r3]	@ movhi
 276:USB_DEVICE/App/usbd_desc.c ****   return USBD_LangIDDesc;
 143              		.loc 1 276 10
 144 0012 034B     		ldr	r3, .L7
 277:USB_DEVICE/App/usbd_desc.c **** }
 145              		.loc 1 277 1
 146 0014 1846     		mov	r0, r3
 147 0016 0C37     		adds	r7, r7, #12
 148              	.LCFI9:
 149              		.cfi_def_cfa_offset 4
 150 0018 BD46     		mov	sp, r7
 151              	.LCFI10:
 152              		.cfi_def_cfa_register 13
 153              		@ sp needed
 154 001a 5DF8047B 		ldr	r7, [sp], #4
 155              	.LCFI11:
 156              		.cfi_restore 7
 157              		.cfi_def_cfa_offset 0
 158 001e 7047     		bx	lr
 159              	.L8:
 160              		.align	2
 161              	.L7:
 162 0020 00000000 		.word	USBD_LangIDDesc
 163              		.cfi_endproc
 164              	.LFE135:
 166              		.section	.rodata
 167              		.align	2
 168              	.LC0:
 169 0000 53544D33 		.ascii	"STM32 Virtual ComPort\000"
 169      32205669 
 169      72747561 
 169      6C20436F 
 169      6D506F72 
 170              		.section	.text.USBD_FS_ProductStrDescriptor,"ax",%progbits
 171              		.align	1
 172              		.global	USBD_FS_ProductStrDescriptor
 173              		.syntax unified
 174              		.thumb
 175              		.thumb_func
 176              		.fpu fpv4-sp-d16
 178              	USBD_FS_ProductStrDescriptor:
 179              	.LFB136:
 278:USB_DEVICE/App/usbd_desc.c **** 
 279:USB_DEVICE/App/usbd_desc.c **** /**
ARM GAS  /var/folders/vq/qt4vp3kd5rxf7v2b6_fdtdt80000gn/T//ccq7cW07.s 			page 9


 280:USB_DEVICE/App/usbd_desc.c ****   * @brief  Return the product string descriptor
 281:USB_DEVICE/App/usbd_desc.c ****   * @param  speed : Current device speed
 282:USB_DEVICE/App/usbd_desc.c ****   * @param  length : Pointer to data length variable
 283:USB_DEVICE/App/usbd_desc.c ****   * @retval Pointer to descriptor buffer
 284:USB_DEVICE/App/usbd_desc.c ****   */
 285:USB_DEVICE/App/usbd_desc.c **** uint8_t * USBD_FS_ProductStrDescriptor(USBD_SpeedTypeDef speed, uint16_t *length)
 286:USB_DEVICE/App/usbd_desc.c **** {
 180              		.loc 1 286 1
 181              		.cfi_startproc
 182              		@ args = 0, pretend = 0, frame = 8
 183              		@ frame_needed = 1, uses_anonymous_args = 0
 184 0000 80B5     		push	{r7, lr}
 185              	.LCFI12:
 186              		.cfi_def_cfa_offset 8
 187              		.cfi_offset 7, -8
 188              		.cfi_offset 14, -4
 189 0002 82B0     		sub	sp, sp, #8
 190              	.LCFI13:
 191              		.cfi_def_cfa_offset 16
 192 0004 00AF     		add	r7, sp, #0
 193              	.LCFI14:
 194              		.cfi_def_cfa_register 7
 195 0006 0346     		mov	r3, r0
 196 0008 3960     		str	r1, [r7]
 197 000a FB71     		strb	r3, [r7, #7]
 287:USB_DEVICE/App/usbd_desc.c ****   if(speed == 0)
 198              		.loc 1 287 5
 199 000c FB79     		ldrb	r3, [r7, #7]	@ zero_extendqisi2
 200 000e 002B     		cmp	r3, #0
 201 0010 05D1     		bne	.L10
 288:USB_DEVICE/App/usbd_desc.c ****   {
 289:USB_DEVICE/App/usbd_desc.c ****     USBD_GetString((uint8_t *)USBD_PRODUCT_STRING_FS, USBD_StrDesc, length);
 202              		.loc 1 289 5
 203 0012 3A68     		ldr	r2, [r7]
 204 0014 0749     		ldr	r1, .L13
 205 0016 0848     		ldr	r0, .L13+4
 206 0018 FFF7FEFF 		bl	USBD_GetString
 207 001c 04E0     		b	.L11
 208              	.L10:
 290:USB_DEVICE/App/usbd_desc.c ****   }
 291:USB_DEVICE/App/usbd_desc.c ****   else
 292:USB_DEVICE/App/usbd_desc.c ****   {
 293:USB_DEVICE/App/usbd_desc.c ****     USBD_GetString((uint8_t *)USBD_PRODUCT_STRING_FS, USBD_StrDesc, length);
 209              		.loc 1 293 5
 210 001e 3A68     		ldr	r2, [r7]
 211 0020 0449     		ldr	r1, .L13
 212 0022 0548     		ldr	r0, .L13+4
 213 0024 FFF7FEFF 		bl	USBD_GetString
 214              	.L11:
 294:USB_DEVICE/App/usbd_desc.c ****   }
 295:USB_DEVICE/App/usbd_desc.c ****   return USBD_StrDesc;
 215              		.loc 1 295 10
 216 0028 024B     		ldr	r3, .L13
 296:USB_DEVICE/App/usbd_desc.c **** }
 217              		.loc 1 296 1
 218 002a 1846     		mov	r0, r3
 219 002c 0837     		adds	r7, r7, #8
ARM GAS  /var/folders/vq/qt4vp3kd5rxf7v2b6_fdtdt80000gn/T//ccq7cW07.s 			page 10


 220              	.LCFI15:
 221              		.cfi_def_cfa_offset 8
 222 002e BD46     		mov	sp, r7
 223              	.LCFI16:
 224              		.cfi_def_cfa_register 13
 225              		@ sp needed
 226 0030 80BD     		pop	{r7, pc}
 227              	.L14:
 228 0032 00BF     		.align	2
 229              	.L13:
 230 0034 00000000 		.word	USBD_StrDesc
 231 0038 00000000 		.word	.LC0
 232              		.cfi_endproc
 233              	.LFE136:
 235              		.section	.rodata
 236 0016 0000     		.align	2
 237              	.LC1:
 238 0018 53544D69 		.ascii	"STMicroelectronics\000"
 238      63726F65 
 238      6C656374 
 238      726F6E69 
 238      637300
 239              		.section	.text.USBD_FS_ManufacturerStrDescriptor,"ax",%progbits
 240              		.align	1
 241              		.global	USBD_FS_ManufacturerStrDescriptor
 242              		.syntax unified
 243              		.thumb
 244              		.thumb_func
 245              		.fpu fpv4-sp-d16
 247              	USBD_FS_ManufacturerStrDescriptor:
 248              	.LFB137:
 297:USB_DEVICE/App/usbd_desc.c **** 
 298:USB_DEVICE/App/usbd_desc.c **** /**
 299:USB_DEVICE/App/usbd_desc.c ****   * @brief  Return the manufacturer string descriptor
 300:USB_DEVICE/App/usbd_desc.c ****   * @param  speed : Current device speed
 301:USB_DEVICE/App/usbd_desc.c ****   * @param  length : Pointer to data length variable
 302:USB_DEVICE/App/usbd_desc.c ****   * @retval Pointer to descriptor buffer
 303:USB_DEVICE/App/usbd_desc.c ****   */
 304:USB_DEVICE/App/usbd_desc.c **** uint8_t * USBD_FS_ManufacturerStrDescriptor(USBD_SpeedTypeDef speed, uint16_t *length)
 305:USB_DEVICE/App/usbd_desc.c **** {
 249              		.loc 1 305 1
 250              		.cfi_startproc
 251              		@ args = 0, pretend = 0, frame = 8
 252              		@ frame_needed = 1, uses_anonymous_args = 0
 253 0000 80B5     		push	{r7, lr}
 254              	.LCFI17:
 255              		.cfi_def_cfa_offset 8
 256              		.cfi_offset 7, -8
 257              		.cfi_offset 14, -4
 258 0002 82B0     		sub	sp, sp, #8
 259              	.LCFI18:
 260              		.cfi_def_cfa_offset 16
 261 0004 00AF     		add	r7, sp, #0
 262              	.LCFI19:
 263              		.cfi_def_cfa_register 7
 264 0006 0346     		mov	r3, r0
 265 0008 3960     		str	r1, [r7]
ARM GAS  /var/folders/vq/qt4vp3kd5rxf7v2b6_fdtdt80000gn/T//ccq7cW07.s 			page 11


 266 000a FB71     		strb	r3, [r7, #7]
 306:USB_DEVICE/App/usbd_desc.c ****   UNUSED(speed);
 307:USB_DEVICE/App/usbd_desc.c ****   USBD_GetString((uint8_t *)USBD_MANUFACTURER_STRING, USBD_StrDesc, length);
 267              		.loc 1 307 3
 268 000c 3A68     		ldr	r2, [r7]
 269 000e 0449     		ldr	r1, .L17
 270 0010 0448     		ldr	r0, .L17+4
 271 0012 FFF7FEFF 		bl	USBD_GetString
 308:USB_DEVICE/App/usbd_desc.c ****   return USBD_StrDesc;
 272              		.loc 1 308 10
 273 0016 024B     		ldr	r3, .L17
 309:USB_DEVICE/App/usbd_desc.c **** }
 274              		.loc 1 309 1
 275 0018 1846     		mov	r0, r3
 276 001a 0837     		adds	r7, r7, #8
 277              	.LCFI20:
 278              		.cfi_def_cfa_offset 8
 279 001c BD46     		mov	sp, r7
 280              	.LCFI21:
 281              		.cfi_def_cfa_register 13
 282              		@ sp needed
 283 001e 80BD     		pop	{r7, pc}
 284              	.L18:
 285              		.align	2
 286              	.L17:
 287 0020 00000000 		.word	USBD_StrDesc
 288 0024 18000000 		.word	.LC1
 289              		.cfi_endproc
 290              	.LFE137:
 292              		.section	.text.USBD_FS_SerialStrDescriptor,"ax",%progbits
 293              		.align	1
 294              		.global	USBD_FS_SerialStrDescriptor
 295              		.syntax unified
 296              		.thumb
 297              		.thumb_func
 298              		.fpu fpv4-sp-d16
 300              	USBD_FS_SerialStrDescriptor:
 301              	.LFB138:
 310:USB_DEVICE/App/usbd_desc.c **** 
 311:USB_DEVICE/App/usbd_desc.c **** /**
 312:USB_DEVICE/App/usbd_desc.c ****   * @brief  Return the serial number string descriptor
 313:USB_DEVICE/App/usbd_desc.c ****   * @param  speed : Current device speed
 314:USB_DEVICE/App/usbd_desc.c ****   * @param  length : Pointer to data length variable
 315:USB_DEVICE/App/usbd_desc.c ****   * @retval Pointer to descriptor buffer
 316:USB_DEVICE/App/usbd_desc.c ****   */
 317:USB_DEVICE/App/usbd_desc.c **** uint8_t * USBD_FS_SerialStrDescriptor(USBD_SpeedTypeDef speed, uint16_t *length)
 318:USB_DEVICE/App/usbd_desc.c **** {
 302              		.loc 1 318 1
 303              		.cfi_startproc
 304              		@ args = 0, pretend = 0, frame = 8
 305              		@ frame_needed = 1, uses_anonymous_args = 0
 306 0000 80B5     		push	{r7, lr}
 307              	.LCFI22:
 308              		.cfi_def_cfa_offset 8
 309              		.cfi_offset 7, -8
 310              		.cfi_offset 14, -4
 311 0002 82B0     		sub	sp, sp, #8
ARM GAS  /var/folders/vq/qt4vp3kd5rxf7v2b6_fdtdt80000gn/T//ccq7cW07.s 			page 12


 312              	.LCFI23:
 313              		.cfi_def_cfa_offset 16
 314 0004 00AF     		add	r7, sp, #0
 315              	.LCFI24:
 316              		.cfi_def_cfa_register 7
 317 0006 0346     		mov	r3, r0
 318 0008 3960     		str	r1, [r7]
 319 000a FB71     		strb	r3, [r7, #7]
 319:USB_DEVICE/App/usbd_desc.c ****   UNUSED(speed);
 320:USB_DEVICE/App/usbd_desc.c ****   *length = USB_SIZ_STRING_SERIAL;
 320              		.loc 1 320 11
 321 000c 3B68     		ldr	r3, [r7]
 322 000e 1A22     		movs	r2, #26
 323 0010 1A80     		strh	r2, [r3]	@ movhi
 321:USB_DEVICE/App/usbd_desc.c **** 
 322:USB_DEVICE/App/usbd_desc.c ****   /* Update the serial number string descriptor with the data from the unique
 323:USB_DEVICE/App/usbd_desc.c ****    * ID */
 324:USB_DEVICE/App/usbd_desc.c ****   Get_SerialNum();
 324              		.loc 1 324 3
 325 0012 FFF7FEFF 		bl	Get_SerialNum
 325:USB_DEVICE/App/usbd_desc.c ****   /* USER CODE BEGIN USBD_FS_SerialStrDescriptor */
 326:USB_DEVICE/App/usbd_desc.c **** 
 327:USB_DEVICE/App/usbd_desc.c ****   /* USER CODE END USBD_FS_SerialStrDescriptor */
 328:USB_DEVICE/App/usbd_desc.c ****   return (uint8_t *) USBD_StringSerial;
 326              		.loc 1 328 10
 327 0016 024B     		ldr	r3, .L21
 329:USB_DEVICE/App/usbd_desc.c **** }
 328              		.loc 1 329 1
 329 0018 1846     		mov	r0, r3
 330 001a 0837     		adds	r7, r7, #8
 331              	.LCFI25:
 332              		.cfi_def_cfa_offset 8
 333 001c BD46     		mov	sp, r7
 334              	.LCFI26:
 335              		.cfi_def_cfa_register 13
 336              		@ sp needed
 337 001e 80BD     		pop	{r7, pc}
 338              	.L22:
 339              		.align	2
 340              	.L21:
 341 0020 00000000 		.word	USBD_StringSerial
 342              		.cfi_endproc
 343              	.LFE138:
 345              		.section	.rodata
 346 002b 00       		.align	2
 347              	.LC2:
 348 002c 43444320 		.ascii	"CDC Config\000"
 348      436F6E66 
 348      696700
 349              		.section	.text.USBD_FS_ConfigStrDescriptor,"ax",%progbits
 350              		.align	1
 351              		.global	USBD_FS_ConfigStrDescriptor
 352              		.syntax unified
 353              		.thumb
 354              		.thumb_func
 355              		.fpu fpv4-sp-d16
 357              	USBD_FS_ConfigStrDescriptor:
ARM GAS  /var/folders/vq/qt4vp3kd5rxf7v2b6_fdtdt80000gn/T//ccq7cW07.s 			page 13


 358              	.LFB139:
 330:USB_DEVICE/App/usbd_desc.c **** 
 331:USB_DEVICE/App/usbd_desc.c **** /**
 332:USB_DEVICE/App/usbd_desc.c ****   * @brief  Return the configuration string descriptor
 333:USB_DEVICE/App/usbd_desc.c ****   * @param  speed : Current device speed
 334:USB_DEVICE/App/usbd_desc.c ****   * @param  length : Pointer to data length variable
 335:USB_DEVICE/App/usbd_desc.c ****   * @retval Pointer to descriptor buffer
 336:USB_DEVICE/App/usbd_desc.c ****   */
 337:USB_DEVICE/App/usbd_desc.c **** uint8_t * USBD_FS_ConfigStrDescriptor(USBD_SpeedTypeDef speed, uint16_t *length)
 338:USB_DEVICE/App/usbd_desc.c **** {
 359              		.loc 1 338 1
 360              		.cfi_startproc
 361              		@ args = 0, pretend = 0, frame = 8
 362              		@ frame_needed = 1, uses_anonymous_args = 0
 363 0000 80B5     		push	{r7, lr}
 364              	.LCFI27:
 365              		.cfi_def_cfa_offset 8
 366              		.cfi_offset 7, -8
 367              		.cfi_offset 14, -4
 368 0002 82B0     		sub	sp, sp, #8
 369              	.LCFI28:
 370              		.cfi_def_cfa_offset 16
 371 0004 00AF     		add	r7, sp, #0
 372              	.LCFI29:
 373              		.cfi_def_cfa_register 7
 374 0006 0346     		mov	r3, r0
 375 0008 3960     		str	r1, [r7]
 376 000a FB71     		strb	r3, [r7, #7]
 339:USB_DEVICE/App/usbd_desc.c ****   if(speed == USBD_SPEED_HIGH)
 377              		.loc 1 339 5
 378 000c FB79     		ldrb	r3, [r7, #7]	@ zero_extendqisi2
 379 000e 002B     		cmp	r3, #0
 380 0010 05D1     		bne	.L24
 340:USB_DEVICE/App/usbd_desc.c ****   {
 341:USB_DEVICE/App/usbd_desc.c ****     USBD_GetString((uint8_t *)USBD_CONFIGURATION_STRING_FS, USBD_StrDesc, length);
 381              		.loc 1 341 5
 382 0012 3A68     		ldr	r2, [r7]
 383 0014 0749     		ldr	r1, .L27
 384 0016 0848     		ldr	r0, .L27+4
 385 0018 FFF7FEFF 		bl	USBD_GetString
 386 001c 04E0     		b	.L25
 387              	.L24:
 342:USB_DEVICE/App/usbd_desc.c ****   }
 343:USB_DEVICE/App/usbd_desc.c ****   else
 344:USB_DEVICE/App/usbd_desc.c ****   {
 345:USB_DEVICE/App/usbd_desc.c ****     USBD_GetString((uint8_t *)USBD_CONFIGURATION_STRING_FS, USBD_StrDesc, length);
 388              		.loc 1 345 5
 389 001e 3A68     		ldr	r2, [r7]
 390 0020 0449     		ldr	r1, .L27
 391 0022 0548     		ldr	r0, .L27+4
 392 0024 FFF7FEFF 		bl	USBD_GetString
 393              	.L25:
 346:USB_DEVICE/App/usbd_desc.c ****   }
 347:USB_DEVICE/App/usbd_desc.c ****   return USBD_StrDesc;
 394              		.loc 1 347 10
 395 0028 024B     		ldr	r3, .L27
 348:USB_DEVICE/App/usbd_desc.c **** }
ARM GAS  /var/folders/vq/qt4vp3kd5rxf7v2b6_fdtdt80000gn/T//ccq7cW07.s 			page 14


 396              		.loc 1 348 1
 397 002a 1846     		mov	r0, r3
 398 002c 0837     		adds	r7, r7, #8
 399              	.LCFI30:
 400              		.cfi_def_cfa_offset 8
 401 002e BD46     		mov	sp, r7
 402              	.LCFI31:
 403              		.cfi_def_cfa_register 13
 404              		@ sp needed
 405 0030 80BD     		pop	{r7, pc}
 406              	.L28:
 407 0032 00BF     		.align	2
 408              	.L27:
 409 0034 00000000 		.word	USBD_StrDesc
 410 0038 2C000000 		.word	.LC2
 411              		.cfi_endproc
 412              	.LFE139:
 414              		.section	.rodata
 415 0037 00       		.align	2
 416              	.LC3:
 417 0038 43444320 		.ascii	"CDC Interface\000"
 417      496E7465 
 417      72666163 
 417      6500
 418              		.section	.text.USBD_FS_InterfaceStrDescriptor,"ax",%progbits
 419              		.align	1
 420              		.global	USBD_FS_InterfaceStrDescriptor
 421              		.syntax unified
 422              		.thumb
 423              		.thumb_func
 424              		.fpu fpv4-sp-d16
 426              	USBD_FS_InterfaceStrDescriptor:
 427              	.LFB140:
 349:USB_DEVICE/App/usbd_desc.c **** 
 350:USB_DEVICE/App/usbd_desc.c **** /**
 351:USB_DEVICE/App/usbd_desc.c ****   * @brief  Return the interface string descriptor
 352:USB_DEVICE/App/usbd_desc.c ****   * @param  speed : Current device speed
 353:USB_DEVICE/App/usbd_desc.c ****   * @param  length : Pointer to data length variable
 354:USB_DEVICE/App/usbd_desc.c ****   * @retval Pointer to descriptor buffer
 355:USB_DEVICE/App/usbd_desc.c ****   */
 356:USB_DEVICE/App/usbd_desc.c **** uint8_t * USBD_FS_InterfaceStrDescriptor(USBD_SpeedTypeDef speed, uint16_t *length)
 357:USB_DEVICE/App/usbd_desc.c **** {
 428              		.loc 1 357 1
 429              		.cfi_startproc
 430              		@ args = 0, pretend = 0, frame = 8
 431              		@ frame_needed = 1, uses_anonymous_args = 0
 432 0000 80B5     		push	{r7, lr}
 433              	.LCFI32:
 434              		.cfi_def_cfa_offset 8
 435              		.cfi_offset 7, -8
 436              		.cfi_offset 14, -4
 437 0002 82B0     		sub	sp, sp, #8
 438              	.LCFI33:
 439              		.cfi_def_cfa_offset 16
 440 0004 00AF     		add	r7, sp, #0
 441              	.LCFI34:
 442              		.cfi_def_cfa_register 7
ARM GAS  /var/folders/vq/qt4vp3kd5rxf7v2b6_fdtdt80000gn/T//ccq7cW07.s 			page 15


 443 0006 0346     		mov	r3, r0
 444 0008 3960     		str	r1, [r7]
 445 000a FB71     		strb	r3, [r7, #7]
 358:USB_DEVICE/App/usbd_desc.c ****   if(speed == 0)
 446              		.loc 1 358 5
 447 000c FB79     		ldrb	r3, [r7, #7]	@ zero_extendqisi2
 448 000e 002B     		cmp	r3, #0
 449 0010 05D1     		bne	.L30
 359:USB_DEVICE/App/usbd_desc.c ****   {
 360:USB_DEVICE/App/usbd_desc.c ****     USBD_GetString((uint8_t *)USBD_INTERFACE_STRING_FS, USBD_StrDesc, length);
 450              		.loc 1 360 5
 451 0012 3A68     		ldr	r2, [r7]
 452 0014 0749     		ldr	r1, .L33
 453 0016 0848     		ldr	r0, .L33+4
 454 0018 FFF7FEFF 		bl	USBD_GetString
 455 001c 04E0     		b	.L31
 456              	.L30:
 361:USB_DEVICE/App/usbd_desc.c ****   }
 362:USB_DEVICE/App/usbd_desc.c ****   else
 363:USB_DEVICE/App/usbd_desc.c ****   {
 364:USB_DEVICE/App/usbd_desc.c ****     USBD_GetString((uint8_t *)USBD_INTERFACE_STRING_FS, USBD_StrDesc, length);
 457              		.loc 1 364 5
 458 001e 3A68     		ldr	r2, [r7]
 459 0020 0449     		ldr	r1, .L33
 460 0022 0548     		ldr	r0, .L33+4
 461 0024 FFF7FEFF 		bl	USBD_GetString
 462              	.L31:
 365:USB_DEVICE/App/usbd_desc.c ****   }
 366:USB_DEVICE/App/usbd_desc.c ****   return USBD_StrDesc;
 463              		.loc 1 366 10
 464 0028 024B     		ldr	r3, .L33
 367:USB_DEVICE/App/usbd_desc.c **** }
 465              		.loc 1 367 1
 466 002a 1846     		mov	r0, r3
 467 002c 0837     		adds	r7, r7, #8
 468              	.LCFI35:
 469              		.cfi_def_cfa_offset 8
 470 002e BD46     		mov	sp, r7
 471              	.LCFI36:
 472              		.cfi_def_cfa_register 13
 473              		@ sp needed
 474 0030 80BD     		pop	{r7, pc}
 475              	.L34:
 476 0032 00BF     		.align	2
 477              	.L33:
 478 0034 00000000 		.word	USBD_StrDesc
 479 0038 38000000 		.word	.LC3
 480              		.cfi_endproc
 481              	.LFE140:
 483              		.section	.text.Get_SerialNum,"ax",%progbits
 484              		.align	1
 485              		.syntax unified
 486              		.thumb
 487              		.thumb_func
 488              		.fpu fpv4-sp-d16
 490              	Get_SerialNum:
 491              	.LFB141:
ARM GAS  /var/folders/vq/qt4vp3kd5rxf7v2b6_fdtdt80000gn/T//ccq7cW07.s 			page 16


 368:USB_DEVICE/App/usbd_desc.c **** 
 369:USB_DEVICE/App/usbd_desc.c **** #if (USBD_LPM_ENABLED == 1)
 370:USB_DEVICE/App/usbd_desc.c **** /**
 371:USB_DEVICE/App/usbd_desc.c ****   * @brief  Return the BOS descriptor
 372:USB_DEVICE/App/usbd_desc.c ****   * @param  speed : Current device speed
 373:USB_DEVICE/App/usbd_desc.c ****   * @param  length : Pointer to data length variable
 374:USB_DEVICE/App/usbd_desc.c ****   * @retval Pointer to descriptor buffer
 375:USB_DEVICE/App/usbd_desc.c ****   */
 376:USB_DEVICE/App/usbd_desc.c **** uint8_t * USBD_FS_USR_BOSDescriptor(USBD_SpeedTypeDef speed, uint16_t *length)
 377:USB_DEVICE/App/usbd_desc.c **** {
 378:USB_DEVICE/App/usbd_desc.c ****   UNUSED(speed);
 379:USB_DEVICE/App/usbd_desc.c ****   *length = sizeof(USBD_FS_BOSDesc);
 380:USB_DEVICE/App/usbd_desc.c ****   return (uint8_t*)USBD_FS_BOSDesc;
 381:USB_DEVICE/App/usbd_desc.c **** }
 382:USB_DEVICE/App/usbd_desc.c **** #endif /* (USBD_LPM_ENABLED == 1) */
 383:USB_DEVICE/App/usbd_desc.c **** 
 384:USB_DEVICE/App/usbd_desc.c **** /**
 385:USB_DEVICE/App/usbd_desc.c ****   * @brief  Create the serial number string descriptor
 386:USB_DEVICE/App/usbd_desc.c ****   * @param  None
 387:USB_DEVICE/App/usbd_desc.c ****   * @retval None
 388:USB_DEVICE/App/usbd_desc.c ****   */
 389:USB_DEVICE/App/usbd_desc.c **** static void Get_SerialNum(void)
 390:USB_DEVICE/App/usbd_desc.c **** {
 492              		.loc 1 390 1
 493              		.cfi_startproc
 494              		@ args = 0, pretend = 0, frame = 16
 495              		@ frame_needed = 1, uses_anonymous_args = 0
 496 0000 80B5     		push	{r7, lr}
 497              	.LCFI37:
 498              		.cfi_def_cfa_offset 8
 499              		.cfi_offset 7, -8
 500              		.cfi_offset 14, -4
 501 0002 84B0     		sub	sp, sp, #16
 502              	.LCFI38:
 503              		.cfi_def_cfa_offset 24
 504 0004 00AF     		add	r7, sp, #0
 505              	.LCFI39:
 506              		.cfi_def_cfa_register 7
 391:USB_DEVICE/App/usbd_desc.c ****   uint32_t deviceserial0, deviceserial1, deviceserial2;
 392:USB_DEVICE/App/usbd_desc.c **** 
 393:USB_DEVICE/App/usbd_desc.c ****   deviceserial0 = *(uint32_t *) DEVICE_ID1;
 507              		.loc 1 393 19
 508 0006 0F4B     		ldr	r3, .L38
 509              		.loc 1 393 17
 510 0008 1B68     		ldr	r3, [r3]
 511 000a FB60     		str	r3, [r7, #12]
 394:USB_DEVICE/App/usbd_desc.c ****   deviceserial1 = *(uint32_t *) DEVICE_ID2;
 512              		.loc 1 394 19
 513 000c 0E4B     		ldr	r3, .L38+4
 514              		.loc 1 394 17
 515 000e 1B68     		ldr	r3, [r3]
 516 0010 BB60     		str	r3, [r7, #8]
 395:USB_DEVICE/App/usbd_desc.c ****   deviceserial2 = *(uint32_t *) DEVICE_ID3;
 517              		.loc 1 395 19
 518 0012 0E4B     		ldr	r3, .L38+8
 519              		.loc 1 395 17
 520 0014 1B68     		ldr	r3, [r3]
ARM GAS  /var/folders/vq/qt4vp3kd5rxf7v2b6_fdtdt80000gn/T//ccq7cW07.s 			page 17


 521 0016 7B60     		str	r3, [r7, #4]
 396:USB_DEVICE/App/usbd_desc.c **** 
 397:USB_DEVICE/App/usbd_desc.c ****   deviceserial0 += deviceserial2;
 522              		.loc 1 397 17
 523 0018 FA68     		ldr	r2, [r7, #12]
 524 001a 7B68     		ldr	r3, [r7, #4]
 525 001c 1344     		add	r3, r3, r2
 526 001e FB60     		str	r3, [r7, #12]
 398:USB_DEVICE/App/usbd_desc.c **** 
 399:USB_DEVICE/App/usbd_desc.c ****   if (deviceserial0 != 0)
 527              		.loc 1 399 6
 528 0020 FB68     		ldr	r3, [r7, #12]
 529 0022 002B     		cmp	r3, #0
 530 0024 09D0     		beq	.L37
 400:USB_DEVICE/App/usbd_desc.c ****   {
 401:USB_DEVICE/App/usbd_desc.c ****     IntToUnicode(deviceserial0, &USBD_StringSerial[2], 8);
 531              		.loc 1 401 5
 532 0026 0822     		movs	r2, #8
 533 0028 0949     		ldr	r1, .L38+12
 534 002a F868     		ldr	r0, [r7, #12]
 535 002c FFF7FEFF 		bl	IntToUnicode
 402:USB_DEVICE/App/usbd_desc.c ****     IntToUnicode(deviceserial1, &USBD_StringSerial[18], 4);
 536              		.loc 1 402 5
 537 0030 0422     		movs	r2, #4
 538 0032 0849     		ldr	r1, .L38+16
 539 0034 B868     		ldr	r0, [r7, #8]
 540 0036 FFF7FEFF 		bl	IntToUnicode
 541              	.L37:
 403:USB_DEVICE/App/usbd_desc.c ****   }
 404:USB_DEVICE/App/usbd_desc.c **** }
 542              		.loc 1 404 1
 543 003a 00BF     		nop
 544 003c 1037     		adds	r7, r7, #16
 545              	.LCFI40:
 546              		.cfi_def_cfa_offset 8
 547 003e BD46     		mov	sp, r7
 548              	.LCFI41:
 549              		.cfi_def_cfa_register 13
 550              		@ sp needed
 551 0040 80BD     		pop	{r7, pc}
 552              	.L39:
 553 0042 00BF     		.align	2
 554              	.L38:
 555 0044 107AFF1F 		.word	536836624
 556 0048 147AFF1F 		.word	536836628
 557 004c 187AFF1F 		.word	536836632
 558 0050 02000000 		.word	USBD_StringSerial+2
 559 0054 12000000 		.word	USBD_StringSerial+18
 560              		.cfi_endproc
 561              	.LFE141:
 563              		.section	.text.IntToUnicode,"ax",%progbits
 564              		.align	1
 565              		.syntax unified
 566              		.thumb
 567              		.thumb_func
 568              		.fpu fpv4-sp-d16
 570              	IntToUnicode:
ARM GAS  /var/folders/vq/qt4vp3kd5rxf7v2b6_fdtdt80000gn/T//ccq7cW07.s 			page 18


 571              	.LFB142:
 405:USB_DEVICE/App/usbd_desc.c **** 
 406:USB_DEVICE/App/usbd_desc.c **** /**
 407:USB_DEVICE/App/usbd_desc.c ****   * @brief  Convert Hex 32Bits value into char
 408:USB_DEVICE/App/usbd_desc.c ****   * @param  value: value to convert
 409:USB_DEVICE/App/usbd_desc.c ****   * @param  pbuf: pointer to the buffer
 410:USB_DEVICE/App/usbd_desc.c ****   * @param  len: buffer length
 411:USB_DEVICE/App/usbd_desc.c ****   * @retval None
 412:USB_DEVICE/App/usbd_desc.c ****   */
 413:USB_DEVICE/App/usbd_desc.c **** static void IntToUnicode(uint32_t value, uint8_t * pbuf, uint8_t len)
 414:USB_DEVICE/App/usbd_desc.c **** {
 572              		.loc 1 414 1
 573              		.cfi_startproc
 574              		@ args = 0, pretend = 0, frame = 24
 575              		@ frame_needed = 1, uses_anonymous_args = 0
 576              		@ link register save eliminated.
 577 0000 80B4     		push	{r7}
 578              	.LCFI42:
 579              		.cfi_def_cfa_offset 4
 580              		.cfi_offset 7, -4
 581 0002 87B0     		sub	sp, sp, #28
 582              	.LCFI43:
 583              		.cfi_def_cfa_offset 32
 584 0004 00AF     		add	r7, sp, #0
 585              	.LCFI44:
 586              		.cfi_def_cfa_register 7
 587 0006 F860     		str	r0, [r7, #12]
 588 0008 B960     		str	r1, [r7, #8]
 589 000a 1346     		mov	r3, r2
 590 000c FB71     		strb	r3, [r7, #7]
 415:USB_DEVICE/App/usbd_desc.c ****   uint8_t idx = 0;
 591              		.loc 1 415 11
 592 000e 0023     		movs	r3, #0
 593 0010 FB75     		strb	r3, [r7, #23]
 416:USB_DEVICE/App/usbd_desc.c **** 
 417:USB_DEVICE/App/usbd_desc.c ****   for (idx = 0; idx < len; idx++)
 594              		.loc 1 417 12
 595 0012 0023     		movs	r3, #0
 596 0014 FB75     		strb	r3, [r7, #23]
 597              		.loc 1 417 3
 598 0016 27E0     		b	.L41
 599              	.L44:
 418:USB_DEVICE/App/usbd_desc.c ****   {
 419:USB_DEVICE/App/usbd_desc.c ****     if (((value >> 28)) < 0xA)
 600              		.loc 1 419 17
 601 0018 FB68     		ldr	r3, [r7, #12]
 602 001a 1B0F     		lsrs	r3, r3, #28
 603              		.loc 1 419 8
 604 001c 092B     		cmp	r3, #9
 605 001e 0BD8     		bhi	.L42
 420:USB_DEVICE/App/usbd_desc.c ****     {
 421:USB_DEVICE/App/usbd_desc.c ****       pbuf[2 * idx] = (value >> 28) + '0';
 606              		.loc 1 421 30
 607 0020 FB68     		ldr	r3, [r7, #12]
 608 0022 1B0F     		lsrs	r3, r3, #28
 609              		.loc 1 421 37
 610 0024 DAB2     		uxtb	r2, r3
ARM GAS  /var/folders/vq/qt4vp3kd5rxf7v2b6_fdtdt80000gn/T//ccq7cW07.s 			page 19


 611              		.loc 1 421 14
 612 0026 FB7D     		ldrb	r3, [r7, #23]	@ zero_extendqisi2
 613 0028 5B00     		lsls	r3, r3, #1
 614 002a 1946     		mov	r1, r3
 615              		.loc 1 421 11
 616 002c BB68     		ldr	r3, [r7, #8]
 617 002e 0B44     		add	r3, r3, r1
 618              		.loc 1 421 37
 619 0030 3032     		adds	r2, r2, #48
 620 0032 D2B2     		uxtb	r2, r2
 621              		.loc 1 421 21
 622 0034 1A70     		strb	r2, [r3]
 623 0036 0AE0     		b	.L43
 624              	.L42:
 422:USB_DEVICE/App/usbd_desc.c ****     }
 423:USB_DEVICE/App/usbd_desc.c ****     else
 424:USB_DEVICE/App/usbd_desc.c ****     {
 425:USB_DEVICE/App/usbd_desc.c ****       pbuf[2 * idx] = (value >> 28) + 'A' - 10;
 625              		.loc 1 425 30
 626 0038 FB68     		ldr	r3, [r7, #12]
 627 003a 1B0F     		lsrs	r3, r3, #28
 628              		.loc 1 425 43
 629 003c DAB2     		uxtb	r2, r3
 630              		.loc 1 425 14
 631 003e FB7D     		ldrb	r3, [r7, #23]	@ zero_extendqisi2
 632 0040 5B00     		lsls	r3, r3, #1
 633 0042 1946     		mov	r1, r3
 634              		.loc 1 425 11
 635 0044 BB68     		ldr	r3, [r7, #8]
 636 0046 0B44     		add	r3, r3, r1
 637              		.loc 1 425 43
 638 0048 3732     		adds	r2, r2, #55
 639 004a D2B2     		uxtb	r2, r2
 640              		.loc 1 425 21
 641 004c 1A70     		strb	r2, [r3]
 642              	.L43:
 426:USB_DEVICE/App/usbd_desc.c ****     }
 427:USB_DEVICE/App/usbd_desc.c **** 
 428:USB_DEVICE/App/usbd_desc.c ****     value = value << 4;
 643              		.loc 1 428 11 discriminator 2
 644 004e FB68     		ldr	r3, [r7, #12]
 645 0050 1B01     		lsls	r3, r3, #4
 646 0052 FB60     		str	r3, [r7, #12]
 429:USB_DEVICE/App/usbd_desc.c **** 
 430:USB_DEVICE/App/usbd_desc.c ****     pbuf[2 * idx + 1] = 0;
 647              		.loc 1 430 12 discriminator 2
 648 0054 FB7D     		ldrb	r3, [r7, #23]	@ zero_extendqisi2
 649 0056 5B00     		lsls	r3, r3, #1
 650              		.loc 1 430 9 discriminator 2
 651 0058 0133     		adds	r3, r3, #1
 652 005a BA68     		ldr	r2, [r7, #8]
 653 005c 1344     		add	r3, r3, r2
 654              		.loc 1 430 23 discriminator 2
 655 005e 0022     		movs	r2, #0
 656 0060 1A70     		strb	r2, [r3]
 417:USB_DEVICE/App/usbd_desc.c ****   {
 657              		.loc 1 417 31 discriminator 2
ARM GAS  /var/folders/vq/qt4vp3kd5rxf7v2b6_fdtdt80000gn/T//ccq7cW07.s 			page 20


 658 0062 FB7D     		ldrb	r3, [r7, #23]	@ zero_extendqisi2
 659 0064 0133     		adds	r3, r3, #1
 660 0066 FB75     		strb	r3, [r7, #23]
 661              	.L41:
 417:USB_DEVICE/App/usbd_desc.c ****   {
 662              		.loc 1 417 3 discriminator 1
 663 0068 FA7D     		ldrb	r2, [r7, #23]	@ zero_extendqisi2
 664 006a FB79     		ldrb	r3, [r7, #7]	@ zero_extendqisi2
 665 006c 9A42     		cmp	r2, r3
 666 006e D3D3     		bcc	.L44
 431:USB_DEVICE/App/usbd_desc.c ****   }
 432:USB_DEVICE/App/usbd_desc.c **** }
 667              		.loc 1 432 1
 668 0070 00BF     		nop
 669 0072 00BF     		nop
 670 0074 1C37     		adds	r7, r7, #28
 671              	.LCFI45:
 672              		.cfi_def_cfa_offset 4
 673 0076 BD46     		mov	sp, r7
 674              	.LCFI46:
 675              		.cfi_def_cfa_register 13
 676              		@ sp needed
 677 0078 5DF8047B 		ldr	r7, [sp], #4
 678              	.LCFI47:
 679              		.cfi_restore 7
 680              		.cfi_def_cfa_offset 0
 681 007c 7047     		bx	lr
 682              		.cfi_endproc
 683              	.LFE142:
 685              		.text
 686              	.Letext0:
 687              		.file 2 "/usr/local/Cellar/arm-none-eabi-gcc/9-2019-q4-major/gcc/arm-none-eabi/include/machine/_de
 688              		.file 3 "/usr/local/Cellar/arm-none-eabi-gcc/9-2019-q4-major/gcc/arm-none-eabi/include/sys/lock.h"
 689              		.file 4 "/usr/local/Cellar/arm-none-eabi-gcc/9-2019-q4-major/gcc/arm-none-eabi/include/sys/_types.
 690              		.file 5 "/usr/local/Cellar/arm-none-eabi-gcc/9-2019-q4-major/gcc/lib/gcc/arm-none-eabi/9.2.1/inclu
 691              		.file 6 "/usr/local/Cellar/arm-none-eabi-gcc/9-2019-q4-major/gcc/arm-none-eabi/include/sys/reent.h
 692              		.file 7 "/usr/local/Cellar/arm-none-eabi-gcc/9-2019-q4-major/gcc/arm-none-eabi/include/sys/_stdint
 693              		.file 8 "/usr/local/Cellar/arm-none-eabi-gcc/9-2019-q4-major/gcc/arm-none-eabi/include/stdlib.h"
 694              		.file 9 "Drivers/CMSIS/Include/core_cm4.h"
 695              		.file 10 "Drivers/CMSIS/Device/ST/STM32F4xx/Include/system_stm32f4xx.h"
 696              		.file 11 "Drivers/STM32F4xx_HAL_Driver/Inc/stm32f4xx_hal.h"
 697              		.file 12 "Middlewares/ST/STM32_USB_Device_Library/Core/Inc/usbd_def.h"
 698              		.file 13 "USB_DEVICE/App/usbd_desc.h"
ARM GAS  /var/folders/vq/qt4vp3kd5rxf7v2b6_fdtdt80000gn/T//ccq7cW07.s 			page 21

