ARM GAS  /var/folders/vq/qt4vp3kd5rxf7v2b6_fdtdt80000gn/T//ccjnR4Ke.s 			page 1


   1              		.cpu cortex-m4
   2              		.eabi_attribute 27, 1
   3              		.eabi_attribute 28, 1
   4              		.eabi_attribute 20, 1
   5              		.eabi_attribute 21, 1
   6              		.eabi_attribute 23, 3
   7              		.eabi_attribute 24, 1
   8              		.eabi_attribute 25, 1
   9              		.eabi_attribute 26, 1
  10              		.eabi_attribute 30, 6
  11              		.eabi_attribute 34, 1
  12              		.eabi_attribute 18, 4
  13              		.file	"usbd_ctlreq.c"
  14              		.text
  15              	.Ltext0:
  16              		.cfi_sections	.debug_frame
  17              		.section	.text.SWAPBYTE,"ax",%progbits
  18              		.align	1
  19              		.arch armv7e-m
  20              		.syntax unified
  21              		.thumb
  22              		.thumb_func
  23              		.fpu fpv4-sp-d16
  25              	SWAPBYTE:
  26              	.LFB133:
  27              		.file 1 "Middlewares/ST/STM32_USB_Device_Library/Core/Inc/usbd_def.h"
   1:Middlewares/ST/STM32_USB_Device_Library/Core/Inc/usbd_def.h **** /**
   2:Middlewares/ST/STM32_USB_Device_Library/Core/Inc/usbd_def.h ****   ******************************************************************************
   3:Middlewares/ST/STM32_USB_Device_Library/Core/Inc/usbd_def.h ****   * @file    usbd_def.h
   4:Middlewares/ST/STM32_USB_Device_Library/Core/Inc/usbd_def.h ****   * @author  MCD Application Team
   5:Middlewares/ST/STM32_USB_Device_Library/Core/Inc/usbd_def.h ****   * @brief   General defines for the usb device library
   6:Middlewares/ST/STM32_USB_Device_Library/Core/Inc/usbd_def.h ****   ******************************************************************************
   7:Middlewares/ST/STM32_USB_Device_Library/Core/Inc/usbd_def.h ****   * @attention
   8:Middlewares/ST/STM32_USB_Device_Library/Core/Inc/usbd_def.h ****   *
   9:Middlewares/ST/STM32_USB_Device_Library/Core/Inc/usbd_def.h ****   * <h2><center>&copy; Copyright (c) 2015 STMicroelectronics.
  10:Middlewares/ST/STM32_USB_Device_Library/Core/Inc/usbd_def.h ****   * All rights reserved.</center></h2>
  11:Middlewares/ST/STM32_USB_Device_Library/Core/Inc/usbd_def.h ****   *
  12:Middlewares/ST/STM32_USB_Device_Library/Core/Inc/usbd_def.h ****   * This software component is licensed by ST under Ultimate Liberty license
  13:Middlewares/ST/STM32_USB_Device_Library/Core/Inc/usbd_def.h ****   * SLA0044, the "License"; You may not use this file except in compliance with
  14:Middlewares/ST/STM32_USB_Device_Library/Core/Inc/usbd_def.h ****   * the License. You may obtain a copy of the License at:
  15:Middlewares/ST/STM32_USB_Device_Library/Core/Inc/usbd_def.h ****   *                      www.st.com/SLA0044
  16:Middlewares/ST/STM32_USB_Device_Library/Core/Inc/usbd_def.h ****   *
  17:Middlewares/ST/STM32_USB_Device_Library/Core/Inc/usbd_def.h ****   ******************************************************************************
  18:Middlewares/ST/STM32_USB_Device_Library/Core/Inc/usbd_def.h ****   */
  19:Middlewares/ST/STM32_USB_Device_Library/Core/Inc/usbd_def.h **** 
  20:Middlewares/ST/STM32_USB_Device_Library/Core/Inc/usbd_def.h **** /* Define to prevent recursive inclusion -------------------------------------*/
  21:Middlewares/ST/STM32_USB_Device_Library/Core/Inc/usbd_def.h **** #ifndef __USBD_DEF_H
  22:Middlewares/ST/STM32_USB_Device_Library/Core/Inc/usbd_def.h **** #define __USBD_DEF_H
  23:Middlewares/ST/STM32_USB_Device_Library/Core/Inc/usbd_def.h **** 
  24:Middlewares/ST/STM32_USB_Device_Library/Core/Inc/usbd_def.h **** #ifdef __cplusplus
  25:Middlewares/ST/STM32_USB_Device_Library/Core/Inc/usbd_def.h **** extern "C" {
  26:Middlewares/ST/STM32_USB_Device_Library/Core/Inc/usbd_def.h **** #endif
  27:Middlewares/ST/STM32_USB_Device_Library/Core/Inc/usbd_def.h **** 
  28:Middlewares/ST/STM32_USB_Device_Library/Core/Inc/usbd_def.h **** /* Includes ------------------------------------------------------------------*/
  29:Middlewares/ST/STM32_USB_Device_Library/Core/Inc/usbd_def.h **** #include "usbd_conf.h"
  30:Middlewares/ST/STM32_USB_Device_Library/Core/Inc/usbd_def.h **** 
  31:Middlewares/ST/STM32_USB_Device_Library/Core/Inc/usbd_def.h **** /** @addtogroup STM32_USBD_DEVICE_LIBRARY
ARM GAS  /var/folders/vq/qt4vp3kd5rxf7v2b6_fdtdt80000gn/T//ccjnR4Ke.s 			page 2


  32:Middlewares/ST/STM32_USB_Device_Library/Core/Inc/usbd_def.h ****   * @{
  33:Middlewares/ST/STM32_USB_Device_Library/Core/Inc/usbd_def.h ****   */
  34:Middlewares/ST/STM32_USB_Device_Library/Core/Inc/usbd_def.h **** 
  35:Middlewares/ST/STM32_USB_Device_Library/Core/Inc/usbd_def.h **** /** @defgroup USB_DEF
  36:Middlewares/ST/STM32_USB_Device_Library/Core/Inc/usbd_def.h ****   * @brief general defines for the usb device library file
  37:Middlewares/ST/STM32_USB_Device_Library/Core/Inc/usbd_def.h ****   * @{
  38:Middlewares/ST/STM32_USB_Device_Library/Core/Inc/usbd_def.h ****   */
  39:Middlewares/ST/STM32_USB_Device_Library/Core/Inc/usbd_def.h **** 
  40:Middlewares/ST/STM32_USB_Device_Library/Core/Inc/usbd_def.h **** /** @defgroup USB_DEF_Exported_Defines
  41:Middlewares/ST/STM32_USB_Device_Library/Core/Inc/usbd_def.h ****   * @{
  42:Middlewares/ST/STM32_USB_Device_Library/Core/Inc/usbd_def.h ****   */
  43:Middlewares/ST/STM32_USB_Device_Library/Core/Inc/usbd_def.h **** 
  44:Middlewares/ST/STM32_USB_Device_Library/Core/Inc/usbd_def.h **** #ifndef NULL
  45:Middlewares/ST/STM32_USB_Device_Library/Core/Inc/usbd_def.h **** #define NULL                                            0U
  46:Middlewares/ST/STM32_USB_Device_Library/Core/Inc/usbd_def.h **** #endif /* NULL */
  47:Middlewares/ST/STM32_USB_Device_Library/Core/Inc/usbd_def.h **** 
  48:Middlewares/ST/STM32_USB_Device_Library/Core/Inc/usbd_def.h **** #ifndef USBD_MAX_NUM_INTERFACES
  49:Middlewares/ST/STM32_USB_Device_Library/Core/Inc/usbd_def.h **** #define USBD_MAX_NUM_INTERFACES                         1U
  50:Middlewares/ST/STM32_USB_Device_Library/Core/Inc/usbd_def.h **** #endif /* USBD_MAX_NUM_CONFIGURATION */
  51:Middlewares/ST/STM32_USB_Device_Library/Core/Inc/usbd_def.h **** 
  52:Middlewares/ST/STM32_USB_Device_Library/Core/Inc/usbd_def.h **** #ifndef USBD_MAX_NUM_CONFIGURATION
  53:Middlewares/ST/STM32_USB_Device_Library/Core/Inc/usbd_def.h **** #define USBD_MAX_NUM_CONFIGURATION                      1U
  54:Middlewares/ST/STM32_USB_Device_Library/Core/Inc/usbd_def.h **** #endif /* USBD_MAX_NUM_CONFIGURATION */
  55:Middlewares/ST/STM32_USB_Device_Library/Core/Inc/usbd_def.h **** 
  56:Middlewares/ST/STM32_USB_Device_Library/Core/Inc/usbd_def.h **** #ifndef USBD_LPM_ENABLED
  57:Middlewares/ST/STM32_USB_Device_Library/Core/Inc/usbd_def.h **** #define USBD_LPM_ENABLED                                0U
  58:Middlewares/ST/STM32_USB_Device_Library/Core/Inc/usbd_def.h **** #endif /* USBD_LPM_ENABLED */
  59:Middlewares/ST/STM32_USB_Device_Library/Core/Inc/usbd_def.h **** 
  60:Middlewares/ST/STM32_USB_Device_Library/Core/Inc/usbd_def.h **** #ifndef USBD_SELF_POWERED
  61:Middlewares/ST/STM32_USB_Device_Library/Core/Inc/usbd_def.h **** #define USBD_SELF_POWERED                               1U
  62:Middlewares/ST/STM32_USB_Device_Library/Core/Inc/usbd_def.h **** #endif /*USBD_SELF_POWERED */
  63:Middlewares/ST/STM32_USB_Device_Library/Core/Inc/usbd_def.h **** 
  64:Middlewares/ST/STM32_USB_Device_Library/Core/Inc/usbd_def.h **** #ifndef USBD_MAX_POWER
  65:Middlewares/ST/STM32_USB_Device_Library/Core/Inc/usbd_def.h **** #define USBD_MAX_POWER                                  0x32U /* 100 mA */
  66:Middlewares/ST/STM32_USB_Device_Library/Core/Inc/usbd_def.h **** #endif /* USBD_MAX_POWER */
  67:Middlewares/ST/STM32_USB_Device_Library/Core/Inc/usbd_def.h **** 
  68:Middlewares/ST/STM32_USB_Device_Library/Core/Inc/usbd_def.h **** #ifndef USBD_SUPPORT_USER_STRING_DESC
  69:Middlewares/ST/STM32_USB_Device_Library/Core/Inc/usbd_def.h **** #define USBD_SUPPORT_USER_STRING_DESC                   0U
  70:Middlewares/ST/STM32_USB_Device_Library/Core/Inc/usbd_def.h **** #endif /* USBD_SUPPORT_USER_STRING_DESC */
  71:Middlewares/ST/STM32_USB_Device_Library/Core/Inc/usbd_def.h **** 
  72:Middlewares/ST/STM32_USB_Device_Library/Core/Inc/usbd_def.h **** #ifndef USBD_CLASS_USER_STRING_DESC
  73:Middlewares/ST/STM32_USB_Device_Library/Core/Inc/usbd_def.h **** #define USBD_CLASS_USER_STRING_DESC                     0U
  74:Middlewares/ST/STM32_USB_Device_Library/Core/Inc/usbd_def.h **** #endif /* USBD_CLASS_USER_STRING_DESC */
  75:Middlewares/ST/STM32_USB_Device_Library/Core/Inc/usbd_def.h **** 
  76:Middlewares/ST/STM32_USB_Device_Library/Core/Inc/usbd_def.h **** #define  USB_LEN_DEV_QUALIFIER_DESC                     0x0AU
  77:Middlewares/ST/STM32_USB_Device_Library/Core/Inc/usbd_def.h **** #define  USB_LEN_DEV_DESC                               0x12U
  78:Middlewares/ST/STM32_USB_Device_Library/Core/Inc/usbd_def.h **** #define  USB_LEN_CFG_DESC                               0x09U
  79:Middlewares/ST/STM32_USB_Device_Library/Core/Inc/usbd_def.h **** #define  USB_LEN_IF_DESC                                0x09U
  80:Middlewares/ST/STM32_USB_Device_Library/Core/Inc/usbd_def.h **** #define  USB_LEN_EP_DESC                                0x07U
  81:Middlewares/ST/STM32_USB_Device_Library/Core/Inc/usbd_def.h **** #define  USB_LEN_OTG_DESC                               0x03U
  82:Middlewares/ST/STM32_USB_Device_Library/Core/Inc/usbd_def.h **** #define  USB_LEN_LANGID_STR_DESC                        0x04U
  83:Middlewares/ST/STM32_USB_Device_Library/Core/Inc/usbd_def.h **** #define  USB_LEN_OTHER_SPEED_DESC_SIZ                   0x09U
  84:Middlewares/ST/STM32_USB_Device_Library/Core/Inc/usbd_def.h **** 
  85:Middlewares/ST/STM32_USB_Device_Library/Core/Inc/usbd_def.h **** #define  USBD_IDX_LANGID_STR                            0x00U
  86:Middlewares/ST/STM32_USB_Device_Library/Core/Inc/usbd_def.h **** #define  USBD_IDX_MFC_STR                               0x01U
  87:Middlewares/ST/STM32_USB_Device_Library/Core/Inc/usbd_def.h **** #define  USBD_IDX_PRODUCT_STR                           0x02U
  88:Middlewares/ST/STM32_USB_Device_Library/Core/Inc/usbd_def.h **** #define  USBD_IDX_SERIAL_STR                            0x03U
ARM GAS  /var/folders/vq/qt4vp3kd5rxf7v2b6_fdtdt80000gn/T//ccjnR4Ke.s 			page 3


  89:Middlewares/ST/STM32_USB_Device_Library/Core/Inc/usbd_def.h **** #define  USBD_IDX_CONFIG_STR                            0x04U
  90:Middlewares/ST/STM32_USB_Device_Library/Core/Inc/usbd_def.h **** #define  USBD_IDX_INTERFACE_STR                         0x05U
  91:Middlewares/ST/STM32_USB_Device_Library/Core/Inc/usbd_def.h **** 
  92:Middlewares/ST/STM32_USB_Device_Library/Core/Inc/usbd_def.h **** #define  USB_REQ_TYPE_STANDARD                          0x00U
  93:Middlewares/ST/STM32_USB_Device_Library/Core/Inc/usbd_def.h **** #define  USB_REQ_TYPE_CLASS                             0x20U
  94:Middlewares/ST/STM32_USB_Device_Library/Core/Inc/usbd_def.h **** #define  USB_REQ_TYPE_VENDOR                            0x40U
  95:Middlewares/ST/STM32_USB_Device_Library/Core/Inc/usbd_def.h **** #define  USB_REQ_TYPE_MASK                              0x60U
  96:Middlewares/ST/STM32_USB_Device_Library/Core/Inc/usbd_def.h **** 
  97:Middlewares/ST/STM32_USB_Device_Library/Core/Inc/usbd_def.h **** #define  USB_REQ_RECIPIENT_DEVICE                       0x00U
  98:Middlewares/ST/STM32_USB_Device_Library/Core/Inc/usbd_def.h **** #define  USB_REQ_RECIPIENT_INTERFACE                    0x01U
  99:Middlewares/ST/STM32_USB_Device_Library/Core/Inc/usbd_def.h **** #define  USB_REQ_RECIPIENT_ENDPOINT                     0x02U
 100:Middlewares/ST/STM32_USB_Device_Library/Core/Inc/usbd_def.h **** #define  USB_REQ_RECIPIENT_MASK                         0x03U
 101:Middlewares/ST/STM32_USB_Device_Library/Core/Inc/usbd_def.h **** 
 102:Middlewares/ST/STM32_USB_Device_Library/Core/Inc/usbd_def.h **** #define  USB_REQ_GET_STATUS                             0x00U
 103:Middlewares/ST/STM32_USB_Device_Library/Core/Inc/usbd_def.h **** #define  USB_REQ_CLEAR_FEATURE                          0x01U
 104:Middlewares/ST/STM32_USB_Device_Library/Core/Inc/usbd_def.h **** #define  USB_REQ_SET_FEATURE                            0x03U
 105:Middlewares/ST/STM32_USB_Device_Library/Core/Inc/usbd_def.h **** #define  USB_REQ_SET_ADDRESS                            0x05U
 106:Middlewares/ST/STM32_USB_Device_Library/Core/Inc/usbd_def.h **** #define  USB_REQ_GET_DESCRIPTOR                         0x06U
 107:Middlewares/ST/STM32_USB_Device_Library/Core/Inc/usbd_def.h **** #define  USB_REQ_SET_DESCRIPTOR                         0x07U
 108:Middlewares/ST/STM32_USB_Device_Library/Core/Inc/usbd_def.h **** #define  USB_REQ_GET_CONFIGURATION                      0x08U
 109:Middlewares/ST/STM32_USB_Device_Library/Core/Inc/usbd_def.h **** #define  USB_REQ_SET_CONFIGURATION                      0x09U
 110:Middlewares/ST/STM32_USB_Device_Library/Core/Inc/usbd_def.h **** #define  USB_REQ_GET_INTERFACE                          0x0AU
 111:Middlewares/ST/STM32_USB_Device_Library/Core/Inc/usbd_def.h **** #define  USB_REQ_SET_INTERFACE                          0x0BU
 112:Middlewares/ST/STM32_USB_Device_Library/Core/Inc/usbd_def.h **** #define  USB_REQ_SYNCH_FRAME                            0x0CU
 113:Middlewares/ST/STM32_USB_Device_Library/Core/Inc/usbd_def.h **** 
 114:Middlewares/ST/STM32_USB_Device_Library/Core/Inc/usbd_def.h **** #define  USB_DESC_TYPE_DEVICE                           0x01U
 115:Middlewares/ST/STM32_USB_Device_Library/Core/Inc/usbd_def.h **** #define  USB_DESC_TYPE_CONFIGURATION                    0x02U
 116:Middlewares/ST/STM32_USB_Device_Library/Core/Inc/usbd_def.h **** #define  USB_DESC_TYPE_STRING                           0x03U
 117:Middlewares/ST/STM32_USB_Device_Library/Core/Inc/usbd_def.h **** #define  USB_DESC_TYPE_INTERFACE                        0x04U
 118:Middlewares/ST/STM32_USB_Device_Library/Core/Inc/usbd_def.h **** #define  USB_DESC_TYPE_ENDPOINT                         0x05U
 119:Middlewares/ST/STM32_USB_Device_Library/Core/Inc/usbd_def.h **** #define  USB_DESC_TYPE_DEVICE_QUALIFIER                 0x06U
 120:Middlewares/ST/STM32_USB_Device_Library/Core/Inc/usbd_def.h **** #define  USB_DESC_TYPE_OTHER_SPEED_CONFIGURATION        0x07U
 121:Middlewares/ST/STM32_USB_Device_Library/Core/Inc/usbd_def.h **** #define  USB_DESC_TYPE_IAD                              0x0BU
 122:Middlewares/ST/STM32_USB_Device_Library/Core/Inc/usbd_def.h **** #define  USB_DESC_TYPE_BOS                              0x0FU
 123:Middlewares/ST/STM32_USB_Device_Library/Core/Inc/usbd_def.h **** 
 124:Middlewares/ST/STM32_USB_Device_Library/Core/Inc/usbd_def.h **** #define USB_CONFIG_REMOTE_WAKEUP                        0x02U
 125:Middlewares/ST/STM32_USB_Device_Library/Core/Inc/usbd_def.h **** #define USB_CONFIG_SELF_POWERED                         0x01U
 126:Middlewares/ST/STM32_USB_Device_Library/Core/Inc/usbd_def.h **** 
 127:Middlewares/ST/STM32_USB_Device_Library/Core/Inc/usbd_def.h **** #define USB_FEATURE_EP_HALT                             0x00U
 128:Middlewares/ST/STM32_USB_Device_Library/Core/Inc/usbd_def.h **** #define USB_FEATURE_REMOTE_WAKEUP                       0x01U
 129:Middlewares/ST/STM32_USB_Device_Library/Core/Inc/usbd_def.h **** #define USB_FEATURE_TEST_MODE                           0x02U
 130:Middlewares/ST/STM32_USB_Device_Library/Core/Inc/usbd_def.h **** 
 131:Middlewares/ST/STM32_USB_Device_Library/Core/Inc/usbd_def.h **** #define USB_DEVICE_CAPABITY_TYPE                        0x10U
 132:Middlewares/ST/STM32_USB_Device_Library/Core/Inc/usbd_def.h **** 
 133:Middlewares/ST/STM32_USB_Device_Library/Core/Inc/usbd_def.h **** #define USB_CONF_DESC_SIZE                              0x09U
 134:Middlewares/ST/STM32_USB_Device_Library/Core/Inc/usbd_def.h **** #define USB_IF_DESC_SIZE                                0x09U
 135:Middlewares/ST/STM32_USB_Device_Library/Core/Inc/usbd_def.h **** #define USB_EP_DESC_SIZE                                0x07U
 136:Middlewares/ST/STM32_USB_Device_Library/Core/Inc/usbd_def.h **** #define USB_IAD_DESC_SIZE                               0x08U
 137:Middlewares/ST/STM32_USB_Device_Library/Core/Inc/usbd_def.h **** 
 138:Middlewares/ST/STM32_USB_Device_Library/Core/Inc/usbd_def.h **** #define USB_HS_MAX_PACKET_SIZE                          512U
 139:Middlewares/ST/STM32_USB_Device_Library/Core/Inc/usbd_def.h **** #define USB_FS_MAX_PACKET_SIZE                          64U
 140:Middlewares/ST/STM32_USB_Device_Library/Core/Inc/usbd_def.h **** #define USB_MAX_EP0_SIZE                                64U
 141:Middlewares/ST/STM32_USB_Device_Library/Core/Inc/usbd_def.h **** 
 142:Middlewares/ST/STM32_USB_Device_Library/Core/Inc/usbd_def.h **** /*  Device Status */
 143:Middlewares/ST/STM32_USB_Device_Library/Core/Inc/usbd_def.h **** #define USBD_STATE_DEFAULT                              0x01U
 144:Middlewares/ST/STM32_USB_Device_Library/Core/Inc/usbd_def.h **** #define USBD_STATE_ADDRESSED                            0x02U
 145:Middlewares/ST/STM32_USB_Device_Library/Core/Inc/usbd_def.h **** #define USBD_STATE_CONFIGURED                           0x03U
ARM GAS  /var/folders/vq/qt4vp3kd5rxf7v2b6_fdtdt80000gn/T//ccjnR4Ke.s 			page 4


 146:Middlewares/ST/STM32_USB_Device_Library/Core/Inc/usbd_def.h **** #define USBD_STATE_SUSPENDED                            0x04U
 147:Middlewares/ST/STM32_USB_Device_Library/Core/Inc/usbd_def.h **** 
 148:Middlewares/ST/STM32_USB_Device_Library/Core/Inc/usbd_def.h **** 
 149:Middlewares/ST/STM32_USB_Device_Library/Core/Inc/usbd_def.h **** /*  EP0 State */
 150:Middlewares/ST/STM32_USB_Device_Library/Core/Inc/usbd_def.h **** #define USBD_EP0_IDLE                                   0x00U
 151:Middlewares/ST/STM32_USB_Device_Library/Core/Inc/usbd_def.h **** #define USBD_EP0_SETUP                                  0x01U
 152:Middlewares/ST/STM32_USB_Device_Library/Core/Inc/usbd_def.h **** #define USBD_EP0_DATA_IN                                0x02U
 153:Middlewares/ST/STM32_USB_Device_Library/Core/Inc/usbd_def.h **** #define USBD_EP0_DATA_OUT                               0x03U
 154:Middlewares/ST/STM32_USB_Device_Library/Core/Inc/usbd_def.h **** #define USBD_EP0_STATUS_IN                              0x04U
 155:Middlewares/ST/STM32_USB_Device_Library/Core/Inc/usbd_def.h **** #define USBD_EP0_STATUS_OUT                             0x05U
 156:Middlewares/ST/STM32_USB_Device_Library/Core/Inc/usbd_def.h **** #define USBD_EP0_STALL                                  0x06U
 157:Middlewares/ST/STM32_USB_Device_Library/Core/Inc/usbd_def.h **** 
 158:Middlewares/ST/STM32_USB_Device_Library/Core/Inc/usbd_def.h **** #define USBD_EP_TYPE_CTRL                               0x00U
 159:Middlewares/ST/STM32_USB_Device_Library/Core/Inc/usbd_def.h **** #define USBD_EP_TYPE_ISOC                               0x01U
 160:Middlewares/ST/STM32_USB_Device_Library/Core/Inc/usbd_def.h **** #define USBD_EP_TYPE_BULK                               0x02U
 161:Middlewares/ST/STM32_USB_Device_Library/Core/Inc/usbd_def.h **** #define USBD_EP_TYPE_INTR                               0x03U
 162:Middlewares/ST/STM32_USB_Device_Library/Core/Inc/usbd_def.h **** 
 163:Middlewares/ST/STM32_USB_Device_Library/Core/Inc/usbd_def.h **** /**
 164:Middlewares/ST/STM32_USB_Device_Library/Core/Inc/usbd_def.h ****   * @}
 165:Middlewares/ST/STM32_USB_Device_Library/Core/Inc/usbd_def.h ****   */
 166:Middlewares/ST/STM32_USB_Device_Library/Core/Inc/usbd_def.h **** 
 167:Middlewares/ST/STM32_USB_Device_Library/Core/Inc/usbd_def.h **** 
 168:Middlewares/ST/STM32_USB_Device_Library/Core/Inc/usbd_def.h **** /** @defgroup USBD_DEF_Exported_TypesDefinitions
 169:Middlewares/ST/STM32_USB_Device_Library/Core/Inc/usbd_def.h ****   * @{
 170:Middlewares/ST/STM32_USB_Device_Library/Core/Inc/usbd_def.h ****   */
 171:Middlewares/ST/STM32_USB_Device_Library/Core/Inc/usbd_def.h **** 
 172:Middlewares/ST/STM32_USB_Device_Library/Core/Inc/usbd_def.h **** typedef  struct  usb_setup_req
 173:Middlewares/ST/STM32_USB_Device_Library/Core/Inc/usbd_def.h **** {
 174:Middlewares/ST/STM32_USB_Device_Library/Core/Inc/usbd_def.h ****   uint8_t   bmRequest;
 175:Middlewares/ST/STM32_USB_Device_Library/Core/Inc/usbd_def.h ****   uint8_t   bRequest;
 176:Middlewares/ST/STM32_USB_Device_Library/Core/Inc/usbd_def.h ****   uint16_t  wValue;
 177:Middlewares/ST/STM32_USB_Device_Library/Core/Inc/usbd_def.h ****   uint16_t  wIndex;
 178:Middlewares/ST/STM32_USB_Device_Library/Core/Inc/usbd_def.h ****   uint16_t  wLength;
 179:Middlewares/ST/STM32_USB_Device_Library/Core/Inc/usbd_def.h **** } USBD_SetupReqTypedef;
 180:Middlewares/ST/STM32_USB_Device_Library/Core/Inc/usbd_def.h **** 
 181:Middlewares/ST/STM32_USB_Device_Library/Core/Inc/usbd_def.h **** typedef struct
 182:Middlewares/ST/STM32_USB_Device_Library/Core/Inc/usbd_def.h **** {
 183:Middlewares/ST/STM32_USB_Device_Library/Core/Inc/usbd_def.h ****   uint8_t   bLength;
 184:Middlewares/ST/STM32_USB_Device_Library/Core/Inc/usbd_def.h ****   uint8_t   bDescriptorType;
 185:Middlewares/ST/STM32_USB_Device_Library/Core/Inc/usbd_def.h ****   uint16_t  wTotalLength;
 186:Middlewares/ST/STM32_USB_Device_Library/Core/Inc/usbd_def.h ****   uint8_t   bNumInterfaces;
 187:Middlewares/ST/STM32_USB_Device_Library/Core/Inc/usbd_def.h ****   uint8_t   bConfigurationValue;
 188:Middlewares/ST/STM32_USB_Device_Library/Core/Inc/usbd_def.h ****   uint8_t   iConfiguration;
 189:Middlewares/ST/STM32_USB_Device_Library/Core/Inc/usbd_def.h ****   uint8_t   bmAttributes;
 190:Middlewares/ST/STM32_USB_Device_Library/Core/Inc/usbd_def.h ****   uint8_t   bMaxPower;
 191:Middlewares/ST/STM32_USB_Device_Library/Core/Inc/usbd_def.h **** } USBD_ConfigDescTypedef;
 192:Middlewares/ST/STM32_USB_Device_Library/Core/Inc/usbd_def.h **** 
 193:Middlewares/ST/STM32_USB_Device_Library/Core/Inc/usbd_def.h **** typedef struct
 194:Middlewares/ST/STM32_USB_Device_Library/Core/Inc/usbd_def.h **** {
 195:Middlewares/ST/STM32_USB_Device_Library/Core/Inc/usbd_def.h ****   uint8_t   bLength;
 196:Middlewares/ST/STM32_USB_Device_Library/Core/Inc/usbd_def.h ****   uint8_t   bDescriptorType;
 197:Middlewares/ST/STM32_USB_Device_Library/Core/Inc/usbd_def.h ****   uint16_t  wTotalLength;
 198:Middlewares/ST/STM32_USB_Device_Library/Core/Inc/usbd_def.h ****   uint8_t   bNumDeviceCaps;
 199:Middlewares/ST/STM32_USB_Device_Library/Core/Inc/usbd_def.h **** } USBD_BosDescTypedef;
 200:Middlewares/ST/STM32_USB_Device_Library/Core/Inc/usbd_def.h **** 
 201:Middlewares/ST/STM32_USB_Device_Library/Core/Inc/usbd_def.h **** typedef struct
 202:Middlewares/ST/STM32_USB_Device_Library/Core/Inc/usbd_def.h **** {
ARM GAS  /var/folders/vq/qt4vp3kd5rxf7v2b6_fdtdt80000gn/T//ccjnR4Ke.s 			page 5


 203:Middlewares/ST/STM32_USB_Device_Library/Core/Inc/usbd_def.h ****   uint8_t   bLength;
 204:Middlewares/ST/STM32_USB_Device_Library/Core/Inc/usbd_def.h ****   uint8_t   bDescriptorType;
 205:Middlewares/ST/STM32_USB_Device_Library/Core/Inc/usbd_def.h ****   uint8_t   bEndpointAddress;
 206:Middlewares/ST/STM32_USB_Device_Library/Core/Inc/usbd_def.h ****   uint8_t   bmAttributes;
 207:Middlewares/ST/STM32_USB_Device_Library/Core/Inc/usbd_def.h ****   uint16_t  wMaxPacketSize;
 208:Middlewares/ST/STM32_USB_Device_Library/Core/Inc/usbd_def.h ****   uint8_t   bInterval;
 209:Middlewares/ST/STM32_USB_Device_Library/Core/Inc/usbd_def.h **** } USBD_EpDescTypedef;
 210:Middlewares/ST/STM32_USB_Device_Library/Core/Inc/usbd_def.h **** 
 211:Middlewares/ST/STM32_USB_Device_Library/Core/Inc/usbd_def.h **** struct _USBD_HandleTypeDef;
 212:Middlewares/ST/STM32_USB_Device_Library/Core/Inc/usbd_def.h **** 
 213:Middlewares/ST/STM32_USB_Device_Library/Core/Inc/usbd_def.h **** typedef struct _Device_cb
 214:Middlewares/ST/STM32_USB_Device_Library/Core/Inc/usbd_def.h **** {
 215:Middlewares/ST/STM32_USB_Device_Library/Core/Inc/usbd_def.h ****   uint8_t (*Init)(struct _USBD_HandleTypeDef *pdev, uint8_t cfgidx);
 216:Middlewares/ST/STM32_USB_Device_Library/Core/Inc/usbd_def.h ****   uint8_t (*DeInit)(struct _USBD_HandleTypeDef *pdev, uint8_t cfgidx);
 217:Middlewares/ST/STM32_USB_Device_Library/Core/Inc/usbd_def.h ****   /* Control Endpoints*/
 218:Middlewares/ST/STM32_USB_Device_Library/Core/Inc/usbd_def.h ****   uint8_t (*Setup)(struct _USBD_HandleTypeDef *pdev, USBD_SetupReqTypedef  *req);
 219:Middlewares/ST/STM32_USB_Device_Library/Core/Inc/usbd_def.h ****   uint8_t (*EP0_TxSent)(struct _USBD_HandleTypeDef *pdev);
 220:Middlewares/ST/STM32_USB_Device_Library/Core/Inc/usbd_def.h ****   uint8_t (*EP0_RxReady)(struct _USBD_HandleTypeDef *pdev);
 221:Middlewares/ST/STM32_USB_Device_Library/Core/Inc/usbd_def.h ****   /* Class Specific Endpoints*/
 222:Middlewares/ST/STM32_USB_Device_Library/Core/Inc/usbd_def.h ****   uint8_t (*DataIn)(struct _USBD_HandleTypeDef *pdev, uint8_t epnum);
 223:Middlewares/ST/STM32_USB_Device_Library/Core/Inc/usbd_def.h ****   uint8_t (*DataOut)(struct _USBD_HandleTypeDef *pdev, uint8_t epnum);
 224:Middlewares/ST/STM32_USB_Device_Library/Core/Inc/usbd_def.h ****   uint8_t (*SOF)(struct _USBD_HandleTypeDef *pdev);
 225:Middlewares/ST/STM32_USB_Device_Library/Core/Inc/usbd_def.h ****   uint8_t (*IsoINIncomplete)(struct _USBD_HandleTypeDef *pdev, uint8_t epnum);
 226:Middlewares/ST/STM32_USB_Device_Library/Core/Inc/usbd_def.h ****   uint8_t (*IsoOUTIncomplete)(struct _USBD_HandleTypeDef *pdev, uint8_t epnum);
 227:Middlewares/ST/STM32_USB_Device_Library/Core/Inc/usbd_def.h **** 
 228:Middlewares/ST/STM32_USB_Device_Library/Core/Inc/usbd_def.h ****   uint8_t  *(*GetHSConfigDescriptor)(uint16_t *length);
 229:Middlewares/ST/STM32_USB_Device_Library/Core/Inc/usbd_def.h ****   uint8_t  *(*GetFSConfigDescriptor)(uint16_t *length);
 230:Middlewares/ST/STM32_USB_Device_Library/Core/Inc/usbd_def.h ****   uint8_t  *(*GetOtherSpeedConfigDescriptor)(uint16_t *length);
 231:Middlewares/ST/STM32_USB_Device_Library/Core/Inc/usbd_def.h ****   uint8_t  *(*GetDeviceQualifierDescriptor)(uint16_t *length);
 232:Middlewares/ST/STM32_USB_Device_Library/Core/Inc/usbd_def.h **** #if (USBD_SUPPORT_USER_STRING_DESC == 1U)
 233:Middlewares/ST/STM32_USB_Device_Library/Core/Inc/usbd_def.h ****   uint8_t  *(*GetUsrStrDescriptor)(struct _USBD_HandleTypeDef *pdev, uint8_t index,  uint16_t *leng
 234:Middlewares/ST/STM32_USB_Device_Library/Core/Inc/usbd_def.h **** #endif
 235:Middlewares/ST/STM32_USB_Device_Library/Core/Inc/usbd_def.h **** 
 236:Middlewares/ST/STM32_USB_Device_Library/Core/Inc/usbd_def.h **** } USBD_ClassTypeDef;
 237:Middlewares/ST/STM32_USB_Device_Library/Core/Inc/usbd_def.h **** 
 238:Middlewares/ST/STM32_USB_Device_Library/Core/Inc/usbd_def.h **** /* Following USB Device Speed */
 239:Middlewares/ST/STM32_USB_Device_Library/Core/Inc/usbd_def.h **** typedef enum
 240:Middlewares/ST/STM32_USB_Device_Library/Core/Inc/usbd_def.h **** {
 241:Middlewares/ST/STM32_USB_Device_Library/Core/Inc/usbd_def.h ****   USBD_SPEED_HIGH  = 0U,
 242:Middlewares/ST/STM32_USB_Device_Library/Core/Inc/usbd_def.h ****   USBD_SPEED_FULL  = 1U,
 243:Middlewares/ST/STM32_USB_Device_Library/Core/Inc/usbd_def.h ****   USBD_SPEED_LOW   = 2U,
 244:Middlewares/ST/STM32_USB_Device_Library/Core/Inc/usbd_def.h **** } USBD_SpeedTypeDef;
 245:Middlewares/ST/STM32_USB_Device_Library/Core/Inc/usbd_def.h **** 
 246:Middlewares/ST/STM32_USB_Device_Library/Core/Inc/usbd_def.h **** /* Following USB Device status */
 247:Middlewares/ST/STM32_USB_Device_Library/Core/Inc/usbd_def.h **** typedef enum
 248:Middlewares/ST/STM32_USB_Device_Library/Core/Inc/usbd_def.h **** {
 249:Middlewares/ST/STM32_USB_Device_Library/Core/Inc/usbd_def.h ****   USBD_OK = 0U,
 250:Middlewares/ST/STM32_USB_Device_Library/Core/Inc/usbd_def.h ****   USBD_BUSY,
 251:Middlewares/ST/STM32_USB_Device_Library/Core/Inc/usbd_def.h ****   USBD_EMEM,
 252:Middlewares/ST/STM32_USB_Device_Library/Core/Inc/usbd_def.h ****   USBD_FAIL,
 253:Middlewares/ST/STM32_USB_Device_Library/Core/Inc/usbd_def.h **** } USBD_StatusTypeDef;
 254:Middlewares/ST/STM32_USB_Device_Library/Core/Inc/usbd_def.h **** 
 255:Middlewares/ST/STM32_USB_Device_Library/Core/Inc/usbd_def.h **** /* USB Device descriptors structure */
 256:Middlewares/ST/STM32_USB_Device_Library/Core/Inc/usbd_def.h **** typedef struct
 257:Middlewares/ST/STM32_USB_Device_Library/Core/Inc/usbd_def.h **** {
 258:Middlewares/ST/STM32_USB_Device_Library/Core/Inc/usbd_def.h ****   uint8_t *(*GetDeviceDescriptor)(USBD_SpeedTypeDef speed, uint16_t *length);
 259:Middlewares/ST/STM32_USB_Device_Library/Core/Inc/usbd_def.h ****   uint8_t *(*GetLangIDStrDescriptor)(USBD_SpeedTypeDef speed, uint16_t *length);
ARM GAS  /var/folders/vq/qt4vp3kd5rxf7v2b6_fdtdt80000gn/T//ccjnR4Ke.s 			page 6


 260:Middlewares/ST/STM32_USB_Device_Library/Core/Inc/usbd_def.h ****   uint8_t *(*GetManufacturerStrDescriptor)(USBD_SpeedTypeDef speed, uint16_t *length);
 261:Middlewares/ST/STM32_USB_Device_Library/Core/Inc/usbd_def.h ****   uint8_t *(*GetProductStrDescriptor)(USBD_SpeedTypeDef speed, uint16_t *length);
 262:Middlewares/ST/STM32_USB_Device_Library/Core/Inc/usbd_def.h ****   uint8_t *(*GetSerialStrDescriptor)(USBD_SpeedTypeDef speed, uint16_t *length);
 263:Middlewares/ST/STM32_USB_Device_Library/Core/Inc/usbd_def.h ****   uint8_t *(*GetConfigurationStrDescriptor)(USBD_SpeedTypeDef speed, uint16_t *length);
 264:Middlewares/ST/STM32_USB_Device_Library/Core/Inc/usbd_def.h ****   uint8_t *(*GetInterfaceStrDescriptor)(USBD_SpeedTypeDef speed, uint16_t *length);
 265:Middlewares/ST/STM32_USB_Device_Library/Core/Inc/usbd_def.h **** #if (USBD_CLASS_USER_STRING_DESC == 1)
 266:Middlewares/ST/STM32_USB_Device_Library/Core/Inc/usbd_def.h ****   uint8_t *(*GetUserStrDescriptor)(USBD_SpeedTypeDef speed, uint8_t idx, uint16_t *length);
 267:Middlewares/ST/STM32_USB_Device_Library/Core/Inc/usbd_def.h **** #endif
 268:Middlewares/ST/STM32_USB_Device_Library/Core/Inc/usbd_def.h **** #if ((USBD_LPM_ENABLED == 1U) || (USBD_CLASS_BOS_ENABLED == 1))
 269:Middlewares/ST/STM32_USB_Device_Library/Core/Inc/usbd_def.h ****   uint8_t *(*GetBOSDescriptor)(USBD_SpeedTypeDef speed, uint16_t *length);
 270:Middlewares/ST/STM32_USB_Device_Library/Core/Inc/usbd_def.h **** #endif
 271:Middlewares/ST/STM32_USB_Device_Library/Core/Inc/usbd_def.h **** } USBD_DescriptorsTypeDef;
 272:Middlewares/ST/STM32_USB_Device_Library/Core/Inc/usbd_def.h **** 
 273:Middlewares/ST/STM32_USB_Device_Library/Core/Inc/usbd_def.h **** /* USB Device handle structure */
 274:Middlewares/ST/STM32_USB_Device_Library/Core/Inc/usbd_def.h **** typedef struct
 275:Middlewares/ST/STM32_USB_Device_Library/Core/Inc/usbd_def.h **** {
 276:Middlewares/ST/STM32_USB_Device_Library/Core/Inc/usbd_def.h ****   uint32_t status;
 277:Middlewares/ST/STM32_USB_Device_Library/Core/Inc/usbd_def.h ****   uint32_t total_length;
 278:Middlewares/ST/STM32_USB_Device_Library/Core/Inc/usbd_def.h ****   uint32_t rem_length;
 279:Middlewares/ST/STM32_USB_Device_Library/Core/Inc/usbd_def.h ****   uint32_t maxpacket;
 280:Middlewares/ST/STM32_USB_Device_Library/Core/Inc/usbd_def.h ****   uint16_t is_used;
 281:Middlewares/ST/STM32_USB_Device_Library/Core/Inc/usbd_def.h ****   uint16_t bInterval;
 282:Middlewares/ST/STM32_USB_Device_Library/Core/Inc/usbd_def.h **** } USBD_EndpointTypeDef;
 283:Middlewares/ST/STM32_USB_Device_Library/Core/Inc/usbd_def.h **** 
 284:Middlewares/ST/STM32_USB_Device_Library/Core/Inc/usbd_def.h **** /* USB Device handle structure */
 285:Middlewares/ST/STM32_USB_Device_Library/Core/Inc/usbd_def.h **** typedef struct _USBD_HandleTypeDef
 286:Middlewares/ST/STM32_USB_Device_Library/Core/Inc/usbd_def.h **** {
 287:Middlewares/ST/STM32_USB_Device_Library/Core/Inc/usbd_def.h ****   uint8_t                 id;
 288:Middlewares/ST/STM32_USB_Device_Library/Core/Inc/usbd_def.h ****   uint32_t                dev_config;
 289:Middlewares/ST/STM32_USB_Device_Library/Core/Inc/usbd_def.h ****   uint32_t                dev_default_config;
 290:Middlewares/ST/STM32_USB_Device_Library/Core/Inc/usbd_def.h ****   uint32_t                dev_config_status;
 291:Middlewares/ST/STM32_USB_Device_Library/Core/Inc/usbd_def.h ****   USBD_SpeedTypeDef       dev_speed;
 292:Middlewares/ST/STM32_USB_Device_Library/Core/Inc/usbd_def.h ****   USBD_EndpointTypeDef    ep_in[16];
 293:Middlewares/ST/STM32_USB_Device_Library/Core/Inc/usbd_def.h ****   USBD_EndpointTypeDef    ep_out[16];
 294:Middlewares/ST/STM32_USB_Device_Library/Core/Inc/usbd_def.h ****   __IO uint32_t           ep0_state;
 295:Middlewares/ST/STM32_USB_Device_Library/Core/Inc/usbd_def.h ****   uint32_t                ep0_data_len;
 296:Middlewares/ST/STM32_USB_Device_Library/Core/Inc/usbd_def.h ****   __IO uint8_t            dev_state;
 297:Middlewares/ST/STM32_USB_Device_Library/Core/Inc/usbd_def.h ****   __IO uint8_t            dev_old_state;
 298:Middlewares/ST/STM32_USB_Device_Library/Core/Inc/usbd_def.h ****   uint8_t                 dev_address;
 299:Middlewares/ST/STM32_USB_Device_Library/Core/Inc/usbd_def.h ****   uint8_t                 dev_connection_status;
 300:Middlewares/ST/STM32_USB_Device_Library/Core/Inc/usbd_def.h ****   uint8_t                 dev_test_mode;
 301:Middlewares/ST/STM32_USB_Device_Library/Core/Inc/usbd_def.h ****   uint32_t                dev_remote_wakeup;
 302:Middlewares/ST/STM32_USB_Device_Library/Core/Inc/usbd_def.h ****   uint8_t                 ConfIdx;
 303:Middlewares/ST/STM32_USB_Device_Library/Core/Inc/usbd_def.h **** 
 304:Middlewares/ST/STM32_USB_Device_Library/Core/Inc/usbd_def.h ****   USBD_SetupReqTypedef    request;
 305:Middlewares/ST/STM32_USB_Device_Library/Core/Inc/usbd_def.h ****   USBD_DescriptorsTypeDef *pDesc;
 306:Middlewares/ST/STM32_USB_Device_Library/Core/Inc/usbd_def.h ****   USBD_ClassTypeDef       *pClass;
 307:Middlewares/ST/STM32_USB_Device_Library/Core/Inc/usbd_def.h ****   void                    *pClassData;
 308:Middlewares/ST/STM32_USB_Device_Library/Core/Inc/usbd_def.h ****   void                    *pUserData;
 309:Middlewares/ST/STM32_USB_Device_Library/Core/Inc/usbd_def.h ****   void                    *pData;
 310:Middlewares/ST/STM32_USB_Device_Library/Core/Inc/usbd_def.h ****   void                    *pBosDesc;
 311:Middlewares/ST/STM32_USB_Device_Library/Core/Inc/usbd_def.h ****   void                    *pConfDesc;
 312:Middlewares/ST/STM32_USB_Device_Library/Core/Inc/usbd_def.h **** } USBD_HandleTypeDef;
 313:Middlewares/ST/STM32_USB_Device_Library/Core/Inc/usbd_def.h **** 
 314:Middlewares/ST/STM32_USB_Device_Library/Core/Inc/usbd_def.h **** /**
 315:Middlewares/ST/STM32_USB_Device_Library/Core/Inc/usbd_def.h ****   * @}
 316:Middlewares/ST/STM32_USB_Device_Library/Core/Inc/usbd_def.h ****   */
ARM GAS  /var/folders/vq/qt4vp3kd5rxf7v2b6_fdtdt80000gn/T//ccjnR4Ke.s 			page 7


 317:Middlewares/ST/STM32_USB_Device_Library/Core/Inc/usbd_def.h **** 
 318:Middlewares/ST/STM32_USB_Device_Library/Core/Inc/usbd_def.h **** 
 319:Middlewares/ST/STM32_USB_Device_Library/Core/Inc/usbd_def.h **** 
 320:Middlewares/ST/STM32_USB_Device_Library/Core/Inc/usbd_def.h **** /** @defgroup USBD_DEF_Exported_Macros
 321:Middlewares/ST/STM32_USB_Device_Library/Core/Inc/usbd_def.h ****   * @{
 322:Middlewares/ST/STM32_USB_Device_Library/Core/Inc/usbd_def.h ****   */
 323:Middlewares/ST/STM32_USB_Device_Library/Core/Inc/usbd_def.h **** __STATIC_INLINE uint16_t SWAPBYTE(uint8_t *addr)
 324:Middlewares/ST/STM32_USB_Device_Library/Core/Inc/usbd_def.h **** {
  28              		.loc 1 324 1
  29              		.cfi_startproc
  30              		@ args = 0, pretend = 0, frame = 24
  31              		@ frame_needed = 1, uses_anonymous_args = 0
  32              		@ link register save eliminated.
  33 0000 80B4     		push	{r7}
  34              	.LCFI0:
  35              		.cfi_def_cfa_offset 4
  36              		.cfi_offset 7, -4
  37 0002 87B0     		sub	sp, sp, #28
  38              	.LCFI1:
  39              		.cfi_def_cfa_offset 32
  40 0004 00AF     		add	r7, sp, #0
  41              	.LCFI2:
  42              		.cfi_def_cfa_register 7
  43 0006 7860     		str	r0, [r7, #4]
 325:Middlewares/ST/STM32_USB_Device_Library/Core/Inc/usbd_def.h ****   uint16_t _SwapVal, _Byte1, _Byte2;
 326:Middlewares/ST/STM32_USB_Device_Library/Core/Inc/usbd_def.h ****   uint8_t *_pbuff = addr;
  44              		.loc 1 326 12
  45 0008 7B68     		ldr	r3, [r7, #4]
  46 000a 7B61     		str	r3, [r7, #20]
 327:Middlewares/ST/STM32_USB_Device_Library/Core/Inc/usbd_def.h **** 
 328:Middlewares/ST/STM32_USB_Device_Library/Core/Inc/usbd_def.h ****   _Byte1 = *(uint8_t *)_pbuff;
  47              		.loc 1 328 12
  48 000c 7B69     		ldr	r3, [r7, #20]
  49 000e 1B78     		ldrb	r3, [r3]	@ zero_extendqisi2
  50              		.loc 1 328 10
  51 0010 7B82     		strh	r3, [r7, #18]	@ movhi
 329:Middlewares/ST/STM32_USB_Device_Library/Core/Inc/usbd_def.h ****   _pbuff++;
  52              		.loc 1 329 9
  53 0012 7B69     		ldr	r3, [r7, #20]
  54 0014 0133     		adds	r3, r3, #1
  55 0016 7B61     		str	r3, [r7, #20]
 330:Middlewares/ST/STM32_USB_Device_Library/Core/Inc/usbd_def.h ****   _Byte2 = *(uint8_t *)_pbuff;
  56              		.loc 1 330 12
  57 0018 7B69     		ldr	r3, [r7, #20]
  58 001a 1B78     		ldrb	r3, [r3]	@ zero_extendqisi2
  59              		.loc 1 330 10
  60 001c 3B82     		strh	r3, [r7, #16]	@ movhi
 331:Middlewares/ST/STM32_USB_Device_Library/Core/Inc/usbd_def.h **** 
 332:Middlewares/ST/STM32_USB_Device_Library/Core/Inc/usbd_def.h ****   _SwapVal = (_Byte2 << 8) | _Byte1;
  61              		.loc 1 332 22
  62 001e 3B8A     		ldrh	r3, [r7, #16]
  63 0020 1B02     		lsls	r3, r3, #8
  64              		.loc 1 332 28
  65 0022 1AB2     		sxth	r2, r3
  66 0024 B7F91230 		ldrsh	r3, [r7, #18]
  67 0028 1343     		orrs	r3, r3, r2
  68 002a 1BB2     		sxth	r3, r3
ARM GAS  /var/folders/vq/qt4vp3kd5rxf7v2b6_fdtdt80000gn/T//ccjnR4Ke.s 			page 8


  69              		.loc 1 332 12
  70 002c FB81     		strh	r3, [r7, #14]	@ movhi
 333:Middlewares/ST/STM32_USB_Device_Library/Core/Inc/usbd_def.h **** 
 334:Middlewares/ST/STM32_USB_Device_Library/Core/Inc/usbd_def.h ****   return _SwapVal;
  71              		.loc 1 334 10
  72 002e FB89     		ldrh	r3, [r7, #14]
 335:Middlewares/ST/STM32_USB_Device_Library/Core/Inc/usbd_def.h **** }
  73              		.loc 1 335 1
  74 0030 1846     		mov	r0, r3
  75 0032 1C37     		adds	r7, r7, #28
  76              	.LCFI3:
  77              		.cfi_def_cfa_offset 4
  78 0034 BD46     		mov	sp, r7
  79              	.LCFI4:
  80              		.cfi_def_cfa_register 13
  81              		@ sp needed
  82 0036 5DF8047B 		ldr	r7, [sp], #4
  83              	.LCFI5:
  84              		.cfi_restore 7
  85              		.cfi_def_cfa_offset 0
  86 003a 7047     		bx	lr
  87              		.cfi_endproc
  88              	.LFE133:
  90              		.section	.text.USBD_StdDevReq,"ax",%progbits
  91              		.align	1
  92              		.global	USBD_StdDevReq
  93              		.syntax unified
  94              		.thumb
  95              		.thumb_func
  96              		.fpu fpv4-sp-d16
  98              	USBD_StdDevReq:
  99              	.LFB134:
 100              		.file 2 "Middlewares/ST/STM32_USB_Device_Library/Core/Src/usbd_ctlreq.c"
   1:Middlewares/ST/STM32_USB_Device_Library/Core/Src/usbd_ctlreq.c **** /**
   2:Middlewares/ST/STM32_USB_Device_Library/Core/Src/usbd_ctlreq.c ****   ******************************************************************************
   3:Middlewares/ST/STM32_USB_Device_Library/Core/Src/usbd_ctlreq.c ****   * @file    usbd_req.c
   4:Middlewares/ST/STM32_USB_Device_Library/Core/Src/usbd_ctlreq.c ****   * @author  MCD Application Team
   5:Middlewares/ST/STM32_USB_Device_Library/Core/Src/usbd_ctlreq.c ****   * @brief   This file provides the standard USB requests following chapter 9.
   6:Middlewares/ST/STM32_USB_Device_Library/Core/Src/usbd_ctlreq.c ****   ******************************************************************************
   7:Middlewares/ST/STM32_USB_Device_Library/Core/Src/usbd_ctlreq.c ****   * @attention
   8:Middlewares/ST/STM32_USB_Device_Library/Core/Src/usbd_ctlreq.c ****   *
   9:Middlewares/ST/STM32_USB_Device_Library/Core/Src/usbd_ctlreq.c ****   * <h2><center>&copy; Copyright (c) 2015 STMicroelectronics.
  10:Middlewares/ST/STM32_USB_Device_Library/Core/Src/usbd_ctlreq.c ****   * All rights reserved.</center></h2>
  11:Middlewares/ST/STM32_USB_Device_Library/Core/Src/usbd_ctlreq.c ****   *
  12:Middlewares/ST/STM32_USB_Device_Library/Core/Src/usbd_ctlreq.c ****   * This software component is licensed by ST under Ultimate Liberty license
  13:Middlewares/ST/STM32_USB_Device_Library/Core/Src/usbd_ctlreq.c ****   * SLA0044, the "License"; You may not use this file except in compliance with
  14:Middlewares/ST/STM32_USB_Device_Library/Core/Src/usbd_ctlreq.c ****   * the License. You may obtain a copy of the License at:
  15:Middlewares/ST/STM32_USB_Device_Library/Core/Src/usbd_ctlreq.c ****   *                      www.st.com/SLA0044
  16:Middlewares/ST/STM32_USB_Device_Library/Core/Src/usbd_ctlreq.c ****   *
  17:Middlewares/ST/STM32_USB_Device_Library/Core/Src/usbd_ctlreq.c ****   ******************************************************************************
  18:Middlewares/ST/STM32_USB_Device_Library/Core/Src/usbd_ctlreq.c ****   */
  19:Middlewares/ST/STM32_USB_Device_Library/Core/Src/usbd_ctlreq.c **** 
  20:Middlewares/ST/STM32_USB_Device_Library/Core/Src/usbd_ctlreq.c **** /* Includes ------------------------------------------------------------------*/
  21:Middlewares/ST/STM32_USB_Device_Library/Core/Src/usbd_ctlreq.c **** #include "usbd_ctlreq.h"
  22:Middlewares/ST/STM32_USB_Device_Library/Core/Src/usbd_ctlreq.c **** #include "usbd_ioreq.h"
  23:Middlewares/ST/STM32_USB_Device_Library/Core/Src/usbd_ctlreq.c **** 
  24:Middlewares/ST/STM32_USB_Device_Library/Core/Src/usbd_ctlreq.c **** 
ARM GAS  /var/folders/vq/qt4vp3kd5rxf7v2b6_fdtdt80000gn/T//ccjnR4Ke.s 			page 9


  25:Middlewares/ST/STM32_USB_Device_Library/Core/Src/usbd_ctlreq.c **** /** @addtogroup STM32_USBD_STATE_DEVICE_LIBRARY
  26:Middlewares/ST/STM32_USB_Device_Library/Core/Src/usbd_ctlreq.c ****   * @{
  27:Middlewares/ST/STM32_USB_Device_Library/Core/Src/usbd_ctlreq.c ****   */
  28:Middlewares/ST/STM32_USB_Device_Library/Core/Src/usbd_ctlreq.c **** 
  29:Middlewares/ST/STM32_USB_Device_Library/Core/Src/usbd_ctlreq.c **** 
  30:Middlewares/ST/STM32_USB_Device_Library/Core/Src/usbd_ctlreq.c **** /** @defgroup USBD_REQ
  31:Middlewares/ST/STM32_USB_Device_Library/Core/Src/usbd_ctlreq.c ****   * @brief USB standard requests module
  32:Middlewares/ST/STM32_USB_Device_Library/Core/Src/usbd_ctlreq.c ****   * @{
  33:Middlewares/ST/STM32_USB_Device_Library/Core/Src/usbd_ctlreq.c ****   */
  34:Middlewares/ST/STM32_USB_Device_Library/Core/Src/usbd_ctlreq.c **** 
  35:Middlewares/ST/STM32_USB_Device_Library/Core/Src/usbd_ctlreq.c **** /** @defgroup USBD_REQ_Private_TypesDefinitions
  36:Middlewares/ST/STM32_USB_Device_Library/Core/Src/usbd_ctlreq.c ****   * @{
  37:Middlewares/ST/STM32_USB_Device_Library/Core/Src/usbd_ctlreq.c ****   */
  38:Middlewares/ST/STM32_USB_Device_Library/Core/Src/usbd_ctlreq.c **** 
  39:Middlewares/ST/STM32_USB_Device_Library/Core/Src/usbd_ctlreq.c **** /**
  40:Middlewares/ST/STM32_USB_Device_Library/Core/Src/usbd_ctlreq.c ****   * @}
  41:Middlewares/ST/STM32_USB_Device_Library/Core/Src/usbd_ctlreq.c ****   */
  42:Middlewares/ST/STM32_USB_Device_Library/Core/Src/usbd_ctlreq.c **** 
  43:Middlewares/ST/STM32_USB_Device_Library/Core/Src/usbd_ctlreq.c **** 
  44:Middlewares/ST/STM32_USB_Device_Library/Core/Src/usbd_ctlreq.c **** /** @defgroup USBD_REQ_Private_Defines
  45:Middlewares/ST/STM32_USB_Device_Library/Core/Src/usbd_ctlreq.c ****   * @{
  46:Middlewares/ST/STM32_USB_Device_Library/Core/Src/usbd_ctlreq.c ****   */
  47:Middlewares/ST/STM32_USB_Device_Library/Core/Src/usbd_ctlreq.c **** 
  48:Middlewares/ST/STM32_USB_Device_Library/Core/Src/usbd_ctlreq.c **** /**
  49:Middlewares/ST/STM32_USB_Device_Library/Core/Src/usbd_ctlreq.c ****   * @}
  50:Middlewares/ST/STM32_USB_Device_Library/Core/Src/usbd_ctlreq.c ****   */
  51:Middlewares/ST/STM32_USB_Device_Library/Core/Src/usbd_ctlreq.c **** 
  52:Middlewares/ST/STM32_USB_Device_Library/Core/Src/usbd_ctlreq.c **** 
  53:Middlewares/ST/STM32_USB_Device_Library/Core/Src/usbd_ctlreq.c **** /** @defgroup USBD_REQ_Private_Macros
  54:Middlewares/ST/STM32_USB_Device_Library/Core/Src/usbd_ctlreq.c ****   * @{
  55:Middlewares/ST/STM32_USB_Device_Library/Core/Src/usbd_ctlreq.c ****   */
  56:Middlewares/ST/STM32_USB_Device_Library/Core/Src/usbd_ctlreq.c **** 
  57:Middlewares/ST/STM32_USB_Device_Library/Core/Src/usbd_ctlreq.c **** /**
  58:Middlewares/ST/STM32_USB_Device_Library/Core/Src/usbd_ctlreq.c ****   * @}
  59:Middlewares/ST/STM32_USB_Device_Library/Core/Src/usbd_ctlreq.c ****   */
  60:Middlewares/ST/STM32_USB_Device_Library/Core/Src/usbd_ctlreq.c **** 
  61:Middlewares/ST/STM32_USB_Device_Library/Core/Src/usbd_ctlreq.c **** 
  62:Middlewares/ST/STM32_USB_Device_Library/Core/Src/usbd_ctlreq.c **** /** @defgroup USBD_REQ_Private_Variables
  63:Middlewares/ST/STM32_USB_Device_Library/Core/Src/usbd_ctlreq.c ****   * @{
  64:Middlewares/ST/STM32_USB_Device_Library/Core/Src/usbd_ctlreq.c ****   */
  65:Middlewares/ST/STM32_USB_Device_Library/Core/Src/usbd_ctlreq.c **** 
  66:Middlewares/ST/STM32_USB_Device_Library/Core/Src/usbd_ctlreq.c **** /**
  67:Middlewares/ST/STM32_USB_Device_Library/Core/Src/usbd_ctlreq.c ****   * @}
  68:Middlewares/ST/STM32_USB_Device_Library/Core/Src/usbd_ctlreq.c ****   */
  69:Middlewares/ST/STM32_USB_Device_Library/Core/Src/usbd_ctlreq.c **** 
  70:Middlewares/ST/STM32_USB_Device_Library/Core/Src/usbd_ctlreq.c **** 
  71:Middlewares/ST/STM32_USB_Device_Library/Core/Src/usbd_ctlreq.c **** /** @defgroup USBD_REQ_Private_FunctionPrototypes
  72:Middlewares/ST/STM32_USB_Device_Library/Core/Src/usbd_ctlreq.c ****   * @{
  73:Middlewares/ST/STM32_USB_Device_Library/Core/Src/usbd_ctlreq.c ****   */
  74:Middlewares/ST/STM32_USB_Device_Library/Core/Src/usbd_ctlreq.c **** static void USBD_GetDescriptor(USBD_HandleTypeDef *pdev, USBD_SetupReqTypedef *req);
  75:Middlewares/ST/STM32_USB_Device_Library/Core/Src/usbd_ctlreq.c **** static void USBD_SetAddress(USBD_HandleTypeDef *pdev, USBD_SetupReqTypedef *req);
  76:Middlewares/ST/STM32_USB_Device_Library/Core/Src/usbd_ctlreq.c **** static USBD_StatusTypeDef USBD_SetConfig(USBD_HandleTypeDef *pdev, USBD_SetupReqTypedef *req);
  77:Middlewares/ST/STM32_USB_Device_Library/Core/Src/usbd_ctlreq.c **** static void USBD_GetConfig(USBD_HandleTypeDef *pdev, USBD_SetupReqTypedef *req);
  78:Middlewares/ST/STM32_USB_Device_Library/Core/Src/usbd_ctlreq.c **** static void USBD_GetStatus(USBD_HandleTypeDef *pdev, USBD_SetupReqTypedef *req);
  79:Middlewares/ST/STM32_USB_Device_Library/Core/Src/usbd_ctlreq.c **** static void USBD_SetFeature(USBD_HandleTypeDef *pdev, USBD_SetupReqTypedef *req);
  80:Middlewares/ST/STM32_USB_Device_Library/Core/Src/usbd_ctlreq.c **** static void USBD_ClrFeature(USBD_HandleTypeDef *pdev, USBD_SetupReqTypedef *req);
  81:Middlewares/ST/STM32_USB_Device_Library/Core/Src/usbd_ctlreq.c **** static uint8_t USBD_GetLen(uint8_t *buf);
ARM GAS  /var/folders/vq/qt4vp3kd5rxf7v2b6_fdtdt80000gn/T//ccjnR4Ke.s 			page 10


  82:Middlewares/ST/STM32_USB_Device_Library/Core/Src/usbd_ctlreq.c **** 
  83:Middlewares/ST/STM32_USB_Device_Library/Core/Src/usbd_ctlreq.c **** /**
  84:Middlewares/ST/STM32_USB_Device_Library/Core/Src/usbd_ctlreq.c ****   * @}
  85:Middlewares/ST/STM32_USB_Device_Library/Core/Src/usbd_ctlreq.c ****   */
  86:Middlewares/ST/STM32_USB_Device_Library/Core/Src/usbd_ctlreq.c **** 
  87:Middlewares/ST/STM32_USB_Device_Library/Core/Src/usbd_ctlreq.c **** 
  88:Middlewares/ST/STM32_USB_Device_Library/Core/Src/usbd_ctlreq.c **** /** @defgroup USBD_REQ_Private_Functions
  89:Middlewares/ST/STM32_USB_Device_Library/Core/Src/usbd_ctlreq.c ****   * @{
  90:Middlewares/ST/STM32_USB_Device_Library/Core/Src/usbd_ctlreq.c ****   */
  91:Middlewares/ST/STM32_USB_Device_Library/Core/Src/usbd_ctlreq.c **** 
  92:Middlewares/ST/STM32_USB_Device_Library/Core/Src/usbd_ctlreq.c **** 
  93:Middlewares/ST/STM32_USB_Device_Library/Core/Src/usbd_ctlreq.c **** /**
  94:Middlewares/ST/STM32_USB_Device_Library/Core/Src/usbd_ctlreq.c ****   * @brief  USBD_StdDevReq
  95:Middlewares/ST/STM32_USB_Device_Library/Core/Src/usbd_ctlreq.c ****   *         Handle standard usb device requests
  96:Middlewares/ST/STM32_USB_Device_Library/Core/Src/usbd_ctlreq.c ****   * @param  pdev: device instance
  97:Middlewares/ST/STM32_USB_Device_Library/Core/Src/usbd_ctlreq.c ****   * @param  req: usb request
  98:Middlewares/ST/STM32_USB_Device_Library/Core/Src/usbd_ctlreq.c ****   * @retval status
  99:Middlewares/ST/STM32_USB_Device_Library/Core/Src/usbd_ctlreq.c ****   */
 100:Middlewares/ST/STM32_USB_Device_Library/Core/Src/usbd_ctlreq.c **** USBD_StatusTypeDef USBD_StdDevReq(USBD_HandleTypeDef *pdev, USBD_SetupReqTypedef *req)
 101:Middlewares/ST/STM32_USB_Device_Library/Core/Src/usbd_ctlreq.c **** {
 101              		.loc 2 101 1
 102              		.cfi_startproc
 103              		@ args = 0, pretend = 0, frame = 16
 104              		@ frame_needed = 1, uses_anonymous_args = 0
 105 0000 80B5     		push	{r7, lr}
 106              	.LCFI6:
 107              		.cfi_def_cfa_offset 8
 108              		.cfi_offset 7, -8
 109              		.cfi_offset 14, -4
 110 0002 84B0     		sub	sp, sp, #16
 111              	.LCFI7:
 112              		.cfi_def_cfa_offset 24
 113 0004 00AF     		add	r7, sp, #0
 114              	.LCFI8:
 115              		.cfi_def_cfa_register 7
 116 0006 7860     		str	r0, [r7, #4]
 117 0008 3960     		str	r1, [r7]
 102:Middlewares/ST/STM32_USB_Device_Library/Core/Src/usbd_ctlreq.c ****   USBD_StatusTypeDef ret = USBD_OK;
 118              		.loc 2 102 22
 119 000a 0023     		movs	r3, #0
 120 000c FB73     		strb	r3, [r7, #15]
 103:Middlewares/ST/STM32_USB_Device_Library/Core/Src/usbd_ctlreq.c **** 
 104:Middlewares/ST/STM32_USB_Device_Library/Core/Src/usbd_ctlreq.c ****   switch (req->bmRequest & USB_REQ_TYPE_MASK)
 121              		.loc 2 104 14
 122 000e 3B68     		ldr	r3, [r7]
 123 0010 1B78     		ldrb	r3, [r3]	@ zero_extendqisi2
 124              		.loc 2 104 26
 125 0012 03F06003 		and	r3, r3, #96
 126              		.loc 2 104 3
 127 0016 402B     		cmp	r3, #64
 128 0018 05D0     		beq	.L4
 129 001a 402B     		cmp	r3, #64
 130 001c 53D8     		bhi	.L5
 131 001e 002B     		cmp	r3, #0
 132 0020 0BD0     		beq	.L6
 133 0022 202B     		cmp	r3, #32
 134 0024 4FD1     		bne	.L5
ARM GAS  /var/folders/vq/qt4vp3kd5rxf7v2b6_fdtdt80000gn/T//ccjnR4Ke.s 			page 11


 135              	.L4:
 105:Middlewares/ST/STM32_USB_Device_Library/Core/Src/usbd_ctlreq.c ****   {
 106:Middlewares/ST/STM32_USB_Device_Library/Core/Src/usbd_ctlreq.c ****     case USB_REQ_TYPE_CLASS:
 107:Middlewares/ST/STM32_USB_Device_Library/Core/Src/usbd_ctlreq.c ****     case USB_REQ_TYPE_VENDOR:
 108:Middlewares/ST/STM32_USB_Device_Library/Core/Src/usbd_ctlreq.c ****       ret = (USBD_StatusTypeDef)pdev->pClass->Setup(pdev, req);
 136              		.loc 2 108 37
 137 0026 7B68     		ldr	r3, [r7, #4]
 138 0028 D3F8B832 		ldr	r3, [r3, #696]
 139              		.loc 2 108 45
 140 002c 9B68     		ldr	r3, [r3, #8]
 141              		.loc 2 108 33
 142 002e 3968     		ldr	r1, [r7]
 143 0030 7868     		ldr	r0, [r7, #4]
 144 0032 9847     		blx	r3
 145              	.LVL0:
 146 0034 0346     		mov	r3, r0
 147 0036 FB73     		strb	r3, [r7, #15]
 109:Middlewares/ST/STM32_USB_Device_Library/Core/Src/usbd_ctlreq.c ****       break;
 148              		.loc 2 109 7
 149 0038 4AE0     		b	.L7
 150              	.L6:
 110:Middlewares/ST/STM32_USB_Device_Library/Core/Src/usbd_ctlreq.c **** 
 111:Middlewares/ST/STM32_USB_Device_Library/Core/Src/usbd_ctlreq.c ****     case USB_REQ_TYPE_STANDARD:
 112:Middlewares/ST/STM32_USB_Device_Library/Core/Src/usbd_ctlreq.c ****       switch (req->bRequest)
 151              		.loc 2 112 18
 152 003a 3B68     		ldr	r3, [r7]
 153 003c 5B78     		ldrb	r3, [r3, #1]	@ zero_extendqisi2
 154 003e 092B     		cmp	r3, #9
 155 0040 3BD8     		bhi	.L8
 156 0042 01A2     		adr	r2, .L10
 157 0044 52F823F0 		ldr	pc, [r2, r3, lsl #2]
 158              		.p2align 2
 159              	.L10:
 160 0048 9D000000 		.word	.L16+1
 161 004c B1000000 		.word	.L15+1
 162 0050 BB000000 		.word	.L8+1
 163 0054 A7000000 		.word	.L14+1
 164 0058 BB000000 		.word	.L8+1
 165 005c 7B000000 		.word	.L13+1
 166 0060 71000000 		.word	.L12+1
 167 0064 BB000000 		.word	.L8+1
 168 0068 93000000 		.word	.L11+1
 169 006c 85000000 		.word	.L9+1
 170              		.p2align 1
 171              	.L12:
 113:Middlewares/ST/STM32_USB_Device_Library/Core/Src/usbd_ctlreq.c ****       {
 114:Middlewares/ST/STM32_USB_Device_Library/Core/Src/usbd_ctlreq.c ****         case USB_REQ_GET_DESCRIPTOR:
 115:Middlewares/ST/STM32_USB_Device_Library/Core/Src/usbd_ctlreq.c ****           USBD_GetDescriptor(pdev, req);
 172              		.loc 2 115 11
 173 0070 3968     		ldr	r1, [r7]
 174 0072 7868     		ldr	r0, [r7, #4]
 175 0074 FFF7FEFF 		bl	USBD_GetDescriptor
 116:Middlewares/ST/STM32_USB_Device_Library/Core/Src/usbd_ctlreq.c ****           break;
 176              		.loc 2 116 11
 177 0078 24E0     		b	.L17
 178              	.L13:
 117:Middlewares/ST/STM32_USB_Device_Library/Core/Src/usbd_ctlreq.c **** 
ARM GAS  /var/folders/vq/qt4vp3kd5rxf7v2b6_fdtdt80000gn/T//ccjnR4Ke.s 			page 12


 118:Middlewares/ST/STM32_USB_Device_Library/Core/Src/usbd_ctlreq.c ****         case USB_REQ_SET_ADDRESS:
 119:Middlewares/ST/STM32_USB_Device_Library/Core/Src/usbd_ctlreq.c ****           USBD_SetAddress(pdev, req);
 179              		.loc 2 119 11
 180 007a 3968     		ldr	r1, [r7]
 181 007c 7868     		ldr	r0, [r7, #4]
 182 007e FFF7FEFF 		bl	USBD_SetAddress
 120:Middlewares/ST/STM32_USB_Device_Library/Core/Src/usbd_ctlreq.c ****           break;
 183              		.loc 2 120 11
 184 0082 1FE0     		b	.L17
 185              	.L9:
 121:Middlewares/ST/STM32_USB_Device_Library/Core/Src/usbd_ctlreq.c **** 
 122:Middlewares/ST/STM32_USB_Device_Library/Core/Src/usbd_ctlreq.c ****         case USB_REQ_SET_CONFIGURATION:
 123:Middlewares/ST/STM32_USB_Device_Library/Core/Src/usbd_ctlreq.c ****           ret = USBD_SetConfig(pdev, req);
 186              		.loc 2 123 17
 187 0084 3968     		ldr	r1, [r7]
 188 0086 7868     		ldr	r0, [r7, #4]
 189 0088 FFF7FEFF 		bl	USBD_SetConfig
 190 008c 0346     		mov	r3, r0
 191 008e FB73     		strb	r3, [r7, #15]
 124:Middlewares/ST/STM32_USB_Device_Library/Core/Src/usbd_ctlreq.c ****           break;
 192              		.loc 2 124 11
 193 0090 18E0     		b	.L17
 194              	.L11:
 125:Middlewares/ST/STM32_USB_Device_Library/Core/Src/usbd_ctlreq.c **** 
 126:Middlewares/ST/STM32_USB_Device_Library/Core/Src/usbd_ctlreq.c ****         case USB_REQ_GET_CONFIGURATION:
 127:Middlewares/ST/STM32_USB_Device_Library/Core/Src/usbd_ctlreq.c ****           USBD_GetConfig(pdev, req);
 195              		.loc 2 127 11
 196 0092 3968     		ldr	r1, [r7]
 197 0094 7868     		ldr	r0, [r7, #4]
 198 0096 FFF7FEFF 		bl	USBD_GetConfig
 128:Middlewares/ST/STM32_USB_Device_Library/Core/Src/usbd_ctlreq.c ****           break;
 199              		.loc 2 128 11
 200 009a 13E0     		b	.L17
 201              	.L16:
 129:Middlewares/ST/STM32_USB_Device_Library/Core/Src/usbd_ctlreq.c **** 
 130:Middlewares/ST/STM32_USB_Device_Library/Core/Src/usbd_ctlreq.c ****         case USB_REQ_GET_STATUS:
 131:Middlewares/ST/STM32_USB_Device_Library/Core/Src/usbd_ctlreq.c ****           USBD_GetStatus(pdev, req);
 202              		.loc 2 131 11
 203 009c 3968     		ldr	r1, [r7]
 204 009e 7868     		ldr	r0, [r7, #4]
 205 00a0 FFF7FEFF 		bl	USBD_GetStatus
 132:Middlewares/ST/STM32_USB_Device_Library/Core/Src/usbd_ctlreq.c ****           break;
 206              		.loc 2 132 11
 207 00a4 0EE0     		b	.L17
 208              	.L14:
 133:Middlewares/ST/STM32_USB_Device_Library/Core/Src/usbd_ctlreq.c **** 
 134:Middlewares/ST/STM32_USB_Device_Library/Core/Src/usbd_ctlreq.c ****         case USB_REQ_SET_FEATURE:
 135:Middlewares/ST/STM32_USB_Device_Library/Core/Src/usbd_ctlreq.c ****           USBD_SetFeature(pdev, req);
 209              		.loc 2 135 11
 210 00a6 3968     		ldr	r1, [r7]
 211 00a8 7868     		ldr	r0, [r7, #4]
 212 00aa FFF7FEFF 		bl	USBD_SetFeature
 136:Middlewares/ST/STM32_USB_Device_Library/Core/Src/usbd_ctlreq.c ****           break;
 213              		.loc 2 136 11
 214 00ae 09E0     		b	.L17
 215              	.L15:
 137:Middlewares/ST/STM32_USB_Device_Library/Core/Src/usbd_ctlreq.c **** 
ARM GAS  /var/folders/vq/qt4vp3kd5rxf7v2b6_fdtdt80000gn/T//ccjnR4Ke.s 			page 13


 138:Middlewares/ST/STM32_USB_Device_Library/Core/Src/usbd_ctlreq.c ****         case USB_REQ_CLEAR_FEATURE:
 139:Middlewares/ST/STM32_USB_Device_Library/Core/Src/usbd_ctlreq.c ****           USBD_ClrFeature(pdev, req);
 216              		.loc 2 139 11
 217 00b0 3968     		ldr	r1, [r7]
 218 00b2 7868     		ldr	r0, [r7, #4]
 219 00b4 FFF7FEFF 		bl	USBD_ClrFeature
 140:Middlewares/ST/STM32_USB_Device_Library/Core/Src/usbd_ctlreq.c ****           break;
 220              		.loc 2 140 11
 221 00b8 04E0     		b	.L17
 222              	.L8:
 141:Middlewares/ST/STM32_USB_Device_Library/Core/Src/usbd_ctlreq.c **** 
 142:Middlewares/ST/STM32_USB_Device_Library/Core/Src/usbd_ctlreq.c ****         default:
 143:Middlewares/ST/STM32_USB_Device_Library/Core/Src/usbd_ctlreq.c ****           USBD_CtlError(pdev, req);
 223              		.loc 2 143 11
 224 00ba 3968     		ldr	r1, [r7]
 225 00bc 7868     		ldr	r0, [r7, #4]
 226 00be FFF7FEFF 		bl	USBD_CtlError
 144:Middlewares/ST/STM32_USB_Device_Library/Core/Src/usbd_ctlreq.c ****           break;
 227              		.loc 2 144 11
 228 00c2 00BF     		nop
 229              	.L17:
 145:Middlewares/ST/STM32_USB_Device_Library/Core/Src/usbd_ctlreq.c ****       }
 146:Middlewares/ST/STM32_USB_Device_Library/Core/Src/usbd_ctlreq.c ****       break;
 230              		.loc 2 146 7
 231 00c4 04E0     		b	.L7
 232              	.L5:
 147:Middlewares/ST/STM32_USB_Device_Library/Core/Src/usbd_ctlreq.c **** 
 148:Middlewares/ST/STM32_USB_Device_Library/Core/Src/usbd_ctlreq.c ****     default:
 149:Middlewares/ST/STM32_USB_Device_Library/Core/Src/usbd_ctlreq.c ****       USBD_CtlError(pdev, req);
 233              		.loc 2 149 7
 234 00c6 3968     		ldr	r1, [r7]
 235 00c8 7868     		ldr	r0, [r7, #4]
 236 00ca FFF7FEFF 		bl	USBD_CtlError
 150:Middlewares/ST/STM32_USB_Device_Library/Core/Src/usbd_ctlreq.c ****       break;
 237              		.loc 2 150 7
 238 00ce 00BF     		nop
 239              	.L7:
 151:Middlewares/ST/STM32_USB_Device_Library/Core/Src/usbd_ctlreq.c ****   }
 152:Middlewares/ST/STM32_USB_Device_Library/Core/Src/usbd_ctlreq.c **** 
 153:Middlewares/ST/STM32_USB_Device_Library/Core/Src/usbd_ctlreq.c ****   return ret;
 240              		.loc 2 153 10
 241 00d0 FB7B     		ldrb	r3, [r7, #15]	@ zero_extendqisi2
 154:Middlewares/ST/STM32_USB_Device_Library/Core/Src/usbd_ctlreq.c **** }
 242              		.loc 2 154 1
 243 00d2 1846     		mov	r0, r3
 244 00d4 1037     		adds	r7, r7, #16
 245              	.LCFI9:
 246              		.cfi_def_cfa_offset 8
 247 00d6 BD46     		mov	sp, r7
 248              	.LCFI10:
 249              		.cfi_def_cfa_register 13
 250              		@ sp needed
 251 00d8 80BD     		pop	{r7, pc}
 252              		.cfi_endproc
 253              	.LFE134:
 255 00da 00BF     		.section	.text.USBD_StdItfReq,"ax",%progbits
 256              		.align	1
ARM GAS  /var/folders/vq/qt4vp3kd5rxf7v2b6_fdtdt80000gn/T//ccjnR4Ke.s 			page 14


 257              		.global	USBD_StdItfReq
 258              		.syntax unified
 259              		.thumb
 260              		.thumb_func
 261              		.fpu fpv4-sp-d16
 263              	USBD_StdItfReq:
 264              	.LFB135:
 155:Middlewares/ST/STM32_USB_Device_Library/Core/Src/usbd_ctlreq.c **** 
 156:Middlewares/ST/STM32_USB_Device_Library/Core/Src/usbd_ctlreq.c **** /**
 157:Middlewares/ST/STM32_USB_Device_Library/Core/Src/usbd_ctlreq.c ****   * @brief  USBD_StdItfReq
 158:Middlewares/ST/STM32_USB_Device_Library/Core/Src/usbd_ctlreq.c ****   *         Handle standard usb interface requests
 159:Middlewares/ST/STM32_USB_Device_Library/Core/Src/usbd_ctlreq.c ****   * @param  pdev: device instance
 160:Middlewares/ST/STM32_USB_Device_Library/Core/Src/usbd_ctlreq.c ****   * @param  req: usb request
 161:Middlewares/ST/STM32_USB_Device_Library/Core/Src/usbd_ctlreq.c ****   * @retval status
 162:Middlewares/ST/STM32_USB_Device_Library/Core/Src/usbd_ctlreq.c ****   */
 163:Middlewares/ST/STM32_USB_Device_Library/Core/Src/usbd_ctlreq.c **** USBD_StatusTypeDef USBD_StdItfReq(USBD_HandleTypeDef *pdev, USBD_SetupReqTypedef *req)
 164:Middlewares/ST/STM32_USB_Device_Library/Core/Src/usbd_ctlreq.c **** {
 265              		.loc 2 164 1
 266              		.cfi_startproc
 267              		@ args = 0, pretend = 0, frame = 16
 268              		@ frame_needed = 1, uses_anonymous_args = 0
 269 0000 80B5     		push	{r7, lr}
 270              	.LCFI11:
 271              		.cfi_def_cfa_offset 8
 272              		.cfi_offset 7, -8
 273              		.cfi_offset 14, -4
 274 0002 84B0     		sub	sp, sp, #16
 275              	.LCFI12:
 276              		.cfi_def_cfa_offset 24
 277 0004 00AF     		add	r7, sp, #0
 278              	.LCFI13:
 279              		.cfi_def_cfa_register 7
 280 0006 7860     		str	r0, [r7, #4]
 281 0008 3960     		str	r1, [r7]
 165:Middlewares/ST/STM32_USB_Device_Library/Core/Src/usbd_ctlreq.c ****   USBD_StatusTypeDef ret = USBD_OK;
 282              		.loc 2 165 22
 283 000a 0023     		movs	r3, #0
 284 000c FB73     		strb	r3, [r7, #15]
 166:Middlewares/ST/STM32_USB_Device_Library/Core/Src/usbd_ctlreq.c **** 
 167:Middlewares/ST/STM32_USB_Device_Library/Core/Src/usbd_ctlreq.c ****   switch (req->bmRequest & USB_REQ_TYPE_MASK)
 285              		.loc 2 167 14
 286 000e 3B68     		ldr	r3, [r7]
 287 0010 1B78     		ldrb	r3, [r3]	@ zero_extendqisi2
 288              		.loc 2 167 26
 289 0012 03F06003 		and	r3, r3, #96
 290              		.loc 2 167 3
 291 0016 402B     		cmp	r3, #64
 292 0018 05D0     		beq	.L20
 293 001a 402B     		cmp	r3, #64
 294 001c 2FD8     		bhi	.L21
 295 001e 002B     		cmp	r3, #0
 296 0020 01D0     		beq	.L20
 297 0022 202B     		cmp	r3, #32
 298 0024 2BD1     		bne	.L21
 299              	.L20:
 168:Middlewares/ST/STM32_USB_Device_Library/Core/Src/usbd_ctlreq.c ****   {
 169:Middlewares/ST/STM32_USB_Device_Library/Core/Src/usbd_ctlreq.c ****     case USB_REQ_TYPE_CLASS:
ARM GAS  /var/folders/vq/qt4vp3kd5rxf7v2b6_fdtdt80000gn/T//ccjnR4Ke.s 			page 15


 170:Middlewares/ST/STM32_USB_Device_Library/Core/Src/usbd_ctlreq.c ****     case USB_REQ_TYPE_VENDOR:
 171:Middlewares/ST/STM32_USB_Device_Library/Core/Src/usbd_ctlreq.c ****     case USB_REQ_TYPE_STANDARD:
 172:Middlewares/ST/STM32_USB_Device_Library/Core/Src/usbd_ctlreq.c ****       switch (pdev->dev_state)
 300              		.loc 2 172 19
 301 0026 7B68     		ldr	r3, [r7, #4]
 302 0028 93F89C32 		ldrb	r3, [r3, #668]
 303 002c DBB2     		uxtb	r3, r3
 304 002e 013B     		subs	r3, r3, #1
 305 0030 022B     		cmp	r3, #2
 306 0032 1DD8     		bhi	.L22
 173:Middlewares/ST/STM32_USB_Device_Library/Core/Src/usbd_ctlreq.c ****       {
 174:Middlewares/ST/STM32_USB_Device_Library/Core/Src/usbd_ctlreq.c ****         case USBD_STATE_DEFAULT:
 175:Middlewares/ST/STM32_USB_Device_Library/Core/Src/usbd_ctlreq.c ****         case USBD_STATE_ADDRESSED:
 176:Middlewares/ST/STM32_USB_Device_Library/Core/Src/usbd_ctlreq.c ****         case USBD_STATE_CONFIGURED:
 177:Middlewares/ST/STM32_USB_Device_Library/Core/Src/usbd_ctlreq.c **** 
 178:Middlewares/ST/STM32_USB_Device_Library/Core/Src/usbd_ctlreq.c ****           if (LOBYTE(req->wIndex) <= USBD_MAX_NUM_INTERFACES)
 307              		.loc 2 178 15
 308 0034 3B68     		ldr	r3, [r7]
 309 0036 9B88     		ldrh	r3, [r3, #4]
 310 0038 DBB2     		uxtb	r3, r3
 311              		.loc 2 178 14
 312 003a 012B     		cmp	r3, #1
 313 003c 13D8     		bhi	.L23
 179:Middlewares/ST/STM32_USB_Device_Library/Core/Src/usbd_ctlreq.c ****           {
 180:Middlewares/ST/STM32_USB_Device_Library/Core/Src/usbd_ctlreq.c ****             ret = (USBD_StatusTypeDef)pdev->pClass->Setup(pdev, req);
 314              		.loc 2 180 43
 315 003e 7B68     		ldr	r3, [r7, #4]
 316 0040 D3F8B832 		ldr	r3, [r3, #696]
 317              		.loc 2 180 51
 318 0044 9B68     		ldr	r3, [r3, #8]
 319              		.loc 2 180 39
 320 0046 3968     		ldr	r1, [r7]
 321 0048 7868     		ldr	r0, [r7, #4]
 322 004a 9847     		blx	r3
 323              	.LVL1:
 324 004c 0346     		mov	r3, r0
 325 004e FB73     		strb	r3, [r7, #15]
 181:Middlewares/ST/STM32_USB_Device_Library/Core/Src/usbd_ctlreq.c **** 
 182:Middlewares/ST/STM32_USB_Device_Library/Core/Src/usbd_ctlreq.c ****             if ((req->wLength == 0U) && (ret == USBD_OK))
 326              		.loc 2 182 21
 327 0050 3B68     		ldr	r3, [r7]
 328 0052 DB88     		ldrh	r3, [r3, #6]
 329              		.loc 2 182 16
 330 0054 002B     		cmp	r3, #0
 331 0056 10D1     		bne	.L28
 332              		.loc 2 182 38 discriminator 1
 333 0058 FB7B     		ldrb	r3, [r7, #15]	@ zero_extendqisi2
 334 005a 002B     		cmp	r3, #0
 335 005c 0DD1     		bne	.L28
 183:Middlewares/ST/STM32_USB_Device_Library/Core/Src/usbd_ctlreq.c ****             {
 184:Middlewares/ST/STM32_USB_Device_Library/Core/Src/usbd_ctlreq.c ****               (void)USBD_CtlSendStatus(pdev);
 336              		.loc 2 184 21
 337 005e 7868     		ldr	r0, [r7, #4]
 338 0060 FFF7FEFF 		bl	USBD_CtlSendStatus
 185:Middlewares/ST/STM32_USB_Device_Library/Core/Src/usbd_ctlreq.c ****             }
 186:Middlewares/ST/STM32_USB_Device_Library/Core/Src/usbd_ctlreq.c ****           }
 187:Middlewares/ST/STM32_USB_Device_Library/Core/Src/usbd_ctlreq.c ****           else
ARM GAS  /var/folders/vq/qt4vp3kd5rxf7v2b6_fdtdt80000gn/T//ccjnR4Ke.s 			page 16


 188:Middlewares/ST/STM32_USB_Device_Library/Core/Src/usbd_ctlreq.c ****           {
 189:Middlewares/ST/STM32_USB_Device_Library/Core/Src/usbd_ctlreq.c ****             USBD_CtlError(pdev, req);
 190:Middlewares/ST/STM32_USB_Device_Library/Core/Src/usbd_ctlreq.c ****           }
 191:Middlewares/ST/STM32_USB_Device_Library/Core/Src/usbd_ctlreq.c ****           break;
 339              		.loc 2 191 11
 340 0064 09E0     		b	.L28
 341              	.L23:
 189:Middlewares/ST/STM32_USB_Device_Library/Core/Src/usbd_ctlreq.c ****           }
 342              		.loc 2 189 13
 343 0066 3968     		ldr	r1, [r7]
 344 0068 7868     		ldr	r0, [r7, #4]
 345 006a FFF7FEFF 		bl	USBD_CtlError
 346              		.loc 2 191 11
 347 006e 04E0     		b	.L28
 348              	.L22:
 192:Middlewares/ST/STM32_USB_Device_Library/Core/Src/usbd_ctlreq.c **** 
 193:Middlewares/ST/STM32_USB_Device_Library/Core/Src/usbd_ctlreq.c ****         default:
 194:Middlewares/ST/STM32_USB_Device_Library/Core/Src/usbd_ctlreq.c ****           USBD_CtlError(pdev, req);
 349              		.loc 2 194 11
 350 0070 3968     		ldr	r1, [r7]
 351 0072 7868     		ldr	r0, [r7, #4]
 352 0074 FFF7FEFF 		bl	USBD_CtlError
 195:Middlewares/ST/STM32_USB_Device_Library/Core/Src/usbd_ctlreq.c ****           break;
 353              		.loc 2 195 11
 354 0078 00E0     		b	.L25
 355              	.L28:
 191:Middlewares/ST/STM32_USB_Device_Library/Core/Src/usbd_ctlreq.c **** 
 356              		.loc 2 191 11
 357 007a 00BF     		nop
 358              	.L25:
 196:Middlewares/ST/STM32_USB_Device_Library/Core/Src/usbd_ctlreq.c ****       }
 197:Middlewares/ST/STM32_USB_Device_Library/Core/Src/usbd_ctlreq.c ****       break;
 359              		.loc 2 197 7
 360 007c 04E0     		b	.L26
 361              	.L21:
 198:Middlewares/ST/STM32_USB_Device_Library/Core/Src/usbd_ctlreq.c **** 
 199:Middlewares/ST/STM32_USB_Device_Library/Core/Src/usbd_ctlreq.c ****     default:
 200:Middlewares/ST/STM32_USB_Device_Library/Core/Src/usbd_ctlreq.c ****       USBD_CtlError(pdev, req);
 362              		.loc 2 200 7
 363 007e 3968     		ldr	r1, [r7]
 364 0080 7868     		ldr	r0, [r7, #4]
 365 0082 FFF7FEFF 		bl	USBD_CtlError
 201:Middlewares/ST/STM32_USB_Device_Library/Core/Src/usbd_ctlreq.c ****       break;
 366              		.loc 2 201 7
 367 0086 00BF     		nop
 368              	.L26:
 202:Middlewares/ST/STM32_USB_Device_Library/Core/Src/usbd_ctlreq.c ****   }
 203:Middlewares/ST/STM32_USB_Device_Library/Core/Src/usbd_ctlreq.c **** 
 204:Middlewares/ST/STM32_USB_Device_Library/Core/Src/usbd_ctlreq.c ****   return ret;
 369              		.loc 2 204 10
 370 0088 FB7B     		ldrb	r3, [r7, #15]	@ zero_extendqisi2
 205:Middlewares/ST/STM32_USB_Device_Library/Core/Src/usbd_ctlreq.c **** }
 371              		.loc 2 205 1
 372 008a 1846     		mov	r0, r3
 373 008c 1037     		adds	r7, r7, #16
 374              	.LCFI14:
 375              		.cfi_def_cfa_offset 8
ARM GAS  /var/folders/vq/qt4vp3kd5rxf7v2b6_fdtdt80000gn/T//ccjnR4Ke.s 			page 17


 376 008e BD46     		mov	sp, r7
 377              	.LCFI15:
 378              		.cfi_def_cfa_register 13
 379              		@ sp needed
 380 0090 80BD     		pop	{r7, pc}
 381              		.cfi_endproc
 382              	.LFE135:
 384              		.section	.text.USBD_StdEPReq,"ax",%progbits
 385              		.align	1
 386              		.global	USBD_StdEPReq
 387              		.syntax unified
 388              		.thumb
 389              		.thumb_func
 390              		.fpu fpv4-sp-d16
 392              	USBD_StdEPReq:
 393              	.LFB136:
 206:Middlewares/ST/STM32_USB_Device_Library/Core/Src/usbd_ctlreq.c **** 
 207:Middlewares/ST/STM32_USB_Device_Library/Core/Src/usbd_ctlreq.c **** /**
 208:Middlewares/ST/STM32_USB_Device_Library/Core/Src/usbd_ctlreq.c ****   * @brief  USBD_StdEPReq
 209:Middlewares/ST/STM32_USB_Device_Library/Core/Src/usbd_ctlreq.c ****   *         Handle standard usb endpoint requests
 210:Middlewares/ST/STM32_USB_Device_Library/Core/Src/usbd_ctlreq.c ****   * @param  pdev: device instance
 211:Middlewares/ST/STM32_USB_Device_Library/Core/Src/usbd_ctlreq.c ****   * @param  req: usb request
 212:Middlewares/ST/STM32_USB_Device_Library/Core/Src/usbd_ctlreq.c ****   * @retval status
 213:Middlewares/ST/STM32_USB_Device_Library/Core/Src/usbd_ctlreq.c ****   */
 214:Middlewares/ST/STM32_USB_Device_Library/Core/Src/usbd_ctlreq.c **** USBD_StatusTypeDef USBD_StdEPReq(USBD_HandleTypeDef *pdev, USBD_SetupReqTypedef *req)
 215:Middlewares/ST/STM32_USB_Device_Library/Core/Src/usbd_ctlreq.c **** {
 394              		.loc 2 215 1
 395              		.cfi_startproc
 396              		@ args = 0, pretend = 0, frame = 16
 397              		@ frame_needed = 1, uses_anonymous_args = 0
 398 0000 80B5     		push	{r7, lr}
 399              	.LCFI16:
 400              		.cfi_def_cfa_offset 8
 401              		.cfi_offset 7, -8
 402              		.cfi_offset 14, -4
 403 0002 84B0     		sub	sp, sp, #16
 404              	.LCFI17:
 405              		.cfi_def_cfa_offset 24
 406 0004 00AF     		add	r7, sp, #0
 407              	.LCFI18:
 408              		.cfi_def_cfa_register 7
 409 0006 7860     		str	r0, [r7, #4]
 410 0008 3960     		str	r1, [r7]
 216:Middlewares/ST/STM32_USB_Device_Library/Core/Src/usbd_ctlreq.c ****   USBD_EndpointTypeDef *pep;
 217:Middlewares/ST/STM32_USB_Device_Library/Core/Src/usbd_ctlreq.c ****   uint8_t ep_addr;
 218:Middlewares/ST/STM32_USB_Device_Library/Core/Src/usbd_ctlreq.c ****   USBD_StatusTypeDef ret = USBD_OK;
 411              		.loc 2 218 22
 412 000a 0023     		movs	r3, #0
 413 000c FB73     		strb	r3, [r7, #15]
 219:Middlewares/ST/STM32_USB_Device_Library/Core/Src/usbd_ctlreq.c ****   ep_addr = LOBYTE(req->wIndex);
 414              		.loc 2 219 13
 415 000e 3B68     		ldr	r3, [r7]
 416 0010 9B88     		ldrh	r3, [r3, #4]
 417              		.loc 2 219 11
 418 0012 BB73     		strb	r3, [r7, #14]
 220:Middlewares/ST/STM32_USB_Device_Library/Core/Src/usbd_ctlreq.c **** 
 221:Middlewares/ST/STM32_USB_Device_Library/Core/Src/usbd_ctlreq.c ****   switch (req->bmRequest & USB_REQ_TYPE_MASK)
ARM GAS  /var/folders/vq/qt4vp3kd5rxf7v2b6_fdtdt80000gn/T//ccjnR4Ke.s 			page 18


 419              		.loc 2 221 14
 420 0014 3B68     		ldr	r3, [r7]
 421 0016 1B78     		ldrb	r3, [r3]	@ zero_extendqisi2
 422              		.loc 2 221 26
 423 0018 03F06003 		and	r3, r3, #96
 424              		.loc 2 221 3
 425 001c 402B     		cmp	r3, #64
 426 001e 07D0     		beq	.L30
 427 0020 402B     		cmp	r3, #64
 428 0022 00F24581 		bhi	.L31
 429 0026 002B     		cmp	r3, #0
 430 0028 0CD0     		beq	.L32
 431 002a 202B     		cmp	r3, #32
 432 002c 40F04081 		bne	.L31
 433              	.L30:
 222:Middlewares/ST/STM32_USB_Device_Library/Core/Src/usbd_ctlreq.c ****   {
 223:Middlewares/ST/STM32_USB_Device_Library/Core/Src/usbd_ctlreq.c ****     case USB_REQ_TYPE_CLASS:
 224:Middlewares/ST/STM32_USB_Device_Library/Core/Src/usbd_ctlreq.c ****     case USB_REQ_TYPE_VENDOR:
 225:Middlewares/ST/STM32_USB_Device_Library/Core/Src/usbd_ctlreq.c ****       ret = (USBD_StatusTypeDef)pdev->pClass->Setup(pdev, req);
 434              		.loc 2 225 37
 435 0030 7B68     		ldr	r3, [r7, #4]
 436 0032 D3F8B832 		ldr	r3, [r3, #696]
 437              		.loc 2 225 45
 438 0036 9B68     		ldr	r3, [r3, #8]
 439              		.loc 2 225 33
 440 0038 3968     		ldr	r1, [r7]
 441 003a 7868     		ldr	r0, [r7, #4]
 442 003c 9847     		blx	r3
 443              	.LVL2:
 444 003e 0346     		mov	r3, r0
 445 0040 FB73     		strb	r3, [r7, #15]
 226:Middlewares/ST/STM32_USB_Device_Library/Core/Src/usbd_ctlreq.c ****       break;
 446              		.loc 2 226 7
 447 0042 3AE1     		b	.L33
 448              	.L32:
 227:Middlewares/ST/STM32_USB_Device_Library/Core/Src/usbd_ctlreq.c **** 
 228:Middlewares/ST/STM32_USB_Device_Library/Core/Src/usbd_ctlreq.c ****     case USB_REQ_TYPE_STANDARD:
 229:Middlewares/ST/STM32_USB_Device_Library/Core/Src/usbd_ctlreq.c ****       switch (req->bRequest)
 449              		.loc 2 229 18
 450 0044 3B68     		ldr	r3, [r7]
 451 0046 5B78     		ldrb	r3, [r3, #1]	@ zero_extendqisi2
 452 0048 032B     		cmp	r3, #3
 453 004a 07D0     		beq	.L34
 454 004c 032B     		cmp	r3, #3
 455 004e 00F32981 		bgt	.L35
 456 0052 002B     		cmp	r3, #0
 457 0054 7FD0     		beq	.L36
 458 0056 012B     		cmp	r3, #1
 459 0058 3CD0     		beq	.L37
 460 005a 23E1     		b	.L35
 461              	.L34:
 230:Middlewares/ST/STM32_USB_Device_Library/Core/Src/usbd_ctlreq.c ****       {
 231:Middlewares/ST/STM32_USB_Device_Library/Core/Src/usbd_ctlreq.c ****         case USB_REQ_SET_FEATURE:
 232:Middlewares/ST/STM32_USB_Device_Library/Core/Src/usbd_ctlreq.c ****           switch (pdev->dev_state)
 462              		.loc 2 232 23 discriminator 3
 463 005c 7B68     		ldr	r3, [r7, #4]
 464 005e 93F89C32 		ldrb	r3, [r3, #668]
ARM GAS  /var/folders/vq/qt4vp3kd5rxf7v2b6_fdtdt80000gn/T//ccjnR4Ke.s 			page 19


 465 0062 DBB2     		uxtb	r3, r3
 466 0064 022B     		cmp	r3, #2
 467 0066 02D0     		beq	.L38
 468 0068 032B     		cmp	r3, #3
 469 006a 16D0     		beq	.L39
 470 006c 2CE0     		b	.L70
 471              	.L38:
 233:Middlewares/ST/STM32_USB_Device_Library/Core/Src/usbd_ctlreq.c ****           {
 234:Middlewares/ST/STM32_USB_Device_Library/Core/Src/usbd_ctlreq.c ****             case USBD_STATE_ADDRESSED:
 235:Middlewares/ST/STM32_USB_Device_Library/Core/Src/usbd_ctlreq.c ****               if ((ep_addr != 0x00U) && (ep_addr != 0x80U))
 472              		.loc 2 235 18
 473 006e BB7B     		ldrb	r3, [r7, #14]	@ zero_extendqisi2
 474 0070 002B     		cmp	r3, #0
 475 0072 0DD0     		beq	.L41
 476              		.loc 2 235 38 discriminator 1
 477 0074 BB7B     		ldrb	r3, [r7, #14]	@ zero_extendqisi2
 478 0076 802B     		cmp	r3, #128
 479 0078 0AD0     		beq	.L41
 236:Middlewares/ST/STM32_USB_Device_Library/Core/Src/usbd_ctlreq.c ****               {
 237:Middlewares/ST/STM32_USB_Device_Library/Core/Src/usbd_ctlreq.c ****                 (void)USBD_LL_StallEP(pdev, ep_addr);
 480              		.loc 2 237 23
 481 007a BB7B     		ldrb	r3, [r7, #14]	@ zero_extendqisi2
 482 007c 1946     		mov	r1, r3
 483 007e 7868     		ldr	r0, [r7, #4]
 484 0080 FFF7FEFF 		bl	USBD_LL_StallEP
 238:Middlewares/ST/STM32_USB_Device_Library/Core/Src/usbd_ctlreq.c ****                 (void)USBD_LL_StallEP(pdev, 0x80U);
 485              		.loc 2 238 23
 486 0084 8021     		movs	r1, #128
 487 0086 7868     		ldr	r0, [r7, #4]
 488 0088 FFF7FEFF 		bl	USBD_LL_StallEP
 489              		.loc 2 238 17
 490 008c 00BF     		nop
 239:Middlewares/ST/STM32_USB_Device_Library/Core/Src/usbd_ctlreq.c ****               }
 240:Middlewares/ST/STM32_USB_Device_Library/Core/Src/usbd_ctlreq.c ****               else
 241:Middlewares/ST/STM32_USB_Device_Library/Core/Src/usbd_ctlreq.c ****               {
 242:Middlewares/ST/STM32_USB_Device_Library/Core/Src/usbd_ctlreq.c ****                 USBD_CtlError(pdev, req);
 243:Middlewares/ST/STM32_USB_Device_Library/Core/Src/usbd_ctlreq.c ****               }
 244:Middlewares/ST/STM32_USB_Device_Library/Core/Src/usbd_ctlreq.c ****               break;
 491              		.loc 2 244 15
 492 008e 20E0     		b	.L43
 493              	.L41:
 242:Middlewares/ST/STM32_USB_Device_Library/Core/Src/usbd_ctlreq.c ****               }
 494              		.loc 2 242 17
 495 0090 3968     		ldr	r1, [r7]
 496 0092 7868     		ldr	r0, [r7, #4]
 497 0094 FFF7FEFF 		bl	USBD_CtlError
 498              		.loc 2 244 15
 499 0098 1BE0     		b	.L43
 500              	.L39:
 245:Middlewares/ST/STM32_USB_Device_Library/Core/Src/usbd_ctlreq.c **** 
 246:Middlewares/ST/STM32_USB_Device_Library/Core/Src/usbd_ctlreq.c ****             case USBD_STATE_CONFIGURED:
 247:Middlewares/ST/STM32_USB_Device_Library/Core/Src/usbd_ctlreq.c ****               if (req->wValue == USB_FEATURE_EP_HALT)
 501              		.loc 2 247 22
 502 009a 3B68     		ldr	r3, [r7]
 503 009c 5B88     		ldrh	r3, [r3, #2]
 504              		.loc 2 247 18
 505 009e 002B     		cmp	r3, #0
ARM GAS  /var/folders/vq/qt4vp3kd5rxf7v2b6_fdtdt80000gn/T//ccjnR4Ke.s 			page 20


 506 00a0 0ED1     		bne	.L44
 248:Middlewares/ST/STM32_USB_Device_Library/Core/Src/usbd_ctlreq.c ****               {
 249:Middlewares/ST/STM32_USB_Device_Library/Core/Src/usbd_ctlreq.c ****                 if ((ep_addr != 0x00U) && (ep_addr != 0x80U) && (req->wLength == 0x00U))
 507              		.loc 2 249 20
 508 00a2 BB7B     		ldrb	r3, [r7, #14]	@ zero_extendqisi2
 509 00a4 002B     		cmp	r3, #0
 510 00a6 0BD0     		beq	.L44
 511              		.loc 2 249 40 discriminator 1
 512 00a8 BB7B     		ldrb	r3, [r7, #14]	@ zero_extendqisi2
 513 00aa 802B     		cmp	r3, #128
 514 00ac 08D0     		beq	.L44
 515              		.loc 2 249 69 discriminator 2
 516 00ae 3B68     		ldr	r3, [r7]
 517 00b0 DB88     		ldrh	r3, [r3, #6]
 518              		.loc 2 249 62 discriminator 2
 519 00b2 002B     		cmp	r3, #0
 520 00b4 04D1     		bne	.L44
 250:Middlewares/ST/STM32_USB_Device_Library/Core/Src/usbd_ctlreq.c ****                 {
 251:Middlewares/ST/STM32_USB_Device_Library/Core/Src/usbd_ctlreq.c ****                   (void)USBD_LL_StallEP(pdev, ep_addr);
 521              		.loc 2 251 25
 522 00b6 BB7B     		ldrb	r3, [r7, #14]	@ zero_extendqisi2
 523 00b8 1946     		mov	r1, r3
 524 00ba 7868     		ldr	r0, [r7, #4]
 525 00bc FFF7FEFF 		bl	USBD_LL_StallEP
 526              	.L44:
 252:Middlewares/ST/STM32_USB_Device_Library/Core/Src/usbd_ctlreq.c ****                 }
 253:Middlewares/ST/STM32_USB_Device_Library/Core/Src/usbd_ctlreq.c ****               }
 254:Middlewares/ST/STM32_USB_Device_Library/Core/Src/usbd_ctlreq.c ****               (void)USBD_CtlSendStatus(pdev);
 527              		.loc 2 254 21
 528 00c0 7868     		ldr	r0, [r7, #4]
 529 00c2 FFF7FEFF 		bl	USBD_CtlSendStatus
 255:Middlewares/ST/STM32_USB_Device_Library/Core/Src/usbd_ctlreq.c **** 
 256:Middlewares/ST/STM32_USB_Device_Library/Core/Src/usbd_ctlreq.c ****               break;
 530              		.loc 2 256 15
 531 00c6 04E0     		b	.L43
 532              	.L70:
 257:Middlewares/ST/STM32_USB_Device_Library/Core/Src/usbd_ctlreq.c **** 
 258:Middlewares/ST/STM32_USB_Device_Library/Core/Src/usbd_ctlreq.c ****             default:
 259:Middlewares/ST/STM32_USB_Device_Library/Core/Src/usbd_ctlreq.c ****               USBD_CtlError(pdev, req);
 533              		.loc 2 259 15
 534 00c8 3968     		ldr	r1, [r7]
 535 00ca 7868     		ldr	r0, [r7, #4]
 536 00cc FFF7FEFF 		bl	USBD_CtlError
 260:Middlewares/ST/STM32_USB_Device_Library/Core/Src/usbd_ctlreq.c ****               break;
 537              		.loc 2 260 15
 538 00d0 00BF     		nop
 539              	.L43:
 261:Middlewares/ST/STM32_USB_Device_Library/Core/Src/usbd_ctlreq.c ****           }
 262:Middlewares/ST/STM32_USB_Device_Library/Core/Src/usbd_ctlreq.c ****           break;
 540              		.loc 2 262 11
 541 00d2 ECE0     		b	.L45
 542              	.L37:
 263:Middlewares/ST/STM32_USB_Device_Library/Core/Src/usbd_ctlreq.c **** 
 264:Middlewares/ST/STM32_USB_Device_Library/Core/Src/usbd_ctlreq.c ****         case USB_REQ_CLEAR_FEATURE:
 265:Middlewares/ST/STM32_USB_Device_Library/Core/Src/usbd_ctlreq.c **** 
 266:Middlewares/ST/STM32_USB_Device_Library/Core/Src/usbd_ctlreq.c ****           switch (pdev->dev_state)
 543              		.loc 2 266 23 discriminator 2
ARM GAS  /var/folders/vq/qt4vp3kd5rxf7v2b6_fdtdt80000gn/T//ccjnR4Ke.s 			page 21


 544 00d4 7B68     		ldr	r3, [r7, #4]
 545 00d6 93F89C32 		ldrb	r3, [r3, #668]
 546 00da DBB2     		uxtb	r3, r3
 547 00dc 022B     		cmp	r3, #2
 548 00de 02D0     		beq	.L46
 549 00e0 032B     		cmp	r3, #3
 550 00e2 16D0     		beq	.L47
 551 00e4 30E0     		b	.L71
 552              	.L46:
 267:Middlewares/ST/STM32_USB_Device_Library/Core/Src/usbd_ctlreq.c ****           {
 268:Middlewares/ST/STM32_USB_Device_Library/Core/Src/usbd_ctlreq.c ****             case USBD_STATE_ADDRESSED:
 269:Middlewares/ST/STM32_USB_Device_Library/Core/Src/usbd_ctlreq.c ****               if ((ep_addr != 0x00U) && (ep_addr != 0x80U))
 553              		.loc 2 269 18
 554 00e6 BB7B     		ldrb	r3, [r7, #14]	@ zero_extendqisi2
 555 00e8 002B     		cmp	r3, #0
 556 00ea 0DD0     		beq	.L49
 557              		.loc 2 269 38 discriminator 1
 558 00ec BB7B     		ldrb	r3, [r7, #14]	@ zero_extendqisi2
 559 00ee 802B     		cmp	r3, #128
 560 00f0 0AD0     		beq	.L49
 270:Middlewares/ST/STM32_USB_Device_Library/Core/Src/usbd_ctlreq.c ****               {
 271:Middlewares/ST/STM32_USB_Device_Library/Core/Src/usbd_ctlreq.c ****                 (void)USBD_LL_StallEP(pdev, ep_addr);
 561              		.loc 2 271 23
 562 00f2 BB7B     		ldrb	r3, [r7, #14]	@ zero_extendqisi2
 563 00f4 1946     		mov	r1, r3
 564 00f6 7868     		ldr	r0, [r7, #4]
 565 00f8 FFF7FEFF 		bl	USBD_LL_StallEP
 272:Middlewares/ST/STM32_USB_Device_Library/Core/Src/usbd_ctlreq.c ****                 (void)USBD_LL_StallEP(pdev, 0x80U);
 566              		.loc 2 272 23
 567 00fc 8021     		movs	r1, #128
 568 00fe 7868     		ldr	r0, [r7, #4]
 569 0100 FFF7FEFF 		bl	USBD_LL_StallEP
 570              		.loc 2 272 17
 571 0104 00BF     		nop
 273:Middlewares/ST/STM32_USB_Device_Library/Core/Src/usbd_ctlreq.c ****               }
 274:Middlewares/ST/STM32_USB_Device_Library/Core/Src/usbd_ctlreq.c ****               else
 275:Middlewares/ST/STM32_USB_Device_Library/Core/Src/usbd_ctlreq.c ****               {
 276:Middlewares/ST/STM32_USB_Device_Library/Core/Src/usbd_ctlreq.c ****                 USBD_CtlError(pdev, req);
 277:Middlewares/ST/STM32_USB_Device_Library/Core/Src/usbd_ctlreq.c ****               }
 278:Middlewares/ST/STM32_USB_Device_Library/Core/Src/usbd_ctlreq.c ****               break;
 572              		.loc 2 278 15
 573 0106 25E0     		b	.L51
 574              	.L49:
 276:Middlewares/ST/STM32_USB_Device_Library/Core/Src/usbd_ctlreq.c ****               }
 575              		.loc 2 276 17
 576 0108 3968     		ldr	r1, [r7]
 577 010a 7868     		ldr	r0, [r7, #4]
 578 010c FFF7FEFF 		bl	USBD_CtlError
 579              		.loc 2 278 15
 580 0110 20E0     		b	.L51
 581              	.L47:
 279:Middlewares/ST/STM32_USB_Device_Library/Core/Src/usbd_ctlreq.c **** 
 280:Middlewares/ST/STM32_USB_Device_Library/Core/Src/usbd_ctlreq.c ****             case USBD_STATE_CONFIGURED:
 281:Middlewares/ST/STM32_USB_Device_Library/Core/Src/usbd_ctlreq.c ****               if (req->wValue == USB_FEATURE_EP_HALT)
 582              		.loc 2 281 22
 583 0112 3B68     		ldr	r3, [r7]
 584 0114 5B88     		ldrh	r3, [r3, #2]
ARM GAS  /var/folders/vq/qt4vp3kd5rxf7v2b6_fdtdt80000gn/T//ccjnR4Ke.s 			page 22


 585              		.loc 2 281 18
 586 0116 002B     		cmp	r3, #0
 587 0118 1BD1     		bne	.L73
 282:Middlewares/ST/STM32_USB_Device_Library/Core/Src/usbd_ctlreq.c ****               {
 283:Middlewares/ST/STM32_USB_Device_Library/Core/Src/usbd_ctlreq.c ****                 if ((ep_addr & 0x7FU) != 0x00U)
 588              		.loc 2 283 30
 589 011a BB7B     		ldrb	r3, [r7, #14]	@ zero_extendqisi2
 590 011c 03F07F03 		and	r3, r3, #127
 591              		.loc 2 283 20
 592 0120 002B     		cmp	r3, #0
 593 0122 04D0     		beq	.L53
 284:Middlewares/ST/STM32_USB_Device_Library/Core/Src/usbd_ctlreq.c ****                 {
 285:Middlewares/ST/STM32_USB_Device_Library/Core/Src/usbd_ctlreq.c ****                   (void)USBD_LL_ClearStallEP(pdev, ep_addr);
 594              		.loc 2 285 25
 595 0124 BB7B     		ldrb	r3, [r7, #14]	@ zero_extendqisi2
 596 0126 1946     		mov	r1, r3
 597 0128 7868     		ldr	r0, [r7, #4]
 598 012a FFF7FEFF 		bl	USBD_LL_ClearStallEP
 599              	.L53:
 286:Middlewares/ST/STM32_USB_Device_Library/Core/Src/usbd_ctlreq.c ****                 }
 287:Middlewares/ST/STM32_USB_Device_Library/Core/Src/usbd_ctlreq.c ****                 (void)USBD_CtlSendStatus(pdev);
 600              		.loc 2 287 23
 601 012e 7868     		ldr	r0, [r7, #4]
 602 0130 FFF7FEFF 		bl	USBD_CtlSendStatus
 288:Middlewares/ST/STM32_USB_Device_Library/Core/Src/usbd_ctlreq.c ****                 ret = (USBD_StatusTypeDef)pdev->pClass->Setup(pdev, req);
 603              		.loc 2 288 47
 604 0134 7B68     		ldr	r3, [r7, #4]
 605 0136 D3F8B832 		ldr	r3, [r3, #696]
 606              		.loc 2 288 55
 607 013a 9B68     		ldr	r3, [r3, #8]
 608              		.loc 2 288 43
 609 013c 3968     		ldr	r1, [r7]
 610 013e 7868     		ldr	r0, [r7, #4]
 611 0140 9847     		blx	r3
 612              	.LVL3:
 613 0142 0346     		mov	r3, r0
 614 0144 FB73     		strb	r3, [r7, #15]
 289:Middlewares/ST/STM32_USB_Device_Library/Core/Src/usbd_ctlreq.c ****               }
 290:Middlewares/ST/STM32_USB_Device_Library/Core/Src/usbd_ctlreq.c ****               break;
 615              		.loc 2 290 15
 616 0146 04E0     		b	.L73
 617              	.L71:
 291:Middlewares/ST/STM32_USB_Device_Library/Core/Src/usbd_ctlreq.c **** 
 292:Middlewares/ST/STM32_USB_Device_Library/Core/Src/usbd_ctlreq.c ****             default:
 293:Middlewares/ST/STM32_USB_Device_Library/Core/Src/usbd_ctlreq.c ****               USBD_CtlError(pdev, req);
 618              		.loc 2 293 15
 619 0148 3968     		ldr	r1, [r7]
 620 014a 7868     		ldr	r0, [r7, #4]
 621 014c FFF7FEFF 		bl	USBD_CtlError
 294:Middlewares/ST/STM32_USB_Device_Library/Core/Src/usbd_ctlreq.c ****               break;
 622              		.loc 2 294 15
 623 0150 00E0     		b	.L51
 624              	.L73:
 290:Middlewares/ST/STM32_USB_Device_Library/Core/Src/usbd_ctlreq.c **** 
 625              		.loc 2 290 15
 626 0152 00BF     		nop
 627              	.L51:
ARM GAS  /var/folders/vq/qt4vp3kd5rxf7v2b6_fdtdt80000gn/T//ccjnR4Ke.s 			page 23


 295:Middlewares/ST/STM32_USB_Device_Library/Core/Src/usbd_ctlreq.c ****           }
 296:Middlewares/ST/STM32_USB_Device_Library/Core/Src/usbd_ctlreq.c ****           break;
 628              		.loc 2 296 11
 629 0154 ABE0     		b	.L45
 630              	.L36:
 297:Middlewares/ST/STM32_USB_Device_Library/Core/Src/usbd_ctlreq.c **** 
 298:Middlewares/ST/STM32_USB_Device_Library/Core/Src/usbd_ctlreq.c ****         case USB_REQ_GET_STATUS:
 299:Middlewares/ST/STM32_USB_Device_Library/Core/Src/usbd_ctlreq.c ****           switch (pdev->dev_state)
 631              		.loc 2 299 23 discriminator 1
 632 0156 7B68     		ldr	r3, [r7, #4]
 633 0158 93F89C32 		ldrb	r3, [r3, #668]
 634 015c DBB2     		uxtb	r3, r3
 635 015e 022B     		cmp	r3, #2
 636 0160 02D0     		beq	.L54
 637 0162 032B     		cmp	r3, #3
 638 0164 32D0     		beq	.L55
 639 0166 97E0     		b	.L72
 640              	.L54:
 300:Middlewares/ST/STM32_USB_Device_Library/Core/Src/usbd_ctlreq.c ****           {
 301:Middlewares/ST/STM32_USB_Device_Library/Core/Src/usbd_ctlreq.c ****             case USBD_STATE_ADDRESSED:
 302:Middlewares/ST/STM32_USB_Device_Library/Core/Src/usbd_ctlreq.c ****               if ((ep_addr != 0x00U) && (ep_addr != 0x80U))
 641              		.loc 2 302 18
 642 0168 BB7B     		ldrb	r3, [r7, #14]	@ zero_extendqisi2
 643 016a 002B     		cmp	r3, #0
 644 016c 07D0     		beq	.L57
 645              		.loc 2 302 38 discriminator 1
 646 016e BB7B     		ldrb	r3, [r7, #14]	@ zero_extendqisi2
 647 0170 802B     		cmp	r3, #128
 648 0172 04D0     		beq	.L57
 303:Middlewares/ST/STM32_USB_Device_Library/Core/Src/usbd_ctlreq.c ****               {
 304:Middlewares/ST/STM32_USB_Device_Library/Core/Src/usbd_ctlreq.c ****                 USBD_CtlError(pdev, req);
 649              		.loc 2 304 17
 650 0174 3968     		ldr	r1, [r7]
 651 0176 7868     		ldr	r0, [r7, #4]
 652 0178 FFF7FEFF 		bl	USBD_CtlError
 305:Middlewares/ST/STM32_USB_Device_Library/Core/Src/usbd_ctlreq.c ****                 break;
 653              		.loc 2 305 17
 654 017c 91E0     		b	.L58
 655              	.L57:
 306:Middlewares/ST/STM32_USB_Device_Library/Core/Src/usbd_ctlreq.c ****               }
 307:Middlewares/ST/STM32_USB_Device_Library/Core/Src/usbd_ctlreq.c ****               pep = ((ep_addr & 0x80U) == 0x80U) ? &pdev->ep_in[ep_addr & 0x7FU] : \
 656              		.loc 2 307 40
 657 017e 97F90E30 		ldrsb	r3, [r7, #14]
 658              		.loc 2 307 82
 659 0182 002B     		cmp	r3, #0
 660 0184 0BDA     		bge	.L59
 661              		.loc 2 307 73 discriminator 1
 662 0186 BB7B     		ldrb	r3, [r7, #14]	@ zero_extendqisi2
 663 0188 03F07F02 		and	r2, r3, #127
 664              		.loc 2 307 82 discriminator 1
 665 018c 1346     		mov	r3, r2
 666 018e 9B00     		lsls	r3, r3, #2
 667 0190 1344     		add	r3, r3, r2
 668 0192 9B00     		lsls	r3, r3, #2
 669 0194 1033     		adds	r3, r3, #16
 670 0196 7A68     		ldr	r2, [r7, #4]
 671 0198 1344     		add	r3, r3, r2
ARM GAS  /var/folders/vq/qt4vp3kd5rxf7v2b6_fdtdt80000gn/T//ccjnR4Ke.s 			page 24


 672 019a 0433     		adds	r3, r3, #4
 673 019c 0BE0     		b	.L60
 674              	.L59:
 308:Middlewares/ST/STM32_USB_Device_Library/Core/Src/usbd_ctlreq.c ****                     &pdev->ep_out[ep_addr & 0x7FU];
 675              		.loc 2 308 43 discriminator 2
 676 019e BB7B     		ldrb	r3, [r7, #14]	@ zero_extendqisi2
 677 01a0 03F07F02 		and	r2, r3, #127
 307:Middlewares/ST/STM32_USB_Device_Library/Core/Src/usbd_ctlreq.c ****                     &pdev->ep_out[ep_addr & 0x7FU];
 678              		.loc 2 307 82 discriminator 2
 679 01a4 1346     		mov	r3, r2
 680 01a6 9B00     		lsls	r3, r3, #2
 681 01a8 1344     		add	r3, r3, r2
 682 01aa 9B00     		lsls	r3, r3, #2
 683 01ac 03F5A873 		add	r3, r3, #336
 684 01b0 7A68     		ldr	r2, [r7, #4]
 685 01b2 1344     		add	r3, r3, r2
 686 01b4 0433     		adds	r3, r3, #4
 687              	.L60:
 307:Middlewares/ST/STM32_USB_Device_Library/Core/Src/usbd_ctlreq.c ****                     &pdev->ep_out[ep_addr & 0x7FU];
 688              		.loc 2 307 19 discriminator 4
 689 01b6 BB60     		str	r3, [r7, #8]
 309:Middlewares/ST/STM32_USB_Device_Library/Core/Src/usbd_ctlreq.c **** 
 310:Middlewares/ST/STM32_USB_Device_Library/Core/Src/usbd_ctlreq.c ****               pep->status = 0x0000U;
 690              		.loc 2 310 27 discriminator 4
 691 01b8 BB68     		ldr	r3, [r7, #8]
 692 01ba 0022     		movs	r2, #0
 693 01bc 1A60     		str	r2, [r3]
 311:Middlewares/ST/STM32_USB_Device_Library/Core/Src/usbd_ctlreq.c **** 
 312:Middlewares/ST/STM32_USB_Device_Library/Core/Src/usbd_ctlreq.c ****               (void)USBD_CtlSendData(pdev, (uint8_t *)&pep->status, 2U);
 694              		.loc 2 312 55 discriminator 4
 695 01be BB68     		ldr	r3, [r7, #8]
 696              		.loc 2 312 21 discriminator 4
 697 01c0 0222     		movs	r2, #2
 698 01c2 1946     		mov	r1, r3
 699 01c4 7868     		ldr	r0, [r7, #4]
 700 01c6 FFF7FEFF 		bl	USBD_CtlSendData
 313:Middlewares/ST/STM32_USB_Device_Library/Core/Src/usbd_ctlreq.c ****               break;
 701              		.loc 2 313 15 discriminator 4
 702 01ca 6AE0     		b	.L58
 703              	.L55:
 314:Middlewares/ST/STM32_USB_Device_Library/Core/Src/usbd_ctlreq.c **** 
 315:Middlewares/ST/STM32_USB_Device_Library/Core/Src/usbd_ctlreq.c ****             case USBD_STATE_CONFIGURED:
 316:Middlewares/ST/STM32_USB_Device_Library/Core/Src/usbd_ctlreq.c ****               if ((ep_addr & 0x80U) == 0x80U)
 704              		.loc 2 316 37
 705 01cc 97F90E30 		ldrsb	r3, [r7, #14]
 706              		.loc 2 316 18
 707 01d0 002B     		cmp	r3, #0
 708 01d2 11DA     		bge	.L61
 317:Middlewares/ST/STM32_USB_Device_Library/Core/Src/usbd_ctlreq.c ****               {
 318:Middlewares/ST/STM32_USB_Device_Library/Core/Src/usbd_ctlreq.c ****                 if (pdev->ep_in[ep_addr & 0xFU].is_used == 0U)
 709              		.loc 2 318 41
 710 01d4 BB7B     		ldrb	r3, [r7, #14]	@ zero_extendqisi2
 711 01d6 03F00F02 		and	r2, r3, #15
 712              		.loc 2 318 48
 713 01da 7968     		ldr	r1, [r7, #4]
 714 01dc 1346     		mov	r3, r2
 715 01de 9B00     		lsls	r3, r3, #2
ARM GAS  /var/folders/vq/qt4vp3kd5rxf7v2b6_fdtdt80000gn/T//ccjnR4Ke.s 			page 25


 716 01e0 1344     		add	r3, r3, r2
 717 01e2 9B00     		lsls	r3, r3, #2
 718 01e4 0B44     		add	r3, r3, r1
 719 01e6 2433     		adds	r3, r3, #36
 720 01e8 1B88     		ldrh	r3, [r3]
 721              		.loc 2 318 20
 722 01ea 002B     		cmp	r3, #0
 723 01ec 17D1     		bne	.L62
 319:Middlewares/ST/STM32_USB_Device_Library/Core/Src/usbd_ctlreq.c ****                 {
 320:Middlewares/ST/STM32_USB_Device_Library/Core/Src/usbd_ctlreq.c ****                   USBD_CtlError(pdev, req);
 724              		.loc 2 320 19
 725 01ee 3968     		ldr	r1, [r7]
 726 01f0 7868     		ldr	r0, [r7, #4]
 727 01f2 FFF7FEFF 		bl	USBD_CtlError
 321:Middlewares/ST/STM32_USB_Device_Library/Core/Src/usbd_ctlreq.c ****                   break;
 728              		.loc 2 321 19
 729 01f6 54E0     		b	.L58
 730              	.L61:
 322:Middlewares/ST/STM32_USB_Device_Library/Core/Src/usbd_ctlreq.c ****                 }
 323:Middlewares/ST/STM32_USB_Device_Library/Core/Src/usbd_ctlreq.c ****               }
 324:Middlewares/ST/STM32_USB_Device_Library/Core/Src/usbd_ctlreq.c ****               else
 325:Middlewares/ST/STM32_USB_Device_Library/Core/Src/usbd_ctlreq.c ****               {
 326:Middlewares/ST/STM32_USB_Device_Library/Core/Src/usbd_ctlreq.c ****                 if (pdev->ep_out[ep_addr & 0xFU].is_used == 0U)
 731              		.loc 2 326 42
 732 01f8 BB7B     		ldrb	r3, [r7, #14]	@ zero_extendqisi2
 733 01fa 03F00F02 		and	r2, r3, #15
 734              		.loc 2 326 49
 735 01fe 7968     		ldr	r1, [r7, #4]
 736 0200 1346     		mov	r3, r2
 737 0202 9B00     		lsls	r3, r3, #2
 738 0204 1344     		add	r3, r3, r2
 739 0206 9B00     		lsls	r3, r3, #2
 740 0208 0B44     		add	r3, r3, r1
 741 020a 03F5B273 		add	r3, r3, #356
 742 020e 1B88     		ldrh	r3, [r3]
 743              		.loc 2 326 20
 744 0210 002B     		cmp	r3, #0
 745 0212 04D1     		bne	.L62
 327:Middlewares/ST/STM32_USB_Device_Library/Core/Src/usbd_ctlreq.c ****                 {
 328:Middlewares/ST/STM32_USB_Device_Library/Core/Src/usbd_ctlreq.c ****                   USBD_CtlError(pdev, req);
 746              		.loc 2 328 19
 747 0214 3968     		ldr	r1, [r7]
 748 0216 7868     		ldr	r0, [r7, #4]
 749 0218 FFF7FEFF 		bl	USBD_CtlError
 329:Middlewares/ST/STM32_USB_Device_Library/Core/Src/usbd_ctlreq.c ****                   break;
 750              		.loc 2 329 19
 751 021c 41E0     		b	.L58
 752              	.L62:
 330:Middlewares/ST/STM32_USB_Device_Library/Core/Src/usbd_ctlreq.c ****                 }
 331:Middlewares/ST/STM32_USB_Device_Library/Core/Src/usbd_ctlreq.c ****               }
 332:Middlewares/ST/STM32_USB_Device_Library/Core/Src/usbd_ctlreq.c **** 
 333:Middlewares/ST/STM32_USB_Device_Library/Core/Src/usbd_ctlreq.c ****               pep = ((ep_addr & 0x80U) == 0x80U) ? &pdev->ep_in[ep_addr & 0x7FU] : \
 753              		.loc 2 333 40
 754 021e 97F90E30 		ldrsb	r3, [r7, #14]
 755              		.loc 2 333 82
 756 0222 002B     		cmp	r3, #0
 757 0224 0BDA     		bge	.L63
ARM GAS  /var/folders/vq/qt4vp3kd5rxf7v2b6_fdtdt80000gn/T//ccjnR4Ke.s 			page 26


 758              		.loc 2 333 73 discriminator 1
 759 0226 BB7B     		ldrb	r3, [r7, #14]	@ zero_extendqisi2
 760 0228 03F07F02 		and	r2, r3, #127
 761              		.loc 2 333 82 discriminator 1
 762 022c 1346     		mov	r3, r2
 763 022e 9B00     		lsls	r3, r3, #2
 764 0230 1344     		add	r3, r3, r2
 765 0232 9B00     		lsls	r3, r3, #2
 766 0234 1033     		adds	r3, r3, #16
 767 0236 7A68     		ldr	r2, [r7, #4]
 768 0238 1344     		add	r3, r3, r2
 769 023a 0433     		adds	r3, r3, #4
 770 023c 0BE0     		b	.L64
 771              	.L63:
 334:Middlewares/ST/STM32_USB_Device_Library/Core/Src/usbd_ctlreq.c ****                     &pdev->ep_out[ep_addr & 0x7FU];
 772              		.loc 2 334 43 discriminator 2
 773 023e BB7B     		ldrb	r3, [r7, #14]	@ zero_extendqisi2
 774 0240 03F07F02 		and	r2, r3, #127
 333:Middlewares/ST/STM32_USB_Device_Library/Core/Src/usbd_ctlreq.c ****                     &pdev->ep_out[ep_addr & 0x7FU];
 775              		.loc 2 333 82 discriminator 2
 776 0244 1346     		mov	r3, r2
 777 0246 9B00     		lsls	r3, r3, #2
 778 0248 1344     		add	r3, r3, r2
 779 024a 9B00     		lsls	r3, r3, #2
 780 024c 03F5A873 		add	r3, r3, #336
 781 0250 7A68     		ldr	r2, [r7, #4]
 782 0252 1344     		add	r3, r3, r2
 783 0254 0433     		adds	r3, r3, #4
 784              	.L64:
 333:Middlewares/ST/STM32_USB_Device_Library/Core/Src/usbd_ctlreq.c ****                     &pdev->ep_out[ep_addr & 0x7FU];
 785              		.loc 2 333 19 discriminator 4
 786 0256 BB60     		str	r3, [r7, #8]
 335:Middlewares/ST/STM32_USB_Device_Library/Core/Src/usbd_ctlreq.c **** 
 336:Middlewares/ST/STM32_USB_Device_Library/Core/Src/usbd_ctlreq.c ****               if ((ep_addr == 0x00U) || (ep_addr == 0x80U))
 787              		.loc 2 336 18 discriminator 4
 788 0258 BB7B     		ldrb	r3, [r7, #14]	@ zero_extendqisi2
 789 025a 002B     		cmp	r3, #0
 790 025c 02D0     		beq	.L65
 791              		.loc 2 336 38 discriminator 1
 792 025e BB7B     		ldrb	r3, [r7, #14]	@ zero_extendqisi2
 793 0260 802B     		cmp	r3, #128
 794 0262 03D1     		bne	.L66
 795              	.L65:
 337:Middlewares/ST/STM32_USB_Device_Library/Core/Src/usbd_ctlreq.c ****               {
 338:Middlewares/ST/STM32_USB_Device_Library/Core/Src/usbd_ctlreq.c ****                 pep->status = 0x0000U;
 796              		.loc 2 338 29
 797 0264 BB68     		ldr	r3, [r7, #8]
 798 0266 0022     		movs	r2, #0
 799 0268 1A60     		str	r2, [r3]
 800 026a 0EE0     		b	.L67
 801              	.L66:
 339:Middlewares/ST/STM32_USB_Device_Library/Core/Src/usbd_ctlreq.c ****               }
 340:Middlewares/ST/STM32_USB_Device_Library/Core/Src/usbd_ctlreq.c ****               else if (USBD_LL_IsStallEP(pdev, ep_addr) != 0U)
 802              		.loc 2 340 24
 803 026c BB7B     		ldrb	r3, [r7, #14]	@ zero_extendqisi2
 804 026e 1946     		mov	r1, r3
 805 0270 7868     		ldr	r0, [r7, #4]
ARM GAS  /var/folders/vq/qt4vp3kd5rxf7v2b6_fdtdt80000gn/T//ccjnR4Ke.s 			page 27


 806 0272 FFF7FEFF 		bl	USBD_LL_IsStallEP
 807 0276 0346     		mov	r3, r0
 808              		.loc 2 340 23
 809 0278 002B     		cmp	r3, #0
 810 027a 03D0     		beq	.L68
 341:Middlewares/ST/STM32_USB_Device_Library/Core/Src/usbd_ctlreq.c ****               {
 342:Middlewares/ST/STM32_USB_Device_Library/Core/Src/usbd_ctlreq.c ****                 pep->status = 0x0001U;
 811              		.loc 2 342 29
 812 027c BB68     		ldr	r3, [r7, #8]
 813 027e 0122     		movs	r2, #1
 814 0280 1A60     		str	r2, [r3]
 815 0282 02E0     		b	.L67
 816              	.L68:
 343:Middlewares/ST/STM32_USB_Device_Library/Core/Src/usbd_ctlreq.c ****               }
 344:Middlewares/ST/STM32_USB_Device_Library/Core/Src/usbd_ctlreq.c ****               else
 345:Middlewares/ST/STM32_USB_Device_Library/Core/Src/usbd_ctlreq.c ****               {
 346:Middlewares/ST/STM32_USB_Device_Library/Core/Src/usbd_ctlreq.c ****                 pep->status = 0x0000U;
 817              		.loc 2 346 29
 818 0284 BB68     		ldr	r3, [r7, #8]
 819 0286 0022     		movs	r2, #0
 820 0288 1A60     		str	r2, [r3]
 821              	.L67:
 347:Middlewares/ST/STM32_USB_Device_Library/Core/Src/usbd_ctlreq.c ****               }
 348:Middlewares/ST/STM32_USB_Device_Library/Core/Src/usbd_ctlreq.c **** 
 349:Middlewares/ST/STM32_USB_Device_Library/Core/Src/usbd_ctlreq.c ****               (void)USBD_CtlSendData(pdev, (uint8_t *)&pep->status, 2U);
 822              		.loc 2 349 55
 823 028a BB68     		ldr	r3, [r7, #8]
 824              		.loc 2 349 21
 825 028c 0222     		movs	r2, #2
 826 028e 1946     		mov	r1, r3
 827 0290 7868     		ldr	r0, [r7, #4]
 828 0292 FFF7FEFF 		bl	USBD_CtlSendData
 350:Middlewares/ST/STM32_USB_Device_Library/Core/Src/usbd_ctlreq.c ****               break;
 829              		.loc 2 350 15
 830 0296 04E0     		b	.L58
 831              	.L72:
 351:Middlewares/ST/STM32_USB_Device_Library/Core/Src/usbd_ctlreq.c **** 
 352:Middlewares/ST/STM32_USB_Device_Library/Core/Src/usbd_ctlreq.c ****             default:
 353:Middlewares/ST/STM32_USB_Device_Library/Core/Src/usbd_ctlreq.c ****               USBD_CtlError(pdev, req);
 832              		.loc 2 353 15
 833 0298 3968     		ldr	r1, [r7]
 834 029a 7868     		ldr	r0, [r7, #4]
 835 029c FFF7FEFF 		bl	USBD_CtlError
 354:Middlewares/ST/STM32_USB_Device_Library/Core/Src/usbd_ctlreq.c ****               break;
 836              		.loc 2 354 15
 837 02a0 00BF     		nop
 838              	.L58:
 355:Middlewares/ST/STM32_USB_Device_Library/Core/Src/usbd_ctlreq.c ****           }
 356:Middlewares/ST/STM32_USB_Device_Library/Core/Src/usbd_ctlreq.c ****           break;
 839              		.loc 2 356 11
 840 02a2 04E0     		b	.L45
 841              	.L35:
 357:Middlewares/ST/STM32_USB_Device_Library/Core/Src/usbd_ctlreq.c **** 
 358:Middlewares/ST/STM32_USB_Device_Library/Core/Src/usbd_ctlreq.c ****         default:
 359:Middlewares/ST/STM32_USB_Device_Library/Core/Src/usbd_ctlreq.c ****           USBD_CtlError(pdev, req);
 842              		.loc 2 359 11
 843 02a4 3968     		ldr	r1, [r7]
ARM GAS  /var/folders/vq/qt4vp3kd5rxf7v2b6_fdtdt80000gn/T//ccjnR4Ke.s 			page 28


 844 02a6 7868     		ldr	r0, [r7, #4]
 845 02a8 FFF7FEFF 		bl	USBD_CtlError
 360:Middlewares/ST/STM32_USB_Device_Library/Core/Src/usbd_ctlreq.c ****           break;
 846              		.loc 2 360 11
 847 02ac 00BF     		nop
 848              	.L45:
 361:Middlewares/ST/STM32_USB_Device_Library/Core/Src/usbd_ctlreq.c ****       }
 362:Middlewares/ST/STM32_USB_Device_Library/Core/Src/usbd_ctlreq.c ****       break;
 849              		.loc 2 362 7
 850 02ae 04E0     		b	.L33
 851              	.L31:
 363:Middlewares/ST/STM32_USB_Device_Library/Core/Src/usbd_ctlreq.c **** 
 364:Middlewares/ST/STM32_USB_Device_Library/Core/Src/usbd_ctlreq.c ****     default:
 365:Middlewares/ST/STM32_USB_Device_Library/Core/Src/usbd_ctlreq.c ****       USBD_CtlError(pdev, req);
 852              		.loc 2 365 7
 853 02b0 3968     		ldr	r1, [r7]
 854 02b2 7868     		ldr	r0, [r7, #4]
 855 02b4 FFF7FEFF 		bl	USBD_CtlError
 366:Middlewares/ST/STM32_USB_Device_Library/Core/Src/usbd_ctlreq.c ****       break;
 856              		.loc 2 366 7
 857 02b8 00BF     		nop
 858              	.L33:
 367:Middlewares/ST/STM32_USB_Device_Library/Core/Src/usbd_ctlreq.c ****   }
 368:Middlewares/ST/STM32_USB_Device_Library/Core/Src/usbd_ctlreq.c **** 
 369:Middlewares/ST/STM32_USB_Device_Library/Core/Src/usbd_ctlreq.c ****   return ret;
 859              		.loc 2 369 10
 860 02ba FB7B     		ldrb	r3, [r7, #15]	@ zero_extendqisi2
 370:Middlewares/ST/STM32_USB_Device_Library/Core/Src/usbd_ctlreq.c **** }
 861              		.loc 2 370 1
 862 02bc 1846     		mov	r0, r3
 863 02be 1037     		adds	r7, r7, #16
 864              	.LCFI19:
 865              		.cfi_def_cfa_offset 8
 866 02c0 BD46     		mov	sp, r7
 867              	.LCFI20:
 868              		.cfi_def_cfa_register 13
 869              		@ sp needed
 870 02c2 80BD     		pop	{r7, pc}
 871              		.cfi_endproc
 872              	.LFE136:
 874              		.section	.text.USBD_GetDescriptor,"ax",%progbits
 875              		.align	1
 876              		.syntax unified
 877              		.thumb
 878              		.thumb_func
 879              		.fpu fpv4-sp-d16
 881              	USBD_GetDescriptor:
 882              	.LFB137:
 371:Middlewares/ST/STM32_USB_Device_Library/Core/Src/usbd_ctlreq.c **** 
 372:Middlewares/ST/STM32_USB_Device_Library/Core/Src/usbd_ctlreq.c **** 
 373:Middlewares/ST/STM32_USB_Device_Library/Core/Src/usbd_ctlreq.c **** /**
 374:Middlewares/ST/STM32_USB_Device_Library/Core/Src/usbd_ctlreq.c ****   * @brief  USBD_GetDescriptor
 375:Middlewares/ST/STM32_USB_Device_Library/Core/Src/usbd_ctlreq.c ****   *         Handle Get Descriptor requests
 376:Middlewares/ST/STM32_USB_Device_Library/Core/Src/usbd_ctlreq.c ****   * @param  pdev: device instance
 377:Middlewares/ST/STM32_USB_Device_Library/Core/Src/usbd_ctlreq.c ****   * @param  req: usb request
 378:Middlewares/ST/STM32_USB_Device_Library/Core/Src/usbd_ctlreq.c ****   * @retval status
 379:Middlewares/ST/STM32_USB_Device_Library/Core/Src/usbd_ctlreq.c ****   */
ARM GAS  /var/folders/vq/qt4vp3kd5rxf7v2b6_fdtdt80000gn/T//ccjnR4Ke.s 			page 29


 380:Middlewares/ST/STM32_USB_Device_Library/Core/Src/usbd_ctlreq.c **** static void USBD_GetDescriptor(USBD_HandleTypeDef *pdev, USBD_SetupReqTypedef *req)
 381:Middlewares/ST/STM32_USB_Device_Library/Core/Src/usbd_ctlreq.c **** {
 883              		.loc 2 381 1
 884              		.cfi_startproc
 885              		@ args = 0, pretend = 0, frame = 16
 886              		@ frame_needed = 1, uses_anonymous_args = 0
 887 0000 80B5     		push	{r7, lr}
 888              	.LCFI21:
 889              		.cfi_def_cfa_offset 8
 890              		.cfi_offset 7, -8
 891              		.cfi_offset 14, -4
 892 0002 84B0     		sub	sp, sp, #16
 893              	.LCFI22:
 894              		.cfi_def_cfa_offset 24
 895 0004 00AF     		add	r7, sp, #0
 896              	.LCFI23:
 897              		.cfi_def_cfa_register 7
 898 0006 7860     		str	r0, [r7, #4]
 899 0008 3960     		str	r1, [r7]
 382:Middlewares/ST/STM32_USB_Device_Library/Core/Src/usbd_ctlreq.c ****   uint16_t len = 0U;
 900              		.loc 2 382 12
 901 000a 0023     		movs	r3, #0
 902 000c 3B81     		strh	r3, [r7, #8]	@ movhi
 383:Middlewares/ST/STM32_USB_Device_Library/Core/Src/usbd_ctlreq.c ****   uint8_t *pbuf = NULL;
 903              		.loc 2 383 12
 904 000e 0023     		movs	r3, #0
 905 0010 FB60     		str	r3, [r7, #12]
 384:Middlewares/ST/STM32_USB_Device_Library/Core/Src/usbd_ctlreq.c ****   uint8_t err = 0U;
 906              		.loc 2 384 11
 907 0012 0023     		movs	r3, #0
 908 0014 FB72     		strb	r3, [r7, #11]
 385:Middlewares/ST/STM32_USB_Device_Library/Core/Src/usbd_ctlreq.c **** 
 386:Middlewares/ST/STM32_USB_Device_Library/Core/Src/usbd_ctlreq.c ****   switch (req->wValue >> 8)
 909              		.loc 2 386 14
 910 0016 3B68     		ldr	r3, [r7]
 911 0018 5B88     		ldrh	r3, [r3, #2]
 912              		.loc 2 386 23
 913 001a 1B0A     		lsrs	r3, r3, #8
 914 001c 9BB2     		uxth	r3, r3
 915 001e 013B     		subs	r3, r3, #1
 916 0020 062B     		cmp	r3, #6
 917 0022 00F22881 		bhi	.L75
 918 0026 01A2     		adr	r2, .L77
 919 0028 52F823F0 		ldr	pc, [r2, r3, lsl #2]
 920              		.p2align 2
 921              	.L77:
 922 002c 49000000 		.word	.L81+1
 923 0030 61000000 		.word	.L80+1
 924 0034 A1000000 		.word	.L79+1
 925 0038 77020000 		.word	.L75+1
 926 003c 77020000 		.word	.L75+1
 927 0040 17020000 		.word	.L78+1
 928 0044 43020000 		.word	.L76+1
 929              		.p2align 1
 930              	.L81:
 387:Middlewares/ST/STM32_USB_Device_Library/Core/Src/usbd_ctlreq.c ****   {
 388:Middlewares/ST/STM32_USB_Device_Library/Core/Src/usbd_ctlreq.c **** #if ((USBD_LPM_ENABLED == 1U) || (USBD_CLASS_BOS_ENABLED == 1U))
ARM GAS  /var/folders/vq/qt4vp3kd5rxf7v2b6_fdtdt80000gn/T//ccjnR4Ke.s 			page 30


 389:Middlewares/ST/STM32_USB_Device_Library/Core/Src/usbd_ctlreq.c ****     case USB_DESC_TYPE_BOS:
 390:Middlewares/ST/STM32_USB_Device_Library/Core/Src/usbd_ctlreq.c ****       if (pdev->pDesc->GetBOSDescriptor != NULL)
 391:Middlewares/ST/STM32_USB_Device_Library/Core/Src/usbd_ctlreq.c ****       {
 392:Middlewares/ST/STM32_USB_Device_Library/Core/Src/usbd_ctlreq.c ****         pbuf = pdev->pDesc->GetBOSDescriptor(pdev->dev_speed, &len);
 393:Middlewares/ST/STM32_USB_Device_Library/Core/Src/usbd_ctlreq.c ****       }
 394:Middlewares/ST/STM32_USB_Device_Library/Core/Src/usbd_ctlreq.c ****       else
 395:Middlewares/ST/STM32_USB_Device_Library/Core/Src/usbd_ctlreq.c ****       {
 396:Middlewares/ST/STM32_USB_Device_Library/Core/Src/usbd_ctlreq.c ****         USBD_CtlError(pdev, req);
 397:Middlewares/ST/STM32_USB_Device_Library/Core/Src/usbd_ctlreq.c ****         err++;
 398:Middlewares/ST/STM32_USB_Device_Library/Core/Src/usbd_ctlreq.c ****       }
 399:Middlewares/ST/STM32_USB_Device_Library/Core/Src/usbd_ctlreq.c ****       break;
 400:Middlewares/ST/STM32_USB_Device_Library/Core/Src/usbd_ctlreq.c **** #endif
 401:Middlewares/ST/STM32_USB_Device_Library/Core/Src/usbd_ctlreq.c ****     case USB_DESC_TYPE_DEVICE:
 402:Middlewares/ST/STM32_USB_Device_Library/Core/Src/usbd_ctlreq.c ****       pbuf = pdev->pDesc->GetDeviceDescriptor(pdev->dev_speed, &len);
 931              		.loc 2 402 18
 932 0048 7B68     		ldr	r3, [r7, #4]
 933 004a D3F8B432 		ldr	r3, [r3, #692]
 934              		.loc 2 402 25
 935 004e 1B68     		ldr	r3, [r3]
 936              		.loc 2 402 14
 937 0050 7A68     		ldr	r2, [r7, #4]
 938 0052 127C     		ldrb	r2, [r2, #16]	@ zero_extendqisi2
 939 0054 07F10801 		add	r1, r7, #8
 940 0058 1046     		mov	r0, r2
 941 005a 9847     		blx	r3
 942              	.LVL4:
 943 005c F860     		str	r0, [r7, #12]
 403:Middlewares/ST/STM32_USB_Device_Library/Core/Src/usbd_ctlreq.c ****       break;
 944              		.loc 2 403 7
 945 005e 12E1     		b	.L82
 946              	.L80:
 404:Middlewares/ST/STM32_USB_Device_Library/Core/Src/usbd_ctlreq.c **** 
 405:Middlewares/ST/STM32_USB_Device_Library/Core/Src/usbd_ctlreq.c ****     case USB_DESC_TYPE_CONFIGURATION:
 406:Middlewares/ST/STM32_USB_Device_Library/Core/Src/usbd_ctlreq.c ****       if (pdev->dev_speed == USBD_SPEED_HIGH)
 947              		.loc 2 406 15
 948 0060 7B68     		ldr	r3, [r7, #4]
 949 0062 1B7C     		ldrb	r3, [r3, #16]	@ zero_extendqisi2
 950              		.loc 2 406 10
 951 0064 002B     		cmp	r3, #0
 952 0066 0DD1     		bne	.L83
 407:Middlewares/ST/STM32_USB_Device_Library/Core/Src/usbd_ctlreq.c ****       {
 408:Middlewares/ST/STM32_USB_Device_Library/Core/Src/usbd_ctlreq.c ****         pbuf = pdev->pClass->GetHSConfigDescriptor(&len);
 953              		.loc 2 408 20
 954 0068 7B68     		ldr	r3, [r7, #4]
 955 006a D3F8B832 		ldr	r3, [r3, #696]
 956              		.loc 2 408 28
 957 006e 9B6A     		ldr	r3, [r3, #40]
 958              		.loc 2 408 16
 959 0070 07F10802 		add	r2, r7, #8
 960 0074 1046     		mov	r0, r2
 961 0076 9847     		blx	r3
 962              	.LVL5:
 963 0078 F860     		str	r0, [r7, #12]
 409:Middlewares/ST/STM32_USB_Device_Library/Core/Src/usbd_ctlreq.c ****         pbuf[1] = USB_DESC_TYPE_CONFIGURATION;
 964              		.loc 2 409 13
 965 007a FB68     		ldr	r3, [r7, #12]
 966 007c 0133     		adds	r3, r3, #1
ARM GAS  /var/folders/vq/qt4vp3kd5rxf7v2b6_fdtdt80000gn/T//ccjnR4Ke.s 			page 31


 967              		.loc 2 409 17
 968 007e 0222     		movs	r2, #2
 969 0080 1A70     		strb	r2, [r3]
 410:Middlewares/ST/STM32_USB_Device_Library/Core/Src/usbd_ctlreq.c ****       }
 411:Middlewares/ST/STM32_USB_Device_Library/Core/Src/usbd_ctlreq.c ****       else
 412:Middlewares/ST/STM32_USB_Device_Library/Core/Src/usbd_ctlreq.c ****       {
 413:Middlewares/ST/STM32_USB_Device_Library/Core/Src/usbd_ctlreq.c ****         pbuf = pdev->pClass->GetFSConfigDescriptor(&len);
 414:Middlewares/ST/STM32_USB_Device_Library/Core/Src/usbd_ctlreq.c ****         pbuf[1] = USB_DESC_TYPE_CONFIGURATION;
 415:Middlewares/ST/STM32_USB_Device_Library/Core/Src/usbd_ctlreq.c ****       }
 416:Middlewares/ST/STM32_USB_Device_Library/Core/Src/usbd_ctlreq.c ****       break;
 970              		.loc 2 416 7
 971 0082 00E1     		b	.L82
 972              	.L83:
 413:Middlewares/ST/STM32_USB_Device_Library/Core/Src/usbd_ctlreq.c ****         pbuf[1] = USB_DESC_TYPE_CONFIGURATION;
 973              		.loc 2 413 20
 974 0084 7B68     		ldr	r3, [r7, #4]
 975 0086 D3F8B832 		ldr	r3, [r3, #696]
 413:Middlewares/ST/STM32_USB_Device_Library/Core/Src/usbd_ctlreq.c ****         pbuf[1] = USB_DESC_TYPE_CONFIGURATION;
 976              		.loc 2 413 28
 977 008a DB6A     		ldr	r3, [r3, #44]
 413:Middlewares/ST/STM32_USB_Device_Library/Core/Src/usbd_ctlreq.c ****         pbuf[1] = USB_DESC_TYPE_CONFIGURATION;
 978              		.loc 2 413 16
 979 008c 07F10802 		add	r2, r7, #8
 980 0090 1046     		mov	r0, r2
 981 0092 9847     		blx	r3
 982              	.LVL6:
 983 0094 F860     		str	r0, [r7, #12]
 414:Middlewares/ST/STM32_USB_Device_Library/Core/Src/usbd_ctlreq.c ****       }
 984              		.loc 2 414 13
 985 0096 FB68     		ldr	r3, [r7, #12]
 986 0098 0133     		adds	r3, r3, #1
 414:Middlewares/ST/STM32_USB_Device_Library/Core/Src/usbd_ctlreq.c ****       }
 987              		.loc 2 414 17
 988 009a 0222     		movs	r2, #2
 989 009c 1A70     		strb	r2, [r3]
 990              		.loc 2 416 7
 991 009e F2E0     		b	.L82
 992              	.L79:
 417:Middlewares/ST/STM32_USB_Device_Library/Core/Src/usbd_ctlreq.c **** 
 418:Middlewares/ST/STM32_USB_Device_Library/Core/Src/usbd_ctlreq.c ****     case USB_DESC_TYPE_STRING:
 419:Middlewares/ST/STM32_USB_Device_Library/Core/Src/usbd_ctlreq.c ****       switch ((uint8_t)(req->wValue))
 993              		.loc 2 419 28
 994 00a0 3B68     		ldr	r3, [r7]
 995 00a2 5B88     		ldrh	r3, [r3, #2]
 996              		.loc 2 419 15
 997 00a4 DBB2     		uxtb	r3, r3
 998 00a6 052B     		cmp	r3, #5
 999 00a8 00F2AC80 		bhi	.L85
 1000 00ac 01A2     		adr	r2, .L87
 1001 00ae 52F823F0 		ldr	pc, [r2, r3, lsl #2]
 1002 00b2 00BF     		.p2align 2
 1003              	.L87:
 1004 00b4 CD000000 		.word	.L92+1
 1005 00b8 01010000 		.word	.L91+1
 1006 00bc 35010000 		.word	.L90+1
 1007 00c0 69010000 		.word	.L89+1
 1008 00c4 9D010000 		.word	.L88+1
ARM GAS  /var/folders/vq/qt4vp3kd5rxf7v2b6_fdtdt80000gn/T//ccjnR4Ke.s 			page 32


 1009 00c8 D1010000 		.word	.L86+1
 1010              		.p2align 1
 1011              	.L92:
 420:Middlewares/ST/STM32_USB_Device_Library/Core/Src/usbd_ctlreq.c ****       {
 421:Middlewares/ST/STM32_USB_Device_Library/Core/Src/usbd_ctlreq.c ****         case USBD_IDX_LANGID_STR:
 422:Middlewares/ST/STM32_USB_Device_Library/Core/Src/usbd_ctlreq.c ****           if (pdev->pDesc->GetLangIDStrDescriptor != NULL)
 1012              		.loc 2 422 19
 1013 00cc 7B68     		ldr	r3, [r7, #4]
 1014 00ce D3F8B432 		ldr	r3, [r3, #692]
 1015              		.loc 2 422 26
 1016 00d2 5B68     		ldr	r3, [r3, #4]
 1017              		.loc 2 422 14
 1018 00d4 002B     		cmp	r3, #0
 1019 00d6 0BD0     		beq	.L93
 423:Middlewares/ST/STM32_USB_Device_Library/Core/Src/usbd_ctlreq.c ****           {
 424:Middlewares/ST/STM32_USB_Device_Library/Core/Src/usbd_ctlreq.c ****             pbuf = pdev->pDesc->GetLangIDStrDescriptor(pdev->dev_speed, &len);
 1020              		.loc 2 424 24
 1021 00d8 7B68     		ldr	r3, [r7, #4]
 1022 00da D3F8B432 		ldr	r3, [r3, #692]
 1023              		.loc 2 424 31
 1024 00de 5B68     		ldr	r3, [r3, #4]
 1025              		.loc 2 424 20
 1026 00e0 7A68     		ldr	r2, [r7, #4]
 1027 00e2 127C     		ldrb	r2, [r2, #16]	@ zero_extendqisi2
 1028 00e4 07F10801 		add	r1, r7, #8
 1029 00e8 1046     		mov	r0, r2
 1030 00ea 9847     		blx	r3
 1031              	.LVL7:
 1032 00ec F860     		str	r0, [r7, #12]
 425:Middlewares/ST/STM32_USB_Device_Library/Core/Src/usbd_ctlreq.c ****           }
 426:Middlewares/ST/STM32_USB_Device_Library/Core/Src/usbd_ctlreq.c ****           else
 427:Middlewares/ST/STM32_USB_Device_Library/Core/Src/usbd_ctlreq.c ****           {
 428:Middlewares/ST/STM32_USB_Device_Library/Core/Src/usbd_ctlreq.c ****             USBD_CtlError(pdev, req);
 429:Middlewares/ST/STM32_USB_Device_Library/Core/Src/usbd_ctlreq.c ****             err++;
 430:Middlewares/ST/STM32_USB_Device_Library/Core/Src/usbd_ctlreq.c ****           }
 431:Middlewares/ST/STM32_USB_Device_Library/Core/Src/usbd_ctlreq.c ****           break;
 1033              		.loc 2 431 11
 1034 00ee 91E0     		b	.L95
 1035              	.L93:
 428:Middlewares/ST/STM32_USB_Device_Library/Core/Src/usbd_ctlreq.c ****             err++;
 1036              		.loc 2 428 13
 1037 00f0 3968     		ldr	r1, [r7]
 1038 00f2 7868     		ldr	r0, [r7, #4]
 1039 00f4 FFF7FEFF 		bl	USBD_CtlError
 429:Middlewares/ST/STM32_USB_Device_Library/Core/Src/usbd_ctlreq.c ****           }
 1040              		.loc 2 429 16
 1041 00f8 FB7A     		ldrb	r3, [r7, #11]	@ zero_extendqisi2
 1042 00fa 0133     		adds	r3, r3, #1
 1043 00fc FB72     		strb	r3, [r7, #11]
 1044              		.loc 2 431 11
 1045 00fe 89E0     		b	.L95
 1046              	.L91:
 432:Middlewares/ST/STM32_USB_Device_Library/Core/Src/usbd_ctlreq.c **** 
 433:Middlewares/ST/STM32_USB_Device_Library/Core/Src/usbd_ctlreq.c ****         case USBD_IDX_MFC_STR:
 434:Middlewares/ST/STM32_USB_Device_Library/Core/Src/usbd_ctlreq.c ****           if (pdev->pDesc->GetManufacturerStrDescriptor != NULL)
 1047              		.loc 2 434 19
 1048 0100 7B68     		ldr	r3, [r7, #4]
ARM GAS  /var/folders/vq/qt4vp3kd5rxf7v2b6_fdtdt80000gn/T//ccjnR4Ke.s 			page 33


 1049 0102 D3F8B432 		ldr	r3, [r3, #692]
 1050              		.loc 2 434 26
 1051 0106 9B68     		ldr	r3, [r3, #8]
 1052              		.loc 2 434 14
 1053 0108 002B     		cmp	r3, #0
 1054 010a 0BD0     		beq	.L96
 435:Middlewares/ST/STM32_USB_Device_Library/Core/Src/usbd_ctlreq.c ****           {
 436:Middlewares/ST/STM32_USB_Device_Library/Core/Src/usbd_ctlreq.c ****             pbuf = pdev->pDesc->GetManufacturerStrDescriptor(pdev->dev_speed, &len);
 1055              		.loc 2 436 24
 1056 010c 7B68     		ldr	r3, [r7, #4]
 1057 010e D3F8B432 		ldr	r3, [r3, #692]
 1058              		.loc 2 436 31
 1059 0112 9B68     		ldr	r3, [r3, #8]
 1060              		.loc 2 436 20
 1061 0114 7A68     		ldr	r2, [r7, #4]
 1062 0116 127C     		ldrb	r2, [r2, #16]	@ zero_extendqisi2
 1063 0118 07F10801 		add	r1, r7, #8
 1064 011c 1046     		mov	r0, r2
 1065 011e 9847     		blx	r3
 1066              	.LVL8:
 1067 0120 F860     		str	r0, [r7, #12]
 437:Middlewares/ST/STM32_USB_Device_Library/Core/Src/usbd_ctlreq.c ****           }
 438:Middlewares/ST/STM32_USB_Device_Library/Core/Src/usbd_ctlreq.c ****           else
 439:Middlewares/ST/STM32_USB_Device_Library/Core/Src/usbd_ctlreq.c ****           {
 440:Middlewares/ST/STM32_USB_Device_Library/Core/Src/usbd_ctlreq.c ****             USBD_CtlError(pdev, req);
 441:Middlewares/ST/STM32_USB_Device_Library/Core/Src/usbd_ctlreq.c ****             err++;
 442:Middlewares/ST/STM32_USB_Device_Library/Core/Src/usbd_ctlreq.c ****           }
 443:Middlewares/ST/STM32_USB_Device_Library/Core/Src/usbd_ctlreq.c ****           break;
 1068              		.loc 2 443 11
 1069 0122 77E0     		b	.L95
 1070              	.L96:
 440:Middlewares/ST/STM32_USB_Device_Library/Core/Src/usbd_ctlreq.c ****             err++;
 1071              		.loc 2 440 13
 1072 0124 3968     		ldr	r1, [r7]
 1073 0126 7868     		ldr	r0, [r7, #4]
 1074 0128 FFF7FEFF 		bl	USBD_CtlError
 441:Middlewares/ST/STM32_USB_Device_Library/Core/Src/usbd_ctlreq.c ****           }
 1075              		.loc 2 441 16
 1076 012c FB7A     		ldrb	r3, [r7, #11]	@ zero_extendqisi2
 1077 012e 0133     		adds	r3, r3, #1
 1078 0130 FB72     		strb	r3, [r7, #11]
 1079              		.loc 2 443 11
 1080 0132 6FE0     		b	.L95
 1081              	.L90:
 444:Middlewares/ST/STM32_USB_Device_Library/Core/Src/usbd_ctlreq.c **** 
 445:Middlewares/ST/STM32_USB_Device_Library/Core/Src/usbd_ctlreq.c ****         case USBD_IDX_PRODUCT_STR:
 446:Middlewares/ST/STM32_USB_Device_Library/Core/Src/usbd_ctlreq.c ****           if (pdev->pDesc->GetProductStrDescriptor != NULL)
 1082              		.loc 2 446 19
 1083 0134 7B68     		ldr	r3, [r7, #4]
 1084 0136 D3F8B432 		ldr	r3, [r3, #692]
 1085              		.loc 2 446 26
 1086 013a DB68     		ldr	r3, [r3, #12]
 1087              		.loc 2 446 14
 1088 013c 002B     		cmp	r3, #0
 1089 013e 0BD0     		beq	.L98
 447:Middlewares/ST/STM32_USB_Device_Library/Core/Src/usbd_ctlreq.c ****           {
 448:Middlewares/ST/STM32_USB_Device_Library/Core/Src/usbd_ctlreq.c ****             pbuf = pdev->pDesc->GetProductStrDescriptor(pdev->dev_speed, &len);
ARM GAS  /var/folders/vq/qt4vp3kd5rxf7v2b6_fdtdt80000gn/T//ccjnR4Ke.s 			page 34


 1090              		.loc 2 448 24
 1091 0140 7B68     		ldr	r3, [r7, #4]
 1092 0142 D3F8B432 		ldr	r3, [r3, #692]
 1093              		.loc 2 448 31
 1094 0146 DB68     		ldr	r3, [r3, #12]
 1095              		.loc 2 448 20
 1096 0148 7A68     		ldr	r2, [r7, #4]
 1097 014a 127C     		ldrb	r2, [r2, #16]	@ zero_extendqisi2
 1098 014c 07F10801 		add	r1, r7, #8
 1099 0150 1046     		mov	r0, r2
 1100 0152 9847     		blx	r3
 1101              	.LVL9:
 1102 0154 F860     		str	r0, [r7, #12]
 449:Middlewares/ST/STM32_USB_Device_Library/Core/Src/usbd_ctlreq.c ****           }
 450:Middlewares/ST/STM32_USB_Device_Library/Core/Src/usbd_ctlreq.c ****           else
 451:Middlewares/ST/STM32_USB_Device_Library/Core/Src/usbd_ctlreq.c ****           {
 452:Middlewares/ST/STM32_USB_Device_Library/Core/Src/usbd_ctlreq.c ****             USBD_CtlError(pdev, req);
 453:Middlewares/ST/STM32_USB_Device_Library/Core/Src/usbd_ctlreq.c ****             err++;
 454:Middlewares/ST/STM32_USB_Device_Library/Core/Src/usbd_ctlreq.c ****           }
 455:Middlewares/ST/STM32_USB_Device_Library/Core/Src/usbd_ctlreq.c ****           break;
 1103              		.loc 2 455 11
 1104 0156 5DE0     		b	.L95
 1105              	.L98:
 452:Middlewares/ST/STM32_USB_Device_Library/Core/Src/usbd_ctlreq.c ****             err++;
 1106              		.loc 2 452 13
 1107 0158 3968     		ldr	r1, [r7]
 1108 015a 7868     		ldr	r0, [r7, #4]
 1109 015c FFF7FEFF 		bl	USBD_CtlError
 453:Middlewares/ST/STM32_USB_Device_Library/Core/Src/usbd_ctlreq.c ****           }
 1110              		.loc 2 453 16
 1111 0160 FB7A     		ldrb	r3, [r7, #11]	@ zero_extendqisi2
 1112 0162 0133     		adds	r3, r3, #1
 1113 0164 FB72     		strb	r3, [r7, #11]
 1114              		.loc 2 455 11
 1115 0166 55E0     		b	.L95
 1116              	.L89:
 456:Middlewares/ST/STM32_USB_Device_Library/Core/Src/usbd_ctlreq.c **** 
 457:Middlewares/ST/STM32_USB_Device_Library/Core/Src/usbd_ctlreq.c ****         case USBD_IDX_SERIAL_STR:
 458:Middlewares/ST/STM32_USB_Device_Library/Core/Src/usbd_ctlreq.c ****           if (pdev->pDesc->GetSerialStrDescriptor != NULL)
 1117              		.loc 2 458 19
 1118 0168 7B68     		ldr	r3, [r7, #4]
 1119 016a D3F8B432 		ldr	r3, [r3, #692]
 1120              		.loc 2 458 26
 1121 016e 1B69     		ldr	r3, [r3, #16]
 1122              		.loc 2 458 14
 1123 0170 002B     		cmp	r3, #0
 1124 0172 0BD0     		beq	.L100
 459:Middlewares/ST/STM32_USB_Device_Library/Core/Src/usbd_ctlreq.c ****           {
 460:Middlewares/ST/STM32_USB_Device_Library/Core/Src/usbd_ctlreq.c ****             pbuf = pdev->pDesc->GetSerialStrDescriptor(pdev->dev_speed, &len);
 1125              		.loc 2 460 24
 1126 0174 7B68     		ldr	r3, [r7, #4]
 1127 0176 D3F8B432 		ldr	r3, [r3, #692]
 1128              		.loc 2 460 31
 1129 017a 1B69     		ldr	r3, [r3, #16]
 1130              		.loc 2 460 20
 1131 017c 7A68     		ldr	r2, [r7, #4]
 1132 017e 127C     		ldrb	r2, [r2, #16]	@ zero_extendqisi2
ARM GAS  /var/folders/vq/qt4vp3kd5rxf7v2b6_fdtdt80000gn/T//ccjnR4Ke.s 			page 35


 1133 0180 07F10801 		add	r1, r7, #8
 1134 0184 1046     		mov	r0, r2
 1135 0186 9847     		blx	r3
 1136              	.LVL10:
 1137 0188 F860     		str	r0, [r7, #12]
 461:Middlewares/ST/STM32_USB_Device_Library/Core/Src/usbd_ctlreq.c ****           }
 462:Middlewares/ST/STM32_USB_Device_Library/Core/Src/usbd_ctlreq.c ****           else
 463:Middlewares/ST/STM32_USB_Device_Library/Core/Src/usbd_ctlreq.c ****           {
 464:Middlewares/ST/STM32_USB_Device_Library/Core/Src/usbd_ctlreq.c ****             USBD_CtlError(pdev, req);
 465:Middlewares/ST/STM32_USB_Device_Library/Core/Src/usbd_ctlreq.c ****             err++;
 466:Middlewares/ST/STM32_USB_Device_Library/Core/Src/usbd_ctlreq.c ****           }
 467:Middlewares/ST/STM32_USB_Device_Library/Core/Src/usbd_ctlreq.c ****           break;
 1138              		.loc 2 467 11
 1139 018a 43E0     		b	.L95
 1140              	.L100:
 464:Middlewares/ST/STM32_USB_Device_Library/Core/Src/usbd_ctlreq.c ****             err++;
 1141              		.loc 2 464 13
 1142 018c 3968     		ldr	r1, [r7]
 1143 018e 7868     		ldr	r0, [r7, #4]
 1144 0190 FFF7FEFF 		bl	USBD_CtlError
 465:Middlewares/ST/STM32_USB_Device_Library/Core/Src/usbd_ctlreq.c ****           }
 1145              		.loc 2 465 16
 1146 0194 FB7A     		ldrb	r3, [r7, #11]	@ zero_extendqisi2
 1147 0196 0133     		adds	r3, r3, #1
 1148 0198 FB72     		strb	r3, [r7, #11]
 1149              		.loc 2 467 11
 1150 019a 3BE0     		b	.L95
 1151              	.L88:
 468:Middlewares/ST/STM32_USB_Device_Library/Core/Src/usbd_ctlreq.c **** 
 469:Middlewares/ST/STM32_USB_Device_Library/Core/Src/usbd_ctlreq.c ****         case USBD_IDX_CONFIG_STR:
 470:Middlewares/ST/STM32_USB_Device_Library/Core/Src/usbd_ctlreq.c ****           if (pdev->pDesc->GetConfigurationStrDescriptor != NULL)
 1152              		.loc 2 470 19
 1153 019c 7B68     		ldr	r3, [r7, #4]
 1154 019e D3F8B432 		ldr	r3, [r3, #692]
 1155              		.loc 2 470 26
 1156 01a2 5B69     		ldr	r3, [r3, #20]
 1157              		.loc 2 470 14
 1158 01a4 002B     		cmp	r3, #0
 1159 01a6 0BD0     		beq	.L102
 471:Middlewares/ST/STM32_USB_Device_Library/Core/Src/usbd_ctlreq.c ****           {
 472:Middlewares/ST/STM32_USB_Device_Library/Core/Src/usbd_ctlreq.c ****             pbuf = pdev->pDesc->GetConfigurationStrDescriptor(pdev->dev_speed, &len);
 1160              		.loc 2 472 24
 1161 01a8 7B68     		ldr	r3, [r7, #4]
 1162 01aa D3F8B432 		ldr	r3, [r3, #692]
 1163              		.loc 2 472 31
 1164 01ae 5B69     		ldr	r3, [r3, #20]
 1165              		.loc 2 472 20
 1166 01b0 7A68     		ldr	r2, [r7, #4]
 1167 01b2 127C     		ldrb	r2, [r2, #16]	@ zero_extendqisi2
 1168 01b4 07F10801 		add	r1, r7, #8
 1169 01b8 1046     		mov	r0, r2
 1170 01ba 9847     		blx	r3
 1171              	.LVL11:
 1172 01bc F860     		str	r0, [r7, #12]
 473:Middlewares/ST/STM32_USB_Device_Library/Core/Src/usbd_ctlreq.c ****           }
 474:Middlewares/ST/STM32_USB_Device_Library/Core/Src/usbd_ctlreq.c ****           else
 475:Middlewares/ST/STM32_USB_Device_Library/Core/Src/usbd_ctlreq.c ****           {
ARM GAS  /var/folders/vq/qt4vp3kd5rxf7v2b6_fdtdt80000gn/T//ccjnR4Ke.s 			page 36


 476:Middlewares/ST/STM32_USB_Device_Library/Core/Src/usbd_ctlreq.c ****             USBD_CtlError(pdev, req);
 477:Middlewares/ST/STM32_USB_Device_Library/Core/Src/usbd_ctlreq.c ****             err++;
 478:Middlewares/ST/STM32_USB_Device_Library/Core/Src/usbd_ctlreq.c ****           }
 479:Middlewares/ST/STM32_USB_Device_Library/Core/Src/usbd_ctlreq.c ****           break;
 1173              		.loc 2 479 11
 1174 01be 29E0     		b	.L95
 1175              	.L102:
 476:Middlewares/ST/STM32_USB_Device_Library/Core/Src/usbd_ctlreq.c ****             err++;
 1176              		.loc 2 476 13
 1177 01c0 3968     		ldr	r1, [r7]
 1178 01c2 7868     		ldr	r0, [r7, #4]
 1179 01c4 FFF7FEFF 		bl	USBD_CtlError
 477:Middlewares/ST/STM32_USB_Device_Library/Core/Src/usbd_ctlreq.c ****           }
 1180              		.loc 2 477 16
 1181 01c8 FB7A     		ldrb	r3, [r7, #11]	@ zero_extendqisi2
 1182 01ca 0133     		adds	r3, r3, #1
 1183 01cc FB72     		strb	r3, [r7, #11]
 1184              		.loc 2 479 11
 1185 01ce 21E0     		b	.L95
 1186              	.L86:
 480:Middlewares/ST/STM32_USB_Device_Library/Core/Src/usbd_ctlreq.c **** 
 481:Middlewares/ST/STM32_USB_Device_Library/Core/Src/usbd_ctlreq.c ****         case USBD_IDX_INTERFACE_STR:
 482:Middlewares/ST/STM32_USB_Device_Library/Core/Src/usbd_ctlreq.c ****           if (pdev->pDesc->GetInterfaceStrDescriptor != NULL)
 1187              		.loc 2 482 19
 1188 01d0 7B68     		ldr	r3, [r7, #4]
 1189 01d2 D3F8B432 		ldr	r3, [r3, #692]
 1190              		.loc 2 482 26
 1191 01d6 9B69     		ldr	r3, [r3, #24]
 1192              		.loc 2 482 14
 1193 01d8 002B     		cmp	r3, #0
 1194 01da 0BD0     		beq	.L104
 483:Middlewares/ST/STM32_USB_Device_Library/Core/Src/usbd_ctlreq.c ****           {
 484:Middlewares/ST/STM32_USB_Device_Library/Core/Src/usbd_ctlreq.c ****             pbuf = pdev->pDesc->GetInterfaceStrDescriptor(pdev->dev_speed, &len);
 1195              		.loc 2 484 24
 1196 01dc 7B68     		ldr	r3, [r7, #4]
 1197 01de D3F8B432 		ldr	r3, [r3, #692]
 1198              		.loc 2 484 31
 1199 01e2 9B69     		ldr	r3, [r3, #24]
 1200              		.loc 2 484 20
 1201 01e4 7A68     		ldr	r2, [r7, #4]
 1202 01e6 127C     		ldrb	r2, [r2, #16]	@ zero_extendqisi2
 1203 01e8 07F10801 		add	r1, r7, #8
 1204 01ec 1046     		mov	r0, r2
 1205 01ee 9847     		blx	r3
 1206              	.LVL12:
 1207 01f0 F860     		str	r0, [r7, #12]
 485:Middlewares/ST/STM32_USB_Device_Library/Core/Src/usbd_ctlreq.c ****           }
 486:Middlewares/ST/STM32_USB_Device_Library/Core/Src/usbd_ctlreq.c ****           else
 487:Middlewares/ST/STM32_USB_Device_Library/Core/Src/usbd_ctlreq.c ****           {
 488:Middlewares/ST/STM32_USB_Device_Library/Core/Src/usbd_ctlreq.c ****             USBD_CtlError(pdev, req);
 489:Middlewares/ST/STM32_USB_Device_Library/Core/Src/usbd_ctlreq.c ****             err++;
 490:Middlewares/ST/STM32_USB_Device_Library/Core/Src/usbd_ctlreq.c ****           }
 491:Middlewares/ST/STM32_USB_Device_Library/Core/Src/usbd_ctlreq.c ****           break;
 1208              		.loc 2 491 11
 1209 01f2 0FE0     		b	.L95
 1210              	.L104:
 488:Middlewares/ST/STM32_USB_Device_Library/Core/Src/usbd_ctlreq.c ****             err++;
ARM GAS  /var/folders/vq/qt4vp3kd5rxf7v2b6_fdtdt80000gn/T//ccjnR4Ke.s 			page 37


 1211              		.loc 2 488 13
 1212 01f4 3968     		ldr	r1, [r7]
 1213 01f6 7868     		ldr	r0, [r7, #4]
 1214 01f8 FFF7FEFF 		bl	USBD_CtlError
 489:Middlewares/ST/STM32_USB_Device_Library/Core/Src/usbd_ctlreq.c ****           }
 1215              		.loc 2 489 16
 1216 01fc FB7A     		ldrb	r3, [r7, #11]	@ zero_extendqisi2
 1217 01fe 0133     		adds	r3, r3, #1
 1218 0200 FB72     		strb	r3, [r7, #11]
 1219              		.loc 2 491 11
 1220 0202 07E0     		b	.L95
 1221              	.L85:
 492:Middlewares/ST/STM32_USB_Device_Library/Core/Src/usbd_ctlreq.c **** 
 493:Middlewares/ST/STM32_USB_Device_Library/Core/Src/usbd_ctlreq.c ****         default:
 494:Middlewares/ST/STM32_USB_Device_Library/Core/Src/usbd_ctlreq.c **** #if (USBD_SUPPORT_USER_STRING_DESC == 1U)
 495:Middlewares/ST/STM32_USB_Device_Library/Core/Src/usbd_ctlreq.c ****           if (pdev->pClass->GetUsrStrDescriptor != NULL)
 496:Middlewares/ST/STM32_USB_Device_Library/Core/Src/usbd_ctlreq.c ****           {
 497:Middlewares/ST/STM32_USB_Device_Library/Core/Src/usbd_ctlreq.c ****             pbuf = pdev->pClass->GetUsrStrDescriptor(pdev, (req->wValue), &len);
 498:Middlewares/ST/STM32_USB_Device_Library/Core/Src/usbd_ctlreq.c ****           }
 499:Middlewares/ST/STM32_USB_Device_Library/Core/Src/usbd_ctlreq.c ****           else
 500:Middlewares/ST/STM32_USB_Device_Library/Core/Src/usbd_ctlreq.c ****           {
 501:Middlewares/ST/STM32_USB_Device_Library/Core/Src/usbd_ctlreq.c ****             USBD_CtlError(pdev, req);
 502:Middlewares/ST/STM32_USB_Device_Library/Core/Src/usbd_ctlreq.c ****             err++;
 503:Middlewares/ST/STM32_USB_Device_Library/Core/Src/usbd_ctlreq.c ****           }
 504:Middlewares/ST/STM32_USB_Device_Library/Core/Src/usbd_ctlreq.c **** #endif
 505:Middlewares/ST/STM32_USB_Device_Library/Core/Src/usbd_ctlreq.c **** 
 506:Middlewares/ST/STM32_USB_Device_Library/Core/Src/usbd_ctlreq.c **** #if (USBD_CLASS_USER_STRING_DESC == 1U)
 507:Middlewares/ST/STM32_USB_Device_Library/Core/Src/usbd_ctlreq.c ****           if (pdev->pDesc->GetUserStrDescriptor != NULL)
 508:Middlewares/ST/STM32_USB_Device_Library/Core/Src/usbd_ctlreq.c ****           {
 509:Middlewares/ST/STM32_USB_Device_Library/Core/Src/usbd_ctlreq.c ****             pbuf = pdev->pDesc->GetUserStrDescriptor(pdev->dev_speed, (req->wValue), &len);
 510:Middlewares/ST/STM32_USB_Device_Library/Core/Src/usbd_ctlreq.c ****           }
 511:Middlewares/ST/STM32_USB_Device_Library/Core/Src/usbd_ctlreq.c ****           else
 512:Middlewares/ST/STM32_USB_Device_Library/Core/Src/usbd_ctlreq.c ****           {
 513:Middlewares/ST/STM32_USB_Device_Library/Core/Src/usbd_ctlreq.c ****             USBD_CtlError(pdev, req);
 514:Middlewares/ST/STM32_USB_Device_Library/Core/Src/usbd_ctlreq.c ****             err++;
 515:Middlewares/ST/STM32_USB_Device_Library/Core/Src/usbd_ctlreq.c ****           }
 516:Middlewares/ST/STM32_USB_Device_Library/Core/Src/usbd_ctlreq.c **** #endif
 517:Middlewares/ST/STM32_USB_Device_Library/Core/Src/usbd_ctlreq.c **** 
 518:Middlewares/ST/STM32_USB_Device_Library/Core/Src/usbd_ctlreq.c **** #if ((USBD_CLASS_USER_STRING_DESC == 0U) && (USBD_SUPPORT_USER_STRING_DESC == 0U))
 519:Middlewares/ST/STM32_USB_Device_Library/Core/Src/usbd_ctlreq.c ****           USBD_CtlError(pdev, req);
 1222              		.loc 2 519 11
 1223 0204 3968     		ldr	r1, [r7]
 1224 0206 7868     		ldr	r0, [r7, #4]
 1225 0208 FFF7FEFF 		bl	USBD_CtlError
 520:Middlewares/ST/STM32_USB_Device_Library/Core/Src/usbd_ctlreq.c ****           err++;
 1226              		.loc 2 520 14
 1227 020c FB7A     		ldrb	r3, [r7, #11]	@ zero_extendqisi2
 1228 020e 0133     		adds	r3, r3, #1
 1229 0210 FB72     		strb	r3, [r7, #11]
 521:Middlewares/ST/STM32_USB_Device_Library/Core/Src/usbd_ctlreq.c **** #endif
 522:Middlewares/ST/STM32_USB_Device_Library/Core/Src/usbd_ctlreq.c ****           break;
 1230              		.loc 2 522 11
 1231 0212 00BF     		nop
 1232              	.L95:
 523:Middlewares/ST/STM32_USB_Device_Library/Core/Src/usbd_ctlreq.c ****       }
 524:Middlewares/ST/STM32_USB_Device_Library/Core/Src/usbd_ctlreq.c ****       break;
 1233              		.loc 2 524 7
ARM GAS  /var/folders/vq/qt4vp3kd5rxf7v2b6_fdtdt80000gn/T//ccjnR4Ke.s 			page 38


 1234 0214 37E0     		b	.L82
 1235              	.L78:
 525:Middlewares/ST/STM32_USB_Device_Library/Core/Src/usbd_ctlreq.c **** 
 526:Middlewares/ST/STM32_USB_Device_Library/Core/Src/usbd_ctlreq.c ****     case USB_DESC_TYPE_DEVICE_QUALIFIER:
 527:Middlewares/ST/STM32_USB_Device_Library/Core/Src/usbd_ctlreq.c ****       if (pdev->dev_speed == USBD_SPEED_HIGH)
 1236              		.loc 2 527 15
 1237 0216 7B68     		ldr	r3, [r7, #4]
 1238 0218 1B7C     		ldrb	r3, [r3, #16]	@ zero_extendqisi2
 1239              		.loc 2 527 10
 1240 021a 002B     		cmp	r3, #0
 1241 021c 09D1     		bne	.L106
 528:Middlewares/ST/STM32_USB_Device_Library/Core/Src/usbd_ctlreq.c ****       {
 529:Middlewares/ST/STM32_USB_Device_Library/Core/Src/usbd_ctlreq.c ****         pbuf = pdev->pClass->GetDeviceQualifierDescriptor(&len);
 1242              		.loc 2 529 20
 1243 021e 7B68     		ldr	r3, [r7, #4]
 1244 0220 D3F8B832 		ldr	r3, [r3, #696]
 1245              		.loc 2 529 28
 1246 0224 5B6B     		ldr	r3, [r3, #52]
 1247              		.loc 2 529 16
 1248 0226 07F10802 		add	r2, r7, #8
 1249 022a 1046     		mov	r0, r2
 1250 022c 9847     		blx	r3
 1251              	.LVL13:
 1252 022e F860     		str	r0, [r7, #12]
 530:Middlewares/ST/STM32_USB_Device_Library/Core/Src/usbd_ctlreq.c ****       }
 531:Middlewares/ST/STM32_USB_Device_Library/Core/Src/usbd_ctlreq.c ****       else
 532:Middlewares/ST/STM32_USB_Device_Library/Core/Src/usbd_ctlreq.c ****       {
 533:Middlewares/ST/STM32_USB_Device_Library/Core/Src/usbd_ctlreq.c ****         USBD_CtlError(pdev, req);
 534:Middlewares/ST/STM32_USB_Device_Library/Core/Src/usbd_ctlreq.c ****         err++;
 535:Middlewares/ST/STM32_USB_Device_Library/Core/Src/usbd_ctlreq.c ****       }
 536:Middlewares/ST/STM32_USB_Device_Library/Core/Src/usbd_ctlreq.c ****       break;
 1253              		.loc 2 536 7
 1254 0230 29E0     		b	.L82
 1255              	.L106:
 533:Middlewares/ST/STM32_USB_Device_Library/Core/Src/usbd_ctlreq.c ****         err++;
 1256              		.loc 2 533 9
 1257 0232 3968     		ldr	r1, [r7]
 1258 0234 7868     		ldr	r0, [r7, #4]
 1259 0236 FFF7FEFF 		bl	USBD_CtlError
 534:Middlewares/ST/STM32_USB_Device_Library/Core/Src/usbd_ctlreq.c ****       }
 1260              		.loc 2 534 12
 1261 023a FB7A     		ldrb	r3, [r7, #11]	@ zero_extendqisi2
 1262 023c 0133     		adds	r3, r3, #1
 1263 023e FB72     		strb	r3, [r7, #11]
 1264              		.loc 2 536 7
 1265 0240 21E0     		b	.L82
 1266              	.L76:
 537:Middlewares/ST/STM32_USB_Device_Library/Core/Src/usbd_ctlreq.c **** 
 538:Middlewares/ST/STM32_USB_Device_Library/Core/Src/usbd_ctlreq.c ****     case USB_DESC_TYPE_OTHER_SPEED_CONFIGURATION:
 539:Middlewares/ST/STM32_USB_Device_Library/Core/Src/usbd_ctlreq.c ****       if (pdev->dev_speed == USBD_SPEED_HIGH)
 1267              		.loc 2 539 15
 1268 0242 7B68     		ldr	r3, [r7, #4]
 1269 0244 1B7C     		ldrb	r3, [r3, #16]	@ zero_extendqisi2
 1270              		.loc 2 539 10
 1271 0246 002B     		cmp	r3, #0
 1272 0248 0DD1     		bne	.L108
 540:Middlewares/ST/STM32_USB_Device_Library/Core/Src/usbd_ctlreq.c ****       {
ARM GAS  /var/folders/vq/qt4vp3kd5rxf7v2b6_fdtdt80000gn/T//ccjnR4Ke.s 			page 39


 541:Middlewares/ST/STM32_USB_Device_Library/Core/Src/usbd_ctlreq.c ****         pbuf = pdev->pClass->GetOtherSpeedConfigDescriptor(&len);
 1273              		.loc 2 541 20
 1274 024a 7B68     		ldr	r3, [r7, #4]
 1275 024c D3F8B832 		ldr	r3, [r3, #696]
 1276              		.loc 2 541 28
 1277 0250 1B6B     		ldr	r3, [r3, #48]
 1278              		.loc 2 541 16
 1279 0252 07F10802 		add	r2, r7, #8
 1280 0256 1046     		mov	r0, r2
 1281 0258 9847     		blx	r3
 1282              	.LVL14:
 1283 025a F860     		str	r0, [r7, #12]
 542:Middlewares/ST/STM32_USB_Device_Library/Core/Src/usbd_ctlreq.c ****         pbuf[1] = USB_DESC_TYPE_OTHER_SPEED_CONFIGURATION;
 1284              		.loc 2 542 13
 1285 025c FB68     		ldr	r3, [r7, #12]
 1286 025e 0133     		adds	r3, r3, #1
 1287              		.loc 2 542 17
 1288 0260 0722     		movs	r2, #7
 1289 0262 1A70     		strb	r2, [r3]
 543:Middlewares/ST/STM32_USB_Device_Library/Core/Src/usbd_ctlreq.c ****       }
 544:Middlewares/ST/STM32_USB_Device_Library/Core/Src/usbd_ctlreq.c ****       else
 545:Middlewares/ST/STM32_USB_Device_Library/Core/Src/usbd_ctlreq.c ****       {
 546:Middlewares/ST/STM32_USB_Device_Library/Core/Src/usbd_ctlreq.c ****         USBD_CtlError(pdev, req);
 547:Middlewares/ST/STM32_USB_Device_Library/Core/Src/usbd_ctlreq.c ****         err++;
 548:Middlewares/ST/STM32_USB_Device_Library/Core/Src/usbd_ctlreq.c ****       }
 549:Middlewares/ST/STM32_USB_Device_Library/Core/Src/usbd_ctlreq.c ****       break;
 1290              		.loc 2 549 7
 1291 0264 0FE0     		b	.L82
 1292              	.L108:
 546:Middlewares/ST/STM32_USB_Device_Library/Core/Src/usbd_ctlreq.c ****         err++;
 1293              		.loc 2 546 9
 1294 0266 3968     		ldr	r1, [r7]
 1295 0268 7868     		ldr	r0, [r7, #4]
 1296 026a FFF7FEFF 		bl	USBD_CtlError
 547:Middlewares/ST/STM32_USB_Device_Library/Core/Src/usbd_ctlreq.c ****       }
 1297              		.loc 2 547 12
 1298 026e FB7A     		ldrb	r3, [r7, #11]	@ zero_extendqisi2
 1299 0270 0133     		adds	r3, r3, #1
 1300 0272 FB72     		strb	r3, [r7, #11]
 1301              		.loc 2 549 7
 1302 0274 07E0     		b	.L82
 1303              	.L75:
 550:Middlewares/ST/STM32_USB_Device_Library/Core/Src/usbd_ctlreq.c **** 
 551:Middlewares/ST/STM32_USB_Device_Library/Core/Src/usbd_ctlreq.c ****     default:
 552:Middlewares/ST/STM32_USB_Device_Library/Core/Src/usbd_ctlreq.c ****       USBD_CtlError(pdev, req);
 1304              		.loc 2 552 7
 1305 0276 3968     		ldr	r1, [r7]
 1306 0278 7868     		ldr	r0, [r7, #4]
 1307 027a FFF7FEFF 		bl	USBD_CtlError
 553:Middlewares/ST/STM32_USB_Device_Library/Core/Src/usbd_ctlreq.c ****       err++;
 1308              		.loc 2 553 10
 1309 027e FB7A     		ldrb	r3, [r7, #11]	@ zero_extendqisi2
 1310 0280 0133     		adds	r3, r3, #1
 1311 0282 FB72     		strb	r3, [r7, #11]
 554:Middlewares/ST/STM32_USB_Device_Library/Core/Src/usbd_ctlreq.c ****       break;
 1312              		.loc 2 554 7
 1313 0284 00BF     		nop
ARM GAS  /var/folders/vq/qt4vp3kd5rxf7v2b6_fdtdt80000gn/T//ccjnR4Ke.s 			page 40


 1314              	.L82:
 555:Middlewares/ST/STM32_USB_Device_Library/Core/Src/usbd_ctlreq.c ****   }
 556:Middlewares/ST/STM32_USB_Device_Library/Core/Src/usbd_ctlreq.c **** 
 557:Middlewares/ST/STM32_USB_Device_Library/Core/Src/usbd_ctlreq.c ****   if (err != 0U)
 1315              		.loc 2 557 6
 1316 0286 FB7A     		ldrb	r3, [r7, #11]	@ zero_extendqisi2
 1317 0288 002B     		cmp	r3, #0
 1318 028a 1ED1     		bne	.L115
 558:Middlewares/ST/STM32_USB_Device_Library/Core/Src/usbd_ctlreq.c ****   {
 559:Middlewares/ST/STM32_USB_Device_Library/Core/Src/usbd_ctlreq.c ****     return;
 560:Middlewares/ST/STM32_USB_Device_Library/Core/Src/usbd_ctlreq.c ****   }
 561:Middlewares/ST/STM32_USB_Device_Library/Core/Src/usbd_ctlreq.c **** 
 562:Middlewares/ST/STM32_USB_Device_Library/Core/Src/usbd_ctlreq.c ****   if (req->wLength != 0U)
 1319              		.loc 2 562 10
 1320 028c 3B68     		ldr	r3, [r7]
 1321 028e DB88     		ldrh	r3, [r3, #6]
 1322              		.loc 2 562 6
 1323 0290 002B     		cmp	r3, #0
 1324 0292 16D0     		beq	.L112
 563:Middlewares/ST/STM32_USB_Device_Library/Core/Src/usbd_ctlreq.c ****   {
 564:Middlewares/ST/STM32_USB_Device_Library/Core/Src/usbd_ctlreq.c ****     if (len != 0U)
 1325              		.loc 2 564 13
 1326 0294 3B89     		ldrh	r3, [r7, #8]
 1327              		.loc 2 564 8
 1328 0296 002B     		cmp	r3, #0
 1329 0298 0ED0     		beq	.L113
 565:Middlewares/ST/STM32_USB_Device_Library/Core/Src/usbd_ctlreq.c ****     {
 566:Middlewares/ST/STM32_USB_Device_Library/Core/Src/usbd_ctlreq.c ****       len = MIN(len, req->wLength);
 1330              		.loc 2 566 13
 1331 029a 3B68     		ldr	r3, [r7]
 1332 029c DA88     		ldrh	r2, [r3, #6]
 1333 029e 3B89     		ldrh	r3, [r7, #8]
 1334 02a0 9342     		cmp	r3, r2
 1335 02a2 28BF     		it	cs
 1336 02a4 1346     		movcs	r3, r2
 1337 02a6 9BB2     		uxth	r3, r3
 1338              		.loc 2 566 11
 1339 02a8 3B81     		strh	r3, [r7, #8]	@ movhi
 567:Middlewares/ST/STM32_USB_Device_Library/Core/Src/usbd_ctlreq.c ****       (void)USBD_CtlSendData(pdev, pbuf, len);
 1340              		.loc 2 567 13
 1341 02aa 3B89     		ldrh	r3, [r7, #8]
 1342 02ac 1A46     		mov	r2, r3
 1343 02ae F968     		ldr	r1, [r7, #12]
 1344 02b0 7868     		ldr	r0, [r7, #4]
 1345 02b2 FFF7FEFF 		bl	USBD_CtlSendData
 1346 02b6 09E0     		b	.L74
 1347              	.L113:
 568:Middlewares/ST/STM32_USB_Device_Library/Core/Src/usbd_ctlreq.c ****     }
 569:Middlewares/ST/STM32_USB_Device_Library/Core/Src/usbd_ctlreq.c ****     else
 570:Middlewares/ST/STM32_USB_Device_Library/Core/Src/usbd_ctlreq.c ****     {
 571:Middlewares/ST/STM32_USB_Device_Library/Core/Src/usbd_ctlreq.c ****       USBD_CtlError(pdev, req);
 1348              		.loc 2 571 7
 1349 02b8 3968     		ldr	r1, [r7]
 1350 02ba 7868     		ldr	r0, [r7, #4]
 1351 02bc FFF7FEFF 		bl	USBD_CtlError
 1352 02c0 04E0     		b	.L74
 1353              	.L112:
ARM GAS  /var/folders/vq/qt4vp3kd5rxf7v2b6_fdtdt80000gn/T//ccjnR4Ke.s 			page 41


 572:Middlewares/ST/STM32_USB_Device_Library/Core/Src/usbd_ctlreq.c ****     }
 573:Middlewares/ST/STM32_USB_Device_Library/Core/Src/usbd_ctlreq.c ****   }
 574:Middlewares/ST/STM32_USB_Device_Library/Core/Src/usbd_ctlreq.c ****   else
 575:Middlewares/ST/STM32_USB_Device_Library/Core/Src/usbd_ctlreq.c ****   {
 576:Middlewares/ST/STM32_USB_Device_Library/Core/Src/usbd_ctlreq.c ****     (void)USBD_CtlSendStatus(pdev);
 1354              		.loc 2 576 11
 1355 02c2 7868     		ldr	r0, [r7, #4]
 1356 02c4 FFF7FEFF 		bl	USBD_CtlSendStatus
 1357 02c8 00E0     		b	.L74
 1358              	.L115:
 559:Middlewares/ST/STM32_USB_Device_Library/Core/Src/usbd_ctlreq.c ****   }
 1359              		.loc 2 559 5
 1360 02ca 00BF     		nop
 1361              	.L74:
 577:Middlewares/ST/STM32_USB_Device_Library/Core/Src/usbd_ctlreq.c ****   }
 578:Middlewares/ST/STM32_USB_Device_Library/Core/Src/usbd_ctlreq.c **** }
 1362              		.loc 2 578 1
 1363 02cc 1037     		adds	r7, r7, #16
 1364              	.LCFI24:
 1365              		.cfi_def_cfa_offset 8
 1366 02ce BD46     		mov	sp, r7
 1367              	.LCFI25:
 1368              		.cfi_def_cfa_register 13
 1369              		@ sp needed
 1370 02d0 80BD     		pop	{r7, pc}
 1371              		.cfi_endproc
 1372              	.LFE137:
 1374 02d2 00BF     		.section	.text.USBD_SetAddress,"ax",%progbits
 1375              		.align	1
 1376              		.syntax unified
 1377              		.thumb
 1378              		.thumb_func
 1379              		.fpu fpv4-sp-d16
 1381              	USBD_SetAddress:
 1382              	.LFB138:
 579:Middlewares/ST/STM32_USB_Device_Library/Core/Src/usbd_ctlreq.c **** 
 580:Middlewares/ST/STM32_USB_Device_Library/Core/Src/usbd_ctlreq.c **** 
 581:Middlewares/ST/STM32_USB_Device_Library/Core/Src/usbd_ctlreq.c **** /**
 582:Middlewares/ST/STM32_USB_Device_Library/Core/Src/usbd_ctlreq.c ****   * @brief  USBD_SetAddress
 583:Middlewares/ST/STM32_USB_Device_Library/Core/Src/usbd_ctlreq.c ****   *         Set device address
 584:Middlewares/ST/STM32_USB_Device_Library/Core/Src/usbd_ctlreq.c ****   * @param  pdev: device instance
 585:Middlewares/ST/STM32_USB_Device_Library/Core/Src/usbd_ctlreq.c ****   * @param  req: usb request
 586:Middlewares/ST/STM32_USB_Device_Library/Core/Src/usbd_ctlreq.c ****   * @retval status
 587:Middlewares/ST/STM32_USB_Device_Library/Core/Src/usbd_ctlreq.c ****   */
 588:Middlewares/ST/STM32_USB_Device_Library/Core/Src/usbd_ctlreq.c **** static void USBD_SetAddress(USBD_HandleTypeDef *pdev, USBD_SetupReqTypedef *req)
 589:Middlewares/ST/STM32_USB_Device_Library/Core/Src/usbd_ctlreq.c **** {
 1383              		.loc 2 589 1
 1384              		.cfi_startproc
 1385              		@ args = 0, pretend = 0, frame = 16
 1386              		@ frame_needed = 1, uses_anonymous_args = 0
 1387 0000 80B5     		push	{r7, lr}
 1388              	.LCFI26:
 1389              		.cfi_def_cfa_offset 8
 1390              		.cfi_offset 7, -8
 1391              		.cfi_offset 14, -4
 1392 0002 84B0     		sub	sp, sp, #16
 1393              	.LCFI27:
ARM GAS  /var/folders/vq/qt4vp3kd5rxf7v2b6_fdtdt80000gn/T//ccjnR4Ke.s 			page 42


 1394              		.cfi_def_cfa_offset 24
 1395 0004 00AF     		add	r7, sp, #0
 1396              	.LCFI28:
 1397              		.cfi_def_cfa_register 7
 1398 0006 7860     		str	r0, [r7, #4]
 1399 0008 3960     		str	r1, [r7]
 590:Middlewares/ST/STM32_USB_Device_Library/Core/Src/usbd_ctlreq.c ****   uint8_t  dev_addr;
 591:Middlewares/ST/STM32_USB_Device_Library/Core/Src/usbd_ctlreq.c **** 
 592:Middlewares/ST/STM32_USB_Device_Library/Core/Src/usbd_ctlreq.c ****   if ((req->wIndex == 0U) && (req->wLength == 0U) && (req->wValue < 128U))
 1400              		.loc 2 592 11
 1401 000a 3B68     		ldr	r3, [r7]
 1402 000c 9B88     		ldrh	r3, [r3, #4]
 1403              		.loc 2 592 6
 1404 000e 002B     		cmp	r3, #0
 1405 0010 31D1     		bne	.L117
 1406              		.loc 2 592 34 discriminator 1
 1407 0012 3B68     		ldr	r3, [r7]
 1408 0014 DB88     		ldrh	r3, [r3, #6]
 1409              		.loc 2 592 27 discriminator 1
 1410 0016 002B     		cmp	r3, #0
 1411 0018 2DD1     		bne	.L117
 1412              		.loc 2 592 58 discriminator 2
 1413 001a 3B68     		ldr	r3, [r7]
 1414 001c 5B88     		ldrh	r3, [r3, #2]
 1415              		.loc 2 592 51 discriminator 2
 1416 001e 7F2B     		cmp	r3, #127
 1417 0020 29D8     		bhi	.L117
 593:Middlewares/ST/STM32_USB_Device_Library/Core/Src/usbd_ctlreq.c ****   {
 594:Middlewares/ST/STM32_USB_Device_Library/Core/Src/usbd_ctlreq.c ****     dev_addr = (uint8_t)(req->wValue) & 0x7FU;
 1418              		.loc 2 594 29
 1419 0022 3B68     		ldr	r3, [r7]
 1420 0024 5B88     		ldrh	r3, [r3, #2]
 1421              		.loc 2 594 16
 1422 0026 DBB2     		uxtb	r3, r3
 1423              		.loc 2 594 14
 1424 0028 03F07F03 		and	r3, r3, #127
 1425 002c FB73     		strb	r3, [r7, #15]
 595:Middlewares/ST/STM32_USB_Device_Library/Core/Src/usbd_ctlreq.c **** 
 596:Middlewares/ST/STM32_USB_Device_Library/Core/Src/usbd_ctlreq.c ****     if (pdev->dev_state == USBD_STATE_CONFIGURED)
 1426              		.loc 2 596 13
 1427 002e 7B68     		ldr	r3, [r7, #4]
 1428 0030 93F89C32 		ldrb	r3, [r3, #668]
 1429 0034 DBB2     		uxtb	r3, r3
 1430              		.loc 2 596 8
 1431 0036 032B     		cmp	r3, #3
 1432 0038 04D1     		bne	.L118
 597:Middlewares/ST/STM32_USB_Device_Library/Core/Src/usbd_ctlreq.c ****     {
 598:Middlewares/ST/STM32_USB_Device_Library/Core/Src/usbd_ctlreq.c ****       USBD_CtlError(pdev, req);
 1433              		.loc 2 598 7
 1434 003a 3968     		ldr	r1, [r7]
 1435 003c 7868     		ldr	r0, [r7, #4]
 1436 003e FFF7FEFF 		bl	USBD_CtlError
 596:Middlewares/ST/STM32_USB_Device_Library/Core/Src/usbd_ctlreq.c ****     {
 1437              		.loc 2 596 8
 1438 0042 1DE0     		b	.L121
 1439              	.L118:
 599:Middlewares/ST/STM32_USB_Device_Library/Core/Src/usbd_ctlreq.c ****     }
ARM GAS  /var/folders/vq/qt4vp3kd5rxf7v2b6_fdtdt80000gn/T//ccjnR4Ke.s 			page 43


 600:Middlewares/ST/STM32_USB_Device_Library/Core/Src/usbd_ctlreq.c ****     else
 601:Middlewares/ST/STM32_USB_Device_Library/Core/Src/usbd_ctlreq.c ****     {
 602:Middlewares/ST/STM32_USB_Device_Library/Core/Src/usbd_ctlreq.c ****       pdev->dev_address = dev_addr;
 1440              		.loc 2 602 25
 1441 0044 7B68     		ldr	r3, [r7, #4]
 1442 0046 FA7B     		ldrb	r2, [r7, #15]
 1443 0048 83F89E22 		strb	r2, [r3, #670]
 603:Middlewares/ST/STM32_USB_Device_Library/Core/Src/usbd_ctlreq.c ****       (void)USBD_LL_SetUSBAddress(pdev, dev_addr);
 1444              		.loc 2 603 13
 1445 004c FB7B     		ldrb	r3, [r7, #15]	@ zero_extendqisi2
 1446 004e 1946     		mov	r1, r3
 1447 0050 7868     		ldr	r0, [r7, #4]
 1448 0052 FFF7FEFF 		bl	USBD_LL_SetUSBAddress
 604:Middlewares/ST/STM32_USB_Device_Library/Core/Src/usbd_ctlreq.c ****       (void)USBD_CtlSendStatus(pdev);
 1449              		.loc 2 604 13
 1450 0056 7868     		ldr	r0, [r7, #4]
 1451 0058 FFF7FEFF 		bl	USBD_CtlSendStatus
 605:Middlewares/ST/STM32_USB_Device_Library/Core/Src/usbd_ctlreq.c **** 
 606:Middlewares/ST/STM32_USB_Device_Library/Core/Src/usbd_ctlreq.c ****       if (dev_addr != 0U)
 1452              		.loc 2 606 10
 1453 005c FB7B     		ldrb	r3, [r7, #15]	@ zero_extendqisi2
 1454 005e 002B     		cmp	r3, #0
 1455 0060 04D0     		beq	.L120
 607:Middlewares/ST/STM32_USB_Device_Library/Core/Src/usbd_ctlreq.c ****       {
 608:Middlewares/ST/STM32_USB_Device_Library/Core/Src/usbd_ctlreq.c ****         pdev->dev_state = USBD_STATE_ADDRESSED;
 1456              		.loc 2 608 25
 1457 0062 7B68     		ldr	r3, [r7, #4]
 1458 0064 0222     		movs	r2, #2
 1459 0066 83F89C22 		strb	r2, [r3, #668]
 596:Middlewares/ST/STM32_USB_Device_Library/Core/Src/usbd_ctlreq.c ****     {
 1460              		.loc 2 596 8
 1461 006a 09E0     		b	.L121
 1462              	.L120:
 609:Middlewares/ST/STM32_USB_Device_Library/Core/Src/usbd_ctlreq.c ****       }
 610:Middlewares/ST/STM32_USB_Device_Library/Core/Src/usbd_ctlreq.c ****       else
 611:Middlewares/ST/STM32_USB_Device_Library/Core/Src/usbd_ctlreq.c ****       {
 612:Middlewares/ST/STM32_USB_Device_Library/Core/Src/usbd_ctlreq.c ****         pdev->dev_state = USBD_STATE_DEFAULT;
 1463              		.loc 2 612 25
 1464 006c 7B68     		ldr	r3, [r7, #4]
 1465 006e 0122     		movs	r2, #1
 1466 0070 83F89C22 		strb	r2, [r3, #668]
 596:Middlewares/ST/STM32_USB_Device_Library/Core/Src/usbd_ctlreq.c ****     {
 1467              		.loc 2 596 8
 1468 0074 04E0     		b	.L121
 1469              	.L117:
 613:Middlewares/ST/STM32_USB_Device_Library/Core/Src/usbd_ctlreq.c ****       }
 614:Middlewares/ST/STM32_USB_Device_Library/Core/Src/usbd_ctlreq.c ****     }
 615:Middlewares/ST/STM32_USB_Device_Library/Core/Src/usbd_ctlreq.c ****   }
 616:Middlewares/ST/STM32_USB_Device_Library/Core/Src/usbd_ctlreq.c ****   else
 617:Middlewares/ST/STM32_USB_Device_Library/Core/Src/usbd_ctlreq.c ****   {
 618:Middlewares/ST/STM32_USB_Device_Library/Core/Src/usbd_ctlreq.c ****     USBD_CtlError(pdev, req);
 1470              		.loc 2 618 5
 1471 0076 3968     		ldr	r1, [r7]
 1472 0078 7868     		ldr	r0, [r7, #4]
 1473 007a FFF7FEFF 		bl	USBD_CtlError
 619:Middlewares/ST/STM32_USB_Device_Library/Core/Src/usbd_ctlreq.c ****   }
 620:Middlewares/ST/STM32_USB_Device_Library/Core/Src/usbd_ctlreq.c **** }
ARM GAS  /var/folders/vq/qt4vp3kd5rxf7v2b6_fdtdt80000gn/T//ccjnR4Ke.s 			page 44


 1474              		.loc 2 620 1
 1475 007e 00BF     		nop
 1476              	.L121:
 1477 0080 00BF     		nop
 1478 0082 1037     		adds	r7, r7, #16
 1479              	.LCFI29:
 1480              		.cfi_def_cfa_offset 8
 1481 0084 BD46     		mov	sp, r7
 1482              	.LCFI30:
 1483              		.cfi_def_cfa_register 13
 1484              		@ sp needed
 1485 0086 80BD     		pop	{r7, pc}
 1486              		.cfi_endproc
 1487              	.LFE138:
 1489              		.section	.text.USBD_SetConfig,"ax",%progbits
 1490              		.align	1
 1491              		.syntax unified
 1492              		.thumb
 1493              		.thumb_func
 1494              		.fpu fpv4-sp-d16
 1496              	USBD_SetConfig:
 1497              	.LFB139:
 621:Middlewares/ST/STM32_USB_Device_Library/Core/Src/usbd_ctlreq.c **** 
 622:Middlewares/ST/STM32_USB_Device_Library/Core/Src/usbd_ctlreq.c **** /**
 623:Middlewares/ST/STM32_USB_Device_Library/Core/Src/usbd_ctlreq.c ****   * @brief  USBD_SetConfig
 624:Middlewares/ST/STM32_USB_Device_Library/Core/Src/usbd_ctlreq.c ****   *         Handle Set device configuration request
 625:Middlewares/ST/STM32_USB_Device_Library/Core/Src/usbd_ctlreq.c ****   * @param  pdev: device instance
 626:Middlewares/ST/STM32_USB_Device_Library/Core/Src/usbd_ctlreq.c ****   * @param  req: usb request
 627:Middlewares/ST/STM32_USB_Device_Library/Core/Src/usbd_ctlreq.c ****   * @retval status
 628:Middlewares/ST/STM32_USB_Device_Library/Core/Src/usbd_ctlreq.c ****   */
 629:Middlewares/ST/STM32_USB_Device_Library/Core/Src/usbd_ctlreq.c **** static USBD_StatusTypeDef USBD_SetConfig(USBD_HandleTypeDef *pdev, USBD_SetupReqTypedef *req)
 630:Middlewares/ST/STM32_USB_Device_Library/Core/Src/usbd_ctlreq.c **** {
 1498              		.loc 2 630 1
 1499              		.cfi_startproc
 1500              		@ args = 0, pretend = 0, frame = 16
 1501              		@ frame_needed = 1, uses_anonymous_args = 0
 1502 0000 80B5     		push	{r7, lr}
 1503              	.LCFI31:
 1504              		.cfi_def_cfa_offset 8
 1505              		.cfi_offset 7, -8
 1506              		.cfi_offset 14, -4
 1507 0002 84B0     		sub	sp, sp, #16
 1508              	.LCFI32:
 1509              		.cfi_def_cfa_offset 24
 1510 0004 00AF     		add	r7, sp, #0
 1511              	.LCFI33:
 1512              		.cfi_def_cfa_register 7
 1513 0006 7860     		str	r0, [r7, #4]
 1514 0008 3960     		str	r1, [r7]
 631:Middlewares/ST/STM32_USB_Device_Library/Core/Src/usbd_ctlreq.c ****   USBD_StatusTypeDef ret = USBD_OK;
 1515              		.loc 2 631 22
 1516 000a 0023     		movs	r3, #0
 1517 000c FB73     		strb	r3, [r7, #15]
 632:Middlewares/ST/STM32_USB_Device_Library/Core/Src/usbd_ctlreq.c ****   static uint8_t cfgidx;
 633:Middlewares/ST/STM32_USB_Device_Library/Core/Src/usbd_ctlreq.c **** 
 634:Middlewares/ST/STM32_USB_Device_Library/Core/Src/usbd_ctlreq.c ****   cfgidx = (uint8_t)(req->wValue);
 1518              		.loc 2 634 25
ARM GAS  /var/folders/vq/qt4vp3kd5rxf7v2b6_fdtdt80000gn/T//ccjnR4Ke.s 			page 45


 1519 000e 3B68     		ldr	r3, [r7]
 1520 0010 5B88     		ldrh	r3, [r3, #2]
 1521              		.loc 2 634 12
 1522 0012 DAB2     		uxtb	r2, r3
 1523              		.loc 2 634 10
 1524 0014 4C4B     		ldr	r3, .L137
 1525 0016 1A70     		strb	r2, [r3]
 635:Middlewares/ST/STM32_USB_Device_Library/Core/Src/usbd_ctlreq.c **** 
 636:Middlewares/ST/STM32_USB_Device_Library/Core/Src/usbd_ctlreq.c ****   if (cfgidx > USBD_MAX_NUM_CONFIGURATION)
 1526              		.loc 2 636 14
 1527 0018 4B4B     		ldr	r3, .L137
 1528 001a 1B78     		ldrb	r3, [r3]	@ zero_extendqisi2
 1529              		.loc 2 636 6
 1530 001c 012B     		cmp	r3, #1
 1531 001e 05D9     		bls	.L123
 637:Middlewares/ST/STM32_USB_Device_Library/Core/Src/usbd_ctlreq.c ****   {
 638:Middlewares/ST/STM32_USB_Device_Library/Core/Src/usbd_ctlreq.c ****     USBD_CtlError(pdev, req);
 1532              		.loc 2 638 5
 1533 0020 3968     		ldr	r1, [r7]
 1534 0022 7868     		ldr	r0, [r7, #4]
 1535 0024 FFF7FEFF 		bl	USBD_CtlError
 639:Middlewares/ST/STM32_USB_Device_Library/Core/Src/usbd_ctlreq.c ****     return USBD_FAIL;
 1536              		.loc 2 639 12
 1537 0028 0323     		movs	r3, #3
 1538 002a 88E0     		b	.L124
 1539              	.L123:
 640:Middlewares/ST/STM32_USB_Device_Library/Core/Src/usbd_ctlreq.c ****   }
 641:Middlewares/ST/STM32_USB_Device_Library/Core/Src/usbd_ctlreq.c **** 
 642:Middlewares/ST/STM32_USB_Device_Library/Core/Src/usbd_ctlreq.c ****   switch (pdev->dev_state)
 1540              		.loc 2 642 15
 1541 002c 7B68     		ldr	r3, [r7, #4]
 1542 002e 93F89C32 		ldrb	r3, [r3, #668]
 1543 0032 DBB2     		uxtb	r3, r3
 1544              		.loc 2 642 3
 1545 0034 022B     		cmp	r3, #2
 1546 0036 02D0     		beq	.L125
 1547 0038 032B     		cmp	r3, #3
 1548 003a 25D0     		beq	.L126
 1549 003c 71E0     		b	.L136
 1550              	.L125:
 643:Middlewares/ST/STM32_USB_Device_Library/Core/Src/usbd_ctlreq.c ****   {
 644:Middlewares/ST/STM32_USB_Device_Library/Core/Src/usbd_ctlreq.c ****     case USBD_STATE_ADDRESSED:
 645:Middlewares/ST/STM32_USB_Device_Library/Core/Src/usbd_ctlreq.c ****       if (cfgidx != 0U)
 1551              		.loc 2 645 18
 1552 003e 424B     		ldr	r3, .L137
 1553 0040 1B78     		ldrb	r3, [r3]	@ zero_extendqisi2
 1554              		.loc 2 645 10
 1555 0042 002B     		cmp	r3, #0
 1556 0044 1CD0     		beq	.L128
 646:Middlewares/ST/STM32_USB_Device_Library/Core/Src/usbd_ctlreq.c ****       {
 647:Middlewares/ST/STM32_USB_Device_Library/Core/Src/usbd_ctlreq.c ****         pdev->dev_config = cfgidx;
 1557              		.loc 2 647 26
 1558 0046 404B     		ldr	r3, .L137
 1559 0048 1B78     		ldrb	r3, [r3]	@ zero_extendqisi2
 1560 004a 1A46     		mov	r2, r3
 1561 004c 7B68     		ldr	r3, [r7, #4]
 1562 004e 5A60     		str	r2, [r3, #4]
ARM GAS  /var/folders/vq/qt4vp3kd5rxf7v2b6_fdtdt80000gn/T//ccjnR4Ke.s 			page 46


 648:Middlewares/ST/STM32_USB_Device_Library/Core/Src/usbd_ctlreq.c **** 
 649:Middlewares/ST/STM32_USB_Device_Library/Core/Src/usbd_ctlreq.c ****         ret = USBD_SetClassConfig(pdev, cfgidx);
 1563              		.loc 2 649 15
 1564 0050 3D4B     		ldr	r3, .L137
 1565 0052 1B78     		ldrb	r3, [r3]	@ zero_extendqisi2
 1566 0054 1946     		mov	r1, r3
 1567 0056 7868     		ldr	r0, [r7, #4]
 1568 0058 FFF7FEFF 		bl	USBD_SetClassConfig
 1569 005c 0346     		mov	r3, r0
 1570 005e FB73     		strb	r3, [r7, #15]
 650:Middlewares/ST/STM32_USB_Device_Library/Core/Src/usbd_ctlreq.c **** 
 651:Middlewares/ST/STM32_USB_Device_Library/Core/Src/usbd_ctlreq.c ****         if (ret != USBD_OK)
 1571              		.loc 2 651 12
 1572 0060 FB7B     		ldrb	r3, [r7, #15]	@ zero_extendqisi2
 1573 0062 002B     		cmp	r3, #0
 1574 0064 04D0     		beq	.L129
 652:Middlewares/ST/STM32_USB_Device_Library/Core/Src/usbd_ctlreq.c ****         {
 653:Middlewares/ST/STM32_USB_Device_Library/Core/Src/usbd_ctlreq.c ****           USBD_CtlError(pdev, req);
 1575              		.loc 2 653 11
 1576 0066 3968     		ldr	r1, [r7]
 1577 0068 7868     		ldr	r0, [r7, #4]
 1578 006a FFF7FEFF 		bl	USBD_CtlError
 654:Middlewares/ST/STM32_USB_Device_Library/Core/Src/usbd_ctlreq.c ****         }
 655:Middlewares/ST/STM32_USB_Device_Library/Core/Src/usbd_ctlreq.c ****         else
 656:Middlewares/ST/STM32_USB_Device_Library/Core/Src/usbd_ctlreq.c ****         {
 657:Middlewares/ST/STM32_USB_Device_Library/Core/Src/usbd_ctlreq.c ****           (void)USBD_CtlSendStatus(pdev);
 658:Middlewares/ST/STM32_USB_Device_Library/Core/Src/usbd_ctlreq.c ****           pdev->dev_state = USBD_STATE_CONFIGURED;
 659:Middlewares/ST/STM32_USB_Device_Library/Core/Src/usbd_ctlreq.c ****         }
 660:Middlewares/ST/STM32_USB_Device_Library/Core/Src/usbd_ctlreq.c ****       }
 661:Middlewares/ST/STM32_USB_Device_Library/Core/Src/usbd_ctlreq.c ****       else
 662:Middlewares/ST/STM32_USB_Device_Library/Core/Src/usbd_ctlreq.c ****       {
 663:Middlewares/ST/STM32_USB_Device_Library/Core/Src/usbd_ctlreq.c ****         (void)USBD_CtlSendStatus(pdev);
 664:Middlewares/ST/STM32_USB_Device_Library/Core/Src/usbd_ctlreq.c ****       }
 665:Middlewares/ST/STM32_USB_Device_Library/Core/Src/usbd_ctlreq.c ****       break;
 1579              		.loc 2 665 7
 1580 006e 65E0     		b	.L131
 1581              	.L129:
 657:Middlewares/ST/STM32_USB_Device_Library/Core/Src/usbd_ctlreq.c ****           pdev->dev_state = USBD_STATE_CONFIGURED;
 1582              		.loc 2 657 17
 1583 0070 7868     		ldr	r0, [r7, #4]
 1584 0072 FFF7FEFF 		bl	USBD_CtlSendStatus
 658:Middlewares/ST/STM32_USB_Device_Library/Core/Src/usbd_ctlreq.c ****         }
 1585              		.loc 2 658 27
 1586 0076 7B68     		ldr	r3, [r7, #4]
 1587 0078 0322     		movs	r2, #3
 1588 007a 83F89C22 		strb	r2, [r3, #668]
 1589              		.loc 2 665 7
 1590 007e 5DE0     		b	.L131
 1591              	.L128:
 663:Middlewares/ST/STM32_USB_Device_Library/Core/Src/usbd_ctlreq.c ****       }
 1592              		.loc 2 663 15
 1593 0080 7868     		ldr	r0, [r7, #4]
 1594 0082 FFF7FEFF 		bl	USBD_CtlSendStatus
 1595              		.loc 2 665 7
 1596 0086 59E0     		b	.L131
 1597              	.L126:
 666:Middlewares/ST/STM32_USB_Device_Library/Core/Src/usbd_ctlreq.c **** 
ARM GAS  /var/folders/vq/qt4vp3kd5rxf7v2b6_fdtdt80000gn/T//ccjnR4Ke.s 			page 47


 667:Middlewares/ST/STM32_USB_Device_Library/Core/Src/usbd_ctlreq.c ****     case USBD_STATE_CONFIGURED:
 668:Middlewares/ST/STM32_USB_Device_Library/Core/Src/usbd_ctlreq.c ****       if (cfgidx == 0U)
 1598              		.loc 2 668 18
 1599 0088 2F4B     		ldr	r3, .L137
 1600 008a 1B78     		ldrb	r3, [r3]	@ zero_extendqisi2
 1601              		.loc 2 668 10
 1602 008c 002B     		cmp	r3, #0
 1603 008e 12D1     		bne	.L132
 669:Middlewares/ST/STM32_USB_Device_Library/Core/Src/usbd_ctlreq.c ****       {
 670:Middlewares/ST/STM32_USB_Device_Library/Core/Src/usbd_ctlreq.c ****         pdev->dev_state = USBD_STATE_ADDRESSED;
 1604              		.loc 2 670 25
 1605 0090 7B68     		ldr	r3, [r7, #4]
 1606 0092 0222     		movs	r2, #2
 1607 0094 83F89C22 		strb	r2, [r3, #668]
 671:Middlewares/ST/STM32_USB_Device_Library/Core/Src/usbd_ctlreq.c ****         pdev->dev_config = cfgidx;
 1608              		.loc 2 671 26
 1609 0098 2B4B     		ldr	r3, .L137
 1610 009a 1B78     		ldrb	r3, [r3]	@ zero_extendqisi2
 1611 009c 1A46     		mov	r2, r3
 1612 009e 7B68     		ldr	r3, [r7, #4]
 1613 00a0 5A60     		str	r2, [r3, #4]
 672:Middlewares/ST/STM32_USB_Device_Library/Core/Src/usbd_ctlreq.c ****         (void)USBD_ClrClassConfig(pdev, cfgidx);
 1614              		.loc 2 672 9
 1615 00a2 294B     		ldr	r3, .L137
 1616 00a4 1B78     		ldrb	r3, [r3]	@ zero_extendqisi2
 1617              		.loc 2 672 15
 1618 00a6 1946     		mov	r1, r3
 1619 00a8 7868     		ldr	r0, [r7, #4]
 1620 00aa FFF7FEFF 		bl	USBD_ClrClassConfig
 673:Middlewares/ST/STM32_USB_Device_Library/Core/Src/usbd_ctlreq.c ****         (void)USBD_CtlSendStatus(pdev);
 1621              		.loc 2 673 15
 1622 00ae 7868     		ldr	r0, [r7, #4]
 1623 00b0 FFF7FEFF 		bl	USBD_CtlSendStatus
 674:Middlewares/ST/STM32_USB_Device_Library/Core/Src/usbd_ctlreq.c ****       }
 675:Middlewares/ST/STM32_USB_Device_Library/Core/Src/usbd_ctlreq.c ****       else if (cfgidx != pdev->dev_config)
 676:Middlewares/ST/STM32_USB_Device_Library/Core/Src/usbd_ctlreq.c ****       {
 677:Middlewares/ST/STM32_USB_Device_Library/Core/Src/usbd_ctlreq.c ****         /* Clear old configuration */
 678:Middlewares/ST/STM32_USB_Device_Library/Core/Src/usbd_ctlreq.c ****         (void)USBD_ClrClassConfig(pdev, (uint8_t)pdev->dev_config);
 679:Middlewares/ST/STM32_USB_Device_Library/Core/Src/usbd_ctlreq.c **** 
 680:Middlewares/ST/STM32_USB_Device_Library/Core/Src/usbd_ctlreq.c ****         /* set new configuration */
 681:Middlewares/ST/STM32_USB_Device_Library/Core/Src/usbd_ctlreq.c ****         pdev->dev_config = cfgidx;
 682:Middlewares/ST/STM32_USB_Device_Library/Core/Src/usbd_ctlreq.c **** 
 683:Middlewares/ST/STM32_USB_Device_Library/Core/Src/usbd_ctlreq.c ****         ret = USBD_SetClassConfig(pdev, cfgidx);
 684:Middlewares/ST/STM32_USB_Device_Library/Core/Src/usbd_ctlreq.c **** 
 685:Middlewares/ST/STM32_USB_Device_Library/Core/Src/usbd_ctlreq.c ****         if (ret != USBD_OK)
 686:Middlewares/ST/STM32_USB_Device_Library/Core/Src/usbd_ctlreq.c ****         {
 687:Middlewares/ST/STM32_USB_Device_Library/Core/Src/usbd_ctlreq.c ****           USBD_CtlError(pdev, req);
 688:Middlewares/ST/STM32_USB_Device_Library/Core/Src/usbd_ctlreq.c ****           (void)USBD_ClrClassConfig(pdev, (uint8_t)pdev->dev_config);
 689:Middlewares/ST/STM32_USB_Device_Library/Core/Src/usbd_ctlreq.c ****           pdev->dev_state = USBD_STATE_ADDRESSED;
 690:Middlewares/ST/STM32_USB_Device_Library/Core/Src/usbd_ctlreq.c ****         }
 691:Middlewares/ST/STM32_USB_Device_Library/Core/Src/usbd_ctlreq.c ****         else
 692:Middlewares/ST/STM32_USB_Device_Library/Core/Src/usbd_ctlreq.c ****         {
 693:Middlewares/ST/STM32_USB_Device_Library/Core/Src/usbd_ctlreq.c ****           (void)USBD_CtlSendStatus(pdev);
 694:Middlewares/ST/STM32_USB_Device_Library/Core/Src/usbd_ctlreq.c ****         }
 695:Middlewares/ST/STM32_USB_Device_Library/Core/Src/usbd_ctlreq.c ****       }
 696:Middlewares/ST/STM32_USB_Device_Library/Core/Src/usbd_ctlreq.c ****       else
 697:Middlewares/ST/STM32_USB_Device_Library/Core/Src/usbd_ctlreq.c ****       {
ARM GAS  /var/folders/vq/qt4vp3kd5rxf7v2b6_fdtdt80000gn/T//ccjnR4Ke.s 			page 48


 698:Middlewares/ST/STM32_USB_Device_Library/Core/Src/usbd_ctlreq.c ****         (void)USBD_CtlSendStatus(pdev);
 699:Middlewares/ST/STM32_USB_Device_Library/Core/Src/usbd_ctlreq.c ****       }
 700:Middlewares/ST/STM32_USB_Device_Library/Core/Src/usbd_ctlreq.c ****       break;
 1624              		.loc 2 700 7
 1625 00b4 42E0     		b	.L131
 1626              	.L132:
 675:Middlewares/ST/STM32_USB_Device_Library/Core/Src/usbd_ctlreq.c ****       {
 1627              		.loc 2 675 23
 1628 00b6 244B     		ldr	r3, .L137
 1629 00b8 1B78     		ldrb	r3, [r3]	@ zero_extendqisi2
 1630 00ba 1A46     		mov	r2, r3
 675:Middlewares/ST/STM32_USB_Device_Library/Core/Src/usbd_ctlreq.c ****       {
 1631              		.loc 2 675 30
 1632 00bc 7B68     		ldr	r3, [r7, #4]
 1633 00be 5B68     		ldr	r3, [r3, #4]
 675:Middlewares/ST/STM32_USB_Device_Library/Core/Src/usbd_ctlreq.c ****       {
 1634              		.loc 2 675 15
 1635 00c0 9A42     		cmp	r2, r3
 1636 00c2 2AD0     		beq	.L134
 678:Middlewares/ST/STM32_USB_Device_Library/Core/Src/usbd_ctlreq.c **** 
 1637              		.loc 2 678 54
 1638 00c4 7B68     		ldr	r3, [r7, #4]
 1639 00c6 5B68     		ldr	r3, [r3, #4]
 678:Middlewares/ST/STM32_USB_Device_Library/Core/Src/usbd_ctlreq.c **** 
 1640              		.loc 2 678 15
 1641 00c8 DBB2     		uxtb	r3, r3
 1642 00ca 1946     		mov	r1, r3
 1643 00cc 7868     		ldr	r0, [r7, #4]
 1644 00ce FFF7FEFF 		bl	USBD_ClrClassConfig
 681:Middlewares/ST/STM32_USB_Device_Library/Core/Src/usbd_ctlreq.c **** 
 1645              		.loc 2 681 26
 1646 00d2 1D4B     		ldr	r3, .L137
 1647 00d4 1B78     		ldrb	r3, [r3]	@ zero_extendqisi2
 1648 00d6 1A46     		mov	r2, r3
 1649 00d8 7B68     		ldr	r3, [r7, #4]
 1650 00da 5A60     		str	r2, [r3, #4]
 683:Middlewares/ST/STM32_USB_Device_Library/Core/Src/usbd_ctlreq.c **** 
 1651              		.loc 2 683 15
 1652 00dc 1A4B     		ldr	r3, .L137
 1653 00de 1B78     		ldrb	r3, [r3]	@ zero_extendqisi2
 1654 00e0 1946     		mov	r1, r3
 1655 00e2 7868     		ldr	r0, [r7, #4]
 1656 00e4 FFF7FEFF 		bl	USBD_SetClassConfig
 1657 00e8 0346     		mov	r3, r0
 1658 00ea FB73     		strb	r3, [r7, #15]
 685:Middlewares/ST/STM32_USB_Device_Library/Core/Src/usbd_ctlreq.c ****         {
 1659              		.loc 2 685 12
 1660 00ec FB7B     		ldrb	r3, [r7, #15]	@ zero_extendqisi2
 1661 00ee 002B     		cmp	r3, #0
 1662 00f0 0FD0     		beq	.L135
 687:Middlewares/ST/STM32_USB_Device_Library/Core/Src/usbd_ctlreq.c ****           (void)USBD_ClrClassConfig(pdev, (uint8_t)pdev->dev_config);
 1663              		.loc 2 687 11
 1664 00f2 3968     		ldr	r1, [r7]
 1665 00f4 7868     		ldr	r0, [r7, #4]
 1666 00f6 FFF7FEFF 		bl	USBD_CtlError
 688:Middlewares/ST/STM32_USB_Device_Library/Core/Src/usbd_ctlreq.c ****           pdev->dev_state = USBD_STATE_ADDRESSED;
 1667              		.loc 2 688 56
ARM GAS  /var/folders/vq/qt4vp3kd5rxf7v2b6_fdtdt80000gn/T//ccjnR4Ke.s 			page 49


 1668 00fa 7B68     		ldr	r3, [r7, #4]
 1669 00fc 5B68     		ldr	r3, [r3, #4]
 688:Middlewares/ST/STM32_USB_Device_Library/Core/Src/usbd_ctlreq.c ****           pdev->dev_state = USBD_STATE_ADDRESSED;
 1670              		.loc 2 688 17
 1671 00fe DBB2     		uxtb	r3, r3
 1672 0100 1946     		mov	r1, r3
 1673 0102 7868     		ldr	r0, [r7, #4]
 1674 0104 FFF7FEFF 		bl	USBD_ClrClassConfig
 689:Middlewares/ST/STM32_USB_Device_Library/Core/Src/usbd_ctlreq.c ****         }
 1675              		.loc 2 689 27
 1676 0108 7B68     		ldr	r3, [r7, #4]
 1677 010a 0222     		movs	r2, #2
 1678 010c 83F89C22 		strb	r2, [r3, #668]
 1679              		.loc 2 700 7
 1680 0110 14E0     		b	.L131
 1681              	.L135:
 693:Middlewares/ST/STM32_USB_Device_Library/Core/Src/usbd_ctlreq.c ****         }
 1682              		.loc 2 693 17
 1683 0112 7868     		ldr	r0, [r7, #4]
 1684 0114 FFF7FEFF 		bl	USBD_CtlSendStatus
 1685              		.loc 2 700 7
 1686 0118 10E0     		b	.L131
 1687              	.L134:
 698:Middlewares/ST/STM32_USB_Device_Library/Core/Src/usbd_ctlreq.c ****       }
 1688              		.loc 2 698 15
 1689 011a 7868     		ldr	r0, [r7, #4]
 1690 011c FFF7FEFF 		bl	USBD_CtlSendStatus
 1691              		.loc 2 700 7
 1692 0120 0CE0     		b	.L131
 1693              	.L136:
 701:Middlewares/ST/STM32_USB_Device_Library/Core/Src/usbd_ctlreq.c **** 
 702:Middlewares/ST/STM32_USB_Device_Library/Core/Src/usbd_ctlreq.c ****     default:
 703:Middlewares/ST/STM32_USB_Device_Library/Core/Src/usbd_ctlreq.c ****       USBD_CtlError(pdev, req);
 1694              		.loc 2 703 7
 1695 0122 3968     		ldr	r1, [r7]
 1696 0124 7868     		ldr	r0, [r7, #4]
 1697 0126 FFF7FEFF 		bl	USBD_CtlError
 704:Middlewares/ST/STM32_USB_Device_Library/Core/Src/usbd_ctlreq.c ****       (void)USBD_ClrClassConfig(pdev, cfgidx);
 1698              		.loc 2 704 7
 1699 012a 074B     		ldr	r3, .L137
 1700 012c 1B78     		ldrb	r3, [r3]	@ zero_extendqisi2
 1701              		.loc 2 704 13
 1702 012e 1946     		mov	r1, r3
 1703 0130 7868     		ldr	r0, [r7, #4]
 1704 0132 FFF7FEFF 		bl	USBD_ClrClassConfig
 705:Middlewares/ST/STM32_USB_Device_Library/Core/Src/usbd_ctlreq.c ****       ret = USBD_FAIL;
 1705              		.loc 2 705 11
 1706 0136 0323     		movs	r3, #3
 1707 0138 FB73     		strb	r3, [r7, #15]
 706:Middlewares/ST/STM32_USB_Device_Library/Core/Src/usbd_ctlreq.c ****       break;
 1708              		.loc 2 706 7
 1709 013a 00BF     		nop
 1710              	.L131:
 707:Middlewares/ST/STM32_USB_Device_Library/Core/Src/usbd_ctlreq.c ****   }
 708:Middlewares/ST/STM32_USB_Device_Library/Core/Src/usbd_ctlreq.c **** 
 709:Middlewares/ST/STM32_USB_Device_Library/Core/Src/usbd_ctlreq.c ****   return ret;
 1711              		.loc 2 709 10
ARM GAS  /var/folders/vq/qt4vp3kd5rxf7v2b6_fdtdt80000gn/T//ccjnR4Ke.s 			page 50


 1712 013c FB7B     		ldrb	r3, [r7, #15]	@ zero_extendqisi2
 1713              	.L124:
 710:Middlewares/ST/STM32_USB_Device_Library/Core/Src/usbd_ctlreq.c **** }
 1714              		.loc 2 710 1
 1715 013e 1846     		mov	r0, r3
 1716 0140 1037     		adds	r7, r7, #16
 1717              	.LCFI34:
 1718              		.cfi_def_cfa_offset 8
 1719 0142 BD46     		mov	sp, r7
 1720              	.LCFI35:
 1721              		.cfi_def_cfa_register 13
 1722              		@ sp needed
 1723 0144 80BD     		pop	{r7, pc}
 1724              	.L138:
 1725 0146 00BF     		.align	2
 1726              	.L137:
 1727 0148 00000000 		.word	cfgidx.9901
 1728              		.cfi_endproc
 1729              	.LFE139:
 1731              		.section	.text.USBD_GetConfig,"ax",%progbits
 1732              		.align	1
 1733              		.syntax unified
 1734              		.thumb
 1735              		.thumb_func
 1736              		.fpu fpv4-sp-d16
 1738              	USBD_GetConfig:
 1739              	.LFB140:
 711:Middlewares/ST/STM32_USB_Device_Library/Core/Src/usbd_ctlreq.c **** 
 712:Middlewares/ST/STM32_USB_Device_Library/Core/Src/usbd_ctlreq.c **** /**
 713:Middlewares/ST/STM32_USB_Device_Library/Core/Src/usbd_ctlreq.c ****   * @brief  USBD_GetConfig
 714:Middlewares/ST/STM32_USB_Device_Library/Core/Src/usbd_ctlreq.c ****   *         Handle Get device configuration request
 715:Middlewares/ST/STM32_USB_Device_Library/Core/Src/usbd_ctlreq.c ****   * @param  pdev: device instance
 716:Middlewares/ST/STM32_USB_Device_Library/Core/Src/usbd_ctlreq.c ****   * @param  req: usb request
 717:Middlewares/ST/STM32_USB_Device_Library/Core/Src/usbd_ctlreq.c ****   * @retval status
 718:Middlewares/ST/STM32_USB_Device_Library/Core/Src/usbd_ctlreq.c ****   */
 719:Middlewares/ST/STM32_USB_Device_Library/Core/Src/usbd_ctlreq.c **** static void USBD_GetConfig(USBD_HandleTypeDef *pdev, USBD_SetupReqTypedef *req)
 720:Middlewares/ST/STM32_USB_Device_Library/Core/Src/usbd_ctlreq.c **** {
 1740              		.loc 2 720 1
 1741              		.cfi_startproc
 1742              		@ args = 0, pretend = 0, frame = 8
 1743              		@ frame_needed = 1, uses_anonymous_args = 0
 1744 0000 80B5     		push	{r7, lr}
 1745              	.LCFI36:
 1746              		.cfi_def_cfa_offset 8
 1747              		.cfi_offset 7, -8
 1748              		.cfi_offset 14, -4
 1749 0002 82B0     		sub	sp, sp, #8
 1750              	.LCFI37:
 1751              		.cfi_def_cfa_offset 16
 1752 0004 00AF     		add	r7, sp, #0
 1753              	.LCFI38:
 1754              		.cfi_def_cfa_register 7
 1755 0006 7860     		str	r0, [r7, #4]
 1756 0008 3960     		str	r1, [r7]
 721:Middlewares/ST/STM32_USB_Device_Library/Core/Src/usbd_ctlreq.c ****   if (req->wLength != 1U)
 1757              		.loc 2 721 10
 1758 000a 3B68     		ldr	r3, [r7]
ARM GAS  /var/folders/vq/qt4vp3kd5rxf7v2b6_fdtdt80000gn/T//ccjnR4Ke.s 			page 51


 1759 000c DB88     		ldrh	r3, [r3, #6]
 1760              		.loc 2 721 6
 1761 000e 012B     		cmp	r3, #1
 1762 0010 04D0     		beq	.L140
 722:Middlewares/ST/STM32_USB_Device_Library/Core/Src/usbd_ctlreq.c ****   {
 723:Middlewares/ST/STM32_USB_Device_Library/Core/Src/usbd_ctlreq.c ****     USBD_CtlError(pdev, req);
 1763              		.loc 2 723 5
 1764 0012 3968     		ldr	r1, [r7]
 1765 0014 7868     		ldr	r0, [r7, #4]
 1766 0016 FFF7FEFF 		bl	USBD_CtlError
 724:Middlewares/ST/STM32_USB_Device_Library/Core/Src/usbd_ctlreq.c ****   }
 725:Middlewares/ST/STM32_USB_Device_Library/Core/Src/usbd_ctlreq.c ****   else
 726:Middlewares/ST/STM32_USB_Device_Library/Core/Src/usbd_ctlreq.c ****   {
 727:Middlewares/ST/STM32_USB_Device_Library/Core/Src/usbd_ctlreq.c ****     switch (pdev->dev_state)
 728:Middlewares/ST/STM32_USB_Device_Library/Core/Src/usbd_ctlreq.c ****     {
 729:Middlewares/ST/STM32_USB_Device_Library/Core/Src/usbd_ctlreq.c ****       case USBD_STATE_DEFAULT:
 730:Middlewares/ST/STM32_USB_Device_Library/Core/Src/usbd_ctlreq.c ****       case USBD_STATE_ADDRESSED:
 731:Middlewares/ST/STM32_USB_Device_Library/Core/Src/usbd_ctlreq.c ****         pdev->dev_default_config = 0U;
 732:Middlewares/ST/STM32_USB_Device_Library/Core/Src/usbd_ctlreq.c ****         (void)USBD_CtlSendData(pdev, (uint8_t *)&pdev->dev_default_config, 1U);
 733:Middlewares/ST/STM32_USB_Device_Library/Core/Src/usbd_ctlreq.c ****         break;
 734:Middlewares/ST/STM32_USB_Device_Library/Core/Src/usbd_ctlreq.c **** 
 735:Middlewares/ST/STM32_USB_Device_Library/Core/Src/usbd_ctlreq.c ****       case USBD_STATE_CONFIGURED:
 736:Middlewares/ST/STM32_USB_Device_Library/Core/Src/usbd_ctlreq.c ****         (void)USBD_CtlSendData(pdev, (uint8_t *)&pdev->dev_config, 1U);
 737:Middlewares/ST/STM32_USB_Device_Library/Core/Src/usbd_ctlreq.c ****         break;
 738:Middlewares/ST/STM32_USB_Device_Library/Core/Src/usbd_ctlreq.c **** 
 739:Middlewares/ST/STM32_USB_Device_Library/Core/Src/usbd_ctlreq.c ****       default:
 740:Middlewares/ST/STM32_USB_Device_Library/Core/Src/usbd_ctlreq.c ****         USBD_CtlError(pdev, req);
 741:Middlewares/ST/STM32_USB_Device_Library/Core/Src/usbd_ctlreq.c ****         break;
 742:Middlewares/ST/STM32_USB_Device_Library/Core/Src/usbd_ctlreq.c ****     }
 743:Middlewares/ST/STM32_USB_Device_Library/Core/Src/usbd_ctlreq.c ****   }
 744:Middlewares/ST/STM32_USB_Device_Library/Core/Src/usbd_ctlreq.c **** }
 1767              		.loc 2 744 1
 1768 001a 23E0     		b	.L146
 1769              	.L140:
 727:Middlewares/ST/STM32_USB_Device_Library/Core/Src/usbd_ctlreq.c ****     {
 1770              		.loc 2 727 17
 1771 001c 7B68     		ldr	r3, [r7, #4]
 1772 001e 93F89C32 		ldrb	r3, [r3, #668]
 1773 0022 DBB2     		uxtb	r3, r3
 727:Middlewares/ST/STM32_USB_Device_Library/Core/Src/usbd_ctlreq.c ****     {
 1774              		.loc 2 727 5
 1775 0024 022B     		cmp	r3, #2
 1776 0026 02DC     		bgt	.L142
 1777 0028 002B     		cmp	r3, #0
 1778 002a 03DC     		bgt	.L143
 1779 002c 15E0     		b	.L144
 1780              	.L142:
 1781 002e 032B     		cmp	r3, #3
 1782 0030 0BD0     		beq	.L145
 1783 0032 12E0     		b	.L144
 1784              	.L143:
 731:Middlewares/ST/STM32_USB_Device_Library/Core/Src/usbd_ctlreq.c ****         (void)USBD_CtlSendData(pdev, (uint8_t *)&pdev->dev_default_config, 1U);
 1785              		.loc 2 731 34
 1786 0034 7B68     		ldr	r3, [r7, #4]
 1787 0036 0022     		movs	r2, #0
 1788 0038 9A60     		str	r2, [r3, #8]
 732:Middlewares/ST/STM32_USB_Device_Library/Core/Src/usbd_ctlreq.c ****         break;
ARM GAS  /var/folders/vq/qt4vp3kd5rxf7v2b6_fdtdt80000gn/T//ccjnR4Ke.s 			page 52


 1789              		.loc 2 732 49
 1790 003a 7B68     		ldr	r3, [r7, #4]
 1791 003c 0833     		adds	r3, r3, #8
 732:Middlewares/ST/STM32_USB_Device_Library/Core/Src/usbd_ctlreq.c ****         break;
 1792              		.loc 2 732 15
 1793 003e 0122     		movs	r2, #1
 1794 0040 1946     		mov	r1, r3
 1795 0042 7868     		ldr	r0, [r7, #4]
 1796 0044 FFF7FEFF 		bl	USBD_CtlSendData
 733:Middlewares/ST/STM32_USB_Device_Library/Core/Src/usbd_ctlreq.c **** 
 1797              		.loc 2 733 9
 1798 0048 0CE0     		b	.L141
 1799              	.L145:
 736:Middlewares/ST/STM32_USB_Device_Library/Core/Src/usbd_ctlreq.c ****         break;
 1800              		.loc 2 736 49
 1801 004a 7B68     		ldr	r3, [r7, #4]
 1802 004c 0433     		adds	r3, r3, #4
 736:Middlewares/ST/STM32_USB_Device_Library/Core/Src/usbd_ctlreq.c ****         break;
 1803              		.loc 2 736 15
 1804 004e 0122     		movs	r2, #1
 1805 0050 1946     		mov	r1, r3
 1806 0052 7868     		ldr	r0, [r7, #4]
 1807 0054 FFF7FEFF 		bl	USBD_CtlSendData
 737:Middlewares/ST/STM32_USB_Device_Library/Core/Src/usbd_ctlreq.c **** 
 1808              		.loc 2 737 9
 1809 0058 04E0     		b	.L141
 1810              	.L144:
 740:Middlewares/ST/STM32_USB_Device_Library/Core/Src/usbd_ctlreq.c ****         break;
 1811              		.loc 2 740 9
 1812 005a 3968     		ldr	r1, [r7]
 1813 005c 7868     		ldr	r0, [r7, #4]
 1814 005e FFF7FEFF 		bl	USBD_CtlError
 741:Middlewares/ST/STM32_USB_Device_Library/Core/Src/usbd_ctlreq.c ****     }
 1815              		.loc 2 741 9
 1816 0062 00BF     		nop
 1817              	.L141:
 1818              	.L146:
 1819              		.loc 2 744 1
 1820 0064 00BF     		nop
 1821 0066 0837     		adds	r7, r7, #8
 1822              	.LCFI39:
 1823              		.cfi_def_cfa_offset 8
 1824 0068 BD46     		mov	sp, r7
 1825              	.LCFI40:
 1826              		.cfi_def_cfa_register 13
 1827              		@ sp needed
 1828 006a 80BD     		pop	{r7, pc}
 1829              		.cfi_endproc
 1830              	.LFE140:
 1832              		.section	.text.USBD_GetStatus,"ax",%progbits
 1833              		.align	1
 1834              		.syntax unified
 1835              		.thumb
 1836              		.thumb_func
 1837              		.fpu fpv4-sp-d16
 1839              	USBD_GetStatus:
 1840              	.LFB141:
ARM GAS  /var/folders/vq/qt4vp3kd5rxf7v2b6_fdtdt80000gn/T//ccjnR4Ke.s 			page 53


 745:Middlewares/ST/STM32_USB_Device_Library/Core/Src/usbd_ctlreq.c **** 
 746:Middlewares/ST/STM32_USB_Device_Library/Core/Src/usbd_ctlreq.c **** /**
 747:Middlewares/ST/STM32_USB_Device_Library/Core/Src/usbd_ctlreq.c ****   * @brief  USBD_GetStatus
 748:Middlewares/ST/STM32_USB_Device_Library/Core/Src/usbd_ctlreq.c ****   *         Handle Get Status request
 749:Middlewares/ST/STM32_USB_Device_Library/Core/Src/usbd_ctlreq.c ****   * @param  pdev: device instance
 750:Middlewares/ST/STM32_USB_Device_Library/Core/Src/usbd_ctlreq.c ****   * @param  req: usb request
 751:Middlewares/ST/STM32_USB_Device_Library/Core/Src/usbd_ctlreq.c ****   * @retval status
 752:Middlewares/ST/STM32_USB_Device_Library/Core/Src/usbd_ctlreq.c ****   */
 753:Middlewares/ST/STM32_USB_Device_Library/Core/Src/usbd_ctlreq.c **** static void USBD_GetStatus(USBD_HandleTypeDef *pdev, USBD_SetupReqTypedef *req)
 754:Middlewares/ST/STM32_USB_Device_Library/Core/Src/usbd_ctlreq.c **** {
 1841              		.loc 2 754 1
 1842              		.cfi_startproc
 1843              		@ args = 0, pretend = 0, frame = 8
 1844              		@ frame_needed = 1, uses_anonymous_args = 0
 1845 0000 80B5     		push	{r7, lr}
 1846              	.LCFI41:
 1847              		.cfi_def_cfa_offset 8
 1848              		.cfi_offset 7, -8
 1849              		.cfi_offset 14, -4
 1850 0002 82B0     		sub	sp, sp, #8
 1851              	.LCFI42:
 1852              		.cfi_def_cfa_offset 16
 1853 0004 00AF     		add	r7, sp, #0
 1854              	.LCFI43:
 1855              		.cfi_def_cfa_register 7
 1856 0006 7860     		str	r0, [r7, #4]
 1857 0008 3960     		str	r1, [r7]
 755:Middlewares/ST/STM32_USB_Device_Library/Core/Src/usbd_ctlreq.c ****   switch (pdev->dev_state)
 1858              		.loc 2 755 15
 1859 000a 7B68     		ldr	r3, [r7, #4]
 1860 000c 93F89C32 		ldrb	r3, [r3, #668]
 1861 0010 DBB2     		uxtb	r3, r3
 1862 0012 013B     		subs	r3, r3, #1
 1863              		.loc 2 755 3
 1864 0014 022B     		cmp	r3, #2
 1865 0016 1ED8     		bhi	.L148
 756:Middlewares/ST/STM32_USB_Device_Library/Core/Src/usbd_ctlreq.c ****   {
 757:Middlewares/ST/STM32_USB_Device_Library/Core/Src/usbd_ctlreq.c ****     case USBD_STATE_DEFAULT:
 758:Middlewares/ST/STM32_USB_Device_Library/Core/Src/usbd_ctlreq.c ****     case USBD_STATE_ADDRESSED:
 759:Middlewares/ST/STM32_USB_Device_Library/Core/Src/usbd_ctlreq.c ****     case USBD_STATE_CONFIGURED:
 760:Middlewares/ST/STM32_USB_Device_Library/Core/Src/usbd_ctlreq.c ****       if (req->wLength != 0x2U)
 1866              		.loc 2 760 14
 1867 0018 3B68     		ldr	r3, [r7]
 1868 001a DB88     		ldrh	r3, [r3, #6]
 1869              		.loc 2 760 10
 1870 001c 022B     		cmp	r3, #2
 1871 001e 04D0     		beq	.L149
 761:Middlewares/ST/STM32_USB_Device_Library/Core/Src/usbd_ctlreq.c ****       {
 762:Middlewares/ST/STM32_USB_Device_Library/Core/Src/usbd_ctlreq.c ****         USBD_CtlError(pdev, req);
 1872              		.loc 2 762 9
 1873 0020 3968     		ldr	r1, [r7]
 1874 0022 7868     		ldr	r0, [r7, #4]
 1875 0024 FFF7FEFF 		bl	USBD_CtlError
 763:Middlewares/ST/STM32_USB_Device_Library/Core/Src/usbd_ctlreq.c ****         break;
 1876              		.loc 2 763 9
 1877 0028 1AE0     		b	.L150
 1878              	.L149:
ARM GAS  /var/folders/vq/qt4vp3kd5rxf7v2b6_fdtdt80000gn/T//ccjnR4Ke.s 			page 54


 764:Middlewares/ST/STM32_USB_Device_Library/Core/Src/usbd_ctlreq.c ****       }
 765:Middlewares/ST/STM32_USB_Device_Library/Core/Src/usbd_ctlreq.c **** 
 766:Middlewares/ST/STM32_USB_Device_Library/Core/Src/usbd_ctlreq.c **** #if (USBD_SELF_POWERED == 1U)
 767:Middlewares/ST/STM32_USB_Device_Library/Core/Src/usbd_ctlreq.c ****       pdev->dev_config_status = USB_CONFIG_SELF_POWERED;
 1879              		.loc 2 767 31
 1880 002a 7B68     		ldr	r3, [r7, #4]
 1881 002c 0122     		movs	r2, #1
 1882 002e DA60     		str	r2, [r3, #12]
 768:Middlewares/ST/STM32_USB_Device_Library/Core/Src/usbd_ctlreq.c **** #else
 769:Middlewares/ST/STM32_USB_Device_Library/Core/Src/usbd_ctlreq.c ****       pdev->dev_config_status = 0U;
 770:Middlewares/ST/STM32_USB_Device_Library/Core/Src/usbd_ctlreq.c **** #endif
 771:Middlewares/ST/STM32_USB_Device_Library/Core/Src/usbd_ctlreq.c **** 
 772:Middlewares/ST/STM32_USB_Device_Library/Core/Src/usbd_ctlreq.c ****       if (pdev->dev_remote_wakeup != 0U)
 1883              		.loc 2 772 15
 1884 0030 7B68     		ldr	r3, [r7, #4]
 1885 0032 D3F8A432 		ldr	r3, [r3, #676]
 1886              		.loc 2 772 10
 1887 0036 002B     		cmp	r3, #0
 1888 0038 05D0     		beq	.L151
 773:Middlewares/ST/STM32_USB_Device_Library/Core/Src/usbd_ctlreq.c ****       {
 774:Middlewares/ST/STM32_USB_Device_Library/Core/Src/usbd_ctlreq.c ****         pdev->dev_config_status |= USB_CONFIG_REMOTE_WAKEUP;
 1889              		.loc 2 774 33
 1890 003a 7B68     		ldr	r3, [r7, #4]
 1891 003c DB68     		ldr	r3, [r3, #12]
 1892 003e 43F00202 		orr	r2, r3, #2
 1893 0042 7B68     		ldr	r3, [r7, #4]
 1894 0044 DA60     		str	r2, [r3, #12]
 1895              	.L151:
 775:Middlewares/ST/STM32_USB_Device_Library/Core/Src/usbd_ctlreq.c ****       }
 776:Middlewares/ST/STM32_USB_Device_Library/Core/Src/usbd_ctlreq.c **** 
 777:Middlewares/ST/STM32_USB_Device_Library/Core/Src/usbd_ctlreq.c ****       (void)USBD_CtlSendData(pdev, (uint8_t *)&pdev->dev_config_status, 2U);
 1896              		.loc 2 777 47
 1897 0046 7B68     		ldr	r3, [r7, #4]
 1898 0048 0C33     		adds	r3, r3, #12
 1899              		.loc 2 777 13
 1900 004a 0222     		movs	r2, #2
 1901 004c 1946     		mov	r1, r3
 1902 004e 7868     		ldr	r0, [r7, #4]
 1903 0050 FFF7FEFF 		bl	USBD_CtlSendData
 778:Middlewares/ST/STM32_USB_Device_Library/Core/Src/usbd_ctlreq.c ****       break;
 1904              		.loc 2 778 7
 1905 0054 04E0     		b	.L150
 1906              	.L148:
 779:Middlewares/ST/STM32_USB_Device_Library/Core/Src/usbd_ctlreq.c **** 
 780:Middlewares/ST/STM32_USB_Device_Library/Core/Src/usbd_ctlreq.c ****     default:
 781:Middlewares/ST/STM32_USB_Device_Library/Core/Src/usbd_ctlreq.c ****       USBD_CtlError(pdev, req);
 1907              		.loc 2 781 7
 1908 0056 3968     		ldr	r1, [r7]
 1909 0058 7868     		ldr	r0, [r7, #4]
 1910 005a FFF7FEFF 		bl	USBD_CtlError
 782:Middlewares/ST/STM32_USB_Device_Library/Core/Src/usbd_ctlreq.c ****       break;
 1911              		.loc 2 782 7
 1912 005e 00BF     		nop
 1913              	.L150:
 783:Middlewares/ST/STM32_USB_Device_Library/Core/Src/usbd_ctlreq.c ****   }
 784:Middlewares/ST/STM32_USB_Device_Library/Core/Src/usbd_ctlreq.c **** }
 1914              		.loc 2 784 1
ARM GAS  /var/folders/vq/qt4vp3kd5rxf7v2b6_fdtdt80000gn/T//ccjnR4Ke.s 			page 55


 1915 0060 00BF     		nop
 1916 0062 0837     		adds	r7, r7, #8
 1917              	.LCFI44:
 1918              		.cfi_def_cfa_offset 8
 1919 0064 BD46     		mov	sp, r7
 1920              	.LCFI45:
 1921              		.cfi_def_cfa_register 13
 1922              		@ sp needed
 1923 0066 80BD     		pop	{r7, pc}
 1924              		.cfi_endproc
 1925              	.LFE141:
 1927              		.section	.text.USBD_SetFeature,"ax",%progbits
 1928              		.align	1
 1929              		.syntax unified
 1930              		.thumb
 1931              		.thumb_func
 1932              		.fpu fpv4-sp-d16
 1934              	USBD_SetFeature:
 1935              	.LFB142:
 785:Middlewares/ST/STM32_USB_Device_Library/Core/Src/usbd_ctlreq.c **** 
 786:Middlewares/ST/STM32_USB_Device_Library/Core/Src/usbd_ctlreq.c **** 
 787:Middlewares/ST/STM32_USB_Device_Library/Core/Src/usbd_ctlreq.c **** /**
 788:Middlewares/ST/STM32_USB_Device_Library/Core/Src/usbd_ctlreq.c ****   * @brief  USBD_SetFeature
 789:Middlewares/ST/STM32_USB_Device_Library/Core/Src/usbd_ctlreq.c ****   *         Handle Set device feature request
 790:Middlewares/ST/STM32_USB_Device_Library/Core/Src/usbd_ctlreq.c ****   * @param  pdev: device instance
 791:Middlewares/ST/STM32_USB_Device_Library/Core/Src/usbd_ctlreq.c ****   * @param  req: usb request
 792:Middlewares/ST/STM32_USB_Device_Library/Core/Src/usbd_ctlreq.c ****   * @retval status
 793:Middlewares/ST/STM32_USB_Device_Library/Core/Src/usbd_ctlreq.c ****   */
 794:Middlewares/ST/STM32_USB_Device_Library/Core/Src/usbd_ctlreq.c **** static void USBD_SetFeature(USBD_HandleTypeDef *pdev, USBD_SetupReqTypedef *req)
 795:Middlewares/ST/STM32_USB_Device_Library/Core/Src/usbd_ctlreq.c **** {
 1936              		.loc 2 795 1
 1937              		.cfi_startproc
 1938              		@ args = 0, pretend = 0, frame = 8
 1939              		@ frame_needed = 1, uses_anonymous_args = 0
 1940 0000 80B5     		push	{r7, lr}
 1941              	.LCFI46:
 1942              		.cfi_def_cfa_offset 8
 1943              		.cfi_offset 7, -8
 1944              		.cfi_offset 14, -4
 1945 0002 82B0     		sub	sp, sp, #8
 1946              	.LCFI47:
 1947              		.cfi_def_cfa_offset 16
 1948 0004 00AF     		add	r7, sp, #0
 1949              	.LCFI48:
 1950              		.cfi_def_cfa_register 7
 1951 0006 7860     		str	r0, [r7, #4]
 1952 0008 3960     		str	r1, [r7]
 796:Middlewares/ST/STM32_USB_Device_Library/Core/Src/usbd_ctlreq.c ****   if (req->wValue == USB_FEATURE_REMOTE_WAKEUP)
 1953              		.loc 2 796 10
 1954 000a 3B68     		ldr	r3, [r7]
 1955 000c 5B88     		ldrh	r3, [r3, #2]
 1956              		.loc 2 796 6
 1957 000e 012B     		cmp	r3, #1
 1958 0010 06D1     		bne	.L154
 797:Middlewares/ST/STM32_USB_Device_Library/Core/Src/usbd_ctlreq.c ****   {
 798:Middlewares/ST/STM32_USB_Device_Library/Core/Src/usbd_ctlreq.c ****     pdev->dev_remote_wakeup = 1U;
 1959              		.loc 2 798 29
ARM GAS  /var/folders/vq/qt4vp3kd5rxf7v2b6_fdtdt80000gn/T//ccjnR4Ke.s 			page 56


 1960 0012 7B68     		ldr	r3, [r7, #4]
 1961 0014 0122     		movs	r2, #1
 1962 0016 C3F8A422 		str	r2, [r3, #676]
 799:Middlewares/ST/STM32_USB_Device_Library/Core/Src/usbd_ctlreq.c ****     (void)USBD_CtlSendStatus(pdev);
 1963              		.loc 2 799 11
 1964 001a 7868     		ldr	r0, [r7, #4]
 1965 001c FFF7FEFF 		bl	USBD_CtlSendStatus
 1966              	.L154:
 800:Middlewares/ST/STM32_USB_Device_Library/Core/Src/usbd_ctlreq.c ****   }
 801:Middlewares/ST/STM32_USB_Device_Library/Core/Src/usbd_ctlreq.c **** }
 1967              		.loc 2 801 1
 1968 0020 00BF     		nop
 1969 0022 0837     		adds	r7, r7, #8
 1970              	.LCFI49:
 1971              		.cfi_def_cfa_offset 8
 1972 0024 BD46     		mov	sp, r7
 1973              	.LCFI50:
 1974              		.cfi_def_cfa_register 13
 1975              		@ sp needed
 1976 0026 80BD     		pop	{r7, pc}
 1977              		.cfi_endproc
 1978              	.LFE142:
 1980              		.section	.text.USBD_ClrFeature,"ax",%progbits
 1981              		.align	1
 1982              		.syntax unified
 1983              		.thumb
 1984              		.thumb_func
 1985              		.fpu fpv4-sp-d16
 1987              	USBD_ClrFeature:
 1988              	.LFB143:
 802:Middlewares/ST/STM32_USB_Device_Library/Core/Src/usbd_ctlreq.c **** 
 803:Middlewares/ST/STM32_USB_Device_Library/Core/Src/usbd_ctlreq.c **** 
 804:Middlewares/ST/STM32_USB_Device_Library/Core/Src/usbd_ctlreq.c **** /**
 805:Middlewares/ST/STM32_USB_Device_Library/Core/Src/usbd_ctlreq.c ****   * @brief  USBD_ClrFeature
 806:Middlewares/ST/STM32_USB_Device_Library/Core/Src/usbd_ctlreq.c ****   *         Handle clear device feature request
 807:Middlewares/ST/STM32_USB_Device_Library/Core/Src/usbd_ctlreq.c ****   * @param  pdev: device instance
 808:Middlewares/ST/STM32_USB_Device_Library/Core/Src/usbd_ctlreq.c ****   * @param  req: usb request
 809:Middlewares/ST/STM32_USB_Device_Library/Core/Src/usbd_ctlreq.c ****   * @retval status
 810:Middlewares/ST/STM32_USB_Device_Library/Core/Src/usbd_ctlreq.c ****   */
 811:Middlewares/ST/STM32_USB_Device_Library/Core/Src/usbd_ctlreq.c **** static void USBD_ClrFeature(USBD_HandleTypeDef *pdev, USBD_SetupReqTypedef *req)
 812:Middlewares/ST/STM32_USB_Device_Library/Core/Src/usbd_ctlreq.c **** {
 1989              		.loc 2 812 1
 1990              		.cfi_startproc
 1991              		@ args = 0, pretend = 0, frame = 8
 1992              		@ frame_needed = 1, uses_anonymous_args = 0
 1993 0000 80B5     		push	{r7, lr}
 1994              	.LCFI51:
 1995              		.cfi_def_cfa_offset 8
 1996              		.cfi_offset 7, -8
 1997              		.cfi_offset 14, -4
 1998 0002 82B0     		sub	sp, sp, #8
 1999              	.LCFI52:
 2000              		.cfi_def_cfa_offset 16
 2001 0004 00AF     		add	r7, sp, #0
 2002              	.LCFI53:
 2003              		.cfi_def_cfa_register 7
 2004 0006 7860     		str	r0, [r7, #4]
ARM GAS  /var/folders/vq/qt4vp3kd5rxf7v2b6_fdtdt80000gn/T//ccjnR4Ke.s 			page 57


 2005 0008 3960     		str	r1, [r7]
 813:Middlewares/ST/STM32_USB_Device_Library/Core/Src/usbd_ctlreq.c ****   switch (pdev->dev_state)
 2006              		.loc 2 813 15
 2007 000a 7B68     		ldr	r3, [r7, #4]
 2008 000c 93F89C32 		ldrb	r3, [r3, #668]
 2009 0010 DBB2     		uxtb	r3, r3
 2010 0012 013B     		subs	r3, r3, #1
 2011              		.loc 2 813 3
 2012 0014 022B     		cmp	r3, #2
 2013 0016 0BD8     		bhi	.L156
 814:Middlewares/ST/STM32_USB_Device_Library/Core/Src/usbd_ctlreq.c ****   {
 815:Middlewares/ST/STM32_USB_Device_Library/Core/Src/usbd_ctlreq.c ****     case USBD_STATE_DEFAULT:
 816:Middlewares/ST/STM32_USB_Device_Library/Core/Src/usbd_ctlreq.c ****     case USBD_STATE_ADDRESSED:
 817:Middlewares/ST/STM32_USB_Device_Library/Core/Src/usbd_ctlreq.c ****     case USBD_STATE_CONFIGURED:
 818:Middlewares/ST/STM32_USB_Device_Library/Core/Src/usbd_ctlreq.c ****       if (req->wValue == USB_FEATURE_REMOTE_WAKEUP)
 2014              		.loc 2 818 14
 2015 0018 3B68     		ldr	r3, [r7]
 2016 001a 5B88     		ldrh	r3, [r3, #2]
 2017              		.loc 2 818 10
 2018 001c 012B     		cmp	r3, #1
 2019 001e 0CD1     		bne	.L159
 819:Middlewares/ST/STM32_USB_Device_Library/Core/Src/usbd_ctlreq.c ****       {
 820:Middlewares/ST/STM32_USB_Device_Library/Core/Src/usbd_ctlreq.c ****         pdev->dev_remote_wakeup = 0U;
 2020              		.loc 2 820 33
 2021 0020 7B68     		ldr	r3, [r7, #4]
 2022 0022 0022     		movs	r2, #0
 2023 0024 C3F8A422 		str	r2, [r3, #676]
 821:Middlewares/ST/STM32_USB_Device_Library/Core/Src/usbd_ctlreq.c ****         (void)USBD_CtlSendStatus(pdev);
 2024              		.loc 2 821 15
 2025 0028 7868     		ldr	r0, [r7, #4]
 2026 002a FFF7FEFF 		bl	USBD_CtlSendStatus
 822:Middlewares/ST/STM32_USB_Device_Library/Core/Src/usbd_ctlreq.c ****       }
 823:Middlewares/ST/STM32_USB_Device_Library/Core/Src/usbd_ctlreq.c ****       break;
 2027              		.loc 2 823 7
 2028 002e 04E0     		b	.L159
 2029              	.L156:
 824:Middlewares/ST/STM32_USB_Device_Library/Core/Src/usbd_ctlreq.c **** 
 825:Middlewares/ST/STM32_USB_Device_Library/Core/Src/usbd_ctlreq.c ****     default:
 826:Middlewares/ST/STM32_USB_Device_Library/Core/Src/usbd_ctlreq.c ****       USBD_CtlError(pdev, req);
 2030              		.loc 2 826 7
 2031 0030 3968     		ldr	r1, [r7]
 2032 0032 7868     		ldr	r0, [r7, #4]
 2033 0034 FFF7FEFF 		bl	USBD_CtlError
 827:Middlewares/ST/STM32_USB_Device_Library/Core/Src/usbd_ctlreq.c ****       break;
 2034              		.loc 2 827 7
 2035 0038 00E0     		b	.L158
 2036              	.L159:
 823:Middlewares/ST/STM32_USB_Device_Library/Core/Src/usbd_ctlreq.c **** 
 2037              		.loc 2 823 7
 2038 003a 00BF     		nop
 2039              	.L158:
 828:Middlewares/ST/STM32_USB_Device_Library/Core/Src/usbd_ctlreq.c ****   }
 829:Middlewares/ST/STM32_USB_Device_Library/Core/Src/usbd_ctlreq.c **** }
 2040              		.loc 2 829 1
 2041 003c 00BF     		nop
 2042 003e 0837     		adds	r7, r7, #8
 2043              	.LCFI54:
ARM GAS  /var/folders/vq/qt4vp3kd5rxf7v2b6_fdtdt80000gn/T//ccjnR4Ke.s 			page 58


 2044              		.cfi_def_cfa_offset 8
 2045 0040 BD46     		mov	sp, r7
 2046              	.LCFI55:
 2047              		.cfi_def_cfa_register 13
 2048              		@ sp needed
 2049 0042 80BD     		pop	{r7, pc}
 2050              		.cfi_endproc
 2051              	.LFE143:
 2053              		.section	.text.USBD_ParseSetupRequest,"ax",%progbits
 2054              		.align	1
 2055              		.global	USBD_ParseSetupRequest
 2056              		.syntax unified
 2057              		.thumb
 2058              		.thumb_func
 2059              		.fpu fpv4-sp-d16
 2061              	USBD_ParseSetupRequest:
 2062              	.LFB144:
 830:Middlewares/ST/STM32_USB_Device_Library/Core/Src/usbd_ctlreq.c **** 
 831:Middlewares/ST/STM32_USB_Device_Library/Core/Src/usbd_ctlreq.c **** 
 832:Middlewares/ST/STM32_USB_Device_Library/Core/Src/usbd_ctlreq.c **** /**
 833:Middlewares/ST/STM32_USB_Device_Library/Core/Src/usbd_ctlreq.c ****   * @brief  USBD_ParseSetupRequest
 834:Middlewares/ST/STM32_USB_Device_Library/Core/Src/usbd_ctlreq.c ****   *         Copy buffer into setup structure
 835:Middlewares/ST/STM32_USB_Device_Library/Core/Src/usbd_ctlreq.c ****   * @param  pdev: device instance
 836:Middlewares/ST/STM32_USB_Device_Library/Core/Src/usbd_ctlreq.c ****   * @param  req: usb request
 837:Middlewares/ST/STM32_USB_Device_Library/Core/Src/usbd_ctlreq.c ****   * @retval None
 838:Middlewares/ST/STM32_USB_Device_Library/Core/Src/usbd_ctlreq.c ****   */
 839:Middlewares/ST/STM32_USB_Device_Library/Core/Src/usbd_ctlreq.c **** void USBD_ParseSetupRequest(USBD_SetupReqTypedef *req, uint8_t *pdata)
 840:Middlewares/ST/STM32_USB_Device_Library/Core/Src/usbd_ctlreq.c **** {
 2063              		.loc 2 840 1
 2064              		.cfi_startproc
 2065              		@ args = 0, pretend = 0, frame = 16
 2066              		@ frame_needed = 1, uses_anonymous_args = 0
 2067 0000 80B5     		push	{r7, lr}
 2068              	.LCFI56:
 2069              		.cfi_def_cfa_offset 8
 2070              		.cfi_offset 7, -8
 2071              		.cfi_offset 14, -4
 2072 0002 84B0     		sub	sp, sp, #16
 2073              	.LCFI57:
 2074              		.cfi_def_cfa_offset 24
 2075 0004 00AF     		add	r7, sp, #0
 2076              	.LCFI58:
 2077              		.cfi_def_cfa_register 7
 2078 0006 7860     		str	r0, [r7, #4]
 2079 0008 3960     		str	r1, [r7]
 841:Middlewares/ST/STM32_USB_Device_Library/Core/Src/usbd_ctlreq.c ****   uint8_t *pbuff = pdata;
 2080              		.loc 2 841 12
 2081 000a 3B68     		ldr	r3, [r7]
 2082 000c FB60     		str	r3, [r7, #12]
 842:Middlewares/ST/STM32_USB_Device_Library/Core/Src/usbd_ctlreq.c **** 
 843:Middlewares/ST/STM32_USB_Device_Library/Core/Src/usbd_ctlreq.c ****   req->bmRequest = *(uint8_t *)(pbuff);
 2083              		.loc 2 843 20
 2084 000e FB68     		ldr	r3, [r7, #12]
 2085 0010 1A78     		ldrb	r2, [r3]	@ zero_extendqisi2
 2086              		.loc 2 843 18
 2087 0012 7B68     		ldr	r3, [r7, #4]
 2088 0014 1A70     		strb	r2, [r3]
ARM GAS  /var/folders/vq/qt4vp3kd5rxf7v2b6_fdtdt80000gn/T//ccjnR4Ke.s 			page 59


 844:Middlewares/ST/STM32_USB_Device_Library/Core/Src/usbd_ctlreq.c **** 
 845:Middlewares/ST/STM32_USB_Device_Library/Core/Src/usbd_ctlreq.c ****   pbuff++;
 2089              		.loc 2 845 8
 2090 0016 FB68     		ldr	r3, [r7, #12]
 2091 0018 0133     		adds	r3, r3, #1
 2092 001a FB60     		str	r3, [r7, #12]
 846:Middlewares/ST/STM32_USB_Device_Library/Core/Src/usbd_ctlreq.c ****   req->bRequest = *(uint8_t *)(pbuff);
 2093              		.loc 2 846 19
 2094 001c FB68     		ldr	r3, [r7, #12]
 2095 001e 1A78     		ldrb	r2, [r3]	@ zero_extendqisi2
 2096              		.loc 2 846 17
 2097 0020 7B68     		ldr	r3, [r7, #4]
 2098 0022 5A70     		strb	r2, [r3, #1]
 847:Middlewares/ST/STM32_USB_Device_Library/Core/Src/usbd_ctlreq.c **** 
 848:Middlewares/ST/STM32_USB_Device_Library/Core/Src/usbd_ctlreq.c ****   pbuff++;
 2099              		.loc 2 848 8
 2100 0024 FB68     		ldr	r3, [r7, #12]
 2101 0026 0133     		adds	r3, r3, #1
 2102 0028 FB60     		str	r3, [r7, #12]
 849:Middlewares/ST/STM32_USB_Device_Library/Core/Src/usbd_ctlreq.c ****   req->wValue = SWAPBYTE(pbuff);
 2103              		.loc 2 849 17
 2104 002a F868     		ldr	r0, [r7, #12]
 2105 002c FFF7FEFF 		bl	SWAPBYTE
 2106 0030 0346     		mov	r3, r0
 2107 0032 1A46     		mov	r2, r3
 2108              		.loc 2 849 15
 2109 0034 7B68     		ldr	r3, [r7, #4]
 2110 0036 5A80     		strh	r2, [r3, #2]	@ movhi
 850:Middlewares/ST/STM32_USB_Device_Library/Core/Src/usbd_ctlreq.c **** 
 851:Middlewares/ST/STM32_USB_Device_Library/Core/Src/usbd_ctlreq.c ****   pbuff++;
 2111              		.loc 2 851 8
 2112 0038 FB68     		ldr	r3, [r7, #12]
 2113 003a 0133     		adds	r3, r3, #1
 2114 003c FB60     		str	r3, [r7, #12]
 852:Middlewares/ST/STM32_USB_Device_Library/Core/Src/usbd_ctlreq.c ****   pbuff++;
 2115              		.loc 2 852 8
 2116 003e FB68     		ldr	r3, [r7, #12]
 2117 0040 0133     		adds	r3, r3, #1
 2118 0042 FB60     		str	r3, [r7, #12]
 853:Middlewares/ST/STM32_USB_Device_Library/Core/Src/usbd_ctlreq.c ****   req->wIndex = SWAPBYTE(pbuff);
 2119              		.loc 2 853 17
 2120 0044 F868     		ldr	r0, [r7, #12]
 2121 0046 FFF7FEFF 		bl	SWAPBYTE
 2122 004a 0346     		mov	r3, r0
 2123 004c 1A46     		mov	r2, r3
 2124              		.loc 2 853 15
 2125 004e 7B68     		ldr	r3, [r7, #4]
 2126 0050 9A80     		strh	r2, [r3, #4]	@ movhi
 854:Middlewares/ST/STM32_USB_Device_Library/Core/Src/usbd_ctlreq.c **** 
 855:Middlewares/ST/STM32_USB_Device_Library/Core/Src/usbd_ctlreq.c ****   pbuff++;
 2127              		.loc 2 855 8
 2128 0052 FB68     		ldr	r3, [r7, #12]
 2129 0054 0133     		adds	r3, r3, #1
 2130 0056 FB60     		str	r3, [r7, #12]
 856:Middlewares/ST/STM32_USB_Device_Library/Core/Src/usbd_ctlreq.c ****   pbuff++;
 2131              		.loc 2 856 8
 2132 0058 FB68     		ldr	r3, [r7, #12]
ARM GAS  /var/folders/vq/qt4vp3kd5rxf7v2b6_fdtdt80000gn/T//ccjnR4Ke.s 			page 60


 2133 005a 0133     		adds	r3, r3, #1
 2134 005c FB60     		str	r3, [r7, #12]
 857:Middlewares/ST/STM32_USB_Device_Library/Core/Src/usbd_ctlreq.c ****   req->wLength = SWAPBYTE(pbuff);
 2135              		.loc 2 857 18
 2136 005e F868     		ldr	r0, [r7, #12]
 2137 0060 FFF7FEFF 		bl	SWAPBYTE
 2138 0064 0346     		mov	r3, r0
 2139 0066 1A46     		mov	r2, r3
 2140              		.loc 2 857 16
 2141 0068 7B68     		ldr	r3, [r7, #4]
 2142 006a DA80     		strh	r2, [r3, #6]	@ movhi
 858:Middlewares/ST/STM32_USB_Device_Library/Core/Src/usbd_ctlreq.c **** }
 2143              		.loc 2 858 1
 2144 006c 00BF     		nop
 2145 006e 1037     		adds	r7, r7, #16
 2146              	.LCFI59:
 2147              		.cfi_def_cfa_offset 8
 2148 0070 BD46     		mov	sp, r7
 2149              	.LCFI60:
 2150              		.cfi_def_cfa_register 13
 2151              		@ sp needed
 2152 0072 80BD     		pop	{r7, pc}
 2153              		.cfi_endproc
 2154              	.LFE144:
 2156              		.section	.text.USBD_CtlError,"ax",%progbits
 2157              		.align	1
 2158              		.global	USBD_CtlError
 2159              		.syntax unified
 2160              		.thumb
 2161              		.thumb_func
 2162              		.fpu fpv4-sp-d16
 2164              	USBD_CtlError:
 2165              	.LFB145:
 859:Middlewares/ST/STM32_USB_Device_Library/Core/Src/usbd_ctlreq.c **** 
 860:Middlewares/ST/STM32_USB_Device_Library/Core/Src/usbd_ctlreq.c **** 
 861:Middlewares/ST/STM32_USB_Device_Library/Core/Src/usbd_ctlreq.c **** /**
 862:Middlewares/ST/STM32_USB_Device_Library/Core/Src/usbd_ctlreq.c ****   * @brief  USBD_CtlError
 863:Middlewares/ST/STM32_USB_Device_Library/Core/Src/usbd_ctlreq.c ****   *         Handle USB low level Error
 864:Middlewares/ST/STM32_USB_Device_Library/Core/Src/usbd_ctlreq.c ****   * @param  pdev: device instance
 865:Middlewares/ST/STM32_USB_Device_Library/Core/Src/usbd_ctlreq.c ****   * @param  req: usb request
 866:Middlewares/ST/STM32_USB_Device_Library/Core/Src/usbd_ctlreq.c ****   * @retval None
 867:Middlewares/ST/STM32_USB_Device_Library/Core/Src/usbd_ctlreq.c ****   */
 868:Middlewares/ST/STM32_USB_Device_Library/Core/Src/usbd_ctlreq.c **** void USBD_CtlError(USBD_HandleTypeDef *pdev, USBD_SetupReqTypedef *req)
 869:Middlewares/ST/STM32_USB_Device_Library/Core/Src/usbd_ctlreq.c **** {
 2166              		.loc 2 869 1
 2167              		.cfi_startproc
 2168              		@ args = 0, pretend = 0, frame = 8
 2169              		@ frame_needed = 1, uses_anonymous_args = 0
 2170 0000 80B5     		push	{r7, lr}
 2171              	.LCFI61:
 2172              		.cfi_def_cfa_offset 8
 2173              		.cfi_offset 7, -8
 2174              		.cfi_offset 14, -4
 2175 0002 82B0     		sub	sp, sp, #8
 2176              	.LCFI62:
 2177              		.cfi_def_cfa_offset 16
 2178 0004 00AF     		add	r7, sp, #0
ARM GAS  /var/folders/vq/qt4vp3kd5rxf7v2b6_fdtdt80000gn/T//ccjnR4Ke.s 			page 61


 2179              	.LCFI63:
 2180              		.cfi_def_cfa_register 7
 2181 0006 7860     		str	r0, [r7, #4]
 2182 0008 3960     		str	r1, [r7]
 870:Middlewares/ST/STM32_USB_Device_Library/Core/Src/usbd_ctlreq.c ****   UNUSED(req);
 871:Middlewares/ST/STM32_USB_Device_Library/Core/Src/usbd_ctlreq.c **** 
 872:Middlewares/ST/STM32_USB_Device_Library/Core/Src/usbd_ctlreq.c ****   (void)USBD_LL_StallEP(pdev, 0x80U);
 2183              		.loc 2 872 9
 2184 000a 8021     		movs	r1, #128
 2185 000c 7868     		ldr	r0, [r7, #4]
 2186 000e FFF7FEFF 		bl	USBD_LL_StallEP
 873:Middlewares/ST/STM32_USB_Device_Library/Core/Src/usbd_ctlreq.c ****   (void)USBD_LL_StallEP(pdev, 0U);
 2187              		.loc 2 873 9
 2188 0012 0021     		movs	r1, #0
 2189 0014 7868     		ldr	r0, [r7, #4]
 2190 0016 FFF7FEFF 		bl	USBD_LL_StallEP
 874:Middlewares/ST/STM32_USB_Device_Library/Core/Src/usbd_ctlreq.c **** }
 2191              		.loc 2 874 1
 2192 001a 00BF     		nop
 2193 001c 0837     		adds	r7, r7, #8
 2194              	.LCFI64:
 2195              		.cfi_def_cfa_offset 8
 2196 001e BD46     		mov	sp, r7
 2197              	.LCFI65:
 2198              		.cfi_def_cfa_register 13
 2199              		@ sp needed
 2200 0020 80BD     		pop	{r7, pc}
 2201              		.cfi_endproc
 2202              	.LFE145:
 2204              		.section	.text.USBD_GetString,"ax",%progbits
 2205              		.align	1
 2206              		.global	USBD_GetString
 2207              		.syntax unified
 2208              		.thumb
 2209              		.thumb_func
 2210              		.fpu fpv4-sp-d16
 2212              	USBD_GetString:
 2213              	.LFB146:
 875:Middlewares/ST/STM32_USB_Device_Library/Core/Src/usbd_ctlreq.c **** 
 876:Middlewares/ST/STM32_USB_Device_Library/Core/Src/usbd_ctlreq.c **** 
 877:Middlewares/ST/STM32_USB_Device_Library/Core/Src/usbd_ctlreq.c **** /**
 878:Middlewares/ST/STM32_USB_Device_Library/Core/Src/usbd_ctlreq.c ****   * @brief  USBD_GetString
 879:Middlewares/ST/STM32_USB_Device_Library/Core/Src/usbd_ctlreq.c ****   *         Convert Ascii string into unicode one
 880:Middlewares/ST/STM32_USB_Device_Library/Core/Src/usbd_ctlreq.c ****   * @param  desc : descriptor buffer
 881:Middlewares/ST/STM32_USB_Device_Library/Core/Src/usbd_ctlreq.c ****   * @param  unicode : Formatted string buffer (unicode)
 882:Middlewares/ST/STM32_USB_Device_Library/Core/Src/usbd_ctlreq.c ****   * @param  len : descriptor length
 883:Middlewares/ST/STM32_USB_Device_Library/Core/Src/usbd_ctlreq.c ****   * @retval None
 884:Middlewares/ST/STM32_USB_Device_Library/Core/Src/usbd_ctlreq.c ****   */
 885:Middlewares/ST/STM32_USB_Device_Library/Core/Src/usbd_ctlreq.c **** void USBD_GetString(uint8_t *desc, uint8_t *unicode, uint16_t *len)
 886:Middlewares/ST/STM32_USB_Device_Library/Core/Src/usbd_ctlreq.c **** {
 2214              		.loc 2 886 1
 2215              		.cfi_startproc
 2216              		@ args = 0, pretend = 0, frame = 24
 2217              		@ frame_needed = 1, uses_anonymous_args = 0
 2218 0000 80B5     		push	{r7, lr}
 2219              	.LCFI66:
 2220              		.cfi_def_cfa_offset 8
ARM GAS  /var/folders/vq/qt4vp3kd5rxf7v2b6_fdtdt80000gn/T//ccjnR4Ke.s 			page 62


 2221              		.cfi_offset 7, -8
 2222              		.cfi_offset 14, -4
 2223 0002 86B0     		sub	sp, sp, #24
 2224              	.LCFI67:
 2225              		.cfi_def_cfa_offset 32
 2226 0004 00AF     		add	r7, sp, #0
 2227              	.LCFI68:
 2228              		.cfi_def_cfa_register 7
 2229 0006 F860     		str	r0, [r7, #12]
 2230 0008 B960     		str	r1, [r7, #8]
 2231 000a 7A60     		str	r2, [r7, #4]
 887:Middlewares/ST/STM32_USB_Device_Library/Core/Src/usbd_ctlreq.c ****   uint8_t idx = 0U;
 2232              		.loc 2 887 11
 2233 000c 0023     		movs	r3, #0
 2234 000e FB75     		strb	r3, [r7, #23]
 888:Middlewares/ST/STM32_USB_Device_Library/Core/Src/usbd_ctlreq.c ****   uint8_t *pdesc;
 889:Middlewares/ST/STM32_USB_Device_Library/Core/Src/usbd_ctlreq.c **** 
 890:Middlewares/ST/STM32_USB_Device_Library/Core/Src/usbd_ctlreq.c ****   if (desc == NULL)
 2235              		.loc 2 890 6
 2236 0010 FB68     		ldr	r3, [r7, #12]
 2237 0012 002B     		cmp	r3, #0
 2238 0014 36D0     		beq	.L167
 891:Middlewares/ST/STM32_USB_Device_Library/Core/Src/usbd_ctlreq.c ****   {
 892:Middlewares/ST/STM32_USB_Device_Library/Core/Src/usbd_ctlreq.c ****     return;
 893:Middlewares/ST/STM32_USB_Device_Library/Core/Src/usbd_ctlreq.c ****   }
 894:Middlewares/ST/STM32_USB_Device_Library/Core/Src/usbd_ctlreq.c **** 
 895:Middlewares/ST/STM32_USB_Device_Library/Core/Src/usbd_ctlreq.c ****   pdesc = desc;
 2239              		.loc 2 895 9
 2240 0016 FB68     		ldr	r3, [r7, #12]
 2241 0018 3B61     		str	r3, [r7, #16]
 896:Middlewares/ST/STM32_USB_Device_Library/Core/Src/usbd_ctlreq.c ****   *len = ((uint16_t)USBD_GetLen(pdesc) * 2U) + 2U;
 2242              		.loc 2 896 21
 2243 001a 3869     		ldr	r0, [r7, #16]
 2244 001c FFF7FEFF 		bl	USBD_GetLen
 2245 0020 0346     		mov	r3, r0
 2246              		.loc 2 896 46
 2247 0022 0133     		adds	r3, r3, #1
 2248              		.loc 2 896 8
 2249 0024 9BB2     		uxth	r3, r3
 2250 0026 5B00     		lsls	r3, r3, #1
 2251 0028 9AB2     		uxth	r2, r3
 2252 002a 7B68     		ldr	r3, [r7, #4]
 2253 002c 1A80     		strh	r2, [r3]	@ movhi
 897:Middlewares/ST/STM32_USB_Device_Library/Core/Src/usbd_ctlreq.c **** 
 898:Middlewares/ST/STM32_USB_Device_Library/Core/Src/usbd_ctlreq.c ****   unicode[idx] = *(uint8_t *)len;
 2254              		.loc 2 898 10
 2255 002e FB7D     		ldrb	r3, [r7, #23]	@ zero_extendqisi2
 2256 0030 BA68     		ldr	r2, [r7, #8]
 2257 0032 1344     		add	r3, r3, r2
 2258              		.loc 2 898 18
 2259 0034 7A68     		ldr	r2, [r7, #4]
 2260 0036 1278     		ldrb	r2, [r2]	@ zero_extendqisi2
 2261              		.loc 2 898 16
 2262 0038 1A70     		strb	r2, [r3]
 899:Middlewares/ST/STM32_USB_Device_Library/Core/Src/usbd_ctlreq.c ****   idx++;
 2263              		.loc 2 899 6
 2264 003a FB7D     		ldrb	r3, [r7, #23]	@ zero_extendqisi2
ARM GAS  /var/folders/vq/qt4vp3kd5rxf7v2b6_fdtdt80000gn/T//ccjnR4Ke.s 			page 63


 2265 003c 0133     		adds	r3, r3, #1
 2266 003e FB75     		strb	r3, [r7, #23]
 900:Middlewares/ST/STM32_USB_Device_Library/Core/Src/usbd_ctlreq.c ****   unicode[idx] = USB_DESC_TYPE_STRING;
 2267              		.loc 2 900 10
 2268 0040 FB7D     		ldrb	r3, [r7, #23]	@ zero_extendqisi2
 2269 0042 BA68     		ldr	r2, [r7, #8]
 2270 0044 1344     		add	r3, r3, r2
 2271              		.loc 2 900 16
 2272 0046 0322     		movs	r2, #3
 2273 0048 1A70     		strb	r2, [r3]
 901:Middlewares/ST/STM32_USB_Device_Library/Core/Src/usbd_ctlreq.c ****   idx++;
 2274              		.loc 2 901 6
 2275 004a FB7D     		ldrb	r3, [r7, #23]	@ zero_extendqisi2
 2276 004c 0133     		adds	r3, r3, #1
 2277 004e FB75     		strb	r3, [r7, #23]
 902:Middlewares/ST/STM32_USB_Device_Library/Core/Src/usbd_ctlreq.c **** 
 903:Middlewares/ST/STM32_USB_Device_Library/Core/Src/usbd_ctlreq.c ****   while (*pdesc != (uint8_t)'\0')
 2278              		.loc 2 903 9
 2279 0050 13E0     		b	.L165
 2280              	.L166:
 904:Middlewares/ST/STM32_USB_Device_Library/Core/Src/usbd_ctlreq.c ****   {
 905:Middlewares/ST/STM32_USB_Device_Library/Core/Src/usbd_ctlreq.c ****     unicode[idx] = *pdesc;
 2281              		.loc 2 905 12
 2282 0052 FB7D     		ldrb	r3, [r7, #23]	@ zero_extendqisi2
 2283 0054 BA68     		ldr	r2, [r7, #8]
 2284 0056 1344     		add	r3, r3, r2
 2285              		.loc 2 905 20
 2286 0058 3A69     		ldr	r2, [r7, #16]
 2287 005a 1278     		ldrb	r2, [r2]	@ zero_extendqisi2
 2288              		.loc 2 905 18
 2289 005c 1A70     		strb	r2, [r3]
 906:Middlewares/ST/STM32_USB_Device_Library/Core/Src/usbd_ctlreq.c ****     pdesc++;
 2290              		.loc 2 906 10
 2291 005e 3B69     		ldr	r3, [r7, #16]
 2292 0060 0133     		adds	r3, r3, #1
 2293 0062 3B61     		str	r3, [r7, #16]
 907:Middlewares/ST/STM32_USB_Device_Library/Core/Src/usbd_ctlreq.c ****     idx++;
 2294              		.loc 2 907 8
 2295 0064 FB7D     		ldrb	r3, [r7, #23]	@ zero_extendqisi2
 2296 0066 0133     		adds	r3, r3, #1
 2297 0068 FB75     		strb	r3, [r7, #23]
 908:Middlewares/ST/STM32_USB_Device_Library/Core/Src/usbd_ctlreq.c **** 
 909:Middlewares/ST/STM32_USB_Device_Library/Core/Src/usbd_ctlreq.c ****     unicode[idx] = 0U;
 2298              		.loc 2 909 12
 2299 006a FB7D     		ldrb	r3, [r7, #23]	@ zero_extendqisi2
 2300 006c BA68     		ldr	r2, [r7, #8]
 2301 006e 1344     		add	r3, r3, r2
 2302              		.loc 2 909 18
 2303 0070 0022     		movs	r2, #0
 2304 0072 1A70     		strb	r2, [r3]
 910:Middlewares/ST/STM32_USB_Device_Library/Core/Src/usbd_ctlreq.c ****     idx++;
 2305              		.loc 2 910 8
 2306 0074 FB7D     		ldrb	r3, [r7, #23]	@ zero_extendqisi2
 2307 0076 0133     		adds	r3, r3, #1
 2308 0078 FB75     		strb	r3, [r7, #23]
 2309              	.L165:
 903:Middlewares/ST/STM32_USB_Device_Library/Core/Src/usbd_ctlreq.c ****   {
ARM GAS  /var/folders/vq/qt4vp3kd5rxf7v2b6_fdtdt80000gn/T//ccjnR4Ke.s 			page 64


 2310              		.loc 2 903 10
 2311 007a 3B69     		ldr	r3, [r7, #16]
 2312 007c 1B78     		ldrb	r3, [r3]	@ zero_extendqisi2
 903:Middlewares/ST/STM32_USB_Device_Library/Core/Src/usbd_ctlreq.c ****   {
 2313              		.loc 2 903 9
 2314 007e 002B     		cmp	r3, #0
 2315 0080 E7D1     		bne	.L166
 2316 0082 00E0     		b	.L162
 2317              	.L167:
 892:Middlewares/ST/STM32_USB_Device_Library/Core/Src/usbd_ctlreq.c ****   }
 2318              		.loc 2 892 5
 2319 0084 00BF     		nop
 2320              	.L162:
 911:Middlewares/ST/STM32_USB_Device_Library/Core/Src/usbd_ctlreq.c ****   }
 912:Middlewares/ST/STM32_USB_Device_Library/Core/Src/usbd_ctlreq.c **** }
 2321              		.loc 2 912 1
 2322 0086 1837     		adds	r7, r7, #24
 2323              	.LCFI69:
 2324              		.cfi_def_cfa_offset 8
 2325 0088 BD46     		mov	sp, r7
 2326              	.LCFI70:
 2327              		.cfi_def_cfa_register 13
 2328              		@ sp needed
 2329 008a 80BD     		pop	{r7, pc}
 2330              		.cfi_endproc
 2331              	.LFE146:
 2333              		.section	.text.USBD_GetLen,"ax",%progbits
 2334              		.align	1
 2335              		.syntax unified
 2336              		.thumb
 2337              		.thumb_func
 2338              		.fpu fpv4-sp-d16
 2340              	USBD_GetLen:
 2341              	.LFB147:
 913:Middlewares/ST/STM32_USB_Device_Library/Core/Src/usbd_ctlreq.c **** 
 914:Middlewares/ST/STM32_USB_Device_Library/Core/Src/usbd_ctlreq.c **** 
 915:Middlewares/ST/STM32_USB_Device_Library/Core/Src/usbd_ctlreq.c **** /**
 916:Middlewares/ST/STM32_USB_Device_Library/Core/Src/usbd_ctlreq.c ****   * @brief  USBD_GetLen
 917:Middlewares/ST/STM32_USB_Device_Library/Core/Src/usbd_ctlreq.c ****   *         return the string length
 918:Middlewares/ST/STM32_USB_Device_Library/Core/Src/usbd_ctlreq.c ****    * @param  buf : pointer to the ascii string buffer
 919:Middlewares/ST/STM32_USB_Device_Library/Core/Src/usbd_ctlreq.c ****   * @retval string length
 920:Middlewares/ST/STM32_USB_Device_Library/Core/Src/usbd_ctlreq.c ****   */
 921:Middlewares/ST/STM32_USB_Device_Library/Core/Src/usbd_ctlreq.c **** static uint8_t USBD_GetLen(uint8_t *buf)
 922:Middlewares/ST/STM32_USB_Device_Library/Core/Src/usbd_ctlreq.c **** {
 2342              		.loc 2 922 1
 2343              		.cfi_startproc
 2344              		@ args = 0, pretend = 0, frame = 16
 2345              		@ frame_needed = 1, uses_anonymous_args = 0
 2346              		@ link register save eliminated.
 2347 0000 80B4     		push	{r7}
 2348              	.LCFI71:
 2349              		.cfi_def_cfa_offset 4
 2350              		.cfi_offset 7, -4
 2351 0002 85B0     		sub	sp, sp, #20
 2352              	.LCFI72:
 2353              		.cfi_def_cfa_offset 24
 2354 0004 00AF     		add	r7, sp, #0
ARM GAS  /var/folders/vq/qt4vp3kd5rxf7v2b6_fdtdt80000gn/T//ccjnR4Ke.s 			page 65


 2355              	.LCFI73:
 2356              		.cfi_def_cfa_register 7
 2357 0006 7860     		str	r0, [r7, #4]
 923:Middlewares/ST/STM32_USB_Device_Library/Core/Src/usbd_ctlreq.c ****   uint8_t  len = 0U;
 2358              		.loc 2 923 12
 2359 0008 0023     		movs	r3, #0
 2360 000a FB73     		strb	r3, [r7, #15]
 924:Middlewares/ST/STM32_USB_Device_Library/Core/Src/usbd_ctlreq.c ****   uint8_t *pbuff = buf;
 2361              		.loc 2 924 12
 2362 000c 7B68     		ldr	r3, [r7, #4]
 2363 000e BB60     		str	r3, [r7, #8]
 925:Middlewares/ST/STM32_USB_Device_Library/Core/Src/usbd_ctlreq.c **** 
 926:Middlewares/ST/STM32_USB_Device_Library/Core/Src/usbd_ctlreq.c ****   while (*pbuff != (uint8_t)'\0')
 2364              		.loc 2 926 9
 2365 0010 05E0     		b	.L169
 2366              	.L170:
 927:Middlewares/ST/STM32_USB_Device_Library/Core/Src/usbd_ctlreq.c ****   {
 928:Middlewares/ST/STM32_USB_Device_Library/Core/Src/usbd_ctlreq.c ****     len++;
 2367              		.loc 2 928 8
 2368 0012 FB7B     		ldrb	r3, [r7, #15]	@ zero_extendqisi2
 2369 0014 0133     		adds	r3, r3, #1
 2370 0016 FB73     		strb	r3, [r7, #15]
 929:Middlewares/ST/STM32_USB_Device_Library/Core/Src/usbd_ctlreq.c ****     pbuff++;
 2371              		.loc 2 929 10
 2372 0018 BB68     		ldr	r3, [r7, #8]
 2373 001a 0133     		adds	r3, r3, #1
 2374 001c BB60     		str	r3, [r7, #8]
 2375              	.L169:
 926:Middlewares/ST/STM32_USB_Device_Library/Core/Src/usbd_ctlreq.c ****   {
 2376              		.loc 2 926 10
 2377 001e BB68     		ldr	r3, [r7, #8]
 2378 0020 1B78     		ldrb	r3, [r3]	@ zero_extendqisi2
 926:Middlewares/ST/STM32_USB_Device_Library/Core/Src/usbd_ctlreq.c ****   {
 2379              		.loc 2 926 9
 2380 0022 002B     		cmp	r3, #0
 2381 0024 F5D1     		bne	.L170
 930:Middlewares/ST/STM32_USB_Device_Library/Core/Src/usbd_ctlreq.c ****   }
 931:Middlewares/ST/STM32_USB_Device_Library/Core/Src/usbd_ctlreq.c **** 
 932:Middlewares/ST/STM32_USB_Device_Library/Core/Src/usbd_ctlreq.c ****   return len;
 2382              		.loc 2 932 10
 2383 0026 FB7B     		ldrb	r3, [r7, #15]	@ zero_extendqisi2
 933:Middlewares/ST/STM32_USB_Device_Library/Core/Src/usbd_ctlreq.c **** }
 2384              		.loc 2 933 1
 2385 0028 1846     		mov	r0, r3
 2386 002a 1437     		adds	r7, r7, #20
 2387              	.LCFI74:
 2388              		.cfi_def_cfa_offset 4
 2389 002c BD46     		mov	sp, r7
 2390              	.LCFI75:
 2391              		.cfi_def_cfa_register 13
 2392              		@ sp needed
 2393 002e 5DF8047B 		ldr	r7, [sp], #4
 2394              	.LCFI76:
 2395              		.cfi_restore 7
 2396              		.cfi_def_cfa_offset 0
 2397 0032 7047     		bx	lr
 2398              		.cfi_endproc
ARM GAS  /var/folders/vq/qt4vp3kd5rxf7v2b6_fdtdt80000gn/T//ccjnR4Ke.s 			page 66


 2399              	.LFE147:
 2401              		.section	.bss.cfgidx.9901,"aw",%nobits
 2404              	cfgidx.9901:
 2405 0000 00       		.space	1
 2406              		.text
 2407              	.Letext0:
 2408              		.file 3 "/usr/local/Cellar/arm-none-eabi-gcc/9-2019-q4-major/gcc/arm-none-eabi/include/machine/_de
 2409              		.file 4 "/usr/local/Cellar/arm-none-eabi-gcc/9-2019-q4-major/gcc/arm-none-eabi/include/sys/lock.h"
 2410              		.file 5 "/usr/local/Cellar/arm-none-eabi-gcc/9-2019-q4-major/gcc/arm-none-eabi/include/sys/_types.
 2411              		.file 6 "/usr/local/Cellar/arm-none-eabi-gcc/9-2019-q4-major/gcc/lib/gcc/arm-none-eabi/9.2.1/inclu
 2412              		.file 7 "/usr/local/Cellar/arm-none-eabi-gcc/9-2019-q4-major/gcc/arm-none-eabi/include/sys/reent.h
 2413              		.file 8 "/usr/local/Cellar/arm-none-eabi-gcc/9-2019-q4-major/gcc/arm-none-eabi/include/sys/_stdint
 2414              		.file 9 "/usr/local/Cellar/arm-none-eabi-gcc/9-2019-q4-major/gcc/arm-none-eabi/include/stdlib.h"
 2415              		.file 10 "Drivers/CMSIS/Include/core_cm4.h"
 2416              		.file 11 "Drivers/CMSIS/Device/ST/STM32F4xx/Include/system_stm32f4xx.h"
 2417              		.file 12 "Drivers/STM32F4xx_HAL_Driver/Inc/stm32f4xx_hal.h"
ARM GAS  /var/folders/vq/qt4vp3kd5rxf7v2b6_fdtdt80000gn/T//ccjnR4Ke.s 			page 67

